ARM GAS  C:\DOCUME~1\Chuck\LOCALS~1\Temp\ccGHApQD.s 			page 1


   1              		.cpu cortex-m0
   2              		.fpu softvfp
   3              		.eabi_attribute 20, 1
   4              		.eabi_attribute 21, 1
   5              		.eabi_attribute 23, 3
   6              		.eabi_attribute 24, 1
   7              		.eabi_attribute 25, 1
   8              		.eabi_attribute 26, 1
   9              		.eabi_attribute 30, 6
  10              		.eabi_attribute 34, 0
  11              		.eabi_attribute 18, 4
  12              		.code	16
  13              		.file	"ADC.cpp"
  14              		.text
  15              	.Ltext0:
  16              		.cfi_sections	.debug_frame
  17              		.section	.text._ZN3ros3MsgC2Ev,"axG",%progbits,_ZN3ros3MsgC5Ev,comdat
  18              		.align	2
  19              		.weak	_ZN3ros3MsgC2Ev
  20              		.code	16
  21              		.thumb_func
  22              		.type	_ZN3ros3MsgC2Ev, %function
  23              	_ZN3ros3MsgC2Ev:
  24              	.LFB21:
  25              		.file 1 "./ros_lib/ros/msg.h"
   1:./ros_lib/ros/msg.h **** /* 
   2:./ros_lib/ros/msg.h ****  * Software License Agreement (BSD License)
   3:./ros_lib/ros/msg.h ****  *
   4:./ros_lib/ros/msg.h ****  * Copyright (c) 2011, Willow Garage, Inc.
   5:./ros_lib/ros/msg.h ****  * All rights reserved.
   6:./ros_lib/ros/msg.h ****  *
   7:./ros_lib/ros/msg.h ****  * Redistribution and use in source and binary forms, with or without
   8:./ros_lib/ros/msg.h ****  * modification, are permitted provided that the following conditions
   9:./ros_lib/ros/msg.h ****  * are met:
  10:./ros_lib/ros/msg.h ****  *
  11:./ros_lib/ros/msg.h ****  *  * Redistributions of source code must retain the above copyright
  12:./ros_lib/ros/msg.h ****  *    notice, this list of conditions and the following disclaimer.
  13:./ros_lib/ros/msg.h ****  *  * Redistributions in binary form must reproduce the above
  14:./ros_lib/ros/msg.h ****  *    copyright notice, this list of conditions and the following
  15:./ros_lib/ros/msg.h ****  *    disclaimer in the documentation and/or other materials provided
  16:./ros_lib/ros/msg.h ****  *    with the distribution.
  17:./ros_lib/ros/msg.h ****  *  * Neither the name of Willow Garage, Inc. nor the names of its
  18:./ros_lib/ros/msg.h ****  *    contributors may be used to endorse or promote prducts derived
  19:./ros_lib/ros/msg.h ****  *    from this software without specific prior written permission.
  20:./ros_lib/ros/msg.h ****  *
  21:./ros_lib/ros/msg.h ****  * THIS SOFTWARE IS PROVIDED BY THE COPYRIGHT HOLDERS AND CONTRIBUTORS
  22:./ros_lib/ros/msg.h ****  * "AS IS" AND ANY EXPRESS OR IMPLIED WARRANTIES, INCLUDING, BUT NOT
  23:./ros_lib/ros/msg.h ****  * LIMITED TO, THE IMPLIED WARRANTIES OF MERCHANTABILITY AND FITNESS
  24:./ros_lib/ros/msg.h ****  * FOR A PARTICULAR PURPOSE ARE DISCLAIMED. IN NO EVENT SHALL THE
  25:./ros_lib/ros/msg.h ****  * COPYRIGHT OWNER OR CONTRIBUTORS BE LIABLE FOR ANY DIRECT, INDIRECT,
  26:./ros_lib/ros/msg.h ****  * INCIDENTAL, SPECIAL, EXEMPLARY, OR CONSEQUENTIAL DAMAGES (INCLUDING,
  27:./ros_lib/ros/msg.h ****  * BUT NOT LIMITED TO, PROCUREMENT OF SUBSTITUTE GOODS OR SERVICES;
  28:./ros_lib/ros/msg.h ****  * LOSS OF USE, DATA, OR PROFITS; OR BUSINESS INTERRUPTION) HOWEVER
  29:./ros_lib/ros/msg.h ****  * CAUSED AND ON ANY THEORY OF LIABILITY, WHETHER IN CONTRACT, STRICT
  30:./ros_lib/ros/msg.h ****  * LIABILITY, OR TORT (INCLUDING NEGLIGENCE OR OTHERWISE) ARISING IN
  31:./ros_lib/ros/msg.h ****  * ANY WAY OUT OF THE USE OF THIS SOFTWARE, EVEN IF ADVISED OF THE
  32:./ros_lib/ros/msg.h ****  * POSSIBILITY OF SUCH DAMAGE.
ARM GAS  C:\DOCUME~1\Chuck\LOCALS~1\Temp\ccGHApQD.s 			page 2


  33:./ros_lib/ros/msg.h ****  */
  34:./ros_lib/ros/msg.h **** 
  35:./ros_lib/ros/msg.h **** #ifndef _ROS_MSG_H_
  36:./ros_lib/ros/msg.h **** #define _ROS_MSG_H_
  37:./ros_lib/ros/msg.h **** 
  38:./ros_lib/ros/msg.h **** #include <stdint.h>
  39:./ros_lib/ros/msg.h **** 
  40:./ros_lib/ros/msg.h **** namespace ros {
  41:./ros_lib/ros/msg.h **** 
  42:./ros_lib/ros/msg.h **** /* Base Message Type */
  43:./ros_lib/ros/msg.h **** class Msg
  26              		.loc 1 43 0
  27              		.cfi_startproc
  28 0000 80B5     		push	{r7, lr}
  29              		.cfi_def_cfa_offset 8
  30              		.cfi_offset 7, -8
  31              		.cfi_offset 14, -4
  32 0002 82B0     		sub	sp, sp, #8
  33              		.cfi_def_cfa_offset 16
  34 0004 00AF     		add	r7, sp, #0
  35              		.cfi_def_cfa_register 7
  36 0006 7860     		str	r0, [r7, #4]
  37              	.LBB2:
  38              		.loc 1 43 0
  39 0008 7B68     		ldr	r3, [r7, #4]
  40 000a 034A     		ldr	r2, .L4
  41 000c 1A60     		str	r2, [r3]
  42              	.LBE2:
  43 000e 7B68     		ldr	r3, [r7, #4]
  44 0010 181C     		mov	r0, r3
  45 0012 BD46     		mov	sp, r7
  46 0014 02B0     		add	sp, sp, #8
  47              		@ sp needed
  48 0016 80BD     		pop	{r7, pc}
  49              	.L5:
  50              		.align	2
  51              	.L4:
  52 0018 08000000 		.word	_ZTVN3ros3MsgE+8
  53              		.cfi_endproc
  54              	.LFE21:
  55              		.size	_ZN3ros3MsgC2Ev, .-_ZN3ros3MsgC2Ev
  56              		.weak	_ZN3ros3MsgC1Ev
  57              		.thumb_set _ZN3ros3MsgC1Ev,_ZN3ros3MsgC2Ev
  58              		.section	.text._ZN3ros9PublisherC2EPKcPNS_3MsgEi,"axG",%progbits,_ZN3ros9PublisherC5EPKcPNS_3MsgEi
  59              		.align	2
  60              		.weak	_ZN3ros9PublisherC2EPKcPNS_3MsgEi
  61              		.code	16
  62              		.thumb_func
  63              		.type	_ZN3ros9PublisherC2EPKcPNS_3MsgEi, %function
  64              	_ZN3ros9PublisherC2EPKcPNS_3MsgEi:
  65              	.LFB58:
  66              		.file 2 "./ros_lib/ros/publisher.h"
   1:./ros_lib/ros/publisher.h **** /* 
   2:./ros_lib/ros/publisher.h ****  * Software License Agreement (BSD License)
   3:./ros_lib/ros/publisher.h ****  *
   4:./ros_lib/ros/publisher.h ****  * Copyright (c) 2011, Willow Garage, Inc.
   5:./ros_lib/ros/publisher.h ****  * All rights reserved.
ARM GAS  C:\DOCUME~1\Chuck\LOCALS~1\Temp\ccGHApQD.s 			page 3


   6:./ros_lib/ros/publisher.h ****  *
   7:./ros_lib/ros/publisher.h ****  * Redistribution and use in source and binary forms, with or without
   8:./ros_lib/ros/publisher.h ****  * modification, are permitted provided that the following conditions
   9:./ros_lib/ros/publisher.h ****  * are met:
  10:./ros_lib/ros/publisher.h ****  *
  11:./ros_lib/ros/publisher.h ****  *  * Redistributions of source code must retain the above copyright
  12:./ros_lib/ros/publisher.h ****  *    notice, this list of conditions and the following disclaimer.
  13:./ros_lib/ros/publisher.h ****  *  * Redistributions in binary form must reproduce the above
  14:./ros_lib/ros/publisher.h ****  *    copyright notice, this list of conditions and the following
  15:./ros_lib/ros/publisher.h ****  *    disclaimer in the documentation and/or other materials provided
  16:./ros_lib/ros/publisher.h ****  *    with the distribution.
  17:./ros_lib/ros/publisher.h ****  *  * Neither the name of Willow Garage, Inc. nor the names of its
  18:./ros_lib/ros/publisher.h ****  *    contributors may be used to endorse or promote prducts derived
  19:./ros_lib/ros/publisher.h ****  *    from this software without specific prior written permission.
  20:./ros_lib/ros/publisher.h ****  *
  21:./ros_lib/ros/publisher.h ****  * THIS SOFTWARE IS PROVIDED BY THE COPYRIGHT HOLDERS AND CONTRIBUTORS
  22:./ros_lib/ros/publisher.h ****  * "AS IS" AND ANY EXPRESS OR IMPLIED WARRANTIES, INCLUDING, BUT NOT
  23:./ros_lib/ros/publisher.h ****  * LIMITED TO, THE IMPLIED WARRANTIES OF MERCHANTABILITY AND FITNESS
  24:./ros_lib/ros/publisher.h ****  * FOR A PARTICULAR PURPOSE ARE DISCLAIMED. IN NO EVENT SHALL THE
  25:./ros_lib/ros/publisher.h ****  * COPYRIGHT OWNER OR CONTRIBUTORS BE LIABLE FOR ANY DIRECT, INDIRECT,
  26:./ros_lib/ros/publisher.h ****  * INCIDENTAL, SPECIAL, EXEMPLARY, OR CONSEQUENTIAL DAMAGES (INCLUDING,
  27:./ros_lib/ros/publisher.h ****  * BUT NOT LIMITED TO, PROCUREMENT OF SUBSTITUTE GOODS OR SERVICES;
  28:./ros_lib/ros/publisher.h ****  * LOSS OF USE, DATA, OR PROFITS; OR BUSINESS INTERRUPTION) HOWEVER
  29:./ros_lib/ros/publisher.h ****  * CAUSED AND ON ANY THEORY OF LIABILITY, WHETHER IN CONTRACT, STRICT
  30:./ros_lib/ros/publisher.h ****  * LIABILITY, OR TORT (INCLUDING NEGLIGENCE OR OTHERWISE) ARISING IN
  31:./ros_lib/ros/publisher.h ****  * ANY WAY OUT OF THE USE OF THIS SOFTWARE, EVEN IF ADVISED OF THE
  32:./ros_lib/ros/publisher.h ****  * POSSIBILITY OF SUCH DAMAGE.
  33:./ros_lib/ros/publisher.h ****  */
  34:./ros_lib/ros/publisher.h **** 
  35:./ros_lib/ros/publisher.h **** #ifndef _ROS_PUBLISHER_H_
  36:./ros_lib/ros/publisher.h **** #define _ROS_PUBLISHER_H_
  37:./ros_lib/ros/publisher.h **** 
  38:./ros_lib/ros/publisher.h **** #include "rosserial_msgs/TopicInfo.h"
  39:./ros_lib/ros/publisher.h **** #include "node_handle.h"
  40:./ros_lib/ros/publisher.h **** 
  41:./ros_lib/ros/publisher.h **** namespace ros {
  42:./ros_lib/ros/publisher.h **** 
  43:./ros_lib/ros/publisher.h ****   /* Generic Publisher */
  44:./ros_lib/ros/publisher.h ****   class Publisher
  45:./ros_lib/ros/publisher.h ****   {
  46:./ros_lib/ros/publisher.h ****     public:
  47:./ros_lib/ros/publisher.h ****       Publisher( const char * topic_name, Msg * msg, int endpoint=rosserial_msgs::TopicInfo::ID_PUB
  67              		.loc 2 47 0
  68              		.cfi_startproc
  69 0000 80B5     		push	{r7, lr}
  70              		.cfi_def_cfa_offset 8
  71              		.cfi_offset 7, -8
  72              		.cfi_offset 14, -4
  73 0002 84B0     		sub	sp, sp, #16
  74              		.cfi_def_cfa_offset 24
  75 0004 00AF     		add	r7, sp, #0
  76              		.cfi_def_cfa_register 7
  77 0006 F860     		str	r0, [r7, #12]
  78 0008 B960     		str	r1, [r7, #8]
  79 000a 7A60     		str	r2, [r7, #4]
  80 000c 3B60     		str	r3, [r7]
  81              	.LBB3:
ARM GAS  C:\DOCUME~1\Chuck\LOCALS~1\Temp\ccGHApQD.s 			page 4


  48:./ros_lib/ros/publisher.h ****         topic_(topic_name), 
  49:./ros_lib/ros/publisher.h ****         msg_(msg),
  50:./ros_lib/ros/publisher.h ****         endpoint_(endpoint) {};
  82              		.loc 2 50 0
  83 000e FB68     		ldr	r3, [r7, #12]
  84 0010 BA68     		ldr	r2, [r7, #8]
  85 0012 1A60     		str	r2, [r3]
  86 0014 FB68     		ldr	r3, [r7, #12]
  87 0016 7A68     		ldr	r2, [r7, #4]
  88 0018 5A60     		str	r2, [r3, #4]
  89 001a FB68     		ldr	r3, [r7, #12]
  90 001c 3A68     		ldr	r2, [r7]
  91 001e 1A61     		str	r2, [r3, #16]
  92              	.LBE3:
  93 0020 FB68     		ldr	r3, [r7, #12]
  94 0022 181C     		mov	r0, r3
  95 0024 BD46     		mov	sp, r7
  96 0026 04B0     		add	sp, sp, #16
  97              		@ sp needed
  98 0028 80BD     		pop	{r7, pc}
  99              		.cfi_endproc
 100              	.LFE58:
 101              		.size	_ZN3ros9PublisherC2EPKcPNS_3MsgEi, .-_ZN3ros9PublisherC2EPKcPNS_3MsgEi
 102              		.weak	_ZN3ros9PublisherC1EPKcPNS_3MsgEi
 103              		.thumb_set _ZN3ros9PublisherC1EPKcPNS_3MsgEi,_ZN3ros9PublisherC2EPKcPNS_3MsgEi
 104 002a C046     		.section	.text._ZN3ros9Publisher7publishEPKNS_3MsgE,"axG",%progbits,_ZN3ros9Publisher7publishEPKNS
 105              		.align	2
 106              		.weak	_ZN3ros9Publisher7publishEPKNS_3MsgE
 107              		.code	16
 108              		.thumb_func
 109              		.type	_ZN3ros9Publisher7publishEPKNS_3MsgE, %function
 110              	_ZN3ros9Publisher7publishEPKNS_3MsgE:
 111              	.LFB60:
  51:./ros_lib/ros/publisher.h ****       // rosserial standard signature
  52:./ros_lib/ros/publisher.h ****       int publish( const Msg * msg ) { return nh_->publish(id_, msg); };
 112              		.loc 2 52 0
 113              		.cfi_startproc
 114 0000 90B5     		push	{r4, r7, lr}
 115              		.cfi_def_cfa_offset 12
 116              		.cfi_offset 4, -12
 117              		.cfi_offset 7, -8
 118              		.cfi_offset 14, -4
 119 0002 83B0     		sub	sp, sp, #12
 120              		.cfi_def_cfa_offset 24
 121 0004 00AF     		add	r7, sp, #0
 122              		.cfi_def_cfa_register 7
 123 0006 7860     		str	r0, [r7, #4]
 124 0008 3960     		str	r1, [r7]
 125              		.loc 2 52 0
 126 000a 7B68     		ldr	r3, [r7, #4]
 127 000c DB68     		ldr	r3, [r3, #12]
 128 000e 1B68     		ldr	r3, [r3]
 129 0010 1C68     		ldr	r4, [r3]
 130 0012 7B68     		ldr	r3, [r7, #4]
 131 0014 D968     		ldr	r1, [r3, #12]
 132 0016 7B68     		ldr	r3, [r7, #4]
 133 0018 9A68     		ldr	r2, [r3, #8]
ARM GAS  C:\DOCUME~1\Chuck\LOCALS~1\Temp\ccGHApQD.s 			page 5


 134 001a 3B68     		ldr	r3, [r7]
 135 001c 081C     		mov	r0, r1
 136 001e 111C     		mov	r1, r2
 137 0020 1A1C     		mov	r2, r3
 138 0022 A047     		blx	r4
 139 0024 031C     		mov	r3, r0
 140 0026 181C     		mov	r0, r3
 141 0028 BD46     		mov	sp, r7
 142 002a 03B0     		add	sp, sp, #12
 143              		@ sp needed
 144 002c 90BD     		pop	{r4, r7, pc}
 145              		.cfi_endproc
 146              	.LFE60:
 147              		.size	_ZN3ros9Publisher7publishEPKNS_3MsgE, .-_ZN3ros9Publisher7publishEPKNS_3MsgE
 148 002e C046     		.section	.text._ZN8SysTimer6millisEv,"axG",%progbits,_ZN8SysTimer6millisEv,comdat
 149              		.align	2
 150              		.weak	_ZN8SysTimer6millisEv
 151              		.code	16
 152              		.thumb_func
 153              		.type	_ZN8SysTimer6millisEv, %function
 154              	_ZN8SysTimer6millisEv:
 155              	.LFB109:
 156              		.file 3 "./ros_lib/SysTimer.h"
   1:./ros_lib/SysTimer.h **** /* ========================================
   2:./ros_lib/SysTimer.h ****  *
   3:./ros_lib/SysTimer.h ****  * The following firmware was developed by Chuck Harrison
   4:./ros_lib/SysTimer.h ****  * This work is licensed under a Creative Commons Attribution 3.0 Unported License.
   5:./ros_lib/SysTimer.h ****  * 
   6:./ros_lib/SysTimer.h ****  * http://creativecommons.org/licenses/by/3.0/deed.en_US
   7:./ros_lib/SysTimer.h ****  * 
   8:./ros_lib/SysTimer.h ****  * You are free to:
   9:./ros_lib/SysTimer.h ****  * -To Share — to copy, distribute and transmit the work 
  10:./ros_lib/SysTimer.h ****  * -To Remix — to adapt the work 
  11:./ros_lib/SysTimer.h ****  * -To make commercial use of the work
  12:./ros_lib/SysTimer.h ****  *
  13:./ros_lib/SysTimer.h ****  * ========================================
  14:./ros_lib/SysTimer.h ****  */
  15:./ros_lib/SysTimer.h **** 
  16:./ros_lib/SysTimer.h **** #ifndef ROS_SYSTIMER_H_
  17:./ros_lib/SysTimer.h **** #define ROS_SYSTIMER_H_
  18:./ros_lib/SysTimer.h **** 
  19:./ros_lib/SysTimer.h **** typedef void (* cyisraddress)(void); // should we #include the whole cytypes.h?
  20:./ros_lib/SysTimer.h **** #define CY_ISR(FuncName)        void FuncName (void)
  21:./ros_lib/SysTimer.h **** 
  22:./ros_lib/SysTimer.h **** extern "C" {
  23:./ros_lib/SysTimer.h **** cyisraddress CyIntSetSysVector(uint8_t number, cyisraddress address);
  24:./ros_lib/SysTimer.h **** }
  25:./ros_lib/SysTimer.h **** 
  26:./ros_lib/SysTimer.h **** CY_ISR(SysTick_ISR); //forward declaration for SysTimer::init()
  27:./ros_lib/SysTimer.h **** 
  28:./ros_lib/SysTimer.h **** #define SYSTICK_INTERRUPT_VECTOR_NUMBER 15u /* Cortex-M0 hard vector */
  29:./ros_lib/SysTimer.h **** 
  30:./ros_lib/SysTimer.h **** /* clock and interrupt rates, in Hz */
  31:./ros_lib/SysTimer.h **** #define CLOCK_FREQ     24000000u
  32:./ros_lib/SysTimer.h **** #define INTERRUPT_FREQ 1000u
  33:./ros_lib/SysTimer.h **** 
  34:./ros_lib/SysTimer.h **** 
ARM GAS  C:\DOCUME~1\Chuck\LOCALS~1\Temp\ccGHApQD.s 			page 6


  35:./ros_lib/SysTimer.h **** class SysTimer
  36:./ros_lib/SysTimer.h **** {
  37:./ros_lib/SysTimer.h ****   public:
  38:./ros_lib/SysTimer.h ****     static void init() {
  39:./ros_lib/SysTimer.h ****       CyIntSetSysVector(SYSTICK_INTERRUPT_VECTOR_NUMBER, SysTick_ISR);
  40:./ros_lib/SysTimer.h ****       // must eventually do this:
  41:./ros_lib/SysTimer.h ****       //  SysTick_Config(CLOCK_FREQ / INTERRUPT_FREQ); /* defined in auto-generated core_cm0.h */
  42:./ros_lib/SysTimer.h ****       //  CyGlobalIntEnable;
  43:./ros_lib/SysTimer.h ****       millis_ = 0;
  44:./ros_lib/SysTimer.h ****     };
  45:./ros_lib/SysTimer.h ****     static uint32_t millis() { return millis_; };
 157              		.loc 3 45 0
 158              		.cfi_startproc
 159 0000 80B5     		push	{r7, lr}
 160              		.cfi_def_cfa_offset 8
 161              		.cfi_offset 7, -8
 162              		.cfi_offset 14, -4
 163 0002 00AF     		add	r7, sp, #0
 164              		.cfi_def_cfa_register 7
 165              		.loc 3 45 0
 166 0004 024B     		ldr	r3, .L13
 167 0006 1B68     		ldr	r3, [r3]
 168 0008 181C     		mov	r0, r3
 169 000a BD46     		mov	sp, r7
 170              		@ sp needed
 171 000c 80BD     		pop	{r7, pc}
 172              	.L14:
 173 000e C046     		.align	2
 174              	.L13:
 175 0010 00000000 		.word	_ZN8SysTimer7millis_E
 176              		.cfi_endproc
 177              	.LFE109:
 178              		.size	_ZN8SysTimer6millisEv, .-_ZN8SysTimer6millisEv
 179              		.section	.text._ZN15rosserial_psoc43AdcC2Ev,"axG",%progbits,_ZN15rosserial_psoc43AdcC5Ev,comdat
 180              		.align	2
 181              		.weak	_ZN15rosserial_psoc43AdcC2Ev
 182              		.code	16
 183              		.thumb_func
 184              		.type	_ZN15rosserial_psoc43AdcC2Ev, %function
 185              	_ZN15rosserial_psoc43AdcC2Ev:
 186              	.LFB126:
 187              		.file 4 "./ros_lib/rosserial_psoc4/Adc.h"
   1:./ros_lib/rosserial_psoc4/Adc.h **** #ifndef _ROS_rosserial_psoc4_Adc_h
   2:./ros_lib/rosserial_psoc4/Adc.h **** #define _ROS_rosserial_psoc4_Adc_h
   3:./ros_lib/rosserial_psoc4/Adc.h **** 
   4:./ros_lib/rosserial_psoc4/Adc.h **** #include <stdint.h>
   5:./ros_lib/rosserial_psoc4/Adc.h **** #include <string.h>
   6:./ros_lib/rosserial_psoc4/Adc.h **** #include <stdlib.h>
   7:./ros_lib/rosserial_psoc4/Adc.h **** #include "ros/msg.h"
   8:./ros_lib/rosserial_psoc4/Adc.h **** 
   9:./ros_lib/rosserial_psoc4/Adc.h **** namespace rosserial_psoc4
  10:./ros_lib/rosserial_psoc4/Adc.h **** {
  11:./ros_lib/rosserial_psoc4/Adc.h **** 
  12:./ros_lib/rosserial_psoc4/Adc.h ****   class Adc : public ros::Msg
  13:./ros_lib/rosserial_psoc4/Adc.h ****   {
  14:./ros_lib/rosserial_psoc4/Adc.h ****     public:
  15:./ros_lib/rosserial_psoc4/Adc.h ****       uint16_t adc0;
ARM GAS  C:\DOCUME~1\Chuck\LOCALS~1\Temp\ccGHApQD.s 			page 7


  16:./ros_lib/rosserial_psoc4/Adc.h ****       uint16_t adc1;
  17:./ros_lib/rosserial_psoc4/Adc.h ****       uint16_t adc2;
  18:./ros_lib/rosserial_psoc4/Adc.h ****       uint16_t adc3;
  19:./ros_lib/rosserial_psoc4/Adc.h ****       uint16_t adc4;
  20:./ros_lib/rosserial_psoc4/Adc.h ****       uint16_t adc5;
  21:./ros_lib/rosserial_psoc4/Adc.h **** 
  22:./ros_lib/rosserial_psoc4/Adc.h ****     Adc():
 188              		.loc 4 22 0
 189              		.cfi_startproc
 190 0000 80B5     		push	{r7, lr}
 191              		.cfi_def_cfa_offset 8
 192              		.cfi_offset 7, -8
 193              		.cfi_offset 14, -4
 194 0002 82B0     		sub	sp, sp, #8
 195              		.cfi_def_cfa_offset 16
 196 0004 00AF     		add	r7, sp, #0
 197              		.cfi_def_cfa_register 7
 198 0006 7860     		str	r0, [r7, #4]
 199              	.LBB4:
  23:./ros_lib/rosserial_psoc4/Adc.h ****       adc0(0),
  24:./ros_lib/rosserial_psoc4/Adc.h ****       adc1(0),
  25:./ros_lib/rosserial_psoc4/Adc.h ****       adc2(0),
  26:./ros_lib/rosserial_psoc4/Adc.h ****       adc3(0),
  27:./ros_lib/rosserial_psoc4/Adc.h ****       adc4(0),
  28:./ros_lib/rosserial_psoc4/Adc.h ****       adc5(0)
 200              		.loc 4 28 0
 201 0008 7B68     		ldr	r3, [r7, #4]
 202 000a 181C     		mov	r0, r3
 203 000c FFF7FEFF 		bl	_ZN3ros3MsgC2Ev
 204 0010 7B68     		ldr	r3, [r7, #4]
 205 0012 0C4A     		ldr	r2, .L18
 206 0014 1A60     		str	r2, [r3]
 207 0016 7B68     		ldr	r3, [r7, #4]
 208 0018 0022     		mov	r2, #0
 209 001a 9A80     		strh	r2, [r3, #4]
 210 001c 7B68     		ldr	r3, [r7, #4]
 211 001e 0022     		mov	r2, #0
 212 0020 DA80     		strh	r2, [r3, #6]
 213 0022 7B68     		ldr	r3, [r7, #4]
 214 0024 0022     		mov	r2, #0
 215 0026 1A81     		strh	r2, [r3, #8]
 216 0028 7B68     		ldr	r3, [r7, #4]
 217 002a 0022     		mov	r2, #0
 218 002c 5A81     		strh	r2, [r3, #10]
 219 002e 7B68     		ldr	r3, [r7, #4]
 220 0030 0022     		mov	r2, #0
 221 0032 9A81     		strh	r2, [r3, #12]
 222 0034 7B68     		ldr	r3, [r7, #4]
 223 0036 0022     		mov	r2, #0
 224 0038 DA81     		strh	r2, [r3, #14]
 225              	.LBE4:
  29:./ros_lib/rosserial_psoc4/Adc.h ****     {
  30:./ros_lib/rosserial_psoc4/Adc.h ****     }
 226              		.loc 4 30 0
 227 003a 7B68     		ldr	r3, [r7, #4]
 228 003c 181C     		mov	r0, r3
 229 003e BD46     		mov	sp, r7
ARM GAS  C:\DOCUME~1\Chuck\LOCALS~1\Temp\ccGHApQD.s 			page 8


 230 0040 02B0     		add	sp, sp, #8
 231              		@ sp needed
 232 0042 80BD     		pop	{r7, pc}
 233              	.L19:
 234              		.align	2
 235              	.L18:
 236 0044 08000000 		.word	_ZTVN15rosserial_psoc43AdcE+8
 237              		.cfi_endproc
 238              	.LFE126:
 239              		.size	_ZN15rosserial_psoc43AdcC2Ev, .-_ZN15rosserial_psoc43AdcC2Ev
 240              		.weak	_ZN15rosserial_psoc43AdcC1Ev
 241              		.thumb_set _ZN15rosserial_psoc43AdcC1Ev,_ZN15rosserial_psoc43AdcC2Ev
 242              		.section	.text._ZNK15rosserial_psoc43Adc9serializeEPh,"axG",%progbits,_ZNK15rosserial_psoc43Adc9se
 243              		.align	2
 244              		.weak	_ZNK15rosserial_psoc43Adc9serializeEPh
 245              		.code	16
 246              		.thumb_func
 247              		.type	_ZNK15rosserial_psoc43Adc9serializeEPh, %function
 248              	_ZNK15rosserial_psoc43Adc9serializeEPh:
 249              	.LFB128:
  31:./ros_lib/rosserial_psoc4/Adc.h **** 
  32:./ros_lib/rosserial_psoc4/Adc.h ****     virtual int serialize(unsigned char *outbuffer) const
 250              		.loc 4 32 0
 251              		.cfi_startproc
 252 0000 80B5     		push	{r7, lr}
 253              		.cfi_def_cfa_offset 8
 254              		.cfi_offset 7, -8
 255              		.cfi_offset 14, -4
 256 0002 84B0     		sub	sp, sp, #16
 257              		.cfi_def_cfa_offset 24
 258 0004 00AF     		add	r7, sp, #0
 259              		.cfi_def_cfa_register 7
 260 0006 7860     		str	r0, [r7, #4]
 261 0008 3960     		str	r1, [r7]
 262              	.LBB5:
  33:./ros_lib/rosserial_psoc4/Adc.h ****     {
  34:./ros_lib/rosserial_psoc4/Adc.h ****       int offset = 0;
 263              		.loc 4 34 0
 264 000a 0023     		mov	r3, #0
 265 000c FB60     		str	r3, [r7, #12]
  35:./ros_lib/rosserial_psoc4/Adc.h **** #ifndef ROS_MSG_DONT_SERIALIZE
  36:./ros_lib/rosserial_psoc4/Adc.h ****       *(outbuffer + offset + 0) = (this->adc0 >> (8 * 0)) & 0xFF;
 266              		.loc 4 36 0
 267 000e FB68     		ldr	r3, [r7, #12]
 268 0010 3A68     		ldr	r2, [r7]
 269 0012 D318     		add	r3, r2, r3
 270 0014 7A68     		ldr	r2, [r7, #4]
 271 0016 9288     		ldrh	r2, [r2, #4]
 272 0018 D2B2     		uxtb	r2, r2
 273 001a 1A70     		strb	r2, [r3]
  37:./ros_lib/rosserial_psoc4/Adc.h ****       *(outbuffer + offset + 1) = (this->adc0 >> (8 * 1)) & 0xFF;
 274              		.loc 4 37 0
 275 001c FB68     		ldr	r3, [r7, #12]
 276 001e 0133     		add	r3, r3, #1
 277 0020 3A68     		ldr	r2, [r7]
 278 0022 D318     		add	r3, r2, r3
 279 0024 7A68     		ldr	r2, [r7, #4]
ARM GAS  C:\DOCUME~1\Chuck\LOCALS~1\Temp\ccGHApQD.s 			page 9


 280 0026 9288     		ldrh	r2, [r2, #4]
 281 0028 120A     		lsr	r2, r2, #8
 282 002a 92B2     		uxth	r2, r2
 283 002c D2B2     		uxtb	r2, r2
 284 002e 1A70     		strb	r2, [r3]
  38:./ros_lib/rosserial_psoc4/Adc.h ****       offset += sizeof(this->adc0);
 285              		.loc 4 38 0
 286 0030 FB68     		ldr	r3, [r7, #12]
 287 0032 0233     		add	r3, r3, #2
 288 0034 FB60     		str	r3, [r7, #12]
  39:./ros_lib/rosserial_psoc4/Adc.h ****       *(outbuffer + offset + 0) = (this->adc1 >> (8 * 0)) & 0xFF;
 289              		.loc 4 39 0
 290 0036 FB68     		ldr	r3, [r7, #12]
 291 0038 3A68     		ldr	r2, [r7]
 292 003a D318     		add	r3, r2, r3
 293 003c 7A68     		ldr	r2, [r7, #4]
 294 003e D288     		ldrh	r2, [r2, #6]
 295 0040 D2B2     		uxtb	r2, r2
 296 0042 1A70     		strb	r2, [r3]
  40:./ros_lib/rosserial_psoc4/Adc.h ****       *(outbuffer + offset + 1) = (this->adc1 >> (8 * 1)) & 0xFF;
 297              		.loc 4 40 0
 298 0044 FB68     		ldr	r3, [r7, #12]
 299 0046 0133     		add	r3, r3, #1
 300 0048 3A68     		ldr	r2, [r7]
 301 004a D318     		add	r3, r2, r3
 302 004c 7A68     		ldr	r2, [r7, #4]
 303 004e D288     		ldrh	r2, [r2, #6]
 304 0050 120A     		lsr	r2, r2, #8
 305 0052 92B2     		uxth	r2, r2
 306 0054 D2B2     		uxtb	r2, r2
 307 0056 1A70     		strb	r2, [r3]
  41:./ros_lib/rosserial_psoc4/Adc.h ****       offset += sizeof(this->adc1);
 308              		.loc 4 41 0
 309 0058 FB68     		ldr	r3, [r7, #12]
 310 005a 0233     		add	r3, r3, #2
 311 005c FB60     		str	r3, [r7, #12]
  42:./ros_lib/rosserial_psoc4/Adc.h ****       *(outbuffer + offset + 0) = (this->adc2 >> (8 * 0)) & 0xFF;
 312              		.loc 4 42 0
 313 005e FB68     		ldr	r3, [r7, #12]
 314 0060 3A68     		ldr	r2, [r7]
 315 0062 D318     		add	r3, r2, r3
 316 0064 7A68     		ldr	r2, [r7, #4]
 317 0066 1289     		ldrh	r2, [r2, #8]
 318 0068 D2B2     		uxtb	r2, r2
 319 006a 1A70     		strb	r2, [r3]
  43:./ros_lib/rosserial_psoc4/Adc.h ****       *(outbuffer + offset + 1) = (this->adc2 >> (8 * 1)) & 0xFF;
 320              		.loc 4 43 0
 321 006c FB68     		ldr	r3, [r7, #12]
 322 006e 0133     		add	r3, r3, #1
 323 0070 3A68     		ldr	r2, [r7]
 324 0072 D318     		add	r3, r2, r3
 325 0074 7A68     		ldr	r2, [r7, #4]
 326 0076 1289     		ldrh	r2, [r2, #8]
 327 0078 120A     		lsr	r2, r2, #8
 328 007a 92B2     		uxth	r2, r2
 329 007c D2B2     		uxtb	r2, r2
 330 007e 1A70     		strb	r2, [r3]
ARM GAS  C:\DOCUME~1\Chuck\LOCALS~1\Temp\ccGHApQD.s 			page 10


  44:./ros_lib/rosserial_psoc4/Adc.h ****       offset += sizeof(this->adc2);
 331              		.loc 4 44 0
 332 0080 FB68     		ldr	r3, [r7, #12]
 333 0082 0233     		add	r3, r3, #2
 334 0084 FB60     		str	r3, [r7, #12]
  45:./ros_lib/rosserial_psoc4/Adc.h ****       *(outbuffer + offset + 0) = (this->adc3 >> (8 * 0)) & 0xFF;
 335              		.loc 4 45 0
 336 0086 FB68     		ldr	r3, [r7, #12]
 337 0088 3A68     		ldr	r2, [r7]
 338 008a D318     		add	r3, r2, r3
 339 008c 7A68     		ldr	r2, [r7, #4]
 340 008e 5289     		ldrh	r2, [r2, #10]
 341 0090 D2B2     		uxtb	r2, r2
 342 0092 1A70     		strb	r2, [r3]
  46:./ros_lib/rosserial_psoc4/Adc.h ****       *(outbuffer + offset + 1) = (this->adc3 >> (8 * 1)) & 0xFF;
 343              		.loc 4 46 0
 344 0094 FB68     		ldr	r3, [r7, #12]
 345 0096 0133     		add	r3, r3, #1
 346 0098 3A68     		ldr	r2, [r7]
 347 009a D318     		add	r3, r2, r3
 348 009c 7A68     		ldr	r2, [r7, #4]
 349 009e 5289     		ldrh	r2, [r2, #10]
 350 00a0 120A     		lsr	r2, r2, #8
 351 00a2 92B2     		uxth	r2, r2
 352 00a4 D2B2     		uxtb	r2, r2
 353 00a6 1A70     		strb	r2, [r3]
  47:./ros_lib/rosserial_psoc4/Adc.h ****       offset += sizeof(this->adc3);
 354              		.loc 4 47 0
 355 00a8 FB68     		ldr	r3, [r7, #12]
 356 00aa 0233     		add	r3, r3, #2
 357 00ac FB60     		str	r3, [r7, #12]
  48:./ros_lib/rosserial_psoc4/Adc.h ****       *(outbuffer + offset + 0) = (this->adc4 >> (8 * 0)) & 0xFF;
 358              		.loc 4 48 0
 359 00ae FB68     		ldr	r3, [r7, #12]
 360 00b0 3A68     		ldr	r2, [r7]
 361 00b2 D318     		add	r3, r2, r3
 362 00b4 7A68     		ldr	r2, [r7, #4]
 363 00b6 9289     		ldrh	r2, [r2, #12]
 364 00b8 D2B2     		uxtb	r2, r2
 365 00ba 1A70     		strb	r2, [r3]
  49:./ros_lib/rosserial_psoc4/Adc.h ****       *(outbuffer + offset + 1) = (this->adc4 >> (8 * 1)) & 0xFF;
 366              		.loc 4 49 0
 367 00bc FB68     		ldr	r3, [r7, #12]
 368 00be 0133     		add	r3, r3, #1
 369 00c0 3A68     		ldr	r2, [r7]
 370 00c2 D318     		add	r3, r2, r3
 371 00c4 7A68     		ldr	r2, [r7, #4]
 372 00c6 9289     		ldrh	r2, [r2, #12]
 373 00c8 120A     		lsr	r2, r2, #8
 374 00ca 92B2     		uxth	r2, r2
 375 00cc D2B2     		uxtb	r2, r2
 376 00ce 1A70     		strb	r2, [r3]
  50:./ros_lib/rosserial_psoc4/Adc.h ****       offset += sizeof(this->adc4);
 377              		.loc 4 50 0
 378 00d0 FB68     		ldr	r3, [r7, #12]
 379 00d2 0233     		add	r3, r3, #2
 380 00d4 FB60     		str	r3, [r7, #12]
ARM GAS  C:\DOCUME~1\Chuck\LOCALS~1\Temp\ccGHApQD.s 			page 11


  51:./ros_lib/rosserial_psoc4/Adc.h ****       *(outbuffer + offset + 0) = (this->adc5 >> (8 * 0)) & 0xFF;
 381              		.loc 4 51 0
 382 00d6 FB68     		ldr	r3, [r7, #12]
 383 00d8 3A68     		ldr	r2, [r7]
 384 00da D318     		add	r3, r2, r3
 385 00dc 7A68     		ldr	r2, [r7, #4]
 386 00de D289     		ldrh	r2, [r2, #14]
 387 00e0 D2B2     		uxtb	r2, r2
 388 00e2 1A70     		strb	r2, [r3]
  52:./ros_lib/rosserial_psoc4/Adc.h ****       *(outbuffer + offset + 1) = (this->adc5 >> (8 * 1)) & 0xFF;
 389              		.loc 4 52 0
 390 00e4 FB68     		ldr	r3, [r7, #12]
 391 00e6 0133     		add	r3, r3, #1
 392 00e8 3A68     		ldr	r2, [r7]
 393 00ea D318     		add	r3, r2, r3
 394 00ec 7A68     		ldr	r2, [r7, #4]
 395 00ee D289     		ldrh	r2, [r2, #14]
 396 00f0 120A     		lsr	r2, r2, #8
 397 00f2 92B2     		uxth	r2, r2
 398 00f4 D2B2     		uxtb	r2, r2
 399 00f6 1A70     		strb	r2, [r3]
  53:./ros_lib/rosserial_psoc4/Adc.h ****       offset += sizeof(this->adc5);
 400              		.loc 4 53 0
 401 00f8 FB68     		ldr	r3, [r7, #12]
 402 00fa 0233     		add	r3, r3, #2
 403 00fc FB60     		str	r3, [r7, #12]
  54:./ros_lib/rosserial_psoc4/Adc.h **** #endif
  55:./ros_lib/rosserial_psoc4/Adc.h ****       return offset;
 404              		.loc 4 55 0
 405 00fe FB68     		ldr	r3, [r7, #12]
 406              	.LBE5:
  56:./ros_lib/rosserial_psoc4/Adc.h ****     }
 407              		.loc 4 56 0
 408 0100 181C     		mov	r0, r3
 409 0102 BD46     		mov	sp, r7
 410 0104 04B0     		add	sp, sp, #16
 411              		@ sp needed
 412 0106 80BD     		pop	{r7, pc}
 413              		.cfi_endproc
 414              	.LFE128:
 415              		.size	_ZNK15rosserial_psoc43Adc9serializeEPh, .-_ZNK15rosserial_psoc43Adc9serializeEPh
 416              		.section	.text._ZN15rosserial_psoc43Adc11deserializeEPh,"axG",%progbits,_ZN15rosserial_psoc43Adc11
 417              		.align	2
 418              		.weak	_ZN15rosserial_psoc43Adc11deserializeEPh
 419              		.code	16
 420              		.thumb_func
 421              		.type	_ZN15rosserial_psoc43Adc11deserializeEPh, %function
 422              	_ZN15rosserial_psoc43Adc11deserializeEPh:
 423              	.LFB129:
  57:./ros_lib/rosserial_psoc4/Adc.h **** 
  58:./ros_lib/rosserial_psoc4/Adc.h ****     virtual int deserialize(unsigned char *inbuffer)
 424              		.loc 4 58 0
 425              		.cfi_startproc
 426 0000 80B5     		push	{r7, lr}
 427              		.cfi_def_cfa_offset 8
 428              		.cfi_offset 7, -8
 429              		.cfi_offset 14, -4
ARM GAS  C:\DOCUME~1\Chuck\LOCALS~1\Temp\ccGHApQD.s 			page 12


 430 0002 84B0     		sub	sp, sp, #16
 431              		.cfi_def_cfa_offset 24
 432 0004 00AF     		add	r7, sp, #0
 433              		.cfi_def_cfa_register 7
 434 0006 7860     		str	r0, [r7, #4]
 435 0008 3960     		str	r1, [r7]
 436              	.LBB6:
  59:./ros_lib/rosserial_psoc4/Adc.h ****     {
  60:./ros_lib/rosserial_psoc4/Adc.h ****       int offset = 0;
 437              		.loc 4 60 0
 438 000a 0023     		mov	r3, #0
 439 000c FB60     		str	r3, [r7, #12]
  61:./ros_lib/rosserial_psoc4/Adc.h **** #ifndef ROS_MSG_DONT_DESERIALIZE
  62:./ros_lib/rosserial_psoc4/Adc.h ****       this->adc0 =  ((uint16_t) (*(inbuffer + offset)));
 440              		.loc 4 62 0
 441 000e FB68     		ldr	r3, [r7, #12]
 442 0010 3A68     		ldr	r2, [r7]
 443 0012 D318     		add	r3, r2, r3
 444 0014 1B78     		ldrb	r3, [r3]
 445 0016 1A1C     		mov	r2, r3
 446 0018 7B68     		ldr	r3, [r7, #4]
 447 001a 9A80     		strh	r2, [r3, #4]
  63:./ros_lib/rosserial_psoc4/Adc.h ****       this->adc0 |= ((uint16_t) (*(inbuffer + offset + 1))) << (8 * 1);
 448              		.loc 4 63 0
 449 001c 7B68     		ldr	r3, [r7, #4]
 450 001e 9B88     		ldrh	r3, [r3, #4]
 451 0020 9AB2     		uxth	r2, r3
 452 0022 FB68     		ldr	r3, [r7, #12]
 453 0024 0133     		add	r3, r3, #1
 454 0026 3968     		ldr	r1, [r7]
 455 0028 CB18     		add	r3, r1, r3
 456 002a 1B78     		ldrb	r3, [r3]
 457 002c 1B02     		lsl	r3, r3, #8
 458 002e 9BB2     		uxth	r3, r3
 459 0030 1343     		orr	r3, r2
 460 0032 9BB2     		uxth	r3, r3
 461 0034 9AB2     		uxth	r2, r3
 462 0036 7B68     		ldr	r3, [r7, #4]
 463 0038 9A80     		strh	r2, [r3, #4]
  64:./ros_lib/rosserial_psoc4/Adc.h ****       offset += sizeof(this->adc0);
 464              		.loc 4 64 0
 465 003a FB68     		ldr	r3, [r7, #12]
 466 003c 0233     		add	r3, r3, #2
 467 003e FB60     		str	r3, [r7, #12]
  65:./ros_lib/rosserial_psoc4/Adc.h ****       this->adc1 =  ((uint16_t) (*(inbuffer + offset)));
 468              		.loc 4 65 0
 469 0040 FB68     		ldr	r3, [r7, #12]
 470 0042 3A68     		ldr	r2, [r7]
 471 0044 D318     		add	r3, r2, r3
 472 0046 1B78     		ldrb	r3, [r3]
 473 0048 1A1C     		mov	r2, r3
 474 004a 7B68     		ldr	r3, [r7, #4]
 475 004c DA80     		strh	r2, [r3, #6]
  66:./ros_lib/rosserial_psoc4/Adc.h ****       this->adc1 |= ((uint16_t) (*(inbuffer + offset + 1))) << (8 * 1);
 476              		.loc 4 66 0
 477 004e 7B68     		ldr	r3, [r7, #4]
 478 0050 DB88     		ldrh	r3, [r3, #6]
ARM GAS  C:\DOCUME~1\Chuck\LOCALS~1\Temp\ccGHApQD.s 			page 13


 479 0052 9AB2     		uxth	r2, r3
 480 0054 FB68     		ldr	r3, [r7, #12]
 481 0056 0133     		add	r3, r3, #1
 482 0058 3968     		ldr	r1, [r7]
 483 005a CB18     		add	r3, r1, r3
 484 005c 1B78     		ldrb	r3, [r3]
 485 005e 1B02     		lsl	r3, r3, #8
 486 0060 9BB2     		uxth	r3, r3
 487 0062 1343     		orr	r3, r2
 488 0064 9BB2     		uxth	r3, r3
 489 0066 9AB2     		uxth	r2, r3
 490 0068 7B68     		ldr	r3, [r7, #4]
 491 006a DA80     		strh	r2, [r3, #6]
  67:./ros_lib/rosserial_psoc4/Adc.h ****       offset += sizeof(this->adc1);
 492              		.loc 4 67 0
 493 006c FB68     		ldr	r3, [r7, #12]
 494 006e 0233     		add	r3, r3, #2
 495 0070 FB60     		str	r3, [r7, #12]
  68:./ros_lib/rosserial_psoc4/Adc.h ****       this->adc2 =  ((uint16_t) (*(inbuffer + offset)));
 496              		.loc 4 68 0
 497 0072 FB68     		ldr	r3, [r7, #12]
 498 0074 3A68     		ldr	r2, [r7]
 499 0076 D318     		add	r3, r2, r3
 500 0078 1B78     		ldrb	r3, [r3]
 501 007a 1A1C     		mov	r2, r3
 502 007c 7B68     		ldr	r3, [r7, #4]
 503 007e 1A81     		strh	r2, [r3, #8]
  69:./ros_lib/rosserial_psoc4/Adc.h ****       this->adc2 |= ((uint16_t) (*(inbuffer + offset + 1))) << (8 * 1);
 504              		.loc 4 69 0
 505 0080 7B68     		ldr	r3, [r7, #4]
 506 0082 1B89     		ldrh	r3, [r3, #8]
 507 0084 9AB2     		uxth	r2, r3
 508 0086 FB68     		ldr	r3, [r7, #12]
 509 0088 0133     		add	r3, r3, #1
 510 008a 3968     		ldr	r1, [r7]
 511 008c CB18     		add	r3, r1, r3
 512 008e 1B78     		ldrb	r3, [r3]
 513 0090 1B02     		lsl	r3, r3, #8
 514 0092 9BB2     		uxth	r3, r3
 515 0094 1343     		orr	r3, r2
 516 0096 9BB2     		uxth	r3, r3
 517 0098 9AB2     		uxth	r2, r3
 518 009a 7B68     		ldr	r3, [r7, #4]
 519 009c 1A81     		strh	r2, [r3, #8]
  70:./ros_lib/rosserial_psoc4/Adc.h ****       offset += sizeof(this->adc2);
 520              		.loc 4 70 0
 521 009e FB68     		ldr	r3, [r7, #12]
 522 00a0 0233     		add	r3, r3, #2
 523 00a2 FB60     		str	r3, [r7, #12]
  71:./ros_lib/rosserial_psoc4/Adc.h ****       this->adc3 =  ((uint16_t) (*(inbuffer + offset)));
 524              		.loc 4 71 0
 525 00a4 FB68     		ldr	r3, [r7, #12]
 526 00a6 3A68     		ldr	r2, [r7]
 527 00a8 D318     		add	r3, r2, r3
 528 00aa 1B78     		ldrb	r3, [r3]
 529 00ac 1A1C     		mov	r2, r3
 530 00ae 7B68     		ldr	r3, [r7, #4]
ARM GAS  C:\DOCUME~1\Chuck\LOCALS~1\Temp\ccGHApQD.s 			page 14


 531 00b0 5A81     		strh	r2, [r3, #10]
  72:./ros_lib/rosserial_psoc4/Adc.h ****       this->adc3 |= ((uint16_t) (*(inbuffer + offset + 1))) << (8 * 1);
 532              		.loc 4 72 0
 533 00b2 7B68     		ldr	r3, [r7, #4]
 534 00b4 5B89     		ldrh	r3, [r3, #10]
 535 00b6 9AB2     		uxth	r2, r3
 536 00b8 FB68     		ldr	r3, [r7, #12]
 537 00ba 0133     		add	r3, r3, #1
 538 00bc 3968     		ldr	r1, [r7]
 539 00be CB18     		add	r3, r1, r3
 540 00c0 1B78     		ldrb	r3, [r3]
 541 00c2 1B02     		lsl	r3, r3, #8
 542 00c4 9BB2     		uxth	r3, r3
 543 00c6 1343     		orr	r3, r2
 544 00c8 9BB2     		uxth	r3, r3
 545 00ca 9AB2     		uxth	r2, r3
 546 00cc 7B68     		ldr	r3, [r7, #4]
 547 00ce 5A81     		strh	r2, [r3, #10]
  73:./ros_lib/rosserial_psoc4/Adc.h ****       offset += sizeof(this->adc3);
 548              		.loc 4 73 0
 549 00d0 FB68     		ldr	r3, [r7, #12]
 550 00d2 0233     		add	r3, r3, #2
 551 00d4 FB60     		str	r3, [r7, #12]
  74:./ros_lib/rosserial_psoc4/Adc.h ****       this->adc4 =  ((uint16_t) (*(inbuffer + offset)));
 552              		.loc 4 74 0
 553 00d6 FB68     		ldr	r3, [r7, #12]
 554 00d8 3A68     		ldr	r2, [r7]
 555 00da D318     		add	r3, r2, r3
 556 00dc 1B78     		ldrb	r3, [r3]
 557 00de 1A1C     		mov	r2, r3
 558 00e0 7B68     		ldr	r3, [r7, #4]
 559 00e2 9A81     		strh	r2, [r3, #12]
  75:./ros_lib/rosserial_psoc4/Adc.h ****       this->adc4 |= ((uint16_t) (*(inbuffer + offset + 1))) << (8 * 1);
 560              		.loc 4 75 0
 561 00e4 7B68     		ldr	r3, [r7, #4]
 562 00e6 9B89     		ldrh	r3, [r3, #12]
 563 00e8 9AB2     		uxth	r2, r3
 564 00ea FB68     		ldr	r3, [r7, #12]
 565 00ec 0133     		add	r3, r3, #1
 566 00ee 3968     		ldr	r1, [r7]
 567 00f0 CB18     		add	r3, r1, r3
 568 00f2 1B78     		ldrb	r3, [r3]
 569 00f4 1B02     		lsl	r3, r3, #8
 570 00f6 9BB2     		uxth	r3, r3
 571 00f8 1343     		orr	r3, r2
 572 00fa 9BB2     		uxth	r3, r3
 573 00fc 9AB2     		uxth	r2, r3
 574 00fe 7B68     		ldr	r3, [r7, #4]
 575 0100 9A81     		strh	r2, [r3, #12]
  76:./ros_lib/rosserial_psoc4/Adc.h ****       offset += sizeof(this->adc4);
 576              		.loc 4 76 0
 577 0102 FB68     		ldr	r3, [r7, #12]
 578 0104 0233     		add	r3, r3, #2
 579 0106 FB60     		str	r3, [r7, #12]
  77:./ros_lib/rosserial_psoc4/Adc.h ****       this->adc5 =  ((uint16_t) (*(inbuffer + offset)));
 580              		.loc 4 77 0
 581 0108 FB68     		ldr	r3, [r7, #12]
ARM GAS  C:\DOCUME~1\Chuck\LOCALS~1\Temp\ccGHApQD.s 			page 15


 582 010a 3A68     		ldr	r2, [r7]
 583 010c D318     		add	r3, r2, r3
 584 010e 1B78     		ldrb	r3, [r3]
 585 0110 1A1C     		mov	r2, r3
 586 0112 7B68     		ldr	r3, [r7, #4]
 587 0114 DA81     		strh	r2, [r3, #14]
  78:./ros_lib/rosserial_psoc4/Adc.h ****       this->adc5 |= ((uint16_t) (*(inbuffer + offset + 1))) << (8 * 1);
 588              		.loc 4 78 0
 589 0116 7B68     		ldr	r3, [r7, #4]
 590 0118 DB89     		ldrh	r3, [r3, #14]
 591 011a 9AB2     		uxth	r2, r3
 592 011c FB68     		ldr	r3, [r7, #12]
 593 011e 0133     		add	r3, r3, #1
 594 0120 3968     		ldr	r1, [r7]
 595 0122 CB18     		add	r3, r1, r3
 596 0124 1B78     		ldrb	r3, [r3]
 597 0126 1B02     		lsl	r3, r3, #8
 598 0128 9BB2     		uxth	r3, r3
 599 012a 1343     		orr	r3, r2
 600 012c 9BB2     		uxth	r3, r3
 601 012e 9AB2     		uxth	r2, r3
 602 0130 7B68     		ldr	r3, [r7, #4]
 603 0132 DA81     		strh	r2, [r3, #14]
  79:./ros_lib/rosserial_psoc4/Adc.h ****       offset += sizeof(this->adc5);
 604              		.loc 4 79 0
 605 0134 FB68     		ldr	r3, [r7, #12]
 606 0136 0233     		add	r3, r3, #2
 607 0138 FB60     		str	r3, [r7, #12]
  80:./ros_lib/rosserial_psoc4/Adc.h **** #endif
  81:./ros_lib/rosserial_psoc4/Adc.h ****      return offset;
 608              		.loc 4 81 0
 609 013a FB68     		ldr	r3, [r7, #12]
 610              	.LBE6:
  82:./ros_lib/rosserial_psoc4/Adc.h ****     }
 611              		.loc 4 82 0
 612 013c 181C     		mov	r0, r3
 613 013e BD46     		mov	sp, r7
 614 0140 04B0     		add	sp, sp, #16
 615              		@ sp needed
 616 0142 80BD     		pop	{r7, pc}
 617              		.cfi_endproc
 618              	.LFE129:
 619              		.size	_ZN15rosserial_psoc43Adc11deserializeEPh, .-_ZN15rosserial_psoc43Adc11deserializeEPh
 620              		.section	.rodata
 621              		.align	2
 622              	.LC3:
 623 0000 726F7373 		.ascii	"rosserial_psoc4/Adc\000"
 623      65726961 
 623      6C5F7073 
 623      6F63342F 
 623      41646300 
 624              		.section	.text._ZN15rosserial_psoc43Adc7getTypeEv,"axG",%progbits,_ZN15rosserial_psoc43Adc7getType
 625              		.align	2
 626              		.weak	_ZN15rosserial_psoc43Adc7getTypeEv
 627              		.code	16
 628              		.thumb_func
 629              		.type	_ZN15rosserial_psoc43Adc7getTypeEv, %function
ARM GAS  C:\DOCUME~1\Chuck\LOCALS~1\Temp\ccGHApQD.s 			page 16


 630              	_ZN15rosserial_psoc43Adc7getTypeEv:
 631              	.LFB130:
  83:./ros_lib/rosserial_psoc4/Adc.h **** 
  84:./ros_lib/rosserial_psoc4/Adc.h ****     const char * getType(){ return "rosserial_psoc4/Adc"; };
 632              		.loc 4 84 0
 633              		.cfi_startproc
 634 0000 80B5     		push	{r7, lr}
 635              		.cfi_def_cfa_offset 8
 636              		.cfi_offset 7, -8
 637              		.cfi_offset 14, -4
 638 0002 82B0     		sub	sp, sp, #8
 639              		.cfi_def_cfa_offset 16
 640 0004 00AF     		add	r7, sp, #0
 641              		.cfi_def_cfa_register 7
 642 0006 7860     		str	r0, [r7, #4]
 643              		.loc 4 84 0
 644 0008 024B     		ldr	r3, .L26
 645 000a 181C     		mov	r0, r3
 646 000c BD46     		mov	sp, r7
 647 000e 02B0     		add	sp, sp, #8
 648              		@ sp needed
 649 0010 80BD     		pop	{r7, pc}
 650              	.L27:
 651 0012 C046     		.align	2
 652              	.L26:
 653 0014 00000000 		.word	.LC3
 654              		.cfi_endproc
 655              	.LFE130:
 656              		.size	_ZN15rosserial_psoc43Adc7getTypeEv, .-_ZN15rosserial_psoc43Adc7getTypeEv
 657              		.section	.rodata
 658              		.align	2
 659              	.LC5:
 660 0014 36643738 		.ascii	"6d7853a614e2e821319068311f2af25b\000"
 660      35336136 
 660      31346532 
 660      65383231 
 660      33313930 
 661              		.section	.text._ZN15rosserial_psoc43Adc6getMD5Ev,"axG",%progbits,_ZN15rosserial_psoc43Adc6getMD5Ev
 662              		.align	2
 663              		.weak	_ZN15rosserial_psoc43Adc6getMD5Ev
 664              		.code	16
 665              		.thumb_func
 666              		.type	_ZN15rosserial_psoc43Adc6getMD5Ev, %function
 667              	_ZN15rosserial_psoc43Adc6getMD5Ev:
 668              	.LFB131:
  85:./ros_lib/rosserial_psoc4/Adc.h ****     const char * getMD5(){ return "6d7853a614e2e821319068311f2af25b"; };
 669              		.loc 4 85 0
 670              		.cfi_startproc
 671 0000 80B5     		push	{r7, lr}
 672              		.cfi_def_cfa_offset 8
 673              		.cfi_offset 7, -8
 674              		.cfi_offset 14, -4
 675 0002 82B0     		sub	sp, sp, #8
 676              		.cfi_def_cfa_offset 16
 677 0004 00AF     		add	r7, sp, #0
 678              		.cfi_def_cfa_register 7
 679 0006 7860     		str	r0, [r7, #4]
ARM GAS  C:\DOCUME~1\Chuck\LOCALS~1\Temp\ccGHApQD.s 			page 17


 680              		.loc 4 85 0
 681 0008 024B     		ldr	r3, .L30
 682 000a 181C     		mov	r0, r3
 683 000c BD46     		mov	sp, r7
 684 000e 02B0     		add	sp, sp, #8
 685              		@ sp needed
 686 0010 80BD     		pop	{r7, pc}
 687              	.L31:
 688 0012 C046     		.align	2
 689              	.L30:
 690 0014 14000000 		.word	.LC5
 691              		.cfi_endproc
 692              	.LFE131:
 693              		.size	_ZN15rosserial_psoc43Adc6getMD5Ev, .-_ZN15rosserial_psoc43Adc6getMD5Ev
 694              		.global	_ZN3ADC7adc_msgE
 695              		.bss
 696              		.align	2
 697              		.type	_ZN3ADC7adc_msgE, %object
 698              		.size	_ZN3ADC7adc_msgE, 16
 699              	_ZN3ADC7adc_msgE:
 700 0000 00000000 		.space	16
 700      00000000 
 700      00000000 
 700      00000000 
 701              		.global	_ZN3ADC1pE
 702              		.align	2
 703              		.type	_ZN3ADC1pE, %object
 704              		.size	_ZN3ADC1pE, 20
 705              	_ZN3ADC1pE:
 706 0010 00000000 		.space	20
 706      00000000 
 706      00000000 
 706      00000000 
 706      00000000 
 707              		.global	_ZN3ADC16next_report_timeE
 708              		.align	2
 709              		.type	_ZN3ADC16next_report_timeE, %object
 710              		.size	_ZN3ADC16next_report_timeE, 4
 711              	_ZN3ADC16next_report_timeE:
 712 0024 00000000 		.space	4
 713              		.align	2
 714              	_ZN3ADCL6resultE:
 715 0028 00000000 		.space	6
 715      0000
 716 002e 0000     		.section	.text._ZN3ADC19ADC_SAR_SEQ_ISR_LOCEv,"ax",%progbits
 717              		.align	2
 718              		.global	_ZN3ADC19ADC_SAR_SEQ_ISR_LOCEv
 719              		.code	16
 720              		.thumb_func
 721              		.type	_ZN3ADC19ADC_SAR_SEQ_ISR_LOCEv, %function
 722              	_ZN3ADC19ADC_SAR_SEQ_ISR_LOCEv:
 723              	.LFB165:
 724              		.file 5 ".\\ros_lib\\examples\\ADC\\ADC.cpp"
   1:.\ros_lib\examples\ADC/ADC.cpp **** /* 
   2:.\ros_lib\examples\ADC/ADC.cpp ****  * rosserial ADC Example
   3:.\ros_lib\examples\ADC/ADC.cpp ****  * 
   4:.\ros_lib\examples\ADC/ADC.cpp ****  * This is a poor man's Oscilloscope.  It does not have the sampling 
ARM GAS  C:\DOCUME~1\Chuck\LOCALS~1\Temp\ccGHApQD.s 			page 18


   5:.\ros_lib\examples\ADC/ADC.cpp ****  * rate or accuracy of a commerical scope, but it is great to get
   6:.\ros_lib\examples\ADC/ADC.cpp ****  * an analog value into ROS in a pinch.
   7:.\ros_lib\examples\ADC/ADC.cpp ****  */
   8:.\ros_lib\examples\ADC/ADC.cpp **** 
   9:.\ros_lib\examples\ADC/ADC.cpp **** #include <ros.h>
  10:.\ros_lib\examples\ADC/ADC.cpp **** #include <rosserial_psoc4/Adc.h>
  11:.\ros_lib\examples\ADC/ADC.cpp **** #include "ADC_psoc4.h"
  12:.\ros_lib\examples\ADC/ADC.cpp **** 
  13:.\ros_lib\examples\ADC/ADC.cpp **** extern ros::NodeHandle nh;
  14:.\ros_lib\examples\ADC/ADC.cpp **** 
  15:.\ros_lib\examples\ADC/ADC.cpp **** namespace ADC {
  16:.\ros_lib\examples\ADC/ADC.cpp **** 
  17:.\ros_lib\examples\ADC/ADC.cpp **** rosserial_psoc4::Adc adc_msg;
  18:.\ros_lib\examples\ADC/ADC.cpp **** ros::Publisher p("adc", &adc_msg);
  19:.\ros_lib\examples\ADC/ADC.cpp **** 
  20:.\ros_lib\examples\ADC/ADC.cpp **** uint32_t next_report_time;
  21:.\ros_lib\examples\ADC/ADC.cpp **** const uint32_t kReportIntervalMs = 250;
  22:.\ros_lib\examples\ADC/ADC.cpp **** 
  23:.\ros_lib\examples\ADC/ADC.cpp **** static volatile int16 result[ADC_SAR_SEQ_TOTAL_CHANNELS_NUM];
  24:.\ros_lib\examples\ADC/ADC.cpp **** CY_ISR(ADC_SAR_SEQ_ISR_LOC)
  25:.\ros_lib\examples\ADC/ADC.cpp **** {
 725              		.loc 5 25 0
 726              		.cfi_startproc
 727 0000 80B5     		push	{r7, lr}
 728              		.cfi_def_cfa_offset 8
 729              		.cfi_offset 7, -8
 730              		.cfi_offset 14, -4
 731 0002 82B0     		sub	sp, sp, #8
 732              		.cfi_def_cfa_offset 16
 733 0004 00AF     		add	r7, sp, #0
 734              		.cfi_def_cfa_register 7
 735              	.LBB7:
  26:.\ros_lib\examples\ADC/ADC.cpp ****     uint32 intr_status;
  27:.\ros_lib\examples\ADC/ADC.cpp **** 
  28:.\ros_lib\examples\ADC/ADC.cpp ****     /* Read interrupt status registers */
  29:.\ros_lib\examples\ADC/ADC.cpp ****     intr_status = ADC_SAR_SEQ_SAR_INTR_MASKED_REG;
 736              		.loc 5 29 0
 737 0006 104B     		ldr	r3, .L36
 738 0008 1B68     		ldr	r3, [r3]
 739 000a 3B60     		str	r3, [r7]
 740              	.LBB8:
  30:.\ros_lib\examples\ADC/ADC.cpp ****     /* Check for End of Scan interrupt */
  31:.\ros_lib\examples\ADC/ADC.cpp ****     if((intr_status & ADC_SAR_SEQ_EOS_MASK) != 0u)
 741              		.loc 5 31 0
 742 000c 3A68     		ldr	r2, [r7]
 743 000e 0123     		mov	r3, #1
 744 0010 1340     		and	r3, r2
 745 0012 12D0     		beq	.L33
 746              	.LBB9:
  32:.\ros_lib\examples\ADC/ADC.cpp ****     {
  33:.\ros_lib\examples\ADC/ADC.cpp ****         unsigned int chan;
  34:.\ros_lib\examples\ADC/ADC.cpp ****         for (chan=0; chan<ADC_SAR_SEQ_TOTAL_CHANNELS_NUM; ++chan)
 747              		.loc 5 34 0
 748 0014 0023     		mov	r3, #0
 749 0016 7B60     		str	r3, [r7, #4]
 750 0018 0CE0     		b	.L34
 751              	.L35:
ARM GAS  C:\DOCUME~1\Chuck\LOCALS~1\Temp\ccGHApQD.s 			page 19


  35:.\ros_lib\examples\ADC/ADC.cpp ****         {
  36:.\ros_lib\examples\ADC/ADC.cpp ****             /* Read conversion result */
  37:.\ros_lib\examples\ADC/ADC.cpp ****             result[chan] = ADC_SAR_SEQ_GetResult16(chan);
 752              		.loc 5 37 0 discriminator 2
 753 001a 7B68     		ldr	r3, [r7, #4]
 754 001c 181C     		mov	r0, r3
 755 001e FFF7FEFF 		bl	ADC_SAR_SEQ_GetResult16
 756 0022 031C     		mov	r3, r0
 757 0024 191C     		mov	r1, r3
 758 0026 094B     		ldr	r3, .L36+4
 759 0028 7A68     		ldr	r2, [r7, #4]
 760 002a 5200     		lsl	r2, r2, #1
 761 002c D152     		strh	r1, [r2, r3]
  34:.\ros_lib\examples\ADC/ADC.cpp ****         for (chan=0; chan<ADC_SAR_SEQ_TOTAL_CHANNELS_NUM; ++chan)
 762              		.loc 5 34 0 discriminator 2
 763 002e 7B68     		ldr	r3, [r7, #4]
 764 0030 0133     		add	r3, r3, #1
 765 0032 7B60     		str	r3, [r7, #4]
 766              	.L34:
  34:.\ros_lib\examples\ADC/ADC.cpp ****         for (chan=0; chan<ADC_SAR_SEQ_TOTAL_CHANNELS_NUM; ++chan)
 767              		.loc 5 34 0 is_stmt 0 discriminator 1
 768 0034 7B68     		ldr	r3, [r7, #4]
 769 0036 022B     		cmp	r3, #2
 770 0038 EFD9     		bls	.L35
 771              	.L33:
 772              	.LBE9:
 773              	.LBE8:
  38:.\ros_lib\examples\ADC/ADC.cpp **** 
  39:.\ros_lib\examples\ADC/ADC.cpp ****         }    
  40:.\ros_lib\examples\ADC/ADC.cpp ****     }    
  41:.\ros_lib\examples\ADC/ADC.cpp **** 
  42:.\ros_lib\examples\ADC/ADC.cpp ****     /* Clear handled interrupt */
  43:.\ros_lib\examples\ADC/ADC.cpp ****     ADC_SAR_SEQ_SAR_INTR_REG = intr_status;
 774              		.loc 5 43 0 is_stmt 1
 775 003a 054B     		ldr	r3, .L36+8
 776 003c 3A68     		ldr	r2, [r7]
 777 003e 1A60     		str	r2, [r3]
 778              	.LBE7:
  44:.\ros_lib\examples\ADC/ADC.cpp **** }
 779              		.loc 5 44 0
 780 0040 BD46     		mov	sp, r7
 781 0042 02B0     		add	sp, sp, #8
 782              		@ sp needed
 783 0044 80BD     		pop	{r7, pc}
 784              	.L37:
 785 0046 C046     		.align	2
 786              	.L36:
 787 0048 1C021A40 		.word	1075446300
 788 004c 28000000 		.word	_ZN3ADCL6resultE
 789 0050 10021A40 		.word	1075446288
 790              		.cfi_endproc
 791              	.LFE165:
 792              		.size	_ZN3ADC19ADC_SAR_SEQ_ISR_LOCEv, .-_ZN3ADC19ADC_SAR_SEQ_ISR_LOCEv
 793              		.section	.text._ZN3ADC9adc_setupEv,"ax",%progbits
 794              		.align	2
 795              		.global	_ZN3ADC9adc_setupEv
 796              		.code	16
ARM GAS  C:\DOCUME~1\Chuck\LOCALS~1\Temp\ccGHApQD.s 			page 20


 797              		.thumb_func
 798              		.type	_ZN3ADC9adc_setupEv, %function
 799              	_ZN3ADC9adc_setupEv:
 800              	.LFB166:
  45:.\ros_lib\examples\ADC/ADC.cpp **** 
  46:.\ros_lib\examples\ADC/ADC.cpp **** void adc_setup() {
 801              		.loc 5 46 0
 802              		.cfi_startproc
 803 0000 80B5     		push	{r7, lr}
 804              		.cfi_def_cfa_offset 8
 805              		.cfi_offset 7, -8
 806              		.cfi_offset 14, -4
 807 0002 00AF     		add	r7, sp, #0
 808              		.cfi_def_cfa_register 7
  47:.\ros_lib\examples\ADC/ADC.cpp ****   /* Init and start sequencing SAR ADC */
  48:.\ros_lib\examples\ADC/ADC.cpp ****   ADC_SAR_SEQ_Start();
 809              		.loc 5 48 0
 810 0004 FFF7FEFF 		bl	ADC_SAR_SEQ_Start
  49:.\ros_lib\examples\ADC/ADC.cpp ****   ADC_SAR_SEQ_StartConvert();
 811              		.loc 5 49 0
 812 0008 FFF7FEFF 		bl	ADC_SAR_SEQ_StartConvert
  50:.\ros_lib\examples\ADC/ADC.cpp ****   /* Enable interrupt and set interrupt handler to local routine */
  51:.\ros_lib\examples\ADC/ADC.cpp ****   ADC_SAR_SEQ_IRQ_StartEx(ADC_SAR_SEQ_ISR_LOC);
 813              		.loc 5 51 0
 814 000c 024B     		ldr	r3, .L39
 815 000e 181C     		mov	r0, r3
 816 0010 FFF7FEFF 		bl	ADC_SAR_SEQ_IRQ_StartEx
  52:.\ros_lib\examples\ADC/ADC.cpp **** }
 817              		.loc 5 52 0
 818 0014 BD46     		mov	sp, r7
 819              		@ sp needed
 820 0016 80BD     		pop	{r7, pc}
 821              	.L40:
 822              		.align	2
 823              	.L39:
 824 0018 00000000 		.word	_ZN3ADC19ADC_SAR_SEQ_ISR_LOCEv
 825              		.cfi_endproc
 826              	.LFE166:
 827              		.size	_ZN3ADC9adc_setupEv, .-_ZN3ADC9adc_setupEv
 828              		.section	.text._ZN3ADC10analogReadEi,"ax",%progbits
 829              		.align	2
 830              		.global	_ZN3ADC10analogReadEi
 831              		.code	16
 832              		.thumb_func
 833              		.type	_ZN3ADC10analogReadEi, %function
 834              	_ZN3ADC10analogReadEi:
 835              	.LFB167:
  53:.\ros_lib\examples\ADC/ADC.cpp **** 
  54:.\ros_lib\examples\ADC/ADC.cpp **** int analogRead(int pin) {
 836              		.loc 5 54 0
 837              		.cfi_startproc
 838 0000 80B5     		push	{r7, lr}
 839              		.cfi_def_cfa_offset 8
 840              		.cfi_offset 7, -8
 841              		.cfi_offset 14, -4
 842 0002 82B0     		sub	sp, sp, #8
 843              		.cfi_def_cfa_offset 16
ARM GAS  C:\DOCUME~1\Chuck\LOCALS~1\Temp\ccGHApQD.s 			page 21


 844 0004 00AF     		add	r7, sp, #0
 845              		.cfi_def_cfa_register 7
 846 0006 7860     		str	r0, [r7, #4]
  55:.\ros_lib\examples\ADC/ADC.cpp ****   return result[pin];
 847              		.loc 5 55 0
 848 0008 044B     		ldr	r3, .L43
 849 000a 7A68     		ldr	r2, [r7, #4]
 850 000c 5200     		lsl	r2, r2, #1
 851 000e D35A     		ldrh	r3, [r2, r3]
 852 0010 9BB2     		uxth	r3, r3
 853 0012 1BB2     		sxth	r3, r3
  56:.\ros_lib\examples\ADC/ADC.cpp **** }
 854              		.loc 5 56 0
 855 0014 181C     		mov	r0, r3
 856 0016 BD46     		mov	sp, r7
 857 0018 02B0     		add	sp, sp, #8
 858              		@ sp needed
 859 001a 80BD     		pop	{r7, pc}
 860              	.L44:
 861              		.align	2
 862              	.L43:
 863 001c 28000000 		.word	_ZN3ADCL6resultE
 864              		.cfi_endproc
 865              	.LFE167:
 866              		.size	_ZN3ADC10analogReadEi, .-_ZN3ADC10analogReadEi
 867              		.section	.text._ZN3ADC5setupEv,"ax",%progbits
 868              		.align	2
 869              		.global	_ZN3ADC5setupEv
 870              		.code	16
 871              		.thumb_func
 872              		.type	_ZN3ADC5setupEv, %function
 873              	_ZN3ADC5setupEv:
 874              	.LFB168:
  57:.\ros_lib\examples\ADC/ADC.cpp **** 
  58:.\ros_lib\examples\ADC/ADC.cpp **** void setup()
  59:.\ros_lib\examples\ADC/ADC.cpp **** { 
 875              		.loc 5 59 0
 876              		.cfi_startproc
 877 0000 80B5     		push	{r7, lr}
 878              		.cfi_def_cfa_offset 8
 879              		.cfi_offset 7, -8
 880              		.cfi_offset 14, -4
 881 0002 00AF     		add	r7, sp, #0
 882              		.cfi_def_cfa_register 7
  60:.\ros_lib\examples\ADC/ADC.cpp ****   nh.advertise(p);
 883              		.loc 5 60 0
 884 0004 074A     		ldr	r2, .L46
 885 0006 084B     		ldr	r3, .L46+4
 886 0008 101C     		mov	r0, r2
 887 000a 191C     		mov	r1, r3
 888 000c FFF7FEFF 		bl	_ZN3ros11NodeHandle_I13Psoc4HardwareLi10ELi20ELi200ELi200EE9advertiseERNS_9PublisherE
  61:.\ros_lib\examples\ADC/ADC.cpp ****   next_report_time = SysTimer::millis();
 889              		.loc 5 61 0
 890 0010 FFF7FEFF 		bl	_ZN8SysTimer6millisEv
 891 0014 021C     		mov	r2, r0
 892 0016 054B     		ldr	r3, .L46+8
 893 0018 1A60     		str	r2, [r3]
ARM GAS  C:\DOCUME~1\Chuck\LOCALS~1\Temp\ccGHApQD.s 			page 22


  62:.\ros_lib\examples\ADC/ADC.cpp ****   adc_setup();
 894              		.loc 5 62 0
 895 001a FFF7FEFF 		bl	_ZN3ADC9adc_setupEv
  63:.\ros_lib\examples\ADC/ADC.cpp **** }
 896              		.loc 5 63 0
 897 001e BD46     		mov	sp, r7
 898              		@ sp needed
 899 0020 80BD     		pop	{r7, pc}
 900              	.L47:
 901 0022 C046     		.align	2
 902              	.L46:
 903 0024 00000000 		.word	nh
 904 0028 00000000 		.word	_ZN3ADC1pE
 905 002c 00000000 		.word	_ZN3ADC16next_report_timeE
 906              		.cfi_endproc
 907              	.LFE168:
 908              		.size	_ZN3ADC5setupEv, .-_ZN3ADC5setupEv
 909              		.section	.text._ZN3ADC13averageAnalogEi,"ax",%progbits
 910              		.align	2
 911              		.global	_ZN3ADC13averageAnalogEi
 912              		.code	16
 913              		.thumb_func
 914              		.type	_ZN3ADC13averageAnalogEi, %function
 915              	_ZN3ADC13averageAnalogEi:
 916              	.LFB169:
  64:.\ros_lib\examples\ADC/ADC.cpp **** 
  65:.\ros_lib\examples\ADC/ADC.cpp **** //We sum the analog reading to elminate some of the noise
  66:.\ros_lib\examples\ADC/ADC.cpp **** int averageAnalog(int pin){
 917              		.loc 5 66 0
 918              		.cfi_startproc
 919 0000 80B5     		push	{r7, lr}
 920              		.cfi_def_cfa_offset 8
 921              		.cfi_offset 7, -8
 922              		.cfi_offset 14, -4
 923 0002 84B0     		sub	sp, sp, #16
 924              		.cfi_def_cfa_offset 24
 925 0004 00AF     		add	r7, sp, #0
 926              		.cfi_def_cfa_register 7
 927 0006 7860     		str	r0, [r7, #4]
 928              	.LBB10:
  67:.\ros_lib\examples\ADC/ADC.cpp ****   int v=0;
 929              		.loc 5 67 0
 930 0008 0023     		mov	r3, #0
 931 000a FB60     		str	r3, [r7, #12]
 932              	.LBB11:
  68:.\ros_lib\examples\ADC/ADC.cpp ****   for(int i=0; i<4; i++) v += analogRead(pin);
 933              		.loc 5 68 0
 934 000c 0023     		mov	r3, #0
 935 000e BB60     		str	r3, [r7, #8]
 936 0010 0AE0     		b	.L49
 937              	.L50:
 938              		.loc 5 68 0 is_stmt 0 discriminator 2
 939 0012 7B68     		ldr	r3, [r7, #4]
 940 0014 181C     		mov	r0, r3
 941 0016 FFF7FEFF 		bl	_ZN3ADC10analogReadEi
 942 001a 031C     		mov	r3, r0
 943 001c FA68     		ldr	r2, [r7, #12]
ARM GAS  C:\DOCUME~1\Chuck\LOCALS~1\Temp\ccGHApQD.s 			page 23


 944 001e D318     		add	r3, r2, r3
 945 0020 FB60     		str	r3, [r7, #12]
 946 0022 BB68     		ldr	r3, [r7, #8]
 947 0024 0133     		add	r3, r3, #1
 948 0026 BB60     		str	r3, [r7, #8]
 949              	.L49:
 950              		.loc 5 68 0 discriminator 1
 951 0028 BB68     		ldr	r3, [r7, #8]
 952 002a 032B     		cmp	r3, #3
 953 002c F1DD     		ble	.L50
 954              	.LBE11:
  69:.\ros_lib\examples\ADC/ADC.cpp ****   if(v<0) v = 0;
 955              		.loc 5 69 0 is_stmt 1
 956 002e FB68     		ldr	r3, [r7, #12]
 957 0030 002B     		cmp	r3, #0
 958 0032 01DA     		bge	.L51
 959              		.loc 5 69 0 is_stmt 0 discriminator 1
 960 0034 0023     		mov	r3, #0
 961 0036 FB60     		str	r3, [r7, #12]
 962              	.L51:
  70:.\ros_lib\examples\ADC/ADC.cpp ****   return v;
 963              		.loc 5 70 0 is_stmt 1
 964 0038 FB68     		ldr	r3, [r7, #12]
 965              	.LBE10:
  71:.\ros_lib\examples\ADC/ADC.cpp **** }
 966              		.loc 5 71 0
 967 003a 181C     		mov	r0, r3
 968 003c BD46     		mov	sp, r7
 969 003e 04B0     		add	sp, sp, #16
 970              		@ sp needed
 971 0040 80BD     		pop	{r7, pc}
 972              		.cfi_endproc
 973              	.LFE169:
 974              		.size	_ZN3ADC13averageAnalogEi, .-_ZN3ADC13averageAnalogEi
 975 0042 C046     		.section	.text._ZN3ADC4loopEv,"ax",%progbits
 976              		.align	2
 977              		.global	_ZN3ADC4loopEv
 978              		.code	16
 979              		.thumb_func
 980              		.type	_ZN3ADC4loopEv, %function
 981              	_ZN3ADC4loopEv:
 982              	.LFB170:
  72:.\ros_lib\examples\ADC/ADC.cpp **** 
  73:.\ros_lib\examples\ADC/ADC.cpp **** void loop()
  74:.\ros_lib\examples\ADC/ADC.cpp **** {
 983              		.loc 5 74 0
 984              		.cfi_startproc
 985 0000 80B5     		push	{r7, lr}
 986              		.cfi_def_cfa_offset 8
 987              		.cfi_offset 7, -8
 988              		.cfi_offset 14, -4
 989 0002 00AF     		add	r7, sp, #0
 990              		.cfi_def_cfa_register 7
  75:.\ros_lib\examples\ADC/ADC.cpp ****   if ((int32_t)(SysTimer::millis()-next_report_time) > 0) {
 991              		.loc 5 75 0
 992 0004 FFF7FEFF 		bl	_ZN8SysTimer6millisEv
 993 0008 021C     		mov	r2, r0
ARM GAS  C:\DOCUME~1\Chuck\LOCALS~1\Temp\ccGHApQD.s 			page 24


 994 000a 124B     		ldr	r3, .L55
 995 000c 1B68     		ldr	r3, [r3]
 996 000e D31A     		sub	r3, r2, r3
 997 0010 DA17     		asr	r2, r3, #31
 998 0012 D31A     		sub	r3, r2, r3
 999 0014 DB0F     		lsr	r3, r3, #31
 1000 0016 DBB2     		uxtb	r3, r3
 1001 0018 002B     		cmp	r3, #0
 1002 001a 19D0     		beq	.L53
  76:.\ros_lib\examples\ADC/ADC.cpp ****     next_report_time += kReportIntervalMs;
 1003              		.loc 5 76 0
 1004 001c 0D4B     		ldr	r3, .L55
 1005 001e 1A68     		ldr	r2, [r3]
 1006 0020 FA23     		mov	r3, #250
 1007 0022 D218     		add	r2, r2, r3
 1008 0024 0B4B     		ldr	r3, .L55
 1009 0026 1A60     		str	r2, [r3]
  77:.\ros_lib\examples\ADC/ADC.cpp **** 
  78:.\ros_lib\examples\ADC/ADC.cpp ****     adc_msg.adc0 = averageAnalog(0);
 1010              		.loc 5 78 0
 1011 0028 0020     		mov	r0, #0
 1012 002a FFF7FEFF 		bl	_ZN3ADC13averageAnalogEi
 1013 002e 031C     		mov	r3, r0
 1014 0030 9AB2     		uxth	r2, r3
 1015 0032 094B     		ldr	r3, .L55+4
 1016 0034 9A80     		strh	r2, [r3, #4]
  79:.\ros_lib\examples\ADC/ADC.cpp ****     adc_msg.adc1 = averageAnalog(1);
 1017              		.loc 5 79 0
 1018 0036 0120     		mov	r0, #1
 1019 0038 FFF7FEFF 		bl	_ZN3ADC13averageAnalogEi
 1020 003c 031C     		mov	r3, r0
 1021 003e 9AB2     		uxth	r2, r3
 1022 0040 054B     		ldr	r3, .L55+4
 1023 0042 DA80     		strh	r2, [r3, #6]
  80:.\ros_lib\examples\ADC/ADC.cpp ****    
  81:.\ros_lib\examples\ADC/ADC.cpp ****     p.publish(&adc_msg);
 1024              		.loc 5 81 0
 1025 0044 054A     		ldr	r2, .L55+8
 1026 0046 044B     		ldr	r3, .L55+4
 1027 0048 101C     		mov	r0, r2
 1028 004a 191C     		mov	r1, r3
 1029 004c FFF7FEFF 		bl	_ZN3ros9Publisher7publishEPKNS_3MsgE
 1030              	.L53:
  82:.\ros_lib\examples\ADC/ADC.cpp ****   }
  83:.\ros_lib\examples\ADC/ADC.cpp **** }
 1031              		.loc 5 83 0
 1032 0050 BD46     		mov	sp, r7
 1033              		@ sp needed
 1034 0052 80BD     		pop	{r7, pc}
 1035              	.L56:
 1036              		.align	2
 1037              	.L55:
 1038 0054 00000000 		.word	_ZN3ADC16next_report_timeE
 1039 0058 00000000 		.word	_ZN3ADC7adc_msgE
 1040 005c 00000000 		.word	_ZN3ADC1pE
 1041              		.cfi_endproc
 1042              	.LFE170:
ARM GAS  C:\DOCUME~1\Chuck\LOCALS~1\Temp\ccGHApQD.s 			page 25


 1043              		.size	_ZN3ADC4loopEv, .-_ZN3ADC4loopEv
 1044              		.section	.text._ZN3ros11NodeHandle_I13Psoc4HardwareLi10ELi20ELi200ELi200EE9advertiseERNS_9Publishe
 1045              		.align	2
 1046              		.weak	_ZN3ros11NodeHandle_I13Psoc4HardwareLi10ELi20ELi200ELi200EE9advertiseERNS_9PublisherE
 1047              		.code	16
 1048              		.thumb_func
 1049              		.type	_ZN3ros11NodeHandle_I13Psoc4HardwareLi10ELi20ELi200ELi200EE9advertiseERNS_9PublisherE, %func
 1050              	_ZN3ros11NodeHandle_I13Psoc4HardwareLi10ELi20ELi200ELi200EE9advertiseERNS_9PublisherE:
 1051              	.LFB171:
 1052              		.file 6 "./ros_lib/ros/node_handle.h"
   1:./ros_lib/ros/node_handle.h **** /*
   2:./ros_lib/ros/node_handle.h ****  * Software License Agreement (BSD License)
   3:./ros_lib/ros/node_handle.h ****  *
   4:./ros_lib/ros/node_handle.h ****  * Copyright (c) 2011, Willow Garage, Inc.
   5:./ros_lib/ros/node_handle.h ****  * All rights reserved.
   6:./ros_lib/ros/node_handle.h ****  *
   7:./ros_lib/ros/node_handle.h ****  * Redistribution and use in source and binary forms, with or without
   8:./ros_lib/ros/node_handle.h ****  * modification, are permitted provided that the following conditions
   9:./ros_lib/ros/node_handle.h ****  * are met:
  10:./ros_lib/ros/node_handle.h ****  *
  11:./ros_lib/ros/node_handle.h ****  *  * Redistributions of source code must retain the above copyright
  12:./ros_lib/ros/node_handle.h ****  *    notice, this list of conditions and the following disclaimer.
  13:./ros_lib/ros/node_handle.h ****  *  * Redistributions in binary form must reproduce the above
  14:./ros_lib/ros/node_handle.h ****  *    copyright notice, this list of conditions and the following
  15:./ros_lib/ros/node_handle.h ****  *    disclaimer in the documentation and/or other materials provided
  16:./ros_lib/ros/node_handle.h ****  *    with the distribution.
  17:./ros_lib/ros/node_handle.h ****  *  * Neither the name of Willow Garage, Inc. nor the names of its
  18:./ros_lib/ros/node_handle.h ****  *    contributors may be used to endorse or promote prducts derived
  19:./ros_lib/ros/node_handle.h ****  *    from this software without specific prior written permission.
  20:./ros_lib/ros/node_handle.h ****  *
  21:./ros_lib/ros/node_handle.h ****  * THIS SOFTWARE IS PROVIDED BY THE COPYRIGHT HOLDERS AND CONTRIBUTORS
  22:./ros_lib/ros/node_handle.h ****  * "AS IS" AND ANY EXPRESS OR IMPLIED WARRANTIES, INCLUDING, BUT NOT
  23:./ros_lib/ros/node_handle.h ****  * LIMITED TO, THE IMPLIED WARRANTIES OF MERCHANTABILITY AND FITNESS
  24:./ros_lib/ros/node_handle.h ****  * FOR A PARTICULAR PURPOSE ARE DISCLAIMED. IN NO EVENT SHALL THE
  25:./ros_lib/ros/node_handle.h ****  * COPYRIGHT OWNER OR CONTRIBUTORS BE LIABLE FOR ANY DIRECT, INDIRECT,
  26:./ros_lib/ros/node_handle.h ****  * INCIDENTAL, SPECIAL, EXEMPLARY, OR CONSEQUENTIAL DAMAGES (INCLUDING,
  27:./ros_lib/ros/node_handle.h ****  * BUT NOT LIMITED TO, PROCUREMENT OF SUBSTITUTE GOODS OR SERVICES;
  28:./ros_lib/ros/node_handle.h ****  * LOSS OF USE, DATA, OR PROFITS; OR BUSINESS INTERRUPTION) HOWEVER
  29:./ros_lib/ros/node_handle.h ****  * CAUSED AND ON ANY THEORY OF LIABILITY, WHETHER IN CONTRACT, STRICT
  30:./ros_lib/ros/node_handle.h ****  * LIABILITY, OR TORT (INCLUDING NEGLIGENCE OR OTHERWISE) ARISING IN
  31:./ros_lib/ros/node_handle.h ****  * ANY WAY OUT OF THE USE OF THIS SOFTWARE, EVEN IF ADVISED OF THE
  32:./ros_lib/ros/node_handle.h ****  * POSSIBILITY OF SUCH DAMAGE.
  33:./ros_lib/ros/node_handle.h ****  */
  34:./ros_lib/ros/node_handle.h **** 
  35:./ros_lib/ros/node_handle.h **** #ifndef ROS_NODE_HANDLE_H_
  36:./ros_lib/ros/node_handle.h **** #define ROS_NODE_HANDLE_H_
  37:./ros_lib/ros/node_handle.h **** 
  38:./ros_lib/ros/node_handle.h **** #ifndef PARAM_REQ_SUPPORT
  39:./ros_lib/ros/node_handle.h **** #define PARAM_REQ_SUPPORT 1
  40:./ros_lib/ros/node_handle.h **** #endif
  41:./ros_lib/ros/node_handle.h **** 
  42:./ros_lib/ros/node_handle.h **** #include "std_msgs/Time.h"
  43:./ros_lib/ros/node_handle.h **** #include "rosserial_msgs/TopicInfo.h"
  44:./ros_lib/ros/node_handle.h **** #include "rosserial_msgs/Log.h"
  45:./ros_lib/ros/node_handle.h **** #if PARAM_REQ_SUPPORT
  46:./ros_lib/ros/node_handle.h **** #include "rosserial_msgs/RequestParam.h"
  47:./ros_lib/ros/node_handle.h **** #endif
ARM GAS  C:\DOCUME~1\Chuck\LOCALS~1\Temp\ccGHApQD.s 			page 26


  48:./ros_lib/ros/node_handle.h **** 
  49:./ros_lib/ros/node_handle.h **** #define SYNC_SECONDS        2
  50:./ros_lib/ros/node_handle.h **** 
  51:./ros_lib/ros/node_handle.h **** #define MODE_FIRST_FF       0
  52:./ros_lib/ros/node_handle.h **** /*
  53:./ros_lib/ros/node_handle.h ****  * The second sync byte is a protocol version. It's value is 0xff for the first
  54:./ros_lib/ros/node_handle.h ****  * version of the rosserial protocol (used up to hydro), 0xfe for the second version
  55:./ros_lib/ros/node_handle.h ****  * (introduced in hydro), 0xfd for the next, and so on. Its purpose is to enable
  56:./ros_lib/ros/node_handle.h ****  * detection of mismatched protocol versions (e.g. hydro rosserial_python with groovy
  57:./ros_lib/ros/node_handle.h ****  * rosserial_arduino. It must be changed in both this file and in
  58:./ros_lib/ros/node_handle.h ****  * rosserial_python/src/rosserial_python/SerialClient.py
  59:./ros_lib/ros/node_handle.h ****  */
  60:./ros_lib/ros/node_handle.h **** #define MODE_PROTOCOL_VER   1
  61:./ros_lib/ros/node_handle.h **** #define PROTOCOL_VER1		0xff // through groovy
  62:./ros_lib/ros/node_handle.h **** #define PROTOCOL_VER2		0xfe // in hydro
  63:./ros_lib/ros/node_handle.h **** #define PROTOCOL_VER 		PROTOCOL_VER2
  64:./ros_lib/ros/node_handle.h **** #define MODE_SIZE_L         2   
  65:./ros_lib/ros/node_handle.h **** #define MODE_SIZE_H         3
  66:./ros_lib/ros/node_handle.h **** #define MODE_SIZE_CHECKSUM  4   // checksum for msg size received from size L and H
  67:./ros_lib/ros/node_handle.h **** #define MODE_TOPIC_L        5   // waiting for topic id
  68:./ros_lib/ros/node_handle.h **** #define MODE_TOPIC_H        6
  69:./ros_lib/ros/node_handle.h **** #define MODE_MESSAGE        7
  70:./ros_lib/ros/node_handle.h **** #define MODE_MSG_CHECKSUM   8   // checksum for msg and topic id 
  71:./ros_lib/ros/node_handle.h **** 
  72:./ros_lib/ros/node_handle.h **** 
  73:./ros_lib/ros/node_handle.h **** #define MSG_TIMEOUT 200  // was 20 milliseconds to recieve all of message data
  74:./ros_lib/ros/node_handle.h **** 
  75:./ros_lib/ros/node_handle.h **** #include "msg.h"
  76:./ros_lib/ros/node_handle.h **** 
  77:./ros_lib/ros/node_handle.h **** namespace ros {
  78:./ros_lib/ros/node_handle.h **** 
  79:./ros_lib/ros/node_handle.h ****   class NodeHandleBase_{
  80:./ros_lib/ros/node_handle.h ****     public:
  81:./ros_lib/ros/node_handle.h ****       virtual int publish(int id, const Msg* msg)=0;
  82:./ros_lib/ros/node_handle.h ****       virtual int spinOnce()=0;
  83:./ros_lib/ros/node_handle.h ****       virtual bool connected()=0;
  84:./ros_lib/ros/node_handle.h ****     };
  85:./ros_lib/ros/node_handle.h **** }
  86:./ros_lib/ros/node_handle.h **** 
  87:./ros_lib/ros/node_handle.h **** #include "publisher.h"
  88:./ros_lib/ros/node_handle.h **** #include "subscriber.h"
  89:./ros_lib/ros/node_handle.h **** #include "service_server.h"
  90:./ros_lib/ros/node_handle.h **** #include "service_client.h"
  91:./ros_lib/ros/node_handle.h **** 
  92:./ros_lib/ros/node_handle.h **** namespace ros {
  93:./ros_lib/ros/node_handle.h **** 
  94:./ros_lib/ros/node_handle.h ****   using rosserial_msgs::TopicInfo;
  95:./ros_lib/ros/node_handle.h **** 
  96:./ros_lib/ros/node_handle.h ****   /* Node Handle */
  97:./ros_lib/ros/node_handle.h ****   template<class Hardware,
  98:./ros_lib/ros/node_handle.h ****            int MAX_SUBSCRIBERS=25,
  99:./ros_lib/ros/node_handle.h ****            int MAX_PUBLISHERS=25,
 100:./ros_lib/ros/node_handle.h ****            int INPUT_SIZE=512,
 101:./ros_lib/ros/node_handle.h ****            int OUTPUT_SIZE=512>
 102:./ros_lib/ros/node_handle.h ****   class NodeHandle_ : public NodeHandleBase_
 103:./ros_lib/ros/node_handle.h ****   {
 104:./ros_lib/ros/node_handle.h ****     protected:
ARM GAS  C:\DOCUME~1\Chuck\LOCALS~1\Temp\ccGHApQD.s 			page 27


 105:./ros_lib/ros/node_handle.h ****       Hardware hardware_;
 106:./ros_lib/ros/node_handle.h **** 
 107:./ros_lib/ros/node_handle.h ****       /* time used for syncing */
 108:./ros_lib/ros/node_handle.h ****       unsigned long rt_time;
 109:./ros_lib/ros/node_handle.h **** 
 110:./ros_lib/ros/node_handle.h ****       /* used for computing current time */
 111:./ros_lib/ros/node_handle.h ****       unsigned long sec_offset, nsec_offset;
 112:./ros_lib/ros/node_handle.h **** 
 113:./ros_lib/ros/node_handle.h ****       unsigned char message_in[INPUT_SIZE];
 114:./ros_lib/ros/node_handle.h ****       unsigned char message_out[OUTPUT_SIZE];
 115:./ros_lib/ros/node_handle.h **** 
 116:./ros_lib/ros/node_handle.h ****       Publisher * publishers[MAX_PUBLISHERS];
 117:./ros_lib/ros/node_handle.h ****       Subscriber_ * subscribers[MAX_SUBSCRIBERS];
 118:./ros_lib/ros/node_handle.h **** 
 119:./ros_lib/ros/node_handle.h ****       /*
 120:./ros_lib/ros/node_handle.h ****        * Setup Functions
 121:./ros_lib/ros/node_handle.h ****        */
 122:./ros_lib/ros/node_handle.h ****     public:
 123:./ros_lib/ros/node_handle.h ****       NodeHandle_() : configured_(false) {
 124:./ros_lib/ros/node_handle.h **** #if true
 125:./ros_lib/ros/node_handle.h ****         for(unsigned int i=0; i< MAX_PUBLISHERS; i++) 
 126:./ros_lib/ros/node_handle.h **** 	   publishers[i] = 0;
 127:./ros_lib/ros/node_handle.h **** 
 128:./ros_lib/ros/node_handle.h ****         for(unsigned int i=0; i< MAX_SUBSCRIBERS; i++) 
 129:./ros_lib/ros/node_handle.h **** 	   subscribers[i] = 0;
 130:./ros_lib/ros/node_handle.h **** 
 131:./ros_lib/ros/node_handle.h ****         for(unsigned int i=0; i< INPUT_SIZE; i++) 
 132:./ros_lib/ros/node_handle.h **** 	   message_in[i] = 0;
 133:./ros_lib/ros/node_handle.h **** 
 134:./ros_lib/ros/node_handle.h ****         for(unsigned int i=0; i< OUTPUT_SIZE; i++) 
 135:./ros_lib/ros/node_handle.h **** 	   message_out[i] = 0;
 136:./ros_lib/ros/node_handle.h **** 
 137:./ros_lib/ros/node_handle.h ****         req_param_resp.ints_length = 0;
 138:./ros_lib/ros/node_handle.h ****         req_param_resp.ints = NULL;
 139:./ros_lib/ros/node_handle.h ****         req_param_resp.floats_length = 0;
 140:./ros_lib/ros/node_handle.h ****         req_param_resp.floats = NULL;
 141:./ros_lib/ros/node_handle.h ****         req_param_resp.ints_length = 0;
 142:./ros_lib/ros/node_handle.h ****         req_param_resp.ints = NULL;
 143:./ros_lib/ros/node_handle.h ****       }
 144:./ros_lib/ros/node_handle.h **** #endif      
 145:./ros_lib/ros/node_handle.h ****       Hardware* getHardware(){
 146:./ros_lib/ros/node_handle.h ****         return &hardware_;
 147:./ros_lib/ros/node_handle.h ****       }
 148:./ros_lib/ros/node_handle.h **** 
 149:./ros_lib/ros/node_handle.h ****       /* Start serial, initialize buffers */
 150:./ros_lib/ros/node_handle.h ****       void initNode(){
 151:./ros_lib/ros/node_handle.h ****         hardware_.init();
 152:./ros_lib/ros/node_handle.h ****         mode_ = 0;
 153:./ros_lib/ros/node_handle.h ****         bytes_ = 0;
 154:./ros_lib/ros/node_handle.h ****         index_ = 0;
 155:./ros_lib/ros/node_handle.h ****         topic_ = 0;
 156:./ros_lib/ros/node_handle.h ****       };
 157:./ros_lib/ros/node_handle.h **** 
 158:./ros_lib/ros/node_handle.h ****       /* Start a named port, which may be network server IP, initialize buffers */
 159:./ros_lib/ros/node_handle.h ****       void initNode(char *portName){
 160:./ros_lib/ros/node_handle.h ****         hardware_.init(portName);
 161:./ros_lib/ros/node_handle.h ****         mode_ = 0;
ARM GAS  C:\DOCUME~1\Chuck\LOCALS~1\Temp\ccGHApQD.s 			page 28


 162:./ros_lib/ros/node_handle.h ****         bytes_ = 0;
 163:./ros_lib/ros/node_handle.h ****         index_ = 0;
 164:./ros_lib/ros/node_handle.h ****         topic_ = 0;
 165:./ros_lib/ros/node_handle.h ****       };
 166:./ros_lib/ros/node_handle.h **** 
 167:./ros_lib/ros/node_handle.h ****     protected:
 168:./ros_lib/ros/node_handle.h ****       //State machine variables for spinOnce
 169:./ros_lib/ros/node_handle.h ****       int mode_;
 170:./ros_lib/ros/node_handle.h ****       int bytes_;
 171:./ros_lib/ros/node_handle.h ****       int topic_;
 172:./ros_lib/ros/node_handle.h ****       int index_;
 173:./ros_lib/ros/node_handle.h ****       int checksum_;
 174:./ros_lib/ros/node_handle.h **** 
 175:./ros_lib/ros/node_handle.h ****       bool configured_;
 176:./ros_lib/ros/node_handle.h **** 
 177:./ros_lib/ros/node_handle.h ****       /* used for syncing the time */
 178:./ros_lib/ros/node_handle.h ****       unsigned long last_sync_time;
 179:./ros_lib/ros/node_handle.h ****       unsigned long last_sync_receive_time;
 180:./ros_lib/ros/node_handle.h ****       unsigned long last_msg_timeout_time;
 181:./ros_lib/ros/node_handle.h **** 
 182:./ros_lib/ros/node_handle.h ****     public:
 183:./ros_lib/ros/node_handle.h ****       /* This function goes in your loop() function, it handles
 184:./ros_lib/ros/node_handle.h ****        *  serial input and callbacks for subscribers.
 185:./ros_lib/ros/node_handle.h ****        */
 186:./ros_lib/ros/node_handle.h **** 
 187:./ros_lib/ros/node_handle.h **** 
 188:./ros_lib/ros/node_handle.h ****       virtual int spinOnce(){
 189:./ros_lib/ros/node_handle.h **** 
 190:./ros_lib/ros/node_handle.h ****         /* restart if timed out */
 191:./ros_lib/ros/node_handle.h ****         unsigned long c_time = hardware_.time();
 192:./ros_lib/ros/node_handle.h ****         if( (c_time - last_sync_receive_time) > (SYNC_SECONDS*1100) ){
 193:./ros_lib/ros/node_handle.h ****             configured_ = false;
 194:./ros_lib/ros/node_handle.h ****          }
 195:./ros_lib/ros/node_handle.h ****          
 196:./ros_lib/ros/node_handle.h ****         /* reset if message has timed out */
 197:./ros_lib/ros/node_handle.h ****         if ( mode_ != MODE_FIRST_FF){ 
 198:./ros_lib/ros/node_handle.h ****           if (c_time > last_msg_timeout_time){
 199:./ros_lib/ros/node_handle.h ****             mode_ = MODE_FIRST_FF;
 200:./ros_lib/ros/node_handle.h ****           }
 201:./ros_lib/ros/node_handle.h ****         }
 202:./ros_lib/ros/node_handle.h **** 
 203:./ros_lib/ros/node_handle.h ****         /* while available buffer, read data */
 204:./ros_lib/ros/node_handle.h ****         while( true )
 205:./ros_lib/ros/node_handle.h ****         {
 206:./ros_lib/ros/node_handle.h ****           int data = hardware_.read();
 207:./ros_lib/ros/node_handle.h ****           if( data < 0 )
 208:./ros_lib/ros/node_handle.h ****             break;
 209:./ros_lib/ros/node_handle.h ****           checksum_ += data;
 210:./ros_lib/ros/node_handle.h ****           if( mode_ == MODE_MESSAGE ){        /* message data being recieved */
 211:./ros_lib/ros/node_handle.h ****             message_in[index_++] = data;
 212:./ros_lib/ros/node_handle.h ****             bytes_--;
 213:./ros_lib/ros/node_handle.h ****             if(bytes_ == 0)                  /* is message complete? if so, checksum */
 214:./ros_lib/ros/node_handle.h ****               mode_ = MODE_MSG_CHECKSUM;
 215:./ros_lib/ros/node_handle.h ****           }else if( mode_ == MODE_FIRST_FF ){
 216:./ros_lib/ros/node_handle.h ****             if(data == 0xff){
 217:./ros_lib/ros/node_handle.h ****               mode_++;
 218:./ros_lib/ros/node_handle.h ****               last_msg_timeout_time = c_time + MSG_TIMEOUT;
ARM GAS  C:\DOCUME~1\Chuck\LOCALS~1\Temp\ccGHApQD.s 			page 29


 219:./ros_lib/ros/node_handle.h ****             }
 220:./ros_lib/ros/node_handle.h ****             else if( hardware_.time() - c_time > (SYNC_SECONDS)){
 221:./ros_lib/ros/node_handle.h ****               /* We have been stuck in spinOnce too long, return error */
 222:./ros_lib/ros/node_handle.h ****               configured_=false;
 223:./ros_lib/ros/node_handle.h ****               return -2;
 224:./ros_lib/ros/node_handle.h ****             }
 225:./ros_lib/ros/node_handle.h ****           }else if( mode_ == MODE_PROTOCOL_VER ){
 226:./ros_lib/ros/node_handle.h ****             if(data == PROTOCOL_VER){
 227:./ros_lib/ros/node_handle.h ****               mode_++;
 228:./ros_lib/ros/node_handle.h ****             }else{
 229:./ros_lib/ros/node_handle.h ****               mode_ = MODE_FIRST_FF;
 230:./ros_lib/ros/node_handle.h ****               if (configured_ == false)
 231:./ros_lib/ros/node_handle.h ****                   requestSyncTime(); 	/* send a msg back showing our protocol version */
 232:./ros_lib/ros/node_handle.h ****             }
 233:./ros_lib/ros/node_handle.h **** 	  }else if( mode_ == MODE_SIZE_L ){   /* bottom half of message size */
 234:./ros_lib/ros/node_handle.h ****             bytes_ = data;
 235:./ros_lib/ros/node_handle.h ****             index_ = 0;
 236:./ros_lib/ros/node_handle.h ****             mode_++;
 237:./ros_lib/ros/node_handle.h ****             checksum_ = data;               /* first byte for calculating size checksum */
 238:./ros_lib/ros/node_handle.h ****           }else if( mode_ == MODE_SIZE_H ){   /* top half of message size */
 239:./ros_lib/ros/node_handle.h ****             bytes_ += data<<8;
 240:./ros_lib/ros/node_handle.h **** 	    mode_++;
 241:./ros_lib/ros/node_handle.h ****           }else if( mode_ == MODE_SIZE_CHECKSUM ){  
 242:./ros_lib/ros/node_handle.h ****             if( (checksum_%256) == 255)
 243:./ros_lib/ros/node_handle.h **** 	      mode_++;
 244:./ros_lib/ros/node_handle.h **** 	    else 
 245:./ros_lib/ros/node_handle.h **** 	      mode_ = MODE_FIRST_FF;          /* Abandon the frame if the msg len is wrong */
 246:./ros_lib/ros/node_handle.h **** 	  }else if( mode_ == MODE_TOPIC_L ){  /* bottom half of topic id */
 247:./ros_lib/ros/node_handle.h ****             topic_ = data;
 248:./ros_lib/ros/node_handle.h ****             mode_++;
 249:./ros_lib/ros/node_handle.h ****             checksum_ = data;               /* first byte included in checksum */
 250:./ros_lib/ros/node_handle.h ****           }else if( mode_ == MODE_TOPIC_H ){  /* top half of topic id */
 251:./ros_lib/ros/node_handle.h ****             topic_ += data<<8;
 252:./ros_lib/ros/node_handle.h ****             mode_ = MODE_MESSAGE;
 253:./ros_lib/ros/node_handle.h ****             if(bytes_ == 0)
 254:./ros_lib/ros/node_handle.h ****               mode_ = MODE_MSG_CHECKSUM;  
 255:./ros_lib/ros/node_handle.h ****           }else if( mode_ == MODE_MSG_CHECKSUM ){ /* do checksum */
 256:./ros_lib/ros/node_handle.h ****             mode_ = MODE_FIRST_FF;
 257:./ros_lib/ros/node_handle.h ****             if( (checksum_%256) == 255){
 258:./ros_lib/ros/node_handle.h ****               if(topic_ == TopicInfo::ID_PUBLISHER){
 259:./ros_lib/ros/node_handle.h ****                 requestSyncTime();
 260:./ros_lib/ros/node_handle.h ****                 negotiateTopics();
 261:./ros_lib/ros/node_handle.h ****                 last_sync_time = c_time;
 262:./ros_lib/ros/node_handle.h ****                 last_sync_receive_time = c_time;
 263:./ros_lib/ros/node_handle.h ****                 return -1;
 264:./ros_lib/ros/node_handle.h ****               }else if(topic_ == TopicInfo::ID_TIME){
 265:./ros_lib/ros/node_handle.h ****                 syncTime(message_in);
 266:./ros_lib/ros/node_handle.h ****               #if PARAM_REQ_SUPPORT
 267:./ros_lib/ros/node_handle.h ****               }else if (topic_ == TopicInfo::ID_PARAMETER_REQUEST){
 268:./ros_lib/ros/node_handle.h ****                   req_param_resp.deserialize(message_in);
 269:./ros_lib/ros/node_handle.h ****                   param_recieved= true;
 270:./ros_lib/ros/node_handle.h ****               #endif
 271:./ros_lib/ros/node_handle.h ****               }else if(topic_ == TopicInfo::ID_TX_STOP){
 272:./ros_lib/ros/node_handle.h ****                   configured_ = false;
 273:./ros_lib/ros/node_handle.h ****               }else{
 274:./ros_lib/ros/node_handle.h ****                 if(subscribers[topic_-100])
 275:./ros_lib/ros/node_handle.h ****                   subscribers[topic_-100]->callback( message_in );
ARM GAS  C:\DOCUME~1\Chuck\LOCALS~1\Temp\ccGHApQD.s 			page 30


 276:./ros_lib/ros/node_handle.h ****               }
 277:./ros_lib/ros/node_handle.h ****             }
 278:./ros_lib/ros/node_handle.h ****           }
 279:./ros_lib/ros/node_handle.h ****         }
 280:./ros_lib/ros/node_handle.h **** 
 281:./ros_lib/ros/node_handle.h ****         /* occasionally sync time */
 282:./ros_lib/ros/node_handle.h ****         if( configured_ && ((c_time-last_sync_time) > (SYNC_SECONDS*500) )){
 283:./ros_lib/ros/node_handle.h ****           requestSyncTime();
 284:./ros_lib/ros/node_handle.h ****           last_sync_time = c_time;
 285:./ros_lib/ros/node_handle.h ****         }
 286:./ros_lib/ros/node_handle.h **** 
 287:./ros_lib/ros/node_handle.h ****         return 0;
 288:./ros_lib/ros/node_handle.h ****       }
 289:./ros_lib/ros/node_handle.h **** 
 290:./ros_lib/ros/node_handle.h **** 
 291:./ros_lib/ros/node_handle.h ****       /* Are we connected to the PC? */
 292:./ros_lib/ros/node_handle.h ****       virtual bool connected() {
 293:./ros_lib/ros/node_handle.h ****         return configured_;
 294:./ros_lib/ros/node_handle.h ****       };
 295:./ros_lib/ros/node_handle.h **** 
 296:./ros_lib/ros/node_handle.h ****       /********************************************************************
 297:./ros_lib/ros/node_handle.h ****        * Time functions
 298:./ros_lib/ros/node_handle.h ****        */
 299:./ros_lib/ros/node_handle.h **** 
 300:./ros_lib/ros/node_handle.h ****       void requestSyncTime()
 301:./ros_lib/ros/node_handle.h ****       {
 302:./ros_lib/ros/node_handle.h ****         std_msgs::Time t;
 303:./ros_lib/ros/node_handle.h ****         publish(TopicInfo::ID_TIME, &t);
 304:./ros_lib/ros/node_handle.h ****         rt_time = hardware_.time();
 305:./ros_lib/ros/node_handle.h ****       }
 306:./ros_lib/ros/node_handle.h **** 
 307:./ros_lib/ros/node_handle.h ****       void syncTime( unsigned char * data )
 308:./ros_lib/ros/node_handle.h ****       {
 309:./ros_lib/ros/node_handle.h ****         std_msgs::Time t;
 310:./ros_lib/ros/node_handle.h ****         unsigned long offset = hardware_.time() - rt_time;
 311:./ros_lib/ros/node_handle.h **** 
 312:./ros_lib/ros/node_handle.h ****         t.deserialize(data);
 313:./ros_lib/ros/node_handle.h ****         t.data.sec += offset/1000;
 314:./ros_lib/ros/node_handle.h ****         t.data.nsec += (offset%1000)*1000000UL;
 315:./ros_lib/ros/node_handle.h **** 
 316:./ros_lib/ros/node_handle.h ****         this->setNow(t.data);
 317:./ros_lib/ros/node_handle.h ****         last_sync_receive_time = hardware_.time();
 318:./ros_lib/ros/node_handle.h ****       }
 319:./ros_lib/ros/node_handle.h **** 
 320:./ros_lib/ros/node_handle.h ****       Time now(){
 321:./ros_lib/ros/node_handle.h ****         unsigned long ms = hardware_.time();
 322:./ros_lib/ros/node_handle.h ****         Time current_time;
 323:./ros_lib/ros/node_handle.h ****         current_time.sec = ms/1000 + sec_offset;
 324:./ros_lib/ros/node_handle.h ****         current_time.nsec = (ms%1000)*1000000UL + nsec_offset;
 325:./ros_lib/ros/node_handle.h ****         normalizeSecNSec(current_time.sec, current_time.nsec);
 326:./ros_lib/ros/node_handle.h ****         return current_time;
 327:./ros_lib/ros/node_handle.h ****       }
 328:./ros_lib/ros/node_handle.h **** 
 329:./ros_lib/ros/node_handle.h ****       void setNow( Time & new_now )
 330:./ros_lib/ros/node_handle.h ****       {
 331:./ros_lib/ros/node_handle.h ****         unsigned long ms = hardware_.time();
 332:./ros_lib/ros/node_handle.h ****         sec_offset = new_now.sec - ms/1000 - 1;
ARM GAS  C:\DOCUME~1\Chuck\LOCALS~1\Temp\ccGHApQD.s 			page 31


 333:./ros_lib/ros/node_handle.h ****         nsec_offset = new_now.nsec - (ms%1000)*1000000UL + 1000000000UL;
 334:./ros_lib/ros/node_handle.h ****         normalizeSecNSec(sec_offset, nsec_offset);
 335:./ros_lib/ros/node_handle.h ****       }
 336:./ros_lib/ros/node_handle.h **** 
 337:./ros_lib/ros/node_handle.h ****       /********************************************************************
 338:./ros_lib/ros/node_handle.h ****        * Topic Management 
 339:./ros_lib/ros/node_handle.h ****        */
 340:./ros_lib/ros/node_handle.h **** 
 341:./ros_lib/ros/node_handle.h ****       /* Register a new publisher */    
 342:./ros_lib/ros/node_handle.h ****       bool advertise(Publisher & p)
 1053              		.loc 6 342 0
 1054              		.cfi_startproc
 1055 0000 80B5     		push	{r7, lr}
 1056              		.cfi_def_cfa_offset 8
 1057              		.cfi_offset 7, -8
 1058              		.cfi_offset 14, -4
 1059 0002 84B0     		sub	sp, sp, #16
 1060              		.cfi_def_cfa_offset 24
 1061 0004 00AF     		add	r7, sp, #0
 1062              		.cfi_def_cfa_register 7
 1063 0006 7860     		str	r0, [r7, #4]
 1064 0008 3960     		str	r1, [r7]
 1065              	.LBB12:
 1066              	.LBB13:
 343:./ros_lib/ros/node_handle.h ****       {
 344:./ros_lib/ros/node_handle.h ****         for(int i = 0; i < MAX_PUBLISHERS; i++){
 1067              		.loc 6 344 0
 1068 000a 0023     		mov	r3, #0
 1069 000c FB60     		str	r3, [r7, #12]
 1070 000e 19E0     		b	.L58
 1071              	.L61:
 345:./ros_lib/ros/node_handle.h ****           if(publishers[i] == 0){ // empty slot
 1072              		.loc 6 345 0
 1073 0010 7B68     		ldr	r3, [r7, #4]
 1074 0012 FA68     		ldr	r2, [r7, #12]
 1075 0014 6A32     		add	r2, r2, #106
 1076 0016 9200     		lsl	r2, r2, #2
 1077 0018 D358     		ldr	r3, [r2, r3]
 1078 001a 002B     		cmp	r3, #0
 1079 001c 0FD1     		bne	.L59
 346:./ros_lib/ros/node_handle.h ****             publishers[i] = &p;
 1080              		.loc 6 346 0
 1081 001e 7B68     		ldr	r3, [r7, #4]
 1082 0020 FA68     		ldr	r2, [r7, #12]
 1083 0022 6A32     		add	r2, r2, #106
 1084 0024 9200     		lsl	r2, r2, #2
 1085 0026 3968     		ldr	r1, [r7]
 1086 0028 D150     		str	r1, [r2, r3]
 347:./ros_lib/ros/node_handle.h ****             p.id_ = i+100+MAX_SUBSCRIBERS;
 1087              		.loc 6 347 0
 1088 002a FB68     		ldr	r3, [r7, #12]
 1089 002c 1A1C     		mov	r2, r3
 1090 002e 6E32     		add	r2, r2, #110
 1091 0030 3B68     		ldr	r3, [r7]
 1092 0032 9A60     		str	r2, [r3, #8]
 348:./ros_lib/ros/node_handle.h ****             p.nh_ = this;
 1093              		.loc 6 348 0
ARM GAS  C:\DOCUME~1\Chuck\LOCALS~1\Temp\ccGHApQD.s 			page 32


 1094 0034 7A68     		ldr	r2, [r7, #4]
 1095 0036 3B68     		ldr	r3, [r7]
 1096 0038 DA60     		str	r2, [r3, #12]
 349:./ros_lib/ros/node_handle.h ****             return true;
 1097              		.loc 6 349 0
 1098 003a 0123     		mov	r3, #1
 1099 003c 06E0     		b	.L60
 1100              	.L59:
 344:./ros_lib/ros/node_handle.h ****         for(int i = 0; i < MAX_PUBLISHERS; i++){
 1101              		.loc 6 344 0
 1102 003e FB68     		ldr	r3, [r7, #12]
 1103 0040 0133     		add	r3, r3, #1
 1104 0042 FB60     		str	r3, [r7, #12]
 1105              	.L58:
 344:./ros_lib/ros/node_handle.h ****         for(int i = 0; i < MAX_PUBLISHERS; i++){
 1106              		.loc 6 344 0 is_stmt 0 discriminator 1
 1107 0044 FB68     		ldr	r3, [r7, #12]
 1108 0046 132B     		cmp	r3, #19
 1109 0048 E2DD     		ble	.L61
 1110              	.LBE13:
 350:./ros_lib/ros/node_handle.h ****           }
 351:./ros_lib/ros/node_handle.h ****         }
 352:./ros_lib/ros/node_handle.h ****         return false;
 1111              		.loc 6 352 0 is_stmt 1
 1112 004a 0023     		mov	r3, #0
 1113              	.L60:
 1114              	.LBE12:
 353:./ros_lib/ros/node_handle.h ****       }
 1115              		.loc 6 353 0
 1116 004c 181C     		mov	r0, r3
 1117 004e BD46     		mov	sp, r7
 1118 0050 04B0     		add	sp, sp, #16
 1119              		@ sp needed
 1120 0052 80BD     		pop	{r7, pc}
 1121              		.cfi_endproc
 1122              	.LFE171:
 1123              		.size	_ZN3ros11NodeHandle_I13Psoc4HardwareLi10ELi20ELi200ELi200EE9advertiseERNS_9PublisherE, .-_ZN
 1124              		.weak	_ZTVN15rosserial_psoc43AdcE
 1125              		.section	.rodata._ZTVN15rosserial_psoc43AdcE,"aG",%progbits,_ZTVN15rosserial_psoc43AdcE,comdat
 1126              		.align	3
 1127              		.type	_ZTVN15rosserial_psoc43AdcE, %object
 1128              		.size	_ZTVN15rosserial_psoc43AdcE, 24
 1129              	_ZTVN15rosserial_psoc43AdcE:
 1130 0000 00000000 		.word	0
 1131 0004 00000000 		.word	0
 1132 0008 00000000 		.word	_ZNK15rosserial_psoc43Adc9serializeEPh
 1133 000c 00000000 		.word	_ZN15rosserial_psoc43Adc11deserializeEPh
 1134 0010 00000000 		.word	_ZN15rosserial_psoc43Adc7getTypeEv
 1135 0014 00000000 		.word	_ZN15rosserial_psoc43Adc6getMD5Ev
 1136              		.weak	_ZTVN3ros3MsgE
 1137              		.section	.rodata._ZTVN3ros3MsgE,"aG",%progbits,_ZTVN3ros3MsgE,comdat
 1138              		.align	3
 1139              		.type	_ZTVN3ros3MsgE, %object
 1140              		.size	_ZTVN3ros3MsgE, 24
 1141              	_ZTVN3ros3MsgE:
 1142 0000 00000000 		.word	0
 1143 0004 00000000 		.word	0
ARM GAS  C:\DOCUME~1\Chuck\LOCALS~1\Temp\ccGHApQD.s 			page 33


 1144 0008 00000000 		.word	__cxa_pure_virtual
 1145 000c 00000000 		.word	__cxa_pure_virtual
 1146 0010 00000000 		.word	__cxa_pure_virtual
 1147 0014 00000000 		.word	__cxa_pure_virtual
 1148              		.section	.rodata
 1149 0035 000000   		.align	2
 1150              	.LC18:
 1151 0038 61646300 		.ascii	"adc\000"
 1152              		.section	.text._Z41__static_initialization_and_destruction_0ii,"ax",%progbits
 1153              		.align	2
 1154              		.code	16
 1155              		.thumb_func
 1156              		.type	_Z41__static_initialization_and_destruction_0ii, %function
 1157              	_Z41__static_initialization_and_destruction_0ii:
 1158              	.LFB172:
  84:.\ros_lib\examples\ADC/ADC.cpp **** 
  85:.\ros_lib\examples\ADC/ADC.cpp **** } // namespace ADC...
 1159              		.loc 5 85 0
 1160              		.cfi_startproc
 1161 0000 80B5     		push	{r7, lr}
 1162              		.cfi_def_cfa_offset 8
 1163              		.cfi_offset 7, -8
 1164              		.cfi_offset 14, -4
 1165 0002 82B0     		sub	sp, sp, #8
 1166              		.cfi_def_cfa_offset 16
 1167 0004 00AF     		add	r7, sp, #0
 1168              		.cfi_def_cfa_register 7
 1169 0006 7860     		str	r0, [r7, #4]
 1170 0008 3960     		str	r1, [r7]
 1171              		.loc 5 85 0
 1172 000a 7B68     		ldr	r3, [r7, #4]
 1173 000c 012B     		cmp	r3, #1
 1174 000e 10D1     		bne	.L62
 1175              		.loc 5 85 0 is_stmt 0 discriminator 1
 1176 0010 3A68     		ldr	r2, [r7]
 1177 0012 094B     		ldr	r3, .L64
 1178 0014 9A42     		cmp	r2, r3
 1179 0016 0CD1     		bne	.L62
  17:.\ros_lib\examples\ADC/ADC.cpp **** rosserial_psoc4::Adc adc_msg;
 1180              		.loc 5 17 0 is_stmt 1
 1181 0018 084B     		ldr	r3, .L64+4
 1182 001a 181C     		mov	r0, r3
 1183 001c FFF7FEFF 		bl	_ZN15rosserial_psoc43AdcC1Ev
  18:.\ros_lib\examples\ADC/ADC.cpp **** ros::Publisher p("adc", &adc_msg);
 1184              		.loc 5 18 0
 1185 0020 0749     		ldr	r1, .L64+8
 1186 0022 084A     		ldr	r2, .L64+12
 1187 0024 054B     		ldr	r3, .L64+4
 1188 0026 081C     		mov	r0, r1
 1189 0028 111C     		mov	r1, r2
 1190 002a 1A1C     		mov	r2, r3
 1191 002c 0023     		mov	r3, #0
 1192 002e FFF7FEFF 		bl	_ZN3ros9PublisherC1EPKcPNS_3MsgEi
 1193              	.L62:
 1194              		.loc 5 85 0
 1195 0032 BD46     		mov	sp, r7
 1196 0034 02B0     		add	sp, sp, #8
ARM GAS  C:\DOCUME~1\Chuck\LOCALS~1\Temp\ccGHApQD.s 			page 34


 1197              		@ sp needed
 1198 0036 80BD     		pop	{r7, pc}
 1199              	.L65:
 1200              		.align	2
 1201              	.L64:
 1202 0038 FFFF0000 		.word	65535
 1203 003c 00000000 		.word	_ZN3ADC7adc_msgE
 1204 0040 00000000 		.word	_ZN3ADC1pE
 1205 0044 38000000 		.word	.LC18
 1206              		.cfi_endproc
 1207              	.LFE172:
 1208              		.size	_Z41__static_initialization_and_destruction_0ii, .-_Z41__static_initialization_and_destructi
 1209              		.section	.rodata
 1210              		.align	2
 1211              		.type	_ZN3ADCL17kReportIntervalMsE, %object
 1212              		.size	_ZN3ADCL17kReportIntervalMsE, 4
 1213              	_ZN3ADCL17kReportIntervalMsE:
 1214 003c FA000000 		.word	250
 1215              		.align	2
 1216              		.type	_ZN14rosserial_msgsL12REQUESTPARAME, %object
 1217              		.size	_ZN14rosserial_msgsL12REQUESTPARAME, 28
 1218              	_ZN14rosserial_msgsL12REQUESTPARAME:
 1219 0040 726F7373 		.ascii	"rosserial_msgs/RequestParam\000"
 1219      65726961 
 1219      6C5F6D73 
 1219      67732F52 
 1219      65717565 
 1220              		.section	.text._GLOBAL__sub_I__ZN3ADC7adc_msgE,"ax",%progbits
 1221              		.align	2
 1222              		.code	16
 1223              		.thumb_func
 1224              		.type	_GLOBAL__sub_I__ZN3ADC7adc_msgE, %function
 1225              	_GLOBAL__sub_I__ZN3ADC7adc_msgE:
 1226              	.LFB173:
 1227              		.loc 5 85 0
 1228              		.cfi_startproc
 1229 0000 80B5     		push	{r7, lr}
 1230              		.cfi_def_cfa_offset 8
 1231              		.cfi_offset 7, -8
 1232              		.cfi_offset 14, -4
 1233 0002 00AF     		add	r7, sp, #0
 1234              		.cfi_def_cfa_register 7
 1235              		.loc 5 85 0
 1236 0004 034B     		ldr	r3, .L67
 1237 0006 0120     		mov	r0, #1
 1238 0008 191C     		mov	r1, r3
 1239 000a FFF7FEFF 		bl	_Z41__static_initialization_and_destruction_0ii
 1240 000e BD46     		mov	sp, r7
 1241              		@ sp needed
 1242 0010 80BD     		pop	{r7, pc}
 1243              	.L68:
 1244 0012 C046     		.align	2
 1245              	.L67:
 1246 0014 FFFF0000 		.word	65535
 1247              		.cfi_endproc
 1248              	.LFE173:
 1249              		.size	_GLOBAL__sub_I__ZN3ADC7adc_msgE, .-_GLOBAL__sub_I__ZN3ADC7adc_msgE
ARM GAS  C:\DOCUME~1\Chuck\LOCALS~1\Temp\ccGHApQD.s 			page 35


 1250              		.section	.init_array,"aw",%init_array
 1251              		.align	2
 1252 0000 00000000 		.word	_GLOBAL__sub_I__ZN3ADC7adc_msgE(target1)
 1253              		.text
 1254              	.Letext0:
 1255              		.file 7 "c:\\program files\\cypress\\psoc creator\\3.1\\psoc creator\\import\\gnu_cs\\arm\\4.8.4\\
 1256              		.file 8 "c:\\program files\\cypress\\psoc creator\\3.1\\psoc creator\\import\\gnu_cs\\arm\\4.8.4\\
 1257              		.file 9 "./ros_lib/ros.h"
 1258              		.file 10 "./ros_lib/rosserial_msgs/TopicInfo.h"
 1259              		.file 11 "./ros_lib/Psoc4Hardware.h"
 1260              		.file 12 ".\\Generated_Source\\PSoC4/cytypes.h"
 1261              		.file 13 ".\\ros_lib\\examples\\ADC\\ADC_psoc4.h"
 1262              		.file 14 "./ros_lib/rosserial_msgs/RequestParam.h"
 1263              		.file 15 "./ros_lib/Uarts.h"
 1264              		.file 16 "./ros_lib/std_msgs/Time.h"