ARM GAS  C:\DOCUME~1\Chuck\LOCALS~1\Temp\ccspNQUs.s 			page 1


   1              		.cpu cortex-m0
   2              		.fpu softvfp
   3              		.eabi_attribute 20, 1
   4              		.eabi_attribute 21, 1
   5              		.eabi_attribute 23, 3
   6              		.eabi_attribute 24, 1
   7              		.eabi_attribute 25, 1
   8              		.eabi_attribute 26, 1
   9              		.eabi_attribute 30, 6
  10              		.eabi_attribute 34, 0
  11              		.eabi_attribute 18, 4
  12              		.code	16
  13              		.file	"capsense_button.cpp"
  14              		.text
  15              	.Ltext0:
  16              		.cfi_sections	.debug_frame
  17              		.section	.text._ZN3ros3MsgC2Ev,"axG",%progbits,_ZN3ros3MsgC5Ev,comdat
  18              		.align	2
  19              		.weak	_ZN3ros3MsgC2Ev
  20              		.code	16
  21              		.thumb_func
  22              		.type	_ZN3ros3MsgC2Ev, %function
  23              	_ZN3ros3MsgC2Ev:
  24              	.LFB21:
  25              		.file 1 "./ros_lib/ros/msg.h"
   1:./ros_lib/ros/msg.h **** /* 
   2:./ros_lib/ros/msg.h ****  * Software License Agreement (BSD License)
   3:./ros_lib/ros/msg.h ****  *
   4:./ros_lib/ros/msg.h ****  * Copyright (c) 2011, Willow Garage, Inc.
   5:./ros_lib/ros/msg.h ****  * All rights reserved.
   6:./ros_lib/ros/msg.h ****  *
   7:./ros_lib/ros/msg.h ****  * Redistribution and use in source and binary forms, with or without
   8:./ros_lib/ros/msg.h ****  * modification, are permitted provided that the following conditions
   9:./ros_lib/ros/msg.h ****  * are met:
  10:./ros_lib/ros/msg.h ****  *
  11:./ros_lib/ros/msg.h ****  *  * Redistributions of source code must retain the above copyright
  12:./ros_lib/ros/msg.h ****  *    notice, this list of conditions and the following disclaimer.
  13:./ros_lib/ros/msg.h ****  *  * Redistributions in binary form must reproduce the above
  14:./ros_lib/ros/msg.h ****  *    copyright notice, this list of conditions and the following
  15:./ros_lib/ros/msg.h ****  *    disclaimer in the documentation and/or other materials provided
  16:./ros_lib/ros/msg.h ****  *    with the distribution.
  17:./ros_lib/ros/msg.h ****  *  * Neither the name of Willow Garage, Inc. nor the names of its
  18:./ros_lib/ros/msg.h ****  *    contributors may be used to endorse or promote prducts derived
  19:./ros_lib/ros/msg.h ****  *    from this software without specific prior written permission.
  20:./ros_lib/ros/msg.h ****  *
  21:./ros_lib/ros/msg.h ****  * THIS SOFTWARE IS PROVIDED BY THE COPYRIGHT HOLDERS AND CONTRIBUTORS
  22:./ros_lib/ros/msg.h ****  * "AS IS" AND ANY EXPRESS OR IMPLIED WARRANTIES, INCLUDING, BUT NOT
  23:./ros_lib/ros/msg.h ****  * LIMITED TO, THE IMPLIED WARRANTIES OF MERCHANTABILITY AND FITNESS
  24:./ros_lib/ros/msg.h ****  * FOR A PARTICULAR PURPOSE ARE DISCLAIMED. IN NO EVENT SHALL THE
  25:./ros_lib/ros/msg.h ****  * COPYRIGHT OWNER OR CONTRIBUTORS BE LIABLE FOR ANY DIRECT, INDIRECT,
  26:./ros_lib/ros/msg.h ****  * INCIDENTAL, SPECIAL, EXEMPLARY, OR CONSEQUENTIAL DAMAGES (INCLUDING,
  27:./ros_lib/ros/msg.h ****  * BUT NOT LIMITED TO, PROCUREMENT OF SUBSTITUTE GOODS OR SERVICES;
  28:./ros_lib/ros/msg.h ****  * LOSS OF USE, DATA, OR PROFITS; OR BUSINESS INTERRUPTION) HOWEVER
  29:./ros_lib/ros/msg.h ****  * CAUSED AND ON ANY THEORY OF LIABILITY, WHETHER IN CONTRACT, STRICT
  30:./ros_lib/ros/msg.h ****  * LIABILITY, OR TORT (INCLUDING NEGLIGENCE OR OTHERWISE) ARISING IN
  31:./ros_lib/ros/msg.h ****  * ANY WAY OUT OF THE USE OF THIS SOFTWARE, EVEN IF ADVISED OF THE
  32:./ros_lib/ros/msg.h ****  * POSSIBILITY OF SUCH DAMAGE.
ARM GAS  C:\DOCUME~1\Chuck\LOCALS~1\Temp\ccspNQUs.s 			page 2


  33:./ros_lib/ros/msg.h ****  */
  34:./ros_lib/ros/msg.h **** 
  35:./ros_lib/ros/msg.h **** #ifndef _ROS_MSG_H_
  36:./ros_lib/ros/msg.h **** #define _ROS_MSG_H_
  37:./ros_lib/ros/msg.h **** 
  38:./ros_lib/ros/msg.h **** #include <stdint.h>
  39:./ros_lib/ros/msg.h **** 
  40:./ros_lib/ros/msg.h **** namespace ros {
  41:./ros_lib/ros/msg.h **** 
  42:./ros_lib/ros/msg.h **** /* Base Message Type */
  43:./ros_lib/ros/msg.h **** class Msg
  26              		.loc 1 43 0
  27              		.cfi_startproc
  28 0000 80B5     		push	{r7, lr}
  29              		.cfi_def_cfa_offset 8
  30              		.cfi_offset 7, -8
  31              		.cfi_offset 14, -4
  32 0002 82B0     		sub	sp, sp, #8
  33              		.cfi_def_cfa_offset 16
  34 0004 00AF     		add	r7, sp, #0
  35              		.cfi_def_cfa_register 7
  36 0006 7860     		str	r0, [r7, #4]
  37              	.LBB2:
  38              		.loc 1 43 0
  39 0008 7B68     		ldr	r3, [r7, #4]
  40 000a 034A     		ldr	r2, .L4
  41 000c 1A60     		str	r2, [r3]
  42              	.LBE2:
  43 000e 7B68     		ldr	r3, [r7, #4]
  44 0010 181C     		mov	r0, r3
  45 0012 BD46     		mov	sp, r7
  46 0014 02B0     		add	sp, sp, #8
  47              		@ sp needed
  48 0016 80BD     		pop	{r7, pc}
  49              	.L5:
  50              		.align	2
  51              	.L4:
  52 0018 08000000 		.word	_ZTVN3ros3MsgE+8
  53              		.cfi_endproc
  54              	.LFE21:
  55              		.size	_ZN3ros3MsgC2Ev, .-_ZN3ros3MsgC2Ev
  56              		.weak	_ZN3ros3MsgC1Ev
  57              		.thumb_set _ZN3ros3MsgC1Ev,_ZN3ros3MsgC2Ev
  58              		.section	.rodata
  59              		.align	2
  60              	.LC2:
  61 0000 00       		.ascii	"\000"
  62              		.section	.text._ZN14rosserial_msgs3LogC2Ev,"axG",%progbits,_ZN14rosserial_msgs3LogC5Ev,comdat
  63              		.align	2
  64              		.weak	_ZN14rosserial_msgs3LogC2Ev
  65              		.code	16
  66              		.thumb_func
  67              		.type	_ZN14rosserial_msgs3LogC2Ev, %function
  68              	_ZN14rosserial_msgs3LogC2Ev:
  69              	.LFB37:
  70              		.file 2 "./ros_lib/rosserial_msgs/Log.h"
   1:./ros_lib/rosserial_msgs/Log.h **** #ifndef _ROS_rosserial_msgs_Log_h
ARM GAS  C:\DOCUME~1\Chuck\LOCALS~1\Temp\ccspNQUs.s 			page 3


   2:./ros_lib/rosserial_msgs/Log.h **** #define _ROS_rosserial_msgs_Log_h
   3:./ros_lib/rosserial_msgs/Log.h **** 
   4:./ros_lib/rosserial_msgs/Log.h **** #include <stdint.h>
   5:./ros_lib/rosserial_msgs/Log.h **** #include <string.h>
   6:./ros_lib/rosserial_msgs/Log.h **** #include <stdlib.h>
   7:./ros_lib/rosserial_msgs/Log.h **** #include "ros/msg.h"
   8:./ros_lib/rosserial_msgs/Log.h **** 
   9:./ros_lib/rosserial_msgs/Log.h **** namespace rosserial_msgs
  10:./ros_lib/rosserial_msgs/Log.h **** {
  11:./ros_lib/rosserial_msgs/Log.h **** 
  12:./ros_lib/rosserial_msgs/Log.h ****   class Log : public ros::Msg
  13:./ros_lib/rosserial_msgs/Log.h ****   {
  14:./ros_lib/rosserial_msgs/Log.h ****     public:
  15:./ros_lib/rosserial_msgs/Log.h ****       uint8_t level;
  16:./ros_lib/rosserial_msgs/Log.h ****       const char* msg;
  17:./ros_lib/rosserial_msgs/Log.h ****       enum { ROSDEBUG = 0 };
  18:./ros_lib/rosserial_msgs/Log.h ****       enum { INFO = 1 };
  19:./ros_lib/rosserial_msgs/Log.h ****       enum { WARN = 2 };
  20:./ros_lib/rosserial_msgs/Log.h ****       enum { ERROR = 3 };
  21:./ros_lib/rosserial_msgs/Log.h ****       enum { FATAL = 4 };
  22:./ros_lib/rosserial_msgs/Log.h **** 
  23:./ros_lib/rosserial_msgs/Log.h ****     Log():
  71              		.loc 2 23 0
  72              		.cfi_startproc
  73 0000 80B5     		push	{r7, lr}
  74              		.cfi_def_cfa_offset 8
  75              		.cfi_offset 7, -8
  76              		.cfi_offset 14, -4
  77 0002 82B0     		sub	sp, sp, #8
  78              		.cfi_def_cfa_offset 16
  79 0004 00AF     		add	r7, sp, #0
  80              		.cfi_def_cfa_register 7
  81 0006 7860     		str	r0, [r7, #4]
  82              	.LBB3:
  24:./ros_lib/rosserial_msgs/Log.h ****       level(0),
  25:./ros_lib/rosserial_msgs/Log.h ****       msg("")
  83              		.loc 2 25 0
  84 0008 7B68     		ldr	r3, [r7, #4]
  85 000a 181C     		mov	r0, r3
  86 000c FFF7FEFF 		bl	_ZN3ros3MsgC2Ev
  87 0010 7B68     		ldr	r3, [r7, #4]
  88 0012 064A     		ldr	r2, .L9
  89 0014 1A60     		str	r2, [r3]
  90 0016 7B68     		ldr	r3, [r7, #4]
  91 0018 0022     		mov	r2, #0
  92 001a 1A71     		strb	r2, [r3, #4]
  93 001c 7B68     		ldr	r3, [r7, #4]
  94 001e 044A     		ldr	r2, .L9+4
  95 0020 9A60     		str	r2, [r3, #8]
  96              	.LBE3:
  26:./ros_lib/rosserial_msgs/Log.h ****     {
  27:./ros_lib/rosserial_msgs/Log.h ****     }
  97              		.loc 2 27 0
  98 0022 7B68     		ldr	r3, [r7, #4]
  99 0024 181C     		mov	r0, r3
 100 0026 BD46     		mov	sp, r7
 101 0028 02B0     		add	sp, sp, #8
ARM GAS  C:\DOCUME~1\Chuck\LOCALS~1\Temp\ccspNQUs.s 			page 4


 102              		@ sp needed
 103 002a 80BD     		pop	{r7, pc}
 104              	.L10:
 105              		.align	2
 106              	.L9:
 107 002c 08000000 		.word	_ZTVN14rosserial_msgs3LogE+8
 108 0030 00000000 		.word	.LC2
 109              		.cfi_endproc
 110              	.LFE37:
 111              		.size	_ZN14rosserial_msgs3LogC2Ev, .-_ZN14rosserial_msgs3LogC2Ev
 112              		.weak	_ZN14rosserial_msgs3LogC1Ev
 113              		.thumb_set _ZN14rosserial_msgs3LogC1Ev,_ZN14rosserial_msgs3LogC2Ev
 114              		.section	.text._ZNK14rosserial_msgs3Log9serializeEPh,"axG",%progbits,_ZNK14rosserial_msgs3Log9seri
 115              		.align	2
 116              		.weak	_ZNK14rosserial_msgs3Log9serializeEPh
 117              		.code	16
 118              		.thumb_func
 119              		.type	_ZNK14rosserial_msgs3Log9serializeEPh, %function
 120              	_ZNK14rosserial_msgs3Log9serializeEPh:
 121              	.LFB39:
  28:./ros_lib/rosserial_msgs/Log.h **** 
  29:./ros_lib/rosserial_msgs/Log.h ****     virtual int serialize(unsigned char *outbuffer) const
 122              		.loc 2 29 0
 123              		.cfi_startproc
 124 0000 80B5     		push	{r7, lr}
 125              		.cfi_def_cfa_offset 8
 126              		.cfi_offset 7, -8
 127              		.cfi_offset 14, -4
 128 0002 84B0     		sub	sp, sp, #16
 129              		.cfi_def_cfa_offset 24
 130 0004 00AF     		add	r7, sp, #0
 131              		.cfi_def_cfa_register 7
 132 0006 7860     		str	r0, [r7, #4]
 133 0008 3960     		str	r1, [r7]
 134              	.LBB4:
  30:./ros_lib/rosserial_msgs/Log.h ****     {
  31:./ros_lib/rosserial_msgs/Log.h ****       int offset = 0;
 135              		.loc 2 31 0
 136 000a 0023     		mov	r3, #0
 137 000c FB60     		str	r3, [r7, #12]
  32:./ros_lib/rosserial_msgs/Log.h **** #ifndef ROS_MSG_DONT_SERIALIZE
  33:./ros_lib/rosserial_msgs/Log.h ****       *(outbuffer + offset + 0) = (this->level >> (8 * 0)) & 0xFF;
 138              		.loc 2 33 0
 139 000e FB68     		ldr	r3, [r7, #12]
 140 0010 3A68     		ldr	r2, [r7]
 141 0012 D318     		add	r3, r2, r3
 142 0014 7A68     		ldr	r2, [r7, #4]
 143 0016 1279     		ldrb	r2, [r2, #4]
 144 0018 1A70     		strb	r2, [r3]
  34:./ros_lib/rosserial_msgs/Log.h ****       offset += sizeof(this->level);
 145              		.loc 2 34 0
 146 001a FB68     		ldr	r3, [r7, #12]
 147 001c 0133     		add	r3, r3, #1
 148 001e FB60     		str	r3, [r7, #12]
  35:./ros_lib/rosserial_msgs/Log.h ****       uint32_t length_msg = strlen( (const char*) this->msg);
 149              		.loc 2 35 0
 150 0020 7B68     		ldr	r3, [r7, #4]
ARM GAS  C:\DOCUME~1\Chuck\LOCALS~1\Temp\ccspNQUs.s 			page 5


 151 0022 9B68     		ldr	r3, [r3, #8]
 152 0024 181C     		mov	r0, r3
 153 0026 FFF7FEFF 		bl	strlen
 154 002a 031C     		mov	r3, r0
 155 002c BB60     		str	r3, [r7, #8]
  36:./ros_lib/rosserial_msgs/Log.h ****       memcpy(outbuffer + offset, &length_msg, sizeof(uint32_t));
 156              		.loc 2 36 0
 157 002e FB68     		ldr	r3, [r7, #12]
 158 0030 3A68     		ldr	r2, [r7]
 159 0032 D218     		add	r2, r2, r3
 160 0034 3B1C     		mov	r3, r7
 161 0036 0833     		add	r3, r3, #8
 162 0038 101C     		mov	r0, r2
 163 003a 191C     		mov	r1, r3
 164 003c 0422     		mov	r2, #4
 165 003e FFF7FEFF 		bl	memcpy
  37:./ros_lib/rosserial_msgs/Log.h ****       offset += 4;
 166              		.loc 2 37 0
 167 0042 FB68     		ldr	r3, [r7, #12]
 168 0044 0433     		add	r3, r3, #4
 169 0046 FB60     		str	r3, [r7, #12]
  38:./ros_lib/rosserial_msgs/Log.h ****       memcpy(outbuffer + offset, this->msg, length_msg);
 170              		.loc 2 38 0
 171 0048 FB68     		ldr	r3, [r7, #12]
 172 004a 3A68     		ldr	r2, [r7]
 173 004c D118     		add	r1, r2, r3
 174 004e 7B68     		ldr	r3, [r7, #4]
 175 0050 9A68     		ldr	r2, [r3, #8]
 176 0052 BB68     		ldr	r3, [r7, #8]
 177 0054 081C     		mov	r0, r1
 178 0056 111C     		mov	r1, r2
 179 0058 1A1C     		mov	r2, r3
 180 005a FFF7FEFF 		bl	memcpy
  39:./ros_lib/rosserial_msgs/Log.h ****       offset += length_msg;
 181              		.loc 2 39 0
 182 005e FA68     		ldr	r2, [r7, #12]
 183 0060 BB68     		ldr	r3, [r7, #8]
 184 0062 D318     		add	r3, r2, r3
 185 0064 FB60     		str	r3, [r7, #12]
  40:./ros_lib/rosserial_msgs/Log.h **** #endif
  41:./ros_lib/rosserial_msgs/Log.h ****       return offset;
 186              		.loc 2 41 0
 187 0066 FB68     		ldr	r3, [r7, #12]
 188              	.LBE4:
  42:./ros_lib/rosserial_msgs/Log.h ****     }
 189              		.loc 2 42 0
 190 0068 181C     		mov	r0, r3
 191 006a BD46     		mov	sp, r7
 192 006c 04B0     		add	sp, sp, #16
 193              		@ sp needed
 194 006e 80BD     		pop	{r7, pc}
 195              		.cfi_endproc
 196              	.LFE39:
 197              		.size	_ZNK14rosserial_msgs3Log9serializeEPh, .-_ZNK14rosserial_msgs3Log9serializeEPh
 198              		.section	.text._ZN14rosserial_msgs3Log11deserializeEPh,"axG",%progbits,_ZN14rosserial_msgs3Log11de
 199              		.align	2
 200              		.weak	_ZN14rosserial_msgs3Log11deserializeEPh
ARM GAS  C:\DOCUME~1\Chuck\LOCALS~1\Temp\ccspNQUs.s 			page 6


 201              		.code	16
 202              		.thumb_func
 203              		.type	_ZN14rosserial_msgs3Log11deserializeEPh, %function
 204              	_ZN14rosserial_msgs3Log11deserializeEPh:
 205              	.LFB40:
  43:./ros_lib/rosserial_msgs/Log.h **** 
  44:./ros_lib/rosserial_msgs/Log.h ****     virtual int deserialize(unsigned char *inbuffer)
 206              		.loc 2 44 0
 207              		.cfi_startproc
 208 0000 80B5     		push	{r7, lr}
 209              		.cfi_def_cfa_offset 8
 210              		.cfi_offset 7, -8
 211              		.cfi_offset 14, -4
 212 0002 86B0     		sub	sp, sp, #24
 213              		.cfi_def_cfa_offset 32
 214 0004 00AF     		add	r7, sp, #0
 215              		.cfi_def_cfa_register 7
 216 0006 7860     		str	r0, [r7, #4]
 217 0008 3960     		str	r1, [r7]
 218              	.LBB5:
  45:./ros_lib/rosserial_msgs/Log.h ****     {
  46:./ros_lib/rosserial_msgs/Log.h ****       int offset = 0;
 219              		.loc 2 46 0
 220 000a 0023     		mov	r3, #0
 221 000c 3B61     		str	r3, [r7, #16]
  47:./ros_lib/rosserial_msgs/Log.h **** #ifndef ROS_MSG_DONT_DESERIALIZE
  48:./ros_lib/rosserial_msgs/Log.h ****       this->level =  ((uint8_t) (*(inbuffer + offset)));
 222              		.loc 2 48 0
 223 000e 3B69     		ldr	r3, [r7, #16]
 224 0010 3A68     		ldr	r2, [r7]
 225 0012 D318     		add	r3, r2, r3
 226 0014 1A78     		ldrb	r2, [r3]
 227 0016 7B68     		ldr	r3, [r7, #4]
 228 0018 1A71     		strb	r2, [r3, #4]
  49:./ros_lib/rosserial_msgs/Log.h ****       offset += sizeof(this->level);
 229              		.loc 2 49 0
 230 001a 3B69     		ldr	r3, [r7, #16]
 231 001c 0133     		add	r3, r3, #1
 232 001e 3B61     		str	r3, [r7, #16]
  50:./ros_lib/rosserial_msgs/Log.h ****       uint32_t length_msg;
  51:./ros_lib/rosserial_msgs/Log.h ****       memcpy(&length_msg, (inbuffer + offset), sizeof(uint32_t));
 233              		.loc 2 51 0
 234 0020 3B69     		ldr	r3, [r7, #16]
 235 0022 3A68     		ldr	r2, [r7]
 236 0024 D318     		add	r3, r2, r3
 237 0026 3A1C     		mov	r2, r7
 238 0028 0C32     		add	r2, r2, #12
 239 002a 101C     		mov	r0, r2
 240 002c 191C     		mov	r1, r3
 241 002e 0422     		mov	r2, #4
 242 0030 FFF7FEFF 		bl	memcpy
  52:./ros_lib/rosserial_msgs/Log.h ****       offset += 4;
 243              		.loc 2 52 0
 244 0034 3B69     		ldr	r3, [r7, #16]
 245 0036 0433     		add	r3, r3, #4
 246 0038 3B61     		str	r3, [r7, #16]
 247              	.LBB6:
ARM GAS  C:\DOCUME~1\Chuck\LOCALS~1\Temp\ccspNQUs.s 			page 7


  53:./ros_lib/rosserial_msgs/Log.h ****       for(unsigned int k= offset; k< offset+length_msg; ++k){
 248              		.loc 2 53 0
 249 003a 3B69     		ldr	r3, [r7, #16]
 250 003c 7B61     		str	r3, [r7, #20]
 251 003e 0BE0     		b	.L14
 252              	.L15:
  54:./ros_lib/rosserial_msgs/Log.h ****           inbuffer[k-1]=inbuffer[k];
 253              		.loc 2 54 0 discriminator 2
 254 0040 7B69     		ldr	r3, [r7, #20]
 255 0042 013B     		sub	r3, r3, #1
 256 0044 3A68     		ldr	r2, [r7]
 257 0046 D318     		add	r3, r2, r3
 258 0048 3968     		ldr	r1, [r7]
 259 004a 7A69     		ldr	r2, [r7, #20]
 260 004c 8A18     		add	r2, r1, r2
 261 004e 1278     		ldrb	r2, [r2]
 262 0050 1A70     		strb	r2, [r3]
  53:./ros_lib/rosserial_msgs/Log.h ****       for(unsigned int k= offset; k< offset+length_msg; ++k){
 263              		.loc 2 53 0 discriminator 2
 264 0052 7B69     		ldr	r3, [r7, #20]
 265 0054 0133     		add	r3, r3, #1
 266 0056 7B61     		str	r3, [r7, #20]
 267              	.L14:
  53:./ros_lib/rosserial_msgs/Log.h ****       for(unsigned int k= offset; k< offset+length_msg; ++k){
 268              		.loc 2 53 0 is_stmt 0 discriminator 1
 269 0058 3A69     		ldr	r2, [r7, #16]
 270 005a FB68     		ldr	r3, [r7, #12]
 271 005c D218     		add	r2, r2, r3
 272 005e 7B69     		ldr	r3, [r7, #20]
 273 0060 9A42     		cmp	r2, r3
 274 0062 EDD8     		bhi	.L15
 275              	.LBE6:
  55:./ros_lib/rosserial_msgs/Log.h ****       }
  56:./ros_lib/rosserial_msgs/Log.h ****       inbuffer[offset+length_msg-1]=0;
 276              		.loc 2 56 0 is_stmt 1
 277 0064 3A69     		ldr	r2, [r7, #16]
 278 0066 FB68     		ldr	r3, [r7, #12]
 279 0068 D318     		add	r3, r2, r3
 280 006a 013B     		sub	r3, r3, #1
 281 006c 3A68     		ldr	r2, [r7]
 282 006e D318     		add	r3, r2, r3
 283 0070 0022     		mov	r2, #0
 284 0072 1A70     		strb	r2, [r3]
  57:./ros_lib/rosserial_msgs/Log.h ****       this->msg = (char *)(inbuffer + offset-1);
 285              		.loc 2 57 0
 286 0074 3B69     		ldr	r3, [r7, #16]
 287 0076 013B     		sub	r3, r3, #1
 288 0078 3A68     		ldr	r2, [r7]
 289 007a D218     		add	r2, r2, r3
 290 007c 7B68     		ldr	r3, [r7, #4]
 291 007e 9A60     		str	r2, [r3, #8]
  58:./ros_lib/rosserial_msgs/Log.h ****       offset += length_msg;
 292              		.loc 2 58 0
 293 0080 3A69     		ldr	r2, [r7, #16]
 294 0082 FB68     		ldr	r3, [r7, #12]
 295 0084 D318     		add	r3, r2, r3
 296 0086 3B61     		str	r3, [r7, #16]
ARM GAS  C:\DOCUME~1\Chuck\LOCALS~1\Temp\ccspNQUs.s 			page 8


  59:./ros_lib/rosserial_msgs/Log.h **** #endif
  60:./ros_lib/rosserial_msgs/Log.h ****      return offset;
 297              		.loc 2 60 0
 298 0088 3B69     		ldr	r3, [r7, #16]
 299              	.LBE5:
  61:./ros_lib/rosserial_msgs/Log.h ****     }
 300              		.loc 2 61 0
 301 008a 181C     		mov	r0, r3
 302 008c BD46     		mov	sp, r7
 303 008e 06B0     		add	sp, sp, #24
 304              		@ sp needed
 305 0090 80BD     		pop	{r7, pc}
 306              		.cfi_endproc
 307              	.LFE40:
 308              		.size	_ZN14rosserial_msgs3Log11deserializeEPh, .-_ZN14rosserial_msgs3Log11deserializeEPh
 309 0092 C046     		.section	.rodata
 310 0001 000000   		.align	2
 311              	.LC4:
 312 0004 726F7373 		.ascii	"rosserial_msgs/Log\000"
 312      65726961 
 312      6C5F6D73 
 312      67732F4C 
 312      6F6700
 313              		.section	.text._ZN14rosserial_msgs3Log7getTypeEv,"axG",%progbits,_ZN14rosserial_msgs3Log7getTypeEv
 314              		.align	2
 315              		.weak	_ZN14rosserial_msgs3Log7getTypeEv
 316              		.code	16
 317              		.thumb_func
 318              		.type	_ZN14rosserial_msgs3Log7getTypeEv, %function
 319              	_ZN14rosserial_msgs3Log7getTypeEv:
 320              	.LFB41:
  62:./ros_lib/rosserial_msgs/Log.h **** 
  63:./ros_lib/rosserial_msgs/Log.h ****     const char * getType(){ return "rosserial_msgs/Log"; };
 321              		.loc 2 63 0
 322              		.cfi_startproc
 323 0000 80B5     		push	{r7, lr}
 324              		.cfi_def_cfa_offset 8
 325              		.cfi_offset 7, -8
 326              		.cfi_offset 14, -4
 327 0002 82B0     		sub	sp, sp, #8
 328              		.cfi_def_cfa_offset 16
 329 0004 00AF     		add	r7, sp, #0
 330              		.cfi_def_cfa_register 7
 331 0006 7860     		str	r0, [r7, #4]
 332              		.loc 2 63 0
 333 0008 024B     		ldr	r3, .L19
 334 000a 181C     		mov	r0, r3
 335 000c BD46     		mov	sp, r7
 336 000e 02B0     		add	sp, sp, #8
 337              		@ sp needed
 338 0010 80BD     		pop	{r7, pc}
 339              	.L20:
 340 0012 C046     		.align	2
 341              	.L19:
 342 0014 04000000 		.word	.LC4
 343              		.cfi_endproc
 344              	.LFE41:
ARM GAS  C:\DOCUME~1\Chuck\LOCALS~1\Temp\ccspNQUs.s 			page 9


 345              		.size	_ZN14rosserial_msgs3Log7getTypeEv, .-_ZN14rosserial_msgs3Log7getTypeEv
 346              		.section	.rodata
 347 0017 00       		.align	2
 348              	.LC6:
 349 0018 31316162 		.ascii	"11abd731c25933261cd6183bd12d6295\000"
 349      64373331 
 349      63323539 
 349      33333236 
 349      31636436 
 350              		.section	.text._ZN14rosserial_msgs3Log6getMD5Ev,"axG",%progbits,_ZN14rosserial_msgs3Log6getMD5Ev,c
 351              		.align	2
 352              		.weak	_ZN14rosserial_msgs3Log6getMD5Ev
 353              		.code	16
 354              		.thumb_func
 355              		.type	_ZN14rosserial_msgs3Log6getMD5Ev, %function
 356              	_ZN14rosserial_msgs3Log6getMD5Ev:
 357              	.LFB42:
  64:./ros_lib/rosserial_msgs/Log.h ****     const char * getMD5(){ return "11abd731c25933261cd6183bd12d6295"; };
 358              		.loc 2 64 0
 359              		.cfi_startproc
 360 0000 80B5     		push	{r7, lr}
 361              		.cfi_def_cfa_offset 8
 362              		.cfi_offset 7, -8
 363              		.cfi_offset 14, -4
 364 0002 82B0     		sub	sp, sp, #8
 365              		.cfi_def_cfa_offset 16
 366 0004 00AF     		add	r7, sp, #0
 367              		.cfi_def_cfa_register 7
 368 0006 7860     		str	r0, [r7, #4]
 369              		.loc 2 64 0
 370 0008 024B     		ldr	r3, .L23
 371 000a 181C     		mov	r0, r3
 372 000c BD46     		mov	sp, r7
 373 000e 02B0     		add	sp, sp, #8
 374              		@ sp needed
 375 0010 80BD     		pop	{r7, pc}
 376              	.L24:
 377 0012 C046     		.align	2
 378              	.L23:
 379 0014 18000000 		.word	.LC6
 380              		.cfi_endproc
 381              	.LFE42:
 382              		.size	_ZN14rosserial_msgs3Log6getMD5Ev, .-_ZN14rosserial_msgs3Log6getMD5Ev
 383              		.section	.text._ZN3ros9PublisherC2EPKcPNS_3MsgEi,"axG",%progbits,_ZN3ros9PublisherC5EPKcPNS_3MsgEi
 384              		.align	2
 385              		.weak	_ZN3ros9PublisherC2EPKcPNS_3MsgEi
 386              		.code	16
 387              		.thumb_func
 388              		.type	_ZN3ros9PublisherC2EPKcPNS_3MsgEi, %function
 389              	_ZN3ros9PublisherC2EPKcPNS_3MsgEi:
 390              	.LFB58:
 391              		.file 3 "./ros_lib/ros/publisher.h"
   1:./ros_lib/ros/publisher.h **** /* 
   2:./ros_lib/ros/publisher.h ****  * Software License Agreement (BSD License)
   3:./ros_lib/ros/publisher.h ****  *
   4:./ros_lib/ros/publisher.h ****  * Copyright (c) 2011, Willow Garage, Inc.
   5:./ros_lib/ros/publisher.h ****  * All rights reserved.
ARM GAS  C:\DOCUME~1\Chuck\LOCALS~1\Temp\ccspNQUs.s 			page 10


   6:./ros_lib/ros/publisher.h ****  *
   7:./ros_lib/ros/publisher.h ****  * Redistribution and use in source and binary forms, with or without
   8:./ros_lib/ros/publisher.h ****  * modification, are permitted provided that the following conditions
   9:./ros_lib/ros/publisher.h ****  * are met:
  10:./ros_lib/ros/publisher.h ****  *
  11:./ros_lib/ros/publisher.h ****  *  * Redistributions of source code must retain the above copyright
  12:./ros_lib/ros/publisher.h ****  *    notice, this list of conditions and the following disclaimer.
  13:./ros_lib/ros/publisher.h ****  *  * Redistributions in binary form must reproduce the above
  14:./ros_lib/ros/publisher.h ****  *    copyright notice, this list of conditions and the following
  15:./ros_lib/ros/publisher.h ****  *    disclaimer in the documentation and/or other materials provided
  16:./ros_lib/ros/publisher.h ****  *    with the distribution.
  17:./ros_lib/ros/publisher.h ****  *  * Neither the name of Willow Garage, Inc. nor the names of its
  18:./ros_lib/ros/publisher.h ****  *    contributors may be used to endorse or promote prducts derived
  19:./ros_lib/ros/publisher.h ****  *    from this software without specific prior written permission.
  20:./ros_lib/ros/publisher.h ****  *
  21:./ros_lib/ros/publisher.h ****  * THIS SOFTWARE IS PROVIDED BY THE COPYRIGHT HOLDERS AND CONTRIBUTORS
  22:./ros_lib/ros/publisher.h ****  * "AS IS" AND ANY EXPRESS OR IMPLIED WARRANTIES, INCLUDING, BUT NOT
  23:./ros_lib/ros/publisher.h ****  * LIMITED TO, THE IMPLIED WARRANTIES OF MERCHANTABILITY AND FITNESS
  24:./ros_lib/ros/publisher.h ****  * FOR A PARTICULAR PURPOSE ARE DISCLAIMED. IN NO EVENT SHALL THE
  25:./ros_lib/ros/publisher.h ****  * COPYRIGHT OWNER OR CONTRIBUTORS BE LIABLE FOR ANY DIRECT, INDIRECT,
  26:./ros_lib/ros/publisher.h ****  * INCIDENTAL, SPECIAL, EXEMPLARY, OR CONSEQUENTIAL DAMAGES (INCLUDING,
  27:./ros_lib/ros/publisher.h ****  * BUT NOT LIMITED TO, PROCUREMENT OF SUBSTITUTE GOODS OR SERVICES;
  28:./ros_lib/ros/publisher.h ****  * LOSS OF USE, DATA, OR PROFITS; OR BUSINESS INTERRUPTION) HOWEVER
  29:./ros_lib/ros/publisher.h ****  * CAUSED AND ON ANY THEORY OF LIABILITY, WHETHER IN CONTRACT, STRICT
  30:./ros_lib/ros/publisher.h ****  * LIABILITY, OR TORT (INCLUDING NEGLIGENCE OR OTHERWISE) ARISING IN
  31:./ros_lib/ros/publisher.h ****  * ANY WAY OUT OF THE USE OF THIS SOFTWARE, EVEN IF ADVISED OF THE
  32:./ros_lib/ros/publisher.h ****  * POSSIBILITY OF SUCH DAMAGE.
  33:./ros_lib/ros/publisher.h ****  */
  34:./ros_lib/ros/publisher.h **** 
  35:./ros_lib/ros/publisher.h **** #ifndef _ROS_PUBLISHER_H_
  36:./ros_lib/ros/publisher.h **** #define _ROS_PUBLISHER_H_
  37:./ros_lib/ros/publisher.h **** 
  38:./ros_lib/ros/publisher.h **** #include "rosserial_msgs/TopicInfo.h"
  39:./ros_lib/ros/publisher.h **** #include "node_handle.h"
  40:./ros_lib/ros/publisher.h **** 
  41:./ros_lib/ros/publisher.h **** namespace ros {
  42:./ros_lib/ros/publisher.h **** 
  43:./ros_lib/ros/publisher.h ****   /* Generic Publisher */
  44:./ros_lib/ros/publisher.h ****   class Publisher
  45:./ros_lib/ros/publisher.h ****   {
  46:./ros_lib/ros/publisher.h ****     public:
  47:./ros_lib/ros/publisher.h ****       Publisher( const char * topic_name, Msg * msg, int endpoint=rosserial_msgs::TopicInfo::ID_PUB
 392              		.loc 3 47 0
 393              		.cfi_startproc
 394 0000 80B5     		push	{r7, lr}
 395              		.cfi_def_cfa_offset 8
 396              		.cfi_offset 7, -8
 397              		.cfi_offset 14, -4
 398 0002 84B0     		sub	sp, sp, #16
 399              		.cfi_def_cfa_offset 24
 400 0004 00AF     		add	r7, sp, #0
 401              		.cfi_def_cfa_register 7
 402 0006 F860     		str	r0, [r7, #12]
 403 0008 B960     		str	r1, [r7, #8]
 404 000a 7A60     		str	r2, [r7, #4]
 405 000c 3B60     		str	r3, [r7]
 406              	.LBB7:
ARM GAS  C:\DOCUME~1\Chuck\LOCALS~1\Temp\ccspNQUs.s 			page 11


  48:./ros_lib/ros/publisher.h ****         topic_(topic_name), 
  49:./ros_lib/ros/publisher.h ****         msg_(msg),
  50:./ros_lib/ros/publisher.h ****         endpoint_(endpoint) {};
 407              		.loc 3 50 0
 408 000e FB68     		ldr	r3, [r7, #12]
 409 0010 BA68     		ldr	r2, [r7, #8]
 410 0012 1A60     		str	r2, [r3]
 411 0014 FB68     		ldr	r3, [r7, #12]
 412 0016 7A68     		ldr	r2, [r7, #4]
 413 0018 5A60     		str	r2, [r3, #4]
 414 001a FB68     		ldr	r3, [r7, #12]
 415 001c 3A68     		ldr	r2, [r7]
 416 001e 1A61     		str	r2, [r3, #16]
 417              	.LBE7:
 418 0020 FB68     		ldr	r3, [r7, #12]
 419 0022 181C     		mov	r0, r3
 420 0024 BD46     		mov	sp, r7
 421 0026 04B0     		add	sp, sp, #16
 422              		@ sp needed
 423 0028 80BD     		pop	{r7, pc}
 424              		.cfi_endproc
 425              	.LFE58:
 426              		.size	_ZN3ros9PublisherC2EPKcPNS_3MsgEi, .-_ZN3ros9PublisherC2EPKcPNS_3MsgEi
 427              		.weak	_ZN3ros9PublisherC1EPKcPNS_3MsgEi
 428              		.thumb_set _ZN3ros9PublisherC1EPKcPNS_3MsgEi,_ZN3ros9PublisherC2EPKcPNS_3MsgEi
 429 002a C046     		.section	.text._ZN3ros9Publisher7publishEPKNS_3MsgE,"axG",%progbits,_ZN3ros9Publisher7publishEPKNS
 430              		.align	2
 431              		.weak	_ZN3ros9Publisher7publishEPKNS_3MsgE
 432              		.code	16
 433              		.thumb_func
 434              		.type	_ZN3ros9Publisher7publishEPKNS_3MsgE, %function
 435              	_ZN3ros9Publisher7publishEPKNS_3MsgE:
 436              	.LFB60:
  51:./ros_lib/ros/publisher.h ****       // rosserial standard signature
  52:./ros_lib/ros/publisher.h ****       int publish( const Msg * msg ) { return nh_->publish(id_, msg); };
 437              		.loc 3 52 0
 438              		.cfi_startproc
 439 0000 90B5     		push	{r4, r7, lr}
 440              		.cfi_def_cfa_offset 12
 441              		.cfi_offset 4, -12
 442              		.cfi_offset 7, -8
 443              		.cfi_offset 14, -4
 444 0002 83B0     		sub	sp, sp, #12
 445              		.cfi_def_cfa_offset 24
 446 0004 00AF     		add	r7, sp, #0
 447              		.cfi_def_cfa_register 7
 448 0006 7860     		str	r0, [r7, #4]
 449 0008 3960     		str	r1, [r7]
 450              		.loc 3 52 0
 451 000a 7B68     		ldr	r3, [r7, #4]
 452 000c DB68     		ldr	r3, [r3, #12]
 453 000e 1B68     		ldr	r3, [r3]
 454 0010 1C68     		ldr	r4, [r3]
 455 0012 7B68     		ldr	r3, [r7, #4]
 456 0014 D968     		ldr	r1, [r3, #12]
 457 0016 7B68     		ldr	r3, [r7, #4]
 458 0018 9A68     		ldr	r2, [r3, #8]
ARM GAS  C:\DOCUME~1\Chuck\LOCALS~1\Temp\ccspNQUs.s 			page 12


 459 001a 3B68     		ldr	r3, [r7]
 460 001c 081C     		mov	r0, r1
 461 001e 111C     		mov	r1, r2
 462 0020 1A1C     		mov	r2, r3
 463 0022 A047     		blx	r4
 464 0024 031C     		mov	r3, r0
 465 0026 181C     		mov	r0, r3
 466 0028 BD46     		mov	sp, r7
 467 002a 03B0     		add	sp, sp, #12
 468              		@ sp needed
 469 002c 90BD     		pop	{r4, r7, pc}
 470              		.cfi_endproc
 471              	.LFE60:
 472              		.size	_ZN3ros9Publisher7publishEPKNS_3MsgE, .-_ZN3ros9Publisher7publishEPKNS_3MsgE
 473 002e C046     		.section	.text._ZN8SysTimer6millisEv,"axG",%progbits,_ZN8SysTimer6millisEv,comdat
 474              		.align	2
 475              		.weak	_ZN8SysTimer6millisEv
 476              		.code	16
 477              		.thumb_func
 478              		.type	_ZN8SysTimer6millisEv, %function
 479              	_ZN8SysTimer6millisEv:
 480              	.LFB109:
 481              		.file 4 "./ros_lib/SysTimer.h"
   1:./ros_lib/SysTimer.h **** /* ========================================
   2:./ros_lib/SysTimer.h ****  *
   3:./ros_lib/SysTimer.h ****  * The following firmware was developed by Chuck Harrison
   4:./ros_lib/SysTimer.h ****  * This work is licensed under a Creative Commons Attribution 3.0 Unported License.
   5:./ros_lib/SysTimer.h ****  * 
   6:./ros_lib/SysTimer.h ****  * http://creativecommons.org/licenses/by/3.0/deed.en_US
   7:./ros_lib/SysTimer.h ****  * 
   8:./ros_lib/SysTimer.h ****  * You are free to:
   9:./ros_lib/SysTimer.h ****  * -To Share — to copy, distribute and transmit the work 
  10:./ros_lib/SysTimer.h ****  * -To Remix — to adapt the work 
  11:./ros_lib/SysTimer.h ****  * -To make commercial use of the work
  12:./ros_lib/SysTimer.h ****  *
  13:./ros_lib/SysTimer.h ****  * ========================================
  14:./ros_lib/SysTimer.h ****  */
  15:./ros_lib/SysTimer.h **** 
  16:./ros_lib/SysTimer.h **** #ifndef ROS_SYSTIMER_H_
  17:./ros_lib/SysTimer.h **** #define ROS_SYSTIMER_H_
  18:./ros_lib/SysTimer.h **** 
  19:./ros_lib/SysTimer.h **** typedef void (* cyisraddress)(void); // should we #include the whole cytypes.h?
  20:./ros_lib/SysTimer.h **** #define CY_ISR(FuncName)        void FuncName (void)
  21:./ros_lib/SysTimer.h **** 
  22:./ros_lib/SysTimer.h **** extern "C" {
  23:./ros_lib/SysTimer.h **** cyisraddress CyIntSetSysVector(uint8_t number, cyisraddress address);
  24:./ros_lib/SysTimer.h **** }
  25:./ros_lib/SysTimer.h **** 
  26:./ros_lib/SysTimer.h **** CY_ISR(SysTick_ISR); //forward declaration for SysTimer::init()
  27:./ros_lib/SysTimer.h **** 
  28:./ros_lib/SysTimer.h **** #define SYSTICK_INTERRUPT_VECTOR_NUMBER 15u /* Cortex-M0 hard vector */
  29:./ros_lib/SysTimer.h **** 
  30:./ros_lib/SysTimer.h **** /* clock and interrupt rates, in Hz */
  31:./ros_lib/SysTimer.h **** #define CLOCK_FREQ     24000000u
  32:./ros_lib/SysTimer.h **** #define INTERRUPT_FREQ 1000u
  33:./ros_lib/SysTimer.h **** 
  34:./ros_lib/SysTimer.h **** 
ARM GAS  C:\DOCUME~1\Chuck\LOCALS~1\Temp\ccspNQUs.s 			page 13


  35:./ros_lib/SysTimer.h **** class SysTimer
  36:./ros_lib/SysTimer.h **** {
  37:./ros_lib/SysTimer.h ****   public:
  38:./ros_lib/SysTimer.h ****     static void init() {
  39:./ros_lib/SysTimer.h ****       CyIntSetSysVector(SYSTICK_INTERRUPT_VECTOR_NUMBER, SysTick_ISR);
  40:./ros_lib/SysTimer.h ****       // must eventually do this:
  41:./ros_lib/SysTimer.h ****       //  SysTick_Config(CLOCK_FREQ / INTERRUPT_FREQ); /* defined in auto-generated core_cm0.h */
  42:./ros_lib/SysTimer.h ****       //  CyGlobalIntEnable;
  43:./ros_lib/SysTimer.h ****       millis_ = 0;
  44:./ros_lib/SysTimer.h ****     };
  45:./ros_lib/SysTimer.h ****     static uint32_t millis() { return millis_; };
 482              		.loc 4 45 0
 483              		.cfi_startproc
 484 0000 80B5     		push	{r7, lr}
 485              		.cfi_def_cfa_offset 8
 486              		.cfi_offset 7, -8
 487              		.cfi_offset 14, -4
 488 0002 00AF     		add	r7, sp, #0
 489              		.cfi_def_cfa_register 7
 490              		.loc 4 45 0
 491 0004 024B     		ldr	r3, .L32
 492 0006 1B68     		ldr	r3, [r3]
 493 0008 181C     		mov	r0, r3
 494 000a BD46     		mov	sp, r7
 495              		@ sp needed
 496 000c 80BD     		pop	{r7, pc}
 497              	.L33:
 498 000e C046     		.align	2
 499              	.L32:
 500 0010 00000000 		.word	_ZN8SysTimer7millis_E
 501              		.cfi_endproc
 502              	.LFE109:
 503              		.size	_ZN8SysTimer6millisEv, .-_ZN8SysTimer6millisEv
 504              		.section	.text._ZN8std_msgs4BoolC2Ev,"axG",%progbits,_ZN8std_msgs4BoolC5Ev,comdat
 505              		.align	2
 506              		.weak	_ZN8std_msgs4BoolC2Ev
 507              		.code	16
 508              		.thumb_func
 509              		.type	_ZN8std_msgs4BoolC2Ev, %function
 510              	_ZN8std_msgs4BoolC2Ev:
 511              	.LFB126:
 512              		.file 5 "./ros_lib/std_msgs/Bool.h"
   1:./ros_lib/std_msgs/Bool.h **** #ifndef _ROS_std_msgs_Bool_h
   2:./ros_lib/std_msgs/Bool.h **** #define _ROS_std_msgs_Bool_h
   3:./ros_lib/std_msgs/Bool.h **** 
   4:./ros_lib/std_msgs/Bool.h **** #include <stdint.h>
   5:./ros_lib/std_msgs/Bool.h **** #include <string.h>
   6:./ros_lib/std_msgs/Bool.h **** #include <stdlib.h>
   7:./ros_lib/std_msgs/Bool.h **** #include "ros/msg.h"
   8:./ros_lib/std_msgs/Bool.h **** 
   9:./ros_lib/std_msgs/Bool.h **** namespace std_msgs
  10:./ros_lib/std_msgs/Bool.h **** {
  11:./ros_lib/std_msgs/Bool.h **** 
  12:./ros_lib/std_msgs/Bool.h ****   class Bool : public ros::Msg
  13:./ros_lib/std_msgs/Bool.h ****   {
  14:./ros_lib/std_msgs/Bool.h ****     public:
  15:./ros_lib/std_msgs/Bool.h ****       bool data;
ARM GAS  C:\DOCUME~1\Chuck\LOCALS~1\Temp\ccspNQUs.s 			page 14


  16:./ros_lib/std_msgs/Bool.h **** 
  17:./ros_lib/std_msgs/Bool.h ****     Bool():
 513              		.loc 5 17 0
 514              		.cfi_startproc
 515 0000 80B5     		push	{r7, lr}
 516              		.cfi_def_cfa_offset 8
 517              		.cfi_offset 7, -8
 518              		.cfi_offset 14, -4
 519 0002 82B0     		sub	sp, sp, #8
 520              		.cfi_def_cfa_offset 16
 521 0004 00AF     		add	r7, sp, #0
 522              		.cfi_def_cfa_register 7
 523 0006 7860     		str	r0, [r7, #4]
 524              	.LBB8:
  18:./ros_lib/std_msgs/Bool.h ****       data(0)
 525              		.loc 5 18 0
 526 0008 7B68     		ldr	r3, [r7, #4]
 527 000a 181C     		mov	r0, r3
 528 000c FFF7FEFF 		bl	_ZN3ros3MsgC2Ev
 529 0010 7B68     		ldr	r3, [r7, #4]
 530 0012 054A     		ldr	r2, .L37
 531 0014 1A60     		str	r2, [r3]
 532 0016 7B68     		ldr	r3, [r7, #4]
 533 0018 0022     		mov	r2, #0
 534 001a 1A71     		strb	r2, [r3, #4]
 535              	.LBE8:
  19:./ros_lib/std_msgs/Bool.h ****     {
  20:./ros_lib/std_msgs/Bool.h ****     }
 536              		.loc 5 20 0
 537 001c 7B68     		ldr	r3, [r7, #4]
 538 001e 181C     		mov	r0, r3
 539 0020 BD46     		mov	sp, r7
 540 0022 02B0     		add	sp, sp, #8
 541              		@ sp needed
 542 0024 80BD     		pop	{r7, pc}
 543              	.L38:
 544 0026 C046     		.align	2
 545              	.L37:
 546 0028 08000000 		.word	_ZTVN8std_msgs4BoolE+8
 547              		.cfi_endproc
 548              	.LFE126:
 549              		.size	_ZN8std_msgs4BoolC2Ev, .-_ZN8std_msgs4BoolC2Ev
 550              		.weak	_ZN8std_msgs4BoolC1Ev
 551              		.thumb_set _ZN8std_msgs4BoolC1Ev,_ZN8std_msgs4BoolC2Ev
 552              		.section	.text._ZNK8std_msgs4Bool9serializeEPh,"axG",%progbits,_ZNK8std_msgs4Bool9serializeEPh,com
 553              		.align	2
 554              		.weak	_ZNK8std_msgs4Bool9serializeEPh
 555              		.code	16
 556              		.thumb_func
 557              		.type	_ZNK8std_msgs4Bool9serializeEPh, %function
 558              	_ZNK8std_msgs4Bool9serializeEPh:
 559              	.LFB128:
  21:./ros_lib/std_msgs/Bool.h **** 
  22:./ros_lib/std_msgs/Bool.h ****     virtual int serialize(unsigned char *outbuffer) const
 560              		.loc 5 22 0
 561              		.cfi_startproc
 562 0000 80B5     		push	{r7, lr}
ARM GAS  C:\DOCUME~1\Chuck\LOCALS~1\Temp\ccspNQUs.s 			page 15


 563              		.cfi_def_cfa_offset 8
 564              		.cfi_offset 7, -8
 565              		.cfi_offset 14, -4
 566 0002 84B0     		sub	sp, sp, #16
 567              		.cfi_def_cfa_offset 24
 568 0004 00AF     		add	r7, sp, #0
 569              		.cfi_def_cfa_register 7
 570 0006 7860     		str	r0, [r7, #4]
 571 0008 3960     		str	r1, [r7]
 572              	.LBB9:
  23:./ros_lib/std_msgs/Bool.h ****     {
  24:./ros_lib/std_msgs/Bool.h ****       int offset = 0;
 573              		.loc 5 24 0
 574 000a 0023     		mov	r3, #0
 575 000c FB60     		str	r3, [r7, #12]
  25:./ros_lib/std_msgs/Bool.h **** #ifndef ROS_MSG_DONT_SERIALIZE
  26:./ros_lib/std_msgs/Bool.h ****       union {
  27:./ros_lib/std_msgs/Bool.h ****         bool real;
  28:./ros_lib/std_msgs/Bool.h ****         uint8_t base;
  29:./ros_lib/std_msgs/Bool.h ****       } u_data;
  30:./ros_lib/std_msgs/Bool.h ****       u_data.real = this->data;
 576              		.loc 5 30 0
 577 000e 7B68     		ldr	r3, [r7, #4]
 578 0010 1A79     		ldrb	r2, [r3, #4]
 579 0012 3B1C     		mov	r3, r7
 580 0014 0833     		add	r3, r3, #8
 581 0016 1A70     		strb	r2, [r3]
  31:./ros_lib/std_msgs/Bool.h ****       *(outbuffer + offset + 0) = (u_data.base >> (8 * 0)) & 0xFF;
 582              		.loc 5 31 0
 583 0018 FB68     		ldr	r3, [r7, #12]
 584 001a 3A68     		ldr	r2, [r7]
 585 001c D318     		add	r3, r2, r3
 586 001e 3A1C     		mov	r2, r7
 587 0020 0832     		add	r2, r2, #8
 588 0022 1278     		ldrb	r2, [r2]
 589 0024 1A70     		strb	r2, [r3]
  32:./ros_lib/std_msgs/Bool.h ****       offset += sizeof(this->data);
 590              		.loc 5 32 0
 591 0026 FB68     		ldr	r3, [r7, #12]
 592 0028 0133     		add	r3, r3, #1
 593 002a FB60     		str	r3, [r7, #12]
  33:./ros_lib/std_msgs/Bool.h **** #endif
  34:./ros_lib/std_msgs/Bool.h ****       return offset;
 594              		.loc 5 34 0
 595 002c FB68     		ldr	r3, [r7, #12]
 596              	.LBE9:
  35:./ros_lib/std_msgs/Bool.h ****     }
 597              		.loc 5 35 0
 598 002e 181C     		mov	r0, r3
 599 0030 BD46     		mov	sp, r7
 600 0032 04B0     		add	sp, sp, #16
 601              		@ sp needed
 602 0034 80BD     		pop	{r7, pc}
 603              		.cfi_endproc
 604              	.LFE128:
 605              		.size	_ZNK8std_msgs4Bool9serializeEPh, .-_ZNK8std_msgs4Bool9serializeEPh
 606 0036 C046     		.section	.text._ZN8std_msgs4Bool11deserializeEPh,"axG",%progbits,_ZN8std_msgs4Bool11deserializeEPh
ARM GAS  C:\DOCUME~1\Chuck\LOCALS~1\Temp\ccspNQUs.s 			page 16


 607              		.align	2
 608              		.weak	_ZN8std_msgs4Bool11deserializeEPh
 609              		.code	16
 610              		.thumb_func
 611              		.type	_ZN8std_msgs4Bool11deserializeEPh, %function
 612              	_ZN8std_msgs4Bool11deserializeEPh:
 613              	.LFB129:
  36:./ros_lib/std_msgs/Bool.h **** 
  37:./ros_lib/std_msgs/Bool.h ****     virtual int deserialize(unsigned char *inbuffer)
 614              		.loc 5 37 0
 615              		.cfi_startproc
 616 0000 80B5     		push	{r7, lr}
 617              		.cfi_def_cfa_offset 8
 618              		.cfi_offset 7, -8
 619              		.cfi_offset 14, -4
 620 0002 84B0     		sub	sp, sp, #16
 621              		.cfi_def_cfa_offset 24
 622 0004 00AF     		add	r7, sp, #0
 623              		.cfi_def_cfa_register 7
 624 0006 7860     		str	r0, [r7, #4]
 625 0008 3960     		str	r1, [r7]
 626              	.LBB10:
  38:./ros_lib/std_msgs/Bool.h ****     {
  39:./ros_lib/std_msgs/Bool.h ****       int offset = 0;
 627              		.loc 5 39 0
 628 000a 0023     		mov	r3, #0
 629 000c FB60     		str	r3, [r7, #12]
  40:./ros_lib/std_msgs/Bool.h **** #ifndef ROS_MSG_DONT_DESERIALIZE
  41:./ros_lib/std_msgs/Bool.h ****       union {
  42:./ros_lib/std_msgs/Bool.h ****         bool real;
  43:./ros_lib/std_msgs/Bool.h ****         uint8_t base;
  44:./ros_lib/std_msgs/Bool.h ****       } u_data;
  45:./ros_lib/std_msgs/Bool.h ****       u_data.base = 0;
 630              		.loc 5 45 0
 631 000e 3B1C     		mov	r3, r7
 632 0010 0833     		add	r3, r3, #8
 633 0012 0022     		mov	r2, #0
 634 0014 1A70     		strb	r2, [r3]
  46:./ros_lib/std_msgs/Bool.h ****       u_data.base |= ((uint8_t) (*(inbuffer + offset + 0))) << (8 * 0);
 635              		.loc 5 46 0
 636 0016 3B1C     		mov	r3, r7
 637 0018 0833     		add	r3, r3, #8
 638 001a 1A78     		ldrb	r2, [r3]
 639 001c FB68     		ldr	r3, [r7, #12]
 640 001e 3968     		ldr	r1, [r7]
 641 0020 CB18     		add	r3, r1, r3
 642 0022 1B78     		ldrb	r3, [r3]
 643 0024 1343     		orr	r3, r2
 644 0026 DAB2     		uxtb	r2, r3
 645 0028 3B1C     		mov	r3, r7
 646 002a 0833     		add	r3, r3, #8
 647 002c 1A70     		strb	r2, [r3]
  47:./ros_lib/std_msgs/Bool.h ****       this->data = u_data.real;
 648              		.loc 5 47 0
 649 002e 3B1C     		mov	r3, r7
 650 0030 0833     		add	r3, r3, #8
 651 0032 1A78     		ldrb	r2, [r3]
ARM GAS  C:\DOCUME~1\Chuck\LOCALS~1\Temp\ccspNQUs.s 			page 17


 652 0034 7B68     		ldr	r3, [r7, #4]
 653 0036 1A71     		strb	r2, [r3, #4]
  48:./ros_lib/std_msgs/Bool.h ****       offset += sizeof(this->data);
 654              		.loc 5 48 0
 655 0038 FB68     		ldr	r3, [r7, #12]
 656 003a 0133     		add	r3, r3, #1
 657 003c FB60     		str	r3, [r7, #12]
  49:./ros_lib/std_msgs/Bool.h **** #endif
  50:./ros_lib/std_msgs/Bool.h ****      return offset;
 658              		.loc 5 50 0
 659 003e FB68     		ldr	r3, [r7, #12]
 660              	.LBE10:
  51:./ros_lib/std_msgs/Bool.h ****     }
 661              		.loc 5 51 0
 662 0040 181C     		mov	r0, r3
 663 0042 BD46     		mov	sp, r7
 664 0044 04B0     		add	sp, sp, #16
 665              		@ sp needed
 666 0046 80BD     		pop	{r7, pc}
 667              		.cfi_endproc
 668              	.LFE129:
 669              		.size	_ZN8std_msgs4Bool11deserializeEPh, .-_ZN8std_msgs4Bool11deserializeEPh
 670              		.section	.rodata
 671 0039 000000   		.align	2
 672              	.LC10:
 673 003c 7374645F 		.ascii	"std_msgs/Bool\000"
 673      6D736773 
 673      2F426F6F 
 673      6C00
 674              		.section	.text._ZN8std_msgs4Bool7getTypeEv,"axG",%progbits,_ZN8std_msgs4Bool7getTypeEv,comdat
 675              		.align	2
 676              		.weak	_ZN8std_msgs4Bool7getTypeEv
 677              		.code	16
 678              		.thumb_func
 679              		.type	_ZN8std_msgs4Bool7getTypeEv, %function
 680              	_ZN8std_msgs4Bool7getTypeEv:
 681              	.LFB130:
  52:./ros_lib/std_msgs/Bool.h **** 
  53:./ros_lib/std_msgs/Bool.h ****     const char * getType(){ return "std_msgs/Bool"; };
 682              		.loc 5 53 0
 683              		.cfi_startproc
 684 0000 80B5     		push	{r7, lr}
 685              		.cfi_def_cfa_offset 8
 686              		.cfi_offset 7, -8
 687              		.cfi_offset 14, -4
 688 0002 82B0     		sub	sp, sp, #8
 689              		.cfi_def_cfa_offset 16
 690 0004 00AF     		add	r7, sp, #0
 691              		.cfi_def_cfa_register 7
 692 0006 7860     		str	r0, [r7, #4]
 693              		.loc 5 53 0
 694 0008 024B     		ldr	r3, .L45
 695 000a 181C     		mov	r0, r3
 696 000c BD46     		mov	sp, r7
 697 000e 02B0     		add	sp, sp, #8
 698              		@ sp needed
 699 0010 80BD     		pop	{r7, pc}
ARM GAS  C:\DOCUME~1\Chuck\LOCALS~1\Temp\ccspNQUs.s 			page 18


 700              	.L46:
 701 0012 C046     		.align	2
 702              	.L45:
 703 0014 3C000000 		.word	.LC10
 704              		.cfi_endproc
 705              	.LFE130:
 706              		.size	_ZN8std_msgs4Bool7getTypeEv, .-_ZN8std_msgs4Bool7getTypeEv
 707              		.section	.rodata
 708 004a 0000     		.align	2
 709              	.LC12:
 710 004c 38623934 		.ascii	"8b94c1b53db61fb6aed406028ad6332a\000"
 710      63316235 
 710      33646236 
 710      31666236 
 710      61656434 
 711              		.section	.text._ZN8std_msgs4Bool6getMD5Ev,"axG",%progbits,_ZN8std_msgs4Bool6getMD5Ev,comdat
 712              		.align	2
 713              		.weak	_ZN8std_msgs4Bool6getMD5Ev
 714              		.code	16
 715              		.thumb_func
 716              		.type	_ZN8std_msgs4Bool6getMD5Ev, %function
 717              	_ZN8std_msgs4Bool6getMD5Ev:
 718              	.LFB131:
  54:./ros_lib/std_msgs/Bool.h ****     const char * getMD5(){ return "8b94c1b53db61fb6aed406028ad6332a"; };
 719              		.loc 5 54 0
 720              		.cfi_startproc
 721 0000 80B5     		push	{r7, lr}
 722              		.cfi_def_cfa_offset 8
 723              		.cfi_offset 7, -8
 724              		.cfi_offset 14, -4
 725 0002 82B0     		sub	sp, sp, #8
 726              		.cfi_def_cfa_offset 16
 727 0004 00AF     		add	r7, sp, #0
 728              		.cfi_def_cfa_register 7
 729 0006 7860     		str	r0, [r7, #4]
 730              		.loc 5 54 0
 731 0008 024B     		ldr	r3, .L49
 732 000a 181C     		mov	r0, r3
 733 000c BD46     		mov	sp, r7
 734 000e 02B0     		add	sp, sp, #8
 735              		@ sp needed
 736 0010 80BD     		pop	{r7, pc}
 737              	.L50:
 738 0012 C046     		.align	2
 739              	.L49:
 740 0014 4C000000 		.word	.LC12
 741              		.cfi_endproc
 742              	.LFE131:
 743              		.size	_ZN8std_msgs4Bool6getMD5Ev, .-_ZN8std_msgs4Bool6getMD5Ev
 744              		.global	_ZN8Capsense10pushed_msgE
 745              		.bss
 746              		.align	2
 747              		.type	_ZN8Capsense10pushed_msgE, %object
 748              		.size	_ZN8Capsense10pushed_msgE, 8
 749              	_ZN8Capsense10pushed_msgE:
 750 0000 00000000 		.space	8
 750      00000000 
ARM GAS  C:\DOCUME~1\Chuck\LOCALS~1\Temp\ccspNQUs.s 			page 19


 751              		.global	_ZN8Capsense10pub_buttonE
 752              		.align	2
 753              		.type	_ZN8Capsense10pub_buttonE, %object
 754              		.size	_ZN8Capsense10pub_buttonE, 20
 755              	_ZN8Capsense10pub_buttonE:
 756 0008 00000000 		.space	20
 756      00000000 
 756      00000000 
 756      00000000 
 756      00000000 
 757              		.global	_ZN8Capsense12last_readingE
 758              		.type	_ZN8Capsense12last_readingE, %object
 759              		.size	_ZN8Capsense12last_readingE, 1
 760              	_ZN8Capsense12last_readingE:
 761 001c 00       		.space	1
 762              		.global	_ZN8Capsense18last_debounce_timeE
 763 001d 000000   		.align	2
 764              		.type	_ZN8Capsense18last_debounce_timeE, %object
 765              		.size	_ZN8Capsense18last_debounce_timeE, 4
 766              	_ZN8Capsense18last_debounce_timeE:
 767 0020 00000000 		.space	4
 768              		.global	_ZN8Capsense14debounce_delayE
 769              		.data
 770              		.align	2
 771              		.type	_ZN8Capsense14debounce_delayE, %object
 772              		.size	_ZN8Capsense14debounce_delayE, 4
 773              	_ZN8Capsense14debounce_delayE:
 774 0000 32000000 		.word	50
 775              		.global	_ZN8Capsense9publishedE
 776              		.type	_ZN8Capsense9publishedE, %object
 777              		.size	_ZN8Capsense9publishedE, 1
 778              	_ZN8Capsense9publishedE:
 779 0004 01       		.byte	1
 780 0005 000000   		.section	.text._ZN8Capsense5setupEv,"ax",%progbits
 781              		.align	2
 782              		.global	_ZN8Capsense5setupEv
 783              		.code	16
 784              		.thumb_func
 785              		.type	_ZN8Capsense5setupEv, %function
 786              	_ZN8Capsense5setupEv:
 787              	.LFB165:
 788              		.file 6 ".\\ros_lib\\examples\\capsense_button\\capsense_button.cpp"
   1:.\ros_lib\examples\capsense_button/capsense_button.cpp **** ﻿/* 
   2:.\ros_lib\examples\capsense_button/capsense_button.cpp ****  * Capsense Button Example for PSoC4 "RosOnAStick"
   3:.\ros_lib\examples\capsense_button/capsense_button.cpp ****  *  demo board capsense button0 is on P3.1
   4:.\ros_lib\examples\capsense_button/capsense_button.cpp ****  *
   5:.\ros_lib\examples\capsense_button/capsense_button.cpp ****  * Copyright C. Harrison
   6:.\ros_lib\examples\capsense_button/capsense_button.cpp ****  * BSD 2-clause license http://opensource.org/licenses/BSD-2-Clause
   7:.\ros_lib\examples\capsense_button/capsense_button.cpp ****  *
   8:.\ros_lib\examples\capsense_button/capsense_button.cpp ****  */
   9:.\ros_lib\examples\capsense_button/capsense_button.cpp **** 
  10:.\ros_lib\examples\capsense_button/capsense_button.cpp **** #include <ros.h>
  11:.\ros_lib\examples\capsense_button/capsense_button.cpp **** #include <std_msgs/Bool.h>
  12:.\ros_lib\examples\capsense_button/capsense_button.cpp **** #include "capsense_button.h"
  13:.\ros_lib\examples\capsense_button/capsense_button.cpp **** 
  14:.\ros_lib\examples\capsense_button/capsense_button.cpp **** extern ros::NodeHandle  nh;
  15:.\ros_lib\examples\capsense_button/capsense_button.cpp **** 
ARM GAS  C:\DOCUME~1\Chuck\LOCALS~1\Temp\ccspNQUs.s 			page 20


  16:.\ros_lib\examples\capsense_button/capsense_button.cpp **** namespace Capsense {
  17:.\ros_lib\examples\capsense_button/capsense_button.cpp **** 
  18:.\ros_lib\examples\capsense_button/capsense_button.cpp **** std_msgs::Bool pushed_msg;
  19:.\ros_lib\examples\capsense_button/capsense_button.cpp **** ros::Publisher pub_button("capsense", &pushed_msg);
  20:.\ros_lib\examples\capsense_button/capsense_button.cpp **** 
  21:.\ros_lib\examples\capsense_button/capsense_button.cpp **** bool last_reading;
  22:.\ros_lib\examples\capsense_button/capsense_button.cpp **** long last_debounce_time=0;
  23:.\ros_lib\examples\capsense_button/capsense_button.cpp **** long debounce_delay=50;
  24:.\ros_lib\examples\capsense_button/capsense_button.cpp **** bool published = true;
  25:.\ros_lib\examples\capsense_button/capsense_button.cpp **** 
  26:.\ros_lib\examples\capsense_button/capsense_button.cpp **** void setup()
  27:.\ros_lib\examples\capsense_button/capsense_button.cpp **** {
 789              		.loc 6 27 0
 790              		.cfi_startproc
 791 0000 80B5     		push	{r7, lr}
 792              		.cfi_def_cfa_offset 8
 793              		.cfi_offset 7, -8
 794              		.cfi_offset 14, -4
 795 0002 00AF     		add	r7, sp, #0
 796              		.cfi_def_cfa_register 7
  28:.\ros_lib\examples\capsense_button/capsense_button.cpp ****   nh.advertise(pub_button);
 797              		.loc 6 28 0
 798 0004 074A     		ldr	r2, .L52
 799 0006 084B     		ldr	r3, .L52+4
 800 0008 101C     		mov	r0, r2
 801 000a 191C     		mov	r1, r3
 802 000c FFF7FEFF 		bl	_ZN3ros11NodeHandle_I13Psoc4HardwareLi10ELi20ELi200ELi200EE9advertiseERNS_9PublisherE
  29:.\ros_lib\examples\capsense_button/capsense_button.cpp ****   
  30:.\ros_lib\examples\capsense_button/capsense_button.cpp ****   CapSense_Start();
 803              		.loc 6 30 0
 804 0010 FFF7FEFF 		bl	CapSense_Start
  31:.\ros_lib\examples\capsense_button/capsense_button.cpp ****   CapSense_InitializeAllBaselines();
 805              		.loc 6 31 0
 806 0014 FFF7FEFF 		bl	CapSense_InitializeAllBaselines
  32:.\ros_lib\examples\capsense_button/capsense_button.cpp ****   
  33:.\ros_lib\examples\capsense_button/capsense_button.cpp ****   last_reading = 0;
 807              		.loc 6 33 0
 808 0018 044B     		ldr	r3, .L52+8
 809 001a 0022     		mov	r2, #0
 810 001c 1A70     		strb	r2, [r3]
  34:.\ros_lib\examples\capsense_button/capsense_button.cpp ****   
  35:.\ros_lib\examples\capsense_button/capsense_button.cpp ****  
  36:.\ros_lib\examples\capsense_button/capsense_button.cpp **** }
 811              		.loc 6 36 0
 812 001e BD46     		mov	sp, r7
 813              		@ sp needed
 814 0020 80BD     		pop	{r7, pc}
 815              	.L53:
 816 0022 C046     		.align	2
 817              	.L52:
 818 0024 00000000 		.word	nh
 819 0028 00000000 		.word	_ZN8Capsense10pub_buttonE
 820 002c 00000000 		.word	_ZN8Capsense12last_readingE
 821              		.cfi_endproc
 822              	.LFE165:
 823              		.size	_ZN8Capsense5setupEv, .-_ZN8Capsense5setupEv
 824              		.section	.rodata
ARM GAS  C:\DOCUME~1\Chuck\LOCALS~1\Temp\ccspNQUs.s 			page 21


 825 006d 000000   		.align	2
 826              	.LC24:
 827 0070 63617073 		.ascii	"capsense button pushed\000"
 827      656E7365 
 827      20627574 
 827      746F6E20 
 827      70757368 
 828              		.section	.text._ZN8Capsense4loopEv,"ax",%progbits
 829              		.align	2
 830              		.global	_ZN8Capsense4loopEv
 831              		.code	16
 832              		.thumb_func
 833              		.type	_ZN8Capsense4loopEv, %function
 834              	_ZN8Capsense4loopEv:
 835              	.LFB166:
  37:.\ros_lib\examples\capsense_button/capsense_button.cpp **** 
  38:.\ros_lib\examples\capsense_button/capsense_button.cpp **** void loop()
  39:.\ros_lib\examples\capsense_button/capsense_button.cpp **** {
 836              		.loc 6 39 0
 837              		.cfi_startproc
 838 0000 80B5     		push	{r7, lr}
 839              		.cfi_def_cfa_offset 8
 840              		.cfi_offset 7, -8
 841              		.cfi_offset 14, -4
 842 0002 82B0     		sub	sp, sp, #8
 843              		.cfi_def_cfa_offset 16
 844 0004 00AF     		add	r7, sp, #0
 845              		.cfi_def_cfa_register 7
 846              	.LBB11:
  40:.\ros_lib\examples\capsense_button/capsense_button.cpp ****   CapSense_UpdateEnabledBaselines();
 847              		.loc 6 40 0
 848 0006 FFF7FEFF 		bl	CapSense_UpdateEnabledBaselines
  41:.\ros_lib\examples\capsense_button/capsense_button.cpp ****   if (CapSense_IsBusy()) {
 849              		.loc 6 41 0
 850 000a FFF7FEFF 		bl	CapSense_IsBusy
 851 000e 031C     		mov	r3, r0
 852 0010 5A1E     		sub	r2, r3, #1
 853 0012 9341     		sbc	r3, r3, r2
 854 0014 DBB2     		uxtb	r3, r3
 855 0016 002B     		cmp	r3, #0
 856 0018 00D0     		beq	.L55
  42:.\ros_lib\examples\capsense_button/capsense_button.cpp ****     return;
 857              		.loc 6 42 0
 858 001a 4BE0     		b	.L54
 859              	.L55:
  43:.\ros_lib\examples\capsense_button/capsense_button.cpp ****   }
  44:.\ros_lib\examples\capsense_button/capsense_button.cpp ****   bool reading = CapSense_CheckIsWidgetActive(CapSense_BUTTON0__BTN);
 860              		.loc 6 44 0
 861 001c 0020     		mov	r0, #0
 862 001e FFF7FEFF 		bl	CapSense_CheckIsWidgetActive
 863 0022 021C     		mov	r2, r0
 864 0024 FB1D     		add	r3, r7, #7
 865 0026 511E     		sub	r1, r2, #1
 866 0028 8A41     		sbc	r2, r2, r1
 867 002a 1A70     		strb	r2, [r3]
  45:.\ros_lib\examples\capsense_button/capsense_button.cpp ****   
  46:.\ros_lib\examples\capsense_button/capsense_button.cpp ****   if (last_reading!= reading){
ARM GAS  C:\DOCUME~1\Chuck\LOCALS~1\Temp\ccspNQUs.s 			page 22


 868              		.loc 6 46 0
 869 002c 234B     		ldr	r3, .L61
 870 002e 1B78     		ldrb	r3, [r3]
 871 0030 FA1D     		add	r2, r7, #7
 872 0032 1278     		ldrb	r2, [r2]
 873 0034 9A42     		cmp	r2, r3
 874 0036 08D0     		beq	.L57
  47:.\ros_lib\examples\capsense_button/capsense_button.cpp ****       last_debounce_time = SysTimer::millis();
 875              		.loc 6 47 0
 876 0038 FFF7FEFF 		bl	_ZN8SysTimer6millisEv
 877 003c 031C     		mov	r3, r0
 878 003e 1A1C     		mov	r2, r3
 879 0040 1F4B     		ldr	r3, .L61+4
 880 0042 1A60     		str	r2, [r3]
  48:.\ros_lib\examples\capsense_button/capsense_button.cpp ****       published = false;
 881              		.loc 6 48 0
 882 0044 1F4B     		ldr	r3, .L61+8
 883 0046 0022     		mov	r2, #0
 884 0048 1A70     		strb	r2, [r3]
 885              	.L57:
  49:.\ros_lib\examples\capsense_button/capsense_button.cpp ****   }
  50:.\ros_lib\examples\capsense_button/capsense_button.cpp ****   
  51:.\ros_lib\examples\capsense_button/capsense_button.cpp ****   //if the button value has not changed for the debounce delay, we know its stable
  52:.\ros_lib\examples\capsense_button/capsense_button.cpp ****   if ( !published && ((int32_t)SysTimer::millis() - last_debounce_time)  > debounce_delay) {
 886              		.loc 6 52 0
 887 004a 1E4B     		ldr	r3, .L61+8
 888 004c 1B78     		ldrb	r3, [r3]
 889 004e 0122     		mov	r2, #1
 890 0050 5340     		eor	r3, r2
 891 0052 DBB2     		uxtb	r3, r3
 892 0054 002B     		cmp	r3, #0
 893 0056 0CD0     		beq	.L58
 894              		.loc 6 52 0 is_stmt 0 discriminator 1
 895 0058 FFF7FEFF 		bl	_ZN8SysTimer6millisEv
 896 005c 031C     		mov	r3, r0
 897 005e 1A1C     		mov	r2, r3
 898 0060 174B     		ldr	r3, .L61+4
 899 0062 1B68     		ldr	r3, [r3]
 900 0064 D21A     		sub	r2, r2, r3
 901 0066 184B     		ldr	r3, .L61+12
 902 0068 1B68     		ldr	r3, [r3]
 903 006a 9A42     		cmp	r2, r3
 904 006c 01DD     		ble	.L58
 905              		.loc 6 52 0 discriminator 3
 906 006e 0123     		mov	r3, #1
 907 0070 00E0     		b	.L59
 908              	.L58:
 909              		.loc 6 52 0 discriminator 2
 910 0072 0023     		mov	r3, #0
 911              	.L59:
 912              		.loc 6 52 0 discriminator 4
 913 0074 002B     		cmp	r3, #0
 914 0076 16D0     		beq	.L60
  53:.\ros_lib\examples\capsense_button/capsense_button.cpp ****     pushed_msg.data = reading;
 915              		.loc 6 53 0 is_stmt 1
 916 0078 144B     		ldr	r3, .L61+16
 917 007a FA1D     		add	r2, r7, #7
ARM GAS  C:\DOCUME~1\Chuck\LOCALS~1\Temp\ccspNQUs.s 			page 23


 918 007c 1278     		ldrb	r2, [r2]
 919 007e 1A71     		strb	r2, [r3, #4]
  54:.\ros_lib\examples\capsense_button/capsense_button.cpp ****     pub_button.publish(&pushed_msg);
 920              		.loc 6 54 0
 921 0080 134A     		ldr	r2, .L61+20
 922 0082 124B     		ldr	r3, .L61+16
 923 0084 101C     		mov	r0, r2
 924 0086 191C     		mov	r1, r3
 925 0088 FFF7FEFF 		bl	_ZN3ros9Publisher7publishEPKNS_3MsgE
  55:.\ros_lib\examples\capsense_button/capsense_button.cpp ****     published = true;
 926              		.loc 6 55 0
 927 008c 0D4B     		ldr	r3, .L61+8
 928 008e 0122     		mov	r2, #1
 929 0090 1A70     		strb	r2, [r3]
  56:.\ros_lib\examples\capsense_button/capsense_button.cpp ****     if (reading) {
 930              		.loc 6 56 0
 931 0092 FB1D     		add	r3, r7, #7
 932 0094 1B78     		ldrb	r3, [r3]
 933 0096 002B     		cmp	r3, #0
 934 0098 05D0     		beq	.L60
  57:.\ros_lib\examples\capsense_button/capsense_button.cpp ****       nh.loginfo("capsense button pushed");
 935              		.loc 6 57 0
 936 009a 0E4A     		ldr	r2, .L61+24
 937 009c 0E4B     		ldr	r3, .L61+28
 938 009e 101C     		mov	r0, r2
 939 00a0 191C     		mov	r1, r3
 940 00a2 FFF7FEFF 		bl	_ZN3ros11NodeHandle_I13Psoc4HardwareLi10ELi20ELi200ELi200EE7loginfoEPKc
 941              	.L60:
  58:.\ros_lib\examples\capsense_button/capsense_button.cpp ****     }
  59:.\ros_lib\examples\capsense_button/capsense_button.cpp ****   }
  60:.\ros_lib\examples\capsense_button/capsense_button.cpp **** 
  61:.\ros_lib\examples\capsense_button/capsense_button.cpp ****   last_reading = reading;
 942              		.loc 6 61 0
 943 00a6 054B     		ldr	r3, .L61
 944 00a8 FA1D     		add	r2, r7, #7
 945 00aa 1278     		ldrb	r2, [r2]
 946 00ac 1A70     		strb	r2, [r3]
  62:.\ros_lib\examples\capsense_button/capsense_button.cpp ****   CapSense_ScanEnabledWidgets();
 947              		.loc 6 62 0
 948 00ae FFF7FEFF 		bl	CapSense_ScanEnabledWidgets
  63:.\ros_lib\examples\capsense_button/capsense_button.cpp ****   return;
 949              		.loc 6 63 0
 950 00b2 C046     		mov	r8, r8
 951              	.L54:
 952              	.LBE11:
  64:.\ros_lib\examples\capsense_button/capsense_button.cpp **** }
 953              		.loc 6 64 0
 954 00b4 BD46     		mov	sp, r7
 955 00b6 02B0     		add	sp, sp, #8
 956              		@ sp needed
 957 00b8 80BD     		pop	{r7, pc}
 958              	.L62:
 959 00ba C046     		.align	2
 960              	.L61:
 961 00bc 00000000 		.word	_ZN8Capsense12last_readingE
 962 00c0 00000000 		.word	_ZN8Capsense18last_debounce_timeE
 963 00c4 00000000 		.word	_ZN8Capsense9publishedE
ARM GAS  C:\DOCUME~1\Chuck\LOCALS~1\Temp\ccspNQUs.s 			page 24


 964 00c8 00000000 		.word	_ZN8Capsense14debounce_delayE
 965 00cc 00000000 		.word	_ZN8Capsense10pushed_msgE
 966 00d0 00000000 		.word	_ZN8Capsense10pub_buttonE
 967 00d4 00000000 		.word	nh
 968 00d8 70000000 		.word	.LC24
 969              		.cfi_endproc
 970              	.LFE166:
 971              		.size	_ZN8Capsense4loopEv, .-_ZN8Capsense4loopEv
 972              		.section	.text._ZN3ros11NodeHandle_I13Psoc4HardwareLi10ELi20ELi200ELi200EE9advertiseERNS_9Publishe
 973              		.align	2
 974              		.weak	_ZN3ros11NodeHandle_I13Psoc4HardwareLi10ELi20ELi200ELi200EE9advertiseERNS_9PublisherE
 975              		.code	16
 976              		.thumb_func
 977              		.type	_ZN3ros11NodeHandle_I13Psoc4HardwareLi10ELi20ELi200ELi200EE9advertiseERNS_9PublisherE, %func
 978              	_ZN3ros11NodeHandle_I13Psoc4HardwareLi10ELi20ELi200ELi200EE9advertiseERNS_9PublisherE:
 979              	.LFB167:
 980              		.file 7 "./ros_lib/ros/node_handle.h"
   1:./ros_lib/ros/node_handle.h **** /*
   2:./ros_lib/ros/node_handle.h ****  * Software License Agreement (BSD License)
   3:./ros_lib/ros/node_handle.h ****  *
   4:./ros_lib/ros/node_handle.h ****  * Copyright (c) 2011, Willow Garage, Inc.
   5:./ros_lib/ros/node_handle.h ****  * All rights reserved.
   6:./ros_lib/ros/node_handle.h ****  *
   7:./ros_lib/ros/node_handle.h ****  * Redistribution and use in source and binary forms, with or without
   8:./ros_lib/ros/node_handle.h ****  * modification, are permitted provided that the following conditions
   9:./ros_lib/ros/node_handle.h ****  * are met:
  10:./ros_lib/ros/node_handle.h ****  *
  11:./ros_lib/ros/node_handle.h ****  *  * Redistributions of source code must retain the above copyright
  12:./ros_lib/ros/node_handle.h ****  *    notice, this list of conditions and the following disclaimer.
  13:./ros_lib/ros/node_handle.h ****  *  * Redistributions in binary form must reproduce the above
  14:./ros_lib/ros/node_handle.h ****  *    copyright notice, this list of conditions and the following
  15:./ros_lib/ros/node_handle.h ****  *    disclaimer in the documentation and/or other materials provided
  16:./ros_lib/ros/node_handle.h ****  *    with the distribution.
  17:./ros_lib/ros/node_handle.h ****  *  * Neither the name of Willow Garage, Inc. nor the names of its
  18:./ros_lib/ros/node_handle.h ****  *    contributors may be used to endorse or promote prducts derived
  19:./ros_lib/ros/node_handle.h ****  *    from this software without specific prior written permission.
  20:./ros_lib/ros/node_handle.h ****  *
  21:./ros_lib/ros/node_handle.h ****  * THIS SOFTWARE IS PROVIDED BY THE COPYRIGHT HOLDERS AND CONTRIBUTORS
  22:./ros_lib/ros/node_handle.h ****  * "AS IS" AND ANY EXPRESS OR IMPLIED WARRANTIES, INCLUDING, BUT NOT
  23:./ros_lib/ros/node_handle.h ****  * LIMITED TO, THE IMPLIED WARRANTIES OF MERCHANTABILITY AND FITNESS
  24:./ros_lib/ros/node_handle.h ****  * FOR A PARTICULAR PURPOSE ARE DISCLAIMED. IN NO EVENT SHALL THE
  25:./ros_lib/ros/node_handle.h ****  * COPYRIGHT OWNER OR CONTRIBUTORS BE LIABLE FOR ANY DIRECT, INDIRECT,
  26:./ros_lib/ros/node_handle.h ****  * INCIDENTAL, SPECIAL, EXEMPLARY, OR CONSEQUENTIAL DAMAGES (INCLUDING,
  27:./ros_lib/ros/node_handle.h ****  * BUT NOT LIMITED TO, PROCUREMENT OF SUBSTITUTE GOODS OR SERVICES;
  28:./ros_lib/ros/node_handle.h ****  * LOSS OF USE, DATA, OR PROFITS; OR BUSINESS INTERRUPTION) HOWEVER
  29:./ros_lib/ros/node_handle.h ****  * CAUSED AND ON ANY THEORY OF LIABILITY, WHETHER IN CONTRACT, STRICT
  30:./ros_lib/ros/node_handle.h ****  * LIABILITY, OR TORT (INCLUDING NEGLIGENCE OR OTHERWISE) ARISING IN
  31:./ros_lib/ros/node_handle.h ****  * ANY WAY OUT OF THE USE OF THIS SOFTWARE, EVEN IF ADVISED OF THE
  32:./ros_lib/ros/node_handle.h ****  * POSSIBILITY OF SUCH DAMAGE.
  33:./ros_lib/ros/node_handle.h ****  */
  34:./ros_lib/ros/node_handle.h **** 
  35:./ros_lib/ros/node_handle.h **** #ifndef ROS_NODE_HANDLE_H_
  36:./ros_lib/ros/node_handle.h **** #define ROS_NODE_HANDLE_H_
  37:./ros_lib/ros/node_handle.h **** 
  38:./ros_lib/ros/node_handle.h **** #ifndef PARAM_REQ_SUPPORT
  39:./ros_lib/ros/node_handle.h **** #define PARAM_REQ_SUPPORT 1
  40:./ros_lib/ros/node_handle.h **** #endif
ARM GAS  C:\DOCUME~1\Chuck\LOCALS~1\Temp\ccspNQUs.s 			page 25


  41:./ros_lib/ros/node_handle.h **** 
  42:./ros_lib/ros/node_handle.h **** #include "std_msgs/Time.h"
  43:./ros_lib/ros/node_handle.h **** #include "rosserial_msgs/TopicInfo.h"
  44:./ros_lib/ros/node_handle.h **** #include "rosserial_msgs/Log.h"
  45:./ros_lib/ros/node_handle.h **** #if PARAM_REQ_SUPPORT
  46:./ros_lib/ros/node_handle.h **** #include "rosserial_msgs/RequestParam.h"
  47:./ros_lib/ros/node_handle.h **** #endif
  48:./ros_lib/ros/node_handle.h **** 
  49:./ros_lib/ros/node_handle.h **** #define SYNC_SECONDS        2
  50:./ros_lib/ros/node_handle.h **** 
  51:./ros_lib/ros/node_handle.h **** #define MODE_FIRST_FF       0
  52:./ros_lib/ros/node_handle.h **** /*
  53:./ros_lib/ros/node_handle.h ****  * The second sync byte is a protocol version. It's value is 0xff for the first
  54:./ros_lib/ros/node_handle.h ****  * version of the rosserial protocol (used up to hydro), 0xfe for the second version
  55:./ros_lib/ros/node_handle.h ****  * (introduced in hydro), 0xfd for the next, and so on. Its purpose is to enable
  56:./ros_lib/ros/node_handle.h ****  * detection of mismatched protocol versions (e.g. hydro rosserial_python with groovy
  57:./ros_lib/ros/node_handle.h ****  * rosserial_arduino. It must be changed in both this file and in
  58:./ros_lib/ros/node_handle.h ****  * rosserial_python/src/rosserial_python/SerialClient.py
  59:./ros_lib/ros/node_handle.h ****  */
  60:./ros_lib/ros/node_handle.h **** #define MODE_PROTOCOL_VER   1
  61:./ros_lib/ros/node_handle.h **** #define PROTOCOL_VER1		0xff // through groovy
  62:./ros_lib/ros/node_handle.h **** #define PROTOCOL_VER2		0xfe // in hydro
  63:./ros_lib/ros/node_handle.h **** #define PROTOCOL_VER 		PROTOCOL_VER2
  64:./ros_lib/ros/node_handle.h **** #define MODE_SIZE_L         2   
  65:./ros_lib/ros/node_handle.h **** #define MODE_SIZE_H         3
  66:./ros_lib/ros/node_handle.h **** #define MODE_SIZE_CHECKSUM  4   // checksum for msg size received from size L and H
  67:./ros_lib/ros/node_handle.h **** #define MODE_TOPIC_L        5   // waiting for topic id
  68:./ros_lib/ros/node_handle.h **** #define MODE_TOPIC_H        6
  69:./ros_lib/ros/node_handle.h **** #define MODE_MESSAGE        7
  70:./ros_lib/ros/node_handle.h **** #define MODE_MSG_CHECKSUM   8   // checksum for msg and topic id 
  71:./ros_lib/ros/node_handle.h **** 
  72:./ros_lib/ros/node_handle.h **** 
  73:./ros_lib/ros/node_handle.h **** #define MSG_TIMEOUT 200  // was 20 milliseconds to recieve all of message data
  74:./ros_lib/ros/node_handle.h **** 
  75:./ros_lib/ros/node_handle.h **** #include "msg.h"
  76:./ros_lib/ros/node_handle.h **** 
  77:./ros_lib/ros/node_handle.h **** namespace ros {
  78:./ros_lib/ros/node_handle.h **** 
  79:./ros_lib/ros/node_handle.h ****   class NodeHandleBase_{
  80:./ros_lib/ros/node_handle.h ****     public:
  81:./ros_lib/ros/node_handle.h ****       virtual int publish(int id, const Msg* msg)=0;
  82:./ros_lib/ros/node_handle.h ****       virtual int spinOnce()=0;
  83:./ros_lib/ros/node_handle.h ****       virtual bool connected()=0;
  84:./ros_lib/ros/node_handle.h ****     };
  85:./ros_lib/ros/node_handle.h **** }
  86:./ros_lib/ros/node_handle.h **** 
  87:./ros_lib/ros/node_handle.h **** #include "publisher.h"
  88:./ros_lib/ros/node_handle.h **** #include "subscriber.h"
  89:./ros_lib/ros/node_handle.h **** #include "service_server.h"
  90:./ros_lib/ros/node_handle.h **** #include "service_client.h"
  91:./ros_lib/ros/node_handle.h **** 
  92:./ros_lib/ros/node_handle.h **** namespace ros {
  93:./ros_lib/ros/node_handle.h **** 
  94:./ros_lib/ros/node_handle.h ****   using rosserial_msgs::TopicInfo;
  95:./ros_lib/ros/node_handle.h **** 
  96:./ros_lib/ros/node_handle.h ****   /* Node Handle */
  97:./ros_lib/ros/node_handle.h ****   template<class Hardware,
ARM GAS  C:\DOCUME~1\Chuck\LOCALS~1\Temp\ccspNQUs.s 			page 26


  98:./ros_lib/ros/node_handle.h ****            int MAX_SUBSCRIBERS=25,
  99:./ros_lib/ros/node_handle.h ****            int MAX_PUBLISHERS=25,
 100:./ros_lib/ros/node_handle.h ****            int INPUT_SIZE=512,
 101:./ros_lib/ros/node_handle.h ****            int OUTPUT_SIZE=512>
 102:./ros_lib/ros/node_handle.h ****   class NodeHandle_ : public NodeHandleBase_
 103:./ros_lib/ros/node_handle.h ****   {
 104:./ros_lib/ros/node_handle.h ****     protected:
 105:./ros_lib/ros/node_handle.h ****       Hardware hardware_;
 106:./ros_lib/ros/node_handle.h **** 
 107:./ros_lib/ros/node_handle.h ****       /* time used for syncing */
 108:./ros_lib/ros/node_handle.h ****       unsigned long rt_time;
 109:./ros_lib/ros/node_handle.h **** 
 110:./ros_lib/ros/node_handle.h ****       /* used for computing current time */
 111:./ros_lib/ros/node_handle.h ****       unsigned long sec_offset, nsec_offset;
 112:./ros_lib/ros/node_handle.h **** 
 113:./ros_lib/ros/node_handle.h ****       unsigned char message_in[INPUT_SIZE];
 114:./ros_lib/ros/node_handle.h ****       unsigned char message_out[OUTPUT_SIZE];
 115:./ros_lib/ros/node_handle.h **** 
 116:./ros_lib/ros/node_handle.h ****       Publisher * publishers[MAX_PUBLISHERS];
 117:./ros_lib/ros/node_handle.h ****       Subscriber_ * subscribers[MAX_SUBSCRIBERS];
 118:./ros_lib/ros/node_handle.h **** 
 119:./ros_lib/ros/node_handle.h ****       /*
 120:./ros_lib/ros/node_handle.h ****        * Setup Functions
 121:./ros_lib/ros/node_handle.h ****        */
 122:./ros_lib/ros/node_handle.h ****     public:
 123:./ros_lib/ros/node_handle.h ****       NodeHandle_() : configured_(false) {
 124:./ros_lib/ros/node_handle.h **** #if true
 125:./ros_lib/ros/node_handle.h ****         for(unsigned int i=0; i< MAX_PUBLISHERS; i++) 
 126:./ros_lib/ros/node_handle.h **** 	   publishers[i] = 0;
 127:./ros_lib/ros/node_handle.h **** 
 128:./ros_lib/ros/node_handle.h ****         for(unsigned int i=0; i< MAX_SUBSCRIBERS; i++) 
 129:./ros_lib/ros/node_handle.h **** 	   subscribers[i] = 0;
 130:./ros_lib/ros/node_handle.h **** 
 131:./ros_lib/ros/node_handle.h ****         for(unsigned int i=0; i< INPUT_SIZE; i++) 
 132:./ros_lib/ros/node_handle.h **** 	   message_in[i] = 0;
 133:./ros_lib/ros/node_handle.h **** 
 134:./ros_lib/ros/node_handle.h ****         for(unsigned int i=0; i< OUTPUT_SIZE; i++) 
 135:./ros_lib/ros/node_handle.h **** 	   message_out[i] = 0;
 136:./ros_lib/ros/node_handle.h **** 
 137:./ros_lib/ros/node_handle.h ****         req_param_resp.ints_length = 0;
 138:./ros_lib/ros/node_handle.h ****         req_param_resp.ints = NULL;
 139:./ros_lib/ros/node_handle.h ****         req_param_resp.floats_length = 0;
 140:./ros_lib/ros/node_handle.h ****         req_param_resp.floats = NULL;
 141:./ros_lib/ros/node_handle.h ****         req_param_resp.ints_length = 0;
 142:./ros_lib/ros/node_handle.h ****         req_param_resp.ints = NULL;
 143:./ros_lib/ros/node_handle.h ****       }
 144:./ros_lib/ros/node_handle.h **** #endif      
 145:./ros_lib/ros/node_handle.h ****       Hardware* getHardware(){
 146:./ros_lib/ros/node_handle.h ****         return &hardware_;
 147:./ros_lib/ros/node_handle.h ****       }
 148:./ros_lib/ros/node_handle.h **** 
 149:./ros_lib/ros/node_handle.h ****       /* Start serial, initialize buffers */
 150:./ros_lib/ros/node_handle.h ****       void initNode(){
 151:./ros_lib/ros/node_handle.h ****         hardware_.init();
 152:./ros_lib/ros/node_handle.h ****         mode_ = 0;
 153:./ros_lib/ros/node_handle.h ****         bytes_ = 0;
 154:./ros_lib/ros/node_handle.h ****         index_ = 0;
ARM GAS  C:\DOCUME~1\Chuck\LOCALS~1\Temp\ccspNQUs.s 			page 27


 155:./ros_lib/ros/node_handle.h ****         topic_ = 0;
 156:./ros_lib/ros/node_handle.h ****       };
 157:./ros_lib/ros/node_handle.h **** 
 158:./ros_lib/ros/node_handle.h ****       /* Start a named port, which may be network server IP, initialize buffers */
 159:./ros_lib/ros/node_handle.h ****       void initNode(char *portName){
 160:./ros_lib/ros/node_handle.h ****         hardware_.init(portName);
 161:./ros_lib/ros/node_handle.h ****         mode_ = 0;
 162:./ros_lib/ros/node_handle.h ****         bytes_ = 0;
 163:./ros_lib/ros/node_handle.h ****         index_ = 0;
 164:./ros_lib/ros/node_handle.h ****         topic_ = 0;
 165:./ros_lib/ros/node_handle.h ****       };
 166:./ros_lib/ros/node_handle.h **** 
 167:./ros_lib/ros/node_handle.h ****     protected:
 168:./ros_lib/ros/node_handle.h ****       //State machine variables for spinOnce
 169:./ros_lib/ros/node_handle.h ****       int mode_;
 170:./ros_lib/ros/node_handle.h ****       int bytes_;
 171:./ros_lib/ros/node_handle.h ****       int topic_;
 172:./ros_lib/ros/node_handle.h ****       int index_;
 173:./ros_lib/ros/node_handle.h ****       int checksum_;
 174:./ros_lib/ros/node_handle.h **** 
 175:./ros_lib/ros/node_handle.h ****       bool configured_;
 176:./ros_lib/ros/node_handle.h **** 
 177:./ros_lib/ros/node_handle.h ****       /* used for syncing the time */
 178:./ros_lib/ros/node_handle.h ****       unsigned long last_sync_time;
 179:./ros_lib/ros/node_handle.h ****       unsigned long last_sync_receive_time;
 180:./ros_lib/ros/node_handle.h ****       unsigned long last_msg_timeout_time;
 181:./ros_lib/ros/node_handle.h **** 
 182:./ros_lib/ros/node_handle.h ****     public:
 183:./ros_lib/ros/node_handle.h ****       /* This function goes in your loop() function, it handles
 184:./ros_lib/ros/node_handle.h ****        *  serial input and callbacks for subscribers.
 185:./ros_lib/ros/node_handle.h ****        */
 186:./ros_lib/ros/node_handle.h **** 
 187:./ros_lib/ros/node_handle.h **** 
 188:./ros_lib/ros/node_handle.h ****       virtual int spinOnce(){
 189:./ros_lib/ros/node_handle.h **** 
 190:./ros_lib/ros/node_handle.h ****         /* restart if timed out */
 191:./ros_lib/ros/node_handle.h ****         unsigned long c_time = hardware_.time();
 192:./ros_lib/ros/node_handle.h ****         if( (c_time - last_sync_receive_time) > (SYNC_SECONDS*1100) ){
 193:./ros_lib/ros/node_handle.h ****             configured_ = false;
 194:./ros_lib/ros/node_handle.h ****          }
 195:./ros_lib/ros/node_handle.h ****          
 196:./ros_lib/ros/node_handle.h ****         /* reset if message has timed out */
 197:./ros_lib/ros/node_handle.h ****         if ( mode_ != MODE_FIRST_FF){ 
 198:./ros_lib/ros/node_handle.h ****           if (c_time > last_msg_timeout_time){
 199:./ros_lib/ros/node_handle.h ****             mode_ = MODE_FIRST_FF;
 200:./ros_lib/ros/node_handle.h ****           }
 201:./ros_lib/ros/node_handle.h ****         }
 202:./ros_lib/ros/node_handle.h **** 
 203:./ros_lib/ros/node_handle.h ****         /* while available buffer, read data */
 204:./ros_lib/ros/node_handle.h ****         while( true )
 205:./ros_lib/ros/node_handle.h ****         {
 206:./ros_lib/ros/node_handle.h ****           int data = hardware_.read();
 207:./ros_lib/ros/node_handle.h ****           if( data < 0 )
 208:./ros_lib/ros/node_handle.h ****             break;
 209:./ros_lib/ros/node_handle.h ****           checksum_ += data;
 210:./ros_lib/ros/node_handle.h ****           if( mode_ == MODE_MESSAGE ){        /* message data being recieved */
 211:./ros_lib/ros/node_handle.h ****             message_in[index_++] = data;
ARM GAS  C:\DOCUME~1\Chuck\LOCALS~1\Temp\ccspNQUs.s 			page 28


 212:./ros_lib/ros/node_handle.h ****             bytes_--;
 213:./ros_lib/ros/node_handle.h ****             if(bytes_ == 0)                  /* is message complete? if so, checksum */
 214:./ros_lib/ros/node_handle.h ****               mode_ = MODE_MSG_CHECKSUM;
 215:./ros_lib/ros/node_handle.h ****           }else if( mode_ == MODE_FIRST_FF ){
 216:./ros_lib/ros/node_handle.h ****             if(data == 0xff){
 217:./ros_lib/ros/node_handle.h ****               mode_++;
 218:./ros_lib/ros/node_handle.h ****               last_msg_timeout_time = c_time + MSG_TIMEOUT;
 219:./ros_lib/ros/node_handle.h ****             }
 220:./ros_lib/ros/node_handle.h ****             else if( hardware_.time() - c_time > (SYNC_SECONDS)){
 221:./ros_lib/ros/node_handle.h ****               /* We have been stuck in spinOnce too long, return error */
 222:./ros_lib/ros/node_handle.h ****               configured_=false;
 223:./ros_lib/ros/node_handle.h ****               return -2;
 224:./ros_lib/ros/node_handle.h ****             }
 225:./ros_lib/ros/node_handle.h ****           }else if( mode_ == MODE_PROTOCOL_VER ){
 226:./ros_lib/ros/node_handle.h ****             if(data == PROTOCOL_VER){
 227:./ros_lib/ros/node_handle.h ****               mode_++;
 228:./ros_lib/ros/node_handle.h ****             }else{
 229:./ros_lib/ros/node_handle.h ****               mode_ = MODE_FIRST_FF;
 230:./ros_lib/ros/node_handle.h ****               if (configured_ == false)
 231:./ros_lib/ros/node_handle.h ****                   requestSyncTime(); 	/* send a msg back showing our protocol version */
 232:./ros_lib/ros/node_handle.h ****             }
 233:./ros_lib/ros/node_handle.h **** 	  }else if( mode_ == MODE_SIZE_L ){   /* bottom half of message size */
 234:./ros_lib/ros/node_handle.h ****             bytes_ = data;
 235:./ros_lib/ros/node_handle.h ****             index_ = 0;
 236:./ros_lib/ros/node_handle.h ****             mode_++;
 237:./ros_lib/ros/node_handle.h ****             checksum_ = data;               /* first byte for calculating size checksum */
 238:./ros_lib/ros/node_handle.h ****           }else if( mode_ == MODE_SIZE_H ){   /* top half of message size */
 239:./ros_lib/ros/node_handle.h ****             bytes_ += data<<8;
 240:./ros_lib/ros/node_handle.h **** 	    mode_++;
 241:./ros_lib/ros/node_handle.h ****           }else if( mode_ == MODE_SIZE_CHECKSUM ){  
 242:./ros_lib/ros/node_handle.h ****             if( (checksum_%256) == 255)
 243:./ros_lib/ros/node_handle.h **** 	      mode_++;
 244:./ros_lib/ros/node_handle.h **** 	    else 
 245:./ros_lib/ros/node_handle.h **** 	      mode_ = MODE_FIRST_FF;          /* Abandon the frame if the msg len is wrong */
 246:./ros_lib/ros/node_handle.h **** 	  }else if( mode_ == MODE_TOPIC_L ){  /* bottom half of topic id */
 247:./ros_lib/ros/node_handle.h ****             topic_ = data;
 248:./ros_lib/ros/node_handle.h ****             mode_++;
 249:./ros_lib/ros/node_handle.h ****             checksum_ = data;               /* first byte included in checksum */
 250:./ros_lib/ros/node_handle.h ****           }else if( mode_ == MODE_TOPIC_H ){  /* top half of topic id */
 251:./ros_lib/ros/node_handle.h ****             topic_ += data<<8;
 252:./ros_lib/ros/node_handle.h ****             mode_ = MODE_MESSAGE;
 253:./ros_lib/ros/node_handle.h ****             if(bytes_ == 0)
 254:./ros_lib/ros/node_handle.h ****               mode_ = MODE_MSG_CHECKSUM;  
 255:./ros_lib/ros/node_handle.h ****           }else if( mode_ == MODE_MSG_CHECKSUM ){ /* do checksum */
 256:./ros_lib/ros/node_handle.h ****             mode_ = MODE_FIRST_FF;
 257:./ros_lib/ros/node_handle.h ****             if( (checksum_%256) == 255){
 258:./ros_lib/ros/node_handle.h ****               if(topic_ == TopicInfo::ID_PUBLISHER){
 259:./ros_lib/ros/node_handle.h ****                 requestSyncTime();
 260:./ros_lib/ros/node_handle.h ****                 negotiateTopics();
 261:./ros_lib/ros/node_handle.h ****                 last_sync_time = c_time;
 262:./ros_lib/ros/node_handle.h ****                 last_sync_receive_time = c_time;
 263:./ros_lib/ros/node_handle.h ****                 return -1;
 264:./ros_lib/ros/node_handle.h ****               }else if(topic_ == TopicInfo::ID_TIME){
 265:./ros_lib/ros/node_handle.h ****                 syncTime(message_in);
 266:./ros_lib/ros/node_handle.h ****               #if PARAM_REQ_SUPPORT
 267:./ros_lib/ros/node_handle.h ****               }else if (topic_ == TopicInfo::ID_PARAMETER_REQUEST){
 268:./ros_lib/ros/node_handle.h ****                   req_param_resp.deserialize(message_in);
ARM GAS  C:\DOCUME~1\Chuck\LOCALS~1\Temp\ccspNQUs.s 			page 29


 269:./ros_lib/ros/node_handle.h ****                   param_recieved= true;
 270:./ros_lib/ros/node_handle.h ****               #endif
 271:./ros_lib/ros/node_handle.h ****               }else if(topic_ == TopicInfo::ID_TX_STOP){
 272:./ros_lib/ros/node_handle.h ****                   configured_ = false;
 273:./ros_lib/ros/node_handle.h ****               }else{
 274:./ros_lib/ros/node_handle.h ****                 if(subscribers[topic_-100])
 275:./ros_lib/ros/node_handle.h ****                   subscribers[topic_-100]->callback( message_in );
 276:./ros_lib/ros/node_handle.h ****               }
 277:./ros_lib/ros/node_handle.h ****             }
 278:./ros_lib/ros/node_handle.h ****           }
 279:./ros_lib/ros/node_handle.h ****         }
 280:./ros_lib/ros/node_handle.h **** 
 281:./ros_lib/ros/node_handle.h ****         /* occasionally sync time */
 282:./ros_lib/ros/node_handle.h ****         if( configured_ && ((c_time-last_sync_time) > (SYNC_SECONDS*500) )){
 283:./ros_lib/ros/node_handle.h ****           requestSyncTime();
 284:./ros_lib/ros/node_handle.h ****           last_sync_time = c_time;
 285:./ros_lib/ros/node_handle.h ****         }
 286:./ros_lib/ros/node_handle.h **** 
 287:./ros_lib/ros/node_handle.h ****         return 0;
 288:./ros_lib/ros/node_handle.h ****       }
 289:./ros_lib/ros/node_handle.h **** 
 290:./ros_lib/ros/node_handle.h **** 
 291:./ros_lib/ros/node_handle.h ****       /* Are we connected to the PC? */
 292:./ros_lib/ros/node_handle.h ****       virtual bool connected() {
 293:./ros_lib/ros/node_handle.h ****         return configured_;
 294:./ros_lib/ros/node_handle.h ****       };
 295:./ros_lib/ros/node_handle.h **** 
 296:./ros_lib/ros/node_handle.h ****       /********************************************************************
 297:./ros_lib/ros/node_handle.h ****        * Time functions
 298:./ros_lib/ros/node_handle.h ****        */
 299:./ros_lib/ros/node_handle.h **** 
 300:./ros_lib/ros/node_handle.h ****       void requestSyncTime()
 301:./ros_lib/ros/node_handle.h ****       {
 302:./ros_lib/ros/node_handle.h ****         std_msgs::Time t;
 303:./ros_lib/ros/node_handle.h ****         publish(TopicInfo::ID_TIME, &t);
 304:./ros_lib/ros/node_handle.h ****         rt_time = hardware_.time();
 305:./ros_lib/ros/node_handle.h ****       }
 306:./ros_lib/ros/node_handle.h **** 
 307:./ros_lib/ros/node_handle.h ****       void syncTime( unsigned char * data )
 308:./ros_lib/ros/node_handle.h ****       {
 309:./ros_lib/ros/node_handle.h ****         std_msgs::Time t;
 310:./ros_lib/ros/node_handle.h ****         unsigned long offset = hardware_.time() - rt_time;
 311:./ros_lib/ros/node_handle.h **** 
 312:./ros_lib/ros/node_handle.h ****         t.deserialize(data);
 313:./ros_lib/ros/node_handle.h ****         t.data.sec += offset/1000;
 314:./ros_lib/ros/node_handle.h ****         t.data.nsec += (offset%1000)*1000000UL;
 315:./ros_lib/ros/node_handle.h **** 
 316:./ros_lib/ros/node_handle.h ****         this->setNow(t.data);
 317:./ros_lib/ros/node_handle.h ****         last_sync_receive_time = hardware_.time();
 318:./ros_lib/ros/node_handle.h ****       }
 319:./ros_lib/ros/node_handle.h **** 
 320:./ros_lib/ros/node_handle.h ****       Time now(){
 321:./ros_lib/ros/node_handle.h ****         unsigned long ms = hardware_.time();
 322:./ros_lib/ros/node_handle.h ****         Time current_time;
 323:./ros_lib/ros/node_handle.h ****         current_time.sec = ms/1000 + sec_offset;
 324:./ros_lib/ros/node_handle.h ****         current_time.nsec = (ms%1000)*1000000UL + nsec_offset;
 325:./ros_lib/ros/node_handle.h ****         normalizeSecNSec(current_time.sec, current_time.nsec);
ARM GAS  C:\DOCUME~1\Chuck\LOCALS~1\Temp\ccspNQUs.s 			page 30


 326:./ros_lib/ros/node_handle.h ****         return current_time;
 327:./ros_lib/ros/node_handle.h ****       }
 328:./ros_lib/ros/node_handle.h **** 
 329:./ros_lib/ros/node_handle.h ****       void setNow( Time & new_now )
 330:./ros_lib/ros/node_handle.h ****       {
 331:./ros_lib/ros/node_handle.h ****         unsigned long ms = hardware_.time();
 332:./ros_lib/ros/node_handle.h ****         sec_offset = new_now.sec - ms/1000 - 1;
 333:./ros_lib/ros/node_handle.h ****         nsec_offset = new_now.nsec - (ms%1000)*1000000UL + 1000000000UL;
 334:./ros_lib/ros/node_handle.h ****         normalizeSecNSec(sec_offset, nsec_offset);
 335:./ros_lib/ros/node_handle.h ****       }
 336:./ros_lib/ros/node_handle.h **** 
 337:./ros_lib/ros/node_handle.h ****       /********************************************************************
 338:./ros_lib/ros/node_handle.h ****        * Topic Management 
 339:./ros_lib/ros/node_handle.h ****        */
 340:./ros_lib/ros/node_handle.h **** 
 341:./ros_lib/ros/node_handle.h ****       /* Register a new publisher */    
 342:./ros_lib/ros/node_handle.h ****       bool advertise(Publisher & p)
 981              		.loc 7 342 0
 982              		.cfi_startproc
 983 0000 80B5     		push	{r7, lr}
 984              		.cfi_def_cfa_offset 8
 985              		.cfi_offset 7, -8
 986              		.cfi_offset 14, -4
 987 0002 84B0     		sub	sp, sp, #16
 988              		.cfi_def_cfa_offset 24
 989 0004 00AF     		add	r7, sp, #0
 990              		.cfi_def_cfa_register 7
 991 0006 7860     		str	r0, [r7, #4]
 992 0008 3960     		str	r1, [r7]
 993              	.LBB12:
 994              	.LBB13:
 343:./ros_lib/ros/node_handle.h ****       {
 344:./ros_lib/ros/node_handle.h ****         for(int i = 0; i < MAX_PUBLISHERS; i++){
 995              		.loc 7 344 0
 996 000a 0023     		mov	r3, #0
 997 000c FB60     		str	r3, [r7, #12]
 998 000e 19E0     		b	.L64
 999              	.L67:
 345:./ros_lib/ros/node_handle.h ****           if(publishers[i] == 0){ // empty slot
 1000              		.loc 7 345 0
 1001 0010 7B68     		ldr	r3, [r7, #4]
 1002 0012 FA68     		ldr	r2, [r7, #12]
 1003 0014 6A32     		add	r2, r2, #106
 1004 0016 9200     		lsl	r2, r2, #2
 1005 0018 D358     		ldr	r3, [r2, r3]
 1006 001a 002B     		cmp	r3, #0
 1007 001c 0FD1     		bne	.L65
 346:./ros_lib/ros/node_handle.h ****             publishers[i] = &p;
 1008              		.loc 7 346 0
 1009 001e 7B68     		ldr	r3, [r7, #4]
 1010 0020 FA68     		ldr	r2, [r7, #12]
 1011 0022 6A32     		add	r2, r2, #106
 1012 0024 9200     		lsl	r2, r2, #2
 1013 0026 3968     		ldr	r1, [r7]
 1014 0028 D150     		str	r1, [r2, r3]
 347:./ros_lib/ros/node_handle.h ****             p.id_ = i+100+MAX_SUBSCRIBERS;
 1015              		.loc 7 347 0
ARM GAS  C:\DOCUME~1\Chuck\LOCALS~1\Temp\ccspNQUs.s 			page 31


 1016 002a FB68     		ldr	r3, [r7, #12]
 1017 002c 1A1C     		mov	r2, r3
 1018 002e 6E32     		add	r2, r2, #110
 1019 0030 3B68     		ldr	r3, [r7]
 1020 0032 9A60     		str	r2, [r3, #8]
 348:./ros_lib/ros/node_handle.h ****             p.nh_ = this;
 1021              		.loc 7 348 0
 1022 0034 7A68     		ldr	r2, [r7, #4]
 1023 0036 3B68     		ldr	r3, [r7]
 1024 0038 DA60     		str	r2, [r3, #12]
 349:./ros_lib/ros/node_handle.h ****             return true;
 1025              		.loc 7 349 0
 1026 003a 0123     		mov	r3, #1
 1027 003c 06E0     		b	.L66
 1028              	.L65:
 344:./ros_lib/ros/node_handle.h ****         for(int i = 0; i < MAX_PUBLISHERS; i++){
 1029              		.loc 7 344 0
 1030 003e FB68     		ldr	r3, [r7, #12]
 1031 0040 0133     		add	r3, r3, #1
 1032 0042 FB60     		str	r3, [r7, #12]
 1033              	.L64:
 344:./ros_lib/ros/node_handle.h ****         for(int i = 0; i < MAX_PUBLISHERS; i++){
 1034              		.loc 7 344 0 is_stmt 0 discriminator 1
 1035 0044 FB68     		ldr	r3, [r7, #12]
 1036 0046 132B     		cmp	r3, #19
 1037 0048 E2DD     		ble	.L67
 1038              	.LBE13:
 350:./ros_lib/ros/node_handle.h ****           }
 351:./ros_lib/ros/node_handle.h ****         }
 352:./ros_lib/ros/node_handle.h ****         return false;
 1039              		.loc 7 352 0 is_stmt 1
 1040 004a 0023     		mov	r3, #0
 1041              	.L66:
 1042              	.LBE12:
 353:./ros_lib/ros/node_handle.h ****       }
 1043              		.loc 7 353 0
 1044 004c 181C     		mov	r0, r3
 1045 004e BD46     		mov	sp, r7
 1046 0050 04B0     		add	sp, sp, #16
 1047              		@ sp needed
 1048 0052 80BD     		pop	{r7, pc}
 1049              		.cfi_endproc
 1050              	.LFE167:
 1051              		.size	_ZN3ros11NodeHandle_I13Psoc4HardwareLi10ELi20ELi200ELi200EE9advertiseERNS_9PublisherE, .-_ZN
 1052              		.section	.text._ZN3ros11NodeHandle_I13Psoc4HardwareLi10ELi20ELi200ELi200EE7loginfoEPKc,"axG",%prog
 1053              		.align	2
 1054              		.weak	_ZN3ros11NodeHandle_I13Psoc4HardwareLi10ELi20ELi200ELi200EE7loginfoEPKc
 1055              		.code	16
 1056              		.thumb_func
 1057              		.type	_ZN3ros11NodeHandle_I13Psoc4HardwareLi10ELi20ELi200ELi200EE7loginfoEPKc, %function
 1058              	_ZN3ros11NodeHandle_I13Psoc4HardwareLi10ELi20ELi200ELi200EE7loginfoEPKc:
 1059              	.LFB168:
 354:./ros_lib/ros/node_handle.h **** 
 355:./ros_lib/ros/node_handle.h ****       /* Register a new subscriber */
 356:./ros_lib/ros/node_handle.h ****       template<typename MsgT>
 357:./ros_lib/ros/node_handle.h ****       bool subscribe(Subscriber< MsgT> & s){
 358:./ros_lib/ros/node_handle.h ****         for(int i = 0; i < MAX_SUBSCRIBERS; i++){
ARM GAS  C:\DOCUME~1\Chuck\LOCALS~1\Temp\ccspNQUs.s 			page 32


 359:./ros_lib/ros/node_handle.h ****           if(subscribers[i] == 0){ // empty slot
 360:./ros_lib/ros/node_handle.h ****             subscribers[i] = (Subscriber_*) &s;
 361:./ros_lib/ros/node_handle.h ****             s.id_ = i+100;
 362:./ros_lib/ros/node_handle.h ****             return true;
 363:./ros_lib/ros/node_handle.h ****           }
 364:./ros_lib/ros/node_handle.h ****         }
 365:./ros_lib/ros/node_handle.h ****         return false;
 366:./ros_lib/ros/node_handle.h ****       }
 367:./ros_lib/ros/node_handle.h **** 
 368:./ros_lib/ros/node_handle.h ****       /* Register a new Service Server */
 369:./ros_lib/ros/node_handle.h ****       template<typename MReq, typename MRes>
 370:./ros_lib/ros/node_handle.h ****       bool advertiseService(ServiceServer<MReq,MRes>& srv){
 371:./ros_lib/ros/node_handle.h ****         bool v = advertise(srv.pub);
 372:./ros_lib/ros/node_handle.h ****         for(int i = 0; i < MAX_SUBSCRIBERS; i++){
 373:./ros_lib/ros/node_handle.h ****           if(subscribers[i] == 0){ // empty slot
 374:./ros_lib/ros/node_handle.h ****             subscribers[i] = (Subscriber_*) &srv;
 375:./ros_lib/ros/node_handle.h ****             srv.id_ = i+100;
 376:./ros_lib/ros/node_handle.h ****             return v;
 377:./ros_lib/ros/node_handle.h ****           }
 378:./ros_lib/ros/node_handle.h ****         }
 379:./ros_lib/ros/node_handle.h ****         return false;
 380:./ros_lib/ros/node_handle.h ****       }
 381:./ros_lib/ros/node_handle.h **** 
 382:./ros_lib/ros/node_handle.h ****       /* Register a new Service Client */
 383:./ros_lib/ros/node_handle.h ****       template<typename MReq, typename MRes>
 384:./ros_lib/ros/node_handle.h ****       bool serviceClient(ServiceClient<MReq, MRes>& srv){
 385:./ros_lib/ros/node_handle.h ****         bool v = advertise(srv.pub);
 386:./ros_lib/ros/node_handle.h ****         for(int i = 0; i < MAX_SUBSCRIBERS; i++){
 387:./ros_lib/ros/node_handle.h ****           if(subscribers[i] == 0){ // empty slot
 388:./ros_lib/ros/node_handle.h ****             subscribers[i] = (Subscriber_*) &srv;
 389:./ros_lib/ros/node_handle.h ****             srv.id_ = i+100;
 390:./ros_lib/ros/node_handle.h ****             return v;
 391:./ros_lib/ros/node_handle.h ****           }
 392:./ros_lib/ros/node_handle.h ****         }
 393:./ros_lib/ros/node_handle.h ****         return false;
 394:./ros_lib/ros/node_handle.h ****       }
 395:./ros_lib/ros/node_handle.h **** 
 396:./ros_lib/ros/node_handle.h ****       void negotiateTopics()
 397:./ros_lib/ros/node_handle.h ****       {
 398:./ros_lib/ros/node_handle.h ****         rosserial_msgs::TopicInfo ti;
 399:./ros_lib/ros/node_handle.h ****         int i;
 400:./ros_lib/ros/node_handle.h ****         for(i = 0; i < MAX_PUBLISHERS; i++)
 401:./ros_lib/ros/node_handle.h ****         {
 402:./ros_lib/ros/node_handle.h ****           if(publishers[i] != 0) // non-empty slot
 403:./ros_lib/ros/node_handle.h ****           {
 404:./ros_lib/ros/node_handle.h ****             ti.topic_id = publishers[i]->id_;
 405:./ros_lib/ros/node_handle.h ****             ti.topic_name = (char *) publishers[i]->topic_;
 406:./ros_lib/ros/node_handle.h ****             ti.message_type = (char *) publishers[i]->msg_->getType();
 407:./ros_lib/ros/node_handle.h ****             ti.md5sum = (char *) publishers[i]->msg_->getMD5();
 408:./ros_lib/ros/node_handle.h ****             ti.buffer_size = OUTPUT_SIZE;
 409:./ros_lib/ros/node_handle.h ****             publish( publishers[i]->getEndpointType(), &ti );
 410:./ros_lib/ros/node_handle.h ****           }
 411:./ros_lib/ros/node_handle.h ****         }
 412:./ros_lib/ros/node_handle.h ****         for(i = 0; i < MAX_SUBSCRIBERS; i++)
 413:./ros_lib/ros/node_handle.h ****         {
 414:./ros_lib/ros/node_handle.h ****           if(subscribers[i] != 0) // non-empty slot
 415:./ros_lib/ros/node_handle.h ****           {
ARM GAS  C:\DOCUME~1\Chuck\LOCALS~1\Temp\ccspNQUs.s 			page 33


 416:./ros_lib/ros/node_handle.h ****             ti.topic_id = subscribers[i]->id_;
 417:./ros_lib/ros/node_handle.h ****             ti.topic_name = (char *) subscribers[i]->topic_;
 418:./ros_lib/ros/node_handle.h ****             ti.message_type = (char *) subscribers[i]->getMsgType();
 419:./ros_lib/ros/node_handle.h ****             ti.md5sum = (char *) subscribers[i]->getMsgMD5();
 420:./ros_lib/ros/node_handle.h ****             ti.buffer_size = INPUT_SIZE;
 421:./ros_lib/ros/node_handle.h ****             publish( subscribers[i]->getEndpointType(), &ti );
 422:./ros_lib/ros/node_handle.h ****           }
 423:./ros_lib/ros/node_handle.h ****         }
 424:./ros_lib/ros/node_handle.h ****         configured_ = true;
 425:./ros_lib/ros/node_handle.h ****       }
 426:./ros_lib/ros/node_handle.h **** 
 427:./ros_lib/ros/node_handle.h ****       virtual int publish(int id, const Msg * msg)
 428:./ros_lib/ros/node_handle.h ****       {
 429:./ros_lib/ros/node_handle.h ****         if(id >= 100 && !configured_) 
 430:./ros_lib/ros/node_handle.h **** 	  return 0;
 431:./ros_lib/ros/node_handle.h **** 
 432:./ros_lib/ros/node_handle.h ****         /* serialize message */
 433:./ros_lib/ros/node_handle.h ****         unsigned int l = msg->serialize(message_out+7);
 434:./ros_lib/ros/node_handle.h **** 
 435:./ros_lib/ros/node_handle.h ****         /* setup the header */
 436:./ros_lib/ros/node_handle.h ****         message_out[0] = 0xff;
 437:./ros_lib/ros/node_handle.h ****         message_out[1] = PROTOCOL_VER;
 438:./ros_lib/ros/node_handle.h ****         message_out[2] = (unsigned char) ((unsigned int)l&255);
 439:./ros_lib/ros/node_handle.h ****         message_out[3] = (unsigned char) ((unsigned int)l>>8);
 440:./ros_lib/ros/node_handle.h **** 	message_out[4] = 255 - ((message_out[2] + message_out[3])%256);
 441:./ros_lib/ros/node_handle.h ****         message_out[5] = (unsigned char) ((int)id&255);
 442:./ros_lib/ros/node_handle.h ****         message_out[6] = (unsigned char) ((int)id>>8);
 443:./ros_lib/ros/node_handle.h **** 
 444:./ros_lib/ros/node_handle.h ****         /* calculate checksum */
 445:./ros_lib/ros/node_handle.h ****         int chk = 0;
 446:./ros_lib/ros/node_handle.h ****         for(int i =5; i<l+7; i++)
 447:./ros_lib/ros/node_handle.h ****           chk += message_out[i];
 448:./ros_lib/ros/node_handle.h ****         l += 7;
 449:./ros_lib/ros/node_handle.h ****         message_out[l++] = 255 - (chk%256);
 450:./ros_lib/ros/node_handle.h **** 
 451:./ros_lib/ros/node_handle.h ****         if( l <= OUTPUT_SIZE ){
 452:./ros_lib/ros/node_handle.h ****           hardware_.write(message_out, l);
 453:./ros_lib/ros/node_handle.h ****           return l;
 454:./ros_lib/ros/node_handle.h ****         }else{
 455:./ros_lib/ros/node_handle.h ****           logerror("Message from device dropped: message larger than buffer.");
 456:./ros_lib/ros/node_handle.h ****           return -1;
 457:./ros_lib/ros/node_handle.h ****         }
 458:./ros_lib/ros/node_handle.h ****       }
 459:./ros_lib/ros/node_handle.h **** 
 460:./ros_lib/ros/node_handle.h ****       /********************************************************************
 461:./ros_lib/ros/node_handle.h ****        * Logging
 462:./ros_lib/ros/node_handle.h ****        */
 463:./ros_lib/ros/node_handle.h **** 
 464:./ros_lib/ros/node_handle.h ****     private:
 465:./ros_lib/ros/node_handle.h ****       void log(char byte, const char * msg){
 466:./ros_lib/ros/node_handle.h ****         rosserial_msgs::Log l;
 467:./ros_lib/ros/node_handle.h ****         l.level= byte;
 468:./ros_lib/ros/node_handle.h ****         l.msg = (char*)msg;
 469:./ros_lib/ros/node_handle.h ****         publish(rosserial_msgs::TopicInfo::ID_LOG, &l);
 470:./ros_lib/ros/node_handle.h ****       }
 471:./ros_lib/ros/node_handle.h **** 
 472:./ros_lib/ros/node_handle.h ****     public:
ARM GAS  C:\DOCUME~1\Chuck\LOCALS~1\Temp\ccspNQUs.s 			page 34


 473:./ros_lib/ros/node_handle.h ****       void logdebug(const char* msg){
 474:./ros_lib/ros/node_handle.h ****         log(rosserial_msgs::Log::ROSDEBUG, msg);
 475:./ros_lib/ros/node_handle.h ****       }
 476:./ros_lib/ros/node_handle.h ****       void loginfo(const char * msg){
 1060              		.loc 7 476 0
 1061              		.cfi_startproc
 1062 0000 80B5     		push	{r7, lr}
 1063              		.cfi_def_cfa_offset 8
 1064              		.cfi_offset 7, -8
 1065              		.cfi_offset 14, -4
 1066 0002 82B0     		sub	sp, sp, #8
 1067              		.cfi_def_cfa_offset 16
 1068 0004 00AF     		add	r7, sp, #0
 1069              		.cfi_def_cfa_register 7
 1070 0006 7860     		str	r0, [r7, #4]
 1071 0008 3960     		str	r1, [r7]
 477:./ros_lib/ros/node_handle.h ****         log(rosserial_msgs::Log::INFO, msg);
 1072              		.loc 7 477 0
 1073 000a 7A68     		ldr	r2, [r7, #4]
 1074 000c 3B68     		ldr	r3, [r7]
 1075 000e 101C     		mov	r0, r2
 1076 0010 0121     		mov	r1, #1
 1077 0012 1A1C     		mov	r2, r3
 1078 0014 FFF7FEFF 		bl	_ZN3ros11NodeHandle_I13Psoc4HardwareLi10ELi20ELi200ELi200EE3logEcPKc
 478:./ros_lib/ros/node_handle.h ****       }
 1079              		.loc 7 478 0
 1080 0018 BD46     		mov	sp, r7
 1081 001a 02B0     		add	sp, sp, #8
 1082              		@ sp needed
 1083 001c 80BD     		pop	{r7, pc}
 1084              		.cfi_endproc
 1085              	.LFE168:
 1086              		.size	_ZN3ros11NodeHandle_I13Psoc4HardwareLi10ELi20ELi200ELi200EE7loginfoEPKc, .-_ZN3ros11NodeHand
 1087 001e C046     		.section	.text._ZN3ros11NodeHandle_I13Psoc4HardwareLi10ELi20ELi200ELi200EE3logEcPKc,"axG",%progbit
 1088              		.align	2
 1089              		.weak	_ZN3ros11NodeHandle_I13Psoc4HardwareLi10ELi20ELi200ELi200EE3logEcPKc
 1090              		.code	16
 1091              		.thumb_func
 1092              		.type	_ZN3ros11NodeHandle_I13Psoc4HardwareLi10ELi20ELi200ELi200EE3logEcPKc, %function
 1093              	_ZN3ros11NodeHandle_I13Psoc4HardwareLi10ELi20ELi200ELi200EE3logEcPKc:
 1094              	.LFB169:
 465:./ros_lib/ros/node_handle.h ****       void log(char byte, const char * msg){
 1095              		.loc 7 465 0
 1096              		.cfi_startproc
 1097 0000 80B5     		push	{r7, lr}
 1098              		.cfi_def_cfa_offset 8
 1099              		.cfi_offset 7, -8
 1100              		.cfi_offset 14, -4
 1101 0002 88B0     		sub	sp, sp, #32
 1102              		.cfi_def_cfa_offset 40
 1103 0004 00AF     		add	r7, sp, #0
 1104              		.cfi_def_cfa_register 7
 1105 0006 F860     		str	r0, [r7, #12]
 1106 0008 7A60     		str	r2, [r7, #4]
 1107 000a 3B1C     		mov	r3, r7
 1108 000c 0B33     		add	r3, r3, #11
 1109 000e 0A1C     		add	r2, r1, #0
ARM GAS  C:\DOCUME~1\Chuck\LOCALS~1\Temp\ccspNQUs.s 			page 35


 1110 0010 1A70     		strb	r2, [r3]
 1111              	.LBB14:
 466:./ros_lib/ros/node_handle.h ****         rosserial_msgs::Log l;
 1112              		.loc 7 466 0
 1113 0012 3B1C     		mov	r3, r7
 1114 0014 1433     		add	r3, r3, #20
 1115 0016 181C     		mov	r0, r3
 1116 0018 FFF7FEFF 		bl	_ZN14rosserial_msgs3LogC1Ev
 467:./ros_lib/ros/node_handle.h ****         l.level= byte;
 1117              		.loc 7 467 0
 1118 001c 3B1C     		mov	r3, r7
 1119 001e 1433     		add	r3, r3, #20
 1120 0020 3A1C     		mov	r2, r7
 1121 0022 0B32     		add	r2, r2, #11
 1122 0024 1278     		ldrb	r2, [r2]
 1123 0026 1A71     		strb	r2, [r3, #4]
 468:./ros_lib/ros/node_handle.h ****         l.msg = (char*)msg;
 1124              		.loc 7 468 0
 1125 0028 3B1C     		mov	r3, r7
 1126 002a 1433     		add	r3, r3, #20
 1127 002c 7A68     		ldr	r2, [r7, #4]
 1128 002e 9A60     		str	r2, [r3, #8]
 469:./ros_lib/ros/node_handle.h ****         publish(rosserial_msgs::TopicInfo::ID_LOG, &l);
 1129              		.loc 7 469 0
 1130 0030 FB68     		ldr	r3, [r7, #12]
 1131 0032 1B68     		ldr	r3, [r3]
 1132 0034 1B68     		ldr	r3, [r3]
 1133 0036 F968     		ldr	r1, [r7, #12]
 1134 0038 3A1C     		mov	r2, r7
 1135 003a 1432     		add	r2, r2, #20
 1136 003c 081C     		mov	r0, r1
 1137 003e 0721     		mov	r1, #7
 1138 0040 9847     		blx	r3
 1139              	.LBE14:
 470:./ros_lib/ros/node_handle.h ****       }
 1140              		.loc 7 470 0
 1141 0042 BD46     		mov	sp, r7
 1142 0044 08B0     		add	sp, sp, #32
 1143              		@ sp needed
 1144 0046 80BD     		pop	{r7, pc}
 1145              		.cfi_endproc
 1146              	.LFE169:
 1147              		.size	_ZN3ros11NodeHandle_I13Psoc4HardwareLi10ELi20ELi200ELi200EE3logEcPKc, .-_ZN3ros11NodeHandle_
 1148              		.weak	_ZTVN8std_msgs4BoolE
 1149              		.section	.rodata._ZTVN8std_msgs4BoolE,"aG",%progbits,_ZTVN8std_msgs4BoolE,comdat
 1150              		.align	3
 1151              		.type	_ZTVN8std_msgs4BoolE, %object
 1152              		.size	_ZTVN8std_msgs4BoolE, 24
 1153              	_ZTVN8std_msgs4BoolE:
 1154 0000 00000000 		.word	0
 1155 0004 00000000 		.word	0
 1156 0008 00000000 		.word	_ZNK8std_msgs4Bool9serializeEPh
 1157 000c 00000000 		.word	_ZN8std_msgs4Bool11deserializeEPh
 1158 0010 00000000 		.word	_ZN8std_msgs4Bool7getTypeEv
 1159 0014 00000000 		.word	_ZN8std_msgs4Bool6getMD5Ev
 1160              		.weak	_ZTVN14rosserial_msgs3LogE
 1161              		.section	.rodata._ZTVN14rosserial_msgs3LogE,"aG",%progbits,_ZTVN14rosserial_msgs3LogE,comdat
ARM GAS  C:\DOCUME~1\Chuck\LOCALS~1\Temp\ccspNQUs.s 			page 36


 1162              		.align	3
 1163              		.type	_ZTVN14rosserial_msgs3LogE, %object
 1164              		.size	_ZTVN14rosserial_msgs3LogE, 24
 1165              	_ZTVN14rosserial_msgs3LogE:
 1166 0000 00000000 		.word	0
 1167 0004 00000000 		.word	0
 1168 0008 00000000 		.word	_ZNK14rosserial_msgs3Log9serializeEPh
 1169 000c 00000000 		.word	_ZN14rosserial_msgs3Log11deserializeEPh
 1170 0010 00000000 		.word	_ZN14rosserial_msgs3Log7getTypeEv
 1171 0014 00000000 		.word	_ZN14rosserial_msgs3Log6getMD5Ev
 1172              		.weak	_ZTVN3ros3MsgE
 1173              		.section	.rodata._ZTVN3ros3MsgE,"aG",%progbits,_ZTVN3ros3MsgE,comdat
 1174              		.align	3
 1175              		.type	_ZTVN3ros3MsgE, %object
 1176              		.size	_ZTVN3ros3MsgE, 24
 1177              	_ZTVN3ros3MsgE:
 1178 0000 00000000 		.word	0
 1179 0004 00000000 		.word	0
 1180 0008 00000000 		.word	__cxa_pure_virtual
 1181 000c 00000000 		.word	__cxa_pure_virtual
 1182 0010 00000000 		.word	__cxa_pure_virtual
 1183 0014 00000000 		.word	__cxa_pure_virtual
 1184              		.section	.rodata
 1185 0087 00       		.align	2
 1186              	.LC28:
 1187 0088 63617073 		.ascii	"capsense\000"
 1187      656E7365 
 1187      00
 1188              		.section	.text._Z41__static_initialization_and_destruction_0ii,"ax",%progbits
 1189              		.align	2
 1190              		.code	16
 1191              		.thumb_func
 1192              		.type	_Z41__static_initialization_and_destruction_0ii, %function
 1193              	_Z41__static_initialization_and_destruction_0ii:
 1194              	.LFB172:
  65:.\ros_lib\examples\capsense_button/capsense_button.cpp **** } // namespace Capsense
 1195              		.loc 6 65 0
 1196              		.cfi_startproc
 1197 0000 80B5     		push	{r7, lr}
 1198              		.cfi_def_cfa_offset 8
 1199              		.cfi_offset 7, -8
 1200              		.cfi_offset 14, -4
 1201 0002 82B0     		sub	sp, sp, #8
 1202              		.cfi_def_cfa_offset 16
 1203 0004 00AF     		add	r7, sp, #0
 1204              		.cfi_def_cfa_register 7
 1205 0006 7860     		str	r0, [r7, #4]
 1206 0008 3960     		str	r1, [r7]
 1207              		.loc 6 65 0
 1208 000a 7B68     		ldr	r3, [r7, #4]
 1209 000c 012B     		cmp	r3, #1
 1210 000e 10D1     		bne	.L70
 1211              		.loc 6 65 0 is_stmt 0 discriminator 1
 1212 0010 3A68     		ldr	r2, [r7]
 1213 0012 094B     		ldr	r3, .L72
 1214 0014 9A42     		cmp	r2, r3
 1215 0016 0CD1     		bne	.L70
ARM GAS  C:\DOCUME~1\Chuck\LOCALS~1\Temp\ccspNQUs.s 			page 37


  18:.\ros_lib\examples\capsense_button/capsense_button.cpp **** std_msgs::Bool pushed_msg;
 1216              		.loc 6 18 0 is_stmt 1
 1217 0018 084B     		ldr	r3, .L72+4
 1218 001a 181C     		mov	r0, r3
 1219 001c FFF7FEFF 		bl	_ZN8std_msgs4BoolC1Ev
  19:.\ros_lib\examples\capsense_button/capsense_button.cpp **** ros::Publisher pub_button("capsense", &pushed_msg);
 1220              		.loc 6 19 0
 1221 0020 0749     		ldr	r1, .L72+8
 1222 0022 084A     		ldr	r2, .L72+12
 1223 0024 054B     		ldr	r3, .L72+4
 1224 0026 081C     		mov	r0, r1
 1225 0028 111C     		mov	r1, r2
 1226 002a 1A1C     		mov	r2, r3
 1227 002c 0023     		mov	r3, #0
 1228 002e FFF7FEFF 		bl	_ZN3ros9PublisherC1EPKcPNS_3MsgEi
 1229              	.L70:
 1230              		.loc 6 65 0
 1231 0032 BD46     		mov	sp, r7
 1232 0034 02B0     		add	sp, sp, #8
 1233              		@ sp needed
 1234 0036 80BD     		pop	{r7, pc}
 1235              	.L73:
 1236              		.align	2
 1237              	.L72:
 1238 0038 FFFF0000 		.word	65535
 1239 003c 00000000 		.word	_ZN8Capsense10pushed_msgE
 1240 0040 00000000 		.word	_ZN8Capsense10pub_buttonE
 1241 0044 88000000 		.word	.LC28
 1242              		.cfi_endproc
 1243              	.LFE172:
 1244              		.size	_Z41__static_initialization_and_destruction_0ii, .-_Z41__static_initialization_and_destructi
 1245              		.section	.rodata
 1246 0091 000000   		.align	2
 1247              		.type	_ZN14rosserial_msgsL12REQUESTPARAME, %object
 1248              		.size	_ZN14rosserial_msgsL12REQUESTPARAME, 28
 1249              	_ZN14rosserial_msgsL12REQUESTPARAME:
 1250 0094 726F7373 		.ascii	"rosserial_msgs/RequestParam\000"
 1250      65726961 
 1250      6C5F6D73 
 1250      67732F52 
 1250      65717565 
 1251              		.section	.text._GLOBAL__sub_I__ZN8Capsense10pushed_msgE,"ax",%progbits
 1252              		.align	2
 1253              		.code	16
 1254              		.thumb_func
 1255              		.type	_GLOBAL__sub_I__ZN8Capsense10pushed_msgE, %function
 1256              	_GLOBAL__sub_I__ZN8Capsense10pushed_msgE:
 1257              	.LFB173:
 1258              		.loc 6 65 0
 1259              		.cfi_startproc
 1260 0000 80B5     		push	{r7, lr}
 1261              		.cfi_def_cfa_offset 8
 1262              		.cfi_offset 7, -8
 1263              		.cfi_offset 14, -4
 1264 0002 00AF     		add	r7, sp, #0
 1265              		.cfi_def_cfa_register 7
 1266              		.loc 6 65 0
ARM GAS  C:\DOCUME~1\Chuck\LOCALS~1\Temp\ccspNQUs.s 			page 38


 1267 0004 034B     		ldr	r3, .L75
 1268 0006 0120     		mov	r0, #1
 1269 0008 191C     		mov	r1, r3
 1270 000a FFF7FEFF 		bl	_Z41__static_initialization_and_destruction_0ii
 1271 000e BD46     		mov	sp, r7
 1272              		@ sp needed
 1273 0010 80BD     		pop	{r7, pc}
 1274              	.L76:
 1275 0012 C046     		.align	2
 1276              	.L75:
 1277 0014 FFFF0000 		.word	65535
 1278              		.cfi_endproc
 1279              	.LFE173:
 1280              		.size	_GLOBAL__sub_I__ZN8Capsense10pushed_msgE, .-_GLOBAL__sub_I__ZN8Capsense10pushed_msgE
 1281              		.section	.init_array,"aw",%init_array
 1282              		.align	2
 1283 0000 00000000 		.word	_GLOBAL__sub_I__ZN8Capsense10pushed_msgE(target1)
 1284              		.text
 1285              	.Letext0:
 1286              		.file 8 "c:\\program files\\cypress\\psoc creator\\3.1\\psoc creator\\import\\gnu_cs\\arm\\4.8.4\\
 1287              		.file 9 "c:\\program files\\cypress\\psoc creator\\3.1\\psoc creator\\import\\gnu_cs\\arm\\4.8.4\\
 1288              		.file 10 "./ros_lib/ros.h"
 1289              		.file 11 "./ros_lib/rosserial_msgs/TopicInfo.h"
 1290              		.file 12 "./ros_lib/Psoc4Hardware.h"
 1291              		.file 13 "./ros_lib/std_msgs/Time.h"
 1292              		.file 14 ".\\ros_lib\\examples\\capsense_button\\capsense_button.h"
 1293              		.file 15 "./ros_lib/rosserial_msgs/RequestParam.h"
 1294              		.file 16 "./ros_lib/Uarts.h"