ARM GAS  C:\DOCUME~1\Chuck\LOCALS~1\Temp\ccp9wtTg.s 			page 1


   1              		.cpu cortex-m0
   2              		.fpu softvfp
   3              		.eabi_attribute 20, 1
   4              		.eabi_attribute 21, 1
   5              		.eabi_attribute 23, 3
   6              		.eabi_attribute 24, 1
   7              		.eabi_attribute 25, 1
   8              		.eabi_attribute 26, 1
   9              		.eabi_attribute 30, 6
  10              		.eabi_attribute 34, 0
  11              		.eabi_attribute 18, 4
  12              		.code	16
  13              		.file	"CapSense.c"
  14              		.text
  15              	.Ltext0:
  16              		.cfi_sections	.debug_frame
  17              		.global	CapSense_lowLevelTuningDone
  18              		.bss
  19              		.type	CapSense_lowLevelTuningDone, %object
  20              		.size	CapSense_lowLevelTuningDone, 1
  21              	CapSense_lowLevelTuningDone:
  22 0000 00       		.space	1
  23              	CapSense_initVar:
  24 0001 00       		.space	1
  25              		.global	CapSense_csdStatusVar
  26              		.type	CapSense_csdStatusVar, %object
  27              		.size	CapSense_csdStatusVar, 1
  28              	CapSense_csdStatusVar:
  29 0002 00       		.space	1
  30              		.global	CapSense_sensorIndex
  31              		.type	CapSense_sensorIndex, %object
  32              		.size	CapSense_sensorIndex, 1
  33              	CapSense_sensorIndex:
  34 0003 00       		.space	1
  35              		.global	CapSense_sensorRaw
  36              		.align	2
  37              		.type	CapSense_sensorRaw, %object
  38              		.size	CapSense_sensorRaw, 2
  39              	CapSense_sensorRaw:
  40 0004 0000     		.space	2
  41              		.comm	CapSense_csdTrim1,1,1
  42              		.comm	CapSense_unscannedSnsDriveMode,1,4
  43              		.comm	CapSense_sensorEnableMaskBackup,1,4
  44              		.global	CapSense_sensorEnableMask
  45 0006 0000     		.data
  46              		.align	2
  47              		.type	CapSense_sensorEnableMask, %object
  48              		.size	CapSense_sensorEnableMask, 1
  49              	CapSense_sensorEnableMask:
  50 0000 01       		.byte	1
  51              		.global	CapSense_pcTable
  52 0001 000000   		.align	2
  53              		.type	CapSense_pcTable, %object
  54              		.size	CapSense_pcTable, 4
  55              	CapSense_pcTable:
  56 0004 08030440 		.word	1074004744
  57              		.global	CapSense_portTable
ARM GAS  C:\DOCUME~1\Chuck\LOCALS~1\Temp\ccp9wtTg.s 			page 2


  58              		.section	.rodata
  59              		.align	2
  60              		.type	CapSense_portTable, %object
  61              		.size	CapSense_portTable, 1
  62              	CapSense_portTable:
  63 0000 03       		.byte	3
  64              		.global	CapSense_maskTable
  65 0001 000000   		.align	2
  66              		.type	CapSense_maskTable, %object
  67              		.size	CapSense_maskTable, 4
  68              	CapSense_maskTable:
  69 0004 02000000 		.word	2
  70              		.global	CapSense_pinShiftTbl
  71              		.align	2
  72              		.type	CapSense_pinShiftTbl, %object
  73              		.size	CapSense_pinShiftTbl, 1
  74              	CapSense_pinShiftTbl:
  75 0008 01       		.byte	1
  76              		.comm	CapSense_modulationIDAC,1,4
  77              		.comm	CapSense_compensationIDAC,1,4
  78              		.global	CapSense_widgetResolution
  79              		.data
  80              		.align	2
  81              		.type	CapSense_widgetResolution, %object
  82              		.size	CapSense_widgetResolution, 4
  83              	CapSense_widgetResolution:
  84 0008 0000FF0F 		.word	268369920
  85              		.comm	CapSense_senseClkDividerVal,1,4
  86              		.comm	CapSense_sampleClkDividerVal,1,4
  87              		.global	CapSense_widgetNumber
  88              		.section	.rodata
  89 0009 000000   		.align	2
  90              		.type	CapSense_widgetNumber, %object
  91              		.size	CapSense_widgetNumber, 1
  92              	CapSense_widgetNumber:
  93 000c 00       		.space	1
  94              		.global	CapSense_prtSelTbl
  95 000d 000000   		.align	2
  96              		.type	CapSense_prtSelTbl, %object
  97              		.size	CapSense_prtSelTbl, 20
  98              	CapSense_prtSelTbl:
  99 0010 00000140 		.word	1073807360
 100 0014 04000140 		.word	1073807364
 101 0018 08000140 		.word	1073807368
 102 001c 0C000140 		.word	1073807372
 103 0020 10000140 		.word	1073807376
 104              		.global	CapSense_prtCfgTbl
 105              		.align	2
 106              		.type	CapSense_prtCfgTbl, %object
 107              		.size	CapSense_prtCfgTbl, 20
 108              	CapSense_prtCfgTbl:
 109 0024 08000440 		.word	1074003976
 110 0028 08010440 		.word	1074004232
 111 002c 08020440 		.word	1074004488
 112 0030 08030440 		.word	1074004744
 113 0034 08040440 		.word	1074005000
 114              		.global	CapSense_prtDRTbl
ARM GAS  C:\DOCUME~1\Chuck\LOCALS~1\Temp\ccp9wtTg.s 			page 3


 115              		.align	2
 116              		.type	CapSense_prtDRTbl, %object
 117              		.size	CapSense_prtDRTbl, 20
 118              	CapSense_prtDRTbl:
 119 0038 00000440 		.word	1074003968
 120 003c 00010440 		.word	1074004224
 121 0040 00020440 		.word	1074004480
 122 0044 00030440 		.word	1074004736
 123 0048 00040440 		.word	1074004992
 124              		.section	.text.CapSense_Init,"ax",%progbits
 125              		.align	2
 126              		.global	CapSense_Init
 127              		.code	16
 128              		.thumb_func
 129              		.type	CapSense_Init, %function
 130              	CapSense_Init:
 131              	.LFB33:
 132              		.file 1 ".\\Generated_Source\\PSoC4\\CapSense.c"
   1:.\Generated_Source\PSoC4/CapSense.c **** /*******************************************************************************
   2:.\Generated_Source\PSoC4/CapSense.c **** * File Name: CapSense.c
   3:.\Generated_Source\PSoC4/CapSense.c **** * Version 2.0
   4:.\Generated_Source\PSoC4/CapSense.c **** *
   5:.\Generated_Source\PSoC4/CapSense.c **** * Description:
   6:.\Generated_Source\PSoC4/CapSense.c **** *  This file provides the source code for scanning APIs for the CapSense CSD 
   7:.\Generated_Source\PSoC4/CapSense.c **** *  component.
   8:.\Generated_Source\PSoC4/CapSense.c **** *
   9:.\Generated_Source\PSoC4/CapSense.c **** * Note:
  10:.\Generated_Source\PSoC4/CapSense.c **** *
  11:.\Generated_Source\PSoC4/CapSense.c **** ********************************************************************************
  12:.\Generated_Source\PSoC4/CapSense.c **** * Copyright 2014, Cypress Semiconductor Corporation.  All rights reserved.
  13:.\Generated_Source\PSoC4/CapSense.c **** * You may use this file only in accordance with the license, terms, conditions,
  14:.\Generated_Source\PSoC4/CapSense.c **** * disclaimers, and limitations in the end user license agreement accompanying
  15:.\Generated_Source\PSoC4/CapSense.c **** * the software package with which this file was provided.
  16:.\Generated_Source\PSoC4/CapSense.c **** *******************************************************************************/
  17:.\Generated_Source\PSoC4/CapSense.c **** 
  18:.\Generated_Source\PSoC4/CapSense.c **** #include "CapSense.h"
  19:.\Generated_Source\PSoC4/CapSense.c **** #include "CapSense_PVT.h"
  20:.\Generated_Source\PSoC4/CapSense.c **** #include "cypins.h"
  21:.\Generated_Source\PSoC4/CapSense.c **** 
  22:.\Generated_Source\PSoC4/CapSense.c **** #if(0u != CapSense_CSHL_API_GENERATE)
  23:.\Generated_Source\PSoC4/CapSense.c **** 	#include "CapSense_CSHL.h"
  24:.\Generated_Source\PSoC4/CapSense.c **** 	extern uint8 CapSense_numberOfSensors[];
  25:.\Generated_Source\PSoC4/CapSense.c **** 	extern uint8 CapSense_rawDataIndex[];
  26:.\Generated_Source\PSoC4/CapSense.c **** #endif /* (0u != CapSense_CSHL_API_GENERATE) */
  27:.\Generated_Source\PSoC4/CapSense.c **** 
  28:.\Generated_Source\PSoC4/CapSense.c **** /* SmartSense functions */
  29:.\Generated_Source\PSoC4/CapSense.c **** #if (CapSense_TUNING_METHOD == CapSense__TUNING_AUTO)
  30:.\Generated_Source\PSoC4/CapSense.c ****     uint8 CapSense_lowLevelTuningDone = 0u;
  31:.\Generated_Source\PSoC4/CapSense.c **** 	extern uint8 scanSpeedTbl[((CapSense_TOTAL_SENSOR_COUNT - 1u) / 8u) + 1u];
  32:.\Generated_Source\PSoC4/CapSense.c **** #endif /* (CapSense_TUNING_METHOD == CapSense__TUNING_AUTO) */
  33:.\Generated_Source\PSoC4/CapSense.c **** 
  34:.\Generated_Source\PSoC4/CapSense.c **** #if(CapSense_PRS_OPTIONS != CapSense__PRS_NONE)
  35:.\Generated_Source\PSoC4/CapSense.c **** 	uint8 CapSense_prescalersTuningDone = 0u;
  36:.\Generated_Source\PSoC4/CapSense.c **** #endif /* (CapSense_PRS_OPTIONS == CapSense__PRS_NONE) */
  37:.\Generated_Source\PSoC4/CapSense.c **** 
  38:.\Generated_Source\PSoC4/CapSense.c **** static uint8 CapSense_initVar = 0u;
  39:.\Generated_Source\PSoC4/CapSense.c ****             
ARM GAS  C:\DOCUME~1\Chuck\LOCALS~1\Temp\ccp9wtTg.s 			page 4


  40:.\Generated_Source\PSoC4/CapSense.c **** /* Global software variables */
  41:.\Generated_Source\PSoC4/CapSense.c **** volatile uint8 CapSense_csdStatusVar = 0u;   /* CapSense CSD status, variable */
  42:.\Generated_Source\PSoC4/CapSense.c **** volatile uint8 CapSense_sensorIndex = 0u;    /* Index of scannig sensor */
  43:.\Generated_Source\PSoC4/CapSense.c **** 
  44:.\Generated_Source\PSoC4/CapSense.c **** /* Global array of Raw Counts */
  45:.\Generated_Source\PSoC4/CapSense.c **** uint16 CapSense_sensorRaw[CapSense_TOTAL_SENSOR_COUNT] = {0u};
  46:.\Generated_Source\PSoC4/CapSense.c **** 
  47:.\Generated_Source\PSoC4/CapSense.c **** /* Backup variables for trim registers*/
  48:.\Generated_Source\PSoC4/CapSense.c **** #if (CapSense_IDAC1_POLARITY == CapSense__IDAC_SINK)
  49:.\Generated_Source\PSoC4/CapSense.c **** 	uint8 CapSense_csdTrim2;   
  50:.\Generated_Source\PSoC4/CapSense.c **** #else
  51:.\Generated_Source\PSoC4/CapSense.c ****     uint8 CapSense_csdTrim1;	
  52:.\Generated_Source\PSoC4/CapSense.c **** #endif /* (CapSense_IDAC1_POLARITY == CapSense__IDAC_SINK) */
  53:.\Generated_Source\PSoC4/CapSense.c **** 
  54:.\Generated_Source\PSoC4/CapSense.c **** /* Global array of un-scanned sensors state */
  55:.\Generated_Source\PSoC4/CapSense.c **** uint8 CapSense_unscannedSnsDriveMode[CapSense_TOTAL_SENSOR_COUNT];
  56:.\Generated_Source\PSoC4/CapSense.c **** 
  57:.\Generated_Source\PSoC4/CapSense.c **** /* Backup array for CapSense_sensorEnableMask */
  58:.\Generated_Source\PSoC4/CapSense.c **** uint8 CapSense_sensorEnableMaskBackup[(((CapSense_TOTAL_SENSOR_COUNT - 1u) / 8u) + 1u)];
  59:.\Generated_Source\PSoC4/CapSense.c **** 
  60:.\Generated_Source\PSoC4/CapSense.c **** /* Configured constants and arrays by Customizer */
  61:.\Generated_Source\PSoC4/CapSense.c **** uint8 CapSense_sensorEnableMask[(((CapSense_TOTAL_SENSOR_COUNT - 1u) / 8u) + 1u)] = {
  62:.\Generated_Source\PSoC4/CapSense.c **** 0x1u, };
  63:.\Generated_Source\PSoC4/CapSense.c **** 
  64:.\Generated_Source\PSoC4/CapSense.c **** reg32 * CapSense_pcTable[] = {
  65:.\Generated_Source\PSoC4/CapSense.c ****     (reg32 *)CapSense_Sns__Button0__BTN__PC, 
  66:.\Generated_Source\PSoC4/CapSense.c **** };
  67:.\Generated_Source\PSoC4/CapSense.c **** 
  68:.\Generated_Source\PSoC4/CapSense.c **** const uint8 CapSense_portTable[] = {
  69:.\Generated_Source\PSoC4/CapSense.c ****     CapSense_Sns__Button0__BTN__PORT, 
  70:.\Generated_Source\PSoC4/CapSense.c **** };
  71:.\Generated_Source\PSoC4/CapSense.c **** 
  72:.\Generated_Source\PSoC4/CapSense.c **** const uint32 CapSense_maskTable[] = {
  73:.\Generated_Source\PSoC4/CapSense.c ****     CapSense_Sns__Button0__BTN__MASK, 
  74:.\Generated_Source\PSoC4/CapSense.c **** };
  75:.\Generated_Source\PSoC4/CapSense.c **** 
  76:.\Generated_Source\PSoC4/CapSense.c **** const uint8 CapSense_pinShiftTbl[] = {
  77:.\Generated_Source\PSoC4/CapSense.c ****     (uint8) CapSense_Sns__Button0__BTN__SHIFT, 
  78:.\Generated_Source\PSoC4/CapSense.c **** };
  79:.\Generated_Source\PSoC4/CapSense.c **** 
  80:.\Generated_Source\PSoC4/CapSense.c **** uint8 CapSense_modulationIDAC[CapSense_TOTAL_SENSOR_COUNT];
  81:.\Generated_Source\PSoC4/CapSense.c **** uint8 CapSense_compensationIDAC[CapSense_TOTAL_SENSOR_COUNT];
  82:.\Generated_Source\PSoC4/CapSense.c **** 
  83:.\Generated_Source\PSoC4/CapSense.c **** uint32 CapSense_widgetResolution[CapSense_RESOLUTIONS_TBL_SIZE] = {
  84:.\Generated_Source\PSoC4/CapSense.c ****     CapSense_RESOLUTION_12_BITS,
  85:.\Generated_Source\PSoC4/CapSense.c **** };
  86:.\Generated_Source\PSoC4/CapSense.c **** 
  87:.\Generated_Source\PSoC4/CapSense.c **** uint8 CapSense_senseClkDividerVal[CapSense_TOTAL_SCANSLOT_COUNT];
  88:.\Generated_Source\PSoC4/CapSense.c **** uint8 CapSense_sampleClkDividerVal[CapSense_TOTAL_SCANSLOT_COUNT];
  89:.\Generated_Source\PSoC4/CapSense.c **** 
  90:.\Generated_Source\PSoC4/CapSense.c **** const uint8 CapSense_widgetNumber[CapSense_TOTAL_SENSOR_COUNT] = {
  91:.\Generated_Source\PSoC4/CapSense.c ****     0u, /* Button0__BTN */
  92:.\Generated_Source\PSoC4/CapSense.c **** };
  93:.\Generated_Source\PSoC4/CapSense.c **** 
  94:.\Generated_Source\PSoC4/CapSense.c **** 
  95:.\Generated_Source\PSoC4/CapSense.c **** 
  96:.\Generated_Source\PSoC4/CapSense.c **** reg32* const CapSense_prtSelTbl[] = {
ARM GAS  C:\DOCUME~1\Chuck\LOCALS~1\Temp\ccp9wtTg.s 			page 5


  97:.\Generated_Source\PSoC4/CapSense.c **** 	((reg32 *) CYREG_HSIOM_PORT_SEL0),
  98:.\Generated_Source\PSoC4/CapSense.c **** 	((reg32 *) CYREG_HSIOM_PORT_SEL1),
  99:.\Generated_Source\PSoC4/CapSense.c **** 	((reg32 *) CYREG_HSIOM_PORT_SEL2),
 100:.\Generated_Source\PSoC4/CapSense.c **** 	((reg32 *) CYREG_HSIOM_PORT_SEL3),
 101:.\Generated_Source\PSoC4/CapSense.c **** #if(0u == CapSense_M0S8CSD_BLOCK_VER)
 102:.\Generated_Source\PSoC4/CapSense.c **** 	((reg32 *) CYREG_HSIOM_PORT_SEL4)	
 103:.\Generated_Source\PSoC4/CapSense.c **** #endif /* (0u == CapSense_M0S8CSD_BLOCK_VER) */
 104:.\Generated_Source\PSoC4/CapSense.c **** };
 105:.\Generated_Source\PSoC4/CapSense.c **** 
 106:.\Generated_Source\PSoC4/CapSense.c **** reg32* const CapSense_prtCfgTbl[] = {
 107:.\Generated_Source\PSoC4/CapSense.c **** 	((reg32 *) CYREG_PRT0_PC),
 108:.\Generated_Source\PSoC4/CapSense.c **** 	((reg32 *) CYREG_PRT1_PC),
 109:.\Generated_Source\PSoC4/CapSense.c **** 	((reg32 *) CYREG_PRT2_PC),
 110:.\Generated_Source\PSoC4/CapSense.c **** 	((reg32 *) CYREG_PRT3_PC),
 111:.\Generated_Source\PSoC4/CapSense.c **** #if(0u == CapSense_M0S8CSD_BLOCK_VER)
 112:.\Generated_Source\PSoC4/CapSense.c **** 	((reg32 *) CYREG_PRT4_PC)	
 113:.\Generated_Source\PSoC4/CapSense.c **** #endif /* (0u == CapSense_M0S8CSD_BLOCK_VER) */	
 114:.\Generated_Source\PSoC4/CapSense.c **** };
 115:.\Generated_Source\PSoC4/CapSense.c **** 
 116:.\Generated_Source\PSoC4/CapSense.c **** reg32* const CapSense_prtDRTbl[] = {
 117:.\Generated_Source\PSoC4/CapSense.c **** 	((reg32 *) CYREG_PRT0_DR),
 118:.\Generated_Source\PSoC4/CapSense.c **** 	((reg32 *) CYREG_PRT1_DR),
 119:.\Generated_Source\PSoC4/CapSense.c **** 	((reg32 *) CYREG_PRT2_DR),
 120:.\Generated_Source\PSoC4/CapSense.c **** 	((reg32 *) CYREG_PRT3_DR),
 121:.\Generated_Source\PSoC4/CapSense.c **** #if(0u == CapSense_M0S8CSD_BLOCK_VER)
 122:.\Generated_Source\PSoC4/CapSense.c **** 	((reg32 *) CYREG_PRT4_DR),
 123:.\Generated_Source\PSoC4/CapSense.c **** #endif /* (0u == CapSense_M0S8CSD_BLOCK_VER) */	
 124:.\Generated_Source\PSoC4/CapSense.c **** };
 125:.\Generated_Source\PSoC4/CapSense.c ****     
 126:.\Generated_Source\PSoC4/CapSense.c **** 
 127:.\Generated_Source\PSoC4/CapSense.c **** /*******************************************************************************
 128:.\Generated_Source\PSoC4/CapSense.c **** * Function Name: CapSense_Init
 129:.\Generated_Source\PSoC4/CapSense.c **** ********************************************************************************
 130:.\Generated_Source\PSoC4/CapSense.c **** *
 131:.\Generated_Source\PSoC4/CapSense.c **** * Summary:
 132:.\Generated_Source\PSoC4/CapSense.c **** *  API initializes default CapSense configuration provided by the customizer that defines 
 133:.\Generated_Source\PSoC4/CapSense.c **** *  the mode of component operations and resets all the sensors to an inactive state.
 134:.\Generated_Source\PSoC4/CapSense.c **** *
 135:.\Generated_Source\PSoC4/CapSense.c **** * Parameters:
 136:.\Generated_Source\PSoC4/CapSense.c **** *  None
 137:.\Generated_Source\PSoC4/CapSense.c **** *
 138:.\Generated_Source\PSoC4/CapSense.c **** * Return:
 139:.\Generated_Source\PSoC4/CapSense.c **** *  None
 140:.\Generated_Source\PSoC4/CapSense.c **** *
 141:.\Generated_Source\PSoC4/CapSense.c **** * Global Variables:
 142:.\Generated_Source\PSoC4/CapSense.c **** *  CapSense_immunityIndex - defines immunity level.
 143:.\Generated_Source\PSoC4/CapSense.c **** *
 144:.\Generated_Source\PSoC4/CapSense.c **** * Side Effects:
 145:.\Generated_Source\PSoC4/CapSense.c **** *  None
 146:.\Generated_Source\PSoC4/CapSense.c **** * 
 147:.\Generated_Source\PSoC4/CapSense.c **** *******************************************************************************/
 148:.\Generated_Source\PSoC4/CapSense.c **** void CapSense_Init(void)
 149:.\Generated_Source\PSoC4/CapSense.c **** {   
 133              		.loc 1 149 0
 134              		.cfi_startproc
 135 0000 80B5     		push	{r7, lr}
 136              		.cfi_def_cfa_offset 8
ARM GAS  C:\DOCUME~1\Chuck\LOCALS~1\Temp\ccp9wtTg.s 			page 6


 137              		.cfi_offset 7, -8
 138              		.cfi_offset 14, -4
 139 0002 82B0     		sub	sp, sp, #8
 140              		.cfi_def_cfa_offset 16
 141 0004 00AF     		add	r7, sp, #0
 142              		.cfi_def_cfa_register 7
 150:.\Generated_Source\PSoC4/CapSense.c **** 	uint32 curSensor;
 151:.\Generated_Source\PSoC4/CapSense.c **** 	
 152:.\Generated_Source\PSoC4/CapSense.c **** 	#if(CapSense_IS_SHIELD_ENABLE)
 153:.\Generated_Source\PSoC4/CapSense.c **** 		
 154:.\Generated_Source\PSoC4/CapSense.c **** 		#if((CapSense_CSH_TANK_PREGARGE_OPTION == CapSense__CAPPRIOBUF) || (0u != CapSense_CSH_TANK_ENABL
 155:.\Generated_Source\PSoC4/CapSense.c **** 			uint32 newRegValue;
 156:.\Generated_Source\PSoC4/CapSense.c **** 			
 157:.\Generated_Source\PSoC4/CapSense.c **** 			newRegValue = CapSense_CTANK_CONNECTION_REG;
 158:.\Generated_Source\PSoC4/CapSense.c **** 	        newRegValue &= ~(CapSense_CSD_CTANK_CONNECTION_MASK);
 159:.\Generated_Source\PSoC4/CapSense.c **** 			newRegValue |= CapSense_CSD_CTANK_TO_AMUXBUS_B;
 160:.\Generated_Source\PSoC4/CapSense.c **** 	        CapSense_CTANK_CONNECTION_REG = newRegValue;
 161:.\Generated_Source\PSoC4/CapSense.c **** 			
 162:.\Generated_Source\PSoC4/CapSense.c **** 			#if(CapSense_CSH_TANK_PREGARGE_OPTION == CapSense__CAPPRIOBUF)
 163:.\Generated_Source\PSoC4/CapSense.c **** 				newRegValue = CapSense_CTANK_PORT_PC_REG;
 164:.\Generated_Source\PSoC4/CapSense.c **** 		        newRegValue &= ~(CapSense_CSD_CTANK_PC_MASK);
 165:.\Generated_Source\PSoC4/CapSense.c **** 				newRegValue |= CapSense_CTANK_PC_STRONG_MODE;
 166:.\Generated_Source\PSoC4/CapSense.c **** 		        CapSense_CTANK_PORT_PC_REG = newRegValue;
 167:.\Generated_Source\PSoC4/CapSense.c **** 				
 168:.\Generated_Source\PSoC4/CapSense.c **** 				newRegValue = CapSense_CTANK_PORT_DR_REG;
 169:.\Generated_Source\PSoC4/CapSense.c **** 		        newRegValue &= ~(CapSense_CTANK_DR_MASK);
 170:.\Generated_Source\PSoC4/CapSense.c **** 				newRegValue |= CapSense_CTANK_DR_CONFIG;
 171:.\Generated_Source\PSoC4/CapSense.c **** 		        CapSense_CTANK_PORT_DR_REG = newRegValue;
 172:.\Generated_Source\PSoC4/CapSense.c **** 			#endif /* (CapSense_CSH_TANK_PREGARGE_OPTION == CapSense__CAPPRIOBUF) */
 173:.\Generated_Source\PSoC4/CapSense.c **** 	        
 174:.\Generated_Source\PSoC4/CapSense.c **** 		#endif /* ((CapSense_CSH_TANK_PREGARGE_OPTION == CapSense__CAPPRIOBUF) || (CapSense_CSH_TANK_ENAB
 175:.\Generated_Source\PSoC4/CapSense.c **** 		
 176:.\Generated_Source\PSoC4/CapSense.c **** 		CapSense_EnableShieldElectrode((uint32)CapSense_SHIELD_PIN_NUMBER, (uint32)CapSense_SHIELD_PORT_N
 177:.\Generated_Source\PSoC4/CapSense.c **** 		
 178:.\Generated_Source\PSoC4/CapSense.c **** 	#endif /* (CapSense_IS_SHIELD_ENABLE) */
 179:.\Generated_Source\PSoC4/CapSense.c **** 	
 180:.\Generated_Source\PSoC4/CapSense.c **** 	for(curSensor = 0u; curSensor < CapSense_TOTAL_SENSOR_COUNT; curSensor++)
 143              		.loc 1 180 0
 144 0006 0023     		mov	r3, #0
 145 0008 7B60     		str	r3, [r7, #4]
 146 000a 07E0     		b	.L2
 147              	.L3:
 181:.\Generated_Source\PSoC4/CapSense.c **** 	{
 182:.\Generated_Source\PSoC4/CapSense.c **** 		CapSense_unscannedSnsDriveMode[curSensor] = CapSense_CONNECT_INACTIVE_SNS;
 148              		.loc 1 182 0 discriminator 2
 149 000c 0A4A     		ldr	r2, .L4
 150 000e 7B68     		ldr	r3, [r7, #4]
 151 0010 D318     		add	r3, r2, r3
 152 0012 0022     		mov	r2, #0
 153 0014 1A70     		strb	r2, [r3]
 180:.\Generated_Source\PSoC4/CapSense.c **** 	for(curSensor = 0u; curSensor < CapSense_TOTAL_SENSOR_COUNT; curSensor++)
 154              		.loc 1 180 0 discriminator 2
 155 0016 7B68     		ldr	r3, [r7, #4]
 156 0018 0133     		add	r3, r3, #1
 157 001a 7B60     		str	r3, [r7, #4]
 158              	.L2:
 180:.\Generated_Source\PSoC4/CapSense.c **** 	for(curSensor = 0u; curSensor < CapSense_TOTAL_SENSOR_COUNT; curSensor++)
ARM GAS  C:\DOCUME~1\Chuck\LOCALS~1\Temp\ccp9wtTg.s 			page 7


 159              		.loc 1 180 0 is_stmt 0 discriminator 1
 160 001c 7B68     		ldr	r3, [r7, #4]
 161 001e 002B     		cmp	r3, #0
 162 0020 F4D0     		beq	.L3
 183:.\Generated_Source\PSoC4/CapSense.c **** 	}
 184:.\Generated_Source\PSoC4/CapSense.c ****     
 185:.\Generated_Source\PSoC4/CapSense.c **** 	CapSense_CsdHwBlockInit();
 163              		.loc 1 185 0 is_stmt 1
 164 0022 FFF7FEFF 		bl	CapSense_CsdHwBlockInit
 186:.\Generated_Source\PSoC4/CapSense.c ****     CapSense_SetShieldDelay(CapSense_SHIELD_DELAY );
 165              		.loc 1 186 0
 166 0026 0020     		mov	r0, #0
 167 0028 FFF7FEFF 		bl	CapSense_SetShieldDelay
 187:.\Generated_Source\PSoC4/CapSense.c **** 	
 188:.\Generated_Source\PSoC4/CapSense.c **** 	/* Clear all sensors */
 189:.\Generated_Source\PSoC4/CapSense.c ****     CapSense_ClearSensors();
 168              		.loc 1 189 0
 169 002c FFF7FEFF 		bl	CapSense_ClearSensors
 190:.\Generated_Source\PSoC4/CapSense.c **** }
 170              		.loc 1 190 0
 171 0030 BD46     		mov	sp, r7
 172 0032 02B0     		add	sp, sp, #8
 173              		@ sp needed
 174 0034 80BD     		pop	{r7, pc}
 175              	.L5:
 176 0036 C046     		.align	2
 177              	.L4:
 178 0038 00000000 		.word	CapSense_unscannedSnsDriveMode
 179              		.cfi_endproc
 180              	.LFE33:
 181              		.size	CapSense_Init, .-CapSense_Init
 182              		.section	.text.CapSense_CsdHwBlockInit,"ax",%progbits
 183              		.align	2
 184              		.global	CapSense_CsdHwBlockInit
 185              		.code	16
 186              		.thumb_func
 187              		.type	CapSense_CsdHwBlockInit, %function
 188              	CapSense_CsdHwBlockInit:
 189              	.LFB34:
 191:.\Generated_Source\PSoC4/CapSense.c **** 
 192:.\Generated_Source\PSoC4/CapSense.c **** /*******************************************************************************
 193:.\Generated_Source\PSoC4/CapSense.c **** * Function Name: CapSense_CsdHwBlockInit
 194:.\Generated_Source\PSoC4/CapSense.c **** ********************************************************************************
 195:.\Generated_Source\PSoC4/CapSense.c **** *
 196:.\Generated_Source\PSoC4/CapSense.c **** * Summary:
 197:.\Generated_Source\PSoC4/CapSense.c **** *  Initialises the hardware parameters of the CSD block 
 198:.\Generated_Source\PSoC4/CapSense.c **** *
 199:.\Generated_Source\PSoC4/CapSense.c **** * Parameters:
 200:.\Generated_Source\PSoC4/CapSense.c **** *  None
 201:.\Generated_Source\PSoC4/CapSense.c **** *
 202:.\Generated_Source\PSoC4/CapSense.c **** * Return:
 203:.\Generated_Source\PSoC4/CapSense.c **** *  None
 204:.\Generated_Source\PSoC4/CapSense.c **** *
 205:.\Generated_Source\PSoC4/CapSense.c **** * Global Variables:
 206:.\Generated_Source\PSoC4/CapSense.c **** *  CapSense_csdTrim1 - Contains IDAC trim register value for Sourcing Mode.
 207:.\Generated_Source\PSoC4/CapSense.c **** *  CapSense_csdTrim2 - Contains IDAC trim register value for Sinking Mode.
 208:.\Generated_Source\PSoC4/CapSense.c **** *
ARM GAS  C:\DOCUME~1\Chuck\LOCALS~1\Temp\ccp9wtTg.s 			page 8


 209:.\Generated_Source\PSoC4/CapSense.c **** * Side Effects:
 210:.\Generated_Source\PSoC4/CapSense.c **** *  None
 211:.\Generated_Source\PSoC4/CapSense.c **** * 
 212:.\Generated_Source\PSoC4/CapSense.c **** *******************************************************************************/
 213:.\Generated_Source\PSoC4/CapSense.c **** void CapSense_CsdHwBlockInit(void)
 214:.\Generated_Source\PSoC4/CapSense.c **** {
 190              		.loc 1 214 0
 191              		.cfi_startproc
 192 0000 80B5     		push	{r7, lr}
 193              		.cfi_def_cfa_offset 8
 194              		.cfi_offset 7, -8
 195              		.cfi_offset 14, -4
 196 0002 82B0     		sub	sp, sp, #8
 197              		.cfi_def_cfa_offset 16
 198 0004 00AF     		add	r7, sp, #0
 199              		.cfi_def_cfa_register 7
 215:.\Generated_Source\PSoC4/CapSense.c **** 	uint32 newRegValue;
 216:.\Generated_Source\PSoC4/CapSense.c **** 	
 217:.\Generated_Source\PSoC4/CapSense.c **** 	    /* Set trim registers for CSD Mode */ 
 218:.\Generated_Source\PSoC4/CapSense.c ****     #if (CapSense_IDAC1_POLARITY == CapSense__IDAC_SINK)
 219:.\Generated_Source\PSoC4/CapSense.c **** 		/* iDAC1 Sinking Mode */ 
 220:.\Generated_Source\PSoC4/CapSense.c **** 		CapSense_csdTrim2 = (uint8)CapSense_CSD_TRIM2_REG;
 221:.\Generated_Source\PSoC4/CapSense.c **** 		newRegValue = CapSense_csdTrim2;
 222:.\Generated_Source\PSoC4/CapSense.c **** 		newRegValue &= CapSense_CSD_IDAC1_TRIM_MASK;
 223:.\Generated_Source\PSoC4/CapSense.c **** 		newRegValue |= (uint32)((uint32)CapSense_SFLASH_CSD_TRIM2_REG & (uint32)CapSense_CSFLASH_TRIM_IDA
 224:.\Generated_Source\PSoC4/CapSense.c **** 		
 225:.\Generated_Source\PSoC4/CapSense.c **** 		#if (CapSense_IDAC_CNT == 2u)
 226:.\Generated_Source\PSoC4/CapSense.c **** 		    /* iDAC2 Sinking Mode */ 
 227:.\Generated_Source\PSoC4/CapSense.c **** 			newRegValue &= CapSense_CSD_IDAC2_TRIM_MASK;
 228:.\Generated_Source\PSoC4/CapSense.c **** 			newRegValue |= (uint32)((uint32)CapSense_SFLASH_CSD_TRIM2_REG & (uint32)CapSense_CSFLASH_TRIM_ID
 229:.\Generated_Source\PSoC4/CapSense.c **** 		#endif /* (CapSense_IDAC_CNT == 2u) */
 230:.\Generated_Source\PSoC4/CapSense.c **** 		CapSense_CSD_TRIM2_REG = newRegValue;
 231:.\Generated_Source\PSoC4/CapSense.c ****     #else   
 232:.\Generated_Source\PSoC4/CapSense.c **** 		/* iDAC1 Sourcing Mode */ 
 233:.\Generated_Source\PSoC4/CapSense.c **** 		CapSense_csdTrim1 = (uint8)CapSense_CSD_TRIM1_REG;
 200              		.loc 1 233 0
 201 0006 244B     		ldr	r3, .L7
 202 0008 1B68     		ldr	r3, [r3]
 203 000a DAB2     		uxtb	r2, r3
 204 000c 234B     		ldr	r3, .L7+4
 205 000e 1A70     		strb	r2, [r3]
 234:.\Generated_Source\PSoC4/CapSense.c **** 		newRegValue = CapSense_csdTrim1;
 206              		.loc 1 234 0
 207 0010 224B     		ldr	r3, .L7+4
 208 0012 1B78     		ldrb	r3, [r3]
 209 0014 7B60     		str	r3, [r7, #4]
 235:.\Generated_Source\PSoC4/CapSense.c **** 		newRegValue &= CapSense_CSD_IDAC1_TRIM_MASK;
 210              		.loc 1 235 0
 211 0016 7B68     		ldr	r3, [r7, #4]
 212 0018 0F22     		mov	r2, #15
 213 001a 9343     		bic	r3, r2
 214 001c 7B60     		str	r3, [r7, #4]
 236:.\Generated_Source\PSoC4/CapSense.c **** 		newRegValue |= (uint32)((uint32)CapSense_SFLASH_CSD_TRIM1_REG & (uint32)CapSense_CSFLASH_TRIM_IDA
 215              		.loc 1 236 0
 216 001e 204B     		ldr	r3, .L7+8
 217 0020 1B78     		ldrb	r3, [r3]
 218 0022 DBB2     		uxtb	r3, r3
ARM GAS  C:\DOCUME~1\Chuck\LOCALS~1\Temp\ccp9wtTg.s 			page 9


 219 0024 1A1C     		mov	r2, r3
 220 0026 0F23     		mov	r3, #15
 221 0028 1340     		and	r3, r2
 222 002a 7A68     		ldr	r2, [r7, #4]
 223 002c 1343     		orr	r3, r2
 224 002e 7B60     		str	r3, [r7, #4]
 237:.\Generated_Source\PSoC4/CapSense.c **** 		#if (CapSense_IDAC_CNT == 2u)
 238:.\Generated_Source\PSoC4/CapSense.c **** 		     /* iDAC2 Sourcing Mode */ 
 239:.\Generated_Source\PSoC4/CapSense.c **** 			newRegValue &= CapSense_CSD_IDAC2_TRIM_MASK;
 225              		.loc 1 239 0
 226 0030 7B68     		ldr	r3, [r7, #4]
 227 0032 F022     		mov	r2, #240
 228 0034 9343     		bic	r3, r2
 229 0036 7B60     		str	r3, [r7, #4]
 240:.\Generated_Source\PSoC4/CapSense.c **** 			newRegValue |= (uint32)((uint32)CapSense_SFLASH_CSD_TRIM1_REG & (uint32)CapSense_CSFLASH_TRIM_ID
 230              		.loc 1 240 0
 231 0038 194B     		ldr	r3, .L7+8
 232 003a 1B78     		ldrb	r3, [r3]
 233 003c DBB2     		uxtb	r3, r3
 234 003e 1A1C     		mov	r2, r3
 235 0040 F023     		mov	r3, #240
 236 0042 1340     		and	r3, r2
 237 0044 7A68     		ldr	r2, [r7, #4]
 238 0046 1343     		orr	r3, r2
 239 0048 7B60     		str	r3, [r7, #4]
 241:.\Generated_Source\PSoC4/CapSense.c **** 		#endif		
 242:.\Generated_Source\PSoC4/CapSense.c **** 		CapSense_CSD_TRIM1_REG = newRegValue;
 240              		.loc 1 242 0
 241 004a 134B     		ldr	r3, .L7
 242 004c 7A68     		ldr	r2, [r7, #4]
 243 004e 1A60     		str	r2, [r3]
 243:.\Generated_Source\PSoC4/CapSense.c ****     #endif /* (CapSense_IDAC1_POLARITY == CapSense__IDAC_SINK) */
 244:.\Generated_Source\PSoC4/CapSense.c **** 	
 245:.\Generated_Source\PSoC4/CapSense.c **** 	/* Configure CSD and IDAC */
 246:.\Generated_Source\PSoC4/CapSense.c **** 	#if (CapSense_IDAC_CNT > 1u)
 247:.\Generated_Source\PSoC4/CapSense.c **** 		CapSense_CSD_IDAC_REG = CapSense_DEFAULT_CSD_IDAC_CONFIG;
 244              		.loc 1 247 0
 245 0050 144B     		ldr	r3, .L7+12
 246 0052 154A     		ldr	r2, .L7+16
 247 0054 1A60     		str	r2, [r3]
 248:.\Generated_Source\PSoC4/CapSense.c **** 		CapSense_CSD_CFG_REG = CapSense_DEFAULT_CSD_CONFIG;
 248              		.loc 1 248 0
 249 0056 154B     		ldr	r3, .L7+20
 250 0058 154A     		ldr	r2, .L7+24
 251 005a 1A60     		str	r2, [r3]
 249:.\Generated_Source\PSoC4/CapSense.c **** 	#else
 250:.\Generated_Source\PSoC4/CapSense.c **** 		CapSense_CSD_IDAC_REG &= ~(CapSense_CSD_IDAC1_MODE_MASK  | CapSense_CSD_IDAC1_DATA_MASK);
 251:.\Generated_Source\PSoC4/CapSense.c **** 		CapSense_CSD_IDAC_REG |= CapSense_DEFAULT_CSD_IDAC_CONFIG;
 252:.\Generated_Source\PSoC4/CapSense.c **** 		
 253:.\Generated_Source\PSoC4/CapSense.c **** 		CapSense_CSD_CFG_REG &= ~(CapSense_CSD_CONFIG_MASK);
 254:.\Generated_Source\PSoC4/CapSense.c **** 		CapSense_CSD_CFG_REG |= (CapSense_DEFAULT_CSD_CONFIG);
 255:.\Generated_Source\PSoC4/CapSense.c **** 	#endif /* (CapSense_IDAC_CNT > 1u) */
 256:.\Generated_Source\PSoC4/CapSense.c **** 	
 257:.\Generated_Source\PSoC4/CapSense.c **** 	
 258:.\Generated_Source\PSoC4/CapSense.c **** 	/* Connect Cmod to AMUX bus */ 
 259:.\Generated_Source\PSoC4/CapSense.c **** 	newRegValue = CapSense_CMOD_CONNECTION_REG; 
 252              		.loc 1 259 0
ARM GAS  C:\DOCUME~1\Chuck\LOCALS~1\Temp\ccp9wtTg.s 			page 10


 253 005c 154B     		ldr	r3, .L7+28
 254 005e 1B68     		ldr	r3, [r3]
 255 0060 7B60     		str	r3, [r7, #4]
 260:.\Generated_Source\PSoC4/CapSense.c ****     newRegValue &= ~(CapSense_CSD_CMOD_CONNECTION_MASK);
 256              		.loc 1 260 0
 257 0062 7A68     		ldr	r2, [r7, #4]
 258 0064 144B     		ldr	r3, .L7+32
 259 0066 1340     		and	r3, r2
 260 0068 7B60     		str	r3, [r7, #4]
 261:.\Generated_Source\PSoC4/CapSense.c ****     newRegValue |= CapSense_CSD_CMOD_TO_AMUXBUS_A;
 261              		.loc 1 261 0
 262 006a 7B68     		ldr	r3, [r7, #4]
 263 006c C022     		mov	r2, #192
 264 006e D200     		lsl	r2, r2, #3
 265 0070 1343     		orr	r3, r2
 266 0072 7B60     		str	r3, [r7, #4]
 262:.\Generated_Source\PSoC4/CapSense.c ****     CapSense_CMOD_CONNECTION_REG = newRegValue;
 267              		.loc 1 262 0
 268 0074 0F4B     		ldr	r3, .L7+28
 269 0076 7A68     		ldr	r2, [r7, #4]
 270 0078 1A60     		str	r2, [r3]
 263:.\Generated_Source\PSoC4/CapSense.c **** 	
 264:.\Generated_Source\PSoC4/CapSense.c **** 	/* Configure Dead Band PWM if it is enabled */
 265:.\Generated_Source\PSoC4/CapSense.c **** 	#if(CapSense_CSD_4B_PWM_MODE != CapSense__PWM_OFF)
 266:.\Generated_Source\PSoC4/CapSense.c **** 		CapSense_CSD_4B_PWM_REG = CapSense_DEFAULT_CSD_4B_PWM_CONFIG;
 267:.\Generated_Source\PSoC4/CapSense.c **** 	#endif /* (CapSense_CSD_4B_PWM_MODE != CapSense__PWM_OFF) */
 268:.\Generated_Source\PSoC4/CapSense.c **** 
 269:.\Generated_Source\PSoC4/CapSense.c **** 	/* Setup ISR */
 270:.\Generated_Source\PSoC4/CapSense.c **** 	CyIntDisable(CapSense_ISR_NUMBER);
 271              		.loc 1 270 0
 272 007a 0F20     		mov	r0, #15
 273 007c FFF7FEFF 		bl	CyIntDisable
 271:.\Generated_Source\PSoC4/CapSense.c **** 	#if !defined(CY_EXTERNAL_INTERRUPT_CONFIG)		
 272:.\Generated_Source\PSoC4/CapSense.c **** 	    (void)CyIntSetVector(CapSense_ISR_NUMBER, &CapSense_ISR);
 274              		.loc 1 272 0
 275 0080 0E4B     		ldr	r3, .L7+36
 276 0082 0F20     		mov	r0, #15
 277 0084 191C     		mov	r1, r3
 278 0086 FFF7FEFF 		bl	CyIntSetVector
 273:.\Generated_Source\PSoC4/CapSense.c **** 	    CyIntSetPriority(CapSense_ISR_NUMBER, CapSense_ISR_PRIORITY);
 279              		.loc 1 273 0
 280 008a 0F20     		mov	r0, #15
 281 008c 0321     		mov	r1, #3
 282 008e FFF7FEFF 		bl	CyIntSetPriority
 274:.\Generated_Source\PSoC4/CapSense.c **** 	#endif /* (CY_EXTERNAL_INTERRUPT_CONFIG) */
 275:.\Generated_Source\PSoC4/CapSense.c **** }
 283              		.loc 1 275 0
 284 0092 BD46     		mov	sp, r7
 285 0094 02B0     		add	sp, sp, #8
 286              		@ sp needed
 287 0096 80BD     		pop	{r7, pc}
 288              	.L8:
 289              		.align	2
 290              	.L7:
 291 0098 00FF0840 		.word	1074331392
 292 009c 00000000 		.word	CapSense_csdTrim1
 293 00a0 62F1FF0F 		.word	268431714
ARM GAS  C:\DOCUME~1\Chuck\LOCALS~1\Temp\ccp9wtTg.s 			page 11


 294 00a4 08000840 		.word	1074266120
 295 00a8 00020001 		.word	16777728
 296 00ac 04000840 		.word	1074266116
 297 00b0 0008A001 		.word	27265024
 298 00b4 10000140 		.word	1073807376
 299 00b8 FFF0FFFF 		.word	-3841
 300 00bc 00000000 		.word	CapSense_ISR
 301              		.cfi_endproc
 302              	.LFE34:
 303              		.size	CapSense_CsdHwBlockInit, .-CapSense_CsdHwBlockInit
 304              		.section	.text.CapSense_Enable,"ax",%progbits
 305              		.align	2
 306              		.global	CapSense_Enable
 307              		.code	16
 308              		.thumb_func
 309              		.type	CapSense_Enable, %function
 310              	CapSense_Enable:
 311              	.LFB35:
 276:.\Generated_Source\PSoC4/CapSense.c **** 
 277:.\Generated_Source\PSoC4/CapSense.c **** 
 278:.\Generated_Source\PSoC4/CapSense.c **** /*******************************************************************************
 279:.\Generated_Source\PSoC4/CapSense.c **** * Function Name: CapSense_Enable
 280:.\Generated_Source\PSoC4/CapSense.c **** ********************************************************************************
 281:.\Generated_Source\PSoC4/CapSense.c **** *
 282:.\Generated_Source\PSoC4/CapSense.c **** * Summary:
 283:.\Generated_Source\PSoC4/CapSense.c **** *  Enables the CSD block and related resources to an active mode.
 284:.\Generated_Source\PSoC4/CapSense.c **** *
 285:.\Generated_Source\PSoC4/CapSense.c **** * Parameters:
 286:.\Generated_Source\PSoC4/CapSense.c **** *  None
 287:.\Generated_Source\PSoC4/CapSense.c **** *
 288:.\Generated_Source\PSoC4/CapSense.c **** * Return:
 289:.\Generated_Source\PSoC4/CapSense.c **** *  None
 290:.\Generated_Source\PSoC4/CapSense.c **** *
 291:.\Generated_Source\PSoC4/CapSense.c **** * Global Variables:
 292:.\Generated_Source\PSoC4/CapSense.c **** *  None.
 293:.\Generated_Source\PSoC4/CapSense.c **** *
 294:.\Generated_Source\PSoC4/CapSense.c **** * Side Effects:
 295:.\Generated_Source\PSoC4/CapSense.c **** *  None
 296:.\Generated_Source\PSoC4/CapSense.c **** * 
 297:.\Generated_Source\PSoC4/CapSense.c **** *******************************************************************************/
 298:.\Generated_Source\PSoC4/CapSense.c **** void CapSense_Enable(void)
 299:.\Generated_Source\PSoC4/CapSense.c **** {
 312              		.loc 1 299 0
 313              		.cfi_startproc
 314 0000 80B5     		push	{r7, lr}
 315              		.cfi_def_cfa_offset 8
 316              		.cfi_offset 7, -8
 317              		.cfi_offset 14, -4
 318 0002 82B0     		sub	sp, sp, #8
 319              		.cfi_def_cfa_offset 16
 320 0004 00AF     		add	r7, sp, #0
 321              		.cfi_def_cfa_register 7
 300:.\Generated_Source\PSoC4/CapSense.c ****     uint32 newRegValue;
 301:.\Generated_Source\PSoC4/CapSense.c ****     
 302:.\Generated_Source\PSoC4/CapSense.c ****     /* Enable Clocks */
 303:.\Generated_Source\PSoC4/CapSense.c **** 	CapSense_SenseClk_Stop();
 322              		.loc 1 303 0
ARM GAS  C:\DOCUME~1\Chuck\LOCALS~1\Temp\ccp9wtTg.s 			page 12


 323 0006 FFF7FEFF 		bl	CapSense_SenseClk_Stop
 304:.\Generated_Source\PSoC4/CapSense.c **** 	CapSense_SampleClk_Stop();
 324              		.loc 1 304 0
 325 000a FFF7FEFF 		bl	CapSense_SampleClk_Stop
 305:.\Generated_Source\PSoC4/CapSense.c **** 	
 306:.\Generated_Source\PSoC4/CapSense.c **** 	CapSense_SampleClk_SetDividerValue((uint16)CapSense_INITIAL_CLK_DIVIDER);
 326              		.loc 1 306 0
 327 000e 0020     		mov	r0, #0
 328 0010 0021     		mov	r1, #0
 329 0012 FFF7FEFF 		bl	CapSense_SampleClk_SetFractionalDividerRegister
 307:.\Generated_Source\PSoC4/CapSense.c **** 	CapSense_SenseClk_SetDividerValue((uint16)CapSense_INITIAL_CLK_DIVIDER);
 330              		.loc 1 307 0
 331 0016 0020     		mov	r0, #0
 332 0018 0021     		mov	r1, #0
 333 001a FFF7FEFF 		bl	CapSense_SenseClk_SetFractionalDividerRegister
 308:.\Generated_Source\PSoC4/CapSense.c **** 	
 309:.\Generated_Source\PSoC4/CapSense.c **** 	#if (0u == CapSense_IS_M0S8PERI_BLOCK)
 310:.\Generated_Source\PSoC4/CapSense.c **** 		CapSense_SenseClk_Start();
 334              		.loc 1 310 0
 335 001e FFF7FEFF 		bl	CapSense_SenseClk_Start
 311:.\Generated_Source\PSoC4/CapSense.c **** 		CapSense_SampleClk_Start();
 336              		.loc 1 311 0
 337 0022 FFF7FEFF 		bl	CapSense_SampleClk_Start
 312:.\Generated_Source\PSoC4/CapSense.c **** 	#else
 313:.\Generated_Source\PSoC4/CapSense.c **** 		CapSense_SampleClk_Start();
 314:.\Generated_Source\PSoC4/CapSense.c **** 		CapSense_SenseClk_StartEx(CapSense_SampleClk__DIV_ID);
 315:.\Generated_Source\PSoC4/CapSense.c **** 	#endif /* (0u == CapSense_IS_M0S8PERI_BLOCK) */
 316:.\Generated_Source\PSoC4/CapSense.c **** 	
 317:.\Generated_Source\PSoC4/CapSense.c **** 	/* Enable the CSD block */
 318:.\Generated_Source\PSoC4/CapSense.c ****     newRegValue = CapSense_CSD_CFG_REG;
 338              		.loc 1 318 0
 339 0026 084B     		ldr	r3, .L10
 340 0028 1B68     		ldr	r3, [r3]
 341 002a 7B60     		str	r3, [r7, #4]
 319:.\Generated_Source\PSoC4/CapSense.c ****     newRegValue |= (CapSense_CSD_CFG_ENABLE | CapSense_CSD_CFG_SENSE_COMP_EN 
 342              		.loc 1 319 0
 343 002c 7B68     		ldr	r3, [r7, #4]
 344 002e 074A     		ldr	r2, .L10+4
 345 0030 1343     		orr	r3, r2
 346 0032 7B60     		str	r3, [r7, #4]
 320:.\Generated_Source\PSoC4/CapSense.c ****                                                    | CapSense_CSD_CFG_SENSE_EN);    
 321:.\Generated_Source\PSoC4/CapSense.c ****     CapSense_CSD_CFG_REG = newRegValue;
 347              		.loc 1 321 0
 348 0034 044B     		ldr	r3, .L10
 349 0036 7A68     		ldr	r2, [r7, #4]
 350 0038 1A60     		str	r2, [r3]
 322:.\Generated_Source\PSoC4/CapSense.c **** 
 323:.\Generated_Source\PSoC4/CapSense.c ****     /* Enable interrupt */
 324:.\Generated_Source\PSoC4/CapSense.c ****     CyIntEnable(CapSense_ISR_NUMBER);
 351              		.loc 1 324 0
 352 003a 0F20     		mov	r0, #15
 353 003c FFF7FEFF 		bl	CyIntEnable
 325:.\Generated_Source\PSoC4/CapSense.c **** }
 354              		.loc 1 325 0
 355 0040 BD46     		mov	sp, r7
 356 0042 02B0     		add	sp, sp, #8
 357              		@ sp needed
ARM GAS  C:\DOCUME~1\Chuck\LOCALS~1\Temp\ccp9wtTg.s 			page 13


 358 0044 80BD     		pop	{r7, pc}
 359              	.L11:
 360 0046 C046     		.align	2
 361              	.L10:
 362 0048 04000840 		.word	1074266116
 363 004c 00100880 		.word	-2146955264
 364              		.cfi_endproc
 365              	.LFE35:
 366              		.size	CapSense_Enable, .-CapSense_Enable
 367              		.section	.text.CapSense_Start,"ax",%progbits
 368              		.align	2
 369              		.global	CapSense_Start
 370              		.code	16
 371              		.thumb_func
 372              		.type	CapSense_Start, %function
 373              	CapSense_Start:
 374              	.LFB36:
 326:.\Generated_Source\PSoC4/CapSense.c **** 
 327:.\Generated_Source\PSoC4/CapSense.c **** 
 328:.\Generated_Source\PSoC4/CapSense.c **** /*******************************************************************************
 329:.\Generated_Source\PSoC4/CapSense.c **** * Function Name: CapSense_Start
 330:.\Generated_Source\PSoC4/CapSense.c **** ********************************************************************************
 331:.\Generated_Source\PSoC4/CapSense.c **** *
 332:.\Generated_Source\PSoC4/CapSense.c **** * Summary:
 333:.\Generated_Source\PSoC4/CapSense.c **** *  This is the preferred method to begin the component operation. CapSense_Start() 
 334:.\Generated_Source\PSoC4/CapSense.c **** *  calls the CapSense_Init() function, and then calls the CapSense_Enable() 
 335:.\Generated_Source\PSoC4/CapSense.c **** *  function. Initializes the registers and starts the CSD method of the CapSense 
 336:.\Generated_Source\PSoC4/CapSense.c **** *  component. Resets all the sensors to an inactive state. Enables interrupts for 
 337:.\Generated_Source\PSoC4/CapSense.c **** *  sensors scanning. When the SmartSense tuning mode is selected, the tuning procedure
 338:.\Generated_Source\PSoC4/CapSense.c **** *  is applied for all the sensors. The CapSense_Start() routine must be called before 
 339:.\Generated_Source\PSoC4/CapSense.c **** *  any other API routines.
 340:.\Generated_Source\PSoC4/CapSense.c **** *
 341:.\Generated_Source\PSoC4/CapSense.c **** * Parameters:
 342:.\Generated_Source\PSoC4/CapSense.c **** *  None
 343:.\Generated_Source\PSoC4/CapSense.c **** *
 344:.\Generated_Source\PSoC4/CapSense.c **** * Return:
 345:.\Generated_Source\PSoC4/CapSense.c **** *  None
 346:.\Generated_Source\PSoC4/CapSense.c **** *
 347:.\Generated_Source\PSoC4/CapSense.c **** * Global Variables:
 348:.\Generated_Source\PSoC4/CapSense.c **** *   CapSense_initVar - used to check the initial configuration, 
 349:.\Generated_Source\PSoC4/CapSense.c **** *   modified on the first function call.
 350:.\Generated_Source\PSoC4/CapSense.c **** *  CapSense_lowLevelTuningDone - Used to notify the Tuner GUI that 
 351:.\Generated_Source\PSoC4/CapSense.c **** *   tuning of the scanning parameters is done. 
 352:.\Generated_Source\PSoC4/CapSense.c **** *
 353:.\Generated_Source\PSoC4/CapSense.c **** * Side Effects:
 354:.\Generated_Source\PSoC4/CapSense.c **** *  None
 355:.\Generated_Source\PSoC4/CapSense.c **** * 
 356:.\Generated_Source\PSoC4/CapSense.c **** *******************************************************************************/
 357:.\Generated_Source\PSoC4/CapSense.c **** void CapSense_Start(void)
 358:.\Generated_Source\PSoC4/CapSense.c **** {
 375              		.loc 1 358 0
 376              		.cfi_startproc
 377 0000 80B5     		push	{r7, lr}
 378              		.cfi_def_cfa_offset 8
 379              		.cfi_offset 7, -8
 380              		.cfi_offset 14, -4
 381 0002 00AF     		add	r7, sp, #0
ARM GAS  C:\DOCUME~1\Chuck\LOCALS~1\Temp\ccp9wtTg.s 			page 14


 382              		.cfi_def_cfa_register 7
 359:.\Generated_Source\PSoC4/CapSense.c **** 	#if((0u != CapSense_AUTOCALIBRATION_ENABLE) && (CapSense_TUNING_METHOD != CapSense__TUNING_AUTO))
 360:.\Generated_Source\PSoC4/CapSense.c **** 		uint32 curSensor;
 361:.\Generated_Source\PSoC4/CapSense.c **** 		uint32 rawLevel;
 362:.\Generated_Source\PSoC4/CapSense.c **** 		uint32 widget;
 363:.\Generated_Source\PSoC4/CapSense.c ****     #endif /* ((0u != CapSense_AUTOCALIBRATION_ENABLE) && (CapSense_TUNING_METHOD != CapSense__TUNI
 364:.\Generated_Source\PSoC4/CapSense.c **** 	
 365:.\Generated_Source\PSoC4/CapSense.c ****     if (CapSense_initVar == 0u)
 383              		.loc 1 365 0
 384 0004 0C4B     		ldr	r3, .L14
 385 0006 1B78     		ldrb	r3, [r3]
 386 0008 002B     		cmp	r3, #0
 387 000a 04D1     		bne	.L13
 366:.\Generated_Source\PSoC4/CapSense.c ****     {
 367:.\Generated_Source\PSoC4/CapSense.c ****         CapSense_Init();
 388              		.loc 1 367 0
 389 000c FFF7FEFF 		bl	CapSense_Init
 368:.\Generated_Source\PSoC4/CapSense.c ****         CapSense_initVar = 1u;
 390              		.loc 1 368 0
 391 0010 094B     		ldr	r3, .L14
 392 0012 0122     		mov	r2, #1
 393 0014 1A70     		strb	r2, [r3]
 394              	.L13:
 369:.\Generated_Source\PSoC4/CapSense.c ****     }
 370:.\Generated_Source\PSoC4/CapSense.c ****     CapSense_Enable();
 395              		.loc 1 370 0
 396 0016 FFF7FEFF 		bl	CapSense_Enable
 371:.\Generated_Source\PSoC4/CapSense.c **** 	
 372:.\Generated_Source\PSoC4/CapSense.c ****     /* AutoTunning start */
 373:.\Generated_Source\PSoC4/CapSense.c ****     #if ((CapSense_TUNING_METHOD == CapSense__TUNING_AUTO) &&\
 374:.\Generated_Source\PSoC4/CapSense.c **** 		 (0u != CapSense_CSHL_API_GENERATE))
 375:.\Generated_Source\PSoC4/CapSense.c ****         /* AutoTune by sensor basis */
 376:.\Generated_Source\PSoC4/CapSense.c ****         CapSense_AutoTune();
 397              		.loc 1 376 0
 398 001a FFF7FEFF 		bl	CapSense_AutoTune
 377:.\Generated_Source\PSoC4/CapSense.c ****         CapSense_lowLevelTuningDone = 1u;
 399              		.loc 1 377 0
 400 001e 074B     		ldr	r3, .L14+4
 401 0020 0122     		mov	r2, #1
 402 0022 1A70     		strb	r2, [r3]
 378:.\Generated_Source\PSoC4/CapSense.c **** 	#else
 379:.\Generated_Source\PSoC4/CapSense.c **** 		#if(0u != CapSense_AUTOCALIBRATION_ENABLE)
 380:.\Generated_Source\PSoC4/CapSense.c **** 			
 381:.\Generated_Source\PSoC4/CapSense.c **** 			#if(CapSense_IDAC_CNT > 1u)
 382:.\Generated_Source\PSoC4/CapSense.c **** 				CapSense_CSD_IDAC_REG &= ~(CapSense_CSD_IDAC2_MODE_MASK);	
 383:.\Generated_Source\PSoC4/CapSense.c **** 			#endif /* (CapSense_IDAC_CNT > 1u) */
 384:.\Generated_Source\PSoC4/CapSense.c **** 			
 385:.\Generated_Source\PSoC4/CapSense.c **** 			for(curSensor = 0u; curSensor < CapSense_TOTAL_SCANSLOT_COUNT; curSensor++)
 386:.\Generated_Source\PSoC4/CapSense.c **** 			{
 387:.\Generated_Source\PSoC4/CapSense.c **** 				widget = CapSense_widgetNumber[curSensor];
 388:.\Generated_Source\PSoC4/CapSense.c **** 				rawLevel = CapSense_widgetResolution[widget] >> CapSense_RESOLUTION_OFFSET;
 389:.\Generated_Source\PSoC4/CapSense.c **** 				
 390:.\Generated_Source\PSoC4/CapSense.c **** 				/* Calibration level should be equal to 85% from scanning resolution */
 391:.\Generated_Source\PSoC4/CapSense.c **** 				rawLevel = (rawLevel * 85u) / 100u;
 392:.\Generated_Source\PSoC4/CapSense.c **** 				
 393:.\Generated_Source\PSoC4/CapSense.c **** 				CapSense_CalibrateSensor(curSensor, rawLevel, CapSense_modulationIDAC);
 394:.\Generated_Source\PSoC4/CapSense.c **** 			}
ARM GAS  C:\DOCUME~1\Chuck\LOCALS~1\Temp\ccp9wtTg.s 			page 15


 395:.\Generated_Source\PSoC4/CapSense.c **** 			
 396:.\Generated_Source\PSoC4/CapSense.c **** 			#if(CapSense_IDAC_CNT > 1u)
 397:.\Generated_Source\PSoC4/CapSense.c **** 				for(curSensor = 0u; curSensor < CapSense_TOTAL_SCANSLOT_COUNT; curSensor++)
 398:.\Generated_Source\PSoC4/CapSense.c **** 			    {
 399:.\Generated_Source\PSoC4/CapSense.c **** 				    CapSense_compensationIDAC[curSensor] = (CapSense_modulationIDAC[curSensor] + 1u) / 2u;
 400:.\Generated_Source\PSoC4/CapSense.c **** 					CapSense_modulationIDAC[curSensor] = CapSense_modulationIDAC[curSensor] / 2u;
 401:.\Generated_Source\PSoC4/CapSense.c **** 			    }
 402:.\Generated_Source\PSoC4/CapSense.c **** 				CapSense_CSD_IDAC_REG |= CapSense_CSD_IDAC2_MODE_FIXED;
 403:.\Generated_Source\PSoC4/CapSense.c **** 			#endif /* (CapSense_IDAC_CNT > 1u) */
 404:.\Generated_Source\PSoC4/CapSense.c **** 			
 405:.\Generated_Source\PSoC4/CapSense.c ****         #endif /* (0u != CapSense_AUTOCALIBRATION_ENABLE) */ 	
 406:.\Generated_Source\PSoC4/CapSense.c ****     #endif /* ((CapSense_TUNING_METHOD == CapSense__TUNING_AUTO) &&
 407:.\Generated_Source\PSoC4/CapSense.c **** 		       (0u != CapSense_CSHL_API_GENERATE)) */	
 408:.\Generated_Source\PSoC4/CapSense.c **** 	
 409:.\Generated_Source\PSoC4/CapSense.c **** 	/* Connect sense comparator input to AMUXA */
 410:.\Generated_Source\PSoC4/CapSense.c **** 	CapSense_CSD_CFG_REG |= CapSense_CSD_CFG_SENSE_INSEL;
 403              		.loc 1 410 0
 404 0024 064B     		ldr	r3, .L14+8
 405 0026 064A     		ldr	r2, .L14+8
 406 0028 1268     		ldr	r2, [r2]
 407 002a 8021     		mov	r1, #128
 408 002c C903     		lsl	r1, r1, #15
 409 002e 0A43     		orr	r2, r1
 410 0030 1A60     		str	r2, [r3]
 411:.\Generated_Source\PSoC4/CapSense.c **** }
 411              		.loc 1 411 0
 412 0032 BD46     		mov	sp, r7
 413              		@ sp needed
 414 0034 80BD     		pop	{r7, pc}
 415              	.L15:
 416 0036 C046     		.align	2
 417              	.L14:
 418 0038 01000000 		.word	CapSense_initVar
 419 003c 00000000 		.word	CapSense_lowLevelTuningDone
 420 0040 04000840 		.word	1074266116
 421              		.cfi_endproc
 422              	.LFE36:
 423              		.size	CapSense_Start, .-CapSense_Start
 424              		.section	.text.CapSense_Stop,"ax",%progbits
 425              		.align	2
 426              		.global	CapSense_Stop
 427              		.code	16
 428              		.thumb_func
 429              		.type	CapSense_Stop, %function
 430              	CapSense_Stop:
 431              	.LFB37:
 412:.\Generated_Source\PSoC4/CapSense.c **** 
 413:.\Generated_Source\PSoC4/CapSense.c **** 
 414:.\Generated_Source\PSoC4/CapSense.c **** /*******************************************************************************
 415:.\Generated_Source\PSoC4/CapSense.c **** * Function Name: CapSense_Stop
 416:.\Generated_Source\PSoC4/CapSense.c **** ********************************************************************************
 417:.\Generated_Source\PSoC4/CapSense.c **** *
 418:.\Generated_Source\PSoC4/CapSense.c **** * Summary:
 419:.\Generated_Source\PSoC4/CapSense.c **** *  Stops the sensor scanning, disables component interrupts, and resets all the 
 420:.\Generated_Source\PSoC4/CapSense.c **** *  sensors to an inactive state. Disables the Active mode power template bits for
 421:.\Generated_Source\PSoC4/CapSense.c **** *  the subcomponents used within CapSense.
 422:.\Generated_Source\PSoC4/CapSense.c **** *
ARM GAS  C:\DOCUME~1\Chuck\LOCALS~1\Temp\ccp9wtTg.s 			page 16


 423:.\Generated_Source\PSoC4/CapSense.c **** * Parameters:
 424:.\Generated_Source\PSoC4/CapSense.c **** *  None
 425:.\Generated_Source\PSoC4/CapSense.c **** *
 426:.\Generated_Source\PSoC4/CapSense.c **** * Return:
 427:.\Generated_Source\PSoC4/CapSense.c **** *  None
 428:.\Generated_Source\PSoC4/CapSense.c **** *
 429:.\Generated_Source\PSoC4/CapSense.c **** * Global Variables:
 430:.\Generated_Source\PSoC4/CapSense.c **** *  CapSense_csdTrim1 - Contains the IDAC trim register value for the Sourcing Mode.
 431:.\Generated_Source\PSoC4/CapSense.c **** *  CapSense_csdTrim2 - Contains the IDAC trim register value for vSinking Mode.
 432:.\Generated_Source\PSoC4/CapSense.c **** *
 433:.\Generated_Source\PSoC4/CapSense.c **** * Side Effects:
 434:.\Generated_Source\PSoC4/CapSense.c **** *  This function should be called after scans are completed.
 435:.\Generated_Source\PSoC4/CapSense.c **** *
 436:.\Generated_Source\PSoC4/CapSense.c **** *******************************************************************************/
 437:.\Generated_Source\PSoC4/CapSense.c **** void CapSense_Stop(void)
 438:.\Generated_Source\PSoC4/CapSense.c **** {
 432              		.loc 1 438 0
 433              		.cfi_startproc
 434 0000 80B5     		push	{r7, lr}
 435              		.cfi_def_cfa_offset 8
 436              		.cfi_offset 7, -8
 437              		.cfi_offset 14, -4
 438 0002 00AF     		add	r7, sp, #0
 439              		.cfi_def_cfa_register 7
 439:.\Generated_Source\PSoC4/CapSense.c ****     /* Disable interrupt */
 440:.\Generated_Source\PSoC4/CapSense.c ****     CyIntDisable(CapSense_ISR_NUMBER);
 440              		.loc 1 440 0
 441 0004 0F20     		mov	r0, #15
 442 0006 FFF7FEFF 		bl	CyIntDisable
 441:.\Generated_Source\PSoC4/CapSense.c **** 	
 442:.\Generated_Source\PSoC4/CapSense.c **** 	CapSense_CSD_CFG_REG &= ~(CapSense_CSD_CFG_SENSE_COMP_EN | CapSense_CSD_CFG_SENSE_EN);
 443              		.loc 1 442 0
 444 000a 094B     		ldr	r3, .L17
 445 000c 084A     		ldr	r2, .L17
 446 000e 1168     		ldr	r1, [r2]
 447 0010 084A     		ldr	r2, .L17+4
 448 0012 0A40     		and	r2, r1
 449 0014 1A60     		str	r2, [r3]
 443:.\Generated_Source\PSoC4/CapSense.c **** 	
 444:.\Generated_Source\PSoC4/CapSense.c **** 	#if(CapSense_IDAC_CNT == 2u)
 445:.\Generated_Source\PSoC4/CapSense.c **** 		CapSense_CSD_CFG_REG &= ~(CapSense_CSD_CFG_ENABLE);
 450              		.loc 1 445 0
 451 0016 064B     		ldr	r3, .L17
 452 0018 054A     		ldr	r2, .L17
 453 001a 1268     		ldr	r2, [r2]
 454 001c 5200     		lsl	r2, r2, #1
 455 001e 5208     		lsr	r2, r2, #1
 456 0020 1A60     		str	r2, [r3]
 446:.\Generated_Source\PSoC4/CapSense.c **** 	#endif /* (CapSense_IDAC_CNT == 2u) */
 447:.\Generated_Source\PSoC4/CapSense.c **** 
 448:.\Generated_Source\PSoC4/CapSense.c ****     /* Disable the Clocks */
 449:.\Generated_Source\PSoC4/CapSense.c ****     CapSense_SenseClk_Stop();
 457              		.loc 1 449 0
 458 0022 FFF7FEFF 		bl	CapSense_SenseClk_Stop
 450:.\Generated_Source\PSoC4/CapSense.c ****     CapSense_SampleClk_Stop();
 459              		.loc 1 450 0
 460 0026 FFF7FEFF 		bl	CapSense_SampleClk_Stop
ARM GAS  C:\DOCUME~1\Chuck\LOCALS~1\Temp\ccp9wtTg.s 			page 17


 451:.\Generated_Source\PSoC4/CapSense.c **** }
 461              		.loc 1 451 0
 462 002a BD46     		mov	sp, r7
 463              		@ sp needed
 464 002c 80BD     		pop	{r7, pc}
 465              	.L18:
 466 002e C046     		.align	2
 467              	.L17:
 468 0030 04000840 		.word	1074266116
 469 0034 FFEFF7FF 		.word	-528385
 470              		.cfi_endproc
 471              	.LFE37:
 472              		.size	CapSense_Stop, .-CapSense_Stop
 473              		.section	.text.CapSense_FindNextSensor,"ax",%progbits
 474              		.align	2
 475              		.global	CapSense_FindNextSensor
 476              		.code	16
 477              		.thumb_func
 478              		.type	CapSense_FindNextSensor, %function
 479              	CapSense_FindNextSensor:
 480              	.LFB38:
 452:.\Generated_Source\PSoC4/CapSense.c **** 
 453:.\Generated_Source\PSoC4/CapSense.c **** 
 454:.\Generated_Source\PSoC4/CapSense.c **** /*******************************************************************************
 455:.\Generated_Source\PSoC4/CapSense.c **** * Function Name: CapSense_FindNextSensor
 456:.\Generated_Source\PSoC4/CapSense.c **** ********************************************************************************
 457:.\Generated_Source\PSoC4/CapSense.c **** *
 458:.\Generated_Source\PSoC4/CapSense.c **** * Summary:
 459:.\Generated_Source\PSoC4/CapSense.c **** *  Finds the next sensor to scan. 
 460:.\Generated_Source\PSoC4/CapSense.c **** *
 461:.\Generated_Source\PSoC4/CapSense.c **** * Parameters:
 462:.\Generated_Source\PSoC4/CapSense.c **** *  snsIndex:  Current index of sensor.
 463:.\Generated_Source\PSoC4/CapSense.c **** *
 464:.\Generated_Source\PSoC4/CapSense.c **** * Return:
 465:.\Generated_Source\PSoC4/CapSense.c **** *  Returns the next sensor index to scan.
 466:.\Generated_Source\PSoC4/CapSense.c **** *
 467:.\Generated_Source\PSoC4/CapSense.c **** * Global Variables:
 468:.\Generated_Source\PSoC4/CapSense.c **** *  CapSense_sensorEnableMask[] - used to store bit masks of the enabled sensors.
 469:.\Generated_Source\PSoC4/CapSense.c **** *
 470:.\Generated_Source\PSoC4/CapSense.c **** * Side Effects:
 471:.\Generated_Source\PSoC4/CapSense.c **** *  This function affects the  current scanning and should not
 472:.\Generated_Source\PSoC4/CapSense.c **** *  be used outside the component.
 473:.\Generated_Source\PSoC4/CapSense.c **** *
 474:.\Generated_Source\PSoC4/CapSense.c **** *******************************************************************************/
 475:.\Generated_Source\PSoC4/CapSense.c **** uint8 CapSense_FindNextSensor(uint8 snsIndex)
 476:.\Generated_Source\PSoC4/CapSense.c **** {
 481              		.loc 1 476 0
 482              		.cfi_startproc
 483 0000 80B5     		push	{r7, lr}
 484              		.cfi_def_cfa_offset 8
 485              		.cfi_offset 7, -8
 486              		.cfi_offset 14, -4
 487 0002 84B0     		sub	sp, sp, #16
 488              		.cfi_def_cfa_offset 24
 489 0004 00AF     		add	r7, sp, #0
 490              		.cfi_def_cfa_register 7
 491 0006 021C     		mov	r2, r0
ARM GAS  C:\DOCUME~1\Chuck\LOCALS~1\Temp\ccp9wtTg.s 			page 18


 492 0008 FB1D     		add	r3, r7, #7
 493 000a 1A70     		strb	r2, [r3]
 494              	.L22:
 477:.\Generated_Source\PSoC4/CapSense.c ****     uint32 enableFlag;
 478:.\Generated_Source\PSoC4/CapSense.c ****     
 479:.\Generated_Source\PSoC4/CapSense.c ****     /* Check if sensor enabled */
 480:.\Generated_Source\PSoC4/CapSense.c ****     do
 481:.\Generated_Source\PSoC4/CapSense.c ****     {
 482:.\Generated_Source\PSoC4/CapSense.c ****         /* Proceed with next sensor */
 483:.\Generated_Source\PSoC4/CapSense.c ****         snsIndex++;
 495              		.loc 1 483 0
 496 000c FB1D     		add	r3, r7, #7
 497 000e 1A78     		ldrb	r2, [r3]
 498 0010 FB1D     		add	r3, r7, #7
 499 0012 0132     		add	r2, r2, #1
 500 0014 1A70     		strb	r2, [r3]
 484:.\Generated_Source\PSoC4/CapSense.c ****         if(snsIndex == CapSense_TOTAL_SENSOR_COUNT)
 501              		.loc 1 484 0
 502 0016 FB1D     		add	r3, r7, #7
 503 0018 1B78     		ldrb	r3, [r3]
 504 001a 012B     		cmp	r3, #1
 505 001c 00D1     		bne	.L20
 485:.\Generated_Source\PSoC4/CapSense.c ****         {
 486:.\Generated_Source\PSoC4/CapSense.c ****             break;
 506              		.loc 1 486 0
 507 001e 0BE0     		b	.L21
 508              	.L20:
 487:.\Generated_Source\PSoC4/CapSense.c ****         }
 488:.\Generated_Source\PSoC4/CapSense.c ****         enableFlag = CapSense_GetBitValue(CapSense_sensorEnableMask, (uint32)snsIndex);
 509              		.loc 1 488 0
 510 0020 FB1D     		add	r3, r7, #7
 511 0022 1B78     		ldrb	r3, [r3]
 512 0024 074A     		ldr	r2, .L24
 513 0026 101C     		mov	r0, r2
 514 0028 191C     		mov	r1, r3
 515 002a FFF7FEFF 		bl	CapSense_GetBitValue
 516 002e 031C     		mov	r3, r0
 517 0030 FB60     		str	r3, [r7, #12]
 489:.\Generated_Source\PSoC4/CapSense.c ****     }    
 490:.\Generated_Source\PSoC4/CapSense.c ****     while(enableFlag == 0u);
 518              		.loc 1 490 0
 519 0032 FB68     		ldr	r3, [r7, #12]
 520 0034 002B     		cmp	r3, #0
 521 0036 E9D0     		beq	.L22
 522              	.L21:
 491:.\Generated_Source\PSoC4/CapSense.c ****     
 492:.\Generated_Source\PSoC4/CapSense.c ****     return ((uint8)snsIndex);
 523              		.loc 1 492 0
 524 0038 FB1D     		add	r3, r7, #7
 525 003a 1B78     		ldrb	r3, [r3]
 493:.\Generated_Source\PSoC4/CapSense.c **** }
 526              		.loc 1 493 0
 527 003c 181C     		mov	r0, r3
 528 003e BD46     		mov	sp, r7
 529 0040 04B0     		add	sp, sp, #16
 530              		@ sp needed
 531 0042 80BD     		pop	{r7, pc}
ARM GAS  C:\DOCUME~1\Chuck\LOCALS~1\Temp\ccp9wtTg.s 			page 19


 532              	.L25:
 533              		.align	2
 534              	.L24:
 535 0044 00000000 		.word	CapSense_sensorEnableMask
 536              		.cfi_endproc
 537              	.LFE38:
 538              		.size	CapSense_FindNextSensor, .-CapSense_FindNextSensor
 539              		.section	.text.CapSense_ScanSensor,"ax",%progbits
 540              		.align	2
 541              		.global	CapSense_ScanSensor
 542              		.code	16
 543              		.thumb_func
 544              		.type	CapSense_ScanSensor, %function
 545              	CapSense_ScanSensor:
 546              	.LFB39:
 494:.\Generated_Source\PSoC4/CapSense.c **** 
 495:.\Generated_Source\PSoC4/CapSense.c **** 
 496:.\Generated_Source\PSoC4/CapSense.c **** /*******************************************************************************
 497:.\Generated_Source\PSoC4/CapSense.c **** * Function Name: CapSense_ScanSensor
 498:.\Generated_Source\PSoC4/CapSense.c **** ********************************************************************************
 499:.\Generated_Source\PSoC4/CapSense.c **** *
 500:.\Generated_Source\PSoC4/CapSense.c **** * Summary:
 501:.\Generated_Source\PSoC4/CapSense.c **** *  Sets the scan settings and starts scanning a sensor. After scanning is complete,
 502:.\Generated_Source\PSoC4/CapSense.c **** *  the ISR copies the measured sensor raw data to the global raw sensor array. 
 503:.\Generated_Source\PSoC4/CapSense.c **** *  Use of the ISR ensures this function is non-blocking. 
 504:.\Generated_Source\PSoC4/CapSense.c **** *  Each sensor has a unique number within the sensor array. 
 505:.\Generated_Source\PSoC4/CapSense.c **** *  This number is assigned by the CapSense customizer in sequence.
 506:.\Generated_Source\PSoC4/CapSense.c **** *
 507:.\Generated_Source\PSoC4/CapSense.c **** * Parameters:
 508:.\Generated_Source\PSoC4/CapSense.c **** *  sensor:  Sensor number.
 509:.\Generated_Source\PSoC4/CapSense.c **** *
 510:.\Generated_Source\PSoC4/CapSense.c **** * Return:
 511:.\Generated_Source\PSoC4/CapSense.c **** *  None
 512:.\Generated_Source\PSoC4/CapSense.c **** *
 513:.\Generated_Source\PSoC4/CapSense.c **** * Global Variables:
 514:.\Generated_Source\PSoC4/CapSense.c **** *  CapSense_csdStatusVar - used to provide the status and mode of the scanning process. 
 515:.\Generated_Source\PSoC4/CapSense.c **** *  Sets the busy status(scan in progress) and mode of scan as single scan.
 516:.\Generated_Source\PSoC4/CapSense.c **** *  CapSense_sensorIndex - used to store a sensor scanning sensor number.
 517:.\Generated_Source\PSoC4/CapSense.c **** *  Sets to the provided sensor argument.
 518:.\Generated_Source\PSoC4/CapSense.c **** *
 519:.\Generated_Source\PSoC4/CapSense.c **** * Side Effects:
 520:.\Generated_Source\PSoC4/CapSense.c **** *  None
 521:.\Generated_Source\PSoC4/CapSense.c **** * 
 522:.\Generated_Source\PSoC4/CapSense.c **** *******************************************************************************/
 523:.\Generated_Source\PSoC4/CapSense.c **** void CapSense_ScanSensor(uint32 sensor)
 524:.\Generated_Source\PSoC4/CapSense.c **** {
 547              		.loc 1 524 0
 548              		.cfi_startproc
 549 0000 80B5     		push	{r7, lr}
 550              		.cfi_def_cfa_offset 8
 551              		.cfi_offset 7, -8
 552              		.cfi_offset 14, -4
 553 0002 82B0     		sub	sp, sp, #8
 554              		.cfi_def_cfa_offset 16
 555 0004 00AF     		add	r7, sp, #0
 556              		.cfi_def_cfa_register 7
 557 0006 7860     		str	r0, [r7, #4]
ARM GAS  C:\DOCUME~1\Chuck\LOCALS~1\Temp\ccp9wtTg.s 			page 20


 525:.\Generated_Source\PSoC4/CapSense.c ****     /* Clears status/control variable and set sensorIndex */
 526:.\Generated_Source\PSoC4/CapSense.c ****     CapSense_csdStatusVar = 0u;
 558              		.loc 1 526 0
 559 0008 084B     		ldr	r3, .L27
 560 000a 0022     		mov	r2, #0
 561 000c 1A70     		strb	r2, [r3]
 527:.\Generated_Source\PSoC4/CapSense.c ****     CapSense_sensorIndex = (uint8)sensor;
 562              		.loc 1 527 0
 563 000e 7B68     		ldr	r3, [r7, #4]
 564 0010 DAB2     		uxtb	r2, r3
 565 0012 074B     		ldr	r3, .L27+4
 566 0014 1A70     		strb	r2, [r3]
 528:.\Generated_Source\PSoC4/CapSense.c ****     
 529:.\Generated_Source\PSoC4/CapSense.c ****     /* Start of sensor scan */
 530:.\Generated_Source\PSoC4/CapSense.c ****     CapSense_csdStatusVar = (CapSense_SW_STS_BUSY | CapSense_SW_CTRL_SINGLE_SCAN);
 567              		.loc 1 530 0
 568 0016 054B     		ldr	r3, .L27
 569 0018 8122     		mov	r2, #129
 570 001a 1A70     		strb	r2, [r3]
 531:.\Generated_Source\PSoC4/CapSense.c ****     CapSense_PreScan(sensor);
 571              		.loc 1 531 0
 572 001c 7B68     		ldr	r3, [r7, #4]
 573 001e 181C     		mov	r0, r3
 574 0020 FFF7FEFF 		bl	CapSense_PreScan
 532:.\Generated_Source\PSoC4/CapSense.c **** }
 575              		.loc 1 532 0
 576 0024 BD46     		mov	sp, r7
 577 0026 02B0     		add	sp, sp, #8
 578              		@ sp needed
 579 0028 80BD     		pop	{r7, pc}
 580              	.L28:
 581 002a C046     		.align	2
 582              	.L27:
 583 002c 00000000 		.word	CapSense_csdStatusVar
 584 0030 00000000 		.word	CapSense_sensorIndex
 585              		.cfi_endproc
 586              	.LFE39:
 587              		.size	CapSense_ScanSensor, .-CapSense_ScanSensor
 588              		.section	.text.CapSense_ScanWidget,"ax",%progbits
 589              		.align	2
 590              		.global	CapSense_ScanWidget
 591              		.code	16
 592              		.thumb_func
 593              		.type	CapSense_ScanWidget, %function
 594              	CapSense_ScanWidget:
 595              	.LFB40:
 533:.\Generated_Source\PSoC4/CapSense.c **** 
 534:.\Generated_Source\PSoC4/CapSense.c **** 
 535:.\Generated_Source\PSoC4/CapSense.c **** #if(0u != CapSense_CSHL_API_GENERATE)
 536:.\Generated_Source\PSoC4/CapSense.c **** /*******************************************************************************
 537:.\Generated_Source\PSoC4/CapSense.c **** * Function Name: CapSense_ScanWidget
 538:.\Generated_Source\PSoC4/CapSense.c **** ********************************************************************************
 539:.\Generated_Source\PSoC4/CapSense.c **** *
 540:.\Generated_Source\PSoC4/CapSense.c **** * Summary:
 541:.\Generated_Source\PSoC4/CapSense.c **** *  Sets the scan settings and starts scanning a widget.
 542:.\Generated_Source\PSoC4/CapSense.c **** *
 543:.\Generated_Source\PSoC4/CapSense.c **** * Parameters:
ARM GAS  C:\DOCUME~1\Chuck\LOCALS~1\Temp\ccp9wtTg.s 			page 21


 544:.\Generated_Source\PSoC4/CapSense.c **** *  uint32 widget: Widget number.
 545:.\Generated_Source\PSoC4/CapSense.c **** *
 546:.\Generated_Source\PSoC4/CapSense.c **** * Return:
 547:.\Generated_Source\PSoC4/CapSense.c **** *  None
 548:.\Generated_Source\PSoC4/CapSense.c **** *
 549:.\Generated_Source\PSoC4/CapSense.c **** * Global Variables:
 550:.\Generated_Source\PSoC4/CapSense.c **** *  CapSense_csdStatusVar - used to provide the status and mode of the scanning process. 
 551:.\Generated_Source\PSoC4/CapSense.c **** *  Sets the busy status(scan in progress) and clears the single scan mode.
 552:.\Generated_Source\PSoC4/CapSense.c **** *  CapSense_sensorIndex - used to store a sensor scanning sensor number.
 553:.\Generated_Source\PSoC4/CapSense.c **** *  Sets to 0xFF and provided to function CapSense_FindNextSensor or
 554:.\Generated_Source\PSoC4/CapSense.c **** *  CapSense_sensorEnableMask[] - used to store bit masks of the enabled sensors.
 555:.\Generated_Source\PSoC4/CapSense.c **** *  CapSense_sensorEnableMaskBackup[] - used to backup bit masks of the enabled
 556:.\Generated_Source\PSoC4/CapSense.c **** *   sensors.
 557:.\Generated_Source\PSoC4/CapSense.c **** *
 558:.\Generated_Source\PSoC4/CapSense.c **** * Side Effects:
 559:.\Generated_Source\PSoC4/CapSense.c **** *  None
 560:.\Generated_Source\PSoC4/CapSense.c **** * 
 561:.\Generated_Source\PSoC4/CapSense.c **** *******************************************************************************/
 562:.\Generated_Source\PSoC4/CapSense.c **** void CapSense_ScanWidget(uint32 widget)
 563:.\Generated_Source\PSoC4/CapSense.c **** {
 596              		.loc 1 563 0
 597              		.cfi_startproc
 598 0000 80B5     		push	{r7, lr}
 599              		.cfi_def_cfa_offset 8
 600              		.cfi_offset 7, -8
 601              		.cfi_offset 14, -4
 602 0002 86B0     		sub	sp, sp, #24
 603              		.cfi_def_cfa_offset 32
 604 0004 00AF     		add	r7, sp, #0
 605              		.cfi_def_cfa_register 7
 606 0006 7860     		str	r0, [r7, #4]
 564:.\Generated_Source\PSoC4/CapSense.c ****     uint32 sensorsPerWidget;
 565:.\Generated_Source\PSoC4/CapSense.c ****     uint32 lastSensor;
 566:.\Generated_Source\PSoC4/CapSense.c ****     uint32 snsIndex;
 567:.\Generated_Source\PSoC4/CapSense.c **** 
 568:.\Generated_Source\PSoC4/CapSense.c **** 	/* Get first sensor in widget */
 569:.\Generated_Source\PSoC4/CapSense.c **** 	CapSense_sensorIndex = CapSense_rawDataIndex[widget];
 607              		.loc 1 569 0
 608 0008 2E4A     		ldr	r2, .L38
 609 000a 7B68     		ldr	r3, [r7, #4]
 610 000c D318     		add	r3, r2, r3
 611 000e 1A78     		ldrb	r2, [r3]
 612 0010 2D4B     		ldr	r3, .L38+4
 613 0012 1A70     		strb	r2, [r3]
 570:.\Generated_Source\PSoC4/CapSense.c **** 	
 571:.\Generated_Source\PSoC4/CapSense.c **** 	/* Get number of sensors in widget */
 572:.\Generated_Source\PSoC4/CapSense.c **** 	sensorsPerWidget = CapSense_numberOfSensors[widget];
 614              		.loc 1 572 0
 615 0014 2D4A     		ldr	r2, .L38+8
 616 0016 7B68     		ldr	r3, [r7, #4]
 617 0018 D318     		add	r3, r2, r3
 618 001a 1B78     		ldrb	r3, [r3]
 619 001c 7B61     		str	r3, [r7, #20]
 573:.\Generated_Source\PSoC4/CapSense.c **** 	
 574:.\Generated_Source\PSoC4/CapSense.c **** 	/* Check if generic Sensor */
 575:.\Generated_Source\PSoC4/CapSense.c **** 	if(sensorsPerWidget == 0u)
 620              		.loc 1 575 0
ARM GAS  C:\DOCUME~1\Chuck\LOCALS~1\Temp\ccp9wtTg.s 			page 22


 621 001e 7B69     		ldr	r3, [r7, #20]
 622 0020 002B     		cmp	r3, #0
 623 0022 01D1     		bne	.L30
 576:.\Generated_Source\PSoC4/CapSense.c **** 	{
 577:.\Generated_Source\PSoC4/CapSense.c **** 		sensorsPerWidget = 1u;
 624              		.loc 1 577 0
 625 0024 0123     		mov	r3, #1
 626 0026 7B61     		str	r3, [r7, #20]
 627              	.L30:
 578:.\Generated_Source\PSoC4/CapSense.c **** 	}
 579:.\Generated_Source\PSoC4/CapSense.c **** 	
 580:.\Generated_Source\PSoC4/CapSense.c **** 	/* Get last sensor in widget */
 581:.\Generated_Source\PSoC4/CapSense.c **** 	lastSensor = (CapSense_rawDataIndex[widget] + sensorsPerWidget) - 1u;
 628              		.loc 1 581 0
 629 0028 264A     		ldr	r2, .L38
 630 002a 7B68     		ldr	r3, [r7, #4]
 631 002c D318     		add	r3, r2, r3
 632 002e 1B78     		ldrb	r3, [r3]
 633 0030 1A1C     		mov	r2, r3
 634 0032 7B69     		ldr	r3, [r7, #20]
 635 0034 D318     		add	r3, r2, r3
 636 0036 013B     		sub	r3, r3, #1
 637 0038 FB60     		str	r3, [r7, #12]
 582:.\Generated_Source\PSoC4/CapSense.c **** 
 583:.\Generated_Source\PSoC4/CapSense.c **** 	/* Backup sensorEnableMask array */
 584:.\Generated_Source\PSoC4/CapSense.c **** 	for(snsIndex = 0u; snsIndex < CapSense_TOTAL_SENSOR_MASK; snsIndex++)
 638              		.loc 1 584 0
 639 003a 0023     		mov	r3, #0
 640 003c 3B61     		str	r3, [r7, #16]
 641 003e 0AE0     		b	.L31
 642              	.L32:
 585:.\Generated_Source\PSoC4/CapSense.c **** 	{
 586:.\Generated_Source\PSoC4/CapSense.c **** 		/* Backup sensorEnableMask array */
 587:.\Generated_Source\PSoC4/CapSense.c **** 		CapSense_sensorEnableMaskBackup[snsIndex] = CapSense_sensorEnableMask[snsIndex];
 643              		.loc 1 587 0 discriminator 2
 644 0040 234A     		ldr	r2, .L38+12
 645 0042 3B69     		ldr	r3, [r7, #16]
 646 0044 D318     		add	r3, r2, r3
 647 0046 1A78     		ldrb	r2, [r3]
 648 0048 2249     		ldr	r1, .L38+16
 649 004a 3B69     		ldr	r3, [r7, #16]
 650 004c CB18     		add	r3, r1, r3
 651 004e 1A70     		strb	r2, [r3]
 584:.\Generated_Source\PSoC4/CapSense.c **** 	for(snsIndex = 0u; snsIndex < CapSense_TOTAL_SENSOR_MASK; snsIndex++)
 652              		.loc 1 584 0 discriminator 2
 653 0050 3B69     		ldr	r3, [r7, #16]
 654 0052 0133     		add	r3, r3, #1
 655 0054 3B61     		str	r3, [r7, #16]
 656              	.L31:
 584:.\Generated_Source\PSoC4/CapSense.c **** 	for(snsIndex = 0u; snsIndex < CapSense_TOTAL_SENSOR_MASK; snsIndex++)
 657              		.loc 1 584 0 is_stmt 0 discriminator 1
 658 0056 3B69     		ldr	r3, [r7, #16]
 659 0058 002B     		cmp	r3, #0
 660 005a F1D0     		beq	.L32
 588:.\Generated_Source\PSoC4/CapSense.c **** 	}
 589:.\Generated_Source\PSoC4/CapSense.c **** 
 590:.\Generated_Source\PSoC4/CapSense.c **** 	/* Update sensorEnableMask to scan the sensors that belong to widget */
ARM GAS  C:\DOCUME~1\Chuck\LOCALS~1\Temp\ccp9wtTg.s 			page 23


 591:.\Generated_Source\PSoC4/CapSense.c **** 	for(snsIndex = 0u; snsIndex < CapSense_TOTAL_SENSOR_COUNT; snsIndex++)
 661              		.loc 1 591 0 is_stmt 1
 662 005c 0023     		mov	r3, #0
 663 005e 3B61     		str	r3, [r7, #16]
 664 0060 1CE0     		b	.L33
 665              	.L36:
 592:.\Generated_Source\PSoC4/CapSense.c **** 	{
 593:.\Generated_Source\PSoC4/CapSense.c **** 		/* Update sensorEnableMask array bits to scan the widget only */ 
 594:.\Generated_Source\PSoC4/CapSense.c **** 	    if((snsIndex >= CapSense_sensorIndex) && (snsIndex <= lastSensor))
 666              		.loc 1 594 0
 667 0062 194B     		ldr	r3, .L38+4
 668 0064 1B78     		ldrb	r3, [r3]
 669 0066 DBB2     		uxtb	r3, r3
 670 0068 1A1C     		mov	r2, r3
 671 006a 3B69     		ldr	r3, [r7, #16]
 672 006c 9A42     		cmp	r2, r3
 673 006e 0BD8     		bhi	.L34
 674              		.loc 1 594 0 is_stmt 0 discriminator 1
 675 0070 3A69     		ldr	r2, [r7, #16]
 676 0072 FB68     		ldr	r3, [r7, #12]
 677 0074 9A42     		cmp	r2, r3
 678 0076 07D8     		bhi	.L34
 595:.\Generated_Source\PSoC4/CapSense.c **** 		{
 596:.\Generated_Source\PSoC4/CapSense.c **** 		    /* Set sensor bit to scan */
 597:.\Generated_Source\PSoC4/CapSense.c **** 			CapSense_SetBitValue(CapSense_sensorEnableMask, snsIndex, 1u);
 679              		.loc 1 597 0 is_stmt 1
 680 0078 154A     		ldr	r2, .L38+12
 681 007a 3B69     		ldr	r3, [r7, #16]
 682 007c 101C     		mov	r0, r2
 683 007e 191C     		mov	r1, r3
 684 0080 0122     		mov	r2, #1
 685 0082 FFF7FEFF 		bl	CapSense_SetBitValue
 686 0086 06E0     		b	.L35
 687              	.L34:
 598:.\Generated_Source\PSoC4/CapSense.c **** 		}
 599:.\Generated_Source\PSoC4/CapSense.c **** 		else
 600:.\Generated_Source\PSoC4/CapSense.c **** 		{
 601:.\Generated_Source\PSoC4/CapSense.c **** 		    /* Reset sensor bit to do not scan */
 602:.\Generated_Source\PSoC4/CapSense.c **** 		    CapSense_SetBitValue(CapSense_sensorEnableMask, snsIndex, 0u);
 688              		.loc 1 602 0
 689 0088 114A     		ldr	r2, .L38+12
 690 008a 3B69     		ldr	r3, [r7, #16]
 691 008c 101C     		mov	r0, r2
 692 008e 191C     		mov	r1, r3
 693 0090 0022     		mov	r2, #0
 694 0092 FFF7FEFF 		bl	CapSense_SetBitValue
 695              	.L35:
 591:.\Generated_Source\PSoC4/CapSense.c **** 	for(snsIndex = 0u; snsIndex < CapSense_TOTAL_SENSOR_COUNT; snsIndex++)
 696              		.loc 1 591 0
 697 0096 3B69     		ldr	r3, [r7, #16]
 698 0098 0133     		add	r3, r3, #1
 699 009a 3B61     		str	r3, [r7, #16]
 700              	.L33:
 591:.\Generated_Source\PSoC4/CapSense.c **** 	for(snsIndex = 0u; snsIndex < CapSense_TOTAL_SENSOR_COUNT; snsIndex++)
 701              		.loc 1 591 0 is_stmt 0 discriminator 1
 702 009c 3B69     		ldr	r3, [r7, #16]
 703 009e 002B     		cmp	r3, #0
ARM GAS  C:\DOCUME~1\Chuck\LOCALS~1\Temp\ccp9wtTg.s 			page 24


 704 00a0 DFD0     		beq	.L36
 603:.\Generated_Source\PSoC4/CapSense.c **** 		}
 604:.\Generated_Source\PSoC4/CapSense.c **** 	}
 605:.\Generated_Source\PSoC4/CapSense.c **** 
 606:.\Generated_Source\PSoC4/CapSense.c ****     /* Check end of scan condition */
 607:.\Generated_Source\PSoC4/CapSense.c ****     if(CapSense_sensorIndex < CapSense_TOTAL_SENSOR_COUNT)
 705              		.loc 1 607 0 is_stmt 1
 706 00a2 094B     		ldr	r3, .L38+4
 707 00a4 1B78     		ldrb	r3, [r3]
 708 00a6 DBB2     		uxtb	r3, r3
 709 00a8 002B     		cmp	r3, #0
 710 00aa 08D1     		bne	.L29
 608:.\Generated_Source\PSoC4/CapSense.c ****     {
 609:.\Generated_Source\PSoC4/CapSense.c **** 		/* Set widget busy bit in status/control variable*/ 
 610:.\Generated_Source\PSoC4/CapSense.c **** 		CapSense_csdStatusVar = (CapSense_SW_STS_BUSY | CapSense_SW_CTRL_WIDGET_SCAN);
 711              		.loc 1 610 0
 712 00ac 0A4B     		ldr	r3, .L38+20
 713 00ae 4122     		mov	r2, #65
 714 00b0 1A70     		strb	r2, [r3]
 611:.\Generated_Source\PSoC4/CapSense.c **** 		/* Scan first sensor of widget*/ 
 612:.\Generated_Source\PSoC4/CapSense.c ****         CapSense_PreScan((uint32)CapSense_sensorIndex);
 715              		.loc 1 612 0
 716 00b2 054B     		ldr	r3, .L38+4
 717 00b4 1B78     		ldrb	r3, [r3]
 718 00b6 DBB2     		uxtb	r3, r3
 719 00b8 181C     		mov	r0, r3
 720 00ba FFF7FEFF 		bl	CapSense_PreScan
 721              	.L29:
 613:.\Generated_Source\PSoC4/CapSense.c ****     }
 614:.\Generated_Source\PSoC4/CapSense.c **** }
 722              		.loc 1 614 0
 723 00be BD46     		mov	sp, r7
 724 00c0 06B0     		add	sp, sp, #24
 725              		@ sp needed
 726 00c2 80BD     		pop	{r7, pc}
 727              	.L39:
 728              		.align	2
 729              	.L38:
 730 00c4 00000000 		.word	CapSense_rawDataIndex
 731 00c8 00000000 		.word	CapSense_sensorIndex
 732 00cc 00000000 		.word	CapSense_numberOfSensors
 733 00d0 00000000 		.word	CapSense_sensorEnableMask
 734 00d4 00000000 		.word	CapSense_sensorEnableMaskBackup
 735 00d8 00000000 		.word	CapSense_csdStatusVar
 736              		.cfi_endproc
 737              	.LFE40:
 738              		.size	CapSense_ScanWidget, .-CapSense_ScanWidget
 739              		.section	.text.CapSense_ScanEnabledWidgets,"ax",%progbits
 740              		.align	2
 741              		.global	CapSense_ScanEnabledWidgets
 742              		.code	16
 743              		.thumb_func
 744              		.type	CapSense_ScanEnabledWidgets, %function
 745              	CapSense_ScanEnabledWidgets:
 746              	.LFB41:
 615:.\Generated_Source\PSoC4/CapSense.c **** #endif /* (0u != CapSense_CSHL_API_GENERATE) */
 616:.\Generated_Source\PSoC4/CapSense.c **** 
ARM GAS  C:\DOCUME~1\Chuck\LOCALS~1\Temp\ccp9wtTg.s 			page 25


 617:.\Generated_Source\PSoC4/CapSense.c **** 
 618:.\Generated_Source\PSoC4/CapSense.c **** /*******************************************************************************
 619:.\Generated_Source\PSoC4/CapSense.c **** * Function Name: CapSense_ScanEnableWidgets
 620:.\Generated_Source\PSoC4/CapSense.c **** ********************************************************************************
 621:.\Generated_Source\PSoC4/CapSense.c **** *
 622:.\Generated_Source\PSoC4/CapSense.c **** * Summary:
 623:.\Generated_Source\PSoC4/CapSense.c **** *  This is the preferred method to scan all of the enabled widgets. 
 624:.\Generated_Source\PSoC4/CapSense.c **** *  The API starts scanning a sensor within the enabled widgets. 
 625:.\Generated_Source\PSoC4/CapSense.c **** *  The ISR continues scanning the sensors until all the enabled widgets are scanned. 
 626:.\Generated_Source\PSoC4/CapSense.c **** *  Use of the ISR ensures this function is non-blocking.
 627:.\Generated_Source\PSoC4/CapSense.c **** *  All the widgets are enabled by default except proximity widgets. 
 628:.\Generated_Source\PSoC4/CapSense.c **** *  The proximity widgets must be manually enabled as their long scan time 
 629:.\Generated_Source\PSoC4/CapSense.c **** *  is incompatible with a fast response required of other widget types.
 630:.\Generated_Source\PSoC4/CapSense.c **** *
 631:.\Generated_Source\PSoC4/CapSense.c **** * Parameters:
 632:.\Generated_Source\PSoC4/CapSense.c **** *  None
 633:.\Generated_Source\PSoC4/CapSense.c **** *
 634:.\Generated_Source\PSoC4/CapSense.c **** * Return:
 635:.\Generated_Source\PSoC4/CapSense.c **** *  None
 636:.\Generated_Source\PSoC4/CapSense.c **** *
 637:.\Generated_Source\PSoC4/CapSense.c **** * Global Variables:
 638:.\Generated_Source\PSoC4/CapSense.c **** *  CapSense_csdStatusVar - used to provide the status and mode of the scanning process. 
 639:.\Generated_Source\PSoC4/CapSense.c **** *  Sets the busy status(scan in progress) and clears the single scan mode.
 640:.\Generated_Source\PSoC4/CapSense.c **** *  CapSense_sensorIndex - used to store a sensor scanning sensor number.
 641:.\Generated_Source\PSoC4/CapSense.c **** *  Sets to 0xFF and provided to function CapSense_FindNextSensor or
 642:.\Generated_Source\PSoC4/CapSense.c **** *
 643:.\Generated_Source\PSoC4/CapSense.c **** * Side Effects:
 644:.\Generated_Source\PSoC4/CapSense.c **** *  None
 645:.\Generated_Source\PSoC4/CapSense.c **** * 
 646:.\Generated_Source\PSoC4/CapSense.c **** *******************************************************************************/
 647:.\Generated_Source\PSoC4/CapSense.c **** void CapSense_ScanEnabledWidgets(void)
 648:.\Generated_Source\PSoC4/CapSense.c **** {
 747              		.loc 1 648 0
 748              		.cfi_startproc
 749 0000 80B5     		push	{r7, lr}
 750              		.cfi_def_cfa_offset 8
 751              		.cfi_offset 7, -8
 752              		.cfi_offset 14, -4
 753 0002 00AF     		add	r7, sp, #0
 754              		.cfi_def_cfa_register 7
 649:.\Generated_Source\PSoC4/CapSense.c ****     /* Clears status/control variable and set sensorIndex */
 650:.\Generated_Source\PSoC4/CapSense.c ****     CapSense_csdStatusVar = 0u;
 755              		.loc 1 650 0
 756 0004 124B     		ldr	r3, .L42
 757 0006 0022     		mov	r2, #0
 758 0008 1A70     		strb	r2, [r3]
 651:.\Generated_Source\PSoC4/CapSense.c ****     CapSense_sensorIndex = 0xFFu;
 759              		.loc 1 651 0
 760 000a 124B     		ldr	r3, .L42+4
 761 000c FF22     		mov	r2, #255
 762 000e 1A70     		strb	r2, [r3]
 652:.\Generated_Source\PSoC4/CapSense.c ****     
 653:.\Generated_Source\PSoC4/CapSense.c ****     /* Find next sensor */
 654:.\Generated_Source\PSoC4/CapSense.c ****     CapSense_sensorIndex = (uint8)CapSense_FindNextSensor(CapSense_sensorIndex);
 763              		.loc 1 654 0
 764 0010 104B     		ldr	r3, .L42+4
 765 0012 1B78     		ldrb	r3, [r3]
ARM GAS  C:\DOCUME~1\Chuck\LOCALS~1\Temp\ccp9wtTg.s 			page 26


 766 0014 DBB2     		uxtb	r3, r3
 767 0016 181C     		mov	r0, r3
 768 0018 FFF7FEFF 		bl	CapSense_FindNextSensor
 769 001c 031C     		mov	r3, r0
 770 001e 1A1C     		mov	r2, r3
 771 0020 0C4B     		ldr	r3, .L42+4
 772 0022 1A70     		strb	r2, [r3]
 655:.\Generated_Source\PSoC4/CapSense.c **** 
 656:.\Generated_Source\PSoC4/CapSense.c ****     /* Check end of scan condition */
 657:.\Generated_Source\PSoC4/CapSense.c ****     if(CapSense_sensorIndex < CapSense_TOTAL_SENSOR_COUNT)
 773              		.loc 1 657 0
 774 0024 0B4B     		ldr	r3, .L42+4
 775 0026 1B78     		ldrb	r3, [r3]
 776 0028 DBB2     		uxtb	r3, r3
 777 002a 002B     		cmp	r3, #0
 778 002c 0DD1     		bne	.L40
 658:.\Generated_Source\PSoC4/CapSense.c ****     {
 659:.\Generated_Source\PSoC4/CapSense.c ****         CapSense_csdStatusVar |= CapSense_SW_STS_BUSY;
 779              		.loc 1 659 0
 780 002e 084B     		ldr	r3, .L42
 781 0030 1B78     		ldrb	r3, [r3]
 782 0032 DBB2     		uxtb	r3, r3
 783 0034 0122     		mov	r2, #1
 784 0036 1343     		orr	r3, r2
 785 0038 DAB2     		uxtb	r2, r3
 786 003a 054B     		ldr	r3, .L42
 787 003c 1A70     		strb	r2, [r3]
 660:.\Generated_Source\PSoC4/CapSense.c ****         CapSense_PreScan((uint32)CapSense_sensorIndex);
 788              		.loc 1 660 0
 789 003e 054B     		ldr	r3, .L42+4
 790 0040 1B78     		ldrb	r3, [r3]
 791 0042 DBB2     		uxtb	r3, r3
 792 0044 181C     		mov	r0, r3
 793 0046 FFF7FEFF 		bl	CapSense_PreScan
 794              	.L40:
 661:.\Generated_Source\PSoC4/CapSense.c ****     }
 662:.\Generated_Source\PSoC4/CapSense.c **** }
 795              		.loc 1 662 0
 796 004a BD46     		mov	sp, r7
 797              		@ sp needed
 798 004c 80BD     		pop	{r7, pc}
 799              	.L43:
 800 004e C046     		.align	2
 801              	.L42:
 802 0050 00000000 		.word	CapSense_csdStatusVar
 803 0054 00000000 		.word	CapSense_sensorIndex
 804              		.cfi_endproc
 805              	.LFE41:
 806              		.size	CapSense_ScanEnabledWidgets, .-CapSense_ScanEnabledWidgets
 807              		.section	.text.CapSense_IsBusy,"ax",%progbits
 808              		.align	2
 809              		.global	CapSense_IsBusy
 810              		.code	16
 811              		.thumb_func
 812              		.type	CapSense_IsBusy, %function
 813              	CapSense_IsBusy:
 814              	.LFB42:
ARM GAS  C:\DOCUME~1\Chuck\LOCALS~1\Temp\ccp9wtTg.s 			page 27


 663:.\Generated_Source\PSoC4/CapSense.c **** 
 664:.\Generated_Source\PSoC4/CapSense.c **** 
 665:.\Generated_Source\PSoC4/CapSense.c **** /*******************************************************************************
 666:.\Generated_Source\PSoC4/CapSense.c **** * Function Name: CapSense_IsBusy
 667:.\Generated_Source\PSoC4/CapSense.c **** ********************************************************************************
 668:.\Generated_Source\PSoC4/CapSense.c **** *
 669:.\Generated_Source\PSoC4/CapSense.c **** * Summary:
 670:.\Generated_Source\PSoC4/CapSense.c **** *  Returns the state of the CapSense component. 1 means that scanning in 
 671:.\Generated_Source\PSoC4/CapSense.c **** *  progress and 0 means that scanning is complete.
 672:.\Generated_Source\PSoC4/CapSense.c **** *
 673:.\Generated_Source\PSoC4/CapSense.c **** * Parameters:
 674:.\Generated_Source\PSoC4/CapSense.c **** *  None
 675:.\Generated_Source\PSoC4/CapSense.c **** *
 676:.\Generated_Source\PSoC4/CapSense.c **** * Return:
 677:.\Generated_Source\PSoC4/CapSense.c **** *  Returns the state of scanning. 1 - scanning in progress, 0 - scanning 
 678:.\Generated_Source\PSoC4/CapSense.c **** *  completed.
 679:.\Generated_Source\PSoC4/CapSense.c **** *
 680:.\Generated_Source\PSoC4/CapSense.c **** * Global Variables:
 681:.\Generated_Source\PSoC4/CapSense.c **** *  CapSense_csdStatusVar - used to provide the status and mode of the scanning process. 
 682:.\Generated_Source\PSoC4/CapSense.c **** *  Checks the busy status.
 683:.\Generated_Source\PSoC4/CapSense.c **** *
 684:.\Generated_Source\PSoC4/CapSense.c **** * Side Effects:
 685:.\Generated_Source\PSoC4/CapSense.c **** *  None
 686:.\Generated_Source\PSoC4/CapSense.c **** * 
 687:.\Generated_Source\PSoC4/CapSense.c **** *******************************************************************************/
 688:.\Generated_Source\PSoC4/CapSense.c **** uint32 CapSense_IsBusy(void)
 689:.\Generated_Source\PSoC4/CapSense.c **** {
 815              		.loc 1 689 0
 816              		.cfi_startproc
 817 0000 80B5     		push	{r7, lr}
 818              		.cfi_def_cfa_offset 8
 819              		.cfi_offset 7, -8
 820              		.cfi_offset 14, -4
 821 0002 00AF     		add	r7, sp, #0
 822              		.cfi_def_cfa_register 7
 690:.\Generated_Source\PSoC4/CapSense.c ****     return ((uint32)((0u != (CapSense_csdStatusVar & CapSense_SW_STS_BUSY)) ? 1u : 0u));
 823              		.loc 1 690 0
 824 0004 044B     		ldr	r3, .L46
 825 0006 1B78     		ldrb	r3, [r3]
 826 0008 DBB2     		uxtb	r3, r3
 827 000a 1A1C     		mov	r2, r3
 828 000c 0123     		mov	r3, #1
 829 000e 1340     		and	r3, r2
 691:.\Generated_Source\PSoC4/CapSense.c **** }
 830              		.loc 1 691 0
 831 0010 181C     		mov	r0, r3
 832 0012 BD46     		mov	sp, r7
 833              		@ sp needed
 834 0014 80BD     		pop	{r7, pc}
 835              	.L47:
 836 0016 C046     		.align	2
 837              	.L46:
 838 0018 00000000 		.word	CapSense_csdStatusVar
 839              		.cfi_endproc
 840              	.LFE42:
 841              		.size	CapSense_IsBusy, .-CapSense_IsBusy
 842              		.section	.text.CapSense_ReadSensorRaw,"ax",%progbits
ARM GAS  C:\DOCUME~1\Chuck\LOCALS~1\Temp\ccp9wtTg.s 			page 28


 843              		.align	2
 844              		.global	CapSense_ReadSensorRaw
 845              		.code	16
 846              		.thumb_func
 847              		.type	CapSense_ReadSensorRaw, %function
 848              	CapSense_ReadSensorRaw:
 849              	.LFB43:
 692:.\Generated_Source\PSoC4/CapSense.c **** 
 693:.\Generated_Source\PSoC4/CapSense.c **** 
 694:.\Generated_Source\PSoC4/CapSense.c **** /*******************************************************************************
 695:.\Generated_Source\PSoC4/CapSense.c **** * Function Name: CapSense_ReadSensorRaw
 696:.\Generated_Source\PSoC4/CapSense.c **** ********************************************************************************
 697:.\Generated_Source\PSoC4/CapSense.c **** *
 698:.\Generated_Source\PSoC4/CapSense.c **** * Summary:
 699:.\Generated_Source\PSoC4/CapSense.c **** *  Returns sensor raw data from the global CapSense_sensorRaw[ ] array. 
 700:.\Generated_Source\PSoC4/CapSense.c **** *  Each scan sensor has a unique number within the sensor array. 
 701:.\Generated_Source\PSoC4/CapSense.c **** *  This number is assigned by the CapSense customizer in sequence. 
 702:.\Generated_Source\PSoC4/CapSense.c **** *  Raw data can be used to perform calculations outside of the CapSense 
 703:.\Generated_Source\PSoC4/CapSense.c **** *  provided framework.
 704:.\Generated_Source\PSoC4/CapSense.c **** *
 705:.\Generated_Source\PSoC4/CapSense.c **** * Parameters:
 706:.\Generated_Source\PSoC4/CapSense.c **** *  sensor:  Sensor number.
 707:.\Generated_Source\PSoC4/CapSense.c **** *
 708:.\Generated_Source\PSoC4/CapSense.c **** * Return:
 709:.\Generated_Source\PSoC4/CapSense.c **** *  Returns the current raw data value for a defined sensor number.
 710:.\Generated_Source\PSoC4/CapSense.c **** *
 711:.\Generated_Source\PSoC4/CapSense.c **** * Global Variables:
 712:.\Generated_Source\PSoC4/CapSense.c **** *  CapSense_sensorRaw[] - used to store sensors raw data.
 713:.\Generated_Source\PSoC4/CapSense.c **** *
 714:.\Generated_Source\PSoC4/CapSense.c **** * Side Effects: 
 715:.\Generated_Source\PSoC4/CapSense.c **** *  None
 716:.\Generated_Source\PSoC4/CapSense.c **** *
 717:.\Generated_Source\PSoC4/CapSense.c **** *******************************************************************************/
 718:.\Generated_Source\PSoC4/CapSense.c **** uint16 CapSense_ReadSensorRaw(uint32 sensor)
 719:.\Generated_Source\PSoC4/CapSense.c **** {
 850              		.loc 1 719 0
 851              		.cfi_startproc
 852 0000 80B5     		push	{r7, lr}
 853              		.cfi_def_cfa_offset 8
 854              		.cfi_offset 7, -8
 855              		.cfi_offset 14, -4
 856 0002 82B0     		sub	sp, sp, #8
 857              		.cfi_def_cfa_offset 16
 858 0004 00AF     		add	r7, sp, #0
 859              		.cfi_def_cfa_register 7
 860 0006 7860     		str	r0, [r7, #4]
 720:.\Generated_Source\PSoC4/CapSense.c ****     return CapSense_sensorRaw[sensor];
 861              		.loc 1 720 0
 862 0008 034B     		ldr	r3, .L50
 863 000a 7A68     		ldr	r2, [r7, #4]
 864 000c 5200     		lsl	r2, r2, #1
 865 000e D35A     		ldrh	r3, [r2, r3]
 721:.\Generated_Source\PSoC4/CapSense.c **** }
 866              		.loc 1 721 0
 867 0010 181C     		mov	r0, r3
 868 0012 BD46     		mov	sp, r7
 869 0014 02B0     		add	sp, sp, #8
ARM GAS  C:\DOCUME~1\Chuck\LOCALS~1\Temp\ccp9wtTg.s 			page 29


 870              		@ sp needed
 871 0016 80BD     		pop	{r7, pc}
 872              	.L51:
 873              		.align	2
 874              	.L50:
 875 0018 00000000 		.word	CapSense_sensorRaw
 876              		.cfi_endproc
 877              	.LFE43:
 878              		.size	CapSense_ReadSensorRaw, .-CapSense_ReadSensorRaw
 879              		.section	.text.CapSense_WriteSensorRaw,"ax",%progbits
 880              		.align	2
 881              		.global	CapSense_WriteSensorRaw
 882              		.code	16
 883              		.thumb_func
 884              		.type	CapSense_WriteSensorRaw, %function
 885              	CapSense_WriteSensorRaw:
 886              	.LFB44:
 722:.\Generated_Source\PSoC4/CapSense.c **** 
 723:.\Generated_Source\PSoC4/CapSense.c **** 
 724:.\Generated_Source\PSoC4/CapSense.c **** /*******************************************************************************
 725:.\Generated_Source\PSoC4/CapSense.c **** * Function Name: CapSense_WriteSensorRaw
 726:.\Generated_Source\PSoC4/CapSense.c **** ********************************************************************************
 727:.\Generated_Source\PSoC4/CapSense.c **** *
 728:.\Generated_Source\PSoC4/CapSense.c **** * Summary:
 729:.\Generated_Source\PSoC4/CapSense.c **** *  This API writes the raw count value passed as an argument to the sensor Raw count array.
 730:.\Generated_Source\PSoC4/CapSense.c **** *
 731:.\Generated_Source\PSoC4/CapSense.c **** * Parameters:
 732:.\Generated_Source\PSoC4/CapSense.c **** *  sensor:  Sensor number.
 733:.\Generated_Source\PSoC4/CapSense.c **** *  value: Raw count value.
 734:.\Generated_Source\PSoC4/CapSense.c **** *
 735:.\Generated_Source\PSoC4/CapSense.c **** * Global Variables:
 736:.\Generated_Source\PSoC4/CapSense.c **** *  CapSense_sensorRaw[] - used to store sensors raw data.
 737:.\Generated_Source\PSoC4/CapSense.c **** *
 738:.\Generated_Source\PSoC4/CapSense.c **** * Return:
 739:.\Generated_Source\PSoC4/CapSense.c **** *  None
 740:.\Generated_Source\PSoC4/CapSense.c **** *
 741:.\Generated_Source\PSoC4/CapSense.c **** * Side Effects: 
 742:.\Generated_Source\PSoC4/CapSense.c **** *  None
 743:.\Generated_Source\PSoC4/CapSense.c **** *
 744:.\Generated_Source\PSoC4/CapSense.c **** *******************************************************************************/
 745:.\Generated_Source\PSoC4/CapSense.c **** void CapSense_WriteSensorRaw(uint32 sensor, uint16 value)
 746:.\Generated_Source\PSoC4/CapSense.c **** {
 887              		.loc 1 746 0
 888              		.cfi_startproc
 889 0000 80B5     		push	{r7, lr}
 890              		.cfi_def_cfa_offset 8
 891              		.cfi_offset 7, -8
 892              		.cfi_offset 14, -4
 893 0002 82B0     		sub	sp, sp, #8
 894              		.cfi_def_cfa_offset 16
 895 0004 00AF     		add	r7, sp, #0
 896              		.cfi_def_cfa_register 7
 897 0006 7860     		str	r0, [r7, #4]
 898 0008 0A1C     		mov	r2, r1
 899 000a BB1C     		add	r3, r7, #2
 900 000c 1A80     		strh	r2, [r3]
 747:.\Generated_Source\PSoC4/CapSense.c **** 	CapSense_sensorRaw[sensor] = value;
ARM GAS  C:\DOCUME~1\Chuck\LOCALS~1\Temp\ccp9wtTg.s 			page 30


 901              		.loc 1 747 0
 902 000e 044B     		ldr	r3, .L53
 903 0010 7A68     		ldr	r2, [r7, #4]
 904 0012 5200     		lsl	r2, r2, #1
 905 0014 B91C     		add	r1, r7, #2
 906 0016 0988     		ldrh	r1, [r1]
 907 0018 D152     		strh	r1, [r2, r3]
 748:.\Generated_Source\PSoC4/CapSense.c **** }
 908              		.loc 1 748 0
 909 001a BD46     		mov	sp, r7
 910 001c 02B0     		add	sp, sp, #8
 911              		@ sp needed
 912 001e 80BD     		pop	{r7, pc}
 913              	.L54:
 914              		.align	2
 915              	.L53:
 916 0020 00000000 		.word	CapSense_sensorRaw
 917              		.cfi_endproc
 918              	.LFE44:
 919              		.size	CapSense_WriteSensorRaw, .-CapSense_WriteSensorRaw
 920              		.section	.text.CapSense_SetScanResolution,"ax",%progbits
 921              		.align	2
 922              		.global	CapSense_SetScanResolution
 923              		.code	16
 924              		.thumb_func
 925              		.type	CapSense_SetScanResolution, %function
 926              	CapSense_SetScanResolution:
 927              	.LFB45:
 749:.\Generated_Source\PSoC4/CapSense.c **** 
 750:.\Generated_Source\PSoC4/CapSense.c **** 
 751:.\Generated_Source\PSoC4/CapSense.c **** #if (CapSense_TUNING_METHOD != CapSense__TUNING_NONE)
 752:.\Generated_Source\PSoC4/CapSense.c **** 	/*******************************************************************************
 753:.\Generated_Source\PSoC4/CapSense.c **** 	* Function Name: CapSense_SetScanResolution
 754:.\Generated_Source\PSoC4/CapSense.c **** 	********************************************************************************
 755:.\Generated_Source\PSoC4/CapSense.c **** 	*
 756:.\Generated_Source\PSoC4/CapSense.c **** 	* Summary:
 757:.\Generated_Source\PSoC4/CapSense.c **** 	*  Sets a value of the sensor scan resolution for a widget. 
 758:.\Generated_Source\PSoC4/CapSense.c **** 	*  The MIN resolution can be set 8-bit. The MAX Resolution can be set 16 bit.
 759:.\Generated_Source\PSoC4/CapSense.c **** 	*  This function is not available for the tuning mode "None".
 760:.\Generated_Source\PSoC4/CapSense.c **** 	*
 761:.\Generated_Source\PSoC4/CapSense.c **** 	* Parameters:
 762:.\Generated_Source\PSoC4/CapSense.c **** 	*  widget:     Widget index.
 763:.\Generated_Source\PSoC4/CapSense.c **** 	*  resolution: Represents the resolution value. The following defines which are available in the
 764:.\Generated_Source\PSoC4/CapSense.c **** 	*			   CapSense.h file should be used:
 765:.\Generated_Source\PSoC4/CapSense.c **** 	*			   CapSense_RESOLUTION_6_BITS
 766:.\Generated_Source\PSoC4/CapSense.c **** 	*			   CapSense_RESOLUTION_7_BITS
 767:.\Generated_Source\PSoC4/CapSense.c **** 	*			   CapSense_RESOLUTION_8_BITS
 768:.\Generated_Source\PSoC4/CapSense.c **** 	*			   CapSense_RESOLUTION_9_BITS
 769:.\Generated_Source\PSoC4/CapSense.c **** 	*			   CapSense_RESOLUTION_10_BITS
 770:.\Generated_Source\PSoC4/CapSense.c **** 	*			   CapSense_RESOLUTION_11_BITS
 771:.\Generated_Source\PSoC4/CapSense.c **** 	*			   CapSense_RESOLUTION_12_BITS
 772:.\Generated_Source\PSoC4/CapSense.c **** 	*			   CapSense_RESOLUTION_13_BITS
 773:.\Generated_Source\PSoC4/CapSense.c **** 	*			   CapSense_RESOLUTION_14_BITS
 774:.\Generated_Source\PSoC4/CapSense.c **** 	*			   CapSense_RESOLUTION_15_BITS
 775:.\Generated_Source\PSoC4/CapSense.c **** 	*			   CapSense_RESOLUTION_16_BITS
 776:.\Generated_Source\PSoC4/CapSense.c **** 	*
 777:.\Generated_Source\PSoC4/CapSense.c **** 	* Return:
ARM GAS  C:\DOCUME~1\Chuck\LOCALS~1\Temp\ccp9wtTg.s 			page 31


 778:.\Generated_Source\PSoC4/CapSense.c **** 	*  None
 779:.\Generated_Source\PSoC4/CapSense.c **** 	*
 780:.\Generated_Source\PSoC4/CapSense.c **** 	* Global Variables:
 781:.\Generated_Source\PSoC4/CapSense.c **** 	*  CapSense_widgetResolution[] - used to store scan resolution of each widget.
 782:.\Generated_Source\PSoC4/CapSense.c **** 	*
 783:.\Generated_Source\PSoC4/CapSense.c **** 	* Side Effects: 
 784:.\Generated_Source\PSoC4/CapSense.c **** 	*  None
 785:.\Generated_Source\PSoC4/CapSense.c **** 	*
 786:.\Generated_Source\PSoC4/CapSense.c **** 	*******************************************************************************/
 787:.\Generated_Source\PSoC4/CapSense.c **** 	void CapSense_SetScanResolution(uint32 widget, uint32 resolution)
 788:.\Generated_Source\PSoC4/CapSense.c **** 	{ 
 928              		.loc 1 788 0
 929              		.cfi_startproc
 930 0000 80B5     		push	{r7, lr}
 931              		.cfi_def_cfa_offset 8
 932              		.cfi_offset 7, -8
 933              		.cfi_offset 14, -4
 934 0002 82B0     		sub	sp, sp, #8
 935              		.cfi_def_cfa_offset 16
 936 0004 00AF     		add	r7, sp, #0
 937              		.cfi_def_cfa_register 7
 938 0006 7860     		str	r0, [r7, #4]
 939 0008 3960     		str	r1, [r7]
 789:.\Generated_Source\PSoC4/CapSense.c ****         CapSense_widgetResolution[widget] = resolution;
 940              		.loc 1 789 0
 941 000a 044B     		ldr	r3, .L56
 942 000c 7A68     		ldr	r2, [r7, #4]
 943 000e 9200     		lsl	r2, r2, #2
 944 0010 3968     		ldr	r1, [r7]
 945 0012 D150     		str	r1, [r2, r3]
 790:.\Generated_Source\PSoC4/CapSense.c **** 	}
 946              		.loc 1 790 0
 947 0014 BD46     		mov	sp, r7
 948 0016 02B0     		add	sp, sp, #8
 949              		@ sp needed
 950 0018 80BD     		pop	{r7, pc}
 951              	.L57:
 952 001a C046     		.align	2
 953              	.L56:
 954 001c 00000000 		.word	CapSense_widgetResolution
 955              		.cfi_endproc
 956              	.LFE45:
 957              		.size	CapSense_SetScanResolution, .-CapSense_SetScanResolution
 958              		.section	.text.CapSense_GetScanResolution,"ax",%progbits
 959              		.align	2
 960              		.global	CapSense_GetScanResolution
 961              		.code	16
 962              		.thumb_func
 963              		.type	CapSense_GetScanResolution, %function
 964              	CapSense_GetScanResolution:
 965              	.LFB46:
 791:.\Generated_Source\PSoC4/CapSense.c **** #endif /* (CapSense_TUNING_METHOD != CapSense__TUNING_NONE) */
 792:.\Generated_Source\PSoC4/CapSense.c **** 
 793:.\Generated_Source\PSoC4/CapSense.c **** 
 794:.\Generated_Source\PSoC4/CapSense.c **** /*******************************************************************************
 795:.\Generated_Source\PSoC4/CapSense.c **** * Function Name: CapSense_GetScanResolution
 796:.\Generated_Source\PSoC4/CapSense.c **** ********************************************************************************
ARM GAS  C:\DOCUME~1\Chuck\LOCALS~1\Temp\ccp9wtTg.s 			page 32


 797:.\Generated_Source\PSoC4/CapSense.c **** *
 798:.\Generated_Source\PSoC4/CapSense.c **** * Summary:
 799:.\Generated_Source\PSoC4/CapSense.c **** *  Returns the resolution value for the appropriate sensor.
 800:.\Generated_Source\PSoC4/CapSense.c **** *  This function is not available for tuning mode "None".
 801:.\Generated_Source\PSoC4/CapSense.c **** *
 802:.\Generated_Source\PSoC4/CapSense.c **** * Parameters:
 803:.\Generated_Source\PSoC4/CapSense.c **** *  widget:     Widget index.
 804:.\Generated_Source\PSoC4/CapSense.c **** *
 805:.\Generated_Source\PSoC4/CapSense.c **** * Return:
 806:.\Generated_Source\PSoC4/CapSense.c **** *  resolution: Returns the resolution value for the appropriate sensor. 
 807:.\Generated_Source\PSoC4/CapSense.c **** *              The resolution values are defined in the CapSense.h file 
 808:.\Generated_Source\PSoC4/CapSense.c **** *              The defines are encountered below:
 809:.\Generated_Source\PSoC4/CapSense.c **** *			   CapSense_RESOLUTION_6_BITS
 810:.\Generated_Source\PSoC4/CapSense.c **** *			   CapSense_RESOLUTION_7_BITS
 811:.\Generated_Source\PSoC4/CapSense.c **** *			   CapSense_RESOLUTION_8_BITS
 812:.\Generated_Source\PSoC4/CapSense.c **** *			   CapSense_RESOLUTION_9_BITS
 813:.\Generated_Source\PSoC4/CapSense.c **** *			   CapSense_RESOLUTION_10_BITS
 814:.\Generated_Source\PSoC4/CapSense.c **** *			   CapSense_RESOLUTION_11_BITS
 815:.\Generated_Source\PSoC4/CapSense.c **** *			   CapSense_RESOLUTION_12_BITS
 816:.\Generated_Source\PSoC4/CapSense.c **** *			   CapSense_RESOLUTION_13_BITS
 817:.\Generated_Source\PSoC4/CapSense.c **** *			   CapSense_RESOLUTION_14_BITS
 818:.\Generated_Source\PSoC4/CapSense.c **** *			   CapSense_RESOLUTION_15_BITS
 819:.\Generated_Source\PSoC4/CapSense.c **** *			   CapSense_RESOLUTION_16_BITS
 820:.\Generated_Source\PSoC4/CapSense.c **** *
 821:.\Generated_Source\PSoC4/CapSense.c **** * Global Variables:
 822:.\Generated_Source\PSoC4/CapSense.c **** *  CapSense_widgetResolution[] - used to store scan resolution of every widget.
 823:.\Generated_Source\PSoC4/CapSense.c **** *
 824:.\Generated_Source\PSoC4/CapSense.c **** * Side Effects: 
 825:.\Generated_Source\PSoC4/CapSense.c **** *  None
 826:.\Generated_Source\PSoC4/CapSense.c **** *
 827:.\Generated_Source\PSoC4/CapSense.c **** *******************************************************************************/
 828:.\Generated_Source\PSoC4/CapSense.c **** uint32 CapSense_GetScanResolution(uint32 widget)
 829:.\Generated_Source\PSoC4/CapSense.c **** {
 966              		.loc 1 829 0
 967              		.cfi_startproc
 968 0000 80B5     		push	{r7, lr}
 969              		.cfi_def_cfa_offset 8
 970              		.cfi_offset 7, -8
 971              		.cfi_offset 14, -4
 972 0002 82B0     		sub	sp, sp, #8
 973              		.cfi_def_cfa_offset 16
 974 0004 00AF     		add	r7, sp, #0
 975              		.cfi_def_cfa_register 7
 976 0006 7860     		str	r0, [r7, #4]
 830:.\Generated_Source\PSoC4/CapSense.c **** 	return(CapSense_widgetResolution[widget]);
 977              		.loc 1 830 0
 978 0008 034B     		ldr	r3, .L60
 979 000a 7A68     		ldr	r2, [r7, #4]
 980 000c 9200     		lsl	r2, r2, #2
 981 000e D358     		ldr	r3, [r2, r3]
 831:.\Generated_Source\PSoC4/CapSense.c **** }
 982              		.loc 1 831 0
 983 0010 181C     		mov	r0, r3
 984 0012 BD46     		mov	sp, r7
 985 0014 02B0     		add	sp, sp, #8
 986              		@ sp needed
 987 0016 80BD     		pop	{r7, pc}
ARM GAS  C:\DOCUME~1\Chuck\LOCALS~1\Temp\ccp9wtTg.s 			page 33


 988              	.L61:
 989              		.align	2
 990              	.L60:
 991 0018 00000000 		.word	CapSense_widgetResolution
 992              		.cfi_endproc
 993              	.LFE46:
 994              		.size	CapSense_GetScanResolution, .-CapSense_GetScanResolution
 995              		.section	.text.CapSense_ClearSensors,"ax",%progbits
 996              		.align	2
 997              		.global	CapSense_ClearSensors
 998              		.code	16
 999              		.thumb_func
 1000              		.type	CapSense_ClearSensors, %function
 1001              	CapSense_ClearSensors:
 1002              	.LFB47:
 832:.\Generated_Source\PSoC4/CapSense.c **** 
 833:.\Generated_Source\PSoC4/CapSense.c **** 
 834:.\Generated_Source\PSoC4/CapSense.c **** /*******************************************************************************
 835:.\Generated_Source\PSoC4/CapSense.c **** * Function Name: CapSense_ClearSensors
 836:.\Generated_Source\PSoC4/CapSense.c **** ********************************************************************************
 837:.\Generated_Source\PSoC4/CapSense.c **** *
 838:.\Generated_Source\PSoC4/CapSense.c **** * Summary:
 839:.\Generated_Source\PSoC4/CapSense.c **** *  Resets all the sensors to the non-sampling state by sequentially disconnecting
 840:.\Generated_Source\PSoC4/CapSense.c **** *  all the sensors from Analog MUX Bus and putting them to an inactive state.
 841:.\Generated_Source\PSoC4/CapSense.c **** *
 842:.\Generated_Source\PSoC4/CapSense.c **** * Parameters:
 843:.\Generated_Source\PSoC4/CapSense.c **** *  None
 844:.\Generated_Source\PSoC4/CapSense.c **** *
 845:.\Generated_Source\PSoC4/CapSense.c **** * Return:
 846:.\Generated_Source\PSoC4/CapSense.c **** *  None
 847:.\Generated_Source\PSoC4/CapSense.c **** *
 848:.\Generated_Source\PSoC4/CapSense.c **** * Global Variables:
 849:.\Generated_Source\PSoC4/CapSense.c **** *  None
 850:.\Generated_Source\PSoC4/CapSense.c **** *
 851:.\Generated_Source\PSoC4/CapSense.c **** * Side Effects: 
 852:.\Generated_Source\PSoC4/CapSense.c **** *  None
 853:.\Generated_Source\PSoC4/CapSense.c **** *
 854:.\Generated_Source\PSoC4/CapSense.c **** *******************************************************************************/
 855:.\Generated_Source\PSoC4/CapSense.c **** void CapSense_ClearSensors(void)
 856:.\Generated_Source\PSoC4/CapSense.c **** {
 1003              		.loc 1 856 0
 1004              		.cfi_startproc
 1005 0000 80B5     		push	{r7, lr}
 1006              		.cfi_def_cfa_offset 8
 1007              		.cfi_offset 7, -8
 1008              		.cfi_offset 14, -4
 1009 0002 82B0     		sub	sp, sp, #8
 1010              		.cfi_def_cfa_offset 16
 1011 0004 00AF     		add	r7, sp, #0
 1012              		.cfi_def_cfa_register 7
 857:.\Generated_Source\PSoC4/CapSense.c **** 	uint32 snsIndex;
 858:.\Generated_Source\PSoC4/CapSense.c **** 	
 859:.\Generated_Source\PSoC4/CapSense.c ****     for (snsIndex = 0u; snsIndex < CapSense_TOTAL_SENSOR_COUNT; snsIndex++)
 1013              		.loc 1 859 0
 1014 0006 0023     		mov	r3, #0
 1015 0008 7B60     		str	r3, [r7, #4]
 1016 000a 06E0     		b	.L63
ARM GAS  C:\DOCUME~1\Chuck\LOCALS~1\Temp\ccp9wtTg.s 			page 34


 1017              	.L64:
 860:.\Generated_Source\PSoC4/CapSense.c ****     {
 861:.\Generated_Source\PSoC4/CapSense.c ****         CapSense_DisableScanSlot(snsIndex);
 1018              		.loc 1 861 0 discriminator 2
 1019 000c 7B68     		ldr	r3, [r7, #4]
 1020 000e 181C     		mov	r0, r3
 1021 0010 FFF7FEFF 		bl	CapSense_DisableSensor
 859:.\Generated_Source\PSoC4/CapSense.c ****     for (snsIndex = 0u; snsIndex < CapSense_TOTAL_SENSOR_COUNT; snsIndex++)
 1022              		.loc 1 859 0 discriminator 2
 1023 0014 7B68     		ldr	r3, [r7, #4]
 1024 0016 0133     		add	r3, r3, #1
 1025 0018 7B60     		str	r3, [r7, #4]
 1026              	.L63:
 859:.\Generated_Source\PSoC4/CapSense.c ****     for (snsIndex = 0u; snsIndex < CapSense_TOTAL_SENSOR_COUNT; snsIndex++)
 1027              		.loc 1 859 0 is_stmt 0 discriminator 1
 1028 001a 7B68     		ldr	r3, [r7, #4]
 1029 001c 002B     		cmp	r3, #0
 1030 001e F5D0     		beq	.L64
 862:.\Generated_Source\PSoC4/CapSense.c ****     }
 863:.\Generated_Source\PSoC4/CapSense.c **** }
 1031              		.loc 1 863 0 is_stmt 1
 1032 0020 BD46     		mov	sp, r7
 1033 0022 02B0     		add	sp, sp, #8
 1034              		@ sp needed
 1035 0024 80BD     		pop	{r7, pc}
 1036              		.cfi_endproc
 1037              	.LFE47:
 1038              		.size	CapSense_ClearSensors, .-CapSense_ClearSensors
 1039 0026 C046     		.section	.text.CapSense_EnableSensor,"ax",%progbits
 1040              		.align	2
 1041              		.global	CapSense_EnableSensor
 1042              		.code	16
 1043              		.thumb_func
 1044              		.type	CapSense_EnableSensor, %function
 1045              	CapSense_EnableSensor:
 1046              	.LFB48:
 864:.\Generated_Source\PSoC4/CapSense.c **** 
 865:.\Generated_Source\PSoC4/CapSense.c **** 
 866:.\Generated_Source\PSoC4/CapSense.c **** #if (CapSense_IS_COMPLEX_SCANSLOTS)
 867:.\Generated_Source\PSoC4/CapSense.c ****     /*******************************************************************************
 868:.\Generated_Source\PSoC4/CapSense.c ****     * Function Name: CapSense_EnableScanSlot
 869:.\Generated_Source\PSoC4/CapSense.c ****     ********************************************************************************
 870:.\Generated_Source\PSoC4/CapSense.c ****     *
 871:.\Generated_Source\PSoC4/CapSense.c ****     * Summary:
 872:.\Generated_Source\PSoC4/CapSense.c ****     *  Configures the selected slot to measure during the next measurement 
 873:.\Generated_Source\PSoC4/CapSense.c ****     *  cycle. The corresponding pin/pins are set to Analog High-Z mode and 
 874:.\Generated_Source\PSoC4/CapSense.c ****     *  connected to the Analog Mux Bus. This also enables the comparator function.
 875:.\Generated_Source\PSoC4/CapSense.c ****     *
 876:.\Generated_Source\PSoC4/CapSense.c ****     * Parameters:
 877:.\Generated_Source\PSoC4/CapSense.c ****     *  slot:  Slot number.
 878:.\Generated_Source\PSoC4/CapSense.c ****     *
 879:.\Generated_Source\PSoC4/CapSense.c ****     * Return:
 880:.\Generated_Source\PSoC4/CapSense.c ****     *  None
 881:.\Generated_Source\PSoC4/CapSense.c ****     *
 882:.\Generated_Source\PSoC4/CapSense.c ****     * Global Constants:
 883:.\Generated_Source\PSoC4/CapSense.c ****     *  CapSense_portTable[]  - used to store the port number that pin 
 884:.\Generated_Source\PSoC4/CapSense.c ****     *  belongs to for each sensor.
ARM GAS  C:\DOCUME~1\Chuck\LOCALS~1\Temp\ccp9wtTg.s 			page 35


 885:.\Generated_Source\PSoC4/CapSense.c ****     *  CapSense_maskTable[]  - used to store the pin within the port for 
 886:.\Generated_Source\PSoC4/CapSense.c ****     *  each sensor.
 887:.\Generated_Source\PSoC4/CapSense.c ****     *  CapSense_indexTable[] - used to store indexes of complex sensors.
 888:.\Generated_Source\PSoC4/CapSense.c ****     *  The offset and position in this array are stored in a port and mask table for 
 889:.\Generated_Source\PSoC4/CapSense.c ****     *  complex sensors.
 890:.\Generated_Source\PSoC4/CapSense.c ****     *  Bit 7 (msb) is used to define the sensor type: single or complex.
 891:.\Generated_Source\PSoC4/CapSense.c ****     *
 892:.\Generated_Source\PSoC4/CapSense.c **** 	* Side Effects: 
 893:.\Generated_Source\PSoC4/CapSense.c **** 	*  None
 894:.\Generated_Source\PSoC4/CapSense.c **** 	*
 895:.\Generated_Source\PSoC4/CapSense.c ****     *******************************************************************************/
 896:.\Generated_Source\PSoC4/CapSense.c ****     void CapSense_EnableScanSlot(uint32 slot)
 897:.\Generated_Source\PSoC4/CapSense.c ****     {
 898:.\Generated_Source\PSoC4/CapSense.c ****         uint8 j;
 899:.\Generated_Source\PSoC4/CapSense.c ****         uint8 snsNumber;
 900:.\Generated_Source\PSoC4/CapSense.c ****         const uint8 *index;
 901:.\Generated_Source\PSoC4/CapSense.c ****         /* Read sensor type: single or complex */
 902:.\Generated_Source\PSoC4/CapSense.c ****         uint8 snsType = CapSense_portTable[slot];
 903:.\Generated_Source\PSoC4/CapSense.c **** 
 904:.\Generated_Source\PSoC4/CapSense.c ****         /* Check if sensor is complex */
 905:.\Generated_Source\PSoC4/CapSense.c ****         if ((snsType & CapSense_COMPLEX_SS_FLAG) == 0u)
 906:.\Generated_Source\PSoC4/CapSense.c ****         {
 907:.\Generated_Source\PSoC4/CapSense.c ****             /* Enable sensor (single) */
 908:.\Generated_Source\PSoC4/CapSense.c ****             CapSense_EnableSensor(slot);
 909:.\Generated_Source\PSoC4/CapSense.c ****         }
 910:.\Generated_Source\PSoC4/CapSense.c ****         else
 911:.\Generated_Source\PSoC4/CapSense.c ****         {
 912:.\Generated_Source\PSoC4/CapSense.c ****             /* Enable complex sensor */
 913:.\Generated_Source\PSoC4/CapSense.c ****             snsType &= ~CapSense_COMPLEX_SS_FLAG;
 914:.\Generated_Source\PSoC4/CapSense.c ****             index = &CapSense_indexTable[snsType];
 915:.\Generated_Source\PSoC4/CapSense.c ****             snsNumber = CapSense_maskTable[slot];
 916:.\Generated_Source\PSoC4/CapSense.c ****                         
 917:.\Generated_Source\PSoC4/CapSense.c ****             for (j = 0u; j < snsNumber; j++)
 918:.\Generated_Source\PSoC4/CapSense.c ****             {
 919:.\Generated_Source\PSoC4/CapSense.c ****                 CapSense_EnableSensor(index[j]);
 920:.\Generated_Source\PSoC4/CapSense.c ****             }
 921:.\Generated_Source\PSoC4/CapSense.c ****         }
 922:.\Generated_Source\PSoC4/CapSense.c ****     }
 923:.\Generated_Source\PSoC4/CapSense.c ****     
 924:.\Generated_Source\PSoC4/CapSense.c ****     
 925:.\Generated_Source\PSoC4/CapSense.c ****     /*******************************************************************************
 926:.\Generated_Source\PSoC4/CapSense.c ****     * Function Name: CapSense_DisableScanSlot
 927:.\Generated_Source\PSoC4/CapSense.c ****     ********************************************************************************
 928:.\Generated_Source\PSoC4/CapSense.c ****     *
 929:.\Generated_Source\PSoC4/CapSense.c ****     * Summary:
 930:.\Generated_Source\PSoC4/CapSense.c ****     *  Disables the selected slot. The corresponding pin/pins is/are disconnected 
 931:.\Generated_Source\PSoC4/CapSense.c ****     *  from the Analog Mux Bus and connected to GND, High_Z or Shield electrode.
 932:.\Generated_Source\PSoC4/CapSense.c ****     *
 933:.\Generated_Source\PSoC4/CapSense.c ****     * Parameters:
 934:.\Generated_Source\PSoC4/CapSense.c ****     *  slot:  Slot number.
 935:.\Generated_Source\PSoC4/CapSense.c ****     *
 936:.\Generated_Source\PSoC4/CapSense.c ****     * Return:
 937:.\Generated_Source\PSoC4/CapSense.c ****     *  None
 938:.\Generated_Source\PSoC4/CapSense.c ****     *
 939:.\Generated_Source\PSoC4/CapSense.c ****     * Global Variables:
 940:.\Generated_Source\PSoC4/CapSense.c ****     *  CapSense_portTable[]  - used to store the port number that pin 
 941:.\Generated_Source\PSoC4/CapSense.c ****     *  belongs to for each sensor.
ARM GAS  C:\DOCUME~1\Chuck\LOCALS~1\Temp\ccp9wtTg.s 			page 36


 942:.\Generated_Source\PSoC4/CapSense.c ****     *  CapSense_maskTable[]  - used to store the pin within the port for 
 943:.\Generated_Source\PSoC4/CapSense.c ****     *  each sensor.
 944:.\Generated_Source\PSoC4/CapSense.c ****     *  CapSense_indexTable[] - used to store indexes of complex sensors.
 945:.\Generated_Source\PSoC4/CapSense.c ****     *  The offset and position in this array are stored in a port and mask table for 
 946:.\Generated_Source\PSoC4/CapSense.c ****     *  complex sensors.
 947:.\Generated_Source\PSoC4/CapSense.c ****     *  7bit(msb) is used to define the sensor type: single or complex.
 948:.\Generated_Source\PSoC4/CapSense.c ****     *
 949:.\Generated_Source\PSoC4/CapSense.c **** 	* Side Effects: 
 950:.\Generated_Source\PSoC4/CapSense.c **** 	*  None
 951:.\Generated_Source\PSoC4/CapSense.c **** 	*
 952:.\Generated_Source\PSoC4/CapSense.c ****     *******************************************************************************/
 953:.\Generated_Source\PSoC4/CapSense.c ****     void CapSense_DisableScanSlot(uint32 slot)
 954:.\Generated_Source\PSoC4/CapSense.c ****     {
 955:.\Generated_Source\PSoC4/CapSense.c ****         uint8 j;
 956:.\Generated_Source\PSoC4/CapSense.c ****         uint8 snsNumber;
 957:.\Generated_Source\PSoC4/CapSense.c ****         const uint8 *index;
 958:.\Generated_Source\PSoC4/CapSense.c **** 
 959:.\Generated_Source\PSoC4/CapSense.c ****         /* Read sensor type: single or complex */
 960:.\Generated_Source\PSoC4/CapSense.c ****         uint8 snsType = CapSense_portTable[slot];
 961:.\Generated_Source\PSoC4/CapSense.c ****         
 962:.\Generated_Source\PSoC4/CapSense.c ****         /* Check if sensor is complex */
 963:.\Generated_Source\PSoC4/CapSense.c ****         if ((snsType & CapSense_COMPLEX_SS_FLAG) == 0u)
 964:.\Generated_Source\PSoC4/CapSense.c ****         {
 965:.\Generated_Source\PSoC4/CapSense.c ****             /* Disable sensor (single) */
 966:.\Generated_Source\PSoC4/CapSense.c ****             CapSense_DisableSensor(slot);
 967:.\Generated_Source\PSoC4/CapSense.c ****         }
 968:.\Generated_Source\PSoC4/CapSense.c ****         else
 969:.\Generated_Source\PSoC4/CapSense.c ****         {
 970:.\Generated_Source\PSoC4/CapSense.c ****             /* Disable complex sensor */
 971:.\Generated_Source\PSoC4/CapSense.c ****             snsType &= ~CapSense_COMPLEX_SS_FLAG;
 972:.\Generated_Source\PSoC4/CapSense.c ****             index = &CapSense_indexTable[snsType];
 973:.\Generated_Source\PSoC4/CapSense.c ****             snsNumber = CapSense_maskTable[slot];
 974:.\Generated_Source\PSoC4/CapSense.c ****                         
 975:.\Generated_Source\PSoC4/CapSense.c ****             for (j=0; j < snsNumber; j++)
 976:.\Generated_Source\PSoC4/CapSense.c ****             {
 977:.\Generated_Source\PSoC4/CapSense.c ****                 CapSense_DisableSensor(index[j]);
 978:.\Generated_Source\PSoC4/CapSense.c ****             }
 979:.\Generated_Source\PSoC4/CapSense.c ****         } 
 980:.\Generated_Source\PSoC4/CapSense.c ****     }
 981:.\Generated_Source\PSoC4/CapSense.c **** #endif  /* CapSense_IS_COMPLEX_SCANSLOTS */
 982:.\Generated_Source\PSoC4/CapSense.c **** 
 983:.\Generated_Source\PSoC4/CapSense.c **** 
 984:.\Generated_Source\PSoC4/CapSense.c **** /*******************************************************************************
 985:.\Generated_Source\PSoC4/CapSense.c **** * Function Name: CapSense_EnableSensor
 986:.\Generated_Source\PSoC4/CapSense.c **** ********************************************************************************
 987:.\Generated_Source\PSoC4/CapSense.c **** *
 988:.\Generated_Source\PSoC4/CapSense.c **** * Summary:
 989:.\Generated_Source\PSoC4/CapSense.c **** *  Configures the selected sensor to measure during the next measurement cycle.
 990:.\Generated_Source\PSoC4/CapSense.c **** *  The corresponding pins are set to Analog High-Z mode and connected to the
 991:.\Generated_Source\PSoC4/CapSense.c **** *  Analog Mux Bus. This also enables the comparator function.
 992:.\Generated_Source\PSoC4/CapSense.c **** *
 993:.\Generated_Source\PSoC4/CapSense.c **** * Parameters:
 994:.\Generated_Source\PSoC4/CapSense.c **** *  sensor:  Sensor number.
 995:.\Generated_Source\PSoC4/CapSense.c **** *
 996:.\Generated_Source\PSoC4/CapSense.c **** * Return:
 997:.\Generated_Source\PSoC4/CapSense.c **** *  None
 998:.\Generated_Source\PSoC4/CapSense.c **** *
ARM GAS  C:\DOCUME~1\Chuck\LOCALS~1\Temp\ccp9wtTg.s 			page 37


 999:.\Generated_Source\PSoC4/CapSense.c **** * Global Variables:
1000:.\Generated_Source\PSoC4/CapSense.c **** *  CapSense_portTable[] - used to store the port number that pin 
1001:.\Generated_Source\PSoC4/CapSense.c **** *  belongs to for each sensor.
1002:.\Generated_Source\PSoC4/CapSense.c **** *  CapSense_pinShiftTbl[] - used to store position of pin that 
1003:.\Generated_Source\PSoC4/CapSense.c **** *  configured as sensor in port. 
1004:.\Generated_Source\PSoC4/CapSense.c **** *  CapSense_prtSelTbl[] - Contains pointers to the HSIOM 
1005:.\Generated_Source\PSoC4/CapSense.c **** *  registers for each port. 
1006:.\Generated_Source\PSoC4/CapSense.c **** *  CapSense_PrtCfgTb[] - Contains pointers to the port config 
1007:.\Generated_Source\PSoC4/CapSense.c **** *  registers for each port.
1008:.\Generated_Source\PSoC4/CapSense.c **** *
1009:.\Generated_Source\PSoC4/CapSense.c **** * Side Effects: 
1010:.\Generated_Source\PSoC4/CapSense.c **** *  None
1011:.\Generated_Source\PSoC4/CapSense.c **** *
1012:.\Generated_Source\PSoC4/CapSense.c **** *******************************************************************************/
1013:.\Generated_Source\PSoC4/CapSense.c **** __INLINE void CapSense_EnableSensor(uint32 sensor)
1014:.\Generated_Source\PSoC4/CapSense.c **** {
 1047              		.loc 1 1014 0
 1048              		.cfi_startproc
 1049 0000 90B5     		push	{r4, r7, lr}
 1050              		.cfi_def_cfa_offset 12
 1051              		.cfi_offset 4, -12
 1052              		.cfi_offset 7, -8
 1053              		.cfi_offset 14, -4
 1054 0002 87B0     		sub	sp, sp, #28
 1055              		.cfi_def_cfa_offset 40
 1056 0004 00AF     		add	r7, sp, #0
 1057              		.cfi_def_cfa_register 7
 1058 0006 7860     		str	r0, [r7, #4]
1015:.\Generated_Source\PSoC4/CapSense.c **** 	uint8  pinModeShift;
1016:.\Generated_Source\PSoC4/CapSense.c ****     uint8  pinHSIOMShift;
1017:.\Generated_Source\PSoC4/CapSense.c **** 	uint8 interruptState;
1018:.\Generated_Source\PSoC4/CapSense.c **** 	uint32 newRegisterValue;
1019:.\Generated_Source\PSoC4/CapSense.c ****     uint32 port;
1020:.\Generated_Source\PSoC4/CapSense.c **** 	
1021:.\Generated_Source\PSoC4/CapSense.c **** 	port = (uint32) CapSense_portTable[sensor];
 1059              		.loc 1 1021 0
 1060 0008 0323     		mov	r3, #3
 1061 000a 7B61     		str	r3, [r7, #20]
1022:.\Generated_Source\PSoC4/CapSense.c ****     pinModeShift = CapSense_pinShiftTbl[sensor]  * CapSense_PC_PIN_CFG_SIZE;
 1062              		.loc 1 1022 0
 1063 000c 0123     		mov	r3, #1
 1064 000e 391C     		mov	r1, r7
 1065 0010 1331     		add	r1, r1, #19
 1066 0012 1A1C     		add	r2, r3, #0
 1067 0014 9218     		add	r2, r2, r2
 1068 0016 D318     		add	r3, r2, r3
 1069 0018 0B70     		strb	r3, [r1]
1023:.\Generated_Source\PSoC4/CapSense.c ****     pinHSIOMShift = CapSense_pinShiftTbl[sensor] * CapSense_HSIOM_PIN_CFG_SIZE;
 1070              		.loc 1 1023 0
 1071 001a 0122     		mov	r2, #1
 1072 001c 3B1C     		mov	r3, r7
 1073 001e 1233     		add	r3, r3, #18
 1074 0020 9200     		lsl	r2, r2, #2
 1075 0022 1A70     		strb	r2, [r3]
1024:.\Generated_Source\PSoC4/CapSense.c **** 
1025:.\Generated_Source\PSoC4/CapSense.c **** 	interruptState = CyEnterCriticalSection();
 1076              		.loc 1 1025 0
ARM GAS  C:\DOCUME~1\Chuck\LOCALS~1\Temp\ccp9wtTg.s 			page 38


 1077 0024 3C1C     		mov	r4, r7
 1078 0026 1134     		add	r4, r4, #17
 1079 0028 FFF7FEFF 		bl	CyEnterCriticalSection
 1080 002c 031C     		mov	r3, r0
 1081 002e 2370     		strb	r3, [r4]
1026:.\Generated_Source\PSoC4/CapSense.c **** 	
1027:.\Generated_Source\PSoC4/CapSense.c **** 	newRegisterValue = *CapSense_prtSelTbl[port];
 1082              		.loc 1 1027 0
 1083 0030 1E4B     		ldr	r3, .L66
 1084 0032 7A69     		ldr	r2, [r7, #20]
 1085 0034 9200     		lsl	r2, r2, #2
 1086 0036 D358     		ldr	r3, [r2, r3]
 1087 0038 1B68     		ldr	r3, [r3]
 1088 003a FB60     		str	r3, [r7, #12]
1028:.\Generated_Source\PSoC4/CapSense.c **** 	newRegisterValue &= ~(CapSense_CSD_HSIOM_MASK << pinHSIOMShift);
 1089              		.loc 1 1028 0
 1090 003c 3B1C     		mov	r3, r7
 1091 003e 1233     		add	r3, r3, #18
 1092 0040 1B78     		ldrb	r3, [r3]
 1093 0042 0F22     		mov	r2, #15
 1094 0044 111C     		mov	r1, r2
 1095 0046 9940     		lsl	r1, r1, r3
 1096 0048 0B1C     		mov	r3, r1
 1097 004a DA43     		mvn	r2, r3
 1098 004c FB68     		ldr	r3, [r7, #12]
 1099 004e 1340     		and	r3, r2
 1100 0050 FB60     		str	r3, [r7, #12]
1029:.\Generated_Source\PSoC4/CapSense.c **** 	newRegisterValue |= (uint32)((uint32)CapSense_CSD_SENSE_PORT_MODE << pinHSIOMShift);
 1101              		.loc 1 1029 0
 1102 0052 3B1C     		mov	r3, r7
 1103 0054 1233     		add	r3, r3, #18
 1104 0056 1B78     		ldrb	r3, [r3]
 1105 0058 0422     		mov	r2, #4
 1106 005a 141C     		mov	r4, r2
 1107 005c 9C40     		lsl	r4, r4, r3
 1108 005e 231C     		mov	r3, r4
 1109 0060 FA68     		ldr	r2, [r7, #12]
 1110 0062 1343     		orr	r3, r2
 1111 0064 FB60     		str	r3, [r7, #12]
1030:.\Generated_Source\PSoC4/CapSense.c ****    
1031:.\Generated_Source\PSoC4/CapSense.c ****     *CapSense_prtCfgTbl[port] &= (uint32)~((uint32)CapSense_CSD_PIN_MODE_MASK << pinModeShift);
 1112              		.loc 1 1031 0
 1113 0066 124B     		ldr	r3, .L66+4
 1114 0068 7A69     		ldr	r2, [r7, #20]
 1115 006a 9200     		lsl	r2, r2, #2
 1116 006c D358     		ldr	r3, [r2, r3]
 1117 006e 104A     		ldr	r2, .L66+4
 1118 0070 7969     		ldr	r1, [r7, #20]
 1119 0072 8900     		lsl	r1, r1, #2
 1120 0074 8A58     		ldr	r2, [r1, r2]
 1121 0076 1268     		ldr	r2, [r2]
 1122 0078 391C     		mov	r1, r7
 1123 007a 1331     		add	r1, r1, #19
 1124 007c 0978     		ldrb	r1, [r1]
 1125 007e 0720     		mov	r0, #7
 1126 0080 041C     		mov	r4, r0
 1127 0082 8C40     		lsl	r4, r4, r1
ARM GAS  C:\DOCUME~1\Chuck\LOCALS~1\Temp\ccp9wtTg.s 			page 39


 1128 0084 211C     		mov	r1, r4
 1129 0086 C943     		mvn	r1, r1
 1130 0088 0A40     		and	r2, r1
 1131 008a 1A60     		str	r2, [r3]
1032:.\Generated_Source\PSoC4/CapSense.c ****     *CapSense_prtSelTbl[port] = newRegisterValue;
 1132              		.loc 1 1032 0
 1133 008c 074B     		ldr	r3, .L66
 1134 008e 7A69     		ldr	r2, [r7, #20]
 1135 0090 9200     		lsl	r2, r2, #2
 1136 0092 D358     		ldr	r3, [r2, r3]
 1137 0094 FA68     		ldr	r2, [r7, #12]
 1138 0096 1A60     		str	r2, [r3]
1033:.\Generated_Source\PSoC4/CapSense.c **** 	
1034:.\Generated_Source\PSoC4/CapSense.c **** 	CyExitCriticalSection(interruptState);
 1139              		.loc 1 1034 0
 1140 0098 3B1C     		mov	r3, r7
 1141 009a 1133     		add	r3, r3, #17
 1142 009c 1B78     		ldrb	r3, [r3]
 1143 009e 181C     		mov	r0, r3
 1144 00a0 FFF7FEFF 		bl	CyExitCriticalSection
1035:.\Generated_Source\PSoC4/CapSense.c **** }
 1145              		.loc 1 1035 0
 1146 00a4 BD46     		mov	sp, r7
 1147 00a6 07B0     		add	sp, sp, #28
 1148              		@ sp needed
 1149 00a8 90BD     		pop	{r4, r7, pc}
 1150              	.L67:
 1151 00aa C046     		.align	2
 1152              	.L66:
 1153 00ac 00000000 		.word	CapSense_prtSelTbl
 1154 00b0 00000000 		.word	CapSense_prtCfgTbl
 1155              		.cfi_endproc
 1156              	.LFE48:
 1157              		.size	CapSense_EnableSensor, .-CapSense_EnableSensor
 1158              		.section	.text.CapSense_DisableSensor,"ax",%progbits
 1159              		.align	2
 1160              		.global	CapSense_DisableSensor
 1161              		.code	16
 1162              		.thumb_func
 1163              		.type	CapSense_DisableSensor, %function
 1164              	CapSense_DisableSensor:
 1165              	.LFB49:
1036:.\Generated_Source\PSoC4/CapSense.c **** 
1037:.\Generated_Source\PSoC4/CapSense.c **** 
1038:.\Generated_Source\PSoC4/CapSense.c **** /*******************************************************************************
1039:.\Generated_Source\PSoC4/CapSense.c **** * Function Name: CapSense_DisableSensor
1040:.\Generated_Source\PSoC4/CapSense.c **** ********************************************************************************
1041:.\Generated_Source\PSoC4/CapSense.c **** *
1042:.\Generated_Source\PSoC4/CapSense.c **** * Summary:
1043:.\Generated_Source\PSoC4/CapSense.c **** *  Disables the selected sensor. The corresponding pin is disconnected from the
1044:.\Generated_Source\PSoC4/CapSense.c **** *  Analog Mux Bus and connected to GND, High_Z or Shield electrode.
1045:.\Generated_Source\PSoC4/CapSense.c **** *
1046:.\Generated_Source\PSoC4/CapSense.c **** * Parameters:
1047:.\Generated_Source\PSoC4/CapSense.c **** *  sensor:  Sensor number
1048:.\Generated_Source\PSoC4/CapSense.c **** *
1049:.\Generated_Source\PSoC4/CapSense.c **** * Return:
1050:.\Generated_Source\PSoC4/CapSense.c **** *  None
ARM GAS  C:\DOCUME~1\Chuck\LOCALS~1\Temp\ccp9wtTg.s 			page 40


1051:.\Generated_Source\PSoC4/CapSense.c **** *
1052:.\Generated_Source\PSoC4/CapSense.c **** * Global Variables:
1053:.\Generated_Source\PSoC4/CapSense.c **** *  CapSense_portTable[] - used to store the port number that pin 
1054:.\Generated_Source\PSoC4/CapSense.c **** *  belongs to for each sensor.
1055:.\Generated_Source\PSoC4/CapSense.c **** *  CapSense_pinShiftTbl[] - used to store position of pin that 
1056:.\Generated_Source\PSoC4/CapSense.c **** *  configured as a sensor in the port. 
1057:.\Generated_Source\PSoC4/CapSense.c **** *  CapSense_prtSelTbl[] - Contains pointers to the HSIOM 
1058:.\Generated_Source\PSoC4/CapSense.c **** *  registers for each port. 
1059:.\Generated_Source\PSoC4/CapSense.c **** *  CapSense_PrtCfgTb[] - Contains pointers to the port config 
1060:.\Generated_Source\PSoC4/CapSense.c **** *  registers for each port.
1061:.\Generated_Source\PSoC4/CapSense.c **** *
1062:.\Generated_Source\PSoC4/CapSense.c **** * Side Effects: 
1063:.\Generated_Source\PSoC4/CapSense.c **** *  None
1064:.\Generated_Source\PSoC4/CapSense.c **** *
1065:.\Generated_Source\PSoC4/CapSense.c **** *******************************************************************************/
1066:.\Generated_Source\PSoC4/CapSense.c **** __INLINE void CapSense_DisableSensor(uint32 sensor)
1067:.\Generated_Source\PSoC4/CapSense.c **** {
 1166              		.loc 1 1067 0
 1167              		.cfi_startproc
 1168 0000 90B5     		push	{r4, r7, lr}
 1169              		.cfi_def_cfa_offset 12
 1170              		.cfi_offset 4, -12
 1171              		.cfi_offset 7, -8
 1172              		.cfi_offset 14, -4
 1173 0002 89B0     		sub	sp, sp, #36
 1174              		.cfi_def_cfa_offset 48
 1175 0004 00AF     		add	r7, sp, #0
 1176              		.cfi_def_cfa_register 7
 1177 0006 7860     		str	r0, [r7, #4]
1068:.\Generated_Source\PSoC4/CapSense.c ****     uint8 interruptState;
1069:.\Generated_Source\PSoC4/CapSense.c **** 	uint32 newRegisterValue;
1070:.\Generated_Source\PSoC4/CapSense.c **** 	
1071:.\Generated_Source\PSoC4/CapSense.c ****     uint32 port = (uint32) CapSense_portTable[sensor];
 1178              		.loc 1 1071 0
 1179 0008 0323     		mov	r3, #3
 1180 000a 7B61     		str	r3, [r7, #20]
1072:.\Generated_Source\PSoC4/CapSense.c ****     uint8  pinHSIOMShift = CapSense_pinShiftTbl[sensor] * CapSense_HSIOM_PIN_CFG_SIZE;
 1181              		.loc 1 1072 0
 1182 000c 0122     		mov	r2, #1
 1183 000e 3B1C     		mov	r3, r7
 1184 0010 1333     		add	r3, r3, #19
 1185 0012 9200     		lsl	r2, r2, #2
 1186 0014 1A70     		strb	r2, [r3]
1073:.\Generated_Source\PSoC4/CapSense.c ****     uint8  pinModeShift = CapSense_pinShiftTbl[sensor]  * CapSense_PC_PIN_CFG_SIZE;
 1187              		.loc 1 1073 0
 1188 0016 0123     		mov	r3, #1
 1189 0018 391C     		mov	r1, r7
 1190 001a 1231     		add	r1, r1, #18
 1191 001c 1A1C     		add	r2, r3, #0
 1192 001e 9218     		add	r2, r2, r2
 1193 0020 D318     		add	r3, r2, r3
 1194 0022 0B70     		strb	r3, [r1]
1074:.\Generated_Source\PSoC4/CapSense.c **** 
1075:.\Generated_Source\PSoC4/CapSense.c **** 	uint32 inactiveConnect = CapSense_SNS_HIZANALOG_CONNECT;
 1195              		.loc 1 1075 0
 1196 0024 0023     		mov	r3, #0
 1197 0026 FB61     		str	r3, [r7, #28]
ARM GAS  C:\DOCUME~1\Chuck\LOCALS~1\Temp\ccp9wtTg.s 			page 41


1076:.\Generated_Source\PSoC4/CapSense.c **** 	uint32 sensorState = CapSense_unscannedSnsDriveMode[sensor];
 1198              		.loc 1 1076 0
 1199 0028 324A     		ldr	r2, .L72
 1200 002a 7B68     		ldr	r3, [r7, #4]
 1201 002c D318     		add	r3, r2, r3
 1202 002e 1B78     		ldrb	r3, [r3]
 1203 0030 BB61     		str	r3, [r7, #24]
1077:.\Generated_Source\PSoC4/CapSense.c **** 
1078:.\Generated_Source\PSoC4/CapSense.c ****     *CapSense_prtSelTbl[port] &= ~(CapSense_CSD_HSIOM_MASK << pinHSIOMShift);
 1204              		.loc 1 1078 0
 1205 0032 314B     		ldr	r3, .L72+4
 1206 0034 7A69     		ldr	r2, [r7, #20]
 1207 0036 9200     		lsl	r2, r2, #2
 1208 0038 D358     		ldr	r3, [r2, r3]
 1209 003a 2F4A     		ldr	r2, .L72+4
 1210 003c 7969     		ldr	r1, [r7, #20]
 1211 003e 8900     		lsl	r1, r1, #2
 1212 0040 8A58     		ldr	r2, [r1, r2]
 1213 0042 1268     		ldr	r2, [r2]
 1214 0044 391C     		mov	r1, r7
 1215 0046 1331     		add	r1, r1, #19
 1216 0048 0978     		ldrb	r1, [r1]
 1217 004a 0F20     		mov	r0, #15
 1218 004c 041C     		mov	r4, r0
 1219 004e 8C40     		lsl	r4, r4, r1
 1220 0050 211C     		mov	r1, r4
 1221 0052 C943     		mvn	r1, r1
 1222 0054 0A40     		and	r2, r1
 1223 0056 1A60     		str	r2, [r3]
1079:.\Generated_Source\PSoC4/CapSense.c **** 
1080:.\Generated_Source\PSoC4/CapSense.c **** 	#if(CapSense_IS_SHIELD_ENABLE == 0)
1081:.\Generated_Source\PSoC4/CapSense.c **** 	    /* Connected to Ground if shield is disabled */
1082:.\Generated_Source\PSoC4/CapSense.c **** 	    if(sensorState == CapSense__SHIELD)
 1224              		.loc 1 1082 0
 1225 0058 BB69     		ldr	r3, [r7, #24]
 1226 005a 022B     		cmp	r3, #2
 1227 005c 01D1     		bne	.L69
1083:.\Generated_Source\PSoC4/CapSense.c **** 		{
1084:.\Generated_Source\PSoC4/CapSense.c **** 			sensorState = CapSense__GROUND;
 1228              		.loc 1 1084 0
 1229 005e 0023     		mov	r3, #0
 1230 0060 BB61     		str	r3, [r7, #24]
 1231              	.L69:
1085:.\Generated_Source\PSoC4/CapSense.c **** 		}
1086:.\Generated_Source\PSoC4/CapSense.c **** 	#endif /* (CapSense_IS_SHIELD_ENABLE == 0) */
1087:.\Generated_Source\PSoC4/CapSense.c **** 
1088:.\Generated_Source\PSoC4/CapSense.c **** 	if(sensorState != (uint32)CapSense__SHIELD)
 1232              		.loc 1 1088 0
 1233 0062 BB69     		ldr	r3, [r7, #24]
 1234 0064 022B     		cmp	r3, #2
 1235 0066 42D0     		beq	.L68
1089:.\Generated_Source\PSoC4/CapSense.c **** 	{
1090:.\Generated_Source\PSoC4/CapSense.c **** 	    if(sensorState != (uint32)CapSense__HIZ_ANALOG)
 1236              		.loc 1 1090 0
 1237 0068 BB69     		ldr	r3, [r7, #24]
 1238 006a 012B     		cmp	r3, #1
 1239 006c 01D0     		beq	.L71
ARM GAS  C:\DOCUME~1\Chuck\LOCALS~1\Temp\ccp9wtTg.s 			page 42


1091:.\Generated_Source\PSoC4/CapSense.c **** 		{   
1092:.\Generated_Source\PSoC4/CapSense.c **** 		    /* Connected to Ground */
1093:.\Generated_Source\PSoC4/CapSense.c **** 		    inactiveConnect = CapSense_SNS_GROUND_CONNECT;
 1240              		.loc 1 1093 0
 1241 006e 0623     		mov	r3, #6
 1242 0070 FB61     		str	r3, [r7, #28]
 1243              	.L71:
1094:.\Generated_Source\PSoC4/CapSense.c **** 		}
1095:.\Generated_Source\PSoC4/CapSense.c **** 		
1096:.\Generated_Source\PSoC4/CapSense.c ****         interruptState = CyEnterCriticalSection();
 1244              		.loc 1 1096 0
 1245 0072 3C1C     		mov	r4, r7
 1246 0074 1134     		add	r4, r4, #17
 1247 0076 FFF7FEFF 		bl	CyEnterCriticalSection
 1248 007a 031C     		mov	r3, r0
 1249 007c 2370     		strb	r3, [r4]
1097:.\Generated_Source\PSoC4/CapSense.c **** 
1098:.\Generated_Source\PSoC4/CapSense.c ****         /* Set drive mode */
1099:.\Generated_Source\PSoC4/CapSense.c ****     	newRegisterValue = *CapSense_prtCfgTbl[port];
 1250              		.loc 1 1099 0
 1251 007e 1F4B     		ldr	r3, .L72+8
 1252 0080 7A69     		ldr	r2, [r7, #20]
 1253 0082 9200     		lsl	r2, r2, #2
 1254 0084 D358     		ldr	r3, [r2, r3]
 1255 0086 1B68     		ldr	r3, [r3]
 1256 0088 FB60     		str	r3, [r7, #12]
1100:.\Generated_Source\PSoC4/CapSense.c ****     	newRegisterValue &= ~(CapSense_CSD_PIN_MODE_MASK << pinModeShift);
 1257              		.loc 1 1100 0
 1258 008a 3B1C     		mov	r3, r7
 1259 008c 1233     		add	r3, r3, #18
 1260 008e 1B78     		ldrb	r3, [r3]
 1261 0090 0722     		mov	r2, #7
 1262 0092 111C     		mov	r1, r2
 1263 0094 9940     		lsl	r1, r1, r3
 1264 0096 0B1C     		mov	r3, r1
 1265 0098 DA43     		mvn	r2, r3
 1266 009a FB68     		ldr	r3, [r7, #12]
 1267 009c 1340     		and	r3, r2
 1268 009e FB60     		str	r3, [r7, #12]
1101:.\Generated_Source\PSoC4/CapSense.c ****     	newRegisterValue |=  (uint32)(inactiveConnect << pinModeShift);
 1269              		.loc 1 1101 0
 1270 00a0 3B1C     		mov	r3, r7
 1271 00a2 1233     		add	r3, r3, #18
 1272 00a4 1B78     		ldrb	r3, [r3]
 1273 00a6 FA69     		ldr	r2, [r7, #28]
 1274 00a8 141C     		mov	r4, r2
 1275 00aa 9C40     		lsl	r4, r4, r3
 1276 00ac 231C     		mov	r3, r4
 1277 00ae FA68     		ldr	r2, [r7, #12]
 1278 00b0 1343     		orr	r3, r2
 1279 00b2 FB60     		str	r3, [r7, #12]
1102:.\Generated_Source\PSoC4/CapSense.c ****         *CapSense_prtCfgTbl[port] =  newRegisterValue;
 1280              		.loc 1 1102 0
 1281 00b4 114B     		ldr	r3, .L72+8
 1282 00b6 7A69     		ldr	r2, [r7, #20]
 1283 00b8 9200     		lsl	r2, r2, #2
 1284 00ba D358     		ldr	r3, [r2, r3]
ARM GAS  C:\DOCUME~1\Chuck\LOCALS~1\Temp\ccp9wtTg.s 			page 43


 1285 00bc FA68     		ldr	r2, [r7, #12]
 1286 00be 1A60     		str	r2, [r3]
1103:.\Generated_Source\PSoC4/CapSense.c ****         
1104:.\Generated_Source\PSoC4/CapSense.c ****         CyExitCriticalSection(interruptState);
 1287              		.loc 1 1104 0
 1288 00c0 3B1C     		mov	r3, r7
 1289 00c2 1133     		add	r3, r3, #17
 1290 00c4 1B78     		ldrb	r3, [r3]
 1291 00c6 181C     		mov	r0, r3
 1292 00c8 FFF7FEFF 		bl	CyExitCriticalSection
1105:.\Generated_Source\PSoC4/CapSense.c **** 
1106:.\Generated_Source\PSoC4/CapSense.c ****     	*CapSense_prtDRTbl[port]  &=  (uint32)~(uint32)((uint32)1u << CapSense_pinShiftTbl[sensor]); 
 1293              		.loc 1 1106 0
 1294 00cc 0C4B     		ldr	r3, .L72+12
 1295 00ce 7A69     		ldr	r2, [r7, #20]
 1296 00d0 9200     		lsl	r2, r2, #2
 1297 00d2 D358     		ldr	r3, [r2, r3]
 1298 00d4 0A4A     		ldr	r2, .L72+12
 1299 00d6 7969     		ldr	r1, [r7, #20]
 1300 00d8 8900     		lsl	r1, r1, #2
 1301 00da 8A58     		ldr	r2, [r1, r2]
 1302 00dc 1268     		ldr	r2, [r2]
 1303 00de 0121     		mov	r1, #1
 1304 00e0 0120     		mov	r0, #1
 1305 00e2 041C     		mov	r4, r0
 1306 00e4 8C40     		lsl	r4, r4, r1
 1307 00e6 211C     		mov	r1, r4
 1308 00e8 C943     		mvn	r1, r1
 1309 00ea 0A40     		and	r2, r1
 1310 00ec 1A60     		str	r2, [r3]
 1311              	.L68:
1107:.\Generated_Source\PSoC4/CapSense.c ****     }
1108:.\Generated_Source\PSoC4/CapSense.c **** 	#if(CapSense_IS_SHIELD_ENABLE != 0)
1109:.\Generated_Source\PSoC4/CapSense.c **** 	else
1110:.\Generated_Source\PSoC4/CapSense.c **** 	{
1111:.\Generated_Source\PSoC4/CapSense.c **** 		/* Connect to Shield */
1112:.\Generated_Source\PSoC4/CapSense.c **** 		*CapSense_prtSelTbl[port] |= (CapSense_CSD_SHIELD_PORT_MODE << pinHSIOMShift);
1113:.\Generated_Source\PSoC4/CapSense.c **** 	}
1114:.\Generated_Source\PSoC4/CapSense.c **** 	#endif /* (CapSense_IS_SHIELD_ENABLE) */
1115:.\Generated_Source\PSoC4/CapSense.c **** }
 1312              		.loc 1 1115 0
 1313 00ee BD46     		mov	sp, r7
 1314 00f0 09B0     		add	sp, sp, #36
 1315              		@ sp needed
 1316 00f2 90BD     		pop	{r4, r7, pc}
 1317              	.L73:
 1318              		.align	2
 1319              	.L72:
 1320 00f4 00000000 		.word	CapSense_unscannedSnsDriveMode
 1321 00f8 00000000 		.word	CapSense_prtSelTbl
 1322 00fc 00000000 		.word	CapSense_prtCfgTbl
 1323 0100 00000000 		.word	CapSense_prtDRTbl
 1324              		.cfi_endproc
 1325              	.LFE49:
 1326              		.size	CapSense_DisableSensor, .-CapSense_DisableSensor
 1327              		.section	.text.CapSense_SetDriveModeAllPins,"ax",%progbits
 1328              		.align	2
ARM GAS  C:\DOCUME~1\Chuck\LOCALS~1\Temp\ccp9wtTg.s 			page 44


 1329              		.global	CapSense_SetDriveModeAllPins
 1330              		.code	16
 1331              		.thumb_func
 1332              		.type	CapSense_SetDriveModeAllPins, %function
 1333              	CapSense_SetDriveModeAllPins:
 1334              	.LFB50:
1116:.\Generated_Source\PSoC4/CapSense.c **** 
1117:.\Generated_Source\PSoC4/CapSense.c **** 
1118:.\Generated_Source\PSoC4/CapSense.c **** /*******************************************************************************
1119:.\Generated_Source\PSoC4/CapSense.c **** * Function Name: CapSense_SetDriveModeAllPins
1120:.\Generated_Source\PSoC4/CapSense.c **** ********************************************************************************
1121:.\Generated_Source\PSoC4/CapSense.c **** *
1122:.\Generated_Source\PSoC4/CapSense.c **** * Summary:
1123:.\Generated_Source\PSoC4/CapSense.c **** * This API sets the drive mode of port pins used by the CapSense
1124:.\Generated_Source\PSoC4/CapSense.c **** * component (sensors, guard, shield, shield tank and Cmod) to drive the 
1125:.\Generated_Source\PSoC4/CapSense.c **** * mode specified by the argument.
1126:.\Generated_Source\PSoC4/CapSense.c **** *
1127:.\Generated_Source\PSoC4/CapSense.c **** * Parameters:
1128:.\Generated_Source\PSoC4/CapSense.c **** *  driveMode:  Drive mode definition.
1129:.\Generated_Source\PSoC4/CapSense.c **** *
1130:.\Generated_Source\PSoC4/CapSense.c **** * Return:
1131:.\Generated_Source\PSoC4/CapSense.c **** *  None
1132:.\Generated_Source\PSoC4/CapSense.c **** *
1133:.\Generated_Source\PSoC4/CapSense.c **** * Global Variables:
1134:.\Generated_Source\PSoC4/CapSense.c **** *  CapSense_portTable[] - used to store the port number that pin 
1135:.\Generated_Source\PSoC4/CapSense.c **** *  belongs to for each sensor.
1136:.\Generated_Source\PSoC4/CapSense.c **** *  CapSense_pinShiftTbl[] - used to store position of pin that 
1137:.\Generated_Source\PSoC4/CapSense.c **** *  configured as a sensor in the port. 
1138:.\Generated_Source\PSoC4/CapSense.c **** *
1139:.\Generated_Source\PSoC4/CapSense.c **** * Side Effects: 
1140:.\Generated_Source\PSoC4/CapSense.c **** *  This API shall be called only after CapSense component is stopped.
1141:.\Generated_Source\PSoC4/CapSense.c **** *
1142:.\Generated_Source\PSoC4/CapSense.c **** *******************************************************************************/
1143:.\Generated_Source\PSoC4/CapSense.c **** void CapSense_SetDriveModeAllPins(uint32 driveMode)
1144:.\Generated_Source\PSoC4/CapSense.c **** {
 1335              		.loc 1 1144 0
 1336              		.cfi_startproc
 1337 0000 80B5     		push	{r7, lr}
 1338              		.cfi_def_cfa_offset 8
 1339              		.cfi_offset 7, -8
 1340              		.cfi_offset 14, -4
 1341 0002 86B0     		sub	sp, sp, #24
 1342              		.cfi_def_cfa_offset 32
 1343 0004 00AF     		add	r7, sp, #0
 1344              		.cfi_def_cfa_register 7
 1345 0006 7860     		str	r0, [r7, #4]
1145:.\Generated_Source\PSoC4/CapSense.c **** 	uint32 curSensor;
1146:.\Generated_Source\PSoC4/CapSense.c **** 	uint32 prtNumberTmp;
1147:.\Generated_Source\PSoC4/CapSense.c **** 	uint32 pinNumberTmp;
1148:.\Generated_Source\PSoC4/CapSense.c **** 	
1149:.\Generated_Source\PSoC4/CapSense.c **** 	for(curSensor = 0u; curSensor < CapSense_TOTAL_SENSOR_COUNT; curSensor++)
 1346              		.loc 1 1149 0
 1347 0008 0023     		mov	r3, #0
 1348 000a 7B61     		str	r3, [r7, #20]
 1349 000c 0EE0     		b	.L75
 1350              	.L76:
1150:.\Generated_Source\PSoC4/CapSense.c **** 	{
ARM GAS  C:\DOCUME~1\Chuck\LOCALS~1\Temp\ccp9wtTg.s 			page 45


1151:.\Generated_Source\PSoC4/CapSense.c **** 		prtNumberTmp = CapSense_portTable[curSensor];
 1351              		.loc 1 1151 0 discriminator 2
 1352 000e 0323     		mov	r3, #3
 1353 0010 3B61     		str	r3, [r7, #16]
1152:.\Generated_Source\PSoC4/CapSense.c **** 		pinNumberTmp = CapSense_pinShiftTbl[curSensor];
 1354              		.loc 1 1152 0 discriminator 2
 1355 0012 0123     		mov	r3, #1
 1356 0014 FB60     		str	r3, [r7, #12]
1153:.\Generated_Source\PSoC4/CapSense.c **** 		
1154:.\Generated_Source\PSoC4/CapSense.c **** 		CapSense_SetPinDriveMode(driveMode, pinNumberTmp, prtNumberTmp);
 1357              		.loc 1 1154 0 discriminator 2
 1358 0016 7968     		ldr	r1, [r7, #4]
 1359 0018 FA68     		ldr	r2, [r7, #12]
 1360 001a 3B69     		ldr	r3, [r7, #16]
 1361 001c 081C     		mov	r0, r1
 1362 001e 111C     		mov	r1, r2
 1363 0020 1A1C     		mov	r2, r3
 1364 0022 FFF7FEFF 		bl	CapSense_SetPinDriveMode
1149:.\Generated_Source\PSoC4/CapSense.c **** 	for(curSensor = 0u; curSensor < CapSense_TOTAL_SENSOR_COUNT; curSensor++)
 1365              		.loc 1 1149 0 discriminator 2
 1366 0026 7B69     		ldr	r3, [r7, #20]
 1367 0028 0133     		add	r3, r3, #1
 1368 002a 7B61     		str	r3, [r7, #20]
 1369              	.L75:
1149:.\Generated_Source\PSoC4/CapSense.c **** 	for(curSensor = 0u; curSensor < CapSense_TOTAL_SENSOR_COUNT; curSensor++)
 1370              		.loc 1 1149 0 is_stmt 0 discriminator 1
 1371 002c 7B69     		ldr	r3, [r7, #20]
 1372 002e 002B     		cmp	r3, #0
 1373 0030 EDD0     		beq	.L76
1155:.\Generated_Source\PSoC4/CapSense.c **** 	}
1156:.\Generated_Source\PSoC4/CapSense.c **** 	
1157:.\Generated_Source\PSoC4/CapSense.c **** 	CapSense_SetPinDriveMode(driveMode, (uint32)CapSense_CMOD_PIN_NUMBER, (uint32)CapSense_CMOD_PRT_NU
 1374              		.loc 1 1157 0 is_stmt 1
 1375 0032 7B68     		ldr	r3, [r7, #4]
 1376 0034 181C     		mov	r0, r3
 1377 0036 0221     		mov	r1, #2
 1378 0038 0422     		mov	r2, #4
 1379 003a FFF7FEFF 		bl	CapSense_SetPinDriveMode
1158:.\Generated_Source\PSoC4/CapSense.c **** 	
1159:.\Generated_Source\PSoC4/CapSense.c **** 	#if(0u != CapSense_CSH_TANK_ENABLE)
1160:.\Generated_Source\PSoC4/CapSense.c **** 		CapSense_SetPinDriveMode(driveMode, (uint32)CapSense_CTANK_PIN_NUMBER, (uint32)CapSense_CTANK_PRT
1161:.\Generated_Source\PSoC4/CapSense.c **** 	#endif /* (0u != CapSense_CSH_TANK_ENABLE) */	
1162:.\Generated_Source\PSoC4/CapSense.c **** 	
1163:.\Generated_Source\PSoC4/CapSense.c **** 	#if(0u != CapSense_IS_SHIELD_ENABLE)
1164:.\Generated_Source\PSoC4/CapSense.c **** 		CapSense_SetPinDriveMode(driveMode, (uint32)CapSense_SHIELD_PIN_NUMBER, (uint32)CapSense_SHIELD_P
1165:.\Generated_Source\PSoC4/CapSense.c **** 	#endif /* (0u != CapSense_IS_SHIELD_ENABLE) */	
1166:.\Generated_Source\PSoC4/CapSense.c **** }
 1380              		.loc 1 1166 0
 1381 003e BD46     		mov	sp, r7
 1382 0040 06B0     		add	sp, sp, #24
 1383              		@ sp needed
 1384 0042 80BD     		pop	{r7, pc}
 1385              		.cfi_endproc
 1386              	.LFE50:
 1387              		.size	CapSense_SetDriveModeAllPins, .-CapSense_SetDriveModeAllPins
 1388              		.section	.text.CapSense_RestoreDriveModeAllPins,"ax",%progbits
 1389              		.align	2
ARM GAS  C:\DOCUME~1\Chuck\LOCALS~1\Temp\ccp9wtTg.s 			page 46


 1390              		.global	CapSense_RestoreDriveModeAllPins
 1391              		.code	16
 1392              		.thumb_func
 1393              		.type	CapSense_RestoreDriveModeAllPins, %function
 1394              	CapSense_RestoreDriveModeAllPins:
 1395              	.LFB51:
1167:.\Generated_Source\PSoC4/CapSense.c **** 
1168:.\Generated_Source\PSoC4/CapSense.c **** 
1169:.\Generated_Source\PSoC4/CapSense.c **** /*******************************************************************************
1170:.\Generated_Source\PSoC4/CapSense.c **** * Function Name: CapSense_RestoreDriveModeAllPins
1171:.\Generated_Source\PSoC4/CapSense.c **** ********************************************************************************
1172:.\Generated_Source\PSoC4/CapSense.c **** *
1173:.\Generated_Source\PSoC4/CapSense.c **** * Summary:
1174:.\Generated_Source\PSoC4/CapSense.c **** *  This API restores the drive for all the CapSense port pins to the original
1175:.\Generated_Source\PSoC4/CapSense.c **** *  state.
1176:.\Generated_Source\PSoC4/CapSense.c **** *
1177:.\Generated_Source\PSoC4/CapSense.c **** * Parameters:
1178:.\Generated_Source\PSoC4/CapSense.c **** *  None
1179:.\Generated_Source\PSoC4/CapSense.c **** *
1180:.\Generated_Source\PSoC4/CapSense.c **** * Return:
1181:.\Generated_Source\PSoC4/CapSense.c **** *  None
1182:.\Generated_Source\PSoC4/CapSense.c **** *
1183:.\Generated_Source\PSoC4/CapSense.c **** * Global Variables:
1184:.\Generated_Source\PSoC4/CapSense.c **** *  CapSense_prtSelTbl[] - Contains pointers to the HSIOM 
1185:.\Generated_Source\PSoC4/CapSense.c **** *  registers for each port. 
1186:.\Generated_Source\PSoC4/CapSense.c **** *
1187:.\Generated_Source\PSoC4/CapSense.c **** * Side Effects: 
1188:.\Generated_Source\PSoC4/CapSense.c **** *  This API is called only after the CapSense component is stopped.
1189:.\Generated_Source\PSoC4/CapSense.c **** *
1190:.\Generated_Source\PSoC4/CapSense.c **** *******************************************************************************/
1191:.\Generated_Source\PSoC4/CapSense.c **** void CapSense_RestoreDriveModeAllPins(void)
1192:.\Generated_Source\PSoC4/CapSense.c **** {
 1396              		.loc 1 1192 0
 1397              		.cfi_startproc
 1398 0000 80B5     		push	{r7, lr}
 1399              		.cfi_def_cfa_offset 8
 1400              		.cfi_offset 7, -8
 1401              		.cfi_offset 14, -4
 1402 0002 82B0     		sub	sp, sp, #8
 1403              		.cfi_def_cfa_offset 16
 1404 0004 00AF     		add	r7, sp, #0
 1405              		.cfi_def_cfa_register 7
1193:.\Generated_Source\PSoC4/CapSense.c **** 	uint32 newRegisterValue;
1194:.\Generated_Source\PSoC4/CapSense.c **** 	
1195:.\Generated_Source\PSoC4/CapSense.c **** 	CapSense_SetDriveModeAllPins(CY_SYS_PINS_DM_ALG_HIZ);
 1406              		.loc 1 1195 0
 1407 0006 0020     		mov	r0, #0
 1408 0008 FFF7FEFF 		bl	CapSense_SetDriveModeAllPins
1196:.\Generated_Source\PSoC4/CapSense.c **** 	
1197:.\Generated_Source\PSoC4/CapSense.c **** 	newRegisterValue = CapSense_CMOD_CONNECTION_REG; 
 1409              		.loc 1 1197 0
 1410 000c 084B     		ldr	r3, .L78
 1411 000e 1B68     		ldr	r3, [r3]
 1412 0010 7B60     		str	r3, [r7, #4]
1198:.\Generated_Source\PSoC4/CapSense.c ****     newRegisterValue &= ~(CapSense_CSD_CMOD_CONNECTION_MASK);
 1413              		.loc 1 1198 0
 1414 0012 7A68     		ldr	r2, [r7, #4]
ARM GAS  C:\DOCUME~1\Chuck\LOCALS~1\Temp\ccp9wtTg.s 			page 47


 1415 0014 074B     		ldr	r3, .L78+4
 1416 0016 1340     		and	r3, r2
 1417 0018 7B60     		str	r3, [r7, #4]
1199:.\Generated_Source\PSoC4/CapSense.c ****     newRegisterValue |= CapSense_CSD_CMOD_TO_AMUXBUS_A;
 1418              		.loc 1 1199 0
 1419 001a 7B68     		ldr	r3, [r7, #4]
 1420 001c C022     		mov	r2, #192
 1421 001e D200     		lsl	r2, r2, #3
 1422 0020 1343     		orr	r3, r2
 1423 0022 7B60     		str	r3, [r7, #4]
1200:.\Generated_Source\PSoC4/CapSense.c ****     CapSense_CMOD_CONNECTION_REG = newRegisterValue;
 1424              		.loc 1 1200 0
 1425 0024 024B     		ldr	r3, .L78
 1426 0026 7A68     		ldr	r2, [r7, #4]
 1427 0028 1A60     		str	r2, [r3]
1201:.\Generated_Source\PSoC4/CapSense.c **** 	
1202:.\Generated_Source\PSoC4/CapSense.c **** 	#if(0u != CapSense_CSH_TANK_ENABLE)
1203:.\Generated_Source\PSoC4/CapSense.c **** 		newRegisterValue = CapSense_CTANK_CONNECTION_REG;
1204:.\Generated_Source\PSoC4/CapSense.c ****         newRegisterValue &= ~(CapSense_CSD_CTANK_CONNECTION_MASK);
1205:.\Generated_Source\PSoC4/CapSense.c **** 		newRegisterValue |= CapSense_CSD_CTANK_TO_AMUXBUS_B;
1206:.\Generated_Source\PSoC4/CapSense.c ****         CapSense_CTANK_CONNECTION_REG = newRegisterValue;
1207:.\Generated_Source\PSoC4/CapSense.c **** 	#endif/* (0u != CapSense_CSH_TANK_ENABLE) */
1208:.\Generated_Source\PSoC4/CapSense.c **** 	
1209:.\Generated_Source\PSoC4/CapSense.c **** 	#if(0u != CapSense_IS_SHIELD_ENABLE)
1210:.\Generated_Source\PSoC4/CapSense.c **** 		newRegisterValue = *CapSense_prtSelTbl[CapSense_SHIELD_PORT_NUMBER];
1211:.\Generated_Source\PSoC4/CapSense.c ****         newRegisterValue &= ~(CapSense_CSD_HSIOM_MASK << ((uint32)CapSense_SHIELD_PIN_NUMBER * CapS
1212:.\Generated_Source\PSoC4/CapSense.c ****         newRegisterValue |= (CapSense_CSD_SHIELD_PORT_MODE << ((uint32)CapSense_SHIELD_PIN_NUMBER *
1213:.\Generated_Source\PSoC4/CapSense.c ****         *CapSense_prtSelTbl[CapSense_SHIELD_PORT_NUMBER] = newRegisterValue;
1214:.\Generated_Source\PSoC4/CapSense.c **** 	#endif /* (0u != CapSense_IS_SHIELD_ENABLE) */	
1215:.\Generated_Source\PSoC4/CapSense.c **** }
 1428              		.loc 1 1215 0
 1429 002a BD46     		mov	sp, r7
 1430 002c 02B0     		add	sp, sp, #8
 1431              		@ sp needed
 1432 002e 80BD     		pop	{r7, pc}
 1433              	.L79:
 1434              		.align	2
 1435              	.L78:
 1436 0030 10000140 		.word	1073807376
 1437 0034 FFF0FFFF 		.word	-3841
 1438              		.cfi_endproc
 1439              	.LFE51:
 1440              		.size	CapSense_RestoreDriveModeAllPins, .-CapSense_RestoreDriveModeAllPins
 1441              		.section	.text.CapSense_SetPinDriveMode,"ax",%progbits
 1442              		.align	2
 1443              		.global	CapSense_SetPinDriveMode
 1444              		.code	16
 1445              		.thumb_func
 1446              		.type	CapSense_SetPinDriveMode, %function
 1447              	CapSense_SetPinDriveMode:
 1448              	.LFB52:
1216:.\Generated_Source\PSoC4/CapSense.c **** 
1217:.\Generated_Source\PSoC4/CapSense.c **** 
1218:.\Generated_Source\PSoC4/CapSense.c **** /*******************************************************************************
1219:.\Generated_Source\PSoC4/CapSense.c **** * Function Name: CapSense_SetPinDriveMode
1220:.\Generated_Source\PSoC4/CapSense.c **** ********************************************************************************
1221:.\Generated_Source\PSoC4/CapSense.c **** *
ARM GAS  C:\DOCUME~1\Chuck\LOCALS~1\Temp\ccp9wtTg.s 			page 48


1222:.\Generated_Source\PSoC4/CapSense.c **** * Summary:
1223:.\Generated_Source\PSoC4/CapSense.c **** * This API sets the drive mode for the appropriate port/pin.
1224:.\Generated_Source\PSoC4/CapSense.c **** *
1225:.\Generated_Source\PSoC4/CapSense.c **** * Parameters:
1226:.\Generated_Source\PSoC4/CapSense.c **** *  driveMode:  Drive mode definition.
1227:.\Generated_Source\PSoC4/CapSense.c **** *  portNumber: contains port number (0, 1, 2).
1228:.\Generated_Source\PSoC4/CapSense.c **** *  pinNumber: contains pin number (0, 1, 2, ... , 7).
1229:.\Generated_Source\PSoC4/CapSense.c **** *
1230:.\Generated_Source\PSoC4/CapSense.c **** * Return:
1231:.\Generated_Source\PSoC4/CapSense.c **** *  None
1232:.\Generated_Source\PSoC4/CapSense.c **** *
1233:.\Generated_Source\PSoC4/CapSense.c **** * Global Variables:
1234:.\Generated_Source\PSoC4/CapSense.c **** *  CapSense_prtSelTbl[] - Contains pointers to the HSIOM 
1235:.\Generated_Source\PSoC4/CapSense.c **** *  registers for each port. 
1236:.\Generated_Source\PSoC4/CapSense.c **** *  CapSense_prtCfgTb[] - Contains pointers to the port config 
1237:.\Generated_Source\PSoC4/CapSense.c **** *  registers for each port.
1238:.\Generated_Source\PSoC4/CapSense.c **** *
1239:.\Generated_Source\PSoC4/CapSense.c **** * Side Effects: 
1240:.\Generated_Source\PSoC4/CapSense.c **** *  This API is called only after CapSense component is stopped.
1241:.\Generated_Source\PSoC4/CapSense.c **** *
1242:.\Generated_Source\PSoC4/CapSense.c **** *******************************************************************************/
1243:.\Generated_Source\PSoC4/CapSense.c **** void CapSense_SetPinDriveMode(uint32 driveMode, uint32 pinNumber, uint32 portNumber)
1244:.\Generated_Source\PSoC4/CapSense.c **** {	
 1449              		.loc 1 1244 0
 1450              		.cfi_startproc
 1451 0000 80B5     		push	{r7, lr}
 1452              		.cfi_def_cfa_offset 8
 1453              		.cfi_offset 7, -8
 1454              		.cfi_offset 14, -4
 1455 0002 86B0     		sub	sp, sp, #24
 1456              		.cfi_def_cfa_offset 32
 1457 0004 00AF     		add	r7, sp, #0
 1458              		.cfi_def_cfa_register 7
 1459 0006 F860     		str	r0, [r7, #12]
 1460 0008 B960     		str	r1, [r7, #8]
 1461 000a 7A60     		str	r2, [r7, #4]
1245:.\Generated_Source\PSoC4/CapSense.c **** 	uint32  pinModeShift;
1246:.\Generated_Source\PSoC4/CapSense.c **** 	uint32 newRegisterValue;
1247:.\Generated_Source\PSoC4/CapSense.c **** 	
1248:.\Generated_Source\PSoC4/CapSense.c **** 	pinModeShift  = pinNumber * CapSense_PC_PIN_CFG_SIZE;
 1462              		.loc 1 1248 0
 1463 000c BA68     		ldr	r2, [r7, #8]
 1464 000e 131C     		mov	r3, r2
 1465 0010 5B00     		lsl	r3, r3, #1
 1466 0012 9B18     		add	r3, r3, r2
 1467 0014 7B61     		str	r3, [r7, #20]
1249:.\Generated_Source\PSoC4/CapSense.c **** 	
1250:.\Generated_Source\PSoC4/CapSense.c **** 	newRegisterValue = *CapSense_prtCfgTbl[portNumber];
 1468              		.loc 1 1250 0
 1469 0016 104B     		ldr	r3, .L81
 1470 0018 7A68     		ldr	r2, [r7, #4]
 1471 001a 9200     		lsl	r2, r2, #2
 1472 001c D358     		ldr	r3, [r2, r3]
 1473 001e 1B68     		ldr	r3, [r3]
 1474 0020 3B61     		str	r3, [r7, #16]
1251:.\Generated_Source\PSoC4/CapSense.c **** 	newRegisterValue &= ~(CapSense_CSD_PIN_MODE_MASK << pinModeShift);
 1475              		.loc 1 1251 0
ARM GAS  C:\DOCUME~1\Chuck\LOCALS~1\Temp\ccp9wtTg.s 			page 49


 1476 0022 7B69     		ldr	r3, [r7, #20]
 1477 0024 0722     		mov	r2, #7
 1478 0026 111C     		mov	r1, r2
 1479 0028 9940     		lsl	r1, r1, r3
 1480 002a 0B1C     		mov	r3, r1
 1481 002c DA43     		mvn	r2, r3
 1482 002e 3B69     		ldr	r3, [r7, #16]
 1483 0030 1340     		and	r3, r2
 1484 0032 3B61     		str	r3, [r7, #16]
1252:.\Generated_Source\PSoC4/CapSense.c **** 	newRegisterValue |=  (uint32)((uint32)driveMode << pinModeShift);
 1485              		.loc 1 1252 0
 1486 0034 7B69     		ldr	r3, [r7, #20]
 1487 0036 FA68     		ldr	r2, [r7, #12]
 1488 0038 111C     		mov	r1, r2
 1489 003a 9940     		lsl	r1, r1, r3
 1490 003c 0B1C     		mov	r3, r1
 1491 003e 3A69     		ldr	r2, [r7, #16]
 1492 0040 1343     		orr	r3, r2
 1493 0042 3B61     		str	r3, [r7, #16]
1253:.\Generated_Source\PSoC4/CapSense.c ****     *CapSense_prtCfgTbl[portNumber] =  newRegisterValue;
 1494              		.loc 1 1253 0
 1495 0044 044B     		ldr	r3, .L81
 1496 0046 7A68     		ldr	r2, [r7, #4]
 1497 0048 9200     		lsl	r2, r2, #2
 1498 004a D358     		ldr	r3, [r2, r3]
 1499 004c 3A69     		ldr	r2, [r7, #16]
 1500 004e 1A60     		str	r2, [r3]
1254:.\Generated_Source\PSoC4/CapSense.c **** }
 1501              		.loc 1 1254 0
 1502 0050 BD46     		mov	sp, r7
 1503 0052 06B0     		add	sp, sp, #24
 1504              		@ sp needed
 1505 0054 80BD     		pop	{r7, pc}
 1506              	.L82:
 1507 0056 C046     		.align	2
 1508              	.L81:
 1509 0058 00000000 		.word	CapSense_prtCfgTbl
 1510              		.cfi_endproc
 1511              	.LFE52:
 1512              		.size	CapSense_SetPinDriveMode, .-CapSense_SetPinDriveMode
 1513              		.section	.text.CapSense_PreScan,"ax",%progbits
 1514              		.align	2
 1515              		.global	CapSense_PreScan
 1516              		.code	16
 1517              		.thumb_func
 1518              		.type	CapSense_PreScan, %function
 1519              	CapSense_PreScan:
 1520              	.LFB53:
1255:.\Generated_Source\PSoC4/CapSense.c **** 
1256:.\Generated_Source\PSoC4/CapSense.c **** 
1257:.\Generated_Source\PSoC4/CapSense.c **** /*******************************************************************************
1258:.\Generated_Source\PSoC4/CapSense.c **** * Function Name: CapSense_PreScan
1259:.\Generated_Source\PSoC4/CapSense.c **** ********************************************************************************
1260:.\Generated_Source\PSoC4/CapSense.c **** *
1261:.\Generated_Source\PSoC4/CapSense.c **** * Summary:
1262:.\Generated_Source\PSoC4/CapSense.c **** *  Sets required settings, enables a sensor, removes Vref from AMUX and starts the 
1263:.\Generated_Source\PSoC4/CapSense.c **** *  scanning process of the sensor.
ARM GAS  C:\DOCUME~1\Chuck\LOCALS~1\Temp\ccp9wtTg.s 			page 50


1264:.\Generated_Source\PSoC4/CapSense.c **** *
1265:.\Generated_Source\PSoC4/CapSense.c **** * Parameters:
1266:.\Generated_Source\PSoC4/CapSense.c **** *  sensor:  Sensor number.
1267:.\Generated_Source\PSoC4/CapSense.c **** *
1268:.\Generated_Source\PSoC4/CapSense.c **** * Return:
1269:.\Generated_Source\PSoC4/CapSense.c **** *  None
1270:.\Generated_Source\PSoC4/CapSense.c **** *
1271:.\Generated_Source\PSoC4/CapSense.c **** * Global Variables:
1272:.\Generated_Source\PSoC4/CapSense.c **** * CapSense_widgetNumber[] - This array contains numbers of widgets for each sensor.
1273:.\Generated_Source\PSoC4/CapSense.c **** * CapSense_widgetResolution[] - Contains the widget resolution.
1274:.\Generated_Source\PSoC4/CapSense.c **** *
1275:.\Generated_Source\PSoC4/CapSense.c **** * Side Effects: 
1276:.\Generated_Source\PSoC4/CapSense.c **** *  None
1277:.\Generated_Source\PSoC4/CapSense.c **** *
1278:.\Generated_Source\PSoC4/CapSense.c **** *******************************************************************************/
1279:.\Generated_Source\PSoC4/CapSense.c **** void CapSense_PreScan(uint32 sensor)
1280:.\Generated_Source\PSoC4/CapSense.c **** {
 1521              		.loc 1 1280 0
 1522              		.cfi_startproc
 1523 0000 90B5     		push	{r4, r7, lr}
 1524              		.cfi_def_cfa_offset 12
 1525              		.cfi_offset 4, -12
 1526              		.cfi_offset 7, -8
 1527              		.cfi_offset 14, -4
 1528 0002 89B0     		sub	sp, sp, #36
 1529              		.cfi_def_cfa_offset 48
 1530 0004 00AF     		add	r7, sp, #0
 1531              		.cfi_def_cfa_register 7
 1532 0006 7860     		str	r0, [r7, #4]
1281:.\Generated_Source\PSoC4/CapSense.c ****     uint8 widget;
1282:.\Generated_Source\PSoC4/CapSense.c ****     uint8 interruptState;
1283:.\Generated_Source\PSoC4/CapSense.c **** 	uint32 newRegValue;
1284:.\Generated_Source\PSoC4/CapSense.c **** 	uint32 counterResolution;
1285:.\Generated_Source\PSoC4/CapSense.c **** 	
1286:.\Generated_Source\PSoC4/CapSense.c **** 	#if(CapSense_PRS_OPTIONS == CapSense__PRS_AUTO)
1287:.\Generated_Source\PSoC4/CapSense.c **** 		uint8 senseClkDivMath;
1288:.\Generated_Source\PSoC4/CapSense.c **** 		uint8 sampleClkDivMath;
1289:.\Generated_Source\PSoC4/CapSense.c **** 	#endif /* (CapSense_PRS_OPTIONS == CapSense__PRS_AUTO) */	
1290:.\Generated_Source\PSoC4/CapSense.c **** 	
1291:.\Generated_Source\PSoC4/CapSense.c **** 	#if ((CapSense_TUNING_METHOD == CapSense__TUNING_AUTO) &&\
1292:.\Generated_Source\PSoC4/CapSense.c **** 		 (0 != CapSense_IS_OVERSAMPLING_EN))
1293:.\Generated_Source\PSoC4/CapSense.c **** 		uint32 oversamplingFactor;
1294:.\Generated_Source\PSoC4/CapSense.c **** 	#endif /* ((CapSense_TUNING_METHOD == CapSense__TUNING_AUTO) &&\
1295:.\Generated_Source\PSoC4/CapSense.c **** 	           (0 != CapSense_IS_OVERSAMPLING_EN)) */
1296:.\Generated_Source\PSoC4/CapSense.c **** 
1297:.\Generated_Source\PSoC4/CapSense.c ****     /* Define widget sensor belongs to */
1298:.\Generated_Source\PSoC4/CapSense.c ****     widget = CapSense_widgetNumber[sensor];
 1533              		.loc 1 1298 0
 1534 0008 3B1C     		mov	r3, r7
 1535 000a 1B33     		add	r3, r3, #27
 1536 000c 0022     		mov	r2, #0
 1537 000e 1A70     		strb	r2, [r3]
1299:.\Generated_Source\PSoC4/CapSense.c **** 
1300:.\Generated_Source\PSoC4/CapSense.c **** 	/* Recalculate Counter Resolution to MSB 16 bits */
1301:.\Generated_Source\PSoC4/CapSense.c **** 	counterResolution = CapSense_widgetResolution[widget];
 1538              		.loc 1 1301 0
 1539 0010 3B1C     		mov	r3, r7
ARM GAS  C:\DOCUME~1\Chuck\LOCALS~1\Temp\ccp9wtTg.s 			page 51


 1540 0012 1B33     		add	r3, r3, #27
 1541 0014 1A78     		ldrb	r2, [r3]
 1542 0016 3A4B     		ldr	r3, .L85
 1543 0018 9200     		lsl	r2, r2, #2
 1544 001a D358     		ldr	r3, [r2, r3]
 1545 001c FB61     		str	r3, [r7, #28]
1302:.\Generated_Source\PSoC4/CapSense.c **** 	
1303:.\Generated_Source\PSoC4/CapSense.c **** 	#if ((CapSense_TUNING_METHOD == CapSense__TUNING_AUTO) &&\
1304:.\Generated_Source\PSoC4/CapSense.c **** 		 (0 != CapSense_IS_OVERSAMPLING_EN))
1305:.\Generated_Source\PSoC4/CapSense.c **** 	    oversamplingFactor = CapSense_GetBitValue(scanSpeedTbl, sensor);
 1546              		.loc 1 1305 0
 1547 001e 394A     		ldr	r2, .L85+4
 1548 0020 7B68     		ldr	r3, [r7, #4]
 1549 0022 101C     		mov	r0, r2
 1550 0024 191C     		mov	r1, r3
 1551 0026 FFF7FEFF 		bl	CapSense_GetBitValue
 1552 002a 031C     		mov	r3, r0
 1553 002c 7B61     		str	r3, [r7, #20]
1306:.\Generated_Source\PSoC4/CapSense.c **** 
1307:.\Generated_Source\PSoC4/CapSense.c **** 		if(counterResolution < CapSense_RESOLUTION_16_BITS)
 1554              		.loc 1 1307 0
 1555 002e FA69     		ldr	r2, [r7, #28]
 1556 0030 354B     		ldr	r3, .L85+8
 1557 0032 9A42     		cmp	r2, r3
 1558 0034 0AD8     		bhi	.L84
1308:.\Generated_Source\PSoC4/CapSense.c **** 		{
1309:.\Generated_Source\PSoC4/CapSense.c **** 			counterResolution <<= oversamplingFactor;
 1559              		.loc 1 1309 0
 1560 0036 7B69     		ldr	r3, [r7, #20]
 1561 0038 FA69     		ldr	r2, [r7, #28]
 1562 003a 111C     		mov	r1, r2
 1563 003c 9940     		lsl	r1, r1, r3
 1564 003e 0B1C     		mov	r3, r1
 1565 0040 FB61     		str	r3, [r7, #28]
1310:.\Generated_Source\PSoC4/CapSense.c **** 			counterResolution |= (uint32)(CapSense_RESOLUTION_8_BITS);
 1566              		.loc 1 1310 0
 1567 0042 FB69     		ldr	r3, [r7, #28]
 1568 0044 FF22     		mov	r2, #255
 1569 0046 1204     		lsl	r2, r2, #16
 1570 0048 1343     		orr	r3, r2
 1571 004a FB61     		str	r3, [r7, #28]
 1572              	.L84:
1311:.\Generated_Source\PSoC4/CapSense.c **** 		}
1312:.\Generated_Source\PSoC4/CapSense.c **** 	#endif /* ((CapSense_TUNING_METHOD == CapSense__TUNING_AUTO) &&\
1313:.\Generated_Source\PSoC4/CapSense.c **** 	           (0 != CapSense_IS_OVERSAMPLING_EN)) */
1314:.\Generated_Source\PSoC4/CapSense.c **** 	
1315:.\Generated_Source\PSoC4/CapSense.c **** 	#if (0u != CapSense_IS_M0S8PERI_BLOCK)
1316:.\Generated_Source\PSoC4/CapSense.c **** 		CapSense_SenseClk_Stop();
1317:.\Generated_Source\PSoC4/CapSense.c **** 		CapSense_SampleClk_Stop();
1318:.\Generated_Source\PSoC4/CapSense.c **** 	#endif /* (0u != CapSense_IS_M0S8PERI_BLOCK) */
1319:.\Generated_Source\PSoC4/CapSense.c **** 
1320:.\Generated_Source\PSoC4/CapSense.c **** 	#if (0u != CapSense_MULTIPLE_FREQUENCY_SET)
1321:.\Generated_Source\PSoC4/CapSense.c **** 		CapSense_SampleClk_SetDividerValue((uint16)CapSense_sampleClkDividerVal[sensor]);
 1573              		.loc 1 1321 0
 1574 004c 2F4A     		ldr	r2, .L85+12
 1575 004e 7B68     		ldr	r3, [r7, #4]
 1576 0050 D318     		add	r3, r2, r3
ARM GAS  C:\DOCUME~1\Chuck\LOCALS~1\Temp\ccp9wtTg.s 			page 52


 1577 0052 1B78     		ldrb	r3, [r3]
 1578 0054 013B     		sub	r3, r3, #1
 1579 0056 9BB2     		uxth	r3, r3
 1580 0058 181C     		mov	r0, r3
 1581 005a 0021     		mov	r1, #0
 1582 005c FFF7FEFF 		bl	CapSense_SampleClk_SetFractionalDividerRegister
1322:.\Generated_Source\PSoC4/CapSense.c **** 		CapSense_SenseClk_SetDividerValue((uint16)CapSense_senseClkDividerVal[sensor]);
 1583              		.loc 1 1322 0
 1584 0060 2B4A     		ldr	r2, .L85+16
 1585 0062 7B68     		ldr	r3, [r7, #4]
 1586 0064 D318     		add	r3, r2, r3
 1587 0066 1B78     		ldrb	r3, [r3]
 1588 0068 013B     		sub	r3, r3, #1
 1589 006a 9BB2     		uxth	r3, r3
 1590 006c 181C     		mov	r0, r3
 1591 006e 0021     		mov	r1, #0
 1592 0070 FFF7FEFF 		bl	CapSense_SenseClk_SetFractionalDividerRegister
1323:.\Generated_Source\PSoC4/CapSense.c **** 	#else
1324:.\Generated_Source\PSoC4/CapSense.c **** 		CapSense_SampleClk_SetDividerValue((uint16)CapSense_sampleClkDividerVal);
1325:.\Generated_Source\PSoC4/CapSense.c **** 		CapSense_SenseClk_SetDividerValue((uint16)CapSense_senseClkDividerVal);
1326:.\Generated_Source\PSoC4/CapSense.c **** 	#endif /* (0u != CapSense_MULTIPLE_FREQUENCY_SET) */
1327:.\Generated_Source\PSoC4/CapSense.c **** 
1328:.\Generated_Source\PSoC4/CapSense.c **** 	#if (0u != CapSense_IS_M0S8PERI_BLOCK)
1329:.\Generated_Source\PSoC4/CapSense.c **** 		CapSense_SampleClk_Start();
1330:.\Generated_Source\PSoC4/CapSense.c **** 		CapSense_SenseClk_StartEx(CapSense_SampleClk__DIV_ID);
1331:.\Generated_Source\PSoC4/CapSense.c **** 		
1332:.\Generated_Source\PSoC4/CapSense.c **** 		#if(CapSense_PRS_OPTIONS == CapSense__PRS_NONE)
1333:.\Generated_Source\PSoC4/CapSense.c **** 			CyIntDisable(CapSense_ISR_NUMBER);
1334:.\Generated_Source\PSoC4/CapSense.c **** 			CapSense_CSD_CNT_REG = CapSense_ONE_CYCLE;
1335:.\Generated_Source\PSoC4/CapSense.c **** 			while(0u != (CapSense_CSD_CNT_REG & CapSense_RESOLUTION_16_BITS))
1336:.\Generated_Source\PSoC4/CapSense.c **** 			{
1337:.\Generated_Source\PSoC4/CapSense.c **** 			/* Wait until scanning is complete */ 
1338:.\Generated_Source\PSoC4/CapSense.c **** 			}
1339:.\Generated_Source\PSoC4/CapSense.c **** 			CapSense_CSD_INTR_REG = 1u;
1340:.\Generated_Source\PSoC4/CapSense.c **** 			CyIntClearPending(CapSense_ISR_NUMBER);
1341:.\Generated_Source\PSoC4/CapSense.c **** 			CyIntEnable(CapSense_ISR_NUMBER); 
1342:.\Generated_Source\PSoC4/CapSense.c **** 		#endif /* CapSense_PRS_OPTIONS == CapSense__PRS_NONE */
1343:.\Generated_Source\PSoC4/CapSense.c **** 	#endif /* (0u != CapSense_IS_M0S8PERI_BLOCK) */
1344:.\Generated_Source\PSoC4/CapSense.c **** 
1345:.\Generated_Source\PSoC4/CapSense.c **** #if(CapSense_PRS_OPTIONS != CapSense__PRS_NONE)
1346:.\Generated_Source\PSoC4/CapSense.c **** 
1347:.\Generated_Source\PSoC4/CapSense.c **** 	#if(CapSense_TUNING_METHOD == CapSense__TUNING_AUTO)
1348:.\Generated_Source\PSoC4/CapSense.c **** 		if(CapSense_prescalersTuningDone != 0u)
1349:.\Generated_Source\PSoC4/CapSense.c **** 		{
1350:.\Generated_Source\PSoC4/CapSense.c **** 	#endif /* (CapSense_TUNING_METHOD == CapSense__TUNING_AUTO) */
1351:.\Generated_Source\PSoC4/CapSense.c **** 			
1352:.\Generated_Source\PSoC4/CapSense.c **** 			CyIntDisable(CapSense_ISR_NUMBER);
1353:.\Generated_Source\PSoC4/CapSense.c **** 			
1354:.\Generated_Source\PSoC4/CapSense.c **** 			newRegValue = CapSense_CSD_CFG_REG;
1355:.\Generated_Source\PSoC4/CapSense.c **** 			newRegValue |= CapSense_CSD_CFG_PRS_SELECT;
1356:.\Generated_Source\PSoC4/CapSense.c **** 			
1357:.\Generated_Source\PSoC4/CapSense.c **** 			#if(CapSense_PRS_OPTIONS == CapSense__PRS_AUTO)
1358:.\Generated_Source\PSoC4/CapSense.c **** 				
1359:.\Generated_Source\PSoC4/CapSense.c **** 				newRegValue &= ~(CapSense_PRS_MODE_MASK);
1360:.\Generated_Source\PSoC4/CapSense.c **** 				
1361:.\Generated_Source\PSoC4/CapSense.c **** 				#if (0u != CapSense_MULTIPLE_FREQUENCY_SET)
1362:.\Generated_Source\PSoC4/CapSense.c **** 					senseClkDivMath = CapSense_senseClkDividerVal[sensor];
ARM GAS  C:\DOCUME~1\Chuck\LOCALS~1\Temp\ccp9wtTg.s 			page 53


1363:.\Generated_Source\PSoC4/CapSense.c **** 					sampleClkDivMath = CapSense_sampleClkDividerVal[sensor];
1364:.\Generated_Source\PSoC4/CapSense.c **** 				#else
1365:.\Generated_Source\PSoC4/CapSense.c **** 					senseClkDivMath = CapSense_senseClkDividerVal;
1366:.\Generated_Source\PSoC4/CapSense.c **** 					sampleClkDivMath = CapSense_sampleClkDividerVal;
1367:.\Generated_Source\PSoC4/CapSense.c **** 				#endif /* ( CapSense_MULTIPLE_FREQUENCY_SET) */
1368:.\Generated_Source\PSoC4/CapSense.c **** 				
1369:.\Generated_Source\PSoC4/CapSense.c **** 				#if(0u == CapSense_IS_M0S8PERI_BLOCK)
1370:.\Generated_Source\PSoC4/CapSense.c **** 					senseClkDivMath *= sampleClkDivMath;
1371:.\Generated_Source\PSoC4/CapSense.c **** 				#endif /* (0u == CapSense_IS_M0S8PERI_BLOCK) */	
1372:.\Generated_Source\PSoC4/CapSense.c **** 				
1373:.\Generated_Source\PSoC4/CapSense.c **** 				if((senseClkDivMath * CapSense_RESOLUTION_12_BITS) <\
1374:.\Generated_Source\PSoC4/CapSense.c **** 				   (sampleClkDivMath * CapSense_widgetResolution[widget]))
1375:.\Generated_Source\PSoC4/CapSense.c **** 				{
1376:.\Generated_Source\PSoC4/CapSense.c **** 					newRegValue |= CapSense_CSD_PRS_12_BIT;
1377:.\Generated_Source\PSoC4/CapSense.c **** 				}
1378:.\Generated_Source\PSoC4/CapSense.c **** 			#endif /* (CapSense_PRS_OPTIONS == CapSense__PRS_AUTO) */
1379:.\Generated_Source\PSoC4/CapSense.c **** 			
1380:.\Generated_Source\PSoC4/CapSense.c **** 			CapSense_CSD_CFG_REG = newRegValue;
1381:.\Generated_Source\PSoC4/CapSense.c **** 			
1382:.\Generated_Source\PSoC4/CapSense.c **** 			CyIntEnable(CapSense_ISR_NUMBER);
1383:.\Generated_Source\PSoC4/CapSense.c **** 			
1384:.\Generated_Source\PSoC4/CapSense.c **** 	#if(CapSense_TUNING_METHOD == CapSense__TUNING_AUTO)	
1385:.\Generated_Source\PSoC4/CapSense.c **** 		}
1386:.\Generated_Source\PSoC4/CapSense.c **** 	#endif /* (CapSense_PRS_OPTIONS != CapSense__PRS_NONE) */
1387:.\Generated_Source\PSoC4/CapSense.c **** 
1388:.\Generated_Source\PSoC4/CapSense.c **** #endif /* (CapSense_PRS_OPTIONS == CapSense__PRS_NONE) */
1389:.\Generated_Source\PSoC4/CapSense.c **** 	
1390:.\Generated_Source\PSoC4/CapSense.c **** 	/* Set Idac Value */
1391:.\Generated_Source\PSoC4/CapSense.c **** 	CyIntDisable(CapSense_ISR_NUMBER);
 1593              		.loc 1 1391 0
 1594 0074 0F20     		mov	r0, #15
 1595 0076 FFF7FEFF 		bl	CyIntDisable
1392:.\Generated_Source\PSoC4/CapSense.c ****     newRegValue = CapSense_CSD_IDAC_REG;
 1596              		.loc 1 1392 0
 1597 007a 264B     		ldr	r3, .L85+20
 1598 007c 1B68     		ldr	r3, [r3]
 1599 007e 3B61     		str	r3, [r7, #16]
1393:.\Generated_Source\PSoC4/CapSense.c ****  
1394:.\Generated_Source\PSoC4/CapSense.c **** #if (CapSense_IDAC_CNT == 1u)    
1395:.\Generated_Source\PSoC4/CapSense.c **** 	newRegValue &= ~(CapSense_CSD_IDAC1_DATA_MASK);
1396:.\Generated_Source\PSoC4/CapSense.c **** 	newRegValue |= CapSense_modulationIDAC[sensor];
1397:.\Generated_Source\PSoC4/CapSense.c **** #else
1398:.\Generated_Source\PSoC4/CapSense.c **** 	newRegValue &= ~(CapSense_CSD_IDAC1_DATA_MASK | CapSense_CSD_IDAC2_DATA_MASK);
 1600              		.loc 1 1398 0
 1601 0080 3A69     		ldr	r2, [r7, #16]
 1602 0082 254B     		ldr	r3, .L85+24
 1603 0084 1340     		and	r3, r2
 1604 0086 3B61     		str	r3, [r7, #16]
1399:.\Generated_Source\PSoC4/CapSense.c **** 	newRegValue |= (CapSense_modulationIDAC[sensor] | 
 1605              		.loc 1 1399 0
 1606 0088 244A     		ldr	r2, .L85+28
 1607 008a 7B68     		ldr	r3, [r7, #4]
 1608 008c D318     		add	r3, r2, r3
 1609 008e 1B78     		ldrb	r3, [r3]
 1610 0090 1A1C     		mov	r2, r3
1400:.\Generated_Source\PSoC4/CapSense.c **** 							(uint32)((uint32)CapSense_compensationIDAC[sensor] <<
 1611              		.loc 1 1400 0
ARM GAS  C:\DOCUME~1\Chuck\LOCALS~1\Temp\ccp9wtTg.s 			page 54


 1612 0092 2349     		ldr	r1, .L85+32
 1613 0094 7B68     		ldr	r3, [r7, #4]
 1614 0096 CB18     		add	r3, r1, r3
 1615 0098 1B78     		ldrb	r3, [r3]
 1616 009a 1B04     		lsl	r3, r3, #16
1399:.\Generated_Source\PSoC4/CapSense.c **** 	newRegValue |= (CapSense_modulationIDAC[sensor] | 
 1617              		.loc 1 1399 0
 1618 009c 1343     		orr	r3, r2
 1619 009e 3A69     		ldr	r2, [r7, #16]
 1620 00a0 1343     		orr	r3, r2
 1621 00a2 3B61     		str	r3, [r7, #16]
1401:.\Generated_Source\PSoC4/CapSense.c **** 							CapSense_CSD_IDAC2_DATA_OFFSET));                               
1402:.\Generated_Source\PSoC4/CapSense.c **** #endif /* (CapSense_IDAC_CNT == 1u) */
1403:.\Generated_Source\PSoC4/CapSense.c **** 	
1404:.\Generated_Source\PSoC4/CapSense.c **** 	CapSense_CSD_IDAC_REG = newRegValue;
 1622              		.loc 1 1404 0
 1623 00a4 1B4B     		ldr	r3, .L85+20
 1624 00a6 3A69     		ldr	r2, [r7, #16]
 1625 00a8 1A60     		str	r2, [r3]
1405:.\Generated_Source\PSoC4/CapSense.c **** 
1406:.\Generated_Source\PSoC4/CapSense.c **** #if(CapSense_CMOD_PREGARGE_OPTION == CapSense__CAPPRIOBUF)
1407:.\Generated_Source\PSoC4/CapSense.c **** 	newRegValue = CapSense_CMOD_CONNECTION_REG;
1408:.\Generated_Source\PSoC4/CapSense.c **** 	newRegValue &= ~(CapSense_CSD_CMOD_CONNECTION_MASK);
1409:.\Generated_Source\PSoC4/CapSense.c **** 	newRegValue |= CapSense_CSD_CMOD_TO_AMUXBUS_A;
1410:.\Generated_Source\PSoC4/CapSense.c **** 	CapSense_CMOD_CONNECTION_REG = newRegValue;
1411:.\Generated_Source\PSoC4/CapSense.c **** 	
1412:.\Generated_Source\PSoC4/CapSense.c **** 	newRegValue = CapSense_CMOD_PORT_PC_REG;
1413:.\Generated_Source\PSoC4/CapSense.c **** 	newRegValue &= ~(CapSense_CSD_CMOD_PC_MASK);
1414:.\Generated_Source\PSoC4/CapSense.c **** 	newRegValue |= CapSense_CMOD_PC_HIGH_Z_MODE;
1415:.\Generated_Source\PSoC4/CapSense.c **** 	CapSense_CMOD_PORT_PC_REG = newRegValue;
1416:.\Generated_Source\PSoC4/CapSense.c **** #endif /* (CapSense_CMOD_PREGARGE_OPTION == CapSense__CAPPRIOBUF) */
1417:.\Generated_Source\PSoC4/CapSense.c **** 
1418:.\Generated_Source\PSoC4/CapSense.c ****     /* Disconnect Vref Buffer from AMUX */
1419:.\Generated_Source\PSoC4/CapSense.c **** 	newRegValue = CapSense_CSD_CFG_REG;
 1626              		.loc 1 1419 0
 1627 00aa 1E4B     		ldr	r3, .L85+36
 1628 00ac 1B68     		ldr	r3, [r3]
 1629 00ae 3B61     		str	r3, [r7, #16]
1420:.\Generated_Source\PSoC4/CapSense.c **** 	newRegValue &= ~(CapSense_PRECHARGE_CONFIG_MASK);
 1630              		.loc 1 1420 0
 1631 00b0 3A69     		ldr	r2, [r7, #16]
 1632 00b2 1D4B     		ldr	r3, .L85+40
 1633 00b4 1340     		and	r3, r2
 1634 00b6 3B61     		str	r3, [r7, #16]
1421:.\Generated_Source\PSoC4/CapSense.c **** 	newRegValue |= CapSense_CTANK_PRECHARGE_CONFIG;
 1635              		.loc 1 1421 0
 1636 00b8 3B69     		ldr	r3, [r7, #16]
 1637 00ba 1C4A     		ldr	r2, .L85+44
 1638 00bc 1343     		orr	r3, r2
 1639 00be 3B61     		str	r3, [r7, #16]
1422:.\Generated_Source\PSoC4/CapSense.c **** 	
1423:.\Generated_Source\PSoC4/CapSense.c **** 	CyIntEnable(CapSense_ISR_NUMBER);
 1640              		.loc 1 1423 0
 1641 00c0 0F20     		mov	r0, #15
 1642 00c2 FFF7FEFF 		bl	CyIntEnable
1424:.\Generated_Source\PSoC4/CapSense.c **** 	
1425:.\Generated_Source\PSoC4/CapSense.c ****     /* Enable Sensor */
ARM GAS  C:\DOCUME~1\Chuck\LOCALS~1\Temp\ccp9wtTg.s 			page 55


1426:.\Generated_Source\PSoC4/CapSense.c ****     CapSense_EnableScanSlot(sensor);
 1643              		.loc 1 1426 0
 1644 00c6 7B68     		ldr	r3, [r7, #4]
 1645 00c8 181C     		mov	r0, r3
 1646 00ca FFF7FEFF 		bl	CapSense_EnableSensor
1427:.\Generated_Source\PSoC4/CapSense.c ****     
1428:.\Generated_Source\PSoC4/CapSense.c **** 	interruptState = CyEnterCriticalSection();
 1647              		.loc 1 1428 0
 1648 00ce 3C1C     		mov	r4, r7
 1649 00d0 0F34     		add	r4, r4, #15
 1650 00d2 FFF7FEFF 		bl	CyEnterCriticalSection
 1651 00d6 031C     		mov	r3, r0
 1652 00d8 2370     		strb	r3, [r4]
1429:.\Generated_Source\PSoC4/CapSense.c **** 	CapSense_CSD_CFG_REG = newRegValue;
 1653              		.loc 1 1429 0
 1654 00da 124B     		ldr	r3, .L85+36
 1655 00dc 3A69     		ldr	r2, [r7, #16]
 1656 00de 1A60     		str	r2, [r3]
1430:.\Generated_Source\PSoC4/CapSense.c **** 	CyDelayCycles(CapSense_GLITCH_ELIMINATION_CYCLES);
 1657              		.loc 1 1430 0
 1658 00e0 6F20     		mov	r0, #111
 1659 00e2 FFF7FEFF 		bl	CyDelayCycles
1431:.\Generated_Source\PSoC4/CapSense.c **** 	
1432:.\Generated_Source\PSoC4/CapSense.c **** 	/* `#START CapSense_PreScan_Debug` */
1433:.\Generated_Source\PSoC4/CapSense.c **** 
1434:.\Generated_Source\PSoC4/CapSense.c **** 	/* `#END` */
1435:.\Generated_Source\PSoC4/CapSense.c **** 	
1436:.\Generated_Source\PSoC4/CapSense.c ****     CapSense_CSD_CNT_REG = counterResolution;
 1660              		.loc 1 1436 0
 1661 00e6 124B     		ldr	r3, .L85+48
 1662 00e8 FA69     		ldr	r2, [r7, #28]
 1663 00ea 1A60     		str	r2, [r3]
1437:.\Generated_Source\PSoC4/CapSense.c ****     CyExitCriticalSection(interruptState);
 1664              		.loc 1 1437 0
 1665 00ec 3B1C     		mov	r3, r7
 1666 00ee 0F33     		add	r3, r3, #15
 1667 00f0 1B78     		ldrb	r3, [r3]
 1668 00f2 181C     		mov	r0, r3
 1669 00f4 FFF7FEFF 		bl	CyExitCriticalSection
1438:.\Generated_Source\PSoC4/CapSense.c **** }
 1670              		.loc 1 1438 0
 1671 00f8 BD46     		mov	sp, r7
 1672 00fa 09B0     		add	sp, sp, #36
 1673              		@ sp needed
 1674 00fc 90BD     		pop	{r4, r7, pc}
 1675              	.L86:
 1676 00fe C046     		.align	2
 1677              	.L85:
 1678 0100 00000000 		.word	CapSense_widgetResolution
 1679 0104 00000000 		.word	scanSpeedTbl
 1680 0108 FFFFFEFF 		.word	-65537
 1681 010c 00000000 		.word	CapSense_sampleClkDividerVal
 1682 0110 00000000 		.word	CapSense_senseClkDividerVal
 1683 0114 08000840 		.word	1074266120
 1684 0118 00FF80FF 		.word	-8323328
 1685 011c 00000000 		.word	CapSense_modulationIDAC
 1686 0120 00000000 		.word	CapSense_compensationIDAC
ARM GAS  C:\DOCUME~1\Chuck\LOCALS~1\Temp\ccp9wtTg.s 			page 56


 1687 0124 04000840 		.word	1074266116
 1688 0128 FF1FDFFF 		.word	-2154497
 1689 012c 20002000 		.word	2097184
 1690 0130 0C000840 		.word	1074266124
 1691              		.cfi_endproc
 1692              	.LFE53:
 1693              		.size	CapSense_PreScan, .-CapSense_PreScan
 1694              		.section	.text.CapSense_PostScan,"ax",%progbits
 1695              		.align	2
 1696              		.global	CapSense_PostScan
 1697              		.code	16
 1698              		.thumb_func
 1699              		.type	CapSense_PostScan, %function
 1700              	CapSense_PostScan:
 1701              	.LFB54:
1439:.\Generated_Source\PSoC4/CapSense.c **** 
1440:.\Generated_Source\PSoC4/CapSense.c **** 
1441:.\Generated_Source\PSoC4/CapSense.c **** /*******************************************************************************
1442:.\Generated_Source\PSoC4/CapSense.c **** * Function Name: CapSense_PostScan
1443:.\Generated_Source\PSoC4/CapSense.c **** ********************************************************************************
1444:.\Generated_Source\PSoC4/CapSense.c **** *
1445:.\Generated_Source\PSoC4/CapSense.c **** * Summary:
1446:.\Generated_Source\PSoC4/CapSense.c **** *  Stores the results of measurement in the CapSense_sensorRaw[] array,
1447:.\Generated_Source\PSoC4/CapSense.c **** *  sets the scanning sensor in the non-sampling state, turns off Idac(Current Source IDAC),
1448:.\Generated_Source\PSoC4/CapSense.c **** *  disconnects the IDAC(Sink mode), and applies Vref on AMUX.
1449:.\Generated_Source\PSoC4/CapSense.c **** *
1450:.\Generated_Source\PSoC4/CapSense.c **** * Parameters:
1451:.\Generated_Source\PSoC4/CapSense.c **** *  sensor:  Sensor number.
1452:.\Generated_Source\PSoC4/CapSense.c **** *
1453:.\Generated_Source\PSoC4/CapSense.c **** * Return:
1454:.\Generated_Source\PSoC4/CapSense.c **** *  None
1455:.\Generated_Source\PSoC4/CapSense.c **** *
1456:.\Generated_Source\PSoC4/CapSense.c **** * Global Variables:
1457:.\Generated_Source\PSoC4/CapSense.c **** *  CapSense_sensorRaw[] - used to store sensors raw data.
1458:.\Generated_Source\PSoC4/CapSense.c **** *
1459:.\Generated_Source\PSoC4/CapSense.c **** * Side Effects: 
1460:.\Generated_Source\PSoC4/CapSense.c **** *  None
1461:.\Generated_Source\PSoC4/CapSense.c **** *
1462:.\Generated_Source\PSoC4/CapSense.c **** *******************************************************************************/
1463:.\Generated_Source\PSoC4/CapSense.c **** void CapSense_PostScan(uint32 sensor)
1464:.\Generated_Source\PSoC4/CapSense.c **** {	
 1702              		.loc 1 1464 0
 1703              		.cfi_startproc
 1704 0000 80B5     		push	{r7, lr}
 1705              		.cfi_def_cfa_offset 8
 1706              		.cfi_offset 7, -8
 1707              		.cfi_offset 14, -4
 1708 0002 86B0     		sub	sp, sp, #24
 1709              		.cfi_def_cfa_offset 32
 1710 0004 00AF     		add	r7, sp, #0
 1711              		.cfi_def_cfa_register 7
 1712 0006 7860     		str	r0, [r7, #4]
1465:.\Generated_Source\PSoC4/CapSense.c **** 	uint32 newRegValue;
1466:.\Generated_Source\PSoC4/CapSense.c **** #if ((CapSense_TUNING_METHOD == CapSense__TUNING_AUTO) &&\
1467:.\Generated_Source\PSoC4/CapSense.c **** 	 (0 != CapSense_IS_OVERSAMPLING_EN))
1468:.\Generated_Source\PSoC4/CapSense.c ****     uint32 oversamplingFactor;
1469:.\Generated_Source\PSoC4/CapSense.c ****     uint32 widget;
ARM GAS  C:\DOCUME~1\Chuck\LOCALS~1\Temp\ccp9wtTg.s 			page 57


1470:.\Generated_Source\PSoC4/CapSense.c **** #endif /* ((CapSense_TUNING_METHOD == CapSense__TUNING_AUTO) &&\
1471:.\Generated_Source\PSoC4/CapSense.c **** 		   (0 != CapSense_IS_OVERSAMPLING_EN)) */	
1472:.\Generated_Source\PSoC4/CapSense.c **** 
1473:.\Generated_Source\PSoC4/CapSense.c **** 	/* `#START CapSense_PostScan_Debug` */
1474:.\Generated_Source\PSoC4/CapSense.c **** 
1475:.\Generated_Source\PSoC4/CapSense.c **** 	/* `#END` */
1476:.\Generated_Source\PSoC4/CapSense.c **** 
1477:.\Generated_Source\PSoC4/CapSense.c **** 
1478:.\Generated_Source\PSoC4/CapSense.c ****     /* Read SlotResult from Raw Counter */
1479:.\Generated_Source\PSoC4/CapSense.c ****     CapSense_sensorRaw[sensor]  = (uint16)CapSense_CSD_CNT_REG;
 1713              		.loc 1 1479 0
 1714 0008 234B     		ldr	r3, .L89
 1715 000a 1B68     		ldr	r3, [r3]
 1716 000c 99B2     		uxth	r1, r3
 1717 000e 234B     		ldr	r3, .L89+4
 1718 0010 7A68     		ldr	r2, [r7, #4]
 1719 0012 5200     		lsl	r2, r2, #1
 1720 0014 D152     		strh	r1, [r2, r3]
1480:.\Generated_Source\PSoC4/CapSense.c **** 	
1481:.\Generated_Source\PSoC4/CapSense.c **** #if ((CapSense_TUNING_METHOD == CapSense__TUNING_AUTO) &&\
1482:.\Generated_Source\PSoC4/CapSense.c **** 	 (0 != CapSense_IS_OVERSAMPLING_EN))
1483:.\Generated_Source\PSoC4/CapSense.c **** 	widget = CapSense_widgetNumber[sensor];
 1721              		.loc 1 1483 0
 1722 0016 0023     		mov	r3, #0
 1723 0018 7B61     		str	r3, [r7, #20]
1484:.\Generated_Source\PSoC4/CapSense.c **** 	if(CapSense_widgetResolution[widget] < CapSense_RESOLUTION_16_BITS)
 1724              		.loc 1 1484 0
 1725 001a 214B     		ldr	r3, .L89+8
 1726 001c 7A69     		ldr	r2, [r7, #20]
 1727 001e 9200     		lsl	r2, r2, #2
 1728 0020 D258     		ldr	r2, [r2, r3]
 1729 0022 204B     		ldr	r3, .L89+12
 1730 0024 9A42     		cmp	r2, r3
 1731 0026 15D8     		bhi	.L88
1485:.\Generated_Source\PSoC4/CapSense.c **** 	{
1486:.\Generated_Source\PSoC4/CapSense.c **** 		oversamplingFactor = CapSense_GetBitValue(scanSpeedTbl, sensor);
 1732              		.loc 1 1486 0
 1733 0028 1F4A     		ldr	r2, .L89+16
 1734 002a 7B68     		ldr	r3, [r7, #4]
 1735 002c 101C     		mov	r0, r2
 1736 002e 191C     		mov	r1, r3
 1737 0030 FFF7FEFF 		bl	CapSense_GetBitValue
 1738 0034 031C     		mov	r3, r0
 1739 0036 3B61     		str	r3, [r7, #16]
1487:.\Generated_Source\PSoC4/CapSense.c **** 		CapSense_sensorRaw[sensor] >>= oversamplingFactor;
 1740              		.loc 1 1487 0
 1741 0038 184B     		ldr	r3, .L89+4
 1742 003a 7A68     		ldr	r2, [r7, #4]
 1743 003c 5200     		lsl	r2, r2, #1
 1744 003e D35A     		ldrh	r3, [r2, r3]
 1745 0040 1A1C     		mov	r2, r3
 1746 0042 3B69     		ldr	r3, [r7, #16]
 1747 0044 111C     		mov	r1, r2
 1748 0046 1941     		asr	r1, r1, r3
 1749 0048 0B1C     		mov	r3, r1
 1750 004a 99B2     		uxth	r1, r3
 1751 004c 134B     		ldr	r3, .L89+4
ARM GAS  C:\DOCUME~1\Chuck\LOCALS~1\Temp\ccp9wtTg.s 			page 58


 1752 004e 7A68     		ldr	r2, [r7, #4]
 1753 0050 5200     		lsl	r2, r2, #1
 1754 0052 D152     		strh	r1, [r2, r3]
 1755              	.L88:
1488:.\Generated_Source\PSoC4/CapSense.c **** 	}
1489:.\Generated_Source\PSoC4/CapSense.c **** #endif /* ((CapSense_TUNING_METHOD == CapSense__TUNING_AUTO) &&\
1490:.\Generated_Source\PSoC4/CapSense.c **** 		   (0 != CapSense_IS_OVERSAMPLING_EN)) */
1491:.\Generated_Source\PSoC4/CapSense.c **** 
1492:.\Generated_Source\PSoC4/CapSense.c ****     /* Disable Sensor */
1493:.\Generated_Source\PSoC4/CapSense.c ****     CapSense_DisableScanSlot(sensor);
 1756              		.loc 1 1493 0
 1757 0054 7B68     		ldr	r3, [r7, #4]
 1758 0056 181C     		mov	r0, r3
 1759 0058 FFF7FEFF 		bl	CapSense_DisableSensor
1494:.\Generated_Source\PSoC4/CapSense.c **** 
1495:.\Generated_Source\PSoC4/CapSense.c **** 	CyIntDisable(CapSense_ISR_NUMBER);
 1760              		.loc 1 1495 0
 1761 005c 0F20     		mov	r0, #15
 1762 005e FFF7FEFF 		bl	CyIntDisable
1496:.\Generated_Source\PSoC4/CapSense.c **** 	
1497:.\Generated_Source\PSoC4/CapSense.c **** #if(CapSense_CMOD_PREGARGE_OPTION == CapSense__CAPPRIOBUF)
1498:.\Generated_Source\PSoC4/CapSense.c **** 	newRegValue = CapSense_CMOD_CONNECTION_REG;
1499:.\Generated_Source\PSoC4/CapSense.c **** 	newRegValue &= ~(CapSense_CSD_CMOD_CONNECTION_MASK);
1500:.\Generated_Source\PSoC4/CapSense.c **** 	newRegValue |= CapSense_CSD_CMOD_TO_AMUXBUS_B;
1501:.\Generated_Source\PSoC4/CapSense.c **** 	CapSense_CMOD_CONNECTION_REG = newRegValue;
1502:.\Generated_Source\PSoC4/CapSense.c **** 	
1503:.\Generated_Source\PSoC4/CapSense.c **** 	newRegValue = CapSense_CMOD_PORT_PC_REG;
1504:.\Generated_Source\PSoC4/CapSense.c **** 	newRegValue &= ~(CapSense_CSD_CMOD_PC_MASK);
1505:.\Generated_Source\PSoC4/CapSense.c **** 	newRegValue |= CapSense_CMOD_PC_STRONG_MODE;
1506:.\Generated_Source\PSoC4/CapSense.c **** 	CapSense_CMOD_PORT_PC_REG = newRegValue;
1507:.\Generated_Source\PSoC4/CapSense.c **** 		
1508:.\Generated_Source\PSoC4/CapSense.c **** 	newRegValue = CapSense_CMOD_PORT_DR_REG;
1509:.\Generated_Source\PSoC4/CapSense.c ****     newRegValue &= ~(CapSense_CMOD_DR_MASK);
1510:.\Generated_Source\PSoC4/CapSense.c **** 	newRegValue |= CapSense_CMOD_DR_CONFIG;
1511:.\Generated_Source\PSoC4/CapSense.c ****     CapSense_CMOD_PORT_DR_REG = newRegValue;    
1512:.\Generated_Source\PSoC4/CapSense.c **** #endif /* (CapSense_CMOD_PREGARGE_OPTION == CapSense__CAPPRIOBUF) */
1513:.\Generated_Source\PSoC4/CapSense.c **** 	
1514:.\Generated_Source\PSoC4/CapSense.c **** 	/* Connect Vref Buffer to AMUX bus  */
1515:.\Generated_Source\PSoC4/CapSense.c **** 	newRegValue = CapSense_CSD_CFG_REG;
 1763              		.loc 1 1515 0
 1764 0062 124B     		ldr	r3, .L89+20
 1765 0064 1B68     		ldr	r3, [r3]
 1766 0066 FB60     		str	r3, [r7, #12]
1516:.\Generated_Source\PSoC4/CapSense.c **** 	newRegValue &= ~(CapSense_PRECHARGE_CONFIG_MASK);
 1767              		.loc 1 1516 0
 1768 0068 FA68     		ldr	r2, [r7, #12]
 1769 006a 114B     		ldr	r3, .L89+24
 1770 006c 1340     		and	r3, r2
 1771 006e FB60     		str	r3, [r7, #12]
1517:.\Generated_Source\PSoC4/CapSense.c **** 	newRegValue |= CapSense_CMOD_PRECHARGE_CONFIG;
 1772              		.loc 1 1517 0
 1773 0070 FB68     		ldr	r3, [r7, #12]
 1774 0072 A022     		mov	r2, #160
 1775 0074 1202     		lsl	r2, r2, #8
 1776 0076 1343     		orr	r3, r2
 1777 0078 FB60     		str	r3, [r7, #12]
1518:.\Generated_Source\PSoC4/CapSense.c **** 	CapSense_CSD_CFG_REG = newRegValue;
ARM GAS  C:\DOCUME~1\Chuck\LOCALS~1\Temp\ccp9wtTg.s 			page 59


 1778              		.loc 1 1518 0
 1779 007a 0C4B     		ldr	r3, .L89+20
 1780 007c FA68     		ldr	r2, [r7, #12]
 1781 007e 1A60     		str	r2, [r3]
1519:.\Generated_Source\PSoC4/CapSense.c **** 
1520:.\Generated_Source\PSoC4/CapSense.c **** 	/* Set Idac Value = 0 */
1521:.\Generated_Source\PSoC4/CapSense.c **** #if (CapSense_IDAC_CNT == 1u)   
1522:.\Generated_Source\PSoC4/CapSense.c **** 	CapSense_CSD_IDAC_REG &= ~(CapSense_CSD_IDAC1_DATA_MASK);
1523:.\Generated_Source\PSoC4/CapSense.c **** #else
1524:.\Generated_Source\PSoC4/CapSense.c **** 	CapSense_CSD_IDAC_REG &= ~(CapSense_CSD_IDAC1_DATA_MASK | CapSense_CSD_IDAC2_DATA_MASK);          
 1782              		.loc 1 1524 0
 1783 0080 0C4B     		ldr	r3, .L89+28
 1784 0082 0C4A     		ldr	r2, .L89+28
 1785 0084 1168     		ldr	r1, [r2]
 1786 0086 0C4A     		ldr	r2, .L89+32
 1787 0088 0A40     		and	r2, r1
 1788 008a 1A60     		str	r2, [r3]
1525:.\Generated_Source\PSoC4/CapSense.c **** #endif /* (CapSense_IDAC_CNT == 1u) */
1526:.\Generated_Source\PSoC4/CapSense.c **** 
1527:.\Generated_Source\PSoC4/CapSense.c **** 	CyIntEnable(CapSense_ISR_NUMBER);
 1789              		.loc 1 1527 0
 1790 008c 0F20     		mov	r0, #15
 1791 008e FFF7FEFF 		bl	CyIntEnable
1528:.\Generated_Source\PSoC4/CapSense.c **** }
 1792              		.loc 1 1528 0
 1793 0092 BD46     		mov	sp, r7
 1794 0094 06B0     		add	sp, sp, #24
 1795              		@ sp needed
 1796 0096 80BD     		pop	{r7, pc}
 1797              	.L90:
 1798              		.align	2
 1799              	.L89:
 1800 0098 0C000840 		.word	1074266124
 1801 009c 00000000 		.word	CapSense_sensorRaw
 1802 00a0 00000000 		.word	CapSense_widgetResolution
 1803 00a4 FFFFFEFF 		.word	-65537
 1804 00a8 00000000 		.word	scanSpeedTbl
 1805 00ac 04000840 		.word	1074266116
 1806 00b0 FF1FDFFF 		.word	-2154497
 1807 00b4 08000840 		.word	1074266120
 1808 00b8 00FF80FF 		.word	-8323328
 1809              		.cfi_endproc
 1810              	.LFE54:
 1811              		.size	CapSense_PostScan, .-CapSense_PostScan
 1812              		.section	.text.CapSense_EnableShieldElectrode,"ax",%progbits
 1813              		.align	2
 1814              		.global	CapSense_EnableShieldElectrode
 1815              		.code	16
 1816              		.thumb_func
 1817              		.type	CapSense_EnableShieldElectrode, %function
 1818              	CapSense_EnableShieldElectrode:
 1819              	.LFB55:
1529:.\Generated_Source\PSoC4/CapSense.c **** 
1530:.\Generated_Source\PSoC4/CapSense.c **** 
1531:.\Generated_Source\PSoC4/CapSense.c **** /*******************************************************************************
1532:.\Generated_Source\PSoC4/CapSense.c **** * Function Name: CapSense_EnableShieldElectrode
1533:.\Generated_Source\PSoC4/CapSense.c **** ********************************************************************************
ARM GAS  C:\DOCUME~1\Chuck\LOCALS~1\Temp\ccp9wtTg.s 			page 60


1534:.\Generated_Source\PSoC4/CapSense.c **** *
1535:.\Generated_Source\PSoC4/CapSense.c **** * Summary:
1536:.\Generated_Source\PSoC4/CapSense.c **** *  This API enables or disables the shield electrode on a specified port pin.
1537:.\Generated_Source\PSoC4/CapSense.c **** *
1538:.\Generated_Source\PSoC4/CapSense.c **** * Parameters:
1539:.\Generated_Source\PSoC4/CapSense.c **** *  portNumber: contains the shield electrode port number (0, 1, 2).
1540:.\Generated_Source\PSoC4/CapSense.c **** *  pinNumber: contains the shield electrode pin number (0, 1, 2, ... , 7).
1541:.\Generated_Source\PSoC4/CapSense.c **** *
1542:.\Generated_Source\PSoC4/CapSense.c **** * Return:
1543:.\Generated_Source\PSoC4/CapSense.c **** *  None
1544:.\Generated_Source\PSoC4/CapSense.c **** *
1545:.\Generated_Source\PSoC4/CapSense.c **** * Global Variables:
1546:.\Generated_Source\PSoC4/CapSense.c **** *  CapSense_prtCfgTbl[] - Contains pointers to the port config registers for each port.
1547:.\Generated_Source\PSoC4/CapSense.c **** *  CapSense_prtSelTbl[] - Contains pointers to the HSIOM registers for each port.
1548:.\Generated_Source\PSoC4/CapSense.c **** *
1549:.\Generated_Source\PSoC4/CapSense.c **** * Side Effects: 
1550:.\Generated_Source\PSoC4/CapSense.c **** *  None
1551:.\Generated_Source\PSoC4/CapSense.c **** *
1552:.\Generated_Source\PSoC4/CapSense.c **** *******************************************************************************/
1553:.\Generated_Source\PSoC4/CapSense.c **** void CapSense_EnableShieldElectrode(uint32 pinNumber, uint32 portNumber)
1554:.\Generated_Source\PSoC4/CapSense.c **** {
 1820              		.loc 1 1554 0
 1821              		.cfi_startproc
 1822 0000 90B5     		push	{r4, r7, lr}
 1823              		.cfi_def_cfa_offset 12
 1824              		.cfi_offset 4, -12
 1825              		.cfi_offset 7, -8
 1826              		.cfi_offset 14, -4
 1827 0002 85B0     		sub	sp, sp, #20
 1828              		.cfi_def_cfa_offset 32
 1829 0004 00AF     		add	r7, sp, #0
 1830              		.cfi_def_cfa_register 7
 1831 0006 7860     		str	r0, [r7, #4]
 1832 0008 3960     		str	r1, [r7]
1555:.\Generated_Source\PSoC4/CapSense.c **** 	uint32 newRegValue;
1556:.\Generated_Source\PSoC4/CapSense.c **** 	
1557:.\Generated_Source\PSoC4/CapSense.c **** 	*CapSense_prtCfgTbl[portNumber] &= ~(CapSense_CSD_PIN_MODE_MASK << (pinNumber * CapSense_PC_PIN_CF
 1833              		.loc 1 1557 0
 1834 000a 1B4B     		ldr	r3, .L92
 1835 000c 3A68     		ldr	r2, [r7]
 1836 000e 9200     		lsl	r2, r2, #2
 1837 0010 D258     		ldr	r2, [r2, r3]
 1838 0012 194B     		ldr	r3, .L92
 1839 0014 3968     		ldr	r1, [r7]
 1840 0016 8900     		lsl	r1, r1, #2
 1841 0018 CB58     		ldr	r3, [r1, r3]
 1842 001a 1868     		ldr	r0, [r3]
 1843 001c 7968     		ldr	r1, [r7, #4]
 1844 001e 0B1C     		mov	r3, r1
 1845 0020 5B00     		lsl	r3, r3, #1
 1846 0022 5B18     		add	r3, r3, r1
 1847 0024 0721     		mov	r1, #7
 1848 0026 0C1C     		mov	r4, r1
 1849 0028 9C40     		lsl	r4, r4, r3
 1850 002a 231C     		mov	r3, r4
 1851 002c DB43     		mvn	r3, r3
 1852 002e 0340     		and	r3, r0
ARM GAS  C:\DOCUME~1\Chuck\LOCALS~1\Temp\ccp9wtTg.s 			page 61


 1853 0030 1360     		str	r3, [r2]
1558:.\Generated_Source\PSoC4/CapSense.c **** 	newRegValue = *CapSense_prtSelTbl[portNumber];
 1854              		.loc 1 1558 0
 1855 0032 124B     		ldr	r3, .L92+4
 1856 0034 3A68     		ldr	r2, [r7]
 1857 0036 9200     		lsl	r2, r2, #2
 1858 0038 D358     		ldr	r3, [r2, r3]
 1859 003a 1B68     		ldr	r3, [r3]
 1860 003c FB60     		str	r3, [r7, #12]
1559:.\Generated_Source\PSoC4/CapSense.c ****     newRegValue &= ~(CapSense_CSD_HSIOM_MASK << (pinNumber * CapSense_HSIOM_PIN_CFG_SIZE));
 1861              		.loc 1 1559 0
 1862 003e 7B68     		ldr	r3, [r7, #4]
 1863 0040 9B00     		lsl	r3, r3, #2
 1864 0042 0F22     		mov	r2, #15
 1865 0044 111C     		mov	r1, r2
 1866 0046 9940     		lsl	r1, r1, r3
 1867 0048 0B1C     		mov	r3, r1
 1868 004a DA43     		mvn	r2, r3
 1869 004c FB68     		ldr	r3, [r7, #12]
 1870 004e 1340     		and	r3, r2
 1871 0050 FB60     		str	r3, [r7, #12]
1560:.\Generated_Source\PSoC4/CapSense.c ****     newRegValue |= (CapSense_CSD_SHIELD_PORT_MODE << (pinNumber * CapSense_HSIOM_PIN_CFG_SIZE));
 1872              		.loc 1 1560 0
 1873 0052 7B68     		ldr	r3, [r7, #4]
 1874 0054 9B00     		lsl	r3, r3, #2
 1875 0056 0522     		mov	r2, #5
 1876 0058 141C     		mov	r4, r2
 1877 005a 9C40     		lsl	r4, r4, r3
 1878 005c 231C     		mov	r3, r4
 1879 005e FA68     		ldr	r2, [r7, #12]
 1880 0060 1343     		orr	r3, r2
 1881 0062 FB60     		str	r3, [r7, #12]
1561:.\Generated_Source\PSoC4/CapSense.c ****     *CapSense_prtSelTbl[portNumber] = newRegValue;
 1882              		.loc 1 1561 0
 1883 0064 054B     		ldr	r3, .L92+4
 1884 0066 3A68     		ldr	r2, [r7]
 1885 0068 9200     		lsl	r2, r2, #2
 1886 006a D358     		ldr	r3, [r2, r3]
 1887 006c FA68     		ldr	r2, [r7, #12]
 1888 006e 1A60     		str	r2, [r3]
1562:.\Generated_Source\PSoC4/CapSense.c **** }
 1889              		.loc 1 1562 0
 1890 0070 BD46     		mov	sp, r7
 1891 0072 05B0     		add	sp, sp, #20
 1892              		@ sp needed
 1893 0074 90BD     		pop	{r4, r7, pc}
 1894              	.L93:
 1895 0076 C046     		.align	2
 1896              	.L92:
 1897 0078 00000000 		.word	CapSense_prtCfgTbl
 1898 007c 00000000 		.word	CapSense_prtSelTbl
 1899              		.cfi_endproc
 1900              	.LFE55:
 1901              		.size	CapSense_EnableShieldElectrode, .-CapSense_EnableShieldElectrode
 1902              		.section	.text.CapSense_SetShieldDelay,"ax",%progbits
 1903              		.align	2
 1904              		.global	CapSense_SetShieldDelay
ARM GAS  C:\DOCUME~1\Chuck\LOCALS~1\Temp\ccp9wtTg.s 			page 62


 1905              		.code	16
 1906              		.thumb_func
 1907              		.type	CapSense_SetShieldDelay, %function
 1908              	CapSense_SetShieldDelay:
 1909              	.LFB56:
1563:.\Generated_Source\PSoC4/CapSense.c **** 
1564:.\Generated_Source\PSoC4/CapSense.c **** 
1565:.\Generated_Source\PSoC4/CapSense.c **** /*******************************************************************************
1566:.\Generated_Source\PSoC4/CapSense.c **** * Function Name: CapSense_SetShieldDelay
1567:.\Generated_Source\PSoC4/CapSense.c **** ********************************************************************************
1568:.\Generated_Source\PSoC4/CapSense.c **** *
1569:.\Generated_Source\PSoC4/CapSense.c **** * Summary:
1570:.\Generated_Source\PSoC4/CapSense.c **** *  This API sets a shield delay.
1571:.\Generated_Source\PSoC4/CapSense.c **** *
1572:.\Generated_Source\PSoC4/CapSense.c **** * Parameters:
1573:.\Generated_Source\PSoC4/CapSense.c **** *  delay:  shield delay value:
1574:.\Generated_Source\PSoC4/CapSense.c **** *                               0 - no delay
1575:.\Generated_Source\PSoC4/CapSense.c **** *                               1 - 1 cycle delay
1576:.\Generated_Source\PSoC4/CapSense.c **** *                               2 - 2 cycles delay
1577:.\Generated_Source\PSoC4/CapSense.c **** *
1578:.\Generated_Source\PSoC4/CapSense.c **** * Return:
1579:.\Generated_Source\PSoC4/CapSense.c **** *  None
1580:.\Generated_Source\PSoC4/CapSense.c **** *
1581:.\Generated_Source\PSoC4/CapSense.c **** * Global Variables:
1582:.\Generated_Source\PSoC4/CapSense.c **** *  None
1583:.\Generated_Source\PSoC4/CapSense.c **** *
1584:.\Generated_Source\PSoC4/CapSense.c **** * Side Effects: 
1585:.\Generated_Source\PSoC4/CapSense.c **** *  None
1586:.\Generated_Source\PSoC4/CapSense.c **** *
1587:.\Generated_Source\PSoC4/CapSense.c **** *******************************************************************************/
1588:.\Generated_Source\PSoC4/CapSense.c **** void CapSense_SetShieldDelay(uint32 delay)
1589:.\Generated_Source\PSoC4/CapSense.c **** {
 1910              		.loc 1 1589 0
 1911              		.cfi_startproc
 1912 0000 80B5     		push	{r7, lr}
 1913              		.cfi_def_cfa_offset 8
 1914              		.cfi_offset 7, -8
 1915              		.cfi_offset 14, -4
 1916 0002 84B0     		sub	sp, sp, #16
 1917              		.cfi_def_cfa_offset 24
 1918 0004 00AF     		add	r7, sp, #0
 1919              		.cfi_def_cfa_register 7
 1920 0006 7860     		str	r0, [r7, #4]
1590:.\Generated_Source\PSoC4/CapSense.c ****     uint32 newRegValue;
1591:.\Generated_Source\PSoC4/CapSense.c ****     
1592:.\Generated_Source\PSoC4/CapSense.c ****     delay &= 0x03u;
 1921              		.loc 1 1592 0
 1922 0008 7A68     		ldr	r2, [r7, #4]
 1923 000a 0323     		mov	r3, #3
 1924 000c 1340     		and	r3, r2
 1925 000e 7B60     		str	r3, [r7, #4]
1593:.\Generated_Source\PSoC4/CapSense.c ****     
1594:.\Generated_Source\PSoC4/CapSense.c ****     newRegValue = CapSense_CSD_CFG_REG;
 1926              		.loc 1 1594 0
 1927 0010 064B     		ldr	r3, .L95
 1928 0012 1B68     		ldr	r3, [r3]
 1929 0014 FB60     		str	r3, [r7, #12]
ARM GAS  C:\DOCUME~1\Chuck\LOCALS~1\Temp\ccp9wtTg.s 			page 63


1595:.\Generated_Source\PSoC4/CapSense.c ****     newRegValue &= (uint32)(~(uint32)CapSense_SHIELD_DELAY);    
1596:.\Generated_Source\PSoC4/CapSense.c ****     newRegValue |= (delay << CapSense_CSD_CFG_SHIELD_DELAY_POS);    
 1930              		.loc 1 1596 0
 1931 0016 7B68     		ldr	r3, [r7, #4]
 1932 0018 5B02     		lsl	r3, r3, #9
 1933 001a FA68     		ldr	r2, [r7, #12]
 1934 001c 1343     		orr	r3, r2
 1935 001e FB60     		str	r3, [r7, #12]
1597:.\Generated_Source\PSoC4/CapSense.c ****     CapSense_CSD_CFG_REG = newRegValue;
 1936              		.loc 1 1597 0
 1937 0020 024B     		ldr	r3, .L95
 1938 0022 FA68     		ldr	r2, [r7, #12]
 1939 0024 1A60     		str	r2, [r3]
1598:.\Generated_Source\PSoC4/CapSense.c **** }
 1940              		.loc 1 1598 0
 1941 0026 BD46     		mov	sp, r7
 1942 0028 04B0     		add	sp, sp, #16
 1943              		@ sp needed
 1944 002a 80BD     		pop	{r7, pc}
 1945              	.L96:
 1946              		.align	2
 1947              	.L95:
 1948 002c 04000840 		.word	1074266116
 1949              		.cfi_endproc
 1950              	.LFE56:
 1951              		.size	CapSense_SetShieldDelay, .-CapSense_SetShieldDelay
 1952              		.section	.text.CapSense_ReadCurrentScanningSensor,"ax",%progbits
 1953              		.align	2
 1954              		.global	CapSense_ReadCurrentScanningSensor
 1955              		.code	16
 1956              		.thumb_func
 1957              		.type	CapSense_ReadCurrentScanningSensor, %function
 1958              	CapSense_ReadCurrentScanningSensor:
 1959              	.LFB57:
1599:.\Generated_Source\PSoC4/CapSense.c **** 
1600:.\Generated_Source\PSoC4/CapSense.c **** 
1601:.\Generated_Source\PSoC4/CapSense.c **** /*******************************************************************************
1602:.\Generated_Source\PSoC4/CapSense.c **** * Function Name: CapSense_ReadCurrentScanningSensor
1603:.\Generated_Source\PSoC4/CapSense.c **** ********************************************************************************
1604:.\Generated_Source\PSoC4/CapSense.c **** *
1605:.\Generated_Source\PSoC4/CapSense.c **** * Summary:
1606:.\Generated_Source\PSoC4/CapSense.c **** *  This API returns scanning sensor number when sensor scan is in progress. 
1607:.\Generated_Source\PSoC4/CapSense.c **** *  When sensor scan is completed the API returns 
1608:.\Generated_Source\PSoC4/CapSense.c **** *  $INSTANCE_NAME`_NOT_SENSOR (0xFFFFFFFF) (when no sensor is scanned).
1609:.\Generated_Source\PSoC4/CapSense.c **** *
1610:.\Generated_Source\PSoC4/CapSense.c **** * Parameters:
1611:.\Generated_Source\PSoC4/CapSense.c **** *	None.
1612:.\Generated_Source\PSoC4/CapSense.c **** *
1613:.\Generated_Source\PSoC4/CapSense.c **** * Return:
1614:.\Generated_Source\PSoC4/CapSense.c **** *  Returns Sensor number if sensor is being scanned and 
1615:.\Generated_Source\PSoC4/CapSense.c **** *  $INSTANCE_NAME`_NOT_SENSOR (0xFFFFFFFF) if scanning is complete.
1616:.\Generated_Source\PSoC4/CapSense.c **** *
1617:.\Generated_Source\PSoC4/CapSense.c **** * Global Variables:
1618:.\Generated_Source\PSoC4/CapSense.c **** *  CapSense_sensorIndex - the sensor number is being scanned.
1619:.\Generated_Source\PSoC4/CapSense.c **** *
1620:.\Generated_Source\PSoC4/CapSense.c **** * Side Effects: 
1621:.\Generated_Source\PSoC4/CapSense.c **** *  None
ARM GAS  C:\DOCUME~1\Chuck\LOCALS~1\Temp\ccp9wtTg.s 			page 64


1622:.\Generated_Source\PSoC4/CapSense.c **** *
1623:.\Generated_Source\PSoC4/CapSense.c **** *******************************************************************************/
1624:.\Generated_Source\PSoC4/CapSense.c **** uint32 CapSense_ReadCurrentScanningSensor(void)
1625:.\Generated_Source\PSoC4/CapSense.c **** {
 1960              		.loc 1 1625 0
 1961              		.cfi_startproc
 1962 0000 80B5     		push	{r7, lr}
 1963              		.cfi_def_cfa_offset 8
 1964              		.cfi_offset 7, -8
 1965              		.cfi_offset 14, -4
 1966 0002 00AF     		add	r7, sp, #0
 1967              		.cfi_def_cfa_register 7
1626:.\Generated_Source\PSoC4/CapSense.c ****     return ((uint32)(( 0u != (CapSense_csdStatusVar & CapSense_SW_STS_BUSY)) ? 
 1968              		.loc 1 1626 0
 1969 0004 074B     		ldr	r3, .L101
 1970 0006 1B78     		ldrb	r3, [r3]
 1971 0008 DBB2     		uxtb	r3, r3
 1972 000a 1A1C     		mov	r2, r3
 1973 000c 0123     		mov	r3, #1
 1974 000e 1340     		and	r3, r2
 1975 0010 03D0     		beq	.L98
 1976              		.loc 1 1626 0 is_stmt 0 discriminator 1
 1977 0012 054B     		ldr	r3, .L101+4
 1978 0014 1B78     		ldrb	r3, [r3]
 1979 0016 DBB2     		uxtb	r3, r3
 1980 0018 01E0     		b	.L99
 1981              	.L98:
 1982              		.loc 1 1626 0 discriminator 2
 1983 001a 0123     		mov	r3, #1
 1984 001c 5B42     		neg	r3, r3
 1985              	.L99:
1627:.\Generated_Source\PSoC4/CapSense.c ****                      CapSense_sensorIndex : CapSense_NOT_SENSOR));
1628:.\Generated_Source\PSoC4/CapSense.c **** }
 1986              		.loc 1 1628 0 is_stmt 1 discriminator 3
 1987 001e 181C     		mov	r0, r3
 1988 0020 BD46     		mov	sp, r7
 1989              		@ sp needed
 1990 0022 80BD     		pop	{r7, pc}
 1991              	.L102:
 1992              		.align	2
 1993              	.L101:
 1994 0024 00000000 		.word	CapSense_csdStatusVar
 1995 0028 00000000 		.word	CapSense_sensorIndex
 1996              		.cfi_endproc
 1997              	.LFE57:
 1998              		.size	CapSense_ReadCurrentScanningSensor, .-CapSense_ReadCurrentScanningSensor
 1999              		.section	.text.CapSense_GetBitValue,"ax",%progbits
 2000              		.align	2
 2001              		.global	CapSense_GetBitValue
 2002              		.code	16
 2003              		.thumb_func
 2004              		.type	CapSense_GetBitValue, %function
 2005              	CapSense_GetBitValue:
 2006              	.LFB58:
1629:.\Generated_Source\PSoC4/CapSense.c **** 
1630:.\Generated_Source\PSoC4/CapSense.c **** 
1631:.\Generated_Source\PSoC4/CapSense.c **** /*******************************************************************************
ARM GAS  C:\DOCUME~1\Chuck\LOCALS~1\Temp\ccp9wtTg.s 			page 65


1632:.\Generated_Source\PSoC4/CapSense.c **** * Function Name: CapSense_GetBitValue
1633:.\Generated_Source\PSoC4/CapSense.c **** ********************************************************************************
1634:.\Generated_Source\PSoC4/CapSense.c **** *
1635:.\Generated_Source\PSoC4/CapSense.c **** * Summary:
1636:.\Generated_Source\PSoC4/CapSense.c **** *  The API returns a bit status of the bit in the table array which contains the masks.
1637:.\Generated_Source\PSoC4/CapSense.c **** * 
1638:.\Generated_Source\PSoC4/CapSense.c **** * Parameters:
1639:.\Generated_Source\PSoC4/CapSense.c **** *  table[] - array with bit masks.
1640:.\Generated_Source\PSoC4/CapSense.c **** *  position - position of bit in the table[] array.
1641:.\Generated_Source\PSoC4/CapSense.c **** *
1642:.\Generated_Source\PSoC4/CapSense.c **** * Return:
1643:.\Generated_Source\PSoC4/CapSense.c **** *  0 - bit is not set; 1 - bit is set.
1644:.\Generated_Source\PSoC4/CapSense.c **** *
1645:.\Generated_Source\PSoC4/CapSense.c **** * Global Variables:
1646:.\Generated_Source\PSoC4/CapSense.c **** *  None
1647:.\Generated_Source\PSoC4/CapSense.c **** *
1648:.\Generated_Source\PSoC4/CapSense.c **** * Side Effects:
1649:.\Generated_Source\PSoC4/CapSense.c **** *  None
1650:.\Generated_Source\PSoC4/CapSense.c **** *
1651:.\Generated_Source\PSoC4/CapSense.c **** *******************************************************************************/
1652:.\Generated_Source\PSoC4/CapSense.c **** uint32 CapSense_GetBitValue(const uint8 table[], uint32 position)
1653:.\Generated_Source\PSoC4/CapSense.c **** {
 2007              		.loc 1 1653 0
 2008              		.cfi_startproc
 2009 0000 80B5     		push	{r7, lr}
 2010              		.cfi_def_cfa_offset 8
 2011              		.cfi_offset 7, -8
 2012              		.cfi_offset 14, -4
 2013 0002 84B0     		sub	sp, sp, #16
 2014              		.cfi_def_cfa_offset 24
 2015 0004 00AF     		add	r7, sp, #0
 2016              		.cfi_def_cfa_register 7
 2017 0006 7860     		str	r0, [r7, #4]
 2018 0008 3960     		str	r1, [r7]
1654:.\Generated_Source\PSoC4/CapSense.c ****     uint32 offset;
1655:.\Generated_Source\PSoC4/CapSense.c **** 	uint8 enMask;
1656:.\Generated_Source\PSoC4/CapSense.c **** 	
1657:.\Generated_Source\PSoC4/CapSense.c **** 	/* position is divided by 8 to calculate the element of the 
1658:.\Generated_Source\PSoC4/CapSense.c **** 	   table[] array that contains the enable bit 
1659:.\Generated_Source\PSoC4/CapSense.c **** 	   for an appropriate sensor.
1660:.\Generated_Source\PSoC4/CapSense.c **** 	*/
1661:.\Generated_Source\PSoC4/CapSense.c **** 	offset = (position >> 3u);
 2019              		.loc 1 1661 0
 2020 000a 3B68     		ldr	r3, [r7]
 2021 000c DB08     		lsr	r3, r3, #3
 2022 000e FB60     		str	r3, [r7, #12]
1662:.\Generated_Source\PSoC4/CapSense.c **** 	
1663:.\Generated_Source\PSoC4/CapSense.c **** 	/* The enMask calculation for the appropriate sensor. Operation (position & 0x07u) 
1664:.\Generated_Source\PSoC4/CapSense.c **** 	   intends to calculate the enable bit offset for the 8-bit element of the 
1665:.\Generated_Source\PSoC4/CapSense.c **** 	   table[] array.
1666:.\Generated_Source\PSoC4/CapSense.c **** 	*/
1667:.\Generated_Source\PSoC4/CapSense.c **** 	enMask = 0x01u << (position & 0x07u);
 2023              		.loc 1 1667 0
 2024 0010 3A68     		ldr	r2, [r7]
 2025 0012 0723     		mov	r3, #7
 2026 0014 1340     		and	r3, r2
 2027 0016 0122     		mov	r2, #1
ARM GAS  C:\DOCUME~1\Chuck\LOCALS~1\Temp\ccp9wtTg.s 			page 66


 2028 0018 9A40     		lsl	r2, r2, r3
 2029 001a 3B1C     		mov	r3, r7
 2030 001c 0B33     		add	r3, r3, #11
 2031 001e 1A70     		strb	r2, [r3]
1668:.\Generated_Source\PSoC4/CapSense.c ****     
1669:.\Generated_Source\PSoC4/CapSense.c ****     return ((0u !=(table[offset] & enMask)) ? 1Lu : 0Lu);
 2032              		.loc 1 1669 0
 2033 0020 7A68     		ldr	r2, [r7, #4]
 2034 0022 FB68     		ldr	r3, [r7, #12]
 2035 0024 D318     		add	r3, r2, r3
 2036 0026 1B78     		ldrb	r3, [r3]
 2037 0028 3A1C     		mov	r2, r7
 2038 002a 0B32     		add	r2, r2, #11
 2039 002c 1278     		ldrb	r2, [r2]
 2040 002e 1340     		and	r3, r2
 2041 0030 DBB2     		uxtb	r3, r3
 2042 0032 002B     		cmp	r3, #0
 2043 0034 01D0     		beq	.L104
 2044              		.loc 1 1669 0 is_stmt 0 discriminator 1
 2045 0036 0123     		mov	r3, #1
 2046 0038 00E0     		b	.L105
 2047              	.L104:
 2048              		.loc 1 1669 0 discriminator 2
 2049 003a 0023     		mov	r3, #0
 2050              	.L105:
1670:.\Generated_Source\PSoC4/CapSense.c **** }
 2051              		.loc 1 1670 0 is_stmt 1 discriminator 3
 2052 003c 181C     		mov	r0, r3
 2053 003e BD46     		mov	sp, r7
 2054 0040 04B0     		add	sp, sp, #16
 2055              		@ sp needed
 2056 0042 80BD     		pop	{r7, pc}
 2057              		.cfi_endproc
 2058              	.LFE58:
 2059              		.size	CapSense_GetBitValue, .-CapSense_GetBitValue
 2060              		.section	.text.CapSense_SetBitValue,"ax",%progbits
 2061              		.align	2
 2062              		.global	CapSense_SetBitValue
 2063              		.code	16
 2064              		.thumb_func
 2065              		.type	CapSense_SetBitValue, %function
 2066              	CapSense_SetBitValue:
 2067              	.LFB59:
1671:.\Generated_Source\PSoC4/CapSense.c **** 
1672:.\Generated_Source\PSoC4/CapSense.c **** 
1673:.\Generated_Source\PSoC4/CapSense.c **** /*******************************************************************************
1674:.\Generated_Source\PSoC4/CapSense.c **** * Function Name: CapSense_SetBitValue
1675:.\Generated_Source\PSoC4/CapSense.c **** ********************************************************************************
1676:.\Generated_Source\PSoC4/CapSense.c **** *
1677:.\Generated_Source\PSoC4/CapSense.c **** * Summary:
1678:.\Generated_Source\PSoC4/CapSense.c **** *  The API sets a bit status of the bit in the table array which contains masks.
1679:.\Generated_Source\PSoC4/CapSense.c **** * 
1680:.\Generated_Source\PSoC4/CapSense.c **** * Parameters:
1681:.\Generated_Source\PSoC4/CapSense.c **** *  table[] - array with bit masks.
1682:.\Generated_Source\PSoC4/CapSense.c **** *  position - position of bit in the table[] array.
1683:.\Generated_Source\PSoC4/CapSense.c **** *  value: 0 - bit is not set; 1 - bit is set.
1684:.\Generated_Source\PSoC4/CapSense.c **** *
ARM GAS  C:\DOCUME~1\Chuck\LOCALS~1\Temp\ccp9wtTg.s 			page 67


1685:.\Generated_Source\PSoC4/CapSense.c **** * Return:
1686:.\Generated_Source\PSoC4/CapSense.c **** *  None
1687:.\Generated_Source\PSoC4/CapSense.c **** *
1688:.\Generated_Source\PSoC4/CapSense.c **** * Global Variables:
1689:.\Generated_Source\PSoC4/CapSense.c **** *  None
1690:.\Generated_Source\PSoC4/CapSense.c **** *
1691:.\Generated_Source\PSoC4/CapSense.c **** * Side Effects:
1692:.\Generated_Source\PSoC4/CapSense.c **** *  None
1693:.\Generated_Source\PSoC4/CapSense.c **** *
1694:.\Generated_Source\PSoC4/CapSense.c **** *******************************************************************************/
1695:.\Generated_Source\PSoC4/CapSense.c **** void CapSense_SetBitValue(uint8 table[], uint32 position, uint32 value)
1696:.\Generated_Source\PSoC4/CapSense.c **** {
 2068              		.loc 1 1696 0
 2069              		.cfi_startproc
 2070 0000 80B5     		push	{r7, lr}
 2071              		.cfi_def_cfa_offset 8
 2072              		.cfi_offset 7, -8
 2073              		.cfi_offset 14, -4
 2074 0002 86B0     		sub	sp, sp, #24
 2075              		.cfi_def_cfa_offset 32
 2076 0004 00AF     		add	r7, sp, #0
 2077              		.cfi_def_cfa_register 7
 2078 0006 F860     		str	r0, [r7, #12]
 2079 0008 B960     		str	r1, [r7, #8]
 2080 000a 7A60     		str	r2, [r7, #4]
1697:.\Generated_Source\PSoC4/CapSense.c ****     uint32 offset;
1698:.\Generated_Source\PSoC4/CapSense.c **** 	uint8 enMask;
1699:.\Generated_Source\PSoC4/CapSense.c **** 	
1700:.\Generated_Source\PSoC4/CapSense.c **** 	/* position is divided by 8 to calculate the element of the 
1701:.\Generated_Source\PSoC4/CapSense.c **** 	   table[] array that contains the enable bit 
1702:.\Generated_Source\PSoC4/CapSense.c **** 	   for an appropriate sensor.
1703:.\Generated_Source\PSoC4/CapSense.c **** 	*/
1704:.\Generated_Source\PSoC4/CapSense.c **** 	offset = (position >> 3u);
 2081              		.loc 1 1704 0
 2082 000c BB68     		ldr	r3, [r7, #8]
 2083 000e DB08     		lsr	r3, r3, #3
 2084 0010 7B61     		str	r3, [r7, #20]
1705:.\Generated_Source\PSoC4/CapSense.c **** 	
1706:.\Generated_Source\PSoC4/CapSense.c **** 	/* The enMask calculation for the appropriate sensor. Operation (position & 0x07u) 
1707:.\Generated_Source\PSoC4/CapSense.c **** 	   intends to calculate the enable bit offset for the 8-bit element of the 
1708:.\Generated_Source\PSoC4/CapSense.c **** 	   table[] array.
1709:.\Generated_Source\PSoC4/CapSense.c **** 	*/
1710:.\Generated_Source\PSoC4/CapSense.c **** 	enMask = 0x01u << (position & 0x07u);
 2085              		.loc 1 1710 0
 2086 0012 BA68     		ldr	r2, [r7, #8]
 2087 0014 0723     		mov	r3, #7
 2088 0016 1340     		and	r3, r2
 2089 0018 0122     		mov	r2, #1
 2090 001a 9A40     		lsl	r2, r2, r3
 2091 001c 3B1C     		mov	r3, r7
 2092 001e 1333     		add	r3, r3, #19
 2093 0020 1A70     		strb	r2, [r3]
1711:.\Generated_Source\PSoC4/CapSense.c **** 	
1712:.\Generated_Source\PSoC4/CapSense.c **** 	if(0u != value)
 2094              		.loc 1 1712 0
 2095 0022 7B68     		ldr	r3, [r7, #4]
 2096 0024 002B     		cmp	r3, #0
ARM GAS  C:\DOCUME~1\Chuck\LOCALS~1\Temp\ccp9wtTg.s 			page 68


 2097 0026 0DD0     		beq	.L108
1713:.\Generated_Source\PSoC4/CapSense.c **** 	{
1714:.\Generated_Source\PSoC4/CapSense.c **** 		table[offset] |= enMask;
 2098              		.loc 1 1714 0
 2099 0028 FA68     		ldr	r2, [r7, #12]
 2100 002a 7B69     		ldr	r3, [r7, #20]
 2101 002c D318     		add	r3, r2, r3
 2102 002e F968     		ldr	r1, [r7, #12]
 2103 0030 7A69     		ldr	r2, [r7, #20]
 2104 0032 8A18     		add	r2, r1, r2
 2105 0034 1178     		ldrb	r1, [r2]
 2106 0036 3A1C     		mov	r2, r7
 2107 0038 1332     		add	r2, r2, #19
 2108 003a 1278     		ldrb	r2, [r2]
 2109 003c 0A43     		orr	r2, r1
 2110 003e D2B2     		uxtb	r2, r2
 2111 0040 1A70     		strb	r2, [r3]
 2112 0042 0EE0     		b	.L107
 2113              	.L108:
1715:.\Generated_Source\PSoC4/CapSense.c **** 	}
1716:.\Generated_Source\PSoC4/CapSense.c **** 	else
1717:.\Generated_Source\PSoC4/CapSense.c **** 	{
1718:.\Generated_Source\PSoC4/CapSense.c **** 		table[offset] &= (uint8)~(enMask);
 2114              		.loc 1 1718 0
 2115 0044 FA68     		ldr	r2, [r7, #12]
 2116 0046 7B69     		ldr	r3, [r7, #20]
 2117 0048 D318     		add	r3, r2, r3
 2118 004a F968     		ldr	r1, [r7, #12]
 2119 004c 7A69     		ldr	r2, [r7, #20]
 2120 004e 8A18     		add	r2, r1, r2
 2121 0050 1278     		ldrb	r2, [r2]
 2122 0052 391C     		mov	r1, r7
 2123 0054 1331     		add	r1, r1, #19
 2124 0056 0978     		ldrb	r1, [r1]
 2125 0058 C943     		mvn	r1, r1
 2126 005a C9B2     		uxtb	r1, r1
 2127 005c 0A40     		and	r2, r1
 2128 005e D2B2     		uxtb	r2, r2
 2129 0060 1A70     		strb	r2, [r3]
 2130              	.L107:
1719:.\Generated_Source\PSoC4/CapSense.c **** 	}
1720:.\Generated_Source\PSoC4/CapSense.c **** }
 2131              		.loc 1 1720 0
 2132 0062 BD46     		mov	sp, r7
 2133 0064 06B0     		add	sp, sp, #24
 2134              		@ sp needed
 2135 0066 80BD     		pop	{r7, pc}
 2136              		.cfi_endproc
 2137              	.LFE59:
 2138              		.size	CapSense_SetBitValue, .-CapSense_SetBitValue
 2139              		.section	.text.CapSense_GetSenseClkDivider,"ax",%progbits
 2140              		.align	2
 2141              		.global	CapSense_GetSenseClkDivider
 2142              		.code	16
 2143              		.thumb_func
 2144              		.type	CapSense_GetSenseClkDivider, %function
 2145              	CapSense_GetSenseClkDivider:
ARM GAS  C:\DOCUME~1\Chuck\LOCALS~1\Temp\ccp9wtTg.s 			page 69


 2146              	.LFB60:
1721:.\Generated_Source\PSoC4/CapSense.c **** 
1722:.\Generated_Source\PSoC4/CapSense.c **** 
1723:.\Generated_Source\PSoC4/CapSense.c **** 
1724:.\Generated_Source\PSoC4/CapSense.c **** /*******************************************************************************
1725:.\Generated_Source\PSoC4/CapSense.c **** * Function Name: CapSense_GetSenseClkDivider
1726:.\Generated_Source\PSoC4/CapSense.c **** ********************************************************************************
1727:.\Generated_Source\PSoC4/CapSense.c **** *
1728:.\Generated_Source\PSoC4/CapSense.c **** * Summary:
1729:.\Generated_Source\PSoC4/CapSense.c **** *  This API returns a value of the sense clock divider for the  sensor.
1730:.\Generated_Source\PSoC4/CapSense.c **** *
1731:.\Generated_Source\PSoC4/CapSense.c **** * Parameters:
1732:.\Generated_Source\PSoC4/CapSense.c **** *  sensor: sensor index. The index value can be 
1733:.\Generated_Source\PSoC4/CapSense.c **** *  from 0 to (CapSense_TOTAL_SENSOR_COUNT-1).
1734:.\Generated_Source\PSoC4/CapSense.c **** *
1735:.\Generated_Source\PSoC4/CapSense.c **** * Return:
1736:.\Generated_Source\PSoC4/CapSense.c **** *  This API returns the sense clock divider of the sensor. 
1737:.\Generated_Source\PSoC4/CapSense.c **** *
1738:.\Generated_Source\PSoC4/CapSense.c **** * Global Variables:
1739:.\Generated_Source\PSoC4/CapSense.c **** *  CapSense_senseClkDividerVal[] - stores the sense clock divider values.
1740:.\Generated_Source\PSoC4/CapSense.c **** * 
1741:.\Generated_Source\PSoC4/CapSense.c **** * Side Effects:
1742:.\Generated_Source\PSoC4/CapSense.c **** *  None
1743:.\Generated_Source\PSoC4/CapSense.c **** *
1744:.\Generated_Source\PSoC4/CapSense.c **** *******************************************************************************/
1745:.\Generated_Source\PSoC4/CapSense.c **** uint32 CapSense_GetSenseClkDivider(uint32 sensor)
1746:.\Generated_Source\PSoC4/CapSense.c **** {
 2147              		.loc 1 1746 0
 2148              		.cfi_startproc
 2149 0000 80B5     		push	{r7, lr}
 2150              		.cfi_def_cfa_offset 8
 2151              		.cfi_offset 7, -8
 2152              		.cfi_offset 14, -4
 2153 0002 82B0     		sub	sp, sp, #8
 2154              		.cfi_def_cfa_offset 16
 2155 0004 00AF     		add	r7, sp, #0
 2156              		.cfi_def_cfa_register 7
 2157 0006 7860     		str	r0, [r7, #4]
1747:.\Generated_Source\PSoC4/CapSense.c **** 	#if(0u != CapSense_MULTIPLE_FREQUENCY_SET)
1748:.\Generated_Source\PSoC4/CapSense.c **** 		return((uint32)CapSense_senseClkDividerVal[sensor]);
 2158              		.loc 1 1748 0
 2159 0008 034A     		ldr	r2, .L112
 2160 000a 7B68     		ldr	r3, [r7, #4]
 2161 000c D318     		add	r3, r2, r3
 2162 000e 1B78     		ldrb	r3, [r3]
1749:.\Generated_Source\PSoC4/CapSense.c **** 	#else
1750:.\Generated_Source\PSoC4/CapSense.c **** 		return((uint32)CapSense_senseClkDividerVal);
1751:.\Generated_Source\PSoC4/CapSense.c **** 	#endif /* (0u != CapSense_MULTIPLE_FREQUENCY_SET) */
1752:.\Generated_Source\PSoC4/CapSense.c **** }
 2163              		.loc 1 1752 0
 2164 0010 181C     		mov	r0, r3
 2165 0012 BD46     		mov	sp, r7
 2166 0014 02B0     		add	sp, sp, #8
 2167              		@ sp needed
 2168 0016 80BD     		pop	{r7, pc}
 2169              	.L113:
 2170              		.align	2
ARM GAS  C:\DOCUME~1\Chuck\LOCALS~1\Temp\ccp9wtTg.s 			page 70


 2171              	.L112:
 2172 0018 00000000 		.word	CapSense_senseClkDividerVal
 2173              		.cfi_endproc
 2174              	.LFE60:
 2175              		.size	CapSense_GetSenseClkDivider, .-CapSense_GetSenseClkDivider
 2176              		.section	.text.CapSense_SetSenseClkDivider,"ax",%progbits
 2177              		.align	2
 2178              		.global	CapSense_SetSenseClkDivider
 2179              		.code	16
 2180              		.thumb_func
 2181              		.type	CapSense_SetSenseClkDivider, %function
 2182              	CapSense_SetSenseClkDivider:
 2183              	.LFB61:
1753:.\Generated_Source\PSoC4/CapSense.c **** 
1754:.\Generated_Source\PSoC4/CapSense.c **** #if (CapSense_TUNING_METHOD != CapSense__TUNING_NONE)
1755:.\Generated_Source\PSoC4/CapSense.c **** 	/*******************************************************************************
1756:.\Generated_Source\PSoC4/CapSense.c **** 	* Function Name: CapSense_SetSenseClkDivider
1757:.\Generated_Source\PSoC4/CapSense.c **** 	********************************************************************************
1758:.\Generated_Source\PSoC4/CapSense.c **** 	*
1759:.\Generated_Source\PSoC4/CapSense.c **** 	* Summary:
1760:.\Generated_Source\PSoC4/CapSense.c **** 	*  This API sets a value of the sense clock divider for the  sensor. 
1761:.\Generated_Source\PSoC4/CapSense.c **** 	*
1762:.\Generated_Source\PSoC4/CapSense.c **** 	* Parameters:
1763:.\Generated_Source\PSoC4/CapSense.c **** 	*  sensor:  Sensor index.
1764:.\Generated_Source\PSoC4/CapSense.c **** 	*  senseClk: represents the sense clock value.
1765:.\Generated_Source\PSoC4/CapSense.c **** 	*
1766:.\Generated_Source\PSoC4/CapSense.c **** 	* Return:
1767:.\Generated_Source\PSoC4/CapSense.c **** 	*  None.
1768:.\Generated_Source\PSoC4/CapSense.c **** 	*
1769:.\Generated_Source\PSoC4/CapSense.c **** 	* Global Variables:
1770:.\Generated_Source\PSoC4/CapSense.c **** 	*  CapSense_senseClkDividerVal[] - stores the sense clock divider values.
1771:.\Generated_Source\PSoC4/CapSense.c **** 	* 
1772:.\Generated_Source\PSoC4/CapSense.c **** 	* Side Effects:
1773:.\Generated_Source\PSoC4/CapSense.c **** 	*  None
1774:.\Generated_Source\PSoC4/CapSense.c **** 	*
1775:.\Generated_Source\PSoC4/CapSense.c **** 	*******************************************************************************/
1776:.\Generated_Source\PSoC4/CapSense.c **** 	void CapSense_SetSenseClkDivider(uint32 sensor, uint32 senseClk)
1777:.\Generated_Source\PSoC4/CapSense.c **** 	{
 2184              		.loc 1 1777 0
 2185              		.cfi_startproc
 2186 0000 80B5     		push	{r7, lr}
 2187              		.cfi_def_cfa_offset 8
 2188              		.cfi_offset 7, -8
 2189              		.cfi_offset 14, -4
 2190 0002 82B0     		sub	sp, sp, #8
 2191              		.cfi_def_cfa_offset 16
 2192 0004 00AF     		add	r7, sp, #0
 2193              		.cfi_def_cfa_register 7
 2194 0006 7860     		str	r0, [r7, #4]
 2195 0008 3960     		str	r1, [r7]
1778:.\Generated_Source\PSoC4/CapSense.c **** 		#if(0u != CapSense_MULTIPLE_FREQUENCY_SET)
1779:.\Generated_Source\PSoC4/CapSense.c **** 			CapSense_senseClkDividerVal[sensor] = (uint8)senseClk;
 2196              		.loc 1 1779 0
 2197 000a 3B68     		ldr	r3, [r7]
 2198 000c DAB2     		uxtb	r2, r3
 2199 000e 0349     		ldr	r1, .L115
 2200 0010 7B68     		ldr	r3, [r7, #4]
ARM GAS  C:\DOCUME~1\Chuck\LOCALS~1\Temp\ccp9wtTg.s 			page 71


 2201 0012 CB18     		add	r3, r1, r3
 2202 0014 1A70     		strb	r2, [r3]
1780:.\Generated_Source\PSoC4/CapSense.c **** 		#else
1781:.\Generated_Source\PSoC4/CapSense.c **** 			CapSense_senseClkDividerVal = (uint8)senseClk;
1782:.\Generated_Source\PSoC4/CapSense.c **** 		#endif /* (0u != CapSense_MULTIPLE_FREQUENCY_SET) */
1783:.\Generated_Source\PSoC4/CapSense.c **** 	}
 2203              		.loc 1 1783 0
 2204 0016 BD46     		mov	sp, r7
 2205 0018 02B0     		add	sp, sp, #8
 2206              		@ sp needed
 2207 001a 80BD     		pop	{r7, pc}
 2208              	.L116:
 2209              		.align	2
 2210              	.L115:
 2211 001c 00000000 		.word	CapSense_senseClkDividerVal
 2212              		.cfi_endproc
 2213              	.LFE61:
 2214              		.size	CapSense_SetSenseClkDivider, .-CapSense_SetSenseClkDivider
 2215              		.section	.text.CapSense_GetModulatorClkDivider,"ax",%progbits
 2216              		.align	2
 2217              		.global	CapSense_GetModulatorClkDivider
 2218              		.code	16
 2219              		.thumb_func
 2220              		.type	CapSense_GetModulatorClkDivider, %function
 2221              	CapSense_GetModulatorClkDivider:
 2222              	.LFB62:
1784:.\Generated_Source\PSoC4/CapSense.c **** #endif /* (CapSense_TUNING_METHOD != CapSense__TUNING_NONE) */
1785:.\Generated_Source\PSoC4/CapSense.c **** 
1786:.\Generated_Source\PSoC4/CapSense.c **** 
1787:.\Generated_Source\PSoC4/CapSense.c **** /*******************************************************************************
1788:.\Generated_Source\PSoC4/CapSense.c **** * Function Name: CapSense_GetModulatorClkDivider
1789:.\Generated_Source\PSoC4/CapSense.c **** ********************************************************************************
1790:.\Generated_Source\PSoC4/CapSense.c **** *
1791:.\Generated_Source\PSoC4/CapSense.c **** * Summary:
1792:.\Generated_Source\PSoC4/CapSense.c **** *  This API returns a value of the modulator sample clock divider for the  sensor.
1793:.\Generated_Source\PSoC4/CapSense.c **** *
1794:.\Generated_Source\PSoC4/CapSense.c **** * Parameters:
1795:.\Generated_Source\PSoC4/CapSense.c **** *  sensor: sensor index. The value of index can be 
1796:.\Generated_Source\PSoC4/CapSense.c **** *  from 0 to (CapSense_TOTAL_SENSOR_COUNT-1).
1797:.\Generated_Source\PSoC4/CapSense.c **** *
1798:.\Generated_Source\PSoC4/CapSense.c **** * Return:
1799:.\Generated_Source\PSoC4/CapSense.c **** *  This API returns the modulator sample clock divider for the  sensor.
1800:.\Generated_Source\PSoC4/CapSense.c **** *
1801:.\Generated_Source\PSoC4/CapSense.c **** * Global Variables:
1802:.\Generated_Source\PSoC4/CapSense.c **** *  CapSense_sampleClkDividerVal[] - stores the modulator sample divider values.
1803:.\Generated_Source\PSoC4/CapSense.c **** * 
1804:.\Generated_Source\PSoC4/CapSense.c **** * Side Effects:
1805:.\Generated_Source\PSoC4/CapSense.c **** *  None
1806:.\Generated_Source\PSoC4/CapSense.c **** *
1807:.\Generated_Source\PSoC4/CapSense.c **** *******************************************************************************/
1808:.\Generated_Source\PSoC4/CapSense.c **** uint32 CapSense_GetModulatorClkDivider(uint32 sensor)
1809:.\Generated_Source\PSoC4/CapSense.c **** {
 2223              		.loc 1 1809 0
 2224              		.cfi_startproc
 2225 0000 80B5     		push	{r7, lr}
 2226              		.cfi_def_cfa_offset 8
 2227              		.cfi_offset 7, -8
ARM GAS  C:\DOCUME~1\Chuck\LOCALS~1\Temp\ccp9wtTg.s 			page 72


 2228              		.cfi_offset 14, -4
 2229 0002 82B0     		sub	sp, sp, #8
 2230              		.cfi_def_cfa_offset 16
 2231 0004 00AF     		add	r7, sp, #0
 2232              		.cfi_def_cfa_register 7
 2233 0006 7860     		str	r0, [r7, #4]
1810:.\Generated_Source\PSoC4/CapSense.c **** 	#if(0u != CapSense_MULTIPLE_FREQUENCY_SET)
1811:.\Generated_Source\PSoC4/CapSense.c **** 		return((uint32)CapSense_sampleClkDividerVal[sensor]);
 2234              		.loc 1 1811 0
 2235 0008 034A     		ldr	r2, .L119
 2236 000a 7B68     		ldr	r3, [r7, #4]
 2237 000c D318     		add	r3, r2, r3
 2238 000e 1B78     		ldrb	r3, [r3]
1812:.\Generated_Source\PSoC4/CapSense.c **** 	#else
1813:.\Generated_Source\PSoC4/CapSense.c **** 		return((uint32)CapSense_sampleClkDividerVal);
1814:.\Generated_Source\PSoC4/CapSense.c **** 	#endif /* (0u != CapSense_MULTIPLE_FREQUENCY_SET) */
1815:.\Generated_Source\PSoC4/CapSense.c **** }
 2239              		.loc 1 1815 0
 2240 0010 181C     		mov	r0, r3
 2241 0012 BD46     		mov	sp, r7
 2242 0014 02B0     		add	sp, sp, #8
 2243              		@ sp needed
 2244 0016 80BD     		pop	{r7, pc}
 2245              	.L120:
 2246              		.align	2
 2247              	.L119:
 2248 0018 00000000 		.word	CapSense_sampleClkDividerVal
 2249              		.cfi_endproc
 2250              	.LFE62:
 2251              		.size	CapSense_GetModulatorClkDivider, .-CapSense_GetModulatorClkDivider
 2252              		.section	.text.CapSense_SetModulatorClkDivider,"ax",%progbits
 2253              		.align	2
 2254              		.global	CapSense_SetModulatorClkDivider
 2255              		.code	16
 2256              		.thumb_func
 2257              		.type	CapSense_SetModulatorClkDivider, %function
 2258              	CapSense_SetModulatorClkDivider:
 2259              	.LFB63:
1816:.\Generated_Source\PSoC4/CapSense.c **** 
1817:.\Generated_Source\PSoC4/CapSense.c **** #if (CapSense_TUNING_METHOD != CapSense__TUNING_NONE)
1818:.\Generated_Source\PSoC4/CapSense.c **** 	/*******************************************************************************
1819:.\Generated_Source\PSoC4/CapSense.c **** 	* Function Name: CapSense_SetModulatorClkDivider
1820:.\Generated_Source\PSoC4/CapSense.c **** 	********************************************************************************
1821:.\Generated_Source\PSoC4/CapSense.c **** 	*
1822:.\Generated_Source\PSoC4/CapSense.c **** 	* Summary:
1823:.\Generated_Source\PSoC4/CapSense.c **** 	*  This API sets a value of the modulator sample clock divider for the  sensor.
1824:.\Generated_Source\PSoC4/CapSense.c **** 	*
1825:.\Generated_Source\PSoC4/CapSense.c **** 	* Parameters:
1826:.\Generated_Source\PSoC4/CapSense.c **** 	*  sensor:  Sensor index.
1827:.\Generated_Source\PSoC4/CapSense.c **** 	*  modulatorClk: represents the modulator sample clock value.
1828:.\Generated_Source\PSoC4/CapSense.c **** 	*
1829:.\Generated_Source\PSoC4/CapSense.c **** 	* Return:
1830:.\Generated_Source\PSoC4/CapSense.c **** 	*  None.
1831:.\Generated_Source\PSoC4/CapSense.c **** 	*
1832:.\Generated_Source\PSoC4/CapSense.c **** 	* Global Variables:
1833:.\Generated_Source\PSoC4/CapSense.c **** 	*  CapSense_sampleClkDividerVal[] - stores the modulator sample divider values.
1834:.\Generated_Source\PSoC4/CapSense.c **** 	* 
ARM GAS  C:\DOCUME~1\Chuck\LOCALS~1\Temp\ccp9wtTg.s 			page 73


1835:.\Generated_Source\PSoC4/CapSense.c **** 	* Side Effects:
1836:.\Generated_Source\PSoC4/CapSense.c **** 	*  None
1837:.\Generated_Source\PSoC4/CapSense.c **** 	*
1838:.\Generated_Source\PSoC4/CapSense.c **** 	*******************************************************************************/
1839:.\Generated_Source\PSoC4/CapSense.c **** 	void CapSense_SetModulatorClkDivider(uint32 sensor, uint32 modulatorClk)
1840:.\Generated_Source\PSoC4/CapSense.c **** 	{
 2260              		.loc 1 1840 0
 2261              		.cfi_startproc
 2262 0000 80B5     		push	{r7, lr}
 2263              		.cfi_def_cfa_offset 8
 2264              		.cfi_offset 7, -8
 2265              		.cfi_offset 14, -4
 2266 0002 82B0     		sub	sp, sp, #8
 2267              		.cfi_def_cfa_offset 16
 2268 0004 00AF     		add	r7, sp, #0
 2269              		.cfi_def_cfa_register 7
 2270 0006 7860     		str	r0, [r7, #4]
 2271 0008 3960     		str	r1, [r7]
1841:.\Generated_Source\PSoC4/CapSense.c **** 		#if(0u != CapSense_MULTIPLE_FREQUENCY_SET)
1842:.\Generated_Source\PSoC4/CapSense.c **** 			CapSense_sampleClkDividerVal[sensor] = (uint8)modulatorClk;
 2272              		.loc 1 1842 0
 2273 000a 3B68     		ldr	r3, [r7]
 2274 000c DAB2     		uxtb	r2, r3
 2275 000e 0349     		ldr	r1, .L122
 2276 0010 7B68     		ldr	r3, [r7, #4]
 2277 0012 CB18     		add	r3, r1, r3
 2278 0014 1A70     		strb	r2, [r3]
1843:.\Generated_Source\PSoC4/CapSense.c **** 		#else
1844:.\Generated_Source\PSoC4/CapSense.c **** 			CapSense_sampleClkDividerVal = (uint8)modulatorClk;
1845:.\Generated_Source\PSoC4/CapSense.c **** 		#endif /* (0u != CapSense_MULTIPLE_FREQUENCY_SET) */
1846:.\Generated_Source\PSoC4/CapSense.c **** 	}
 2279              		.loc 1 1846 0
 2280 0016 BD46     		mov	sp, r7
 2281 0018 02B0     		add	sp, sp, #8
 2282              		@ sp needed
 2283 001a 80BD     		pop	{r7, pc}
 2284              	.L123:
 2285              		.align	2
 2286              	.L122:
 2287 001c 00000000 		.word	CapSense_sampleClkDividerVal
 2288              		.cfi_endproc
 2289              	.LFE63:
 2290              		.size	CapSense_SetModulatorClkDivider, .-CapSense_SetModulatorClkDivider
 2291              		.section	.text.CapSense_GetModulationIDAC,"ax",%progbits
 2292              		.align	2
 2293              		.global	CapSense_GetModulationIDAC
 2294              		.code	16
 2295              		.thumb_func
 2296              		.type	CapSense_GetModulationIDAC, %function
 2297              	CapSense_GetModulationIDAC:
 2298              	.LFB64:
1847:.\Generated_Source\PSoC4/CapSense.c **** #endif /* (CapSense_TUNING_METHOD != CapSense__TUNING_NONE) */
1848:.\Generated_Source\PSoC4/CapSense.c **** 
1849:.\Generated_Source\PSoC4/CapSense.c **** /*******************************************************************************
1850:.\Generated_Source\PSoC4/CapSense.c **** * Function Name: CapSense_GetModulationIDAC
1851:.\Generated_Source\PSoC4/CapSense.c **** ********************************************************************************
1852:.\Generated_Source\PSoC4/CapSense.c **** *
ARM GAS  C:\DOCUME~1\Chuck\LOCALS~1\Temp\ccp9wtTg.s 			page 74


1853:.\Generated_Source\PSoC4/CapSense.c **** * Summary:
1854:.\Generated_Source\PSoC4/CapSense.c **** *  This API returns a value of the modulation IDAC for the  sensor.
1855:.\Generated_Source\PSoC4/CapSense.c **** *
1856:.\Generated_Source\PSoC4/CapSense.c **** * Parameters:
1857:.\Generated_Source\PSoC4/CapSense.c **** *  sensor: sensor index. The index value can be 
1858:.\Generated_Source\PSoC4/CapSense.c **** *  from 0 to (CapSense_TOTAL_SENSOR_COUNT-1).
1859:.\Generated_Source\PSoC4/CapSense.c **** *
1860:.\Generated_Source\PSoC4/CapSense.c **** * Return:
1861:.\Generated_Source\PSoC4/CapSense.c **** *  This API returns the modulation IDAC of the sensor. 
1862:.\Generated_Source\PSoC4/CapSense.c **** *
1863:.\Generated_Source\PSoC4/CapSense.c **** * Global Variables:
1864:.\Generated_Source\PSoC4/CapSense.c **** *  CapSense_modulationIDAC[] - stores modulation IDAC values.
1865:.\Generated_Source\PSoC4/CapSense.c **** * 
1866:.\Generated_Source\PSoC4/CapSense.c **** * Side Effects:
1867:.\Generated_Source\PSoC4/CapSense.c **** *  None
1868:.\Generated_Source\PSoC4/CapSense.c **** *
1869:.\Generated_Source\PSoC4/CapSense.c **** *******************************************************************************/
1870:.\Generated_Source\PSoC4/CapSense.c **** uint32 CapSense_GetModulationIDAC(uint32 sensor)
1871:.\Generated_Source\PSoC4/CapSense.c **** {
 2299              		.loc 1 1871 0
 2300              		.cfi_startproc
 2301 0000 80B5     		push	{r7, lr}
 2302              		.cfi_def_cfa_offset 8
 2303              		.cfi_offset 7, -8
 2304              		.cfi_offset 14, -4
 2305 0002 82B0     		sub	sp, sp, #8
 2306              		.cfi_def_cfa_offset 16
 2307 0004 00AF     		add	r7, sp, #0
 2308              		.cfi_def_cfa_register 7
 2309 0006 7860     		str	r0, [r7, #4]
1872:.\Generated_Source\PSoC4/CapSense.c **** 		return((uint32)CapSense_modulationIDAC[sensor]);
 2310              		.loc 1 1872 0
 2311 0008 034A     		ldr	r2, .L126
 2312 000a 7B68     		ldr	r3, [r7, #4]
 2313 000c D318     		add	r3, r2, r3
 2314 000e 1B78     		ldrb	r3, [r3]
1873:.\Generated_Source\PSoC4/CapSense.c **** }
 2315              		.loc 1 1873 0
 2316 0010 181C     		mov	r0, r3
 2317 0012 BD46     		mov	sp, r7
 2318 0014 02B0     		add	sp, sp, #8
 2319              		@ sp needed
 2320 0016 80BD     		pop	{r7, pc}
 2321              	.L127:
 2322              		.align	2
 2323              	.L126:
 2324 0018 00000000 		.word	CapSense_modulationIDAC
 2325              		.cfi_endproc
 2326              	.LFE64:
 2327              		.size	CapSense_GetModulationIDAC, .-CapSense_GetModulationIDAC
 2328              		.section	.text.CapSense_SetModulationIDAC,"ax",%progbits
 2329              		.align	2
 2330              		.global	CapSense_SetModulationIDAC
 2331              		.code	16
 2332              		.thumb_func
 2333              		.type	CapSense_SetModulationIDAC, %function
 2334              	CapSense_SetModulationIDAC:
ARM GAS  C:\DOCUME~1\Chuck\LOCALS~1\Temp\ccp9wtTg.s 			page 75


 2335              	.LFB65:
1874:.\Generated_Source\PSoC4/CapSense.c **** 
1875:.\Generated_Source\PSoC4/CapSense.c **** #if (CapSense_TUNING_METHOD != CapSense__TUNING_NONE)
1876:.\Generated_Source\PSoC4/CapSense.c **** 	/*******************************************************************************
1877:.\Generated_Source\PSoC4/CapSense.c **** 	* Function Name: CapSense_SetModulationIDAC
1878:.\Generated_Source\PSoC4/CapSense.c **** 	********************************************************************************
1879:.\Generated_Source\PSoC4/CapSense.c **** 	*
1880:.\Generated_Source\PSoC4/CapSense.c **** 	* Summary:
1881:.\Generated_Source\PSoC4/CapSense.c **** 	*  This API sets a value of the modulation IDAC for the  sensor.
1882:.\Generated_Source\PSoC4/CapSense.c **** 	*
1883:.\Generated_Source\PSoC4/CapSense.c **** 	* Parameters:
1884:.\Generated_Source\PSoC4/CapSense.c **** 	*  sensor:  Sensor index.
1885:.\Generated_Source\PSoC4/CapSense.c **** 	*  compIdacValue: represents the modulation IDAC data register value.
1886:.\Generated_Source\PSoC4/CapSense.c **** 	*
1887:.\Generated_Source\PSoC4/CapSense.c **** 	* Return:
1888:.\Generated_Source\PSoC4/CapSense.c **** 	*  None.
1889:.\Generated_Source\PSoC4/CapSense.c **** 	*
1890:.\Generated_Source\PSoC4/CapSense.c **** 	* Global Variables:
1891:.\Generated_Source\PSoC4/CapSense.c **** 	*  CapSense_modulationIDAC[] - array with modulation IDAC values
1892:.\Generated_Source\PSoC4/CapSense.c **** 	* 
1893:.\Generated_Source\PSoC4/CapSense.c **** 	* Side Effects:
1894:.\Generated_Source\PSoC4/CapSense.c **** 	*  None
1895:.\Generated_Source\PSoC4/CapSense.c **** 	*
1896:.\Generated_Source\PSoC4/CapSense.c **** 	*******************************************************************************/
1897:.\Generated_Source\PSoC4/CapSense.c **** 	void CapSense_SetModulationIDAC(uint32 sensor, uint32 modIdacValue)
1898:.\Generated_Source\PSoC4/CapSense.c **** 	{
 2336              		.loc 1 1898 0
 2337              		.cfi_startproc
 2338 0000 80B5     		push	{r7, lr}
 2339              		.cfi_def_cfa_offset 8
 2340              		.cfi_offset 7, -8
 2341              		.cfi_offset 14, -4
 2342 0002 82B0     		sub	sp, sp, #8
 2343              		.cfi_def_cfa_offset 16
 2344 0004 00AF     		add	r7, sp, #0
 2345              		.cfi_def_cfa_register 7
 2346 0006 7860     		str	r0, [r7, #4]
 2347 0008 3960     		str	r1, [r7]
1899:.\Generated_Source\PSoC4/CapSense.c **** 		CapSense_modulationIDAC[sensor] = (uint8)modIdacValue;
 2348              		.loc 1 1899 0
 2349 000a 3B68     		ldr	r3, [r7]
 2350 000c DAB2     		uxtb	r2, r3
 2351 000e 0349     		ldr	r1, .L129
 2352 0010 7B68     		ldr	r3, [r7, #4]
 2353 0012 CB18     		add	r3, r1, r3
 2354 0014 1A70     		strb	r2, [r3]
1900:.\Generated_Source\PSoC4/CapSense.c **** 	}
 2355              		.loc 1 1900 0
 2356 0016 BD46     		mov	sp, r7
 2357 0018 02B0     		add	sp, sp, #8
 2358              		@ sp needed
 2359 001a 80BD     		pop	{r7, pc}
 2360              	.L130:
 2361              		.align	2
 2362              	.L129:
 2363 001c 00000000 		.word	CapSense_modulationIDAC
 2364              		.cfi_endproc
ARM GAS  C:\DOCUME~1\Chuck\LOCALS~1\Temp\ccp9wtTg.s 			page 76


 2365              	.LFE65:
 2366              		.size	CapSense_SetModulationIDAC, .-CapSense_SetModulationIDAC
 2367              		.section	.text.CapSense_GetCompensationIDAC,"ax",%progbits
 2368              		.align	2
 2369              		.global	CapSense_GetCompensationIDAC
 2370              		.code	16
 2371              		.thumb_func
 2372              		.type	CapSense_GetCompensationIDAC, %function
 2373              	CapSense_GetCompensationIDAC:
 2374              	.LFB66:
1901:.\Generated_Source\PSoC4/CapSense.c **** #endif /* (CapSense_TUNING_METHOD != CapSense__TUNING_NONE) */
1902:.\Generated_Source\PSoC4/CapSense.c **** 
1903:.\Generated_Source\PSoC4/CapSense.c **** 
1904:.\Generated_Source\PSoC4/CapSense.c **** #if(CapSense_IDAC_CNT > 1u)
1905:.\Generated_Source\PSoC4/CapSense.c **** 	/*******************************************************************************
1906:.\Generated_Source\PSoC4/CapSense.c **** 	* Function Name: CapSense_GetCompensationIDAC
