ARM GAS  C:\DOCUME~1\Chuck\LOCALS~1\Temp\ccDf4aUc.s 			page 1


   1              		.cpu cortex-m0
   2              		.fpu softvfp
   3              		.eabi_attribute 20, 1
   4              		.eabi_attribute 21, 1
   5              		.eabi_attribute 23, 3
   6              		.eabi_attribute 24, 1
   7              		.eabi_attribute 25, 1
   8              		.eabi_attribute 26, 1
   9              		.eabi_attribute 30, 6
  10              		.eabi_attribute 34, 0
  11              		.eabi_attribute 18, 4
  12              		.code	16
  13              		.file	"CapSense_SampleClk.c"
  14              		.text
  15              	.Ltext0:
  16              		.cfi_sections	.debug_frame
  17              		.section	.text.CapSense_SampleClk_Start,"ax",%progbits
  18              		.align	2
  19              		.global	CapSense_SampleClk_Start
  20              		.code	16
  21              		.thumb_func
  22              		.type	CapSense_SampleClk_Start, %function
  23              	CapSense_SampleClk_Start:
  24              	.LFB0:
  25              		.file 1 ".\\Generated_Source\\PSoC4\\CapSense_SampleClk.c"
   1:.\Generated_Source\PSoC4/CapSense_SampleClk.c **** /*******************************************************************************
   2:.\Generated_Source\PSoC4/CapSense_SampleClk.c **** * File Name: CapSense_SampleClk.c
   3:.\Generated_Source\PSoC4/CapSense_SampleClk.c **** * Version 2.20
   4:.\Generated_Source\PSoC4/CapSense_SampleClk.c **** *
   5:.\Generated_Source\PSoC4/CapSense_SampleClk.c **** *  Description:
   6:.\Generated_Source\PSoC4/CapSense_SampleClk.c **** *   Provides system API for the clocking, interrupts and watchdog timer.
   7:.\Generated_Source\PSoC4/CapSense_SampleClk.c **** *
   8:.\Generated_Source\PSoC4/CapSense_SampleClk.c **** *  Note:
   9:.\Generated_Source\PSoC4/CapSense_SampleClk.c **** *   Documentation of the API's in this file is located in the
  10:.\Generated_Source\PSoC4/CapSense_SampleClk.c **** *   System Reference Guide provided with PSoC Creator.
  11:.\Generated_Source\PSoC4/CapSense_SampleClk.c **** *
  12:.\Generated_Source\PSoC4/CapSense_SampleClk.c **** ********************************************************************************
  13:.\Generated_Source\PSoC4/CapSense_SampleClk.c **** * Copyright 2008-2012, Cypress Semiconductor Corporation.  All rights reserved.
  14:.\Generated_Source\PSoC4/CapSense_SampleClk.c **** * You may use this file only in accordance with the license, terms, conditions,
  15:.\Generated_Source\PSoC4/CapSense_SampleClk.c **** * disclaimers, and limitations in the end user license agreement accompanying
  16:.\Generated_Source\PSoC4/CapSense_SampleClk.c **** * the software package with which this file was provided.
  17:.\Generated_Source\PSoC4/CapSense_SampleClk.c **** *******************************************************************************/
  18:.\Generated_Source\PSoC4/CapSense_SampleClk.c **** 
  19:.\Generated_Source\PSoC4/CapSense_SampleClk.c **** #include <cydevice_trm.h>
  20:.\Generated_Source\PSoC4/CapSense_SampleClk.c **** #include "CapSense_SampleClk.h"
  21:.\Generated_Source\PSoC4/CapSense_SampleClk.c **** 
  22:.\Generated_Source\PSoC4/CapSense_SampleClk.c **** #if defined CYREG_PERI_DIV_CMD
  23:.\Generated_Source\PSoC4/CapSense_SampleClk.c **** 
  24:.\Generated_Source\PSoC4/CapSense_SampleClk.c **** /*******************************************************************************
  25:.\Generated_Source\PSoC4/CapSense_SampleClk.c **** * Function Name: CapSense_SampleClk_StartEx
  26:.\Generated_Source\PSoC4/CapSense_SampleClk.c **** ********************************************************************************
  27:.\Generated_Source\PSoC4/CapSense_SampleClk.c **** *
  28:.\Generated_Source\PSoC4/CapSense_SampleClk.c **** * Summary:
  29:.\Generated_Source\PSoC4/CapSense_SampleClk.c **** *  Starts the clock, aligned to the specified running clock.
  30:.\Generated_Source\PSoC4/CapSense_SampleClk.c **** *
  31:.\Generated_Source\PSoC4/CapSense_SampleClk.c **** * Parameters:
  32:.\Generated_Source\PSoC4/CapSense_SampleClk.c **** *  alignClkDiv:  The divider to which phase alignment is performed when the
ARM GAS  C:\DOCUME~1\Chuck\LOCALS~1\Temp\ccDf4aUc.s 			page 2


  33:.\Generated_Source\PSoC4/CapSense_SampleClk.c **** *    clock is started.
  34:.\Generated_Source\PSoC4/CapSense_SampleClk.c **** *
  35:.\Generated_Source\PSoC4/CapSense_SampleClk.c **** * Returns:
  36:.\Generated_Source\PSoC4/CapSense_SampleClk.c **** *  None
  37:.\Generated_Source\PSoC4/CapSense_SampleClk.c **** *
  38:.\Generated_Source\PSoC4/CapSense_SampleClk.c **** *******************************************************************************/
  39:.\Generated_Source\PSoC4/CapSense_SampleClk.c **** void CapSense_SampleClk_StartEx(uint32 alignClkDiv)
  40:.\Generated_Source\PSoC4/CapSense_SampleClk.c **** {
  41:.\Generated_Source\PSoC4/CapSense_SampleClk.c ****     /* Make sure any previous start command has finished. */
  42:.\Generated_Source\PSoC4/CapSense_SampleClk.c ****     while((CapSense_SampleClk_CMD_REG & CapSense_SampleClk_CMD_ENABLE_MASK) != 0u)
  43:.\Generated_Source\PSoC4/CapSense_SampleClk.c ****     {
  44:.\Generated_Source\PSoC4/CapSense_SampleClk.c ****     }
  45:.\Generated_Source\PSoC4/CapSense_SampleClk.c ****     
  46:.\Generated_Source\PSoC4/CapSense_SampleClk.c ****     /* Specify the target divider and it's alignment divider, and enable. */
  47:.\Generated_Source\PSoC4/CapSense_SampleClk.c ****     CapSense_SampleClk_CMD_REG =
  48:.\Generated_Source\PSoC4/CapSense_SampleClk.c ****         ((uint32)CapSense_SampleClk__DIV_ID << CapSense_SampleClk_CMD_DIV_SHIFT)|
  49:.\Generated_Source\PSoC4/CapSense_SampleClk.c ****         (alignClkDiv << CapSense_SampleClk_CMD_PA_DIV_SHIFT) |
  50:.\Generated_Source\PSoC4/CapSense_SampleClk.c ****         (uint32)CapSense_SampleClk_CMD_ENABLE_MASK;
  51:.\Generated_Source\PSoC4/CapSense_SampleClk.c **** }
  52:.\Generated_Source\PSoC4/CapSense_SampleClk.c **** 
  53:.\Generated_Source\PSoC4/CapSense_SampleClk.c **** #else
  54:.\Generated_Source\PSoC4/CapSense_SampleClk.c **** 
  55:.\Generated_Source\PSoC4/CapSense_SampleClk.c **** /*******************************************************************************
  56:.\Generated_Source\PSoC4/CapSense_SampleClk.c **** * Function Name: CapSense_SampleClk_Start
  57:.\Generated_Source\PSoC4/CapSense_SampleClk.c **** ********************************************************************************
  58:.\Generated_Source\PSoC4/CapSense_SampleClk.c **** *
  59:.\Generated_Source\PSoC4/CapSense_SampleClk.c **** * Summary:
  60:.\Generated_Source\PSoC4/CapSense_SampleClk.c **** *  Starts the clock.
  61:.\Generated_Source\PSoC4/CapSense_SampleClk.c **** *
  62:.\Generated_Source\PSoC4/CapSense_SampleClk.c **** * Parameters:
  63:.\Generated_Source\PSoC4/CapSense_SampleClk.c **** *  None
  64:.\Generated_Source\PSoC4/CapSense_SampleClk.c **** *
  65:.\Generated_Source\PSoC4/CapSense_SampleClk.c **** * Returns:
  66:.\Generated_Source\PSoC4/CapSense_SampleClk.c **** *  None
  67:.\Generated_Source\PSoC4/CapSense_SampleClk.c **** *
  68:.\Generated_Source\PSoC4/CapSense_SampleClk.c **** *******************************************************************************/
  69:.\Generated_Source\PSoC4/CapSense_SampleClk.c **** 
  70:.\Generated_Source\PSoC4/CapSense_SampleClk.c **** void CapSense_SampleClk_Start(void)
  71:.\Generated_Source\PSoC4/CapSense_SampleClk.c **** {
  26              		.loc 1 71 0
  27              		.cfi_startproc
  28 0000 80B5     		push	{r7, lr}
  29              		.cfi_def_cfa_offset 8
  30              		.cfi_offset 7, -8
  31              		.cfi_offset 14, -4
  32 0002 00AF     		add	r7, sp, #0
  33              		.cfi_def_cfa_register 7
  72:.\Generated_Source\PSoC4/CapSense_SampleClk.c ****     /* Set the bit to enable the clock. */
  73:.\Generated_Source\PSoC4/CapSense_SampleClk.c ****     CapSense_SampleClk_ENABLE_REG |= CapSense_SampleClk__ENABLE_MASK;
  34              		.loc 1 73 0
  35 0004 044B     		ldr	r3, .L2
  36 0006 044A     		ldr	r2, .L2
  37 0008 1268     		ldr	r2, [r2]
  38 000a 8021     		mov	r1, #128
  39 000c 0906     		lsl	r1, r1, #24
  40 000e 0A43     		orr	r2, r1
  41 0010 1A60     		str	r2, [r3]
ARM GAS  C:\DOCUME~1\Chuck\LOCALS~1\Temp\ccDf4aUc.s 			page 3


  74:.\Generated_Source\PSoC4/CapSense_SampleClk.c **** }
  42              		.loc 1 74 0
  43 0012 BD46     		mov	sp, r7
  44              		@ sp needed
  45 0014 80BD     		pop	{r7, pc}
  46              	.L3:
  47 0016 C046     		.align	2
  48              	.L2:
  49 0018 00000240 		.word	1073872896
  50              		.cfi_endproc
  51              	.LFE0:
  52              		.size	CapSense_SampleClk_Start, .-CapSense_SampleClk_Start
  53              		.section	.text.CapSense_SampleClk_Stop,"ax",%progbits
  54              		.align	2
  55              		.global	CapSense_SampleClk_Stop
  56              		.code	16
  57              		.thumb_func
  58              		.type	CapSense_SampleClk_Stop, %function
  59              	CapSense_SampleClk_Stop:
  60              	.LFB1:
  75:.\Generated_Source\PSoC4/CapSense_SampleClk.c **** 
  76:.\Generated_Source\PSoC4/CapSense_SampleClk.c **** #endif /* CYREG_PERI_DIV_CMD */
  77:.\Generated_Source\PSoC4/CapSense_SampleClk.c **** 
  78:.\Generated_Source\PSoC4/CapSense_SampleClk.c **** 
  79:.\Generated_Source\PSoC4/CapSense_SampleClk.c **** /*******************************************************************************
  80:.\Generated_Source\PSoC4/CapSense_SampleClk.c **** * Function Name: CapSense_SampleClk_Stop
  81:.\Generated_Source\PSoC4/CapSense_SampleClk.c **** ********************************************************************************
  82:.\Generated_Source\PSoC4/CapSense_SampleClk.c **** *
  83:.\Generated_Source\PSoC4/CapSense_SampleClk.c **** * Summary:
  84:.\Generated_Source\PSoC4/CapSense_SampleClk.c **** *  Stops the clock and returns immediately. This API does not require the
  85:.\Generated_Source\PSoC4/CapSense_SampleClk.c **** *  source clock to be running but may return before the hardware is actually
  86:.\Generated_Source\PSoC4/CapSense_SampleClk.c **** *  disabled.
  87:.\Generated_Source\PSoC4/CapSense_SampleClk.c **** *
  88:.\Generated_Source\PSoC4/CapSense_SampleClk.c **** * Parameters:
  89:.\Generated_Source\PSoC4/CapSense_SampleClk.c **** *  None
  90:.\Generated_Source\PSoC4/CapSense_SampleClk.c **** *
  91:.\Generated_Source\PSoC4/CapSense_SampleClk.c **** * Returns:
  92:.\Generated_Source\PSoC4/CapSense_SampleClk.c **** *  None
  93:.\Generated_Source\PSoC4/CapSense_SampleClk.c **** *
  94:.\Generated_Source\PSoC4/CapSense_SampleClk.c **** *******************************************************************************/
  95:.\Generated_Source\PSoC4/CapSense_SampleClk.c **** void CapSense_SampleClk_Stop(void)
  96:.\Generated_Source\PSoC4/CapSense_SampleClk.c **** {
  61              		.loc 1 96 0
  62              		.cfi_startproc
  63 0000 80B5     		push	{r7, lr}
  64              		.cfi_def_cfa_offset 8
  65              		.cfi_offset 7, -8
  66              		.cfi_offset 14, -4
  67 0002 00AF     		add	r7, sp, #0
  68              		.cfi_def_cfa_register 7
  97:.\Generated_Source\PSoC4/CapSense_SampleClk.c **** #if defined CYREG_PERI_DIV_CMD
  98:.\Generated_Source\PSoC4/CapSense_SampleClk.c **** 
  99:.\Generated_Source\PSoC4/CapSense_SampleClk.c ****     /* Make sure any previous start command has finished. */
 100:.\Generated_Source\PSoC4/CapSense_SampleClk.c ****     while((CapSense_SampleClk_CMD_REG & CapSense_SampleClk_CMD_ENABLE_MASK) != 0u)
 101:.\Generated_Source\PSoC4/CapSense_SampleClk.c ****     {
 102:.\Generated_Source\PSoC4/CapSense_SampleClk.c ****     }
 103:.\Generated_Source\PSoC4/CapSense_SampleClk.c ****     
ARM GAS  C:\DOCUME~1\Chuck\LOCALS~1\Temp\ccDf4aUc.s 			page 4


 104:.\Generated_Source\PSoC4/CapSense_SampleClk.c ****     /* Specify the target divider and it's alignment divider, and disable. */
 105:.\Generated_Source\PSoC4/CapSense_SampleClk.c ****     CapSense_SampleClk_CMD_REG =
 106:.\Generated_Source\PSoC4/CapSense_SampleClk.c ****         ((uint32)CapSense_SampleClk__DIV_ID << CapSense_SampleClk_CMD_DIV_SHIFT)|
 107:.\Generated_Source\PSoC4/CapSense_SampleClk.c ****         ((uint32)CapSense_SampleClk_CMD_DISABLE_MASK);
 108:.\Generated_Source\PSoC4/CapSense_SampleClk.c **** 
 109:.\Generated_Source\PSoC4/CapSense_SampleClk.c **** #else
 110:.\Generated_Source\PSoC4/CapSense_SampleClk.c **** 
 111:.\Generated_Source\PSoC4/CapSense_SampleClk.c ****     /* Clear the bit to disable the clock. */
 112:.\Generated_Source\PSoC4/CapSense_SampleClk.c ****     CapSense_SampleClk_ENABLE_REG &= (uint32)(~CapSense_SampleClk__ENABLE_MASK);
  69              		.loc 1 112 0
  70 0004 034B     		ldr	r3, .L5
  71 0006 034A     		ldr	r2, .L5
  72 0008 1268     		ldr	r2, [r2]
  73 000a 5200     		lsl	r2, r2, #1
  74 000c 5208     		lsr	r2, r2, #1
  75 000e 1A60     		str	r2, [r3]
 113:.\Generated_Source\PSoC4/CapSense_SampleClk.c ****     
 114:.\Generated_Source\PSoC4/CapSense_SampleClk.c **** #endif /* CYREG_PERI_DIV_CMD */
 115:.\Generated_Source\PSoC4/CapSense_SampleClk.c **** }
  76              		.loc 1 115 0
  77 0010 BD46     		mov	sp, r7
  78              		@ sp needed
  79 0012 80BD     		pop	{r7, pc}
  80              	.L6:
  81              		.align	2
  82              	.L5:
  83 0014 00000240 		.word	1073872896
  84              		.cfi_endproc
  85              	.LFE1:
  86              		.size	CapSense_SampleClk_Stop, .-CapSense_SampleClk_Stop
  87              		.section	.text.CapSense_SampleClk_SetFractionalDividerRegister,"ax",%progbits
  88              		.align	2
  89              		.global	CapSense_SampleClk_SetFractionalDividerRegister
  90              		.code	16
  91              		.thumb_func
  92              		.type	CapSense_SampleClk_SetFractionalDividerRegister, %function
  93              	CapSense_SampleClk_SetFractionalDividerRegister:
  94              	.LFB2:
 116:.\Generated_Source\PSoC4/CapSense_SampleClk.c **** 
 117:.\Generated_Source\PSoC4/CapSense_SampleClk.c **** 
 118:.\Generated_Source\PSoC4/CapSense_SampleClk.c **** /*******************************************************************************
 119:.\Generated_Source\PSoC4/CapSense_SampleClk.c **** * Function Name: CapSense_SampleClk_SetFractionalDividerRegister
 120:.\Generated_Source\PSoC4/CapSense_SampleClk.c **** ********************************************************************************
 121:.\Generated_Source\PSoC4/CapSense_SampleClk.c **** *
 122:.\Generated_Source\PSoC4/CapSense_SampleClk.c **** * Summary:
 123:.\Generated_Source\PSoC4/CapSense_SampleClk.c **** *  Modifies the clock divider and the fractional divider.
 124:.\Generated_Source\PSoC4/CapSense_SampleClk.c **** *
 125:.\Generated_Source\PSoC4/CapSense_SampleClk.c **** * Parameters:
 126:.\Generated_Source\PSoC4/CapSense_SampleClk.c **** *  clkDivider:  Divider register value (0-65535). This value is NOT the
 127:.\Generated_Source\PSoC4/CapSense_SampleClk.c **** *    divider; the clock hardware divides by clkDivider plus one. For example,
 128:.\Generated_Source\PSoC4/CapSense_SampleClk.c **** *    to divide the clock by 2, this parameter should be set to 1.
 129:.\Generated_Source\PSoC4/CapSense_SampleClk.c **** *  fracDivider:  Fractional Divider register value (0-31).
 130:.\Generated_Source\PSoC4/CapSense_SampleClk.c **** * Returns:
 131:.\Generated_Source\PSoC4/CapSense_SampleClk.c **** *  None
 132:.\Generated_Source\PSoC4/CapSense_SampleClk.c **** *
 133:.\Generated_Source\PSoC4/CapSense_SampleClk.c **** *******************************************************************************/
 134:.\Generated_Source\PSoC4/CapSense_SampleClk.c **** void CapSense_SampleClk_SetFractionalDividerRegister(uint16 clkDivider, uint8 clkFractional)
ARM GAS  C:\DOCUME~1\Chuck\LOCALS~1\Temp\ccDf4aUc.s 			page 5


 135:.\Generated_Source\PSoC4/CapSense_SampleClk.c **** {
  95              		.loc 1 135 0
  96              		.cfi_startproc
  97 0000 80B5     		push	{r7, lr}
  98              		.cfi_def_cfa_offset 8
  99              		.cfi_offset 7, -8
 100              		.cfi_offset 14, -4
 101 0002 84B0     		sub	sp, sp, #16
 102              		.cfi_def_cfa_offset 24
 103 0004 00AF     		add	r7, sp, #0
 104              		.cfi_def_cfa_register 7
 105 0006 0A1C     		mov	r2, r1
 106 0008 BB1D     		add	r3, r7, #6
 107 000a 011C     		add	r1, r0, #0
 108 000c 1980     		strh	r1, [r3]
 109 000e 7B1D     		add	r3, r7, #5
 110 0010 1A70     		strb	r2, [r3]
 136:.\Generated_Source\PSoC4/CapSense_SampleClk.c ****     uint32 maskVal;
 137:.\Generated_Source\PSoC4/CapSense_SampleClk.c ****     uint32 regVal;
 138:.\Generated_Source\PSoC4/CapSense_SampleClk.c ****     
 139:.\Generated_Source\PSoC4/CapSense_SampleClk.c **** #if defined (CapSense_SampleClk__FRAC_MASK) || defined (CYREG_PERI_DIV_CMD)
 140:.\Generated_Source\PSoC4/CapSense_SampleClk.c ****     
 141:.\Generated_Source\PSoC4/CapSense_SampleClk.c **** 	/* get all but divider bits */
 142:.\Generated_Source\PSoC4/CapSense_SampleClk.c ****     maskVal = CapSense_SampleClk_DIV_REG & 
 143:.\Generated_Source\PSoC4/CapSense_SampleClk.c ****                     (uint32)(~(uint32)(CapSense_SampleClk_DIV_INT_MASK | CapSense_SampleClk_DIV_FRA
 144:.\Generated_Source\PSoC4/CapSense_SampleClk.c **** 	/* combine mask and new divider vals into 32-bit value */
 145:.\Generated_Source\PSoC4/CapSense_SampleClk.c ****     regVal = maskVal |
 146:.\Generated_Source\PSoC4/CapSense_SampleClk.c ****         ((uint32)((uint32)clkDivider <<  CapSense_SampleClk_DIV_INT_SHIFT) & CapSense_SampleClk_DIV
 147:.\Generated_Source\PSoC4/CapSense_SampleClk.c ****         ((uint32)((uint32)clkFractional << CapSense_SampleClk_DIV_FRAC_SHIFT) & CapSense_SampleClk_
 148:.\Generated_Source\PSoC4/CapSense_SampleClk.c ****     
 149:.\Generated_Source\PSoC4/CapSense_SampleClk.c **** #else
 150:.\Generated_Source\PSoC4/CapSense_SampleClk.c ****     /* get all but integer divider bits */
 151:.\Generated_Source\PSoC4/CapSense_SampleClk.c ****     maskVal = CapSense_SampleClk_DIV_REG & (uint32)(~(uint32)CapSense_SampleClk__DIVIDER_MASK);
 111              		.loc 1 151 0
 112 0012 084B     		ldr	r3, .L8
 113 0014 1B68     		ldr	r3, [r3]
 114 0016 1B0C     		lsr	r3, r3, #16
 115 0018 1B04     		lsl	r3, r3, #16
 116 001a FB60     		str	r3, [r7, #12]
 152:.\Generated_Source\PSoC4/CapSense_SampleClk.c ****     /* combine mask and new divider val into 32-bit value */
 153:.\Generated_Source\PSoC4/CapSense_SampleClk.c ****     regVal = clkDivider | maskVal;
 117              		.loc 1 153 0
 118 001c BB1D     		add	r3, r7, #6
 119 001e 1A88     		ldrh	r2, [r3]
 120 0020 FB68     		ldr	r3, [r7, #12]
 121 0022 1343     		orr	r3, r2
 122 0024 BB60     		str	r3, [r7, #8]
 154:.\Generated_Source\PSoC4/CapSense_SampleClk.c ****     
 155:.\Generated_Source\PSoC4/CapSense_SampleClk.c **** #endif /* CapSense_SampleClk__FRAC_MASK || CYREG_PERI_DIV_CMD */
 156:.\Generated_Source\PSoC4/CapSense_SampleClk.c **** 
 157:.\Generated_Source\PSoC4/CapSense_SampleClk.c ****     CapSense_SampleClk_DIV_REG = regVal;
 123              		.loc 1 157 0
 124 0026 034B     		ldr	r3, .L8
 125 0028 BA68     		ldr	r2, [r7, #8]
 126 002a 1A60     		str	r2, [r3]
 158:.\Generated_Source\PSoC4/CapSense_SampleClk.c **** }
 127              		.loc 1 158 0
ARM GAS  C:\DOCUME~1\Chuck\LOCALS~1\Temp\ccDf4aUc.s 			page 6


 128 002c BD46     		mov	sp, r7
 129 002e 04B0     		add	sp, sp, #16
 130              		@ sp needed
 131 0030 80BD     		pop	{r7, pc}
 132              	.L9:
 133 0032 C046     		.align	2
 134              	.L8:
 135 0034 00000240 		.word	1073872896
 136              		.cfi_endproc
 137              	.LFE2:
 138              		.size	CapSense_SampleClk_SetFractionalDividerRegister, .-CapSense_SampleClk_SetFractionalDividerRe
 139              		.section	.text.CapSense_SampleClk_GetDividerRegister,"ax",%progbits
 140              		.align	2
 141              		.global	CapSense_SampleClk_GetDividerRegister
 142              		.code	16
 143              		.thumb_func
 144              		.type	CapSense_SampleClk_GetDividerRegister, %function
 145              	CapSense_SampleClk_GetDividerRegister:
 146              	.LFB3:
 159:.\Generated_Source\PSoC4/CapSense_SampleClk.c **** 
 160:.\Generated_Source\PSoC4/CapSense_SampleClk.c **** 
 161:.\Generated_Source\PSoC4/CapSense_SampleClk.c **** /*******************************************************************************
 162:.\Generated_Source\PSoC4/CapSense_SampleClk.c **** * Function Name: CapSense_SampleClk_GetDividerRegister
 163:.\Generated_Source\PSoC4/CapSense_SampleClk.c **** ********************************************************************************
 164:.\Generated_Source\PSoC4/CapSense_SampleClk.c **** *
 165:.\Generated_Source\PSoC4/CapSense_SampleClk.c **** * Summary:
 166:.\Generated_Source\PSoC4/CapSense_SampleClk.c **** *  Gets the clock divider register value.
 167:.\Generated_Source\PSoC4/CapSense_SampleClk.c **** *
 168:.\Generated_Source\PSoC4/CapSense_SampleClk.c **** * Parameters:
 169:.\Generated_Source\PSoC4/CapSense_SampleClk.c **** *  None
 170:.\Generated_Source\PSoC4/CapSense_SampleClk.c **** *
 171:.\Generated_Source\PSoC4/CapSense_SampleClk.c **** * Returns:
 172:.\Generated_Source\PSoC4/CapSense_SampleClk.c **** *  Divide value of the clock minus 1. For example, if the clock is set to
 173:.\Generated_Source\PSoC4/CapSense_SampleClk.c **** *  divide by 2, the return value will be 1.
 174:.\Generated_Source\PSoC4/CapSense_SampleClk.c **** *
 175:.\Generated_Source\PSoC4/CapSense_SampleClk.c **** *******************************************************************************/
 176:.\Generated_Source\PSoC4/CapSense_SampleClk.c **** uint16 CapSense_SampleClk_GetDividerRegister(void)
 177:.\Generated_Source\PSoC4/CapSense_SampleClk.c **** {
 147              		.loc 1 177 0
 148              		.cfi_startproc
 149 0000 80B5     		push	{r7, lr}
 150              		.cfi_def_cfa_offset 8
 151              		.cfi_offset 7, -8
 152              		.cfi_offset 14, -4
 153 0002 00AF     		add	r7, sp, #0
 154              		.cfi_def_cfa_register 7
 178:.\Generated_Source\PSoC4/CapSense_SampleClk.c ****     return (uint16)((CapSense_SampleClk_DIV_REG & CapSense_SampleClk_DIV_INT_MASK)
 155              		.loc 1 178 0
 156 0004 024B     		ldr	r3, .L12
 157 0006 1B68     		ldr	r3, [r3]
 158 0008 9BB2     		uxth	r3, r3
 179:.\Generated_Source\PSoC4/CapSense_SampleClk.c ****         >> CapSense_SampleClk_DIV_INT_SHIFT);
 180:.\Generated_Source\PSoC4/CapSense_SampleClk.c **** }
 159              		.loc 1 180 0
 160 000a 181C     		mov	r0, r3
 161 000c BD46     		mov	sp, r7
 162              		@ sp needed
ARM GAS  C:\DOCUME~1\Chuck\LOCALS~1\Temp\ccDf4aUc.s 			page 7


 163 000e 80BD     		pop	{r7, pc}
 164              	.L13:
 165              		.align	2
 166              	.L12:
 167 0010 00000240 		.word	1073872896
 168              		.cfi_endproc
 169              	.LFE3:
 170              		.size	CapSense_SampleClk_GetDividerRegister, .-CapSense_SampleClk_GetDividerRegister
 171              		.section	.text.CapSense_SampleClk_GetFractionalDividerRegister,"ax",%progbits
 172              		.align	2
 173              		.global	CapSense_SampleClk_GetFractionalDividerRegister
 174              		.code	16
 175              		.thumb_func
 176              		.type	CapSense_SampleClk_GetFractionalDividerRegister, %function
 177              	CapSense_SampleClk_GetFractionalDividerRegister:
 178              	.LFB4:
 181:.\Generated_Source\PSoC4/CapSense_SampleClk.c **** 
 182:.\Generated_Source\PSoC4/CapSense_SampleClk.c **** 
 183:.\Generated_Source\PSoC4/CapSense_SampleClk.c **** /*******************************************************************************
 184:.\Generated_Source\PSoC4/CapSense_SampleClk.c **** * Function Name: CapSense_SampleClk_GetFractionalDividerRegister
 185:.\Generated_Source\PSoC4/CapSense_SampleClk.c **** ********************************************************************************
 186:.\Generated_Source\PSoC4/CapSense_SampleClk.c **** *
 187:.\Generated_Source\PSoC4/CapSense_SampleClk.c **** * Summary:
 188:.\Generated_Source\PSoC4/CapSense_SampleClk.c **** *  Gets the clock fractional divider register value.
 189:.\Generated_Source\PSoC4/CapSense_SampleClk.c **** *
 190:.\Generated_Source\PSoC4/CapSense_SampleClk.c **** * Parameters:
 191:.\Generated_Source\PSoC4/CapSense_SampleClk.c **** *  None
 192:.\Generated_Source\PSoC4/CapSense_SampleClk.c **** *
 193:.\Generated_Source\PSoC4/CapSense_SampleClk.c **** * Returns:
 194:.\Generated_Source\PSoC4/CapSense_SampleClk.c **** *  Fractional Divide value of the clock
 195:.\Generated_Source\PSoC4/CapSense_SampleClk.c **** *  0 if the fractional divider is not in use.
 196:.\Generated_Source\PSoC4/CapSense_SampleClk.c **** *
 197:.\Generated_Source\PSoC4/CapSense_SampleClk.c **** *******************************************************************************/
 198:.\Generated_Source\PSoC4/CapSense_SampleClk.c **** uint8 CapSense_SampleClk_GetFractionalDividerRegister(void)
 199:.\Generated_Source\PSoC4/CapSense_SampleClk.c **** {
 179              		.loc 1 199 0
 180              		.cfi_startproc
 181 0000 80B5     		push	{r7, lr}
 182              		.cfi_def_cfa_offset 8
 183              		.cfi_offset 7, -8
 184              		.cfi_offset 14, -4
 185 0002 00AF     		add	r7, sp, #0
 186              		.cfi_def_cfa_register 7
 200:.\Generated_Source\PSoC4/CapSense_SampleClk.c **** #if defined (CapSense_SampleClk__FRAC_MASK)
 201:.\Generated_Source\PSoC4/CapSense_SampleClk.c ****     /* return fractional divider bits */
 202:.\Generated_Source\PSoC4/CapSense_SampleClk.c ****     return (uint8)((CapSense_SampleClk_DIV_REG & CapSense_SampleClk_DIV_FRAC_MASK)
 203:.\Generated_Source\PSoC4/CapSense_SampleClk.c ****         >> CapSense_SampleClk_DIV_FRAC_SHIFT);
 204:.\Generated_Source\PSoC4/CapSense_SampleClk.c **** #else
 205:.\Generated_Source\PSoC4/CapSense_SampleClk.c ****     return 0u;
 187              		.loc 1 205 0
 188 0004 0023     		mov	r3, #0
 206:.\Generated_Source\PSoC4/CapSense_SampleClk.c **** #endif /* CapSense_SampleClk__FRAC_MASK */
 207:.\Generated_Source\PSoC4/CapSense_SampleClk.c **** }
 189              		.loc 1 207 0
 190 0006 181C     		mov	r0, r3
 191 0008 BD46     		mov	sp, r7
 192              		@ sp needed
ARM GAS  C:\DOCUME~1\Chuck\LOCALS~1\Temp\ccDf4aUc.s 			page 8


 193 000a 80BD     		pop	{r7, pc}
 194              		.cfi_endproc
 195              	.LFE4:
 196              		.size	CapSense_SampleClk_GetFractionalDividerRegister, .-CapSense_SampleClk_GetFractionalDividerRe
 197              		.text
 198              	.Letext0:
 199              		.file 2 ".\\Generated_Source\\PSoC4/cytypes.h"