ARM GAS  C:\DOCUME~1\Chuck\LOCALS~1\Temp\ccKLxtTg.s 			page 1


   1              		.cpu cortex-m0
   2              		.fpu softvfp
   3              		.eabi_attribute 20, 1
   4              		.eabi_attribute 21, 1
   5              		.eabi_attribute 23, 3
   6              		.eabi_attribute 24, 1
   7              		.eabi_attribute 25, 1
   8              		.eabi_attribute 26, 1
   9              		.eabi_attribute 30, 6
  10              		.eabi_attribute 34, 0
  11              		.eabi_attribute 18, 4
  12              		.code	16
  13              		.file	"CapSense_SMS.c"
  14              		.text
  15              	.Ltext0:
  16              		.cfi_sections	.debug_frame
  17              		.global	prescalerTable
  18              		.section	.rodata
  19              		.align	2
  20              		.type	prescalerTable, %object
  21              		.size	prescalerTable, 16
  22              	prescalerTable:
  23 0000 01       		.byte	1
  24 0001 01       		.byte	1
  25 0002 01       		.byte	1
  26 0003 02       		.byte	2
  27 0004 02       		.byte	2
  28 0005 02       		.byte	2
  29 0006 02       		.byte	2
  30 0007 04       		.byte	4
  31 0008 04       		.byte	4
  32 0009 04       		.byte	4
  33 000a 04       		.byte	4
  34 000b 04       		.byte	4
  35 000c 04       		.byte	4
  36 000d 04       		.byte	4
  37 000e 04       		.byte	4
  38 000f 04       		.byte	4
  39              		.comm	noiseEnvelopeTbl,1,4
  40              		.comm	runningDifferenceTbl,1,4
  41              		.comm	signRegisterTbl,1,4
  42              		.comm	sampleMinTbl,2,4
  43              		.comm	sampleMaxTbl,2,4
  44              		.comm	previousSampleTbl,2,4
  45              		.comm	kValueTbl,1,4
  46              		.comm	scanSpeedTbl,1,4
  47              		.global	SMS_LIB_SensorSensitivity
  48              		.data
  49              		.align	2
  50              		.type	SMS_LIB_SensorSensitivity, %object
  51              		.size	SMS_LIB_SensorSensitivity, 1
  52              	SMS_LIB_SensorSensitivity:
  53 0000 02       		.byte	2
  54              		.comm	CapSense_config,12,4
  55              		.global	CapSense_configPointers
  56 0001 000000   		.section	.rodata
  57              		.align	2
ARM GAS  C:\DOCUME~1\Chuck\LOCALS~1\Temp\ccKLxtTg.s 			page 2


  58              		.type	CapSense_configPointers, %object
  59              		.size	CapSense_configPointers, 56
  60              	CapSense_configPointers:
  61 0010 00000000 		.word	CapSense_modulationIDAC
  62 0014 00000000 		.word	CapSense_compensationIDAC
  63 0018 00000000 		.word	SMS_LIB_SensorSensitivity
  64 001c 00000000 		.word	CapSense_senseClkDividerVal
  65 0020 00000000 		.word	CapSense_sampleClkDividerVal
  66 0024 00000000 		.word	CapSense_widgetNumber
  67 0028 00000000 		.word	CapSense_widgetResolution
  68 002c 00000000 		.word	CapSense_rawDataIndex
  69 0030 00000000 		.word	CapSense_numberOfSensors
  70 0034 00000000 		.word	CapSense_GetSensorRaw
  71 0038 00000000 		.word	CapSense_PreScan
  72 003c 00000000 		.word	CapSense_ReadSensorRaw
  73 0040 00000000 		.word	CapSense_GetBitValue
  74 0044 00000000 		.word	CapSense_SetBitValue
  75              		.section	.text.CapSense_AutoTune,"ax",%progbits
  76              		.align	2
  77              		.global	CapSense_AutoTune
  78              		.code	16
  79              		.thumb_func
  80              		.type	CapSense_AutoTune, %function
  81              	CapSense_AutoTune:
  82              	.LFB33:
  83              		.file 1 ".\\Generated_Source\\PSoC4\\CapSense_SMS.c"
   1:.\Generated_Source\PSoC4/CapSense_SMS.c **** /*******************************************************************************
   2:.\Generated_Source\PSoC4/CapSense_SMS.c **** * File Name: CapSense_SMS.c
   3:.\Generated_Source\PSoC4/CapSense_SMS.c **** * Version 2.0
   4:.\Generated_Source\PSoC4/CapSense_SMS.c **** *
   5:.\Generated_Source\PSoC4/CapSense_SMS.c **** * Description:
   6:.\Generated_Source\PSoC4/CapSense_SMS.c **** *  This file provides the source code of wrapper between CapSense CSD component 
   7:.\Generated_Source\PSoC4/CapSense_SMS.c **** *  and Auto Tuning library.
   8:.\Generated_Source\PSoC4/CapSense_SMS.c **** *
   9:.\Generated_Source\PSoC4/CapSense_SMS.c **** * Note:
  10:.\Generated_Source\PSoC4/CapSense_SMS.c **** *
  11:.\Generated_Source\PSoC4/CapSense_SMS.c **** ********************************************************************************
  12:.\Generated_Source\PSoC4/CapSense_SMS.c **** * Copyright 2014, Cypress Semiconductor Corporation.  All rights reserved.
  13:.\Generated_Source\PSoC4/CapSense_SMS.c **** * You may use this file only in accordance with the license, terms, conditions,
  14:.\Generated_Source\PSoC4/CapSense_SMS.c **** * disclaimers, and limitations in the end user license agreement accompanying
  15:.\Generated_Source\PSoC4/CapSense_SMS.c **** * the software package with which this file was provided.
  16:.\Generated_Source\PSoC4/CapSense_SMS.c **** *******************************************************************************/
  17:.\Generated_Source\PSoC4/CapSense_SMS.c **** 
  18:.\Generated_Source\PSoC4/CapSense_SMS.c **** #include "CapSense_SMS.h"
  19:.\Generated_Source\PSoC4/CapSense_SMS.c **** #include "CapSense_PVT.h"
  20:.\Generated_Source\PSoC4/CapSense_SMS.c **** 
  21:.\Generated_Source\PSoC4/CapSense_SMS.c **** #include "cytypes.h"
  22:.\Generated_Source\PSoC4/CapSense_SMS.c **** 
  23:.\Generated_Source\PSoC4/CapSense_SMS.c **** #define CapSense_PRS_CORRECTION_DIVIDER (4u)
  24:.\Generated_Source\PSoC4/CapSense_SMS.c **** #define CapSense_MAX_RESOLUTION         (65535u)
  25:.\Generated_Source\PSoC4/CapSense_SMS.c **** #define CapSense_SENSITIVITY_DIVIDER    (10u)
  26:.\Generated_Source\PSoC4/CapSense_SMS.c **** 
  27:.\Generated_Source\PSoC4/CapSense_SMS.c **** #if (CapSense_TUNING_METHOD == CapSense__TUNING_AUTO)
  28:.\Generated_Source\PSoC4/CapSense_SMS.c **** 
  29:.\Generated_Source\PSoC4/CapSense_SMS.c **** #if (0u != CapSense_IS_M0S8PERI_BLOCK)
  30:.\Generated_Source\PSoC4/CapSense_SMS.c ****     /*  Dividers are not chained */ 
  31:.\Generated_Source\PSoC4/CapSense_SMS.c **** 	#if(CapSense_PRS_OPTIONS != CapSense__PRS_NONE)
ARM GAS  C:\DOCUME~1\Chuck\LOCALS~1\Temp\ccKLxtTg.s 			page 3


  32:.\Generated_Source\PSoC4/CapSense_SMS.c **** 		#define CapSense_SENSETIVITY_FACTOR (1228u)
  33:.\Generated_Source\PSoC4/CapSense_SMS.c **** 	#else
  34:.\Generated_Source\PSoC4/CapSense_SMS.c **** 		#define CapSense_SENSETIVITY_FACTOR (2456u)
  35:.\Generated_Source\PSoC4/CapSense_SMS.c **** 	#endif /* (CapSense_PRS_OPTIONS == CapSense__PRS_NONE) */
  36:.\Generated_Source\PSoC4/CapSense_SMS.c **** #else
  37:.\Generated_Source\PSoC4/CapSense_SMS.c ****     /*  Dividers are chained */
  38:.\Generated_Source\PSoC4/CapSense_SMS.c **** 	#if(CapSense_PRS_OPTIONS != CapSense__PRS_NONE)
  39:.\Generated_Source\PSoC4/CapSense_SMS.c **** 		#define CapSense_SENSETIVITY_FACTOR (1228u/CapSense_CALIBRATION_MD)
  40:.\Generated_Source\PSoC4/CapSense_SMS.c **** 	#else
  41:.\Generated_Source\PSoC4/CapSense_SMS.c **** 		#define CapSense_SENSETIVITY_FACTOR (2456u/CapSense_CALIBRATION_MD)
  42:.\Generated_Source\PSoC4/CapSense_SMS.c **** 	#endif /* (CapSense_PRS_OPTIONS == CapSense__PRS_NONE) */
  43:.\Generated_Source\PSoC4/CapSense_SMS.c **** #endif /* (0u != CapSense_IS_M0S8PERI_BLOCK) */
  44:.\Generated_Source\PSoC4/CapSense_SMS.c **** 
  45:.\Generated_Source\PSoC4/CapSense_SMS.c **** 
  46:.\Generated_Source\PSoC4/CapSense_SMS.c **** #if(CapSense_PRS_OPTIONS != CapSense__PRS_NONE)
  47:.\Generated_Source\PSoC4/CapSense_SMS.c **** 	extern uint8 CapSense_prescalersTuningDone;
  48:.\Generated_Source\PSoC4/CapSense_SMS.c **** #endif /* (CapSense_PRS_OPTIONS == CapSense__PRS_NONE) */
  49:.\Generated_Source\PSoC4/CapSense_SMS.c **** 
  50:.\Generated_Source\PSoC4/CapSense_SMS.c **** 
  51:.\Generated_Source\PSoC4/CapSense_SMS.c **** /*  Real Charge Divider values */
  52:.\Generated_Source\PSoC4/CapSense_SMS.c **** #if (0u != CapSense_IS_M0S8PERI_BLOCK)
  53:.\Generated_Source\PSoC4/CapSense_SMS.c ****     /*  Dividers are not chained */
  54:.\Generated_Source\PSoC4/CapSense_SMS.c **** 	#if (CYDEV_BCLK__HFCLK__MHZ >= 12u)
  55:.\Generated_Source\PSoC4/CapSense_SMS.c **** 		const uint8 prescalerTable[] = {
  56:.\Generated_Source\PSoC4/CapSense_SMS.c **** 			1u,     1u,     1u,    2u,    2u,    2u,    2u,    4u,    4u,    4u,    4u,    4u,    4u,    4u,
  57:.\Generated_Source\PSoC4/CapSense_SMS.c **** 		};
  58:.\Generated_Source\PSoC4/CapSense_SMS.c **** 
  59:.\Generated_Source\PSoC4/CapSense_SMS.c **** 	#elif (CYDEV_BCLK__HFCLK__MHZ >= 6u)
  60:.\Generated_Source\PSoC4/CapSense_SMS.c **** 		const uint8 prescalerTable[] = {
  61:.\Generated_Source\PSoC4/CapSense_SMS.c **** 			1u,     1u,     1u,    1u,    1u,    1u,    1u,    2u,    2u,    2u,    2u,    2u,    2u,    2u,
  62:.\Generated_Source\PSoC4/CapSense_SMS.c **** 		};
  63:.\Generated_Source\PSoC4/CapSense_SMS.c **** 	#else
  64:.\Generated_Source\PSoC4/CapSense_SMS.c **** 		const uint8 prescalerTable[] = {
  65:.\Generated_Source\PSoC4/CapSense_SMS.c **** 			1u,     1u,     1u,    1u,    1u,    1u,    1u,    1u,    1u,    1u,    1u,    1u,    1u,    1u,
  66:.\Generated_Source\PSoC4/CapSense_SMS.c **** 		};
  67:.\Generated_Source\PSoC4/CapSense_SMS.c **** 	#endif /* (CYDEV_BCLK__HFCLK__MHZ > 12u) */
  68:.\Generated_Source\PSoC4/CapSense_SMS.c **** #else
  69:.\Generated_Source\PSoC4/CapSense_SMS.c ****     /*  Dividers are chained */ 
  70:.\Generated_Source\PSoC4/CapSense_SMS.c **** 	#if (CYDEV_BCLK__HFCLK__MHZ > 24u)
  71:.\Generated_Source\PSoC4/CapSense_SMS.c **** 		const uint8 prescalerTable[] = {
  72:.\Generated_Source\PSoC4/CapSense_SMS.c **** 			2u,     2u,     2u,    4u,    4u,    4u,    4u,    8u,    8u,    8u,    8u,    8u,    8u,    8u,
  73:.\Generated_Source\PSoC4/CapSense_SMS.c **** 		};
  74:.\Generated_Source\PSoC4/CapSense_SMS.c **** 
  75:.\Generated_Source\PSoC4/CapSense_SMS.c **** 	#elif (CYDEV_BCLK__HFCLK__MHZ >12u)
  76:.\Generated_Source\PSoC4/CapSense_SMS.c **** 		const uint8 prescalerTable[] = {
  77:.\Generated_Source\PSoC4/CapSense_SMS.c **** 			1u,     1u,     1u,    2u,    2u,    2u,    2u,    4u,    4u,    4u,    4u,    4u,    4u,    4u,
  78:.\Generated_Source\PSoC4/CapSense_SMS.c **** 		};
  79:.\Generated_Source\PSoC4/CapSense_SMS.c **** 	#else   /* (CYDEV_BCLK__HFCLK__MHZ > 12u) */
  80:.\Generated_Source\PSoC4/CapSense_SMS.c **** 		const uint8 prescalerTable[] = {
  81:.\Generated_Source\PSoC4/CapSense_SMS.c **** 			1u,     1u,     1u,    1u,    1u,    1u,    1u,    2u,    2u,    2u,    2u,    2u,    2u,    2u,
  82:.\Generated_Source\PSoC4/CapSense_SMS.c **** 		};
  83:.\Generated_Source\PSoC4/CapSense_SMS.c **** 	#endif /* (CYDEV_BCLK__HFCLK__MHZ > 24u) */
  84:.\Generated_Source\PSoC4/CapSense_SMS.c **** #endif /* (0u != CapSense_IS_M0S8PERI_BLOCK) */
  85:.\Generated_Source\PSoC4/CapSense_SMS.c **** 
  86:.\Generated_Source\PSoC4/CapSense_SMS.c **** 
  87:.\Generated_Source\PSoC4/CapSense_SMS.c **** extern uint16 CapSense_sensorRaw[CapSense_TOTAL_SENSOR_COUNT];
  88:.\Generated_Source\PSoC4/CapSense_SMS.c **** extern uint8 CapSense_sensorSignal[CapSense_TOTAL_SENSOR_COUNT];
ARM GAS  C:\DOCUME~1\Chuck\LOCALS~1\Temp\ccKLxtTg.s 			page 4


  89:.\Generated_Source\PSoC4/CapSense_SMS.c **** 
  90:.\Generated_Source\PSoC4/CapSense_SMS.c **** extern uint32 CapSense_widgetResolution[CapSense_RESOLUTIONS_TBL_SIZE];
  91:.\Generated_Source\PSoC4/CapSense_SMS.c **** extern const uint8 CapSense_widgetNumber[CapSense_TOTAL_SENSOR_COUNT];
  92:.\Generated_Source\PSoC4/CapSense_SMS.c **** 
  93:.\Generated_Source\PSoC4/CapSense_SMS.c **** extern const uint8 CapSense_rawDataIndex[CapSense_WIDGETS_TBL_SIZE];
  94:.\Generated_Source\PSoC4/CapSense_SMS.c **** extern const uint8 CapSense_numberOfSensors[CapSense_WIDGETS_TBL_SIZE];
  95:.\Generated_Source\PSoC4/CapSense_SMS.c **** 
  96:.\Generated_Source\PSoC4/CapSense_SMS.c **** extern uint8 CapSense_modulationIDAC[CapSense_TOTAL_SENSOR_COUNT];
  97:.\Generated_Source\PSoC4/CapSense_SMS.c **** extern uint8 CapSense_compensationIDAC[CapSense_TOTAL_SENSOR_COUNT];
  98:.\Generated_Source\PSoC4/CapSense_SMS.c **** 
  99:.\Generated_Source\PSoC4/CapSense_SMS.c **** extern uint8 CapSense_senseClkDividerVal[CapSense_TOTAL_SCANSLOT_COUNT];
 100:.\Generated_Source\PSoC4/CapSense_SMS.c **** extern uint8 CapSense_sampleClkDividerVal[CapSense_TOTAL_SCANSLOT_COUNT];
 101:.\Generated_Source\PSoC4/CapSense_SMS.c **** 
 102:.\Generated_Source\PSoC4/CapSense_SMS.c **** extern uint8 CapSense_fingerThreshold[CapSense_THRESHOLD_TBL_SIZE];
 103:.\Generated_Source\PSoC4/CapSense_SMS.c **** extern uint8 CapSense_noiseThreshold[CapSense_THRESHOLD_TBL_SIZE];
 104:.\Generated_Source\PSoC4/CapSense_SMS.c **** extern uint8 CapSense_hysteresis[CapSense_WIDGET_PARAM_TBL_SIZE];
 105:.\Generated_Source\PSoC4/CapSense_SMS.c **** extern uint8 CapSense_negativeNoiseThreshold[CapSense_THRESHOLD_TBL_SIZE];
 106:.\Generated_Source\PSoC4/CapSense_SMS.c **** 
 107:.\Generated_Source\PSoC4/CapSense_SMS.c **** uint8 noiseEnvelopeTbl[CapSense_TOTAL_SENSOR_COUNT];
 108:.\Generated_Source\PSoC4/CapSense_SMS.c **** uint8 runningDifferenceTbl[CapSense_TOTAL_SENSOR_COUNT];
 109:.\Generated_Source\PSoC4/CapSense_SMS.c **** uint8 signRegisterTbl[CapSense_TOTAL_SENSOR_COUNT];
 110:.\Generated_Source\PSoC4/CapSense_SMS.c **** uint16 sampleMinTbl[CapSense_TOTAL_SENSOR_COUNT];
 111:.\Generated_Source\PSoC4/CapSense_SMS.c **** uint16 sampleMaxTbl[CapSense_TOTAL_SENSOR_COUNT];
 112:.\Generated_Source\PSoC4/CapSense_SMS.c **** uint16 previousSampleTbl[CapSense_TOTAL_SENSOR_COUNT];
 113:.\Generated_Source\PSoC4/CapSense_SMS.c **** uint8 kValueTbl[CapSense_TOTAL_SENSOR_COUNT];   
 114:.\Generated_Source\PSoC4/CapSense_SMS.c **** uint8 scanSpeedTbl[((CapSense_TOTAL_SENSOR_COUNT - 1u) / 8u) + 1u];
 115:.\Generated_Source\PSoC4/CapSense_SMS.c **** 
 116:.\Generated_Source\PSoC4/CapSense_SMS.c **** uint8 SMS_LIB_SensorSensitivity[] = {
 117:.\Generated_Source\PSoC4/CapSense_SMS.c ****     2u, 
 118:.\Generated_Source\PSoC4/CapSense_SMS.c **** };
 119:.\Generated_Source\PSoC4/CapSense_SMS.c **** 
 120:.\Generated_Source\PSoC4/CapSense_SMS.c **** CapSense_CONFIG_TYPE_P4_v2_0 CapSense_config;
 121:.\Generated_Source\PSoC4/CapSense_SMS.c **** CapSense_CONFIG_TYPE_POINTERS_P4_v2_0 const CapSense_configPointers = {
 122:.\Generated_Source\PSoC4/CapSense_SMS.c ****     CapSense_modulationIDAC,
 123:.\Generated_Source\PSoC4/CapSense_SMS.c ****     CapSense_compensationIDAC,
 124:.\Generated_Source\PSoC4/CapSense_SMS.c ****      SMS_LIB_SensorSensitivity,
 125:.\Generated_Source\PSoC4/CapSense_SMS.c ****     CapSense_senseClkDividerVal,
 126:.\Generated_Source\PSoC4/CapSense_SMS.c ****     CapSense_sampleClkDividerVal,
 127:.\Generated_Source\PSoC4/CapSense_SMS.c ****     CapSense_widgetNumber,
 128:.\Generated_Source\PSoC4/CapSense_SMS.c ****     CapSense_widgetResolution,
 129:.\Generated_Source\PSoC4/CapSense_SMS.c **** 	(const uint8  *)CapSense_rawDataIndex,
 130:.\Generated_Source\PSoC4/CapSense_SMS.c **** 	(const uint8  *)CapSense_numberOfSensors,
 131:.\Generated_Source\PSoC4/CapSense_SMS.c ****     &CapSense_GetSensorRaw,
 132:.\Generated_Source\PSoC4/CapSense_SMS.c ****     &CapSense_PreScan,
 133:.\Generated_Source\PSoC4/CapSense_SMS.c ****     &CapSense_ReadSensorRaw,
 134:.\Generated_Source\PSoC4/CapSense_SMS.c ****     &CapSense_GetBitValue,
 135:.\Generated_Source\PSoC4/CapSense_SMS.c **** 	&CapSense_SetBitValue
 136:.\Generated_Source\PSoC4/CapSense_SMS.c **** };
 137:.\Generated_Source\PSoC4/CapSense_SMS.c **** 
 138:.\Generated_Source\PSoC4/CapSense_SMS.c **** 
 139:.\Generated_Source\PSoC4/CapSense_SMS.c **** /*******************************************************************************
 140:.\Generated_Source\PSoC4/CapSense_SMS.c **** * Function Name: CapSense_AutoTune
 141:.\Generated_Source\PSoC4/CapSense_SMS.c **** ********************************************************************************
 142:.\Generated_Source\PSoC4/CapSense_SMS.c **** *
 143:.\Generated_Source\PSoC4/CapSense_SMS.c **** * Summary:
 144:.\Generated_Source\PSoC4/CapSense_SMS.c **** *  Provides the tuning procedure for all sensors.
 145:.\Generated_Source\PSoC4/CapSense_SMS.c **** *
ARM GAS  C:\DOCUME~1\Chuck\LOCALS~1\Temp\ccKLxtTg.s 			page 5


 146:.\Generated_Source\PSoC4/CapSense_SMS.c **** * Parameters:
 147:.\Generated_Source\PSoC4/CapSense_SMS.c **** *  None
 148:.\Generated_Source\PSoC4/CapSense_SMS.c **** *
 149:.\Generated_Source\PSoC4/CapSense_SMS.c **** * Return:
 150:.\Generated_Source\PSoC4/CapSense_SMS.c **** *  None
 151:.\Generated_Source\PSoC4/CapSense_SMS.c **** *
 152:.\Generated_Source\PSoC4/CapSense_SMS.c **** * Global Variables:
 153:.\Generated_Source\PSoC4/CapSense_SMS.c **** *   CapSense_config: the structure which contains configuration parameters
 154:.\Generated_Source\PSoC4/CapSense_SMS.c **** *   CapSense_senseClkDividerVal[]: used to store the Analog Switch 
 155:.\Generated_Source\PSoC4/CapSense_SMS.c **** *   dividers for each sensor.
 156:.\Generated_Source\PSoC4/CapSense_SMS.c **** *   CapSense_senseClkDividerVal[]: used to store the 
 157:.\Generated_Source\PSoC4/CapSense_SMS.c **** *    Analog Switch divider for all sensors.
 158:.\Generated_Source\PSoC4/CapSense_SMS.c **** *   CapSense_prescalersTuningDone - used to notify the Tuner GUI that 
 159:.\Generated_Source\PSoC4/CapSense_SMS.c **** *   the pre-scalers tuning  is done.
 160:.\Generated_Source\PSoC4/CapSense_SMS.c **** *
 161:.\Generated_Source\PSoC4/CapSense_SMS.c **** * Side Effects:
 162:.\Generated_Source\PSoC4/CapSense_SMS.c **** *  None
 163:.\Generated_Source\PSoC4/CapSense_SMS.c **** *
 164:.\Generated_Source\PSoC4/CapSense_SMS.c **** *******************************************************************************/
 165:.\Generated_Source\PSoC4/CapSense_SMS.c **** void CapSense_AutoTune(void)
 166:.\Generated_Source\PSoC4/CapSense_SMS.c **** {
  84              		.loc 1 166 0
  85              		.cfi_startproc
  86 0000 80B5     		push	{r7, lr}
  87              		.cfi_def_cfa_offset 8
  88              		.cfi_offset 7, -8
  89              		.cfi_offset 14, -4
  90 0002 82B0     		sub	sp, sp, #8
  91              		.cfi_def_cfa_offset 16
  92 0004 00AF     		add	r7, sp, #0
  93              		.cfi_def_cfa_register 7
 167:.\Generated_Source\PSoC4/CapSense_SMS.c **** 	uint32 curSensor;
 168:.\Generated_Source\PSoC4/CapSense_SMS.c ****     uint32 widget;
 169:.\Generated_Source\PSoC4/CapSense_SMS.c **** 
 170:.\Generated_Source\PSoC4/CapSense_SMS.c **** 	CapSense_config.totalScanslotsNum = CapSense_TOTAL_SCANSLOT_COUNT;
  94              		.loc 1 170 0
  95 0006 364B     		ldr	r3, .L8
  96 0008 0122     		mov	r2, #1
  97 000a 1A70     		strb	r2, [r3]
 171:.\Generated_Source\PSoC4/CapSense_SMS.c **** 	CapSense_config.totalWidgetsNum = CapSense_END_OF_WIDGETS_INDEX;
  98              		.loc 1 171 0
  99 000c 344B     		ldr	r3, .L8
 100 000e 0122     		mov	r2, #1
 101 0010 5A70     		strb	r2, [r3, #1]
 172:.\Generated_Source\PSoC4/CapSense_SMS.c **** 	CapSense_config.totalSensorsNum = CapSense_TOTAL_SENSOR_COUNT;
 102              		.loc 1 172 0
 103 0012 334B     		ldr	r3, .L8
 104 0014 0122     		mov	r2, #1
 105 0016 9A70     		strb	r2, [r3, #2]
 173:.\Generated_Source\PSoC4/CapSense_SMS.c **** 	
 174:.\Generated_Source\PSoC4/CapSense_SMS.c **** 	CapSense_config.hfclkFreq_MHz = CYDEV_BCLK__HFCLK__MHZ;
 106              		.loc 1 174 0
 107 0018 314B     		ldr	r3, .L8
 108 001a 1822     		mov	r2, #24
 109 001c DA80     		strh	r2, [r3, #6]
 175:.\Generated_Source\PSoC4/CapSense_SMS.c **** 	CapSense_config.sensetivitySeed = CapSense_SENSETIVITY_FACTOR;
 110              		.loc 1 175 0
ARM GAS  C:\DOCUME~1\Chuck\LOCALS~1\Temp\ccKLxtTg.s 			page 6


 111 001e 304B     		ldr	r3, .L8
 112 0020 304A     		ldr	r2, .L8+4
 113 0022 9A80     		strh	r2, [r3, #4]
 176:.\Generated_Source\PSoC4/CapSense_SMS.c **** 	
 177:.\Generated_Source\PSoC4/CapSense_SMS.c ****     CapSense_config.pointers = &CapSense_configPointers;       
 114              		.loc 1 177 0
 115 0024 2E4B     		ldr	r3, .L8
 116 0026 304A     		ldr	r2, .L8+8
 117 0028 9A60     		str	r2, [r3, #8]
 178:.\Generated_Source\PSoC4/CapSense_SMS.c ****     
 179:.\Generated_Source\PSoC4/CapSense_SMS.c **** 	CapSense_SetAnalogSwitchesSrcDirect();
 118              		.loc 1 179 0
 119 002a FFF7FEFF 		bl	CapSense_SetAnalogSwitchesSrcDirect
 180:.\Generated_Source\PSoC4/CapSense_SMS.c ****     
 181:.\Generated_Source\PSoC4/CapSense_SMS.c ****     for(widget = 0u; widget < CapSense_config.totalWidgetsNum; widget++)
 120              		.loc 1 181 0
 121 002e 0023     		mov	r3, #0
 122 0030 3B60     		str	r3, [r7]
 123 0032 07E0     		b	.L2
 124              	.L3:
 182:.\Generated_Source\PSoC4/CapSense_SMS.c ****     {
 183:.\Generated_Source\PSoC4/CapSense_SMS.c ****         CapSense_widgetResolution[widget] = CapSense_CALIBRATION_RESOLUTION;
 125              		.loc 1 183 0 discriminator 2
 126 0034 2D4B     		ldr	r3, .L8+12
 127 0036 3A68     		ldr	r2, [r7]
 128 0038 9200     		lsl	r2, r2, #2
 129 003a 2D49     		ldr	r1, .L8+16
 130 003c D150     		str	r1, [r2, r3]
 181:.\Generated_Source\PSoC4/CapSense_SMS.c ****     for(widget = 0u; widget < CapSense_config.totalWidgetsNum; widget++)
 131              		.loc 1 181 0 discriminator 2
 132 003e 3B68     		ldr	r3, [r7]
 133 0040 0133     		add	r3, r3, #1
 134 0042 3B60     		str	r3, [r7]
 135              	.L2:
 181:.\Generated_Source\PSoC4/CapSense_SMS.c ****     for(widget = 0u; widget < CapSense_config.totalWidgetsNum; widget++)
 136              		.loc 1 181 0 is_stmt 0 discriminator 1
 137 0044 264B     		ldr	r3, .L8
 138 0046 5B78     		ldrb	r3, [r3, #1]
 139 0048 1A1C     		mov	r2, r3
 140 004a 3B68     		ldr	r3, [r7]
 141 004c 9A42     		cmp	r2, r3
 142 004e F1D8     		bhi	.L3
 184:.\Generated_Source\PSoC4/CapSense_SMS.c ****     }
 185:.\Generated_Source\PSoC4/CapSense_SMS.c **** 	
 186:.\Generated_Source\PSoC4/CapSense_SMS.c **** 
 187:.\Generated_Source\PSoC4/CapSense_SMS.c **** 	for(curSensor = 0u; curSensor < CapSense_TOTAL_SCANSLOT_COUNT; curSensor++)
 143              		.loc 1 187 0 is_stmt 1
 144 0050 0023     		mov	r3, #0
 145 0052 7B60     		str	r3, [r7, #4]
 146 0054 0CE0     		b	.L4
 147              	.L5:
 188:.\Generated_Source\PSoC4/CapSense_SMS.c ****     {
 189:.\Generated_Source\PSoC4/CapSense_SMS.c **** 		CapSense_senseClkDividerVal[curSensor] = CapSense_CALIBRATION_ASD;
 148              		.loc 1 189 0 discriminator 2
 149 0056 274A     		ldr	r2, .L8+20
 150 0058 7B68     		ldr	r3, [r7, #4]
 151 005a D318     		add	r3, r2, r3
ARM GAS  C:\DOCUME~1\Chuck\LOCALS~1\Temp\ccKLxtTg.s 			page 7


 152 005c 0422     		mov	r2, #4
 153 005e 1A70     		strb	r2, [r3]
 190:.\Generated_Source\PSoC4/CapSense_SMS.c **** 		CapSense_sampleClkDividerVal[curSensor] = CapSense_CALIBRATION_MD;
 154              		.loc 1 190 0 discriminator 2
 155 0060 254A     		ldr	r2, .L8+24
 156 0062 7B68     		ldr	r3, [r7, #4]
 157 0064 D318     		add	r3, r2, r3
 158 0066 0222     		mov	r2, #2
 159 0068 1A70     		strb	r2, [r3]
 187:.\Generated_Source\PSoC4/CapSense_SMS.c **** 	for(curSensor = 0u; curSensor < CapSense_TOTAL_SCANSLOT_COUNT; curSensor++)
 160              		.loc 1 187 0 discriminator 2
 161 006a 7B68     		ldr	r3, [r7, #4]
 162 006c 0133     		add	r3, r3, #1
 163 006e 7B60     		str	r3, [r7, #4]
 164              	.L4:
 187:.\Generated_Source\PSoC4/CapSense_SMS.c **** 	for(curSensor = 0u; curSensor < CapSense_TOTAL_SCANSLOT_COUNT; curSensor++)
 165              		.loc 1 187 0 is_stmt 0 discriminator 1
 166 0070 7B68     		ldr	r3, [r7, #4]
 167 0072 002B     		cmp	r3, #0
 168 0074 EFD0     		beq	.L5
 191:.\Generated_Source\PSoC4/CapSense_SMS.c **** 	}
 192:.\Generated_Source\PSoC4/CapSense_SMS.c ****     
 193:.\Generated_Source\PSoC4/CapSense_SMS.c ****     CapSense_DisableBaselineIDAC();
 169              		.loc 1 193 0 is_stmt 1
 170 0076 FFF7FEFF 		bl	CapSense_DisableBaselineIDAC
 194:.\Generated_Source\PSoC4/CapSense_SMS.c **** 
 195:.\Generated_Source\PSoC4/CapSense_SMS.c ****     CalibrateSensors_P4_v2_0(&CapSense_config, CapSense_CAL_RAW_COUNT);
 171              		.loc 1 195 0
 172 007a 194A     		ldr	r2, .L8
 173 007c 1F4B     		ldr	r3, .L8+28
 174 007e 101C     		mov	r0, r2
 175 0080 191C     		mov	r1, r3
 176 0082 FFF7FEFF 		bl	CalibrateSensors_P4_v2_0
 196:.\Generated_Source\PSoC4/CapSense_SMS.c **** 	CapSense_NormalizeWidgets(CapSense_END_OF_WIDGETS_INDEX, CapSense_modulationIDAC);
 177              		.loc 1 196 0
 178 0086 1E4B     		ldr	r3, .L8+32
 179 0088 0120     		mov	r0, #1
 180 008a 191C     		mov	r1, r3
 181 008c FFF7FEFF 		bl	CapSense_NormalizeWidgets
 197:.\Generated_Source\PSoC4/CapSense_SMS.c **** 	
 198:.\Generated_Source\PSoC4/CapSense_SMS.c ****     TunePrescalers_P4_v2_0(&CapSense_config);
 182              		.loc 1 198 0
 183 0090 134B     		ldr	r3, .L8
 184 0092 181C     		mov	r0, r3
 185 0094 FFF7FEFF 		bl	TunePrescalers_P4_v2_0
 199:.\Generated_Source\PSoC4/CapSense_SMS.c **** 	
 200:.\Generated_Source\PSoC4/CapSense_SMS.c **** 	#if(CapSense_PRS_OPTIONS != CapSense__PRS_NONE)
 201:.\Generated_Source\PSoC4/CapSense_SMS.c **** 		CapSense_prescalersTuningDone = 1u;
 202:.\Generated_Source\PSoC4/CapSense_SMS.c **** 	#endif /* (CapSense_PRS_OPTIONS == CapSense__PRS_NONE) */
 203:.\Generated_Source\PSoC4/CapSense_SMS.c ****        
 204:.\Generated_Source\PSoC4/CapSense_SMS.c ****     CalibrateSensors_P4_v2_0(&CapSense_config, CapSense_CAL_RAW_COUNT);
 186              		.loc 1 204 0
 187 0098 114A     		ldr	r2, .L8
 188 009a 184B     		ldr	r3, .L8+28
 189 009c 101C     		mov	r0, r2
 190 009e 191C     		mov	r1, r3
 191 00a0 FFF7FEFF 		bl	CalibrateSensors_P4_v2_0
ARM GAS  C:\DOCUME~1\Chuck\LOCALS~1\Temp\ccKLxtTg.s 			page 8


 205:.\Generated_Source\PSoC4/CapSense_SMS.c **** 	CapSense_NormalizeWidgets(CapSense_END_OF_WIDGETS_INDEX, CapSense_modulationIDAC);
 192              		.loc 1 205 0
 193 00a4 164B     		ldr	r3, .L8+32
 194 00a6 0120     		mov	r0, #1
 195 00a8 191C     		mov	r1, r3
 196 00aa FFF7FEFF 		bl	CapSense_NormalizeWidgets
 206:.\Generated_Source\PSoC4/CapSense_SMS.c ****     TuneSensitivity_P4_v2_0(&CapSense_config);
 197              		.loc 1 206 0
 198 00ae 0C4B     		ldr	r3, .L8
 199 00b0 181C     		mov	r0, r3
 200 00b2 FFF7FEFF 		bl	TuneSensitivity_P4_v2_0
 207:.\Generated_Source\PSoC4/CapSense_SMS.c **** 	
 208:.\Generated_Source\PSoC4/CapSense_SMS.c **** 	CapSense_EnableBaselineIDAC(&CapSense_config);
 201              		.loc 1 208 0
 202 00b6 0A4B     		ldr	r3, .L8
 203 00b8 181C     		mov	r0, r3
 204 00ba FFF7FEFF 		bl	CapSense_EnableBaselineIDAC
 209:.\Generated_Source\PSoC4/CapSense_SMS.c ****     
 210:.\Generated_Source\PSoC4/CapSense_SMS.c ****     for(curSensor = 0u; curSensor < CapSense_TOTAL_SCANSLOT_COUNT; curSensor++)
 205              		.loc 1 210 0
 206 00be 0023     		mov	r3, #0
 207 00c0 7B60     		str	r3, [r7, #4]
 208 00c2 06E0     		b	.L6
 209              	.L7:
 211:.\Generated_Source\PSoC4/CapSense_SMS.c ****     {
 212:.\Generated_Source\PSoC4/CapSense_SMS.c ****         CapSense_UpdateThresholds(curSensor);
 210              		.loc 1 212 0 discriminator 2
 211 00c4 7B68     		ldr	r3, [r7, #4]
 212 00c6 181C     		mov	r0, r3
 213 00c8 FFF7FEFF 		bl	CapSense_UpdateThresholds
 210:.\Generated_Source\PSoC4/CapSense_SMS.c ****     for(curSensor = 0u; curSensor < CapSense_TOTAL_SCANSLOT_COUNT; curSensor++)
 214              		.loc 1 210 0 discriminator 2
 215 00cc 7B68     		ldr	r3, [r7, #4]
 216 00ce 0133     		add	r3, r3, #1
 217 00d0 7B60     		str	r3, [r7, #4]
 218              	.L6:
 210:.\Generated_Source\PSoC4/CapSense_SMS.c ****     for(curSensor = 0u; curSensor < CapSense_TOTAL_SCANSLOT_COUNT; curSensor++)
 219              		.loc 1 210 0 is_stmt 0 discriminator 1
 220 00d2 7B68     		ldr	r3, [r7, #4]
 221 00d4 002B     		cmp	r3, #0
 222 00d6 F5D0     		beq	.L7
 213:.\Generated_Source\PSoC4/CapSense_SMS.c ****     }
 214:.\Generated_Source\PSoC4/CapSense_SMS.c **** }
 223              		.loc 1 214 0 is_stmt 1
 224 00d8 BD46     		mov	sp, r7
 225 00da 02B0     		add	sp, sp, #8
 226              		@ sp needed
 227 00dc 80BD     		pop	{r7, pc}
 228              	.L9:
 229 00de C046     		.align	2
 230              	.L8:
 231 00e0 00000000 		.word	CapSense_config
 232 00e4 CC040000 		.word	1228
 233 00e8 00000000 		.word	CapSense_configPointers
 234 00ec 00000000 		.word	CapSense_widgetResolution
 235 00f0 0000FF0F 		.word	268369920
 236 00f4 00000000 		.word	CapSense_senseClkDividerVal
ARM GAS  C:\DOCUME~1\Chuck\LOCALS~1\Temp\ccKLxtTg.s 			page 9


 237 00f8 00000000 		.word	CapSense_sampleClkDividerVal
 238 00fc 9A0D0000 		.word	3482
 239 0100 00000000 		.word	CapSense_modulationIDAC
 240              		.cfi_endproc
 241              	.LFE33:
 242              		.size	CapSense_AutoTune, .-CapSense_AutoTune
 243              		.section	.text.CapSense_UpdateThresholds,"ax",%progbits
 244              		.align	2
 245              		.global	CapSense_UpdateThresholds
 246              		.code	16
 247              		.thumb_func
 248              		.type	CapSense_UpdateThresholds, %function
 249              	CapSense_UpdateThresholds:
 250              	.LFB34:
 215:.\Generated_Source\PSoC4/CapSense_SMS.c **** 
 216:.\Generated_Source\PSoC4/CapSense_SMS.c **** 
 217:.\Generated_Source\PSoC4/CapSense_SMS.c **** /*******************************************************************************
 218:.\Generated_Source\PSoC4/CapSense_SMS.c **** * Function Name: CapSense_UpdateThresholds
 219:.\Generated_Source\PSoC4/CapSense_SMS.c **** ********************************************************************************
 220:.\Generated_Source\PSoC4/CapSense_SMS.c **** *
 221:.\Generated_Source\PSoC4/CapSense_SMS.c **** * Summary:
 222:.\Generated_Source\PSoC4/CapSense_SMS.c **** *  The API updates the Finger Threshold, Hysteresis, Noise Threshold, and 
 223:.\Generated_Source\PSoC4/CapSense_SMS.c **** *  Negative Noise Threshold in the AutoTuning (Smartsense) Mode.
 224:.\Generated_Source\PSoC4/CapSense_SMS.c **** *
 225:.\Generated_Source\PSoC4/CapSense_SMS.c **** * Parameters:
 226:.\Generated_Source\PSoC4/CapSense_SMS.c **** *  sensor: sensor number.
 227:.\Generated_Source\PSoC4/CapSense_SMS.c **** *
 228:.\Generated_Source\PSoC4/CapSense_SMS.c **** * Return:
 229:.\Generated_Source\PSoC4/CapSense_SMS.c **** *  None
 230:.\Generated_Source\PSoC4/CapSense_SMS.c **** *
 231:.\Generated_Source\PSoC4/CapSense_SMS.c **** * Global Variables:
 232:.\Generated_Source\PSoC4/CapSense_SMS.c **** *  CapSense_widgetNumber[] - contains widget Number for given sensor.
 233:.\Generated_Source\PSoC4/CapSense_SMS.c **** *  0 through 7 (sensor 0 is bit 0, sensor 1 is bit 1).
 234:.\Generated_Source\PSoC4/CapSense_SMS.c **** *  For other sensors the array element equals to 255. 
 235:.\Generated_Source\PSoC4/CapSense_SMS.c **** *  CapSense_numberOfSensors[widget] - Number of sensors in the widget.
 236:.\Generated_Source\PSoC4/CapSense_SMS.c **** *   CapSense_fingerThreshold[] - contains the level of signal for each sensor
 237:.\Generated_Source\PSoC4/CapSense_SMS.c **** *   that determines if a finger present on the sensor.
 238:.\Generated_Source\PSoC4/CapSense_SMS.c **** *   CapSense_negativeNoiseThreshold[] - negative Noise Threshold
 239:.\Generated_Source\PSoC4/CapSense_SMS.c **** *   CapSense_hysteresis[] - the array with hysteresis values.
 240:.\Generated_Source\PSoC4/CapSense_SMS.c **** *
 241:.\Generated_Source\PSoC4/CapSense_SMS.c **** * Side Effects:
 242:.\Generated_Source\PSoC4/CapSense_SMS.c **** *  None
 243:.\Generated_Source\PSoC4/CapSense_SMS.c **** *
 244:.\Generated_Source\PSoC4/CapSense_SMS.c **** *******************************************************************************/
 245:.\Generated_Source\PSoC4/CapSense_SMS.c **** void CapSense_UpdateThresholds(uint32 sensor)
 246:.\Generated_Source\PSoC4/CapSense_SMS.c **** {
 251              		.loc 1 246 0
 252              		.cfi_startproc
 253 0000 90B5     		push	{r4, r7, lr}
 254              		.cfi_def_cfa_offset 12
 255              		.cfi_offset 4, -12
 256              		.cfi_offset 7, -8
 257              		.cfi_offset 14, -4
 258 0002 87B0     		sub	sp, sp, #28
 259              		.cfi_def_cfa_offset 40
 260 0004 02AF     		add	r7, sp, #8
 261              		.cfi_def_cfa 7, 32
ARM GAS  C:\DOCUME~1\Chuck\LOCALS~1\Temp\ccKLxtTg.s 			page 10


 262 0006 7860     		str	r0, [r7, #4]
 247:.\Generated_Source\PSoC4/CapSense_SMS.c **** 	uint8 fingerThreshold;
 248:.\Generated_Source\PSoC4/CapSense_SMS.c **** 	uint32 widget;
 249:.\Generated_Source\PSoC4/CapSense_SMS.c **** 	
 250:.\Generated_Source\PSoC4/CapSense_SMS.c **** 	widget = CapSense_widgetNumber[sensor];
 263              		.loc 1 250 0
 264 0008 314A     		ldr	r2, .L16
 265 000a 7B68     		ldr	r3, [r7, #4]
 266 000c D318     		add	r3, r2, r3
 267 000e 1B78     		ldrb	r3, [r3]
 268 0010 FB60     		str	r3, [r7, #12]
 251:.\Generated_Source\PSoC4/CapSense_SMS.c **** 
 252:.\Generated_Source\PSoC4/CapSense_SMS.c **** 	if(0u != CapSense_FLEXIBLE_THRESHOLDS_EN)
 253:.\Generated_Source\PSoC4/CapSense_SMS.c **** 	{
 254:.\Generated_Source\PSoC4/CapSense_SMS.c **** 	    fingerThreshold = CapSense_fingerThreshold[widget];
 255:.\Generated_Source\PSoC4/CapSense_SMS.c ****         /* Update Threshold manually (flexible) */   
 256:.\Generated_Source\PSoC4/CapSense_SMS.c **** 		CapSense_noiseThreshold[widget] = (uint8)(fingerThreshold >> 1u);
 257:.\Generated_Source\PSoC4/CapSense_SMS.c **** 		CapSense_negativeNoiseThreshold[widget] = (uint8)(fingerThreshold >> 1u);
 258:.\Generated_Source\PSoC4/CapSense_SMS.c **** 		CapSense_hysteresis[widget] = (uint8)(fingerThreshold >> 3u);
 259:.\Generated_Source\PSoC4/CapSense_SMS.c **** 	}
 260:.\Generated_Source\PSoC4/CapSense_SMS.c **** 	else
 261:.\Generated_Source\PSoC4/CapSense_SMS.c **** 	{
 262:.\Generated_Source\PSoC4/CapSense_SMS.c **** 		/* Calculate Finger Threshold and Noise Threshold with Smartsense (automatic) */ 	
 263:.\Generated_Source\PSoC4/CapSense_SMS.c **** 		CalculateThresholds_P4_v2_0(&CapSense_config, (uint8)sensor, CapSense_sensorRaw, (uint8)widget, C
 269              		.loc 1 263 0
 270 0012 7B68     		ldr	r3, [r7, #4]
 271 0014 D9B2     		uxtb	r1, r3
 272 0016 FB68     		ldr	r3, [r7, #12]
 273 0018 DBB2     		uxtb	r3, r3
 274 001a 2E48     		ldr	r0, .L16+4
 275 001c 2E4A     		ldr	r2, .L16+8
 276 001e 2F4C     		ldr	r4, .L16+12
 277 0020 0094     		str	r4, [sp]
 278 0022 2F4C     		ldr	r4, .L16+16
 279 0024 0194     		str	r4, [sp, #4]
 280 0026 FFF7FEFF 		bl	CalculateThresholds_P4_v2_0
 264:.\Generated_Source\PSoC4/CapSense_SMS.c **** 		
 265:.\Generated_Source\PSoC4/CapSense_SMS.c **** 	    fingerThreshold = CapSense_fingerThreshold[widget];
 281              		.loc 1 265 0
 282 002a 3B1C     		mov	r3, r7
 283 002c 0B33     		add	r3, r3, #11
 284 002e 2B49     		ldr	r1, .L16+12
 285 0030 FA68     		ldr	r2, [r7, #12]
 286 0032 8A18     		add	r2, r1, r2
 287 0034 1278     		ldrb	r2, [r2]
 288 0036 1A70     		strb	r2, [r3]
 266:.\Generated_Source\PSoC4/CapSense_SMS.c **** 		
 267:.\Generated_Source\PSoC4/CapSense_SMS.c **** 	    /* Update Threshold based on calculated with Smartsense (automatic) */
 268:.\Generated_Source\PSoC4/CapSense_SMS.c **** 		CapSense_negativeNoiseThreshold[widget] = CapSense_noiseThreshold[widget];
 289              		.loc 1 268 0
 290 0038 294A     		ldr	r2, .L16+16
 291 003a FB68     		ldr	r3, [r7, #12]
 292 003c D318     		add	r3, r2, r3
 293 003e 1A78     		ldrb	r2, [r3]
 294 0040 2849     		ldr	r1, .L16+20
 295 0042 FB68     		ldr	r3, [r7, #12]
 296 0044 CB18     		add	r3, r1, r3
ARM GAS  C:\DOCUME~1\Chuck\LOCALS~1\Temp\ccKLxtTg.s 			page 11


 297 0046 1A70     		strb	r2, [r3]
 269:.\Generated_Source\PSoC4/CapSense_SMS.c ****         
 270:.\Generated_Source\PSoC4/CapSense_SMS.c **** 		if(fingerThreshold < CapSense_THRESHOLD_1)
 298              		.loc 1 270 0
 299 0048 3B1C     		mov	r3, r7
 300 004a 0B33     		add	r3, r3, #11
 301 004c 1B78     		ldrb	r3, [r3]
 302 004e DB2B     		cmp	r3, #219
 303 0050 09D8     		bhi	.L11
 271:.\Generated_Source\PSoC4/CapSense_SMS.c **** 		{
 272:.\Generated_Source\PSoC4/CapSense_SMS.c **** 			CapSense_hysteresis[widget] = (uint8)(fingerThreshold >> 3u);
 304              		.loc 1 272 0
 305 0052 3B1C     		mov	r3, r7
 306 0054 0B33     		add	r3, r3, #11
 307 0056 1B78     		ldrb	r3, [r3]
 308 0058 DB08     		lsr	r3, r3, #3
 309 005a DAB2     		uxtb	r2, r3
 310 005c 2249     		ldr	r1, .L16+24
 311 005e FB68     		ldr	r3, [r7, #12]
 312 0060 CB18     		add	r3, r1, r3
 313 0062 1A70     		strb	r2, [r3]
 314 0064 31E0     		b	.L10
 315              	.L11:
 273:.\Generated_Source\PSoC4/CapSense_SMS.c **** 		}
 274:.\Generated_Source\PSoC4/CapSense_SMS.c **** 		else if(fingerThreshold <  CapSense_THRESHOLD_2)
 316              		.loc 1 274 0
 317 0066 3B1C     		mov	r3, r7
 318 0068 0B33     		add	r3, r3, #11
 319 006a 1B78     		ldrb	r3, [r3]
 320 006c EC2B     		cmp	r3, #236
 321 006e 09D8     		bhi	.L13
 275:.\Generated_Source\PSoC4/CapSense_SMS.c **** 		{
 276:.\Generated_Source\PSoC4/CapSense_SMS.c **** 			CapSense_hysteresis[widget] = (uint8)(fingerThreshold >> 4u);
 322              		.loc 1 276 0
 323 0070 3B1C     		mov	r3, r7
 324 0072 0B33     		add	r3, r3, #11
 325 0074 1B78     		ldrb	r3, [r3]
 326 0076 1B09     		lsr	r3, r3, #4
 327 0078 DAB2     		uxtb	r2, r3
 328 007a 1B49     		ldr	r1, .L16+24
 329 007c FB68     		ldr	r3, [r7, #12]
 330 007e CB18     		add	r3, r1, r3
 331 0080 1A70     		strb	r2, [r3]
 332 0082 22E0     		b	.L10
 333              	.L13:
 277:.\Generated_Source\PSoC4/CapSense_SMS.c **** 		}
 278:.\Generated_Source\PSoC4/CapSense_SMS.c **** 		else if(fingerThreshold <  CapSense_THRESHOLD_3)
 334              		.loc 1 278 0
 335 0084 3B1C     		mov	r3, r7
 336 0086 0B33     		add	r3, r3, #11
 337 0088 1B78     		ldrb	r3, [r3]
 338 008a F42B     		cmp	r3, #244
 339 008c 09D8     		bhi	.L14
 279:.\Generated_Source\PSoC4/CapSense_SMS.c **** 		{
 280:.\Generated_Source\PSoC4/CapSense_SMS.c **** 			CapSense_hysteresis[widget] = (uint8)(fingerThreshold >> 5u);
 340              		.loc 1 280 0
 341 008e 3B1C     		mov	r3, r7
ARM GAS  C:\DOCUME~1\Chuck\LOCALS~1\Temp\ccKLxtTg.s 			page 12


 342 0090 0B33     		add	r3, r3, #11
 343 0092 1B78     		ldrb	r3, [r3]
 344 0094 5B09     		lsr	r3, r3, #5
 345 0096 DAB2     		uxtb	r2, r3
 346 0098 1349     		ldr	r1, .L16+24
 347 009a FB68     		ldr	r3, [r7, #12]
 348 009c CB18     		add	r3, r1, r3
 349 009e 1A70     		strb	r2, [r3]
 350 00a0 13E0     		b	.L10
 351              	.L14:
 281:.\Generated_Source\PSoC4/CapSense_SMS.c **** 		}
 282:.\Generated_Source\PSoC4/CapSense_SMS.c **** 		else if(fingerThreshold <  CapSense_THRESHOLD_4)
 352              		.loc 1 282 0
 353 00a2 3B1C     		mov	r3, r7
 354 00a4 0B33     		add	r3, r3, #11
 355 00a6 1B78     		ldrb	r3, [r3]
 356 00a8 F92B     		cmp	r3, #249
 357 00aa 09D8     		bhi	.L15
 283:.\Generated_Source\PSoC4/CapSense_SMS.c **** 		{
 284:.\Generated_Source\PSoC4/CapSense_SMS.c **** 			CapSense_hysteresis[widget] = (uint8)(fingerThreshold >> 6u);
 358              		.loc 1 284 0
 359 00ac 3B1C     		mov	r3, r7
 360 00ae 0B33     		add	r3, r3, #11
 361 00b0 1B78     		ldrb	r3, [r3]
 362 00b2 9B09     		lsr	r3, r3, #6
 363 00b4 DAB2     		uxtb	r2, r3
 364 00b6 0C49     		ldr	r1, .L16+24
 365 00b8 FB68     		ldr	r3, [r7, #12]
 366 00ba CB18     		add	r3, r1, r3
 367 00bc 1A70     		strb	r2, [r3]
 368 00be 04E0     		b	.L10
 369              	.L15:
 285:.\Generated_Source\PSoC4/CapSense_SMS.c **** 		}
 286:.\Generated_Source\PSoC4/CapSense_SMS.c **** 		else
 287:.\Generated_Source\PSoC4/CapSense_SMS.c **** 		{
 288:.\Generated_Source\PSoC4/CapSense_SMS.c **** 			CapSense_hysteresis[widget] = 0u;
 370              		.loc 1 288 0
 371 00c0 094A     		ldr	r2, .L16+24
 372 00c2 FB68     		ldr	r3, [r7, #12]
 373 00c4 D318     		add	r3, r2, r3
 374 00c6 0022     		mov	r2, #0
 375 00c8 1A70     		strb	r2, [r3]
 376              	.L10:
 289:.\Generated_Source\PSoC4/CapSense_SMS.c **** 		}
 290:.\Generated_Source\PSoC4/CapSense_SMS.c **** 	}
 291:.\Generated_Source\PSoC4/CapSense_SMS.c **** }
 377              		.loc 1 291 0
 378 00ca BD46     		mov	sp, r7
 379 00cc 05B0     		add	sp, sp, #20
 380              		@ sp needed
 381 00ce 90BD     		pop	{r4, r7, pc}
 382              	.L17:
 383              		.align	2
 384              	.L16:
 385 00d0 00000000 		.word	CapSense_widgetNumber
 386 00d4 00000000 		.word	CapSense_config
 387 00d8 00000000 		.word	CapSense_sensorRaw
ARM GAS  C:\DOCUME~1\Chuck\LOCALS~1\Temp\ccKLxtTg.s 			page 13


 388 00dc 00000000 		.word	CapSense_fingerThreshold
 389 00e0 00000000 		.word	CapSense_noiseThreshold
 390 00e4 00000000 		.word	CapSense_negativeNoiseThreshold
 391 00e8 00000000 		.word	CapSense_hysteresis
 392              		.cfi_endproc
 393              	.LFE34:
 394              		.size	CapSense_UpdateThresholds, .-CapSense_UpdateThresholds
 395              		.section	.text.CapSense_NormalizeWidgets,"ax",%progbits
 396              		.align	2
 397              		.global	CapSense_NormalizeWidgets
 398              		.code	16
 399              		.thumb_func
 400              		.type	CapSense_NormalizeWidgets, %function
 401              	CapSense_NormalizeWidgets:
 402              	.LFB35:
 292:.\Generated_Source\PSoC4/CapSense_SMS.c **** 
 293:.\Generated_Source\PSoC4/CapSense_SMS.c **** 
 294:.\Generated_Source\PSoC4/CapSense_SMS.c **** /*******************************************************************************
 295:.\Generated_Source\PSoC4/CapSense_SMS.c **** * Function Name: CapSense_NormalizeWidgets
 296:.\Generated_Source\PSoC4/CapSense_SMS.c **** ********************************************************************************
 297:.\Generated_Source\PSoC4/CapSense_SMS.c **** *
 298:.\Generated_Source\PSoC4/CapSense_SMS.c **** * Summary:
 299:.\Generated_Source\PSoC4/CapSense_SMS.c **** *  This API aligns all the parameters of the widget to the maximum parameter.
 300:.\Generated_Source\PSoC4/CapSense_SMS.c **** *
 301:.\Generated_Source\PSoC4/CapSense_SMS.c **** * Parameters:
 302:.\Generated_Source\PSoC4/CapSense_SMS.c **** *  uint32 widgetsNum: Number of widgets.
 303:.\Generated_Source\PSoC4/CapSense_SMS.c **** *  uint8 *datsPrt: pointer ro array with widget parameters.	
 304:.\Generated_Source\PSoC4/CapSense_SMS.c **** *
 305:.\Generated_Source\PSoC4/CapSense_SMS.c **** * Return:
 306:.\Generated_Source\PSoC4/CapSense_SMS.c **** *  None
 307:.\Generated_Source\PSoC4/CapSense_SMS.c **** *
 308:.\Generated_Source\PSoC4/CapSense_SMS.c **** * Global Variables:
 309:.\Generated_Source\PSoC4/CapSense_SMS.c **** *  CapSense_numberOfSensors[] - Number of sensors in the widget.
 310:.\Generated_Source\PSoC4/CapSense_SMS.c **** *  CapSense_rawDataIndex[currentWidget] - Contains the  1st sensor
 311:.\Generated_Source\PSoC4/CapSense_SMS.c **** *  position in the widget.
 312:.\Generated_Source\PSoC4/CapSense_SMS.c **** *
 313:.\Generated_Source\PSoC4/CapSense_SMS.c **** * Side Effects:
 314:.\Generated_Source\PSoC4/CapSense_SMS.c **** *  None
 315:.\Generated_Source\PSoC4/CapSense_SMS.c **** *
 316:.\Generated_Source\PSoC4/CapSense_SMS.c **** *******************************************************************************/
 317:.\Generated_Source\PSoC4/CapSense_SMS.c **** void CapSense_NormalizeWidgets(uint32 widgetsNum, uint8 *dataPtr)
 318:.\Generated_Source\PSoC4/CapSense_SMS.c **** {
 403              		.loc 1 318 0
 404              		.cfi_startproc
 405 0000 80B5     		push	{r7, lr}
 406              		.cfi_def_cfa_offset 8
 407              		.cfi_offset 7, -8
 408              		.cfi_offset 14, -4
 409 0002 88B0     		sub	sp, sp, #32
 410              		.cfi_def_cfa_offset 40
 411 0004 00AF     		add	r7, sp, #0
 412              		.cfi_def_cfa_register 7
 413 0006 7860     		str	r0, [r7, #4]
 414 0008 3960     		str	r1, [r7]
 319:.\Generated_Source\PSoC4/CapSense_SMS.c **** 	uint32 currentWidget;
 320:.\Generated_Source\PSoC4/CapSense_SMS.c **** 	uint32 currentSensor;
 321:.\Generated_Source\PSoC4/CapSense_SMS.c **** 	uint32 lastSensor;
ARM GAS  C:\DOCUME~1\Chuck\LOCALS~1\Temp\ccKLxtTg.s 			page 14


 322:.\Generated_Source\PSoC4/CapSense_SMS.c **** 	uint32 sensorsPerWidget;
 323:.\Generated_Source\PSoC4/CapSense_SMS.c **** 	uint32 maxPerWidget;
 324:.\Generated_Source\PSoC4/CapSense_SMS.c **** 
 325:.\Generated_Source\PSoC4/CapSense_SMS.c **** 	for(currentWidget = 0u; currentWidget < widgetsNum; currentWidget++)
 415              		.loc 1 325 0
 416 000a 0023     		mov	r3, #0
 417 000c FB61     		str	r3, [r7, #28]
 418 000e 3AE0     		b	.L19
 419              	.L25:
 326:.\Generated_Source\PSoC4/CapSense_SMS.c **** 	{
 327:.\Generated_Source\PSoC4/CapSense_SMS.c **** 		maxPerWidget = 0u;
 420              		.loc 1 327 0
 421 0010 0023     		mov	r3, #0
 422 0012 7B61     		str	r3, [r7, #20]
 328:.\Generated_Source\PSoC4/CapSense_SMS.c **** 		
 329:.\Generated_Source\PSoC4/CapSense_SMS.c **** 		sensorsPerWidget = CapSense_numberOfSensors[currentWidget];
 423              		.loc 1 329 0
 424 0014 1F4A     		ldr	r2, .L26
 425 0016 FB69     		ldr	r3, [r7, #28]
 426 0018 D318     		add	r3, r2, r3
 427 001a 1B78     		ldrb	r3, [r3]
 428 001c 3B61     		str	r3, [r7, #16]
 330:.\Generated_Source\PSoC4/CapSense_SMS.c **** 		currentSensor = CapSense_rawDataIndex[currentWidget];
 429              		.loc 1 330 0
 430 001e 1E4A     		ldr	r2, .L26+4
 431 0020 FB69     		ldr	r3, [r7, #28]
 432 0022 D318     		add	r3, r2, r3
 433 0024 1B78     		ldrb	r3, [r3]
 434 0026 BB61     		str	r3, [r7, #24]
 331:.\Generated_Source\PSoC4/CapSense_SMS.c **** 		lastSensor = currentSensor + sensorsPerWidget;
 435              		.loc 1 331 0
 436 0028 BA69     		ldr	r2, [r7, #24]
 437 002a 3B69     		ldr	r3, [r7, #16]
 438 002c D318     		add	r3, r2, r3
 439 002e FB60     		str	r3, [r7, #12]
 332:.\Generated_Source\PSoC4/CapSense_SMS.c **** 		
 333:.\Generated_Source\PSoC4/CapSense_SMS.c **** 		while(currentSensor < lastSensor)
 440              		.loc 1 333 0
 441 0030 0FE0     		b	.L20
 442              	.L22:
 334:.\Generated_Source\PSoC4/CapSense_SMS.c **** 		{
 335:.\Generated_Source\PSoC4/CapSense_SMS.c **** 			if(maxPerWidget < dataPtr[currentSensor])
 443              		.loc 1 335 0
 444 0032 3A68     		ldr	r2, [r7]
 445 0034 BB69     		ldr	r3, [r7, #24]
 446 0036 D318     		add	r3, r2, r3
 447 0038 1B78     		ldrb	r3, [r3]
 448 003a 1A1C     		mov	r2, r3
 449 003c 7B69     		ldr	r3, [r7, #20]
 450 003e 9A42     		cmp	r2, r3
 451 0040 04D9     		bls	.L21
 336:.\Generated_Source\PSoC4/CapSense_SMS.c **** 			{
 337:.\Generated_Source\PSoC4/CapSense_SMS.c **** 				maxPerWidget = dataPtr[currentSensor];
 452              		.loc 1 337 0
 453 0042 3A68     		ldr	r2, [r7]
 454 0044 BB69     		ldr	r3, [r7, #24]
 455 0046 D318     		add	r3, r2, r3
ARM GAS  C:\DOCUME~1\Chuck\LOCALS~1\Temp\ccKLxtTg.s 			page 15


 456 0048 1B78     		ldrb	r3, [r3]
 457 004a 7B61     		str	r3, [r7, #20]
 458              	.L21:
 338:.\Generated_Source\PSoC4/CapSense_SMS.c **** 			}
 339:.\Generated_Source\PSoC4/CapSense_SMS.c **** 			currentSensor++;
 459              		.loc 1 339 0
 460 004c BB69     		ldr	r3, [r7, #24]
 461 004e 0133     		add	r3, r3, #1
 462 0050 BB61     		str	r3, [r7, #24]
 463              	.L20:
 333:.\Generated_Source\PSoC4/CapSense_SMS.c **** 		while(currentSensor < lastSensor)
 464              		.loc 1 333 0 discriminator 1
 465 0052 BA69     		ldr	r2, [r7, #24]
 466 0054 FB68     		ldr	r3, [r7, #12]
 467 0056 9A42     		cmp	r2, r3
 468 0058 EBD3     		bcc	.L22
 340:.\Generated_Source\PSoC4/CapSense_SMS.c **** 		}
 341:.\Generated_Source\PSoC4/CapSense_SMS.c **** 		
 342:.\Generated_Source\PSoC4/CapSense_SMS.c **** 		currentSensor = CapSense_rawDataIndex[currentWidget];
 469              		.loc 1 342 0
 470 005a 0F4A     		ldr	r2, .L26+4
 471 005c FB69     		ldr	r3, [r7, #28]
 472 005e D318     		add	r3, r2, r3
 473 0060 1B78     		ldrb	r3, [r3]
 474 0062 BB61     		str	r3, [r7, #24]
 343:.\Generated_Source\PSoC4/CapSense_SMS.c **** 		
 344:.\Generated_Source\PSoC4/CapSense_SMS.c **** 		while(currentSensor < lastSensor)
 475              		.loc 1 344 0
 476 0064 08E0     		b	.L23
 477              	.L24:
 345:.\Generated_Source\PSoC4/CapSense_SMS.c **** 		{
 346:.\Generated_Source\PSoC4/CapSense_SMS.c **** 			dataPtr[currentSensor] = (uint8)maxPerWidget;
 478              		.loc 1 346 0
 479 0066 3A68     		ldr	r2, [r7]
 480 0068 BB69     		ldr	r3, [r7, #24]
 481 006a D318     		add	r3, r2, r3
 482 006c 7A69     		ldr	r2, [r7, #20]
 483 006e D2B2     		uxtb	r2, r2
 484 0070 1A70     		strb	r2, [r3]
 347:.\Generated_Source\PSoC4/CapSense_SMS.c **** 			currentSensor++;
 485              		.loc 1 347 0
 486 0072 BB69     		ldr	r3, [r7, #24]
 487 0074 0133     		add	r3, r3, #1
 488 0076 BB61     		str	r3, [r7, #24]
 489              	.L23:
 344:.\Generated_Source\PSoC4/CapSense_SMS.c **** 		while(currentSensor < lastSensor)
 490              		.loc 1 344 0 discriminator 1
 491 0078 BA69     		ldr	r2, [r7, #24]
 492 007a FB68     		ldr	r3, [r7, #12]
 493 007c 9A42     		cmp	r2, r3
 494 007e F2D3     		bcc	.L24
 325:.\Generated_Source\PSoC4/CapSense_SMS.c **** 	for(currentWidget = 0u; currentWidget < widgetsNum; currentWidget++)
 495              		.loc 1 325 0
 496 0080 FB69     		ldr	r3, [r7, #28]
 497 0082 0133     		add	r3, r3, #1
 498 0084 FB61     		str	r3, [r7, #28]
 499              	.L19:
ARM GAS  C:\DOCUME~1\Chuck\LOCALS~1\Temp\ccKLxtTg.s 			page 16


 325:.\Generated_Source\PSoC4/CapSense_SMS.c **** 	for(currentWidget = 0u; currentWidget < widgetsNum; currentWidget++)
 500              		.loc 1 325 0 is_stmt 0 discriminator 1
 501 0086 FA69     		ldr	r2, [r7, #28]
 502 0088 7B68     		ldr	r3, [r7, #4]
 503 008a 9A42     		cmp	r2, r3
 504 008c C0D3     		bcc	.L25
 348:.\Generated_Source\PSoC4/CapSense_SMS.c **** 		}
 349:.\Generated_Source\PSoC4/CapSense_SMS.c **** 	}
 350:.\Generated_Source\PSoC4/CapSense_SMS.c **** }
 505              		.loc 1 350 0 is_stmt 1
 506 008e BD46     		mov	sp, r7
 507 0090 08B0     		add	sp, sp, #32
 508              		@ sp needed
 509 0092 80BD     		pop	{r7, pc}
 510              	.L27:
 511              		.align	2
 512              	.L26:
 513 0094 00000000 		.word	CapSense_numberOfSensors
 514 0098 00000000 		.word	CapSense_rawDataIndex
 515              		.cfi_endproc
 516              	.LFE35:
 517              		.size	CapSense_NormalizeWidgets, .-CapSense_NormalizeWidgets
 518              		.section	.text.CapSense_SetAnalogSwitchesSrcDirect,"ax",%progbits
 519              		.align	2
 520              		.global	CapSense_SetAnalogSwitchesSrcDirect
 521              		.code	16
 522              		.thumb_func
 523              		.type	CapSense_SetAnalogSwitchesSrcDirect, %function
 524              	CapSense_SetAnalogSwitchesSrcDirect:
 525              	.LFB36:
 351:.\Generated_Source\PSoC4/CapSense_SMS.c **** 
 352:.\Generated_Source\PSoC4/CapSense_SMS.c **** /*******************************************************************************
 353:.\Generated_Source\PSoC4/CapSense_SMS.c **** * Function Name: CapSense_SetAnalogSwitchesSrcDirect
 354:.\Generated_Source\PSoC4/CapSense_SMS.c **** ********************************************************************************
 355:.\Generated_Source\PSoC4/CapSense_SMS.c **** *
 356:.\Generated_Source\PSoC4/CapSense_SMS.c **** * Summary:
 357:.\Generated_Source\PSoC4/CapSense_SMS.c **** *  This API switches the charge clock source to prescaler. 
 358:.\Generated_Source\PSoC4/CapSense_SMS.c **** *
 359:.\Generated_Source\PSoC4/CapSense_SMS.c **** * Parameters:
 360:.\Generated_Source\PSoC4/CapSense_SMS.c **** *  None
 361:.\Generated_Source\PSoC4/CapSense_SMS.c **** *
 362:.\Generated_Source\PSoC4/CapSense_SMS.c **** * Return:
 363:.\Generated_Source\PSoC4/CapSense_SMS.c **** *  None
 364:.\Generated_Source\PSoC4/CapSense_SMS.c **** *
 365:.\Generated_Source\PSoC4/CapSense_SMS.c **** * Global Variables:
 366:.\Generated_Source\PSoC4/CapSense_SMS.c **** *  None
 367:.\Generated_Source\PSoC4/CapSense_SMS.c **** *
 368:.\Generated_Source\PSoC4/CapSense_SMS.c **** * Side Effects:
 369:.\Generated_Source\PSoC4/CapSense_SMS.c **** *  None
 370:.\Generated_Source\PSoC4/CapSense_SMS.c **** *
 371:.\Generated_Source\PSoC4/CapSense_SMS.c **** *******************************************************************************/
 372:.\Generated_Source\PSoC4/CapSense_SMS.c **** void CapSense_SetAnalogSwitchesSrcDirect(void)
 373:.\Generated_Source\PSoC4/CapSense_SMS.c **** {
 526              		.loc 1 373 0
 527              		.cfi_startproc
 528 0000 80B5     		push	{r7, lr}
 529              		.cfi_def_cfa_offset 8
ARM GAS  C:\DOCUME~1\Chuck\LOCALS~1\Temp\ccKLxtTg.s 			page 17


 530              		.cfi_offset 7, -8
 531              		.cfi_offset 14, -4
 532 0002 00AF     		add	r7, sp, #0
 533              		.cfi_def_cfa_register 7
 374:.\Generated_Source\PSoC4/CapSense_SMS.c **** 	CapSense_CSD_CFG_REG &= ~(CapSense_CSD_CFG_PRS_SELECT);
 534              		.loc 1 374 0
 535 0004 034B     		ldr	r3, .L29
 536 0006 034A     		ldr	r2, .L29
 537 0008 1268     		ldr	r2, [r2]
 538 000a 4021     		mov	r1, #64
 539 000c 8A43     		bic	r2, r1
 540 000e 1A60     		str	r2, [r3]
 375:.\Generated_Source\PSoC4/CapSense_SMS.c **** }
 541              		.loc 1 375 0
 542 0010 BD46     		mov	sp, r7
 543              		@ sp needed
 544 0012 80BD     		pop	{r7, pc}
 545              	.L30:
 546              		.align	2
 547              	.L29:
 548 0014 04000840 		.word	1074266116
 549              		.cfi_endproc
 550              	.LFE36:
 551              		.size	CapSense_SetAnalogSwitchesSrcDirect, .-CapSense_SetAnalogSwitchesSrcDirect
 552              		.section	.text.CapSense_DisableBaselineIDAC,"ax",%progbits
 553              		.align	2
 554              		.global	CapSense_DisableBaselineIDAC
 555              		.code	16
 556              		.thumb_func
 557              		.type	CapSense_DisableBaselineIDAC, %function
 558              	CapSense_DisableBaselineIDAC:
 559              	.LFB37:
 376:.\Generated_Source\PSoC4/CapSense_SMS.c **** 
 377:.\Generated_Source\PSoC4/CapSense_SMS.c **** 
 378:.\Generated_Source\PSoC4/CapSense_SMS.c **** /*******************************************************************************
 379:.\Generated_Source\PSoC4/CapSense_SMS.c **** * Function Name: CapSense_DisableBaselineIDAC
 380:.\Generated_Source\PSoC4/CapSense_SMS.c **** ********************************************************************************
 381:.\Generated_Source\PSoC4/CapSense_SMS.c **** *
 382:.\Generated_Source\PSoC4/CapSense_SMS.c **** * Summary:
 383:.\Generated_Source\PSoC4/CapSense_SMS.c **** *  The API disables the Compensation IDAC. 
 384:.\Generated_Source\PSoC4/CapSense_SMS.c **** *
 385:.\Generated_Source\PSoC4/CapSense_SMS.c **** * Parameters:
 386:.\Generated_Source\PSoC4/CapSense_SMS.c **** *  None
 387:.\Generated_Source\PSoC4/CapSense_SMS.c **** *
 388:.\Generated_Source\PSoC4/CapSense_SMS.c **** * Return:
 389:.\Generated_Source\PSoC4/CapSense_SMS.c **** *  None
 390:.\Generated_Source\PSoC4/CapSense_SMS.c **** *
 391:.\Generated_Source\PSoC4/CapSense_SMS.c **** * Global Variables:
 392:.\Generated_Source\PSoC4/CapSense_SMS.c **** *  None
 393:.\Generated_Source\PSoC4/CapSense_SMS.c **** *
 394:.\Generated_Source\PSoC4/CapSense_SMS.c **** * Side Effects:
 395:.\Generated_Source\PSoC4/CapSense_SMS.c **** *  None
 396:.\Generated_Source\PSoC4/CapSense_SMS.c **** *
 397:.\Generated_Source\PSoC4/CapSense_SMS.c **** *******************************************************************************/
 398:.\Generated_Source\PSoC4/CapSense_SMS.c **** void CapSense_DisableBaselineIDAC(void)
 399:.\Generated_Source\PSoC4/CapSense_SMS.c **** {
 560              		.loc 1 399 0
ARM GAS  C:\DOCUME~1\Chuck\LOCALS~1\Temp\ccKLxtTg.s 			page 18


 561              		.cfi_startproc
 562 0000 80B5     		push	{r7, lr}
 563              		.cfi_def_cfa_offset 8
 564              		.cfi_offset 7, -8
 565              		.cfi_offset 14, -4
 566 0002 82B0     		sub	sp, sp, #8
 567              		.cfi_def_cfa_offset 16
 568 0004 00AF     		add	r7, sp, #0
 569              		.cfi_def_cfa_register 7
 400:.\Generated_Source\PSoC4/CapSense_SMS.c **** 	uint32 newRegValue;
 401:.\Generated_Source\PSoC4/CapSense_SMS.c ****     
 402:.\Generated_Source\PSoC4/CapSense_SMS.c ****     newRegValue = CapSense_CSD_IDAC_REG;
 570              		.loc 1 402 0
 571 0006 094B     		ldr	r3, .L32
 572 0008 1B68     		ldr	r3, [r3]
 573 000a 7B60     		str	r3, [r7, #4]
 403:.\Generated_Source\PSoC4/CapSense_SMS.c ****     
 404:.\Generated_Source\PSoC4/CapSense_SMS.c ****     newRegValue &= ~(CapSense_CSD_IDAC1_MODE_MASK | CapSense_CSD_IDAC2_MODE_MASK);
 574              		.loc 1 404 0
 575 000c 7A68     		ldr	r2, [r7, #4]
 576 000e 084B     		ldr	r3, .L32+4
 577 0010 1340     		and	r3, r2
 578 0012 7B60     		str	r3, [r7, #4]
 405:.\Generated_Source\PSoC4/CapSense_SMS.c ****     newRegValue |= CapSense_CSD_IDAC1_MODE_VARIABLE;
 579              		.loc 1 405 0
 580 0014 7B68     		ldr	r3, [r7, #4]
 581 0016 8022     		mov	r2, #128
 582 0018 9200     		lsl	r2, r2, #2
 583 001a 1343     		orr	r3, r2
 584 001c 7B60     		str	r3, [r7, #4]
 406:.\Generated_Source\PSoC4/CapSense_SMS.c ****     
 407:.\Generated_Source\PSoC4/CapSense_SMS.c **** 	CapSense_CSD_IDAC_REG = newRegValue;
 585              		.loc 1 407 0
 586 001e 034B     		ldr	r3, .L32
 587 0020 7A68     		ldr	r2, [r7, #4]
 588 0022 1A60     		str	r2, [r3]
 408:.\Generated_Source\PSoC4/CapSense_SMS.c **** }
 589              		.loc 1 408 0
 590 0024 BD46     		mov	sp, r7
 591 0026 02B0     		add	sp, sp, #8
 592              		@ sp needed
 593 0028 80BD     		pop	{r7, pc}
 594              	.L33:
 595 002a C046     		.align	2
 596              	.L32:
 597 002c 08000840 		.word	1074266120
 598 0030 FFFCFFFC 		.word	-50332417
 599              		.cfi_endproc
 600              	.LFE37:
 601              		.size	CapSense_DisableBaselineIDAC, .-CapSense_DisableBaselineIDAC
 602              		.section	.text.CapSense_EnableBaselineIDAC,"ax",%progbits
 603              		.align	2
 604              		.global	CapSense_EnableBaselineIDAC
 605              		.code	16
 606              		.thumb_func
 607              		.type	CapSense_EnableBaselineIDAC, %function
 608              	CapSense_EnableBaselineIDAC:
ARM GAS  C:\DOCUME~1\Chuck\LOCALS~1\Temp\ccKLxtTg.s 			page 19


 609              	.LFB38:
 409:.\Generated_Source\PSoC4/CapSense_SMS.c **** 
 410:.\Generated_Source\PSoC4/CapSense_SMS.c **** 
 411:.\Generated_Source\PSoC4/CapSense_SMS.c **** /*******************************************************************************
 412:.\Generated_Source\PSoC4/CapSense_SMS.c **** * Function Name: CapSense_EnableBaselineIDAC
 413:.\Generated_Source\PSoC4/CapSense_SMS.c **** ********************************************************************************
 414:.\Generated_Source\PSoC4/CapSense_SMS.c **** *
 415:.\Generated_Source\PSoC4/CapSense_SMS.c **** * Summary:
 416:.\Generated_Source\PSoC4/CapSense_SMS.c **** *  The API enables the Compensation IDAC. 
 417:.\Generated_Source\PSoC4/CapSense_SMS.c **** *
 418:.\Generated_Source\PSoC4/CapSense_SMS.c **** * Parameters:
 419:.\Generated_Source\PSoC4/CapSense_SMS.c **** *  None
 420:.\Generated_Source\PSoC4/CapSense_SMS.c **** *
 421:.\Generated_Source\PSoC4/CapSense_SMS.c **** * Return:
 422:.\Generated_Source\PSoC4/CapSense_SMS.c **** *  None
 423:.\Generated_Source\PSoC4/CapSense_SMS.c **** *
 424:.\Generated_Source\PSoC4/CapSense_SMS.c **** * Global Variables:
 425:.\Generated_Source\PSoC4/CapSense_SMS.c **** *  CapSense_compensationIDAC[] - used to store a 7-bit idac value for all the sensors.
 426:.\Generated_Source\PSoC4/CapSense_SMS.c **** *
 427:.\Generated_Source\PSoC4/CapSense_SMS.c **** * Side Effects:
 428:.\Generated_Source\PSoC4/CapSense_SMS.c **** *  None
 429:.\Generated_Source\PSoC4/CapSense_SMS.c **** *
 430:.\Generated_Source\PSoC4/CapSense_SMS.c **** *******************************************************************************/
 431:.\Generated_Source\PSoC4/CapSense_SMS.c **** void  CapSense_EnableBaselineIDAC(const CapSense_CONFIG_TYPE_P4_v2_0 *config)
 432:.\Generated_Source\PSoC4/CapSense_SMS.c **** {
 610              		.loc 1 432 0
 611              		.cfi_startproc
 612 0000 80B5     		push	{r7, lr}
 613              		.cfi_def_cfa_offset 8
 614              		.cfi_offset 7, -8
 615              		.cfi_offset 14, -4
 616 0002 84B0     		sub	sp, sp, #16
 617              		.cfi_def_cfa_offset 24
 618 0004 00AF     		add	r7, sp, #0
 619              		.cfi_def_cfa_register 7
 620 0006 7860     		str	r0, [r7, #4]
 433:.\Generated_Source\PSoC4/CapSense_SMS.c ****     uint32 curSensor;
 434:.\Generated_Source\PSoC4/CapSense_SMS.c ****     uint32 newRegValue;
 435:.\Generated_Source\PSoC4/CapSense_SMS.c **** 
 436:.\Generated_Source\PSoC4/CapSense_SMS.c ****     for(curSensor = 0u; curSensor < config->totalScanslotsNum; curSensor++)
 621              		.loc 1 436 0
 622 0008 0023     		mov	r3, #0
 623 000a FB60     		str	r3, [r7, #12]
 624 000c 17E0     		b	.L35
 625              	.L36:
 437:.\Generated_Source\PSoC4/CapSense_SMS.c ****     {
 438:.\Generated_Source\PSoC4/CapSense_SMS.c **** 		CapSense_compensationIDAC[curSensor] = CapSense_modulationIDAC[curSensor] / 2u;
 626              		.loc 1 438 0 discriminator 2
 627 000e 1A4A     		ldr	r2, .L37
 628 0010 FB68     		ldr	r3, [r7, #12]
 629 0012 D318     		add	r3, r2, r3
 630 0014 1B78     		ldrb	r3, [r3]
 631 0016 5B08     		lsr	r3, r3, #1
 632 0018 DAB2     		uxtb	r2, r3
 633 001a 1849     		ldr	r1, .L37+4
 634 001c FB68     		ldr	r3, [r7, #12]
 635 001e CB18     		add	r3, r1, r3
ARM GAS  C:\DOCUME~1\Chuck\LOCALS~1\Temp\ccKLxtTg.s 			page 20


 636 0020 1A70     		strb	r2, [r3]
 439:.\Generated_Source\PSoC4/CapSense_SMS.c **** 	    CapSense_modulationIDAC[curSensor] = (CapSense_modulationIDAC[curSensor] + 1u) / 2u;
 637              		.loc 1 439 0 discriminator 2
 638 0022 154A     		ldr	r2, .L37
 639 0024 FB68     		ldr	r3, [r7, #12]
 640 0026 D318     		add	r3, r2, r3
 641 0028 1B78     		ldrb	r3, [r3]
 642 002a 0133     		add	r3, r3, #1
 643 002c 5B08     		lsr	r3, r3, #1
 644 002e DAB2     		uxtb	r2, r3
 645 0030 1149     		ldr	r1, .L37
 646 0032 FB68     		ldr	r3, [r7, #12]
 647 0034 CB18     		add	r3, r1, r3
 648 0036 1A70     		strb	r2, [r3]
 436:.\Generated_Source\PSoC4/CapSense_SMS.c ****     for(curSensor = 0u; curSensor < config->totalScanslotsNum; curSensor++)
 649              		.loc 1 436 0 discriminator 2
 650 0038 FB68     		ldr	r3, [r7, #12]
 651 003a 0133     		add	r3, r3, #1
 652 003c FB60     		str	r3, [r7, #12]
 653              	.L35:
 436:.\Generated_Source\PSoC4/CapSense_SMS.c ****     for(curSensor = 0u; curSensor < config->totalScanslotsNum; curSensor++)
 654              		.loc 1 436 0 is_stmt 0 discriminator 1
 655 003e 7B68     		ldr	r3, [r7, #4]
 656 0040 1B78     		ldrb	r3, [r3]
 657 0042 1A1C     		mov	r2, r3
 658 0044 FB68     		ldr	r3, [r7, #12]
 659 0046 9A42     		cmp	r2, r3
 660 0048 E1D8     		bhi	.L36
 440:.\Generated_Source\PSoC4/CapSense_SMS.c ****     }
 441:.\Generated_Source\PSoC4/CapSense_SMS.c **** 	
 442:.\Generated_Source\PSoC4/CapSense_SMS.c **** 	CyIntDisable(CapSense_ISR_NUMBER);
 661              		.loc 1 442 0 is_stmt 1
 662 004a 0F20     		mov	r0, #15
 663 004c FFF7FEFF 		bl	CyIntDisable
 443:.\Generated_Source\PSoC4/CapSense_SMS.c **** 	
 444:.\Generated_Source\PSoC4/CapSense_SMS.c **** 	newRegValue = CapSense_CSD_IDAC_REG;
 664              		.loc 1 444 0
 665 0050 0B4B     		ldr	r3, .L37+8
 666 0052 1B68     		ldr	r3, [r3]
 667 0054 BB60     		str	r3, [r7, #8]
 445:.\Generated_Source\PSoC4/CapSense_SMS.c ****     newRegValue &= ~(CapSense_CSD_IDAC1_MODE_MASK | CapSense_CSD_IDAC2_MODE_MASK);
 668              		.loc 1 445 0
 669 0056 BA68     		ldr	r2, [r7, #8]
 670 0058 0A4B     		ldr	r3, .L37+12
 671 005a 1340     		and	r3, r2
 672 005c BB60     		str	r3, [r7, #8]
 446:.\Generated_Source\PSoC4/CapSense_SMS.c ****     newRegValue |= (CapSense_CSD_IDAC1_MODE_VARIABLE | CapSense_CSD_IDAC2_MODE_FIXED);
 673              		.loc 1 446 0
 674 005e BB68     		ldr	r3, [r7, #8]
 675 0060 094A     		ldr	r2, .L37+16
 676 0062 1343     		orr	r3, r2
 677 0064 BB60     		str	r3, [r7, #8]
 447:.\Generated_Source\PSoC4/CapSense_SMS.c ****     CapSense_CSD_IDAC_REG = newRegValue;
 678              		.loc 1 447 0
 679 0066 064B     		ldr	r3, .L37+8
 680 0068 BA68     		ldr	r2, [r7, #8]
 681 006a 1A60     		str	r2, [r3]
ARM GAS  C:\DOCUME~1\Chuck\LOCALS~1\Temp\ccKLxtTg.s 			page 21


 448:.\Generated_Source\PSoC4/CapSense_SMS.c **** 	
 449:.\Generated_Source\PSoC4/CapSense_SMS.c **** 	CyIntEnable(CapSense_ISR_NUMBER);
 682              		.loc 1 449 0
 683 006c 0F20     		mov	r0, #15
 684 006e FFF7FEFF 		bl	CyIntEnable
 450:.\Generated_Source\PSoC4/CapSense_SMS.c **** }
 685              		.loc 1 450 0
 686 0072 BD46     		mov	sp, r7
 687 0074 04B0     		add	sp, sp, #16
 688              		@ sp needed
 689 0076 80BD     		pop	{r7, pc}
 690              	.L38:
 691              		.align	2
 692              	.L37:
 693 0078 00000000 		.word	CapSense_modulationIDAC
 694 007c 00000000 		.word	CapSense_compensationIDAC
 695 0080 08000840 		.word	1074266120
 696 0084 FFFCFFFC 		.word	-50332417
 697 0088 00020001 		.word	16777728
 698              		.cfi_endproc
 699              	.LFE38:
 700              		.size	CapSense_EnableBaselineIDAC, .-CapSense_EnableBaselineIDAC
 701              		.section	.text.CapSense_SetSensitivity,"ax",%progbits
 702              		.align	2
 703              		.global	CapSense_SetSensitivity
 704              		.code	16
 705              		.thumb_func
 706              		.type	CapSense_SetSensitivity, %function
 707              	CapSense_SetSensitivity:
 708              	.LFB39:
 451:.\Generated_Source\PSoC4/CapSense_SMS.c **** 
 452:.\Generated_Source\PSoC4/CapSense_SMS.c **** 
 453:.\Generated_Source\PSoC4/CapSense_SMS.c **** /*******************************************************************************
 454:.\Generated_Source\PSoC4/CapSense_SMS.c **** * Function Name: CapSense_SetSensitivity
 455:.\Generated_Source\PSoC4/CapSense_SMS.c **** ********************************************************************************
 456:.\Generated_Source\PSoC4/CapSense_SMS.c **** *
 457:.\Generated_Source\PSoC4/CapSense_SMS.c **** * Summary:
 458:.\Generated_Source\PSoC4/CapSense_SMS.c **** *  This API sets the sensitivity value for the sensor. The sensitivity 
 459:.\Generated_Source\PSoC4/CapSense_SMS.c **** *  value is used during the auto-tuning algorithm executed as part of the CapSense_Start API.
 460:.\Generated_Source\PSoC4/CapSense_SMS.c **** *  This API is called by the application layer prior to calling the CapSense_Start API. 
 461:.\Generated_Source\PSoC4/CapSense_SMS.c **** *  Calling this API after execution of CapSense_Start API has no effect. 
 462:.\Generated_Source\PSoC4/CapSense_SMS.c **** *
 463:.\Generated_Source\PSoC4/CapSense_SMS.c **** * Parameters: 
 464:.\Generated_Source\PSoC4/CapSense_SMS.c **** *  sensor  Sensor index 
 465:.\Generated_Source\PSoC4/CapSense_SMS.c **** *  data    Sensitivity of the sensor. Possible values are below
 466:.\Generated_Source\PSoC4/CapSense_SMS.c **** *  1 - 0.1pf sensitivity
 467:.\Generated_Source\PSoC4/CapSense_SMS.c **** *  2 - 0.2pf sensitivity
 468:.\Generated_Source\PSoC4/CapSense_SMS.c **** *  3 - 0.3pf sensitivity
 469:.\Generated_Source\PSoC4/CapSense_SMS.c **** *  4 - 0.4pf sensitivity
 470:.\Generated_Source\PSoC4/CapSense_SMS.c **** *  All other values, set sensitivity to 0.4pf
 471:.\Generated_Source\PSoC4/CapSense_SMS.c **** *
 472:.\Generated_Source\PSoC4/CapSense_SMS.c **** *  Return Value:
 473:.\Generated_Source\PSoC4/CapSense_SMS.c **** *   None
 474:.\Generated_Source\PSoC4/CapSense_SMS.c **** *
 475:.\Generated_Source\PSoC4/CapSense_SMS.c **** * Global Variables:
 476:.\Generated_Source\PSoC4/CapSense_SMS.c **** * SMS_LIB_SensorSensitivity[] - This 8-bits array contains Sensitivity in the LSB nibble
 477:.\Generated_Source\PSoC4/CapSense_SMS.c **** *                                and Noise Reset Counter value in the MSB nibble.      
ARM GAS  C:\DOCUME~1\Chuck\LOCALS~1\Temp\ccKLxtTg.s 			page 22


 478:.\Generated_Source\PSoC4/CapSense_SMS.c **** *
 479:.\Generated_Source\PSoC4/CapSense_SMS.c **** * Side Effects: 
 480:.\Generated_Source\PSoC4/CapSense_SMS.c **** *  None
 481:.\Generated_Source\PSoC4/CapSense_SMS.c **** *
 482:.\Generated_Source\PSoC4/CapSense_SMS.c **** *******************************************************************************/
 483:.\Generated_Source\PSoC4/CapSense_SMS.c **** void CapSense_SetSensitivity(uint32 sensor, uint32 value)
 484:.\Generated_Source\PSoC4/CapSense_SMS.c **** {
 709              		.loc 1 484 0
 710              		.cfi_startproc
 711 0000 80B5     		push	{r7, lr}
 712              		.cfi_def_cfa_offset 8
 713              		.cfi_offset 7, -8
 714              		.cfi_offset 14, -4
 715 0002 82B0     		sub	sp, sp, #8
 716              		.cfi_def_cfa_offset 16
 717 0004 00AF     		add	r7, sp, #0
 718              		.cfi_def_cfa_register 7
 719 0006 7860     		str	r0, [r7, #4]
 720 0008 3960     		str	r1, [r7]
 485:.\Generated_Source\PSoC4/CapSense_SMS.c **** 	if(value > 4u)
 721              		.loc 1 485 0
 722 000a 3B68     		ldr	r3, [r7]
 723 000c 042B     		cmp	r3, #4
 724 000e 01D9     		bls	.L40
 486:.\Generated_Source\PSoC4/CapSense_SMS.c **** 	{
 487:.\Generated_Source\PSoC4/CapSense_SMS.c **** 		value = 4u;
 725              		.loc 1 487 0
 726 0010 0423     		mov	r3, #4
 727 0012 3B60     		str	r3, [r7]
 728              	.L40:
 488:.\Generated_Source\PSoC4/CapSense_SMS.c **** 	}
 489:.\Generated_Source\PSoC4/CapSense_SMS.c **** 	
 490:.\Generated_Source\PSoC4/CapSense_SMS.c ****     /* Clear SensorSensitivity value in LSB nibble */
 491:.\Generated_Source\PSoC4/CapSense_SMS.c **** 	SMS_LIB_SensorSensitivity[sensor] &= (uint8)~CapSense_SENSITIVITY_MASK;
 729              		.loc 1 491 0
 730 0014 0C4A     		ldr	r2, .L41
 731 0016 7B68     		ldr	r3, [r7, #4]
 732 0018 D318     		add	r3, r2, r3
 733 001a 1B78     		ldrb	r3, [r3]
 734 001c 0F22     		mov	r2, #15
 735 001e 9343     		bic	r3, r2
 736 0020 DAB2     		uxtb	r2, r3
 737 0022 0949     		ldr	r1, .L41
 738 0024 7B68     		ldr	r3, [r7, #4]
 739 0026 CB18     		add	r3, r1, r3
 740 0028 1A70     		strb	r2, [r3]
 492:.\Generated_Source\PSoC4/CapSense_SMS.c **** 	/* Set SensorSensitivity value in LSB nibble */
 493:.\Generated_Source\PSoC4/CapSense_SMS.c **** 	SMS_LIB_SensorSensitivity[sensor] |= (uint8)value;
 741              		.loc 1 493 0
 742 002a 074A     		ldr	r2, .L41
 743 002c 7B68     		ldr	r3, [r7, #4]
 744 002e D318     		add	r3, r2, r3
 745 0030 1A78     		ldrb	r2, [r3]
 746 0032 3B68     		ldr	r3, [r7]
 747 0034 DBB2     		uxtb	r3, r3
 748 0036 1343     		orr	r3, r2
 749 0038 DAB2     		uxtb	r2, r3
ARM GAS  C:\DOCUME~1\Chuck\LOCALS~1\Temp\ccKLxtTg.s 			page 23


 750 003a 0349     		ldr	r1, .L41
 751 003c 7B68     		ldr	r3, [r7, #4]
 752 003e CB18     		add	r3, r1, r3
 753 0040 1A70     		strb	r2, [r3]
 494:.\Generated_Source\PSoC4/CapSense_SMS.c **** }
 754              		.loc 1 494 0
 755 0042 BD46     		mov	sp, r7
 756 0044 02B0     		add	sp, sp, #8
 757              		@ sp needed
 758 0046 80BD     		pop	{r7, pc}
 759              	.L42:
 760              		.align	2
 761              	.L41:
 762 0048 00000000 		.word	SMS_LIB_SensorSensitivity
 763              		.cfi_endproc
 764              	.LFE39:
 765              		.size	CapSense_SetSensitivity, .-CapSense_SetSensitivity
 766              		.section	.text.CapSense_GetSensitivityCoefficient,"ax",%progbits
 767              		.align	2
 768              		.global	CapSense_GetSensitivityCoefficient
 769              		.code	16
 770              		.thumb_func
 771              		.type	CapSense_GetSensitivityCoefficient, %function
 772              	CapSense_GetSensitivityCoefficient:
 773              	.LFB40:
 495:.\Generated_Source\PSoC4/CapSense_SMS.c **** 
 496:.\Generated_Source\PSoC4/CapSense_SMS.c **** 
 497:.\Generated_Source\PSoC4/CapSense_SMS.c **** /*******************************************************************************
 498:.\Generated_Source\PSoC4/CapSense_SMS.c **** * Function Name: CapSense_GetSensitivityCoefficient
 499:.\Generated_Source\PSoC4/CapSense_SMS.c **** ********************************************************************************
 500:.\Generated_Source\PSoC4/CapSense_SMS.c **** *
 501:.\Generated_Source\PSoC4/CapSense_SMS.c **** * Summary:
 502:.\Generated_Source\PSoC4/CapSense_SMS.c **** *  This API returns the K coefficient for the appropriate sensor. 
 503:.\Generated_Source\PSoC4/CapSense_SMS.c **** *
 504:.\Generated_Source\PSoC4/CapSense_SMS.c **** * Parameters: 
 505:.\Generated_Source\PSoC4/CapSense_SMS.c **** *  sensor:  Sensor index 
 506:.\Generated_Source\PSoC4/CapSense_SMS.c **** *
 507:.\Generated_Source\PSoC4/CapSense_SMS.c **** *  Return Value:
 508:.\Generated_Source\PSoC4/CapSense_SMS.c **** *   K - value for the appropriate sensor.
 509:.\Generated_Source\PSoC4/CapSense_SMS.c **** *
 510:.\Generated_Source\PSoC4/CapSense_SMS.c **** * Global Variables:
 511:.\Generated_Source\PSoC4/CapSense_SMS.c **** *  kValueTbl[] - This 8-bits array contains the K value for each sensor.
 512:.\Generated_Source\PSoC4/CapSense_SMS.c **** *
 513:.\Generated_Source\PSoC4/CapSense_SMS.c **** * Side Effects: 
 514:.\Generated_Source\PSoC4/CapSense_SMS.c **** *  None
 515:.\Generated_Source\PSoC4/CapSense_SMS.c **** *
 516:.\Generated_Source\PSoC4/CapSense_SMS.c **** *******************************************************************************/
 517:.\Generated_Source\PSoC4/CapSense_SMS.c **** uint8 CapSense_GetSensitivityCoefficient(uint32 sensor)
 518:.\Generated_Source\PSoC4/CapSense_SMS.c **** {
 774              		.loc 1 518 0
 775              		.cfi_startproc
 776 0000 80B5     		push	{r7, lr}
 777              		.cfi_def_cfa_offset 8
 778              		.cfi_offset 7, -8
 779              		.cfi_offset 14, -4
 780 0002 82B0     		sub	sp, sp, #8
 781              		.cfi_def_cfa_offset 16
ARM GAS  C:\DOCUME~1\Chuck\LOCALS~1\Temp\ccKLxtTg.s 			page 24


 782 0004 00AF     		add	r7, sp, #0
 783              		.cfi_def_cfa_register 7
 784 0006 7860     		str	r0, [r7, #4]
 519:.\Generated_Source\PSoC4/CapSense_SMS.c **** 	return (kValueTbl[sensor]);
 785              		.loc 1 519 0
 786 0008 034A     		ldr	r2, .L45
 787 000a 7B68     		ldr	r3, [r7, #4]
 788 000c D318     		add	r3, r2, r3
 789 000e 1B78     		ldrb	r3, [r3]
 520:.\Generated_Source\PSoC4/CapSense_SMS.c **** }
 790              		.loc 1 520 0
 791 0010 181C     		mov	r0, r3
 792 0012 BD46     		mov	sp, r7
 793 0014 02B0     		add	sp, sp, #8
 794              		@ sp needed
 795 0016 80BD     		pop	{r7, pc}
 796              	.L46:
 797              		.align	2
 798              	.L45:
 799 0018 00000000 		.word	kValueTbl
 800              		.cfi_endproc
 801              	.LFE40:
 802              		.size	CapSense_GetSensitivityCoefficient, .-CapSense_GetSensitivityCoefficient
 803              		.section	.text.CapSense_GetNoiseEnvelope,"ax",%progbits
 804              		.align	2
 805              		.global	CapSense_GetNoiseEnvelope
 806              		.code	16
 807              		.thumb_func
 808              		.type	CapSense_GetNoiseEnvelope, %function
 809              	CapSense_GetNoiseEnvelope:
 810              	.LFB41:
 521:.\Generated_Source\PSoC4/CapSense_SMS.c **** 
 522:.\Generated_Source\PSoC4/CapSense_SMS.c **** 
 523:.\Generated_Source\PSoC4/CapSense_SMS.c **** /*******************************************************************************
 524:.\Generated_Source\PSoC4/CapSense_SMS.c **** * Function Name: CapSense_GetNoiseEnvelope
 525:.\Generated_Source\PSoC4/CapSense_SMS.c **** ********************************************************************************
 526:.\Generated_Source\PSoC4/CapSense_SMS.c **** *
 527:.\Generated_Source\PSoC4/CapSense_SMS.c **** * Summary:
 528:.\Generated_Source\PSoC4/CapSense_SMS.c **** *  This function returns the noise value of a
 529:.\Generated_Source\PSoC4/CapSense_SMS.c **** *  component.
 530:.\Generated_Source\PSoC4/CapSense_SMS.c **** *
 531:.\Generated_Source\PSoC4/CapSense_SMS.c **** * Parameters:
 532:.\Generated_Source\PSoC4/CapSense_SMS.c **** *  sensor - Sensor number.
 533:.\Generated_Source\PSoC4/CapSense_SMS.c **** *
 534:.\Generated_Source\PSoC4/CapSense_SMS.c **** * Return:
 535:.\Generated_Source\PSoC4/CapSense_SMS.c **** *  The noise envelope value of the sensor
 536:.\Generated_Source\PSoC4/CapSense_SMS.c **** *  indicated by argument.
 537:.\Generated_Source\PSoC4/CapSense_SMS.c **** *
 538:.\Generated_Source\PSoC4/CapSense_SMS.c **** * Global Variables:
 539:.\Generated_Source\PSoC4/CapSense_SMS.c **** *  baNoiseEnvelope[] - array with Noise Envelope.
 540:.\Generated_Source\PSoC4/CapSense_SMS.c **** *
 541:.\Generated_Source\PSoC4/CapSense_SMS.c **** * Side Effects:
 542:.\Generated_Source\PSoC4/CapSense_SMS.c **** *  None
 543:.\Generated_Source\PSoC4/CapSense_SMS.c **** *
 544:.\Generated_Source\PSoC4/CapSense_SMS.c **** *******************************************************************************/
 545:.\Generated_Source\PSoC4/CapSense_SMS.c **** uint16 CapSense_GetNoiseEnvelope(uint32 sensor)
 546:.\Generated_Source\PSoC4/CapSense_SMS.c **** {
ARM GAS  C:\DOCUME~1\Chuck\LOCALS~1\Temp\ccKLxtTg.s 			page 25


 811              		.loc 1 546 0
 812              		.cfi_startproc
 813 0000 80B5     		push	{r7, lr}
 814              		.cfi_def_cfa_offset 8
 815              		.cfi_offset 7, -8
 816              		.cfi_offset 14, -4
 817 0002 82B0     		sub	sp, sp, #8
 818              		.cfi_def_cfa_offset 16
 819 0004 00AF     		add	r7, sp, #0
 820              		.cfi_def_cfa_register 7
 821 0006 7860     		str	r0, [r7, #4]
 547:.\Generated_Source\PSoC4/CapSense_SMS.c ****     return((uint16)((uint16)noiseEnvelopeTbl[sensor] << 1u) + 1u);
 822              		.loc 1 547 0
 823 0008 054A     		ldr	r2, .L49
 824 000a 7B68     		ldr	r3, [r7, #4]
 825 000c D318     		add	r3, r2, r3
 826 000e 1B78     		ldrb	r3, [r3]
 827 0010 DB18     		add	r3, r3, r3
 828 0012 9BB2     		uxth	r3, r3
 829 0014 0133     		add	r3, r3, #1
 830 0016 9BB2     		uxth	r3, r3
 548:.\Generated_Source\PSoC4/CapSense_SMS.c **** }
 831              		.loc 1 548 0
 832 0018 181C     		mov	r0, r3
 833 001a BD46     		mov	sp, r7
 834 001c 02B0     		add	sp, sp, #8
 835              		@ sp needed
 836 001e 80BD     		pop	{r7, pc}
 837              	.L50:
 838              		.align	2
 839              	.L49:
 840 0020 00000000 		.word	noiseEnvelopeTbl
 841              		.cfi_endproc
 842              	.LFE41:
 843              		.size	CapSense_GetNoiseEnvelope, .-CapSense_GetNoiseEnvelope
 844              		.global	__aeabi_uidiv
 845              		.section	.text.CapSense_GetNormalizedDiffCountData,"ax",%progbits
 846              		.align	2
 847              		.global	CapSense_GetNormalizedDiffCountData
 848              		.code	16
 849              		.thumb_func
 850              		.type	CapSense_GetNormalizedDiffCountData, %function
 851              	CapSense_GetNormalizedDiffCountData:
 852              	.LFB42:
 549:.\Generated_Source\PSoC4/CapSense_SMS.c **** 
 550:.\Generated_Source\PSoC4/CapSense_SMS.c **** 
 551:.\Generated_Source\PSoC4/CapSense_SMS.c **** /*******************************************************************************
 552:.\Generated_Source\PSoC4/CapSense_SMS.c **** * Function Name: CapSense_GetNormalizedDiffCountData
 553:.\Generated_Source\PSoC4/CapSense_SMS.c **** ********************************************************************************
 554:.\Generated_Source\PSoC4/CapSense_SMS.c **** *
 555:.\Generated_Source\PSoC4/CapSense_SMS.c **** * Summary:
 556:.\Generated_Source\PSoC4/CapSense_SMS.c **** *  This API returns normalized difference count data.
 557:.\Generated_Source\PSoC4/CapSense_SMS.c **** *
 558:.\Generated_Source\PSoC4/CapSense_SMS.c **** * Parameters:
 559:.\Generated_Source\PSoC4/CapSense_SMS.c **** *  sensor:  Sensor number.
 560:.\Generated_Source\PSoC4/CapSense_SMS.c **** *
 561:.\Generated_Source\PSoC4/CapSense_SMS.c **** * Return:
ARM GAS  C:\DOCUME~1\Chuck\LOCALS~1\Temp\ccKLxtTg.s 			page 26


 562:.\Generated_Source\PSoC4/CapSense_SMS.c **** *  This API returns a normalized count value of the sensor indicated by the 
 563:.\Generated_Source\PSoC4/CapSense_SMS.c **** *  argument. 
 564:.\Generated_Source\PSoC4/CapSense_SMS.c **** *
 565:.\Generated_Source\PSoC4/CapSense_SMS.c **** * Global Variables:
 566:.\Generated_Source\PSoC4/CapSense_SMS.c **** *  CapSense_sensorSignal[] - array with difference counts for sensors
 567:.\Generated_Source\PSoC4/CapSense_SMS.c **** * 
 568:.\Generated_Source\PSoC4/CapSense_SMS.c **** * Side Effects:
 569:.\Generated_Source\PSoC4/CapSense_SMS.c **** *  None
 570:.\Generated_Source\PSoC4/CapSense_SMS.c **** *
 571:.\Generated_Source\PSoC4/CapSense_SMS.c **** *******************************************************************************/
 572:.\Generated_Source\PSoC4/CapSense_SMS.c **** uint16 CapSense_GetNormalizedDiffCountData(uint32 sensor)
 573:.\Generated_Source\PSoC4/CapSense_SMS.c **** {
 853              		.loc 1 573 0
 854              		.cfi_startproc
 855 0000 80B5     		push	{r7, lr}
 856              		.cfi_def_cfa_offset 8
 857              		.cfi_offset 7, -8
 858              		.cfi_offset 14, -4
 859 0002 82B0     		sub	sp, sp, #8
 860              		.cfi_def_cfa_offset 16
 861 0004 00AF     		add	r7, sp, #0
 862              		.cfi_def_cfa_register 7
 863 0006 7860     		str	r0, [r7, #4]
 574:.\Generated_Source\PSoC4/CapSense_SMS.c **** 	return (uint16)(((uint32)CapSense_sensorSignal[sensor] << 7u) / kValueTbl[sensor]);
 864              		.loc 1 574 0
 865 0008 094A     		ldr	r2, .L53
 866 000a 7B68     		ldr	r3, [r7, #4]
 867 000c D318     		add	r3, r2, r3
 868 000e 1B78     		ldrb	r3, [r3]
 869 0010 DA01     		lsl	r2, r3, #7
 870 0012 0849     		ldr	r1, .L53+4
 871 0014 7B68     		ldr	r3, [r7, #4]
 872 0016 CB18     		add	r3, r1, r3
 873 0018 1B78     		ldrb	r3, [r3]
 874 001a 101C     		mov	r0, r2
 875 001c 191C     		mov	r1, r3
 876 001e FFF7FEFF 		bl	__aeabi_uidiv
 877 0022 031C     		mov	r3, r0
 878 0024 9BB2     		uxth	r3, r3
 575:.\Generated_Source\PSoC4/CapSense_SMS.c **** }
 879              		.loc 1 575 0
 880 0026 181C     		mov	r0, r3
 881 0028 BD46     		mov	sp, r7
 882 002a 02B0     		add	sp, sp, #8
 883              		@ sp needed
 884 002c 80BD     		pop	{r7, pc}
 885              	.L54:
 886 002e C046     		.align	2
 887              	.L53:
 888 0030 00000000 		.word	CapSense_sensorSignal
 889 0034 00000000 		.word	kValueTbl
 890              		.cfi_endproc
 891              	.LFE42:
 892              		.size	CapSense_GetNormalizedDiffCountData, .-CapSense_GetNormalizedDiffCountData
 893              		.text
 894              	.Letext0:
 895              		.file 2 ".\\Generated_Source\\PSoC4\\cytypes.h"
ARM GAS  C:\DOCUME~1\Chuck\LOCALS~1\Temp\ccKLxtTg.s 			page 27


 896              		.file 3 ".\\Generated_Source\\PSoC4\\CapSense_PVT.h"