ARM GAS  C:\DOCUME~1\Chuck\LOCALS~1\Temp\cc1frfi1.s 			page 1


   1              		.cpu cortex-m0
   2              		.fpu softvfp
   3              		.eabi_attribute 20, 1
   4              		.eabi_attribute 21, 1
   5              		.eabi_attribute 23, 3
   6              		.eabi_attribute 24, 1
   7              		.eabi_attribute 25, 1
   8              		.eabi_attribute 26, 1
   9              		.eabi_attribute 30, 6
  10              		.eabi_attribute 34, 0
  11              		.eabi_attribute 18, 4
  12              		.code	16
  13              		.file	"Encoder.cpp"
  14              		.text
  15              	.Ltext0:
  16              		.cfi_sections	.debug_frame
  17              		.section	.text._ZN3ros3MsgC2Ev,"axG",%progbits,_ZN3ros3MsgC5Ev,comdat
  18              		.align	2
  19              		.weak	_ZN3ros3MsgC2Ev
  20              		.code	16
  21              		.thumb_func
  22              		.type	_ZN3ros3MsgC2Ev, %function
  23              	_ZN3ros3MsgC2Ev:
  24              	.LFB21:
  25              		.file 1 "./ros_lib/ros/msg.h"
   1:./ros_lib/ros/msg.h **** /* 
   2:./ros_lib/ros/msg.h ****  * Software License Agreement (BSD License)
   3:./ros_lib/ros/msg.h ****  *
   4:./ros_lib/ros/msg.h ****  * Copyright (c) 2011, Willow Garage, Inc.
   5:./ros_lib/ros/msg.h ****  * All rights reserved.
   6:./ros_lib/ros/msg.h ****  *
   7:./ros_lib/ros/msg.h ****  * Redistribution and use in source and binary forms, with or without
   8:./ros_lib/ros/msg.h ****  * modification, are permitted provided that the following conditions
   9:./ros_lib/ros/msg.h ****  * are met:
  10:./ros_lib/ros/msg.h ****  *
  11:./ros_lib/ros/msg.h ****  *  * Redistributions of source code must retain the above copyright
  12:./ros_lib/ros/msg.h ****  *    notice, this list of conditions and the following disclaimer.
  13:./ros_lib/ros/msg.h ****  *  * Redistributions in binary form must reproduce the above
  14:./ros_lib/ros/msg.h ****  *    copyright notice, this list of conditions and the following
  15:./ros_lib/ros/msg.h ****  *    disclaimer in the documentation and/or other materials provided
  16:./ros_lib/ros/msg.h ****  *    with the distribution.
  17:./ros_lib/ros/msg.h ****  *  * Neither the name of Willow Garage, Inc. nor the names of its
  18:./ros_lib/ros/msg.h ****  *    contributors may be used to endorse or promote prducts derived
  19:./ros_lib/ros/msg.h ****  *    from this software without specific prior written permission.
  20:./ros_lib/ros/msg.h ****  *
  21:./ros_lib/ros/msg.h ****  * THIS SOFTWARE IS PROVIDED BY THE COPYRIGHT HOLDERS AND CONTRIBUTORS
  22:./ros_lib/ros/msg.h ****  * "AS IS" AND ANY EXPRESS OR IMPLIED WARRANTIES, INCLUDING, BUT NOT
  23:./ros_lib/ros/msg.h ****  * LIMITED TO, THE IMPLIED WARRANTIES OF MERCHANTABILITY AND FITNESS
  24:./ros_lib/ros/msg.h ****  * FOR A PARTICULAR PURPOSE ARE DISCLAIMED. IN NO EVENT SHALL THE
  25:./ros_lib/ros/msg.h ****  * COPYRIGHT OWNER OR CONTRIBUTORS BE LIABLE FOR ANY DIRECT, INDIRECT,
  26:./ros_lib/ros/msg.h ****  * INCIDENTAL, SPECIAL, EXEMPLARY, OR CONSEQUENTIAL DAMAGES (INCLUDING,
  27:./ros_lib/ros/msg.h ****  * BUT NOT LIMITED TO, PROCUREMENT OF SUBSTITUTE GOODS OR SERVICES;
  28:./ros_lib/ros/msg.h ****  * LOSS OF USE, DATA, OR PROFITS; OR BUSINESS INTERRUPTION) HOWEVER
  29:./ros_lib/ros/msg.h ****  * CAUSED AND ON ANY THEORY OF LIABILITY, WHETHER IN CONTRACT, STRICT
  30:./ros_lib/ros/msg.h ****  * LIABILITY, OR TORT (INCLUDING NEGLIGENCE OR OTHERWISE) ARISING IN
  31:./ros_lib/ros/msg.h ****  * ANY WAY OUT OF THE USE OF THIS SOFTWARE, EVEN IF ADVISED OF THE
  32:./ros_lib/ros/msg.h ****  * POSSIBILITY OF SUCH DAMAGE.
ARM GAS  C:\DOCUME~1\Chuck\LOCALS~1\Temp\cc1frfi1.s 			page 2


  33:./ros_lib/ros/msg.h ****  */
  34:./ros_lib/ros/msg.h **** 
  35:./ros_lib/ros/msg.h **** #ifndef _ROS_MSG_H_
  36:./ros_lib/ros/msg.h **** #define _ROS_MSG_H_
  37:./ros_lib/ros/msg.h **** 
  38:./ros_lib/ros/msg.h **** #include <stdint.h>
  39:./ros_lib/ros/msg.h **** 
  40:./ros_lib/ros/msg.h **** namespace ros {
  41:./ros_lib/ros/msg.h **** 
  42:./ros_lib/ros/msg.h **** /* Base Message Type */
  43:./ros_lib/ros/msg.h **** class Msg
  26              		.loc 1 43 0
  27              		.cfi_startproc
  28 0000 80B5     		push	{r7, lr}
  29              		.cfi_def_cfa_offset 8
  30              		.cfi_offset 7, -8
  31              		.cfi_offset 14, -4
  32 0002 82B0     		sub	sp, sp, #8
  33              		.cfi_def_cfa_offset 16
  34 0004 00AF     		add	r7, sp, #0
  35              		.cfi_def_cfa_register 7
  36 0006 7860     		str	r0, [r7, #4]
  37              	.LBB2:
  38              		.loc 1 43 0
  39 0008 7B68     		ldr	r3, [r7, #4]
  40 000a 034A     		ldr	r2, .L4
  41 000c 1A60     		str	r2, [r3]
  42              	.LBE2:
  43 000e 7B68     		ldr	r3, [r7, #4]
  44 0010 181C     		mov	r0, r3
  45 0012 BD46     		mov	sp, r7
  46 0014 02B0     		add	sp, sp, #8
  47              		@ sp needed
  48 0016 80BD     		pop	{r7, pc}
  49              	.L5:
  50              		.align	2
  51              	.L4:
  52 0018 08000000 		.word	_ZTVN3ros3MsgE+8
  53              		.cfi_endproc
  54              	.LFE21:
  55              		.size	_ZN3ros3MsgC2Ev, .-_ZN3ros3MsgC2Ev
  56              		.weak	_ZN3ros3MsgC1Ev
  57              		.thumb_set _ZN3ros3MsgC1Ev,_ZN3ros3MsgC2Ev
  58              		.section	.text._ZN3ros9PublisherC2EPKcPNS_3MsgEi,"axG",%progbits,_ZN3ros9PublisherC5EPKcPNS_3MsgEi
  59              		.align	2
  60              		.weak	_ZN3ros9PublisherC2EPKcPNS_3MsgEi
  61              		.code	16
  62              		.thumb_func
  63              		.type	_ZN3ros9PublisherC2EPKcPNS_3MsgEi, %function
  64              	_ZN3ros9PublisherC2EPKcPNS_3MsgEi:
  65              	.LFB58:
  66              		.file 2 "./ros_lib/ros/publisher.h"
   1:./ros_lib/ros/publisher.h **** /* 
   2:./ros_lib/ros/publisher.h ****  * Software License Agreement (BSD License)
   3:./ros_lib/ros/publisher.h ****  *
   4:./ros_lib/ros/publisher.h ****  * Copyright (c) 2011, Willow Garage, Inc.
   5:./ros_lib/ros/publisher.h ****  * All rights reserved.
ARM GAS  C:\DOCUME~1\Chuck\LOCALS~1\Temp\cc1frfi1.s 			page 3


   6:./ros_lib/ros/publisher.h ****  *
   7:./ros_lib/ros/publisher.h ****  * Redistribution and use in source and binary forms, with or without
   8:./ros_lib/ros/publisher.h ****  * modification, are permitted provided that the following conditions
   9:./ros_lib/ros/publisher.h ****  * are met:
  10:./ros_lib/ros/publisher.h ****  *
  11:./ros_lib/ros/publisher.h ****  *  * Redistributions of source code must retain the above copyright
  12:./ros_lib/ros/publisher.h ****  *    notice, this list of conditions and the following disclaimer.
  13:./ros_lib/ros/publisher.h ****  *  * Redistributions in binary form must reproduce the above
  14:./ros_lib/ros/publisher.h ****  *    copyright notice, this list of conditions and the following
  15:./ros_lib/ros/publisher.h ****  *    disclaimer in the documentation and/or other materials provided
  16:./ros_lib/ros/publisher.h ****  *    with the distribution.
  17:./ros_lib/ros/publisher.h ****  *  * Neither the name of Willow Garage, Inc. nor the names of its
  18:./ros_lib/ros/publisher.h ****  *    contributors may be used to endorse or promote prducts derived
  19:./ros_lib/ros/publisher.h ****  *    from this software without specific prior written permission.
  20:./ros_lib/ros/publisher.h ****  *
  21:./ros_lib/ros/publisher.h ****  * THIS SOFTWARE IS PROVIDED BY THE COPYRIGHT HOLDERS AND CONTRIBUTORS
  22:./ros_lib/ros/publisher.h ****  * "AS IS" AND ANY EXPRESS OR IMPLIED WARRANTIES, INCLUDING, BUT NOT
  23:./ros_lib/ros/publisher.h ****  * LIMITED TO, THE IMPLIED WARRANTIES OF MERCHANTABILITY AND FITNESS
  24:./ros_lib/ros/publisher.h ****  * FOR A PARTICULAR PURPOSE ARE DISCLAIMED. IN NO EVENT SHALL THE
  25:./ros_lib/ros/publisher.h ****  * COPYRIGHT OWNER OR CONTRIBUTORS BE LIABLE FOR ANY DIRECT, INDIRECT,
  26:./ros_lib/ros/publisher.h ****  * INCIDENTAL, SPECIAL, EXEMPLARY, OR CONSEQUENTIAL DAMAGES (INCLUDING,
  27:./ros_lib/ros/publisher.h ****  * BUT NOT LIMITED TO, PROCUREMENT OF SUBSTITUTE GOODS OR SERVICES;
  28:./ros_lib/ros/publisher.h ****  * LOSS OF USE, DATA, OR PROFITS; OR BUSINESS INTERRUPTION) HOWEVER
  29:./ros_lib/ros/publisher.h ****  * CAUSED AND ON ANY THEORY OF LIABILITY, WHETHER IN CONTRACT, STRICT
  30:./ros_lib/ros/publisher.h ****  * LIABILITY, OR TORT (INCLUDING NEGLIGENCE OR OTHERWISE) ARISING IN
  31:./ros_lib/ros/publisher.h ****  * ANY WAY OUT OF THE USE OF THIS SOFTWARE, EVEN IF ADVISED OF THE
  32:./ros_lib/ros/publisher.h ****  * POSSIBILITY OF SUCH DAMAGE.
  33:./ros_lib/ros/publisher.h ****  */
  34:./ros_lib/ros/publisher.h **** 
  35:./ros_lib/ros/publisher.h **** #ifndef _ROS_PUBLISHER_H_
  36:./ros_lib/ros/publisher.h **** #define _ROS_PUBLISHER_H_
  37:./ros_lib/ros/publisher.h **** 
  38:./ros_lib/ros/publisher.h **** #include "rosserial_msgs/TopicInfo.h"
  39:./ros_lib/ros/publisher.h **** #include "node_handle.h"
  40:./ros_lib/ros/publisher.h **** 
  41:./ros_lib/ros/publisher.h **** namespace ros {
  42:./ros_lib/ros/publisher.h **** 
  43:./ros_lib/ros/publisher.h ****   /* Generic Publisher */
  44:./ros_lib/ros/publisher.h ****   class Publisher
  45:./ros_lib/ros/publisher.h ****   {
  46:./ros_lib/ros/publisher.h ****     public:
  47:./ros_lib/ros/publisher.h ****       Publisher( const char * topic_name, Msg * msg, int endpoint=rosserial_msgs::TopicInfo::ID_PUB
  67              		.loc 2 47 0
  68              		.cfi_startproc
  69 0000 80B5     		push	{r7, lr}
  70              		.cfi_def_cfa_offset 8
  71              		.cfi_offset 7, -8
  72              		.cfi_offset 14, -4
  73 0002 84B0     		sub	sp, sp, #16
  74              		.cfi_def_cfa_offset 24
  75 0004 00AF     		add	r7, sp, #0
  76              		.cfi_def_cfa_register 7
  77 0006 F860     		str	r0, [r7, #12]
  78 0008 B960     		str	r1, [r7, #8]
  79 000a 7A60     		str	r2, [r7, #4]
  80 000c 3B60     		str	r3, [r7]
  81              	.LBB3:
ARM GAS  C:\DOCUME~1\Chuck\LOCALS~1\Temp\cc1frfi1.s 			page 4


  48:./ros_lib/ros/publisher.h ****         topic_(topic_name), 
  49:./ros_lib/ros/publisher.h ****         msg_(msg),
  50:./ros_lib/ros/publisher.h ****         endpoint_(endpoint) {};
  82              		.loc 2 50 0
  83 000e FB68     		ldr	r3, [r7, #12]
  84 0010 BA68     		ldr	r2, [r7, #8]
  85 0012 1A60     		str	r2, [r3]
  86 0014 FB68     		ldr	r3, [r7, #12]
  87 0016 7A68     		ldr	r2, [r7, #4]
  88 0018 5A60     		str	r2, [r3, #4]
  89 001a FB68     		ldr	r3, [r7, #12]
  90 001c 3A68     		ldr	r2, [r7]
  91 001e 1A61     		str	r2, [r3, #16]
  92              	.LBE3:
  93 0020 FB68     		ldr	r3, [r7, #12]
  94 0022 181C     		mov	r0, r3
  95 0024 BD46     		mov	sp, r7
  96 0026 04B0     		add	sp, sp, #16
  97              		@ sp needed
  98 0028 80BD     		pop	{r7, pc}
  99              		.cfi_endproc
 100              	.LFE58:
 101              		.size	_ZN3ros9PublisherC2EPKcPNS_3MsgEi, .-_ZN3ros9PublisherC2EPKcPNS_3MsgEi
 102              		.weak	_ZN3ros9PublisherC1EPKcPNS_3MsgEi
 103              		.thumb_set _ZN3ros9PublisherC1EPKcPNS_3MsgEi,_ZN3ros9PublisherC2EPKcPNS_3MsgEi
 104 002a C046     		.section	.text._ZN3ros9Publisher7publishEPKNS_3MsgE,"axG",%progbits,_ZN3ros9Publisher7publishEPKNS
 105              		.align	2
 106              		.weak	_ZN3ros9Publisher7publishEPKNS_3MsgE
 107              		.code	16
 108              		.thumb_func
 109              		.type	_ZN3ros9Publisher7publishEPKNS_3MsgE, %function
 110              	_ZN3ros9Publisher7publishEPKNS_3MsgE:
 111              	.LFB60:
  51:./ros_lib/ros/publisher.h ****       // rosserial standard signature
  52:./ros_lib/ros/publisher.h ****       int publish( const Msg * msg ) { return nh_->publish(id_, msg); };
 112              		.loc 2 52 0
 113              		.cfi_startproc
 114 0000 90B5     		push	{r4, r7, lr}
 115              		.cfi_def_cfa_offset 12
 116              		.cfi_offset 4, -12
 117              		.cfi_offset 7, -8
 118              		.cfi_offset 14, -4
 119 0002 83B0     		sub	sp, sp, #12
 120              		.cfi_def_cfa_offset 24
 121 0004 00AF     		add	r7, sp, #0
 122              		.cfi_def_cfa_register 7
 123 0006 7860     		str	r0, [r7, #4]
 124 0008 3960     		str	r1, [r7]
 125              		.loc 2 52 0
 126 000a 7B68     		ldr	r3, [r7, #4]
 127 000c DB68     		ldr	r3, [r3, #12]
 128 000e 1B68     		ldr	r3, [r3]
 129 0010 1C68     		ldr	r4, [r3]
 130 0012 7B68     		ldr	r3, [r7, #4]
 131 0014 D968     		ldr	r1, [r3, #12]
 132 0016 7B68     		ldr	r3, [r7, #4]
 133 0018 9A68     		ldr	r2, [r3, #8]
ARM GAS  C:\DOCUME~1\Chuck\LOCALS~1\Temp\cc1frfi1.s 			page 5


 134 001a 3B68     		ldr	r3, [r7]
 135 001c 081C     		mov	r0, r1
 136 001e 111C     		mov	r1, r2
 137 0020 1A1C     		mov	r2, r3
 138 0022 A047     		blx	r4
 139 0024 031C     		mov	r3, r0
 140 0026 181C     		mov	r0, r3
 141 0028 BD46     		mov	sp, r7
 142 002a 03B0     		add	sp, sp, #12
 143              		@ sp needed
 144 002c 90BD     		pop	{r4, r7, pc}
 145              		.cfi_endproc
 146              	.LFE60:
 147              		.size	_ZN3ros9Publisher7publishEPKNS_3MsgE, .-_ZN3ros9Publisher7publishEPKNS_3MsgE
 148 002e C046     		.section	.text._ZN8SysTimer6millisEv,"axG",%progbits,_ZN8SysTimer6millisEv,comdat
 149              		.align	2
 150              		.weak	_ZN8SysTimer6millisEv
 151              		.code	16
 152              		.thumb_func
 153              		.type	_ZN8SysTimer6millisEv, %function
 154              	_ZN8SysTimer6millisEv:
 155              	.LFB109:
 156              		.file 3 "./ros_lib/SysTimer.h"
   1:./ros_lib/SysTimer.h **** /* ========================================
   2:./ros_lib/SysTimer.h ****  *
   3:./ros_lib/SysTimer.h ****  * The following firmware was developed by Chuck Harrison
   4:./ros_lib/SysTimer.h ****  * This work is licensed under a Creative Commons Attribution 3.0 Unported License.
   5:./ros_lib/SysTimer.h ****  * 
   6:./ros_lib/SysTimer.h ****  * http://creativecommons.org/licenses/by/3.0/deed.en_US
   7:./ros_lib/SysTimer.h ****  * 
   8:./ros_lib/SysTimer.h ****  * You are free to:
   9:./ros_lib/SysTimer.h ****  * -To Share — to copy, distribute and transmit the work 
  10:./ros_lib/SysTimer.h ****  * -To Remix — to adapt the work 
  11:./ros_lib/SysTimer.h ****  * -To make commercial use of the work
  12:./ros_lib/SysTimer.h ****  *
  13:./ros_lib/SysTimer.h ****  * ========================================
  14:./ros_lib/SysTimer.h ****  */
  15:./ros_lib/SysTimer.h **** 
  16:./ros_lib/SysTimer.h **** #ifndef ROS_SYSTIMER_H_
  17:./ros_lib/SysTimer.h **** #define ROS_SYSTIMER_H_
  18:./ros_lib/SysTimer.h **** 
  19:./ros_lib/SysTimer.h **** typedef void (* cyisraddress)(void); // should we #include the whole cytypes.h?
  20:./ros_lib/SysTimer.h **** #define CY_ISR(FuncName)        void FuncName (void)
  21:./ros_lib/SysTimer.h **** 
  22:./ros_lib/SysTimer.h **** extern "C" {
  23:./ros_lib/SysTimer.h **** cyisraddress CyIntSetSysVector(uint8_t number, cyisraddress address);
  24:./ros_lib/SysTimer.h **** }
  25:./ros_lib/SysTimer.h **** 
  26:./ros_lib/SysTimer.h **** CY_ISR(SysTick_ISR); //forward declaration for SysTimer::init()
  27:./ros_lib/SysTimer.h **** 
  28:./ros_lib/SysTimer.h **** #define SYSTICK_INTERRUPT_VECTOR_NUMBER 15u /* Cortex-M0 hard vector */
  29:./ros_lib/SysTimer.h **** 
  30:./ros_lib/SysTimer.h **** /* clock and interrupt rates, in Hz */
  31:./ros_lib/SysTimer.h **** #define CLOCK_FREQ     24000000u
  32:./ros_lib/SysTimer.h **** #define INTERRUPT_FREQ 1000u
  33:./ros_lib/SysTimer.h **** 
  34:./ros_lib/SysTimer.h **** 
ARM GAS  C:\DOCUME~1\Chuck\LOCALS~1\Temp\cc1frfi1.s 			page 6


  35:./ros_lib/SysTimer.h **** class SysTimer
  36:./ros_lib/SysTimer.h **** {
  37:./ros_lib/SysTimer.h ****   public:
  38:./ros_lib/SysTimer.h ****     static void init() {
  39:./ros_lib/SysTimer.h ****       CyIntSetSysVector(SYSTICK_INTERRUPT_VECTOR_NUMBER, SysTick_ISR);
  40:./ros_lib/SysTimer.h ****       // must eventually do this:
  41:./ros_lib/SysTimer.h ****       //  SysTick_Config(CLOCK_FREQ / INTERRUPT_FREQ); /* defined in auto-generated core_cm0.h */
  42:./ros_lib/SysTimer.h ****       //  CyGlobalIntEnable;
  43:./ros_lib/SysTimer.h ****       millis_ = 0;
  44:./ros_lib/SysTimer.h ****     };
  45:./ros_lib/SysTimer.h ****     static uint32_t millis() { return millis_; };
 157              		.loc 3 45 0
 158              		.cfi_startproc
 159 0000 80B5     		push	{r7, lr}
 160              		.cfi_def_cfa_offset 8
 161              		.cfi_offset 7, -8
 162              		.cfi_offset 14, -4
 163 0002 00AF     		add	r7, sp, #0
 164              		.cfi_def_cfa_register 7
 165              		.loc 3 45 0
 166 0004 024B     		ldr	r3, .L13
 167 0006 1B68     		ldr	r3, [r3]
 168 0008 181C     		mov	r0, r3
 169 000a BD46     		mov	sp, r7
 170              		@ sp needed
 171 000c 80BD     		pop	{r7, pc}
 172              	.L14:
 173 000e C046     		.align	2
 174              	.L13:
 175 0010 00000000 		.word	_ZN8SysTimer7millis_E
 176              		.cfi_endproc
 177              	.LFE109:
 178              		.size	_ZN8SysTimer6millisEv, .-_ZN8SysTimer6millisEv
 179              		.section	.text._ZN8std_msgs5Int32C2Ev,"axG",%progbits,_ZN8std_msgs5Int32C5Ev,comdat
 180              		.align	2
 181              		.weak	_ZN8std_msgs5Int32C2Ev
 182              		.code	16
 183              		.thumb_func
 184              		.type	_ZN8std_msgs5Int32C2Ev, %function
 185              	_ZN8std_msgs5Int32C2Ev:
 186              	.LFB126:
 187              		.file 4 "./ros_lib/std_msgs/Int32.h"
   1:./ros_lib/std_msgs/Int32.h **** #ifndef _ROS_std_msgs_Int32_h
   2:./ros_lib/std_msgs/Int32.h **** #define _ROS_std_msgs_Int32_h
   3:./ros_lib/std_msgs/Int32.h **** 
   4:./ros_lib/std_msgs/Int32.h **** #include <stdint.h>
   5:./ros_lib/std_msgs/Int32.h **** #include <string.h>
   6:./ros_lib/std_msgs/Int32.h **** #include <stdlib.h>
   7:./ros_lib/std_msgs/Int32.h **** #include "ros/msg.h"
   8:./ros_lib/std_msgs/Int32.h **** 
   9:./ros_lib/std_msgs/Int32.h **** namespace std_msgs
  10:./ros_lib/std_msgs/Int32.h **** {
  11:./ros_lib/std_msgs/Int32.h **** 
  12:./ros_lib/std_msgs/Int32.h ****   class Int32 : public ros::Msg
  13:./ros_lib/std_msgs/Int32.h ****   {
  14:./ros_lib/std_msgs/Int32.h ****     public:
  15:./ros_lib/std_msgs/Int32.h ****       int32_t data;
ARM GAS  C:\DOCUME~1\Chuck\LOCALS~1\Temp\cc1frfi1.s 			page 7


  16:./ros_lib/std_msgs/Int32.h **** 
  17:./ros_lib/std_msgs/Int32.h ****     Int32():
 188              		.loc 4 17 0
 189              		.cfi_startproc
 190 0000 80B5     		push	{r7, lr}
 191              		.cfi_def_cfa_offset 8
 192              		.cfi_offset 7, -8
 193              		.cfi_offset 14, -4
 194 0002 82B0     		sub	sp, sp, #8
 195              		.cfi_def_cfa_offset 16
 196 0004 00AF     		add	r7, sp, #0
 197              		.cfi_def_cfa_register 7
 198 0006 7860     		str	r0, [r7, #4]
 199              	.LBB4:
  18:./ros_lib/std_msgs/Int32.h ****       data(0)
 200              		.loc 4 18 0
 201 0008 7B68     		ldr	r3, [r7, #4]
 202 000a 181C     		mov	r0, r3
 203 000c FFF7FEFF 		bl	_ZN3ros3MsgC2Ev
 204 0010 7B68     		ldr	r3, [r7, #4]
 205 0012 054A     		ldr	r2, .L18
 206 0014 1A60     		str	r2, [r3]
 207 0016 7B68     		ldr	r3, [r7, #4]
 208 0018 0022     		mov	r2, #0
 209 001a 5A60     		str	r2, [r3, #4]
 210              	.LBE4:
  19:./ros_lib/std_msgs/Int32.h ****     {
  20:./ros_lib/std_msgs/Int32.h ****     }
 211              		.loc 4 20 0
 212 001c 7B68     		ldr	r3, [r7, #4]
 213 001e 181C     		mov	r0, r3
 214 0020 BD46     		mov	sp, r7
 215 0022 02B0     		add	sp, sp, #8
 216              		@ sp needed
 217 0024 80BD     		pop	{r7, pc}
 218              	.L19:
 219 0026 C046     		.align	2
 220              	.L18:
 221 0028 08000000 		.word	_ZTVN8std_msgs5Int32E+8
 222              		.cfi_endproc
 223              	.LFE126:
 224              		.size	_ZN8std_msgs5Int32C2Ev, .-_ZN8std_msgs5Int32C2Ev
 225              		.weak	_ZN8std_msgs5Int32C1Ev
 226              		.thumb_set _ZN8std_msgs5Int32C1Ev,_ZN8std_msgs5Int32C2Ev
 227              		.section	.text._ZNK8std_msgs5Int329serializeEPh,"axG",%progbits,_ZNK8std_msgs5Int329serializeEPh,c
 228              		.align	2
 229              		.weak	_ZNK8std_msgs5Int329serializeEPh
 230              		.code	16
 231              		.thumb_func
 232              		.type	_ZNK8std_msgs5Int329serializeEPh, %function
 233              	_ZNK8std_msgs5Int329serializeEPh:
 234              	.LFB128:
  21:./ros_lib/std_msgs/Int32.h **** 
  22:./ros_lib/std_msgs/Int32.h ****     virtual int serialize(unsigned char *outbuffer) const
 235              		.loc 4 22 0
 236              		.cfi_startproc
 237 0000 80B5     		push	{r7, lr}
ARM GAS  C:\DOCUME~1\Chuck\LOCALS~1\Temp\cc1frfi1.s 			page 8


 238              		.cfi_def_cfa_offset 8
 239              		.cfi_offset 7, -8
 240              		.cfi_offset 14, -4
 241 0002 84B0     		sub	sp, sp, #16
 242              		.cfi_def_cfa_offset 24
 243 0004 00AF     		add	r7, sp, #0
 244              		.cfi_def_cfa_register 7
 245 0006 7860     		str	r0, [r7, #4]
 246 0008 3960     		str	r1, [r7]
 247              	.LBB5:
  23:./ros_lib/std_msgs/Int32.h ****     {
  24:./ros_lib/std_msgs/Int32.h ****       int offset = 0;
 248              		.loc 4 24 0
 249 000a 0023     		mov	r3, #0
 250 000c FB60     		str	r3, [r7, #12]
  25:./ros_lib/std_msgs/Int32.h **** #ifndef ROS_MSG_DONT_SERIALIZE
  26:./ros_lib/std_msgs/Int32.h ****       union {
  27:./ros_lib/std_msgs/Int32.h ****         int32_t real;
  28:./ros_lib/std_msgs/Int32.h ****         uint32_t base;
  29:./ros_lib/std_msgs/Int32.h ****       } u_data;
  30:./ros_lib/std_msgs/Int32.h ****       u_data.real = this->data;
 251              		.loc 4 30 0
 252 000e 7B68     		ldr	r3, [r7, #4]
 253 0010 5B68     		ldr	r3, [r3, #4]
 254 0012 BB60     		str	r3, [r7, #8]
  31:./ros_lib/std_msgs/Int32.h ****       *(outbuffer + offset + 0) = (u_data.base >> (8 * 0)) & 0xFF;
 255              		.loc 4 31 0
 256 0014 FB68     		ldr	r3, [r7, #12]
 257 0016 3A68     		ldr	r2, [r7]
 258 0018 D318     		add	r3, r2, r3
 259 001a BA68     		ldr	r2, [r7, #8]
 260 001c D2B2     		uxtb	r2, r2
 261 001e 1A70     		strb	r2, [r3]
  32:./ros_lib/std_msgs/Int32.h ****       *(outbuffer + offset + 1) = (u_data.base >> (8 * 1)) & 0xFF;
 262              		.loc 4 32 0
 263 0020 FB68     		ldr	r3, [r7, #12]
 264 0022 0133     		add	r3, r3, #1
 265 0024 3A68     		ldr	r2, [r7]
 266 0026 D318     		add	r3, r2, r3
 267 0028 BA68     		ldr	r2, [r7, #8]
 268 002a 120A     		lsr	r2, r2, #8
 269 002c D2B2     		uxtb	r2, r2
 270 002e 1A70     		strb	r2, [r3]
  33:./ros_lib/std_msgs/Int32.h ****       *(outbuffer + offset + 2) = (u_data.base >> (8 * 2)) & 0xFF;
 271              		.loc 4 33 0
 272 0030 FB68     		ldr	r3, [r7, #12]
 273 0032 0233     		add	r3, r3, #2
 274 0034 3A68     		ldr	r2, [r7]
 275 0036 D318     		add	r3, r2, r3
 276 0038 BA68     		ldr	r2, [r7, #8]
 277 003a 120C     		lsr	r2, r2, #16
 278 003c D2B2     		uxtb	r2, r2
 279 003e 1A70     		strb	r2, [r3]
  34:./ros_lib/std_msgs/Int32.h ****       *(outbuffer + offset + 3) = (u_data.base >> (8 * 3)) & 0xFF;
 280              		.loc 4 34 0
 281 0040 FB68     		ldr	r3, [r7, #12]
 282 0042 0333     		add	r3, r3, #3
ARM GAS  C:\DOCUME~1\Chuck\LOCALS~1\Temp\cc1frfi1.s 			page 9


 283 0044 3A68     		ldr	r2, [r7]
 284 0046 D318     		add	r3, r2, r3
 285 0048 BA68     		ldr	r2, [r7, #8]
 286 004a 120E     		lsr	r2, r2, #24
 287 004c D2B2     		uxtb	r2, r2
 288 004e 1A70     		strb	r2, [r3]
  35:./ros_lib/std_msgs/Int32.h ****       offset += sizeof(this->data);
 289              		.loc 4 35 0
 290 0050 FB68     		ldr	r3, [r7, #12]
 291 0052 0433     		add	r3, r3, #4
 292 0054 FB60     		str	r3, [r7, #12]
  36:./ros_lib/std_msgs/Int32.h **** #endif
  37:./ros_lib/std_msgs/Int32.h ****       return offset;
 293              		.loc 4 37 0
 294 0056 FB68     		ldr	r3, [r7, #12]
 295              	.LBE5:
  38:./ros_lib/std_msgs/Int32.h ****     }
 296              		.loc 4 38 0
 297 0058 181C     		mov	r0, r3
 298 005a BD46     		mov	sp, r7
 299 005c 04B0     		add	sp, sp, #16
 300              		@ sp needed
 301 005e 80BD     		pop	{r7, pc}
 302              		.cfi_endproc
 303              	.LFE128:
 304              		.size	_ZNK8std_msgs5Int329serializeEPh, .-_ZNK8std_msgs5Int329serializeEPh
 305              		.section	.text._ZN8std_msgs5Int3211deserializeEPh,"axG",%progbits,_ZN8std_msgs5Int3211deserializeE
 306              		.align	2
 307              		.weak	_ZN8std_msgs5Int3211deserializeEPh
 308              		.code	16
 309              		.thumb_func
 310              		.type	_ZN8std_msgs5Int3211deserializeEPh, %function
 311              	_ZN8std_msgs5Int3211deserializeEPh:
 312              	.LFB129:
  39:./ros_lib/std_msgs/Int32.h **** 
  40:./ros_lib/std_msgs/Int32.h ****     virtual int deserialize(unsigned char *inbuffer)
 313              		.loc 4 40 0
 314              		.cfi_startproc
 315 0000 80B5     		push	{r7, lr}
 316              		.cfi_def_cfa_offset 8
 317              		.cfi_offset 7, -8
 318              		.cfi_offset 14, -4
 319 0002 84B0     		sub	sp, sp, #16
 320              		.cfi_def_cfa_offset 24
 321 0004 00AF     		add	r7, sp, #0
 322              		.cfi_def_cfa_register 7
 323 0006 7860     		str	r0, [r7, #4]
 324 0008 3960     		str	r1, [r7]
 325              	.LBB6:
  41:./ros_lib/std_msgs/Int32.h ****     {
  42:./ros_lib/std_msgs/Int32.h ****       int offset = 0;
 326              		.loc 4 42 0
 327 000a 0023     		mov	r3, #0
 328 000c FB60     		str	r3, [r7, #12]
  43:./ros_lib/std_msgs/Int32.h **** #ifndef ROS_MSG_DONT_DESERIALIZE
  44:./ros_lib/std_msgs/Int32.h ****       union {
  45:./ros_lib/std_msgs/Int32.h ****         int32_t real;
ARM GAS  C:\DOCUME~1\Chuck\LOCALS~1\Temp\cc1frfi1.s 			page 10


  46:./ros_lib/std_msgs/Int32.h ****         uint32_t base;
  47:./ros_lib/std_msgs/Int32.h ****       } u_data;
  48:./ros_lib/std_msgs/Int32.h ****       u_data.base = 0;
 329              		.loc 4 48 0
 330 000e 0023     		mov	r3, #0
 331 0010 BB60     		str	r3, [r7, #8]
  49:./ros_lib/std_msgs/Int32.h ****       u_data.base |= ((uint32_t) (*(inbuffer + offset + 0))) << (8 * 0);
 332              		.loc 4 49 0
 333 0012 BA68     		ldr	r2, [r7, #8]
 334 0014 FB68     		ldr	r3, [r7, #12]
 335 0016 3968     		ldr	r1, [r7]
 336 0018 CB18     		add	r3, r1, r3
 337 001a 1B78     		ldrb	r3, [r3]
 338 001c 1343     		orr	r3, r2
 339 001e BB60     		str	r3, [r7, #8]
  50:./ros_lib/std_msgs/Int32.h ****       u_data.base |= ((uint32_t) (*(inbuffer + offset + 1))) << (8 * 1);
 340              		.loc 4 50 0
 341 0020 BA68     		ldr	r2, [r7, #8]
 342 0022 FB68     		ldr	r3, [r7, #12]
 343 0024 0133     		add	r3, r3, #1
 344 0026 3968     		ldr	r1, [r7]
 345 0028 CB18     		add	r3, r1, r3
 346 002a 1B78     		ldrb	r3, [r3]
 347 002c 1B02     		lsl	r3, r3, #8
 348 002e 1343     		orr	r3, r2
 349 0030 BB60     		str	r3, [r7, #8]
  51:./ros_lib/std_msgs/Int32.h ****       u_data.base |= ((uint32_t) (*(inbuffer + offset + 2))) << (8 * 2);
 350              		.loc 4 51 0
 351 0032 BA68     		ldr	r2, [r7, #8]
 352 0034 FB68     		ldr	r3, [r7, #12]
 353 0036 0233     		add	r3, r3, #2
 354 0038 3968     		ldr	r1, [r7]
 355 003a CB18     		add	r3, r1, r3
 356 003c 1B78     		ldrb	r3, [r3]
 357 003e 1B04     		lsl	r3, r3, #16
 358 0040 1343     		orr	r3, r2
 359 0042 BB60     		str	r3, [r7, #8]
  52:./ros_lib/std_msgs/Int32.h ****       u_data.base |= ((uint32_t) (*(inbuffer + offset + 3))) << (8 * 3);
 360              		.loc 4 52 0
 361 0044 BA68     		ldr	r2, [r7, #8]
 362 0046 FB68     		ldr	r3, [r7, #12]
 363 0048 0333     		add	r3, r3, #3
 364 004a 3968     		ldr	r1, [r7]
 365 004c CB18     		add	r3, r1, r3
 366 004e 1B78     		ldrb	r3, [r3]
 367 0050 1B06     		lsl	r3, r3, #24
 368 0052 1343     		orr	r3, r2
 369 0054 BB60     		str	r3, [r7, #8]
  53:./ros_lib/std_msgs/Int32.h ****       this->data = u_data.real;
 370              		.loc 4 53 0
 371 0056 BA68     		ldr	r2, [r7, #8]
 372 0058 7B68     		ldr	r3, [r7, #4]
 373 005a 5A60     		str	r2, [r3, #4]
  54:./ros_lib/std_msgs/Int32.h ****       offset += sizeof(this->data);
 374              		.loc 4 54 0
 375 005c FB68     		ldr	r3, [r7, #12]
 376 005e 0433     		add	r3, r3, #4
ARM GAS  C:\DOCUME~1\Chuck\LOCALS~1\Temp\cc1frfi1.s 			page 11


 377 0060 FB60     		str	r3, [r7, #12]
  55:./ros_lib/std_msgs/Int32.h **** #endif
  56:./ros_lib/std_msgs/Int32.h ****      return offset;
 378              		.loc 4 56 0
 379 0062 FB68     		ldr	r3, [r7, #12]
 380              	.LBE6:
  57:./ros_lib/std_msgs/Int32.h ****     }
 381              		.loc 4 57 0
 382 0064 181C     		mov	r0, r3
 383 0066 BD46     		mov	sp, r7
 384 0068 04B0     		add	sp, sp, #16
 385              		@ sp needed
 386 006a 80BD     		pop	{r7, pc}
 387              		.cfi_endproc
 388              	.LFE129:
 389              		.size	_ZN8std_msgs5Int3211deserializeEPh, .-_ZN8std_msgs5Int3211deserializeEPh
 390              		.section	.rodata
 391              		.align	2
 392              	.LC3:
 393 0000 7374645F 		.ascii	"std_msgs/Int32\000"
 393      6D736773 
 393      2F496E74 
 393      333200
 394              		.section	.text._ZN8std_msgs5Int327getTypeEv,"axG",%progbits,_ZN8std_msgs5Int327getTypeEv,comdat
 395              		.align	2
 396              		.weak	_ZN8std_msgs5Int327getTypeEv
 397              		.code	16
 398              		.thumb_func
 399              		.type	_ZN8std_msgs5Int327getTypeEv, %function
 400              	_ZN8std_msgs5Int327getTypeEv:
 401              	.LFB130:
  58:./ros_lib/std_msgs/Int32.h **** 
  59:./ros_lib/std_msgs/Int32.h ****     const char * getType(){ return "std_msgs/Int32"; };
 402              		.loc 4 59 0
 403              		.cfi_startproc
 404 0000 80B5     		push	{r7, lr}
 405              		.cfi_def_cfa_offset 8
 406              		.cfi_offset 7, -8
 407              		.cfi_offset 14, -4
 408 0002 82B0     		sub	sp, sp, #8
 409              		.cfi_def_cfa_offset 16
 410 0004 00AF     		add	r7, sp, #0
 411              		.cfi_def_cfa_register 7
 412 0006 7860     		str	r0, [r7, #4]
 413              		.loc 4 59 0
 414 0008 024B     		ldr	r3, .L26
 415 000a 181C     		mov	r0, r3
 416 000c BD46     		mov	sp, r7
 417 000e 02B0     		add	sp, sp, #8
 418              		@ sp needed
 419 0010 80BD     		pop	{r7, pc}
 420              	.L27:
 421 0012 C046     		.align	2
 422              	.L26:
 423 0014 00000000 		.word	.LC3
 424              		.cfi_endproc
 425              	.LFE130:
ARM GAS  C:\DOCUME~1\Chuck\LOCALS~1\Temp\cc1frfi1.s 			page 12


 426              		.size	_ZN8std_msgs5Int327getTypeEv, .-_ZN8std_msgs5Int327getTypeEv
 427              		.section	.rodata
 428 000f 00       		.align	2
 429              	.LC5:
 430 0010 64613539 		.ascii	"da5909fbe378aeaf85e547e830cc1bb7\000"
 430      30396662 
 430      65333738 
 430      61656166 
 430      38356535 
 431              		.section	.text._ZN8std_msgs5Int326getMD5Ev,"axG",%progbits,_ZN8std_msgs5Int326getMD5Ev,comdat
 432              		.align	2
 433              		.weak	_ZN8std_msgs5Int326getMD5Ev
 434              		.code	16
 435              		.thumb_func
 436              		.type	_ZN8std_msgs5Int326getMD5Ev, %function
 437              	_ZN8std_msgs5Int326getMD5Ev:
 438              	.LFB131:
  60:./ros_lib/std_msgs/Int32.h ****     const char * getMD5(){ return "da5909fbe378aeaf85e547e830cc1bb7"; };
 439              		.loc 4 60 0
 440              		.cfi_startproc
 441 0000 80B5     		push	{r7, lr}
 442              		.cfi_def_cfa_offset 8
 443              		.cfi_offset 7, -8
 444              		.cfi_offset 14, -4
 445 0002 82B0     		sub	sp, sp, #8
 446              		.cfi_def_cfa_offset 16
 447 0004 00AF     		add	r7, sp, #0
 448              		.cfi_def_cfa_register 7
 449 0006 7860     		str	r0, [r7, #4]
 450              		.loc 4 60 0
 451 0008 024B     		ldr	r3, .L30
 452 000a 181C     		mov	r0, r3
 453 000c BD46     		mov	sp, r7
 454 000e 02B0     		add	sp, sp, #8
 455              		@ sp needed
 456 0010 80BD     		pop	{r7, pc}
 457              	.L31:
 458 0012 C046     		.align	2
 459              	.L30:
 460 0014 10000000 		.word	.LC5
 461              		.cfi_endproc
 462              	.LFE131:
 463              		.size	_ZN8std_msgs5Int326getMD5Ev, .-_ZN8std_msgs5Int326getMD5Ev
 464              		.section	.text._ZN8std_msgs5Int16C2Ev,"axG",%progbits,_ZN8std_msgs5Int16C5Ev,comdat
 465              		.align	2
 466              		.weak	_ZN8std_msgs5Int16C2Ev
 467              		.code	16
 468              		.thumb_func
 469              		.type	_ZN8std_msgs5Int16C2Ev, %function
 470              	_ZN8std_msgs5Int16C2Ev:
 471              	.LFB133:
 472              		.file 5 "./ros_lib/std_msgs/Int16.h"
   1:./ros_lib/std_msgs/Int16.h **** #ifndef _ROS_std_msgs_Int16_h
   2:./ros_lib/std_msgs/Int16.h **** #define _ROS_std_msgs_Int16_h
   3:./ros_lib/std_msgs/Int16.h **** 
   4:./ros_lib/std_msgs/Int16.h **** #include <stdint.h>
   5:./ros_lib/std_msgs/Int16.h **** #include <string.h>
ARM GAS  C:\DOCUME~1\Chuck\LOCALS~1\Temp\cc1frfi1.s 			page 13


   6:./ros_lib/std_msgs/Int16.h **** #include <stdlib.h>
   7:./ros_lib/std_msgs/Int16.h **** #include "ros/msg.h"
   8:./ros_lib/std_msgs/Int16.h **** 
   9:./ros_lib/std_msgs/Int16.h **** namespace std_msgs
  10:./ros_lib/std_msgs/Int16.h **** {
  11:./ros_lib/std_msgs/Int16.h **** 
  12:./ros_lib/std_msgs/Int16.h ****   class Int16 : public ros::Msg
  13:./ros_lib/std_msgs/Int16.h ****   {
  14:./ros_lib/std_msgs/Int16.h ****     public:
  15:./ros_lib/std_msgs/Int16.h ****       int16_t data;
  16:./ros_lib/std_msgs/Int16.h **** 
  17:./ros_lib/std_msgs/Int16.h ****     Int16():
 473              		.loc 5 17 0
 474              		.cfi_startproc
 475 0000 80B5     		push	{r7, lr}
 476              		.cfi_def_cfa_offset 8
 477              		.cfi_offset 7, -8
 478              		.cfi_offset 14, -4
 479 0002 82B0     		sub	sp, sp, #8
 480              		.cfi_def_cfa_offset 16
 481 0004 00AF     		add	r7, sp, #0
 482              		.cfi_def_cfa_register 7
 483 0006 7860     		str	r0, [r7, #4]
 484              	.LBB7:
  18:./ros_lib/std_msgs/Int16.h ****       data(0)
 485              		.loc 5 18 0
 486 0008 7B68     		ldr	r3, [r7, #4]
 487 000a 181C     		mov	r0, r3
 488 000c FFF7FEFF 		bl	_ZN3ros3MsgC2Ev
 489 0010 7B68     		ldr	r3, [r7, #4]
 490 0012 054A     		ldr	r2, .L35
 491 0014 1A60     		str	r2, [r3]
 492 0016 7B68     		ldr	r3, [r7, #4]
 493 0018 0022     		mov	r2, #0
 494 001a 9A80     		strh	r2, [r3, #4]
 495              	.LBE7:
  19:./ros_lib/std_msgs/Int16.h ****     {
  20:./ros_lib/std_msgs/Int16.h ****     }
 496              		.loc 5 20 0
 497 001c 7B68     		ldr	r3, [r7, #4]
 498 001e 181C     		mov	r0, r3
 499 0020 BD46     		mov	sp, r7
 500 0022 02B0     		add	sp, sp, #8
 501              		@ sp needed
 502 0024 80BD     		pop	{r7, pc}
 503              	.L36:
 504 0026 C046     		.align	2
 505              	.L35:
 506 0028 08000000 		.word	_ZTVN8std_msgs5Int16E+8
 507              		.cfi_endproc
 508              	.LFE133:
 509              		.size	_ZN8std_msgs5Int16C2Ev, .-_ZN8std_msgs5Int16C2Ev
 510              		.weak	_ZN8std_msgs5Int16C1Ev
 511              		.thumb_set _ZN8std_msgs5Int16C1Ev,_ZN8std_msgs5Int16C2Ev
 512              		.section	.text._ZNK8std_msgs5Int169serializeEPh,"axG",%progbits,_ZNK8std_msgs5Int169serializeEPh,c
 513              		.align	2
 514              		.weak	_ZNK8std_msgs5Int169serializeEPh
ARM GAS  C:\DOCUME~1\Chuck\LOCALS~1\Temp\cc1frfi1.s 			page 14


 515              		.code	16
 516              		.thumb_func
 517              		.type	_ZNK8std_msgs5Int169serializeEPh, %function
 518              	_ZNK8std_msgs5Int169serializeEPh:
 519              	.LFB135:
  21:./ros_lib/std_msgs/Int16.h **** 
  22:./ros_lib/std_msgs/Int16.h ****     virtual int serialize(unsigned char *outbuffer) const
 520              		.loc 5 22 0
 521              		.cfi_startproc
 522 0000 80B5     		push	{r7, lr}
 523              		.cfi_def_cfa_offset 8
 524              		.cfi_offset 7, -8
 525              		.cfi_offset 14, -4
 526 0002 84B0     		sub	sp, sp, #16
 527              		.cfi_def_cfa_offset 24
 528 0004 00AF     		add	r7, sp, #0
 529              		.cfi_def_cfa_register 7
 530 0006 7860     		str	r0, [r7, #4]
 531 0008 3960     		str	r1, [r7]
 532              	.LBB8:
  23:./ros_lib/std_msgs/Int16.h ****     {
  24:./ros_lib/std_msgs/Int16.h ****       int offset = 0;
 533              		.loc 5 24 0
 534 000a 0023     		mov	r3, #0
 535 000c FB60     		str	r3, [r7, #12]
  25:./ros_lib/std_msgs/Int16.h **** #ifndef ROS_MSG_DONT_SERIALIZE
  26:./ros_lib/std_msgs/Int16.h ****       union {
  27:./ros_lib/std_msgs/Int16.h ****         int16_t real;
  28:./ros_lib/std_msgs/Int16.h ****         uint16_t base;
  29:./ros_lib/std_msgs/Int16.h ****       } u_data;
  30:./ros_lib/std_msgs/Int16.h ****       u_data.real = this->data;
 536              		.loc 5 30 0
 537 000e 7B68     		ldr	r3, [r7, #4]
 538 0010 9A88     		ldrh	r2, [r3, #4]
 539 0012 3B1C     		mov	r3, r7
 540 0014 0833     		add	r3, r3, #8
 541 0016 1A80     		strh	r2, [r3]
  31:./ros_lib/std_msgs/Int16.h ****       *(outbuffer + offset + 0) = (u_data.base >> (8 * 0)) & 0xFF;
 542              		.loc 5 31 0
 543 0018 FB68     		ldr	r3, [r7, #12]
 544 001a 3A68     		ldr	r2, [r7]
 545 001c D318     		add	r3, r2, r3
 546 001e 3A1C     		mov	r2, r7
 547 0020 0832     		add	r2, r2, #8
 548 0022 1288     		ldrh	r2, [r2]
 549 0024 D2B2     		uxtb	r2, r2
 550 0026 1A70     		strb	r2, [r3]
  32:./ros_lib/std_msgs/Int16.h ****       *(outbuffer + offset + 1) = (u_data.base >> (8 * 1)) & 0xFF;
 551              		.loc 5 32 0
 552 0028 FB68     		ldr	r3, [r7, #12]
 553 002a 0133     		add	r3, r3, #1
 554 002c 3A68     		ldr	r2, [r7]
 555 002e D318     		add	r3, r2, r3
 556 0030 3A1C     		mov	r2, r7
 557 0032 0832     		add	r2, r2, #8
 558 0034 1288     		ldrh	r2, [r2]
 559 0036 120A     		lsr	r2, r2, #8
ARM GAS  C:\DOCUME~1\Chuck\LOCALS~1\Temp\cc1frfi1.s 			page 15


 560 0038 92B2     		uxth	r2, r2
 561 003a D2B2     		uxtb	r2, r2
 562 003c 1A70     		strb	r2, [r3]
  33:./ros_lib/std_msgs/Int16.h ****       offset += sizeof(this->data);
 563              		.loc 5 33 0
 564 003e FB68     		ldr	r3, [r7, #12]
 565 0040 0233     		add	r3, r3, #2
 566 0042 FB60     		str	r3, [r7, #12]
  34:./ros_lib/std_msgs/Int16.h **** #endif
  35:./ros_lib/std_msgs/Int16.h ****       return offset;
 567              		.loc 5 35 0
 568 0044 FB68     		ldr	r3, [r7, #12]
 569              	.LBE8:
  36:./ros_lib/std_msgs/Int16.h ****     }
 570              		.loc 5 36 0
 571 0046 181C     		mov	r0, r3
 572 0048 BD46     		mov	sp, r7
 573 004a 04B0     		add	sp, sp, #16
 574              		@ sp needed
 575 004c 80BD     		pop	{r7, pc}
 576              		.cfi_endproc
 577              	.LFE135:
 578              		.size	_ZNK8std_msgs5Int169serializeEPh, .-_ZNK8std_msgs5Int169serializeEPh
 579 004e C046     		.section	.text._ZN8std_msgs5Int1611deserializeEPh,"axG",%progbits,_ZN8std_msgs5Int1611deserializeE
 580              		.align	2
 581              		.weak	_ZN8std_msgs5Int1611deserializeEPh
 582              		.code	16
 583              		.thumb_func
 584              		.type	_ZN8std_msgs5Int1611deserializeEPh, %function
 585              	_ZN8std_msgs5Int1611deserializeEPh:
 586              	.LFB136:
  37:./ros_lib/std_msgs/Int16.h **** 
  38:./ros_lib/std_msgs/Int16.h ****     virtual int deserialize(unsigned char *inbuffer)
 587              		.loc 5 38 0
 588              		.cfi_startproc
 589 0000 80B5     		push	{r7, lr}
 590              		.cfi_def_cfa_offset 8
 591              		.cfi_offset 7, -8
 592              		.cfi_offset 14, -4
 593 0002 84B0     		sub	sp, sp, #16
 594              		.cfi_def_cfa_offset 24
 595 0004 00AF     		add	r7, sp, #0
 596              		.cfi_def_cfa_register 7
 597 0006 7860     		str	r0, [r7, #4]
 598 0008 3960     		str	r1, [r7]
 599              	.LBB9:
  39:./ros_lib/std_msgs/Int16.h ****     {
  40:./ros_lib/std_msgs/Int16.h ****       int offset = 0;
 600              		.loc 5 40 0
 601 000a 0023     		mov	r3, #0
 602 000c FB60     		str	r3, [r7, #12]
  41:./ros_lib/std_msgs/Int16.h **** #ifndef ROS_MSG_DONT_DESERIALIZE
  42:./ros_lib/std_msgs/Int16.h ****       union {
  43:./ros_lib/std_msgs/Int16.h ****         int16_t real;
  44:./ros_lib/std_msgs/Int16.h ****         uint16_t base;
  45:./ros_lib/std_msgs/Int16.h ****       } u_data;
  46:./ros_lib/std_msgs/Int16.h ****       u_data.base = 0;
ARM GAS  C:\DOCUME~1\Chuck\LOCALS~1\Temp\cc1frfi1.s 			page 16


 603              		.loc 5 46 0
 604 000e 3B1C     		mov	r3, r7
 605 0010 0833     		add	r3, r3, #8
 606 0012 0022     		mov	r2, #0
 607 0014 1A80     		strh	r2, [r3]
  47:./ros_lib/std_msgs/Int16.h ****       u_data.base |= ((uint16_t) (*(inbuffer + offset + 0))) << (8 * 0);
 608              		.loc 5 47 0
 609 0016 3B1C     		mov	r3, r7
 610 0018 0833     		add	r3, r3, #8
 611 001a 1A88     		ldrh	r2, [r3]
 612 001c FB68     		ldr	r3, [r7, #12]
 613 001e 3968     		ldr	r1, [r7]
 614 0020 CB18     		add	r3, r1, r3
 615 0022 1B78     		ldrb	r3, [r3]
 616 0024 1343     		orr	r3, r2
 617 0026 9AB2     		uxth	r2, r3
 618 0028 3B1C     		mov	r3, r7
 619 002a 0833     		add	r3, r3, #8
 620 002c 1A80     		strh	r2, [r3]
  48:./ros_lib/std_msgs/Int16.h ****       u_data.base |= ((uint16_t) (*(inbuffer + offset + 1))) << (8 * 1);
 621              		.loc 5 48 0
 622 002e 3B1C     		mov	r3, r7
 623 0030 0833     		add	r3, r3, #8
 624 0032 1B88     		ldrh	r3, [r3]
 625 0034 9AB2     		uxth	r2, r3
 626 0036 FB68     		ldr	r3, [r7, #12]
 627 0038 0133     		add	r3, r3, #1
 628 003a 3968     		ldr	r1, [r7]
 629 003c CB18     		add	r3, r1, r3
 630 003e 1B78     		ldrb	r3, [r3]
 631 0040 1B02     		lsl	r3, r3, #8
 632 0042 9BB2     		uxth	r3, r3
 633 0044 1343     		orr	r3, r2
 634 0046 9BB2     		uxth	r3, r3
 635 0048 9AB2     		uxth	r2, r3
 636 004a 3B1C     		mov	r3, r7
 637 004c 0833     		add	r3, r3, #8
 638 004e 1A80     		strh	r2, [r3]
  49:./ros_lib/std_msgs/Int16.h ****       this->data = u_data.real;
 639              		.loc 5 49 0
 640 0050 3B1C     		mov	r3, r7
 641 0052 0833     		add	r3, r3, #8
 642 0054 1A88     		ldrh	r2, [r3]
 643 0056 7B68     		ldr	r3, [r7, #4]
 644 0058 9A80     		strh	r2, [r3, #4]
  50:./ros_lib/std_msgs/Int16.h ****       offset += sizeof(this->data);
 645              		.loc 5 50 0
 646 005a FB68     		ldr	r3, [r7, #12]
 647 005c 0233     		add	r3, r3, #2
 648 005e FB60     		str	r3, [r7, #12]
  51:./ros_lib/std_msgs/Int16.h **** #endif
  52:./ros_lib/std_msgs/Int16.h ****      return offset;
 649              		.loc 5 52 0
 650 0060 FB68     		ldr	r3, [r7, #12]
 651              	.LBE9:
  53:./ros_lib/std_msgs/Int16.h ****     }
 652              		.loc 5 53 0
ARM GAS  C:\DOCUME~1\Chuck\LOCALS~1\Temp\cc1frfi1.s 			page 17


 653 0062 181C     		mov	r0, r3
 654 0064 BD46     		mov	sp, r7
 655 0066 04B0     		add	sp, sp, #16
 656              		@ sp needed
 657 0068 80BD     		pop	{r7, pc}
 658              		.cfi_endproc
 659              	.LFE136:
 660              		.size	_ZN8std_msgs5Int1611deserializeEPh, .-_ZN8std_msgs5Int1611deserializeEPh
 661 006a C046     		.section	.rodata
 662 0031 000000   		.align	2
 663              	.LC8:
 664 0034 7374645F 		.ascii	"std_msgs/Int16\000"
 664      6D736773 
 664      2F496E74 
 664      313600
 665              		.section	.text._ZN8std_msgs5Int167getTypeEv,"axG",%progbits,_ZN8std_msgs5Int167getTypeEv,comdat
 666              		.align	2
 667              		.weak	_ZN8std_msgs5Int167getTypeEv
 668              		.code	16
 669              		.thumb_func
 670              		.type	_ZN8std_msgs5Int167getTypeEv, %function
 671              	_ZN8std_msgs5Int167getTypeEv:
 672              	.LFB137:
  54:./ros_lib/std_msgs/Int16.h **** 
  55:./ros_lib/std_msgs/Int16.h ****     const char * getType(){ return "std_msgs/Int16"; };
 673              		.loc 5 55 0
 674              		.cfi_startproc
 675 0000 80B5     		push	{r7, lr}
 676              		.cfi_def_cfa_offset 8
 677              		.cfi_offset 7, -8
 678              		.cfi_offset 14, -4
 679 0002 82B0     		sub	sp, sp, #8
 680              		.cfi_def_cfa_offset 16
 681 0004 00AF     		add	r7, sp, #0
 682              		.cfi_def_cfa_register 7
 683 0006 7860     		str	r0, [r7, #4]
 684              		.loc 5 55 0
 685 0008 024B     		ldr	r3, .L43
 686 000a 181C     		mov	r0, r3
 687 000c BD46     		mov	sp, r7
 688 000e 02B0     		add	sp, sp, #8
 689              		@ sp needed
 690 0010 80BD     		pop	{r7, pc}
 691              	.L44:
 692 0012 C046     		.align	2
 693              	.L43:
 694 0014 34000000 		.word	.LC8
 695              		.cfi_endproc
 696              	.LFE137:
 697              		.size	_ZN8std_msgs5Int167getTypeEv, .-_ZN8std_msgs5Int167getTypeEv
 698              		.section	.rodata
 699 0043 00       		.align	2
 700              	.LC10:
 701 0044 38353234 		.ascii	"8524586e34fbd7cb1c08c5f5f1ca0e57\000"
 701      35383665 
 701      33346662 
 701      64376362 
ARM GAS  C:\DOCUME~1\Chuck\LOCALS~1\Temp\cc1frfi1.s 			page 18


 701      31633038 
 702              		.section	.text._ZN8std_msgs5Int166getMD5Ev,"axG",%progbits,_ZN8std_msgs5Int166getMD5Ev,comdat
 703              		.align	2
 704              		.weak	_ZN8std_msgs5Int166getMD5Ev
 705              		.code	16
 706              		.thumb_func
 707              		.type	_ZN8std_msgs5Int166getMD5Ev, %function
 708              	_ZN8std_msgs5Int166getMD5Ev:
 709              	.LFB138:
  56:./ros_lib/std_msgs/Int16.h ****     const char * getMD5(){ return "8524586e34fbd7cb1c08c5f5f1ca0e57"; };
 710              		.loc 5 56 0
 711              		.cfi_startproc
 712 0000 80B5     		push	{r7, lr}
 713              		.cfi_def_cfa_offset 8
 714              		.cfi_offset 7, -8
 715              		.cfi_offset 14, -4
 716 0002 82B0     		sub	sp, sp, #8
 717              		.cfi_def_cfa_offset 16
 718 0004 00AF     		add	r7, sp, #0
 719              		.cfi_def_cfa_register 7
 720 0006 7860     		str	r0, [r7, #4]
 721              		.loc 5 56 0
 722 0008 024B     		ldr	r3, .L47
 723 000a 181C     		mov	r0, r3
 724 000c BD46     		mov	sp, r7
 725 000e 02B0     		add	sp, sp, #8
 726              		@ sp needed
 727 0010 80BD     		pop	{r7, pc}
 728              	.L48:
 729 0012 C046     		.align	2
 730              	.L47:
 731 0014 44000000 		.word	.LC10
 732              		.cfi_endproc
 733              	.LFE138:
 734              		.size	_ZN8std_msgs5Int166getMD5Ev, .-_ZN8std_msgs5Int166getMD5Ev
 735              		.global	_ZN7Encoder11encoder_msgE
 736              		.bss
 737              		.align	2
 738              		.type	_ZN7Encoder11encoder_msgE, %object
 739              		.size	_ZN7Encoder11encoder_msgE, 8
 740              	_ZN7Encoder11encoder_msgE:
 741 0000 00000000 		.space	8
 741      00000000 
 742              		.global	_ZN7Encoder1pE
 743              		.align	2
 744              		.type	_ZN7Encoder1pE, %object
 745              		.size	_ZN7Encoder1pE, 20
 746              	_ZN7Encoder1pE:
 747 0008 00000000 		.space	20
 747      00000000 
 747      00000000 
 747      00000000 
 747      00000000 
 748              		.global	_ZN7Encoder11counter_msgE
 749              		.align	2
 750              		.type	_ZN7Encoder11counter_msgE, %object
 751              		.size	_ZN7Encoder11counter_msgE, 8
ARM GAS  C:\DOCUME~1\Chuck\LOCALS~1\Temp\cc1frfi1.s 			page 19


 752              	_ZN7Encoder11counter_msgE:
 753 001c 00000000 		.space	8
 753      00000000 
 754              		.global	_ZN7Encoder2pcE
 755              		.align	2
 756              		.type	_ZN7Encoder2pcE, %object
 757              		.size	_ZN7Encoder2pcE, 20
 758              	_ZN7Encoder2pcE:
 759 0024 00000000 		.space	20
 759      00000000 
 759      00000000 
 759      00000000 
 759      00000000 
 760              		.global	_ZN7Encoder16next_report_timeE
 761              		.align	2
 762              		.type	_ZN7Encoder16next_report_timeE, %object
 763              		.size	_ZN7Encoder16next_report_timeE, 4
 764              	_ZN7Encoder16next_report_timeE:
 765 0038 00000000 		.space	4
 766              		.global	_ZN7Encoder14next_read_timeE
 767              		.align	2
 768              		.type	_ZN7Encoder14next_read_timeE, %object
 769              		.size	_ZN7Encoder14next_read_timeE, 4
 770              	_ZN7Encoder14next_read_timeE:
 771 003c 00000000 		.space	4
 772              		.global	_ZN7Encoder16prev_counter_valE
 773              		.align	1
 774              		.type	_ZN7Encoder16prev_counter_valE, %object
 775              		.size	_ZN7Encoder16prev_counter_valE, 2
 776              	_ZN7Encoder16prev_counter_valE:
 777 0040 0000     		.space	2
 778 0042 0000     		.section	.text._ZN7Encoder5setupEv,"ax",%progbits
 779              		.align	2
 780              		.global	_ZN7Encoder5setupEv
 781              		.code	16
 782              		.thumb_func
 783              		.type	_ZN7Encoder5setupEv, %function
 784              	_ZN7Encoder5setupEv:
 785              	.LFB172:
 786              		.file 6 ".\\ros_lib\\examples\\Encoder\\Encoder.cpp"
   1:.\ros_lib\examples\Encoder/Encoder.cpp **** /* 
   2:.\ros_lib\examples\Encoder/Encoder.cpp ****  * rosserial Encoder example for PSoC4 "RosOnAStick"
   3:.\ros_lib\examples\Encoder/Encoder.cpp ****  * 
   4:.\ros_lib\examples\Encoder/Encoder.cpp ****  * reads a quadrature optical encoder using PSoC hardware counter
   5:.\ros_lib\examples\Encoder/Encoder.cpp ****  *
   6:.\ros_lib\examples\Encoder/Encoder.cpp ****  * Copyright C. Harrison
   7:.\ros_lib\examples\Encoder/Encoder.cpp ****  * BSD 2-clause license http://opensource.org/licenses/BSD-2-Clause
   8:.\ros_lib\examples\Encoder/Encoder.cpp ****  *
   9:.\ros_lib\examples\Encoder/Encoder.cpp ****  */
  10:.\ros_lib\examples\Encoder/Encoder.cpp **** 
  11:.\ros_lib\examples\Encoder/Encoder.cpp **** #include <ros.h>
  12:.\ros_lib\examples\Encoder/Encoder.cpp **** #include <std_msgs/Int32.h>
  13:.\ros_lib\examples\Encoder/Encoder.cpp **** #include <std_msgs/Int16.h>
  14:.\ros_lib\examples\Encoder/Encoder.cpp **** #include "Encoder.h"
  15:.\ros_lib\examples\Encoder/Encoder.cpp **** 
  16:.\ros_lib\examples\Encoder/Encoder.cpp **** extern ros::NodeHandle nh;
  17:.\ros_lib\examples\Encoder/Encoder.cpp **** 
ARM GAS  C:\DOCUME~1\Chuck\LOCALS~1\Temp\cc1frfi1.s 			page 20


  18:.\ros_lib\examples\Encoder/Encoder.cpp **** namespace Encoder {
  19:.\ros_lib\examples\Encoder/Encoder.cpp **** 
  20:.\ros_lib\examples\Encoder/Encoder.cpp **** std_msgs::Int32 encoder_msg;
  21:.\ros_lib\examples\Encoder/Encoder.cpp **** ros::Publisher p("encoder", &encoder_msg);
  22:.\ros_lib\examples\Encoder/Encoder.cpp **** std_msgs::Int16 counter_msg;
  23:.\ros_lib\examples\Encoder/Encoder.cpp **** ros::Publisher pc("counter", &counter_msg);
  24:.\ros_lib\examples\Encoder/Encoder.cpp **** 
  25:.\ros_lib\examples\Encoder/Encoder.cpp **** uint32_t next_report_time;
  26:.\ros_lib\examples\Encoder/Encoder.cpp **** const uint32_t kReportIntervalMs = 200;
  27:.\ros_lib\examples\Encoder/Encoder.cpp **** uint32_t next_read_time;
  28:.\ros_lib\examples\Encoder/Encoder.cpp **** const uint32_t kReadIntervalMs = 10; // fast enough to avoid 0x4000 counts in one interval
  29:.\ros_lib\examples\Encoder/Encoder.cpp **** int16_t prev_counter_val;
  30:.\ros_lib\examples\Encoder/Encoder.cpp **** 
  31:.\ros_lib\examples\Encoder/Encoder.cpp **** void setup()
  32:.\ros_lib\examples\Encoder/Encoder.cpp **** { 
 787              		.loc 6 32 0
 788              		.cfi_startproc
 789 0000 80B5     		push	{r7, lr}
 790              		.cfi_def_cfa_offset 8
 791              		.cfi_offset 7, -8
 792              		.cfi_offset 14, -4
 793 0002 00AF     		add	r7, sp, #0
 794              		.cfi_def_cfa_register 7
  33:.\ros_lib\examples\Encoder/Encoder.cpp ****   nh.advertise(p);
 795              		.loc 6 33 0
 796 0004 124A     		ldr	r2, .L50
 797 0006 134B     		ldr	r3, .L50+4
 798 0008 101C     		mov	r0, r2
 799 000a 191C     		mov	r1, r3
 800 000c FFF7FEFF 		bl	_ZN3ros11NodeHandle_I13Psoc4HardwareLi10ELi20ELi200ELi200EE9advertiseERNS_9PublisherE
  34:.\ros_lib\examples\Encoder/Encoder.cpp ****   nh.advertise(pc);
 801              		.loc 6 34 0
 802 0010 0F4A     		ldr	r2, .L50
 803 0012 114B     		ldr	r3, .L50+8
 804 0014 101C     		mov	r0, r2
 805 0016 191C     		mov	r1, r3
 806 0018 FFF7FEFF 		bl	_ZN3ros11NodeHandle_I13Psoc4HardwareLi10ELi20ELi200ELi200EE9advertiseERNS_9PublisherE
  35:.\ros_lib\examples\Encoder/Encoder.cpp ****   next_report_time = SysTimer::millis();
 807              		.loc 6 35 0
 808 001c FFF7FEFF 		bl	_ZN8SysTimer6millisEv
 809 0020 021C     		mov	r2, r0
 810 0022 0E4B     		ldr	r3, .L50+12
 811 0024 1A60     		str	r2, [r3]
  36:.\ros_lib\examples\Encoder/Encoder.cpp ****   next_read_time = SysTimer::millis();
 812              		.loc 6 36 0
 813 0026 FFF7FEFF 		bl	_ZN8SysTimer6millisEv
 814 002a 021C     		mov	r2, r0
 815 002c 0C4B     		ldr	r3, .L50+16
 816 002e 1A60     		str	r2, [r3]
  37:.\ros_lib\examples\Encoder/Encoder.cpp ****   QuadDec_1_Start();
 817              		.loc 6 37 0
 818 0030 FFF7FEFF 		bl	QuadDec_1_Start
  38:.\ros_lib\examples\Encoder/Encoder.cpp ****   Quad_Clock_Start();
 819              		.loc 6 38 0
 820 0034 FFF7FEFF 		bl	Quad_Clock_Start
  39:.\ros_lib\examples\Encoder/Encoder.cpp ****   QuadDec_1_TriggerCommand(QuadDec_1_MASK, QuadDec_1_CMD_RELOAD);
 821              		.loc 6 39 0
ARM GAS  C:\DOCUME~1\Chuck\LOCALS~1\Temp\cc1frfi1.s 			page 21


 822 0038 0120     		mov	r0, #1
 823 003a 0821     		mov	r1, #8
 824 003c FFF7FEFF 		bl	QuadDec_1_TriggerCommand
  40:.\ros_lib\examples\Encoder/Encoder.cpp ****   prev_counter_val = 0; // reload sets value to 0x8000
 825              		.loc 6 40 0
 826 0040 084B     		ldr	r3, .L50+20
 827 0042 0022     		mov	r2, #0
 828 0044 1A80     		strh	r2, [r3]
  41:.\ros_lib\examples\Encoder/Encoder.cpp ****   encoder_msg.data = 0;
 829              		.loc 6 41 0
 830 0046 084B     		ldr	r3, .L50+24
 831 0048 0022     		mov	r2, #0
 832 004a 5A60     		str	r2, [r3, #4]
  42:.\ros_lib\examples\Encoder/Encoder.cpp **** }
 833              		.loc 6 42 0
 834 004c BD46     		mov	sp, r7
 835              		@ sp needed
 836 004e 80BD     		pop	{r7, pc}
 837              	.L51:
 838              		.align	2
 839              	.L50:
 840 0050 00000000 		.word	nh
 841 0054 00000000 		.word	_ZN7Encoder1pE
 842 0058 00000000 		.word	_ZN7Encoder2pcE
 843 005c 00000000 		.word	_ZN7Encoder16next_report_timeE
 844 0060 00000000 		.word	_ZN7Encoder14next_read_timeE
 845 0064 00000000 		.word	_ZN7Encoder16prev_counter_valE
 846 0068 00000000 		.word	_ZN7Encoder11encoder_msgE
 847              		.cfi_endproc
 848              	.LFE172:
 849              		.size	_ZN7Encoder5setupEv, .-_ZN7Encoder5setupEv
 850              		.section	.text._ZN7Encoder12read_counterEv,"ax",%progbits
 851              		.align	2
 852              		.global	_ZN7Encoder12read_counterEv
 853              		.code	16
 854              		.thumb_func
 855              		.type	_ZN7Encoder12read_counterEv, %function
 856              	_ZN7Encoder12read_counterEv:
 857              	.LFB173:
  43:.\ros_lib\examples\Encoder/Encoder.cpp **** 
  44:.\ros_lib\examples\Encoder/Encoder.cpp **** void read_counter() {
 858              		.loc 6 44 0
 859              		.cfi_startproc
 860 0000 80B5     		push	{r7, lr}
 861              		.cfi_def_cfa_offset 8
 862              		.cfi_offset 7, -8
 863              		.cfi_offset 14, -4
 864 0002 82B0     		sub	sp, sp, #8
 865              		.cfi_def_cfa_offset 16
 866 0004 00AF     		add	r7, sp, #0
 867              		.cfi_def_cfa_register 7
 868              	.LBB10:
  45:.\ros_lib\examples\Encoder/Encoder.cpp ****     // PSoC4 16-bit hardware counter rolls over in a special way; ignore that and use lower 15 bits
  46:.\ros_lib\examples\Encoder/Encoder.cpp ****     int16_t counter_val = 0x7FFF & QuadDec_1_ReadCounter();
 869              		.loc 6 46 0
 870 0006 FFF7FEFF 		bl	QuadDec_1_ReadCounter
 871 000a 031C     		mov	r3, r0
ARM GAS  C:\DOCUME~1\Chuck\LOCALS~1\Temp\cc1frfi1.s 			page 22


 872 000c 9AB2     		uxth	r2, r3
 873 000e BB1C     		add	r3, r7, #2
 874 0010 5204     		lsl	r2, r2, #17
 875 0012 520C     		lsr	r2, r2, #17
 876 0014 1A80     		strh	r2, [r3]
  47:.\ros_lib\examples\Encoder/Encoder.cpp ****     counter_msg.data = counter_val;
 877              		.loc 6 47 0
 878 0016 164B     		ldr	r3, .L55
 879 0018 BA1C     		add	r2, r7, #2
 880 001a 1288     		ldrh	r2, [r2]
 881 001c 9A80     		strh	r2, [r3, #4]
  48:.\ros_lib\examples\Encoder/Encoder.cpp ****     int32_t delta = counter_val - prev_counter_val;
 882              		.loc 6 48 0
 883 001e BB1C     		add	r3, r7, #2
 884 0020 0021     		mov	r1, #0
 885 0022 5A5E     		ldrsh	r2, [r3, r1]
 886 0024 134B     		ldr	r3, .L55+4
 887 0026 1B88     		ldrh	r3, [r3]
 888 0028 1BB2     		sxth	r3, r3
 889 002a D31A     		sub	r3, r2, r3
 890 002c 7B60     		str	r3, [r7, #4]
  49:.\ros_lib\examples\Encoder/Encoder.cpp ****     if (delta > 0x4000) { delta -= 0x8000; }
 891              		.loc 6 49 0
 892 002e 7A68     		ldr	r2, [r7, #4]
 893 0030 8023     		mov	r3, #128
 894 0032 DB01     		lsl	r3, r3, #7
 895 0034 9A42     		cmp	r2, r3
 896 0036 04DD     		ble	.L53
 897              		.loc 6 49 0 is_stmt 0 discriminator 1
 898 0038 7B68     		ldr	r3, [r7, #4]
 899 003a 0F4A     		ldr	r2, .L55+8
 900 003c 9B18     		add	r3, r3, r2
 901 003e 7B60     		str	r3, [r7, #4]
 902 0040 08E0     		b	.L54
 903              	.L53:
  50:.\ros_lib\examples\Encoder/Encoder.cpp ****     else if (delta < -0x4000) { delta += 0x8000; }
 904              		.loc 6 50 0 is_stmt 1
 905 0042 7A68     		ldr	r2, [r7, #4]
 906 0044 0D4B     		ldr	r3, .L55+12
 907 0046 9A42     		cmp	r2, r3
 908 0048 04DA     		bge	.L54
 909              		.loc 6 50 0 is_stmt 0 discriminator 1
 910 004a 7B68     		ldr	r3, [r7, #4]
 911 004c 8021     		mov	r1, #128
 912 004e 0902     		lsl	r1, r1, #8
 913 0050 5B18     		add	r3, r3, r1
 914 0052 7B60     		str	r3, [r7, #4]
 915              	.L54:
  51:.\ros_lib\examples\Encoder/Encoder.cpp ****     encoder_msg.data += delta;
 916              		.loc 6 51 0 is_stmt 1
 917 0054 0A4B     		ldr	r3, .L55+16
 918 0056 5A68     		ldr	r2, [r3, #4]
 919 0058 7B68     		ldr	r3, [r7, #4]
 920 005a D218     		add	r2, r2, r3
 921 005c 084B     		ldr	r3, .L55+16
 922 005e 5A60     		str	r2, [r3, #4]
  52:.\ros_lib\examples\Encoder/Encoder.cpp ****     prev_counter_val = counter_val;
ARM GAS  C:\DOCUME~1\Chuck\LOCALS~1\Temp\cc1frfi1.s 			page 23


 923              		.loc 6 52 0
 924 0060 044B     		ldr	r3, .L55+4
 925 0062 BA1C     		add	r2, r7, #2
 926 0064 1288     		ldrh	r2, [r2]
 927 0066 1A80     		strh	r2, [r3]
 928              	.LBE10:
  53:.\ros_lib\examples\Encoder/Encoder.cpp **** }
 929              		.loc 6 53 0
 930 0068 BD46     		mov	sp, r7
 931 006a 02B0     		add	sp, sp, #8
 932              		@ sp needed
 933 006c 80BD     		pop	{r7, pc}
 934              	.L56:
 935 006e C046     		.align	2
 936              	.L55:
 937 0070 00000000 		.word	_ZN7Encoder11counter_msgE
 938 0074 00000000 		.word	_ZN7Encoder16prev_counter_valE
 939 0078 0080FFFF 		.word	-32768
 940 007c 00C0FFFF 		.word	-16384
 941 0080 00000000 		.word	_ZN7Encoder11encoder_msgE
 942              		.cfi_endproc
 943              	.LFE173:
 944              		.size	_ZN7Encoder12read_counterEv, .-_ZN7Encoder12read_counterEv
 945              		.section	.text._ZN7Encoder4loopEv,"ax",%progbits
 946              		.align	2
 947              		.global	_ZN7Encoder4loopEv
 948              		.code	16
 949              		.thumb_func
 950              		.type	_ZN7Encoder4loopEv, %function
 951              	_ZN7Encoder4loopEv:
 952              	.LFB174:
  54:.\ros_lib\examples\Encoder/Encoder.cpp **** void loop()
  55:.\ros_lib\examples\Encoder/Encoder.cpp **** {
 953              		.loc 6 55 0
 954              		.cfi_startproc
 955 0000 80B5     		push	{r7, lr}
 956              		.cfi_def_cfa_offset 8
 957              		.cfi_offset 7, -8
 958              		.cfi_offset 14, -4
 959 0002 00AF     		add	r7, sp, #0
 960              		.cfi_def_cfa_register 7
  56:.\ros_lib\examples\Encoder/Encoder.cpp **** 
  57:.\ros_lib\examples\Encoder/Encoder.cpp ****   if ((int32_t)(SysTimer::millis()-next_read_time) > 0) {
 961              		.loc 6 57 0
 962 0004 FFF7FEFF 		bl	_ZN8SysTimer6millisEv
 963 0008 021C     		mov	r2, r0
 964 000a 194B     		ldr	r3, .L60
 965 000c 1B68     		ldr	r3, [r3]
 966 000e D31A     		sub	r3, r2, r3
 967 0010 DA17     		asr	r2, r3, #31
 968 0012 D31A     		sub	r3, r2, r3
 969 0014 DB0F     		lsr	r3, r3, #31
 970 0016 DBB2     		uxtb	r3, r3
 971 0018 002B     		cmp	r3, #0
 972 001a 0DD0     		beq	.L58
  58:.\ros_lib\examples\Encoder/Encoder.cpp ****     next_read_time += kReadIntervalMs;
 973              		.loc 6 58 0
ARM GAS  C:\DOCUME~1\Chuck\LOCALS~1\Temp\cc1frfi1.s 			page 24


 974 001c 144B     		ldr	r3, .L60
 975 001e 1A68     		ldr	r2, [r3]
 976 0020 0A23     		mov	r3, #10
 977 0022 D218     		add	r2, r2, r3
 978 0024 124B     		ldr	r3, .L60
 979 0026 1A60     		str	r2, [r3]
  59:.\ros_lib\examples\Encoder/Encoder.cpp ****     read_counter();
 980              		.loc 6 59 0
 981 0028 FFF7FEFF 		bl	_ZN7Encoder12read_counterEv
  60:.\ros_lib\examples\Encoder/Encoder.cpp ****     pc.publish(&counter_msg);
 982              		.loc 6 60 0
 983 002c 114A     		ldr	r2, .L60+4
 984 002e 124B     		ldr	r3, .L60+8
 985 0030 101C     		mov	r0, r2
 986 0032 191C     		mov	r1, r3
 987 0034 FFF7FEFF 		bl	_ZN3ros9Publisher7publishEPKNS_3MsgE
 988              	.L58:
  61:.\ros_lib\examples\Encoder/Encoder.cpp ****   }
  62:.\ros_lib\examples\Encoder/Encoder.cpp ****   if ((int32_t)(SysTimer::millis()-next_report_time) > 0) {
 989              		.loc 6 62 0
 990 0038 FFF7FEFF 		bl	_ZN8SysTimer6millisEv
 991 003c 021C     		mov	r2, r0
 992 003e 0F4B     		ldr	r3, .L60+12
 993 0040 1B68     		ldr	r3, [r3]
 994 0042 D31A     		sub	r3, r2, r3
 995 0044 DA17     		asr	r2, r3, #31
 996 0046 D31A     		sub	r3, r2, r3
 997 0048 DB0F     		lsr	r3, r3, #31
 998 004a DBB2     		uxtb	r3, r3
 999 004c 002B     		cmp	r3, #0
 1000 004e 0DD0     		beq	.L57
  63:.\ros_lib\examples\Encoder/Encoder.cpp ****     next_report_time += kReportIntervalMs;
 1001              		.loc 6 63 0
 1002 0050 0A4B     		ldr	r3, .L60+12
 1003 0052 1A68     		ldr	r2, [r3]
 1004 0054 C823     		mov	r3, #200
 1005 0056 D218     		add	r2, r2, r3
 1006 0058 084B     		ldr	r3, .L60+12
 1007 005a 1A60     		str	r2, [r3]
  64:.\ros_lib\examples\Encoder/Encoder.cpp ****     read_counter();
 1008              		.loc 6 64 0
 1009 005c FFF7FEFF 		bl	_ZN7Encoder12read_counterEv
  65:.\ros_lib\examples\Encoder/Encoder.cpp ****     p.publish(&encoder_msg);
 1010              		.loc 6 65 0
 1011 0060 074A     		ldr	r2, .L60+16
 1012 0062 084B     		ldr	r3, .L60+20
 1013 0064 101C     		mov	r0, r2
 1014 0066 191C     		mov	r1, r3
 1015 0068 FFF7FEFF 		bl	_ZN3ros9Publisher7publishEPKNS_3MsgE
 1016              	.L57:
  66:.\ros_lib\examples\Encoder/Encoder.cpp ****   }
  67:.\ros_lib\examples\Encoder/Encoder.cpp **** }
 1017              		.loc 6 67 0
 1018 006c BD46     		mov	sp, r7
 1019              		@ sp needed
 1020 006e 80BD     		pop	{r7, pc}
 1021              	.L61:
ARM GAS  C:\DOCUME~1\Chuck\LOCALS~1\Temp\cc1frfi1.s 			page 25


 1022              		.align	2
 1023              	.L60:
 1024 0070 00000000 		.word	_ZN7Encoder14next_read_timeE
 1025 0074 00000000 		.word	_ZN7Encoder2pcE
 1026 0078 00000000 		.word	_ZN7Encoder11counter_msgE
 1027 007c 00000000 		.word	_ZN7Encoder16next_report_timeE
 1028 0080 00000000 		.word	_ZN7Encoder1pE
 1029 0084 00000000 		.word	_ZN7Encoder11encoder_msgE
 1030              		.cfi_endproc
 1031              	.LFE174:
 1032              		.size	_ZN7Encoder4loopEv, .-_ZN7Encoder4loopEv
 1033              		.section	.text._ZN3ros11NodeHandle_I13Psoc4HardwareLi10ELi20ELi200ELi200EE9advertiseERNS_9Publishe
 1034              		.align	2
 1035              		.weak	_ZN3ros11NodeHandle_I13Psoc4HardwareLi10ELi20ELi200ELi200EE9advertiseERNS_9PublisherE
 1036              		.code	16
 1037              		.thumb_func
 1038              		.type	_ZN3ros11NodeHandle_I13Psoc4HardwareLi10ELi20ELi200ELi200EE9advertiseERNS_9PublisherE, %func
 1039              	_ZN3ros11NodeHandle_I13Psoc4HardwareLi10ELi20ELi200ELi200EE9advertiseERNS_9PublisherE:
 1040              	.LFB175:
 1041              		.file 7 "./ros_lib/ros/node_handle.h"
   1:./ros_lib/ros/node_handle.h **** /*
   2:./ros_lib/ros/node_handle.h ****  * Software License Agreement (BSD License)
   3:./ros_lib/ros/node_handle.h ****  *
   4:./ros_lib/ros/node_handle.h ****  * Copyright (c) 2011, Willow Garage, Inc.
   5:./ros_lib/ros/node_handle.h ****  * All rights reserved.
   6:./ros_lib/ros/node_handle.h ****  *
   7:./ros_lib/ros/node_handle.h ****  * Redistribution and use in source and binary forms, with or without
   8:./ros_lib/ros/node_handle.h ****  * modification, are permitted provided that the following conditions
   9:./ros_lib/ros/node_handle.h ****  * are met:
  10:./ros_lib/ros/node_handle.h ****  *
  11:./ros_lib/ros/node_handle.h ****  *  * Redistributions of source code must retain the above copyright
  12:./ros_lib/ros/node_handle.h ****  *    notice, this list of conditions and the following disclaimer.
  13:./ros_lib/ros/node_handle.h ****  *  * Redistributions in binary form must reproduce the above
  14:./ros_lib/ros/node_handle.h ****  *    copyright notice, this list of conditions and the following
  15:./ros_lib/ros/node_handle.h ****  *    disclaimer in the documentation and/or other materials provided
  16:./ros_lib/ros/node_handle.h ****  *    with the distribution.
  17:./ros_lib/ros/node_handle.h ****  *  * Neither the name of Willow Garage, Inc. nor the names of its
  18:./ros_lib/ros/node_handle.h ****  *    contributors may be used to endorse or promote prducts derived
  19:./ros_lib/ros/node_handle.h ****  *    from this software without specific prior written permission.
  20:./ros_lib/ros/node_handle.h ****  *
  21:./ros_lib/ros/node_handle.h ****  * THIS SOFTWARE IS PROVIDED BY THE COPYRIGHT HOLDERS AND CONTRIBUTORS
  22:./ros_lib/ros/node_handle.h ****  * "AS IS" AND ANY EXPRESS OR IMPLIED WARRANTIES, INCLUDING, BUT NOT
  23:./ros_lib/ros/node_handle.h ****  * LIMITED TO, THE IMPLIED WARRANTIES OF MERCHANTABILITY AND FITNESS
  24:./ros_lib/ros/node_handle.h ****  * FOR A PARTICULAR PURPOSE ARE DISCLAIMED. IN NO EVENT SHALL THE
  25:./ros_lib/ros/node_handle.h ****  * COPYRIGHT OWNER OR CONTRIBUTORS BE LIABLE FOR ANY DIRECT, INDIRECT,
  26:./ros_lib/ros/node_handle.h ****  * INCIDENTAL, SPECIAL, EXEMPLARY, OR CONSEQUENTIAL DAMAGES (INCLUDING,
  27:./ros_lib/ros/node_handle.h ****  * BUT NOT LIMITED TO, PROCUREMENT OF SUBSTITUTE GOODS OR SERVICES;
  28:./ros_lib/ros/node_handle.h ****  * LOSS OF USE, DATA, OR PROFITS; OR BUSINESS INTERRUPTION) HOWEVER
  29:./ros_lib/ros/node_handle.h ****  * CAUSED AND ON ANY THEORY OF LIABILITY, WHETHER IN CONTRACT, STRICT
  30:./ros_lib/ros/node_handle.h ****  * LIABILITY, OR TORT (INCLUDING NEGLIGENCE OR OTHERWISE) ARISING IN
  31:./ros_lib/ros/node_handle.h ****  * ANY WAY OUT OF THE USE OF THIS SOFTWARE, EVEN IF ADVISED OF THE
  32:./ros_lib/ros/node_handle.h ****  * POSSIBILITY OF SUCH DAMAGE.
  33:./ros_lib/ros/node_handle.h ****  */
  34:./ros_lib/ros/node_handle.h **** 
  35:./ros_lib/ros/node_handle.h **** #ifndef ROS_NODE_HANDLE_H_
  36:./ros_lib/ros/node_handle.h **** #define ROS_NODE_HANDLE_H_
  37:./ros_lib/ros/node_handle.h **** 
ARM GAS  C:\DOCUME~1\Chuck\LOCALS~1\Temp\cc1frfi1.s 			page 26


  38:./ros_lib/ros/node_handle.h **** #ifndef PARAM_REQ_SUPPORT
  39:./ros_lib/ros/node_handle.h **** #define PARAM_REQ_SUPPORT 1
  40:./ros_lib/ros/node_handle.h **** #endif
  41:./ros_lib/ros/node_handle.h **** 
  42:./ros_lib/ros/node_handle.h **** #include "std_msgs/Time.h"
  43:./ros_lib/ros/node_handle.h **** #include "rosserial_msgs/TopicInfo.h"
  44:./ros_lib/ros/node_handle.h **** #include "rosserial_msgs/Log.h"
  45:./ros_lib/ros/node_handle.h **** #if PARAM_REQ_SUPPORT
  46:./ros_lib/ros/node_handle.h **** #include "rosserial_msgs/RequestParam.h"
  47:./ros_lib/ros/node_handle.h **** #endif
  48:./ros_lib/ros/node_handle.h **** 
  49:./ros_lib/ros/node_handle.h **** #define SYNC_SECONDS        2
  50:./ros_lib/ros/node_handle.h **** 
  51:./ros_lib/ros/node_handle.h **** #define MODE_FIRST_FF       0
  52:./ros_lib/ros/node_handle.h **** /*
  53:./ros_lib/ros/node_handle.h ****  * The second sync byte is a protocol version. It's value is 0xff for the first
  54:./ros_lib/ros/node_handle.h ****  * version of the rosserial protocol (used up to hydro), 0xfe for the second version
  55:./ros_lib/ros/node_handle.h ****  * (introduced in hydro), 0xfd for the next, and so on. Its purpose is to enable
  56:./ros_lib/ros/node_handle.h ****  * detection of mismatched protocol versions (e.g. hydro rosserial_python with groovy
  57:./ros_lib/ros/node_handle.h ****  * rosserial_arduino. It must be changed in both this file and in
  58:./ros_lib/ros/node_handle.h ****  * rosserial_python/src/rosserial_python/SerialClient.py
  59:./ros_lib/ros/node_handle.h ****  */
  60:./ros_lib/ros/node_handle.h **** #define MODE_PROTOCOL_VER   1
  61:./ros_lib/ros/node_handle.h **** #define PROTOCOL_VER1		0xff // through groovy
  62:./ros_lib/ros/node_handle.h **** #define PROTOCOL_VER2		0xfe // in hydro
  63:./ros_lib/ros/node_handle.h **** #define PROTOCOL_VER 		PROTOCOL_VER2
  64:./ros_lib/ros/node_handle.h **** #define MODE_SIZE_L         2   
  65:./ros_lib/ros/node_handle.h **** #define MODE_SIZE_H         3
  66:./ros_lib/ros/node_handle.h **** #define MODE_SIZE_CHECKSUM  4   // checksum for msg size received from size L and H
  67:./ros_lib/ros/node_handle.h **** #define MODE_TOPIC_L        5   // waiting for topic id
  68:./ros_lib/ros/node_handle.h **** #define MODE_TOPIC_H        6
  69:./ros_lib/ros/node_handle.h **** #define MODE_MESSAGE        7
  70:./ros_lib/ros/node_handle.h **** #define MODE_MSG_CHECKSUM   8   // checksum for msg and topic id 
  71:./ros_lib/ros/node_handle.h **** 
  72:./ros_lib/ros/node_handle.h **** 
  73:./ros_lib/ros/node_handle.h **** #define MSG_TIMEOUT 200  // was 20 milliseconds to recieve all of message data
  74:./ros_lib/ros/node_handle.h **** 
  75:./ros_lib/ros/node_handle.h **** #include "msg.h"
  76:./ros_lib/ros/node_handle.h **** 
  77:./ros_lib/ros/node_handle.h **** namespace ros {
  78:./ros_lib/ros/node_handle.h **** 
  79:./ros_lib/ros/node_handle.h ****   class NodeHandleBase_{
  80:./ros_lib/ros/node_handle.h ****     public:
  81:./ros_lib/ros/node_handle.h ****       virtual int publish(int id, const Msg* msg)=0;
  82:./ros_lib/ros/node_handle.h ****       virtual int spinOnce()=0;
  83:./ros_lib/ros/node_handle.h ****       virtual bool connected()=0;
  84:./ros_lib/ros/node_handle.h ****     };
  85:./ros_lib/ros/node_handle.h **** }
  86:./ros_lib/ros/node_handle.h **** 
  87:./ros_lib/ros/node_handle.h **** #include "publisher.h"
  88:./ros_lib/ros/node_handle.h **** #include "subscriber.h"
  89:./ros_lib/ros/node_handle.h **** #include "service_server.h"
  90:./ros_lib/ros/node_handle.h **** #include "service_client.h"
  91:./ros_lib/ros/node_handle.h **** 
  92:./ros_lib/ros/node_handle.h **** namespace ros {
  93:./ros_lib/ros/node_handle.h **** 
  94:./ros_lib/ros/node_handle.h ****   using rosserial_msgs::TopicInfo;
ARM GAS  C:\DOCUME~1\Chuck\LOCALS~1\Temp\cc1frfi1.s 			page 27


  95:./ros_lib/ros/node_handle.h **** 
  96:./ros_lib/ros/node_handle.h ****   /* Node Handle */
  97:./ros_lib/ros/node_handle.h ****   template<class Hardware,
  98:./ros_lib/ros/node_handle.h ****            int MAX_SUBSCRIBERS=25,
  99:./ros_lib/ros/node_handle.h ****            int MAX_PUBLISHERS=25,
 100:./ros_lib/ros/node_handle.h ****            int INPUT_SIZE=512,
 101:./ros_lib/ros/node_handle.h ****            int OUTPUT_SIZE=512>
 102:./ros_lib/ros/node_handle.h ****   class NodeHandle_ : public NodeHandleBase_
 103:./ros_lib/ros/node_handle.h ****   {
 104:./ros_lib/ros/node_handle.h ****     protected:
 105:./ros_lib/ros/node_handle.h ****       Hardware hardware_;
 106:./ros_lib/ros/node_handle.h **** 
 107:./ros_lib/ros/node_handle.h ****       /* time used for syncing */
 108:./ros_lib/ros/node_handle.h ****       unsigned long rt_time;
 109:./ros_lib/ros/node_handle.h **** 
 110:./ros_lib/ros/node_handle.h ****       /* used for computing current time */
 111:./ros_lib/ros/node_handle.h ****       unsigned long sec_offset, nsec_offset;
 112:./ros_lib/ros/node_handle.h **** 
 113:./ros_lib/ros/node_handle.h ****       unsigned char message_in[INPUT_SIZE];
 114:./ros_lib/ros/node_handle.h ****       unsigned char message_out[OUTPUT_SIZE];
 115:./ros_lib/ros/node_handle.h **** 
 116:./ros_lib/ros/node_handle.h ****       Publisher * publishers[MAX_PUBLISHERS];
 117:./ros_lib/ros/node_handle.h ****       Subscriber_ * subscribers[MAX_SUBSCRIBERS];
 118:./ros_lib/ros/node_handle.h **** 
 119:./ros_lib/ros/node_handle.h ****       /*
 120:./ros_lib/ros/node_handle.h ****        * Setup Functions
 121:./ros_lib/ros/node_handle.h ****        */
 122:./ros_lib/ros/node_handle.h ****     public:
 123:./ros_lib/ros/node_handle.h ****       NodeHandle_() : configured_(false) {
 124:./ros_lib/ros/node_handle.h **** #if true
 125:./ros_lib/ros/node_handle.h ****         for(unsigned int i=0; i< MAX_PUBLISHERS; i++) 
 126:./ros_lib/ros/node_handle.h **** 	   publishers[i] = 0;
 127:./ros_lib/ros/node_handle.h **** 
 128:./ros_lib/ros/node_handle.h ****         for(unsigned int i=0; i< MAX_SUBSCRIBERS; i++) 
 129:./ros_lib/ros/node_handle.h **** 	   subscribers[i] = 0;
 130:./ros_lib/ros/node_handle.h **** 
 131:./ros_lib/ros/node_handle.h ****         for(unsigned int i=0; i< INPUT_SIZE; i++) 
 132:./ros_lib/ros/node_handle.h **** 	   message_in[i] = 0;
 133:./ros_lib/ros/node_handle.h **** 
 134:./ros_lib/ros/node_handle.h ****         for(unsigned int i=0; i< OUTPUT_SIZE; i++) 
 135:./ros_lib/ros/node_handle.h **** 	   message_out[i] = 0;
 136:./ros_lib/ros/node_handle.h **** 
 137:./ros_lib/ros/node_handle.h ****         req_param_resp.ints_length = 0;
 138:./ros_lib/ros/node_handle.h ****         req_param_resp.ints = NULL;
 139:./ros_lib/ros/node_handle.h ****         req_param_resp.floats_length = 0;
 140:./ros_lib/ros/node_handle.h ****         req_param_resp.floats = NULL;
 141:./ros_lib/ros/node_handle.h ****         req_param_resp.ints_length = 0;
 142:./ros_lib/ros/node_handle.h ****         req_param_resp.ints = NULL;
 143:./ros_lib/ros/node_handle.h ****       }
 144:./ros_lib/ros/node_handle.h **** #endif      
 145:./ros_lib/ros/node_handle.h ****       Hardware* getHardware(){
 146:./ros_lib/ros/node_handle.h ****         return &hardware_;
 147:./ros_lib/ros/node_handle.h ****       }
 148:./ros_lib/ros/node_handle.h **** 
 149:./ros_lib/ros/node_handle.h ****       /* Start serial, initialize buffers */
 150:./ros_lib/ros/node_handle.h ****       void initNode(){
 151:./ros_lib/ros/node_handle.h ****         hardware_.init();
ARM GAS  C:\DOCUME~1\Chuck\LOCALS~1\Temp\cc1frfi1.s 			page 28


 152:./ros_lib/ros/node_handle.h ****         mode_ = 0;
 153:./ros_lib/ros/node_handle.h ****         bytes_ = 0;
 154:./ros_lib/ros/node_handle.h ****         index_ = 0;
 155:./ros_lib/ros/node_handle.h ****         topic_ = 0;
 156:./ros_lib/ros/node_handle.h ****       };
 157:./ros_lib/ros/node_handle.h **** 
 158:./ros_lib/ros/node_handle.h ****       /* Start a named port, which may be network server IP, initialize buffers */
 159:./ros_lib/ros/node_handle.h ****       void initNode(char *portName){
 160:./ros_lib/ros/node_handle.h ****         hardware_.init(portName);
 161:./ros_lib/ros/node_handle.h ****         mode_ = 0;
 162:./ros_lib/ros/node_handle.h ****         bytes_ = 0;
 163:./ros_lib/ros/node_handle.h ****         index_ = 0;
 164:./ros_lib/ros/node_handle.h ****         topic_ = 0;
 165:./ros_lib/ros/node_handle.h ****       };
 166:./ros_lib/ros/node_handle.h **** 
 167:./ros_lib/ros/node_handle.h ****     protected:
 168:./ros_lib/ros/node_handle.h ****       //State machine variables for spinOnce
 169:./ros_lib/ros/node_handle.h ****       int mode_;
 170:./ros_lib/ros/node_handle.h ****       int bytes_;
 171:./ros_lib/ros/node_handle.h ****       int topic_;
 172:./ros_lib/ros/node_handle.h ****       int index_;
 173:./ros_lib/ros/node_handle.h ****       int checksum_;
 174:./ros_lib/ros/node_handle.h **** 
 175:./ros_lib/ros/node_handle.h ****       bool configured_;
 176:./ros_lib/ros/node_handle.h **** 
 177:./ros_lib/ros/node_handle.h ****       /* used for syncing the time */
 178:./ros_lib/ros/node_handle.h ****       unsigned long last_sync_time;
 179:./ros_lib/ros/node_handle.h ****       unsigned long last_sync_receive_time;
 180:./ros_lib/ros/node_handle.h ****       unsigned long last_msg_timeout_time;
 181:./ros_lib/ros/node_handle.h **** 
 182:./ros_lib/ros/node_handle.h ****     public:
 183:./ros_lib/ros/node_handle.h ****       /* This function goes in your loop() function, it handles
 184:./ros_lib/ros/node_handle.h ****        *  serial input and callbacks for subscribers.
 185:./ros_lib/ros/node_handle.h ****        */
 186:./ros_lib/ros/node_handle.h **** 
 187:./ros_lib/ros/node_handle.h **** 
 188:./ros_lib/ros/node_handle.h ****       virtual int spinOnce(){
 189:./ros_lib/ros/node_handle.h **** 
 190:./ros_lib/ros/node_handle.h ****         /* restart if timed out */
 191:./ros_lib/ros/node_handle.h ****         unsigned long c_time = hardware_.time();
 192:./ros_lib/ros/node_handle.h ****         if( (c_time - last_sync_receive_time) > (SYNC_SECONDS*1100) ){
 193:./ros_lib/ros/node_handle.h ****             configured_ = false;
 194:./ros_lib/ros/node_handle.h ****          }
 195:./ros_lib/ros/node_handle.h ****          
 196:./ros_lib/ros/node_handle.h ****         /* reset if message has timed out */
 197:./ros_lib/ros/node_handle.h ****         if ( mode_ != MODE_FIRST_FF){ 
 198:./ros_lib/ros/node_handle.h ****           if (c_time > last_msg_timeout_time){
 199:./ros_lib/ros/node_handle.h ****             mode_ = MODE_FIRST_FF;
 200:./ros_lib/ros/node_handle.h ****           }
 201:./ros_lib/ros/node_handle.h ****         }
 202:./ros_lib/ros/node_handle.h **** 
 203:./ros_lib/ros/node_handle.h ****         /* while available buffer, read data */
 204:./ros_lib/ros/node_handle.h ****         while( true )
 205:./ros_lib/ros/node_handle.h ****         {
 206:./ros_lib/ros/node_handle.h ****           int data = hardware_.read();
 207:./ros_lib/ros/node_handle.h ****           if( data < 0 )
 208:./ros_lib/ros/node_handle.h ****             break;
ARM GAS  C:\DOCUME~1\Chuck\LOCALS~1\Temp\cc1frfi1.s 			page 29


 209:./ros_lib/ros/node_handle.h ****           checksum_ += data;
 210:./ros_lib/ros/node_handle.h ****           if( mode_ == MODE_MESSAGE ){        /* message data being recieved */
 211:./ros_lib/ros/node_handle.h ****             message_in[index_++] = data;
 212:./ros_lib/ros/node_handle.h ****             bytes_--;
 213:./ros_lib/ros/node_handle.h ****             if(bytes_ == 0)                  /* is message complete? if so, checksum */
 214:./ros_lib/ros/node_handle.h ****               mode_ = MODE_MSG_CHECKSUM;
 215:./ros_lib/ros/node_handle.h ****           }else if( mode_ == MODE_FIRST_FF ){
 216:./ros_lib/ros/node_handle.h ****             if(data == 0xff){
 217:./ros_lib/ros/node_handle.h ****               mode_++;
 218:./ros_lib/ros/node_handle.h ****               last_msg_timeout_time = c_time + MSG_TIMEOUT;
 219:./ros_lib/ros/node_handle.h ****             }
 220:./ros_lib/ros/node_handle.h ****             else if( hardware_.time() - c_time > (SYNC_SECONDS)){
 221:./ros_lib/ros/node_handle.h ****               /* We have been stuck in spinOnce too long, return error */
 222:./ros_lib/ros/node_handle.h ****               configured_=false;
 223:./ros_lib/ros/node_handle.h ****               return -2;
 224:./ros_lib/ros/node_handle.h ****             }
 225:./ros_lib/ros/node_handle.h ****           }else if( mode_ == MODE_PROTOCOL_VER ){
 226:./ros_lib/ros/node_handle.h ****             if(data == PROTOCOL_VER){
 227:./ros_lib/ros/node_handle.h ****               mode_++;
 228:./ros_lib/ros/node_handle.h ****             }else{
 229:./ros_lib/ros/node_handle.h ****               mode_ = MODE_FIRST_FF;
 230:./ros_lib/ros/node_handle.h ****               if (configured_ == false)
 231:./ros_lib/ros/node_handle.h ****                   requestSyncTime(); 	/* send a msg back showing our protocol version */
 232:./ros_lib/ros/node_handle.h ****             }
 233:./ros_lib/ros/node_handle.h **** 	  }else if( mode_ == MODE_SIZE_L ){   /* bottom half of message size */
 234:./ros_lib/ros/node_handle.h ****             bytes_ = data;
 235:./ros_lib/ros/node_handle.h ****             index_ = 0;
 236:./ros_lib/ros/node_handle.h ****             mode_++;
 237:./ros_lib/ros/node_handle.h ****             checksum_ = data;               /* first byte for calculating size checksum */
 238:./ros_lib/ros/node_handle.h ****           }else if( mode_ == MODE_SIZE_H ){   /* top half of message size */
 239:./ros_lib/ros/node_handle.h ****             bytes_ += data<<8;
 240:./ros_lib/ros/node_handle.h **** 	    mode_++;
 241:./ros_lib/ros/node_handle.h ****           }else if( mode_ == MODE_SIZE_CHECKSUM ){  
 242:./ros_lib/ros/node_handle.h ****             if( (checksum_%256) == 255)
 243:./ros_lib/ros/node_handle.h **** 	      mode_++;
 244:./ros_lib/ros/node_handle.h **** 	    else 
 245:./ros_lib/ros/node_handle.h **** 	      mode_ = MODE_FIRST_FF;          /* Abandon the frame if the msg len is wrong */
 246:./ros_lib/ros/node_handle.h **** 	  }else if( mode_ == MODE_TOPIC_L ){  /* bottom half of topic id */
 247:./ros_lib/ros/node_handle.h ****             topic_ = data;
 248:./ros_lib/ros/node_handle.h ****             mode_++;
 249:./ros_lib/ros/node_handle.h ****             checksum_ = data;               /* first byte included in checksum */
 250:./ros_lib/ros/node_handle.h ****           }else if( mode_ == MODE_TOPIC_H ){  /* top half of topic id */
 251:./ros_lib/ros/node_handle.h ****             topic_ += data<<8;
 252:./ros_lib/ros/node_handle.h ****             mode_ = MODE_MESSAGE;
 253:./ros_lib/ros/node_handle.h ****             if(bytes_ == 0)
 254:./ros_lib/ros/node_handle.h ****               mode_ = MODE_MSG_CHECKSUM;  
 255:./ros_lib/ros/node_handle.h ****           }else if( mode_ == MODE_MSG_CHECKSUM ){ /* do checksum */
 256:./ros_lib/ros/node_handle.h ****             mode_ = MODE_FIRST_FF;
 257:./ros_lib/ros/node_handle.h ****             if( (checksum_%256) == 255){
 258:./ros_lib/ros/node_handle.h ****               if(topic_ == TopicInfo::ID_PUBLISHER){
 259:./ros_lib/ros/node_handle.h ****                 requestSyncTime();
 260:./ros_lib/ros/node_handle.h ****                 negotiateTopics();
 261:./ros_lib/ros/node_handle.h ****                 last_sync_time = c_time;
 262:./ros_lib/ros/node_handle.h ****                 last_sync_receive_time = c_time;
 263:./ros_lib/ros/node_handle.h ****                 return -1;
 264:./ros_lib/ros/node_handle.h ****               }else if(topic_ == TopicInfo::ID_TIME){
 265:./ros_lib/ros/node_handle.h ****                 syncTime(message_in);
ARM GAS  C:\DOCUME~1\Chuck\LOCALS~1\Temp\cc1frfi1.s 			page 30


 266:./ros_lib/ros/node_handle.h ****               #if PARAM_REQ_SUPPORT
 267:./ros_lib/ros/node_handle.h ****               }else if (topic_ == TopicInfo::ID_PARAMETER_REQUEST){
 268:./ros_lib/ros/node_handle.h ****                   req_param_resp.deserialize(message_in);
 269:./ros_lib/ros/node_handle.h ****                   param_recieved= true;
 270:./ros_lib/ros/node_handle.h ****               #endif
 271:./ros_lib/ros/node_handle.h ****               }else if(topic_ == TopicInfo::ID_TX_STOP){
 272:./ros_lib/ros/node_handle.h ****                   configured_ = false;
 273:./ros_lib/ros/node_handle.h ****               }else{
 274:./ros_lib/ros/node_handle.h ****                 if(subscribers[topic_-100])
 275:./ros_lib/ros/node_handle.h ****                   subscribers[topic_-100]->callback( message_in );
 276:./ros_lib/ros/node_handle.h ****               }
 277:./ros_lib/ros/node_handle.h ****             }
 278:./ros_lib/ros/node_handle.h ****           }
 279:./ros_lib/ros/node_handle.h ****         }
 280:./ros_lib/ros/node_handle.h **** 
 281:./ros_lib/ros/node_handle.h ****         /* occasionally sync time */
 282:./ros_lib/ros/node_handle.h ****         if( configured_ && ((c_time-last_sync_time) > (SYNC_SECONDS*500) )){
 283:./ros_lib/ros/node_handle.h ****           requestSyncTime();
 284:./ros_lib/ros/node_handle.h ****           last_sync_time = c_time;
 285:./ros_lib/ros/node_handle.h ****         }
 286:./ros_lib/ros/node_handle.h **** 
 287:./ros_lib/ros/node_handle.h ****         return 0;
 288:./ros_lib/ros/node_handle.h ****       }
 289:./ros_lib/ros/node_handle.h **** 
 290:./ros_lib/ros/node_handle.h **** 
 291:./ros_lib/ros/node_handle.h ****       /* Are we connected to the PC? */
 292:./ros_lib/ros/node_handle.h ****       virtual bool connected() {
 293:./ros_lib/ros/node_handle.h ****         return configured_;
 294:./ros_lib/ros/node_handle.h ****       };
 295:./ros_lib/ros/node_handle.h **** 
 296:./ros_lib/ros/node_handle.h ****       /********************************************************************
 297:./ros_lib/ros/node_handle.h ****        * Time functions
 298:./ros_lib/ros/node_handle.h ****        */
 299:./ros_lib/ros/node_handle.h **** 
 300:./ros_lib/ros/node_handle.h ****       void requestSyncTime()
 301:./ros_lib/ros/node_handle.h ****       {
 302:./ros_lib/ros/node_handle.h ****         std_msgs::Time t;
 303:./ros_lib/ros/node_handle.h ****         publish(TopicInfo::ID_TIME, &t);
 304:./ros_lib/ros/node_handle.h ****         rt_time = hardware_.time();
 305:./ros_lib/ros/node_handle.h ****       }
 306:./ros_lib/ros/node_handle.h **** 
 307:./ros_lib/ros/node_handle.h ****       void syncTime( unsigned char * data )
 308:./ros_lib/ros/node_handle.h ****       {
 309:./ros_lib/ros/node_handle.h ****         std_msgs::Time t;
 310:./ros_lib/ros/node_handle.h ****         unsigned long offset = hardware_.time() - rt_time;
 311:./ros_lib/ros/node_handle.h **** 
 312:./ros_lib/ros/node_handle.h ****         t.deserialize(data);
 313:./ros_lib/ros/node_handle.h ****         t.data.sec += offset/1000;
 314:./ros_lib/ros/node_handle.h ****         t.data.nsec += (offset%1000)*1000000UL;
 315:./ros_lib/ros/node_handle.h **** 
 316:./ros_lib/ros/node_handle.h ****         this->setNow(t.data);
 317:./ros_lib/ros/node_handle.h ****         last_sync_receive_time = hardware_.time();
 318:./ros_lib/ros/node_handle.h ****       }
 319:./ros_lib/ros/node_handle.h **** 
 320:./ros_lib/ros/node_handle.h ****       Time now(){
 321:./ros_lib/ros/node_handle.h ****         unsigned long ms = hardware_.time();
 322:./ros_lib/ros/node_handle.h ****         Time current_time;
ARM GAS  C:\DOCUME~1\Chuck\LOCALS~1\Temp\cc1frfi1.s 			page 31


 323:./ros_lib/ros/node_handle.h ****         current_time.sec = ms/1000 + sec_offset;
 324:./ros_lib/ros/node_handle.h ****         current_time.nsec = (ms%1000)*1000000UL + nsec_offset;
 325:./ros_lib/ros/node_handle.h ****         normalizeSecNSec(current_time.sec, current_time.nsec);
 326:./ros_lib/ros/node_handle.h ****         return current_time;
 327:./ros_lib/ros/node_handle.h ****       }
 328:./ros_lib/ros/node_handle.h **** 
 329:./ros_lib/ros/node_handle.h ****       void setNow( Time & new_now )
 330:./ros_lib/ros/node_handle.h ****       {
 331:./ros_lib/ros/node_handle.h ****         unsigned long ms = hardware_.time();
 332:./ros_lib/ros/node_handle.h ****         sec_offset = new_now.sec - ms/1000 - 1;
 333:./ros_lib/ros/node_handle.h ****         nsec_offset = new_now.nsec - (ms%1000)*1000000UL + 1000000000UL;
 334:./ros_lib/ros/node_handle.h ****         normalizeSecNSec(sec_offset, nsec_offset);
 335:./ros_lib/ros/node_handle.h ****       }
 336:./ros_lib/ros/node_handle.h **** 
 337:./ros_lib/ros/node_handle.h ****       /********************************************************************
 338:./ros_lib/ros/node_handle.h ****        * Topic Management 
 339:./ros_lib/ros/node_handle.h ****        */
 340:./ros_lib/ros/node_handle.h **** 
 341:./ros_lib/ros/node_handle.h ****       /* Register a new publisher */    
 342:./ros_lib/ros/node_handle.h ****       bool advertise(Publisher & p)
 1042              		.loc 7 342 0
 1043              		.cfi_startproc
 1044 0000 80B5     		push	{r7, lr}
 1045              		.cfi_def_cfa_offset 8
 1046              		.cfi_offset 7, -8
 1047              		.cfi_offset 14, -4
 1048 0002 84B0     		sub	sp, sp, #16
 1049              		.cfi_def_cfa_offset 24
 1050 0004 00AF     		add	r7, sp, #0
 1051              		.cfi_def_cfa_register 7
 1052 0006 7860     		str	r0, [r7, #4]
 1053 0008 3960     		str	r1, [r7]
 1054              	.LBB11:
 1055              	.LBB12:
 343:./ros_lib/ros/node_handle.h ****       {
 344:./ros_lib/ros/node_handle.h ****         for(int i = 0; i < MAX_PUBLISHERS; i++){
 1056              		.loc 7 344 0
 1057 000a 0023     		mov	r3, #0
 1058 000c FB60     		str	r3, [r7, #12]
 1059 000e 19E0     		b	.L63
 1060              	.L66:
 345:./ros_lib/ros/node_handle.h ****           if(publishers[i] == 0){ // empty slot
 1061              		.loc 7 345 0
 1062 0010 7B68     		ldr	r3, [r7, #4]
 1063 0012 FA68     		ldr	r2, [r7, #12]
 1064 0014 6A32     		add	r2, r2, #106
 1065 0016 9200     		lsl	r2, r2, #2
 1066 0018 D358     		ldr	r3, [r2, r3]
 1067 001a 002B     		cmp	r3, #0
 1068 001c 0FD1     		bne	.L64
 346:./ros_lib/ros/node_handle.h ****             publishers[i] = &p;
 1069              		.loc 7 346 0
 1070 001e 7B68     		ldr	r3, [r7, #4]
 1071 0020 FA68     		ldr	r2, [r7, #12]
 1072 0022 6A32     		add	r2, r2, #106
 1073 0024 9200     		lsl	r2, r2, #2
 1074 0026 3968     		ldr	r1, [r7]
ARM GAS  C:\DOCUME~1\Chuck\LOCALS~1\Temp\cc1frfi1.s 			page 32


 1075 0028 D150     		str	r1, [r2, r3]
 347:./ros_lib/ros/node_handle.h ****             p.id_ = i+100+MAX_SUBSCRIBERS;
 1076              		.loc 7 347 0
 1077 002a FB68     		ldr	r3, [r7, #12]
 1078 002c 1A1C     		mov	r2, r3
 1079 002e 6E32     		add	r2, r2, #110
 1080 0030 3B68     		ldr	r3, [r7]
 1081 0032 9A60     		str	r2, [r3, #8]
 348:./ros_lib/ros/node_handle.h ****             p.nh_ = this;
 1082              		.loc 7 348 0
 1083 0034 7A68     		ldr	r2, [r7, #4]
 1084 0036 3B68     		ldr	r3, [r7]
 1085 0038 DA60     		str	r2, [r3, #12]
 349:./ros_lib/ros/node_handle.h ****             return true;
 1086              		.loc 7 349 0
 1087 003a 0123     		mov	r3, #1
 1088 003c 06E0     		b	.L65
 1089              	.L64:
 344:./ros_lib/ros/node_handle.h ****         for(int i = 0; i < MAX_PUBLISHERS; i++){
 1090              		.loc 7 344 0
 1091 003e FB68     		ldr	r3, [r7, #12]
 1092 0040 0133     		add	r3, r3, #1
 1093 0042 FB60     		str	r3, [r7, #12]
 1094              	.L63:
 344:./ros_lib/ros/node_handle.h ****         for(int i = 0; i < MAX_PUBLISHERS; i++){
 1095              		.loc 7 344 0 is_stmt 0 discriminator 1
 1096 0044 FB68     		ldr	r3, [r7, #12]
 1097 0046 132B     		cmp	r3, #19
 1098 0048 E2DD     		ble	.L66
 1099              	.LBE12:
 350:./ros_lib/ros/node_handle.h ****           }
 351:./ros_lib/ros/node_handle.h ****         }
 352:./ros_lib/ros/node_handle.h ****         return false;
 1100              		.loc 7 352 0 is_stmt 1
 1101 004a 0023     		mov	r3, #0
 1102              	.L65:
 1103              	.LBE11:
 353:./ros_lib/ros/node_handle.h ****       }
 1104              		.loc 7 353 0
 1105 004c 181C     		mov	r0, r3
 1106 004e BD46     		mov	sp, r7
 1107 0050 04B0     		add	sp, sp, #16
 1108              		@ sp needed
 1109 0052 80BD     		pop	{r7, pc}
 1110              		.cfi_endproc
 1111              	.LFE175:
 1112              		.size	_ZN3ros11NodeHandle_I13Psoc4HardwareLi10ELi20ELi200ELi200EE9advertiseERNS_9PublisherE, .-_ZN
 1113              		.weak	_ZTVN8std_msgs5Int16E
 1114              		.section	.rodata._ZTVN8std_msgs5Int16E,"aG",%progbits,_ZTVN8std_msgs5Int16E,comdat
 1115              		.align	3
 1116              		.type	_ZTVN8std_msgs5Int16E, %object
 1117              		.size	_ZTVN8std_msgs5Int16E, 24
 1118              	_ZTVN8std_msgs5Int16E:
 1119 0000 00000000 		.word	0
 1120 0004 00000000 		.word	0
 1121 0008 00000000 		.word	_ZNK8std_msgs5Int169serializeEPh
 1122 000c 00000000 		.word	_ZN8std_msgs5Int1611deserializeEPh
ARM GAS  C:\DOCUME~1\Chuck\LOCALS~1\Temp\cc1frfi1.s 			page 33


 1123 0010 00000000 		.word	_ZN8std_msgs5Int167getTypeEv
 1124 0014 00000000 		.word	_ZN8std_msgs5Int166getMD5Ev
 1125              		.weak	_ZTVN8std_msgs5Int32E
 1126              		.section	.rodata._ZTVN8std_msgs5Int32E,"aG",%progbits,_ZTVN8std_msgs5Int32E,comdat
 1127              		.align	3
 1128              		.type	_ZTVN8std_msgs5Int32E, %object
 1129              		.size	_ZTVN8std_msgs5Int32E, 24
 1130              	_ZTVN8std_msgs5Int32E:
 1131 0000 00000000 		.word	0
 1132 0004 00000000 		.word	0
 1133 0008 00000000 		.word	_ZNK8std_msgs5Int329serializeEPh
 1134 000c 00000000 		.word	_ZN8std_msgs5Int3211deserializeEPh
 1135 0010 00000000 		.word	_ZN8std_msgs5Int327getTypeEv
 1136 0014 00000000 		.word	_ZN8std_msgs5Int326getMD5Ev
 1137              		.weak	_ZTVN3ros3MsgE
 1138              		.section	.rodata._ZTVN3ros3MsgE,"aG",%progbits,_ZTVN3ros3MsgE,comdat
 1139              		.align	3
 1140              		.type	_ZTVN3ros3MsgE, %object
 1141              		.size	_ZTVN3ros3MsgE, 24
 1142              	_ZTVN3ros3MsgE:
 1143 0000 00000000 		.word	0
 1144 0004 00000000 		.word	0
 1145 0008 00000000 		.word	__cxa_pure_virtual
 1146 000c 00000000 		.word	__cxa_pure_virtual
 1147 0010 00000000 		.word	__cxa_pure_virtual
 1148 0014 00000000 		.word	__cxa_pure_virtual
 1149              		.section	.rodata
 1150 0065 000000   		.align	2
 1151              	.LC30:
 1152 0068 656E636F 		.ascii	"encoder\000"
 1152      64657200 
 1153              		.align	2
 1154              	.LC34:
 1155 0070 636F756E 		.ascii	"counter\000"
 1155      74657200 
 1156              		.section	.text._Z41__static_initialization_and_destruction_0ii,"ax",%progbits
 1157              		.align	2
 1158              		.code	16
 1159              		.thumb_func
 1160              		.type	_Z41__static_initialization_and_destruction_0ii, %function
 1161              	_Z41__static_initialization_and_destruction_0ii:
 1162              	.LFB176:
  68:.\ros_lib\examples\Encoder/Encoder.cpp **** 
  69:.\ros_lib\examples\Encoder/Encoder.cpp **** } // namespace Encoder
 1163              		.loc 6 69 0
 1164              		.cfi_startproc
 1165 0000 80B5     		push	{r7, lr}
 1166              		.cfi_def_cfa_offset 8
 1167              		.cfi_offset 7, -8
 1168              		.cfi_offset 14, -4
 1169 0002 82B0     		sub	sp, sp, #8
 1170              		.cfi_def_cfa_offset 16
 1171 0004 00AF     		add	r7, sp, #0
 1172              		.cfi_def_cfa_register 7
 1173 0006 7860     		str	r0, [r7, #4]
 1174 0008 3960     		str	r1, [r7]
 1175              		.loc 6 69 0
ARM GAS  C:\DOCUME~1\Chuck\LOCALS~1\Temp\cc1frfi1.s 			page 34


 1176 000a 7B68     		ldr	r3, [r7, #4]
 1177 000c 012B     		cmp	r3, #1
 1178 000e 1DD1     		bne	.L67
 1179              		.loc 6 69 0 is_stmt 0 discriminator 1
 1180 0010 3A68     		ldr	r2, [r7]
 1181 0012 104B     		ldr	r3, .L69
 1182 0014 9A42     		cmp	r2, r3
 1183 0016 19D1     		bne	.L67
  20:.\ros_lib\examples\Encoder/Encoder.cpp **** std_msgs::Int32 encoder_msg;
 1184              		.loc 6 20 0 is_stmt 1
 1185 0018 0F4B     		ldr	r3, .L69+4
 1186 001a 181C     		mov	r0, r3
 1187 001c FFF7FEFF 		bl	_ZN8std_msgs5Int32C1Ev
  21:.\ros_lib\examples\Encoder/Encoder.cpp **** ros::Publisher p("encoder", &encoder_msg);
 1188              		.loc 6 21 0
 1189 0020 0E49     		ldr	r1, .L69+8
 1190 0022 0F4A     		ldr	r2, .L69+12
 1191 0024 0C4B     		ldr	r3, .L69+4
 1192 0026 081C     		mov	r0, r1
 1193 0028 111C     		mov	r1, r2
 1194 002a 1A1C     		mov	r2, r3
 1195 002c 0023     		mov	r3, #0
 1196 002e FFF7FEFF 		bl	_ZN3ros9PublisherC1EPKcPNS_3MsgEi
  22:.\ros_lib\examples\Encoder/Encoder.cpp **** std_msgs::Int16 counter_msg;
 1197              		.loc 6 22 0
 1198 0032 0C4B     		ldr	r3, .L69+16
 1199 0034 181C     		mov	r0, r3
 1200 0036 FFF7FEFF 		bl	_ZN8std_msgs5Int16C1Ev
  23:.\ros_lib\examples\Encoder/Encoder.cpp **** ros::Publisher pc("counter", &counter_msg);
 1201              		.loc 6 23 0
 1202 003a 0B49     		ldr	r1, .L69+20
 1203 003c 0B4A     		ldr	r2, .L69+24
 1204 003e 094B     		ldr	r3, .L69+16
 1205 0040 081C     		mov	r0, r1
 1206 0042 111C     		mov	r1, r2
 1207 0044 1A1C     		mov	r2, r3
 1208 0046 0023     		mov	r3, #0
 1209 0048 FFF7FEFF 		bl	_ZN3ros9PublisherC1EPKcPNS_3MsgEi
 1210              	.L67:
 1211              		.loc 6 69 0
 1212 004c BD46     		mov	sp, r7
 1213 004e 02B0     		add	sp, sp, #8
 1214              		@ sp needed
 1215 0050 80BD     		pop	{r7, pc}
 1216              	.L70:
 1217 0052 C046     		.align	2
 1218              	.L69:
 1219 0054 FFFF0000 		.word	65535
 1220 0058 00000000 		.word	_ZN7Encoder11encoder_msgE
 1221 005c 00000000 		.word	_ZN7Encoder1pE
 1222 0060 68000000 		.word	.LC30
 1223 0064 00000000 		.word	_ZN7Encoder11counter_msgE
 1224 0068 00000000 		.word	_ZN7Encoder2pcE
 1225 006c 70000000 		.word	.LC34
 1226              		.cfi_endproc
 1227              	.LFE176:
 1228              		.size	_Z41__static_initialization_and_destruction_0ii, .-_Z41__static_initialization_and_destructi
ARM GAS  C:\DOCUME~1\Chuck\LOCALS~1\Temp\cc1frfi1.s 			page 35


 1229              		.section	.rodata
 1230              		.align	2
 1231              		.type	_ZN7EncoderL17kReportIntervalMsE, %object
 1232              		.size	_ZN7EncoderL17kReportIntervalMsE, 4
 1233              	_ZN7EncoderL17kReportIntervalMsE:
 1234 0078 C8000000 		.word	200
 1235              		.align	2
 1236              		.type	_ZN7EncoderL15kReadIntervalMsE, %object
 1237              		.size	_ZN7EncoderL15kReadIntervalMsE, 4
 1238              	_ZN7EncoderL15kReadIntervalMsE:
 1239 007c 0A000000 		.word	10
 1240              		.align	2
 1241              		.type	_ZN14rosserial_msgsL12REQUESTPARAME, %object
 1242              		.size	_ZN14rosserial_msgsL12REQUESTPARAME, 28
 1243              	_ZN14rosserial_msgsL12REQUESTPARAME:
 1244 0080 726F7373 		.ascii	"rosserial_msgs/RequestParam\000"
 1244      65726961 
 1244      6C5F6D73 
 1244      67732F52 
 1244      65717565 
 1245              		.section	.text._GLOBAL__sub_I__ZN7Encoder11encoder_msgE,"ax",%progbits
 1246              		.align	2
 1247              		.code	16
 1248              		.thumb_func
 1249              		.type	_GLOBAL__sub_I__ZN7Encoder11encoder_msgE, %function
 1250              	_GLOBAL__sub_I__ZN7Encoder11encoder_msgE:
 1251              	.LFB177:
 1252              		.loc 6 69 0
 1253              		.cfi_startproc
 1254 0000 80B5     		push	{r7, lr}
 1255              		.cfi_def_cfa_offset 8
 1256              		.cfi_offset 7, -8
 1257              		.cfi_offset 14, -4
 1258 0002 00AF     		add	r7, sp, #0
 1259              		.cfi_def_cfa_register 7
 1260              		.loc 6 69 0
 1261 0004 034B     		ldr	r3, .L72
 1262 0006 0120     		mov	r0, #1
 1263 0008 191C     		mov	r1, r3
 1264 000a FFF7FEFF 		bl	_Z41__static_initialization_and_destruction_0ii
 1265 000e BD46     		mov	sp, r7
 1266              		@ sp needed
 1267 0010 80BD     		pop	{r7, pc}
 1268              	.L73:
 1269 0012 C046     		.align	2
 1270              	.L72:
 1271 0014 FFFF0000 		.word	65535
 1272              		.cfi_endproc
 1273              	.LFE177:
 1274              		.size	_GLOBAL__sub_I__ZN7Encoder11encoder_msgE, .-_GLOBAL__sub_I__ZN7Encoder11encoder_msgE
 1275              		.section	.init_array,"aw",%init_array
 1276              		.align	2
 1277 0000 00000000 		.word	_GLOBAL__sub_I__ZN7Encoder11encoder_msgE(target1)
 1278              		.text
 1279              	.Letext0:
 1280              		.file 8 "c:\\program files\\cypress\\psoc creator\\3.1\\psoc creator\\import\\gnu_cs\\arm\\4.8.4\\
 1281              		.file 9 "c:\\program files\\cypress\\psoc creator\\3.1\\psoc creator\\import\\gnu_cs\\arm\\4.8.4\\
ARM GAS  C:\DOCUME~1\Chuck\LOCALS~1\Temp\cc1frfi1.s 			page 36


 1282              		.file 10 "./ros_lib/ros.h"
 1283              		.file 11 "./ros_lib/rosserial_msgs/TopicInfo.h"
 1284              		.file 12 "./ros_lib/Psoc4Hardware.h"
 1285              		.file 13 ".\\Generated_Source\\PSoC4/cytypes.h"
 1286              		.file 14 "./ros_lib/std_msgs/Time.h"
 1287              		.file 15 ".\\ros_lib\\examples\\Encoder\\Encoder.h"
 1288              		.file 16 "./ros_lib/rosserial_msgs/RequestParam.h"
 1289              		.file 17 "./ros_lib/Uarts.h"