ARM GAS  C:\DOCUME~1\Chuck\LOCALS~1\Temp\ccqhXblh.s 			page 1


   1              		.cpu cortex-m0
   2              		.fpu softvfp
   3              		.eabi_attribute 20, 1
   4              		.eabi_attribute 21, 1
   5              		.eabi_attribute 23, 3
   6              		.eabi_attribute 24, 1
   7              		.eabi_attribute 25, 1
   8              		.eabi_attribute 26, 1
   9              		.eabi_attribute 30, 6
  10              		.eabi_attribute 34, 0
  11              		.eabi_attribute 18, 4
  12              		.code	16
  13              		.file	"HelloWorld.cpp"
  14              		.text
  15              	.Ltext0:
  16              		.cfi_sections	.debug_frame
  17              		.section	.text._ZN3ros3MsgC2Ev,"axG",%progbits,_ZN3ros3MsgC5Ev,comdat
  18              		.align	2
  19              		.weak	_ZN3ros3MsgC2Ev
  20              		.code	16
  21              		.thumb_func
  22              		.type	_ZN3ros3MsgC2Ev, %function
  23              	_ZN3ros3MsgC2Ev:
  24              	.LFB21:
  25              		.file 1 "./ros_lib/ros/msg.h"
   1:./ros_lib/ros/msg.h **** /* 
   2:./ros_lib/ros/msg.h ****  * Software License Agreement (BSD License)
   3:./ros_lib/ros/msg.h ****  *
   4:./ros_lib/ros/msg.h ****  * Copyright (c) 2011, Willow Garage, Inc.
   5:./ros_lib/ros/msg.h ****  * All rights reserved.
   6:./ros_lib/ros/msg.h ****  *
   7:./ros_lib/ros/msg.h ****  * Redistribution and use in source and binary forms, with or without
   8:./ros_lib/ros/msg.h ****  * modification, are permitted provided that the following conditions
   9:./ros_lib/ros/msg.h ****  * are met:
  10:./ros_lib/ros/msg.h ****  *
  11:./ros_lib/ros/msg.h ****  *  * Redistributions of source code must retain the above copyright
  12:./ros_lib/ros/msg.h ****  *    notice, this list of conditions and the following disclaimer.
  13:./ros_lib/ros/msg.h ****  *  * Redistributions in binary form must reproduce the above
  14:./ros_lib/ros/msg.h ****  *    copyright notice, this list of conditions and the following
  15:./ros_lib/ros/msg.h ****  *    disclaimer in the documentation and/or other materials provided
  16:./ros_lib/ros/msg.h ****  *    with the distribution.
  17:./ros_lib/ros/msg.h ****  *  * Neither the name of Willow Garage, Inc. nor the names of its
  18:./ros_lib/ros/msg.h ****  *    contributors may be used to endorse or promote prducts derived
  19:./ros_lib/ros/msg.h ****  *    from this software without specific prior written permission.
  20:./ros_lib/ros/msg.h ****  *
  21:./ros_lib/ros/msg.h ****  * THIS SOFTWARE IS PROVIDED BY THE COPYRIGHT HOLDERS AND CONTRIBUTORS
  22:./ros_lib/ros/msg.h ****  * "AS IS" AND ANY EXPRESS OR IMPLIED WARRANTIES, INCLUDING, BUT NOT
  23:./ros_lib/ros/msg.h ****  * LIMITED TO, THE IMPLIED WARRANTIES OF MERCHANTABILITY AND FITNESS
  24:./ros_lib/ros/msg.h ****  * FOR A PARTICULAR PURPOSE ARE DISCLAIMED. IN NO EVENT SHALL THE
  25:./ros_lib/ros/msg.h ****  * COPYRIGHT OWNER OR CONTRIBUTORS BE LIABLE FOR ANY DIRECT, INDIRECT,
  26:./ros_lib/ros/msg.h ****  * INCIDENTAL, SPECIAL, EXEMPLARY, OR CONSEQUENTIAL DAMAGES (INCLUDING,
  27:./ros_lib/ros/msg.h ****  * BUT NOT LIMITED TO, PROCUREMENT OF SUBSTITUTE GOODS OR SERVICES;
  28:./ros_lib/ros/msg.h ****  * LOSS OF USE, DATA, OR PROFITS; OR BUSINESS INTERRUPTION) HOWEVER
  29:./ros_lib/ros/msg.h ****  * CAUSED AND ON ANY THEORY OF LIABILITY, WHETHER IN CONTRACT, STRICT
  30:./ros_lib/ros/msg.h ****  * LIABILITY, OR TORT (INCLUDING NEGLIGENCE OR OTHERWISE) ARISING IN
  31:./ros_lib/ros/msg.h ****  * ANY WAY OUT OF THE USE OF THIS SOFTWARE, EVEN IF ADVISED OF THE
  32:./ros_lib/ros/msg.h ****  * POSSIBILITY OF SUCH DAMAGE.
ARM GAS  C:\DOCUME~1\Chuck\LOCALS~1\Temp\ccqhXblh.s 			page 2


  33:./ros_lib/ros/msg.h ****  */
  34:./ros_lib/ros/msg.h **** 
  35:./ros_lib/ros/msg.h **** #ifndef _ROS_MSG_H_
  36:./ros_lib/ros/msg.h **** #define _ROS_MSG_H_
  37:./ros_lib/ros/msg.h **** 
  38:./ros_lib/ros/msg.h **** #include <stdint.h>
  39:./ros_lib/ros/msg.h **** 
  40:./ros_lib/ros/msg.h **** namespace ros {
  41:./ros_lib/ros/msg.h **** 
  42:./ros_lib/ros/msg.h **** /* Base Message Type */
  43:./ros_lib/ros/msg.h **** class Msg
  26              		.loc 1 43 0
  27              		.cfi_startproc
  28 0000 80B5     		push	{r7, lr}
  29              		.cfi_def_cfa_offset 8
  30              		.cfi_offset 7, -8
  31              		.cfi_offset 14, -4
  32 0002 82B0     		sub	sp, sp, #8
  33              		.cfi_def_cfa_offset 16
  34 0004 00AF     		add	r7, sp, #0
  35              		.cfi_def_cfa_register 7
  36 0006 7860     		str	r0, [r7, #4]
  37              	.LBB2:
  38              		.loc 1 43 0
  39 0008 7B68     		ldr	r3, [r7, #4]
  40 000a 034A     		ldr	r2, .L4
  41 000c 1A60     		str	r2, [r3]
  42              	.LBE2:
  43 000e 7B68     		ldr	r3, [r7, #4]
  44 0010 181C     		mov	r0, r3
  45 0012 BD46     		mov	sp, r7
  46 0014 02B0     		add	sp, sp, #8
  47              		@ sp needed
  48 0016 80BD     		pop	{r7, pc}
  49              	.L5:
  50              		.align	2
  51              	.L4:
  52 0018 08000000 		.word	_ZTVN3ros3MsgE+8
  53              		.cfi_endproc
  54              	.LFE21:
  55              		.size	_ZN3ros3MsgC2Ev, .-_ZN3ros3MsgC2Ev
  56              		.weak	_ZN3ros3MsgC1Ev
  57              		.thumb_set _ZN3ros3MsgC1Ev,_ZN3ros3MsgC2Ev
  58              		.section	.text._ZN3ros9PublisherC2EPKcPNS_3MsgEi,"axG",%progbits,_ZN3ros9PublisherC5EPKcPNS_3MsgEi
  59              		.align	2
  60              		.weak	_ZN3ros9PublisherC2EPKcPNS_3MsgEi
  61              		.code	16
  62              		.thumb_func
  63              		.type	_ZN3ros9PublisherC2EPKcPNS_3MsgEi, %function
  64              	_ZN3ros9PublisherC2EPKcPNS_3MsgEi:
  65              	.LFB58:
  66              		.file 2 "./ros_lib/ros/publisher.h"
   1:./ros_lib/ros/publisher.h **** /* 
   2:./ros_lib/ros/publisher.h ****  * Software License Agreement (BSD License)
   3:./ros_lib/ros/publisher.h ****  *
   4:./ros_lib/ros/publisher.h ****  * Copyright (c) 2011, Willow Garage, Inc.
   5:./ros_lib/ros/publisher.h ****  * All rights reserved.
ARM GAS  C:\DOCUME~1\Chuck\LOCALS~1\Temp\ccqhXblh.s 			page 3


   6:./ros_lib/ros/publisher.h ****  *
   7:./ros_lib/ros/publisher.h ****  * Redistribution and use in source and binary forms, with or without
   8:./ros_lib/ros/publisher.h ****  * modification, are permitted provided that the following conditions
   9:./ros_lib/ros/publisher.h ****  * are met:
  10:./ros_lib/ros/publisher.h ****  *
  11:./ros_lib/ros/publisher.h ****  *  * Redistributions of source code must retain the above copyright
  12:./ros_lib/ros/publisher.h ****  *    notice, this list of conditions and the following disclaimer.
  13:./ros_lib/ros/publisher.h ****  *  * Redistributions in binary form must reproduce the above
  14:./ros_lib/ros/publisher.h ****  *    copyright notice, this list of conditions and the following
  15:./ros_lib/ros/publisher.h ****  *    disclaimer in the documentation and/or other materials provided
  16:./ros_lib/ros/publisher.h ****  *    with the distribution.
  17:./ros_lib/ros/publisher.h ****  *  * Neither the name of Willow Garage, Inc. nor the names of its
  18:./ros_lib/ros/publisher.h ****  *    contributors may be used to endorse or promote prducts derived
  19:./ros_lib/ros/publisher.h ****  *    from this software without specific prior written permission.
  20:./ros_lib/ros/publisher.h ****  *
  21:./ros_lib/ros/publisher.h ****  * THIS SOFTWARE IS PROVIDED BY THE COPYRIGHT HOLDERS AND CONTRIBUTORS
  22:./ros_lib/ros/publisher.h ****  * "AS IS" AND ANY EXPRESS OR IMPLIED WARRANTIES, INCLUDING, BUT NOT
  23:./ros_lib/ros/publisher.h ****  * LIMITED TO, THE IMPLIED WARRANTIES OF MERCHANTABILITY AND FITNESS
  24:./ros_lib/ros/publisher.h ****  * FOR A PARTICULAR PURPOSE ARE DISCLAIMED. IN NO EVENT SHALL THE
  25:./ros_lib/ros/publisher.h ****  * COPYRIGHT OWNER OR CONTRIBUTORS BE LIABLE FOR ANY DIRECT, INDIRECT,
  26:./ros_lib/ros/publisher.h ****  * INCIDENTAL, SPECIAL, EXEMPLARY, OR CONSEQUENTIAL DAMAGES (INCLUDING,
  27:./ros_lib/ros/publisher.h ****  * BUT NOT LIMITED TO, PROCUREMENT OF SUBSTITUTE GOODS OR SERVICES;
  28:./ros_lib/ros/publisher.h ****  * LOSS OF USE, DATA, OR PROFITS; OR BUSINESS INTERRUPTION) HOWEVER
  29:./ros_lib/ros/publisher.h ****  * CAUSED AND ON ANY THEORY OF LIABILITY, WHETHER IN CONTRACT, STRICT
  30:./ros_lib/ros/publisher.h ****  * LIABILITY, OR TORT (INCLUDING NEGLIGENCE OR OTHERWISE) ARISING IN
  31:./ros_lib/ros/publisher.h ****  * ANY WAY OUT OF THE USE OF THIS SOFTWARE, EVEN IF ADVISED OF THE
  32:./ros_lib/ros/publisher.h ****  * POSSIBILITY OF SUCH DAMAGE.
  33:./ros_lib/ros/publisher.h ****  */
  34:./ros_lib/ros/publisher.h **** 
  35:./ros_lib/ros/publisher.h **** #ifndef _ROS_PUBLISHER_H_
  36:./ros_lib/ros/publisher.h **** #define _ROS_PUBLISHER_H_
  37:./ros_lib/ros/publisher.h **** 
  38:./ros_lib/ros/publisher.h **** #include "rosserial_msgs/TopicInfo.h"
  39:./ros_lib/ros/publisher.h **** #include "node_handle.h"
  40:./ros_lib/ros/publisher.h **** 
  41:./ros_lib/ros/publisher.h **** namespace ros {
  42:./ros_lib/ros/publisher.h **** 
  43:./ros_lib/ros/publisher.h ****   /* Generic Publisher */
  44:./ros_lib/ros/publisher.h ****   class Publisher
  45:./ros_lib/ros/publisher.h ****   {
  46:./ros_lib/ros/publisher.h ****     public:
  47:./ros_lib/ros/publisher.h ****       Publisher( const char * topic_name, Msg * msg, int endpoint=rosserial_msgs::TopicInfo::ID_PUB
  67              		.loc 2 47 0
  68              		.cfi_startproc
  69 0000 80B5     		push	{r7, lr}
  70              		.cfi_def_cfa_offset 8
  71              		.cfi_offset 7, -8
  72              		.cfi_offset 14, -4
  73 0002 84B0     		sub	sp, sp, #16
  74              		.cfi_def_cfa_offset 24
  75 0004 00AF     		add	r7, sp, #0
  76              		.cfi_def_cfa_register 7
  77 0006 F860     		str	r0, [r7, #12]
  78 0008 B960     		str	r1, [r7, #8]
  79 000a 7A60     		str	r2, [r7, #4]
  80 000c 3B60     		str	r3, [r7]
  81              	.LBB3:
ARM GAS  C:\DOCUME~1\Chuck\LOCALS~1\Temp\ccqhXblh.s 			page 4


  48:./ros_lib/ros/publisher.h ****         topic_(topic_name), 
  49:./ros_lib/ros/publisher.h ****         msg_(msg),
  50:./ros_lib/ros/publisher.h ****         endpoint_(endpoint) {};
  82              		.loc 2 50 0
  83 000e FB68     		ldr	r3, [r7, #12]
  84 0010 BA68     		ldr	r2, [r7, #8]
  85 0012 1A60     		str	r2, [r3]
  86 0014 FB68     		ldr	r3, [r7, #12]
  87 0016 7A68     		ldr	r2, [r7, #4]
  88 0018 5A60     		str	r2, [r3, #4]
  89 001a FB68     		ldr	r3, [r7, #12]
  90 001c 3A68     		ldr	r2, [r7]
  91 001e 1A61     		str	r2, [r3, #16]
  92              	.LBE3:
  93 0020 FB68     		ldr	r3, [r7, #12]
  94 0022 181C     		mov	r0, r3
  95 0024 BD46     		mov	sp, r7
  96 0026 04B0     		add	sp, sp, #16
  97              		@ sp needed
  98 0028 80BD     		pop	{r7, pc}
  99              		.cfi_endproc
 100              	.LFE58:
 101              		.size	_ZN3ros9PublisherC2EPKcPNS_3MsgEi, .-_ZN3ros9PublisherC2EPKcPNS_3MsgEi
 102              		.weak	_ZN3ros9PublisherC1EPKcPNS_3MsgEi
 103              		.thumb_set _ZN3ros9PublisherC1EPKcPNS_3MsgEi,_ZN3ros9PublisherC2EPKcPNS_3MsgEi
 104 002a C046     		.section	.text._ZN3ros9Publisher7publishEPKNS_3MsgE,"axG",%progbits,_ZN3ros9Publisher7publishEPKNS
 105              		.align	2
 106              		.weak	_ZN3ros9Publisher7publishEPKNS_3MsgE
 107              		.code	16
 108              		.thumb_func
 109              		.type	_ZN3ros9Publisher7publishEPKNS_3MsgE, %function
 110              	_ZN3ros9Publisher7publishEPKNS_3MsgE:
 111              	.LFB60:
  51:./ros_lib/ros/publisher.h ****       // rosserial standard signature
  52:./ros_lib/ros/publisher.h ****       int publish( const Msg * msg ) { return nh_->publish(id_, msg); };
 112              		.loc 2 52 0
 113              		.cfi_startproc
 114 0000 90B5     		push	{r4, r7, lr}
 115              		.cfi_def_cfa_offset 12
 116              		.cfi_offset 4, -12
 117              		.cfi_offset 7, -8
 118              		.cfi_offset 14, -4
 119 0002 83B0     		sub	sp, sp, #12
 120              		.cfi_def_cfa_offset 24
 121 0004 00AF     		add	r7, sp, #0
 122              		.cfi_def_cfa_register 7
 123 0006 7860     		str	r0, [r7, #4]
 124 0008 3960     		str	r1, [r7]
 125              		.loc 2 52 0
 126 000a 7B68     		ldr	r3, [r7, #4]
 127 000c DB68     		ldr	r3, [r3, #12]
 128 000e 1B68     		ldr	r3, [r3]
 129 0010 1C68     		ldr	r4, [r3]
 130 0012 7B68     		ldr	r3, [r7, #4]
 131 0014 D968     		ldr	r1, [r3, #12]
 132 0016 7B68     		ldr	r3, [r7, #4]
 133 0018 9A68     		ldr	r2, [r3, #8]
ARM GAS  C:\DOCUME~1\Chuck\LOCALS~1\Temp\ccqhXblh.s 			page 5


 134 001a 3B68     		ldr	r3, [r7]
 135 001c 081C     		mov	r0, r1
 136 001e 111C     		mov	r1, r2
 137 0020 1A1C     		mov	r2, r3
 138 0022 A047     		blx	r4
 139 0024 031C     		mov	r3, r0
 140 0026 181C     		mov	r0, r3
 141 0028 BD46     		mov	sp, r7
 142 002a 03B0     		add	sp, sp, #12
 143              		@ sp needed
 144 002c 90BD     		pop	{r4, r7, pc}
 145              		.cfi_endproc
 146              	.LFE60:
 147              		.size	_ZN3ros9Publisher7publishEPKNS_3MsgE, .-_ZN3ros9Publisher7publishEPKNS_3MsgE
 148 002e C046     		.section	.text._ZN8SysTimer6millisEv,"axG",%progbits,_ZN8SysTimer6millisEv,comdat
 149              		.align	2
 150              		.weak	_ZN8SysTimer6millisEv
 151              		.code	16
 152              		.thumb_func
 153              		.type	_ZN8SysTimer6millisEv, %function
 154              	_ZN8SysTimer6millisEv:
 155              	.LFB109:
 156              		.file 3 "./ros_lib/SysTimer.h"
   1:./ros_lib/SysTimer.h **** /* ========================================
   2:./ros_lib/SysTimer.h ****  *
   3:./ros_lib/SysTimer.h ****  * The following firmware was developed by Chuck Harrison
   4:./ros_lib/SysTimer.h ****  * This work is licensed under a Creative Commons Attribution 3.0 Unported License.
   5:./ros_lib/SysTimer.h ****  * 
   6:./ros_lib/SysTimer.h ****  * http://creativecommons.org/licenses/by/3.0/deed.en_US
   7:./ros_lib/SysTimer.h ****  * 
   8:./ros_lib/SysTimer.h ****  * You are free to:
   9:./ros_lib/SysTimer.h ****  * -To Share — to copy, distribute and transmit the work 
  10:./ros_lib/SysTimer.h ****  * -To Remix — to adapt the work 
  11:./ros_lib/SysTimer.h ****  * -To make commercial use of the work
  12:./ros_lib/SysTimer.h ****  *
  13:./ros_lib/SysTimer.h ****  * ========================================
  14:./ros_lib/SysTimer.h ****  */
  15:./ros_lib/SysTimer.h **** 
  16:./ros_lib/SysTimer.h **** #ifndef ROS_SYSTIMER_H_
  17:./ros_lib/SysTimer.h **** #define ROS_SYSTIMER_H_
  18:./ros_lib/SysTimer.h **** 
  19:./ros_lib/SysTimer.h **** typedef void (* cyisraddress)(void); // should we #include the whole cytypes.h?
  20:./ros_lib/SysTimer.h **** #define CY_ISR(FuncName)        void FuncName (void)
  21:./ros_lib/SysTimer.h **** 
  22:./ros_lib/SysTimer.h **** extern "C" {
  23:./ros_lib/SysTimer.h **** cyisraddress CyIntSetSysVector(uint8_t number, cyisraddress address);
  24:./ros_lib/SysTimer.h **** }
  25:./ros_lib/SysTimer.h **** 
  26:./ros_lib/SysTimer.h **** CY_ISR(SysTick_ISR); //forward declaration for SysTimer::init()
  27:./ros_lib/SysTimer.h **** 
  28:./ros_lib/SysTimer.h **** #define SYSTICK_INTERRUPT_VECTOR_NUMBER 15u /* Cortex-M0 hard vector */
  29:./ros_lib/SysTimer.h **** 
  30:./ros_lib/SysTimer.h **** /* clock and interrupt rates, in Hz */
  31:./ros_lib/SysTimer.h **** #define CLOCK_FREQ     24000000u
  32:./ros_lib/SysTimer.h **** #define INTERRUPT_FREQ 1000u
  33:./ros_lib/SysTimer.h **** 
  34:./ros_lib/SysTimer.h **** 
ARM GAS  C:\DOCUME~1\Chuck\LOCALS~1\Temp\ccqhXblh.s 			page 6


  35:./ros_lib/SysTimer.h **** class SysTimer
  36:./ros_lib/SysTimer.h **** {
  37:./ros_lib/SysTimer.h ****   public:
  38:./ros_lib/SysTimer.h ****     static void init() {
  39:./ros_lib/SysTimer.h ****       CyIntSetSysVector(SYSTICK_INTERRUPT_VECTOR_NUMBER, SysTick_ISR);
  40:./ros_lib/SysTimer.h ****       // must eventually do this:
  41:./ros_lib/SysTimer.h ****       //  SysTick_Config(CLOCK_FREQ / INTERRUPT_FREQ); /* defined in auto-generated core_cm0.h */
  42:./ros_lib/SysTimer.h ****       //  CyGlobalIntEnable;
  43:./ros_lib/SysTimer.h ****       millis_ = 0;
  44:./ros_lib/SysTimer.h ****     };
  45:./ros_lib/SysTimer.h ****     static uint32_t millis() { return millis_; };
 157              		.loc 3 45 0
 158              		.cfi_startproc
 159 0000 80B5     		push	{r7, lr}
 160              		.cfi_def_cfa_offset 8
 161              		.cfi_offset 7, -8
 162              		.cfi_offset 14, -4
 163 0002 00AF     		add	r7, sp, #0
 164              		.cfi_def_cfa_register 7
 165              		.loc 3 45 0
 166 0004 024B     		ldr	r3, .L13
 167 0006 1B68     		ldr	r3, [r3]
 168 0008 181C     		mov	r0, r3
 169 000a BD46     		mov	sp, r7
 170              		@ sp needed
 171 000c 80BD     		pop	{r7, pc}
 172              	.L14:
 173 000e C046     		.align	2
 174              	.L13:
 175 0010 00000000 		.word	_ZN8SysTimer7millis_E
 176              		.cfi_endproc
 177              	.LFE109:
 178              		.size	_ZN8SysTimer6millisEv, .-_ZN8SysTimer6millisEv
 179              		.section	.rodata
 180              		.align	2
 181              	.LC3:
 182 0000 00       		.ascii	"\000"
 183              		.section	.text._ZN8std_msgs6StringC2Ev,"axG",%progbits,_ZN8std_msgs6StringC5Ev,comdat
 184              		.align	2
 185              		.weak	_ZN8std_msgs6StringC2Ev
 186              		.code	16
 187              		.thumb_func
 188              		.type	_ZN8std_msgs6StringC2Ev, %function
 189              	_ZN8std_msgs6StringC2Ev:
 190              	.LFB126:
 191              		.file 4 "./ros_lib/std_msgs/String.h"
   1:./ros_lib/std_msgs/String.h **** #ifndef _ROS_std_msgs_String_h
   2:./ros_lib/std_msgs/String.h **** #define _ROS_std_msgs_String_h
   3:./ros_lib/std_msgs/String.h **** 
   4:./ros_lib/std_msgs/String.h **** #include <stdint.h>
   5:./ros_lib/std_msgs/String.h **** #include <string.h>
   6:./ros_lib/std_msgs/String.h **** #include <stdlib.h>
   7:./ros_lib/std_msgs/String.h **** #include "ros/msg.h"
   8:./ros_lib/std_msgs/String.h **** 
   9:./ros_lib/std_msgs/String.h **** namespace std_msgs
  10:./ros_lib/std_msgs/String.h **** {
  11:./ros_lib/std_msgs/String.h **** 
ARM GAS  C:\DOCUME~1\Chuck\LOCALS~1\Temp\ccqhXblh.s 			page 7


  12:./ros_lib/std_msgs/String.h ****   class String : public ros::Msg
  13:./ros_lib/std_msgs/String.h ****   {
  14:./ros_lib/std_msgs/String.h ****     public:
  15:./ros_lib/std_msgs/String.h ****       const char* data;
  16:./ros_lib/std_msgs/String.h **** 
  17:./ros_lib/std_msgs/String.h ****     String():
 192              		.loc 4 17 0
 193              		.cfi_startproc
 194 0000 80B5     		push	{r7, lr}
 195              		.cfi_def_cfa_offset 8
 196              		.cfi_offset 7, -8
 197              		.cfi_offset 14, -4
 198 0002 82B0     		sub	sp, sp, #8
 199              		.cfi_def_cfa_offset 16
 200 0004 00AF     		add	r7, sp, #0
 201              		.cfi_def_cfa_register 7
 202 0006 7860     		str	r0, [r7, #4]
 203              	.LBB4:
  18:./ros_lib/std_msgs/String.h ****       data("")
 204              		.loc 4 18 0
 205 0008 7B68     		ldr	r3, [r7, #4]
 206 000a 181C     		mov	r0, r3
 207 000c FFF7FEFF 		bl	_ZN3ros3MsgC2Ev
 208 0010 7B68     		ldr	r3, [r7, #4]
 209 0012 054A     		ldr	r2, .L18
 210 0014 1A60     		str	r2, [r3]
 211 0016 7B68     		ldr	r3, [r7, #4]
 212 0018 044A     		ldr	r2, .L18+4
 213 001a 5A60     		str	r2, [r3, #4]
 214              	.LBE4:
  19:./ros_lib/std_msgs/String.h ****     {
  20:./ros_lib/std_msgs/String.h ****     }
 215              		.loc 4 20 0
 216 001c 7B68     		ldr	r3, [r7, #4]
 217 001e 181C     		mov	r0, r3
 218 0020 BD46     		mov	sp, r7
 219 0022 02B0     		add	sp, sp, #8
 220              		@ sp needed
 221 0024 80BD     		pop	{r7, pc}
 222              	.L19:
 223 0026 C046     		.align	2
 224              	.L18:
 225 0028 08000000 		.word	_ZTVN8std_msgs6StringE+8
 226 002c 00000000 		.word	.LC3
 227              		.cfi_endproc
 228              	.LFE126:
 229              		.size	_ZN8std_msgs6StringC2Ev, .-_ZN8std_msgs6StringC2Ev
 230              		.weak	_ZN8std_msgs6StringC1Ev
 231              		.thumb_set _ZN8std_msgs6StringC1Ev,_ZN8std_msgs6StringC2Ev
 232              		.section	.text._ZNK8std_msgs6String9serializeEPh,"axG",%progbits,_ZNK8std_msgs6String9serializeEPh
 233              		.align	2
 234              		.weak	_ZNK8std_msgs6String9serializeEPh
 235              		.code	16
 236              		.thumb_func
 237              		.type	_ZNK8std_msgs6String9serializeEPh, %function
 238              	_ZNK8std_msgs6String9serializeEPh:
 239              	.LFB128:
ARM GAS  C:\DOCUME~1\Chuck\LOCALS~1\Temp\ccqhXblh.s 			page 8


  21:./ros_lib/std_msgs/String.h **** 
  22:./ros_lib/std_msgs/String.h ****     virtual int serialize(unsigned char *outbuffer) const
 240              		.loc 4 22 0
 241              		.cfi_startproc
 242 0000 80B5     		push	{r7, lr}
 243              		.cfi_def_cfa_offset 8
 244              		.cfi_offset 7, -8
 245              		.cfi_offset 14, -4
 246 0002 84B0     		sub	sp, sp, #16
 247              		.cfi_def_cfa_offset 24
 248 0004 00AF     		add	r7, sp, #0
 249              		.cfi_def_cfa_register 7
 250 0006 7860     		str	r0, [r7, #4]
 251 0008 3960     		str	r1, [r7]
 252              	.LBB5:
  23:./ros_lib/std_msgs/String.h ****     {
  24:./ros_lib/std_msgs/String.h ****       int offset = 0;
 253              		.loc 4 24 0
 254 000a 0023     		mov	r3, #0
 255 000c FB60     		str	r3, [r7, #12]
  25:./ros_lib/std_msgs/String.h **** #ifndef ROS_MSG_DONT_SERIALIZE
  26:./ros_lib/std_msgs/String.h ****       uint32_t length_data = strlen( (const char*) this->data);
 256              		.loc 4 26 0
 257 000e 7B68     		ldr	r3, [r7, #4]
 258 0010 5B68     		ldr	r3, [r3, #4]
 259 0012 181C     		mov	r0, r3
 260 0014 FFF7FEFF 		bl	strlen
 261 0018 031C     		mov	r3, r0
 262 001a BB60     		str	r3, [r7, #8]
  27:./ros_lib/std_msgs/String.h ****       memcpy(outbuffer + offset, &length_data, sizeof(uint32_t));
 263              		.loc 4 27 0
 264 001c FB68     		ldr	r3, [r7, #12]
 265 001e 3A68     		ldr	r2, [r7]
 266 0020 D218     		add	r2, r2, r3
 267 0022 3B1C     		mov	r3, r7
 268 0024 0833     		add	r3, r3, #8
 269 0026 101C     		mov	r0, r2
 270 0028 191C     		mov	r1, r3
 271 002a 0422     		mov	r2, #4
 272 002c FFF7FEFF 		bl	memcpy
  28:./ros_lib/std_msgs/String.h ****       offset += 4;
 273              		.loc 4 28 0
 274 0030 FB68     		ldr	r3, [r7, #12]
 275 0032 0433     		add	r3, r3, #4
 276 0034 FB60     		str	r3, [r7, #12]
  29:./ros_lib/std_msgs/String.h ****       memcpy(outbuffer + offset, this->data, length_data);
 277              		.loc 4 29 0
 278 0036 FB68     		ldr	r3, [r7, #12]
 279 0038 3A68     		ldr	r2, [r7]
 280 003a D118     		add	r1, r2, r3
 281 003c 7B68     		ldr	r3, [r7, #4]
 282 003e 5A68     		ldr	r2, [r3, #4]
 283 0040 BB68     		ldr	r3, [r7, #8]
 284 0042 081C     		mov	r0, r1
 285 0044 111C     		mov	r1, r2
 286 0046 1A1C     		mov	r2, r3
 287 0048 FFF7FEFF 		bl	memcpy
ARM GAS  C:\DOCUME~1\Chuck\LOCALS~1\Temp\ccqhXblh.s 			page 9


  30:./ros_lib/std_msgs/String.h ****       offset += length_data;
 288              		.loc 4 30 0
 289 004c FA68     		ldr	r2, [r7, #12]
 290 004e BB68     		ldr	r3, [r7, #8]
 291 0050 D318     		add	r3, r2, r3
 292 0052 FB60     		str	r3, [r7, #12]
  31:./ros_lib/std_msgs/String.h **** #endif
  32:./ros_lib/std_msgs/String.h ****       return offset;
 293              		.loc 4 32 0
 294 0054 FB68     		ldr	r3, [r7, #12]
 295              	.LBE5:
  33:./ros_lib/std_msgs/String.h ****     }
 296              		.loc 4 33 0
 297 0056 181C     		mov	r0, r3
 298 0058 BD46     		mov	sp, r7
 299 005a 04B0     		add	sp, sp, #16
 300              		@ sp needed
 301 005c 80BD     		pop	{r7, pc}
 302              		.cfi_endproc
 303              	.LFE128:
 304              		.size	_ZNK8std_msgs6String9serializeEPh, .-_ZNK8std_msgs6String9serializeEPh
 305 005e C046     		.section	.text._ZN8std_msgs6String11deserializeEPh,"axG",%progbits,_ZN8std_msgs6String11deserializ
 306              		.align	2
 307              		.weak	_ZN8std_msgs6String11deserializeEPh
 308              		.code	16
 309              		.thumb_func
 310              		.type	_ZN8std_msgs6String11deserializeEPh, %function
 311              	_ZN8std_msgs6String11deserializeEPh:
 312              	.LFB129:
  34:./ros_lib/std_msgs/String.h **** 
  35:./ros_lib/std_msgs/String.h ****     virtual int deserialize(unsigned char *inbuffer)
 313              		.loc 4 35 0
 314              		.cfi_startproc
 315 0000 80B5     		push	{r7, lr}
 316              		.cfi_def_cfa_offset 8
 317              		.cfi_offset 7, -8
 318              		.cfi_offset 14, -4
 319 0002 86B0     		sub	sp, sp, #24
 320              		.cfi_def_cfa_offset 32
 321 0004 00AF     		add	r7, sp, #0
 322              		.cfi_def_cfa_register 7
 323 0006 7860     		str	r0, [r7, #4]
 324 0008 3960     		str	r1, [r7]
 325              	.LBB6:
  36:./ros_lib/std_msgs/String.h ****     {
  37:./ros_lib/std_msgs/String.h ****       int offset = 0;
 326              		.loc 4 37 0
 327 000a 0023     		mov	r3, #0
 328 000c 3B61     		str	r3, [r7, #16]
  38:./ros_lib/std_msgs/String.h **** #ifndef ROS_MSG_DONT_DESERIALIZE
  39:./ros_lib/std_msgs/String.h ****       uint32_t length_data;
  40:./ros_lib/std_msgs/String.h ****       memcpy(&length_data, (inbuffer + offset), sizeof(uint32_t));
 329              		.loc 4 40 0
 330 000e 3B69     		ldr	r3, [r7, #16]
 331 0010 3A68     		ldr	r2, [r7]
 332 0012 D318     		add	r3, r2, r3
 333 0014 3A1C     		mov	r2, r7
ARM GAS  C:\DOCUME~1\Chuck\LOCALS~1\Temp\ccqhXblh.s 			page 10


 334 0016 0C32     		add	r2, r2, #12
 335 0018 101C     		mov	r0, r2
 336 001a 191C     		mov	r1, r3
 337 001c 0422     		mov	r2, #4
 338 001e FFF7FEFF 		bl	memcpy
  41:./ros_lib/std_msgs/String.h ****       offset += 4;
 339              		.loc 4 41 0
 340 0022 3B69     		ldr	r3, [r7, #16]
 341 0024 0433     		add	r3, r3, #4
 342 0026 3B61     		str	r3, [r7, #16]
 343              	.LBB7:
  42:./ros_lib/std_msgs/String.h ****       for(unsigned int k= offset; k< offset+length_data; ++k){
 344              		.loc 4 42 0
 345 0028 3B69     		ldr	r3, [r7, #16]
 346 002a 7B61     		str	r3, [r7, #20]
 347 002c 0BE0     		b	.L23
 348              	.L24:
  43:./ros_lib/std_msgs/String.h ****           inbuffer[k-1]=inbuffer[k];
 349              		.loc 4 43 0 discriminator 2
 350 002e 7B69     		ldr	r3, [r7, #20]
 351 0030 013B     		sub	r3, r3, #1
 352 0032 3A68     		ldr	r2, [r7]
 353 0034 D318     		add	r3, r2, r3
 354 0036 3968     		ldr	r1, [r7]
 355 0038 7A69     		ldr	r2, [r7, #20]
 356 003a 8A18     		add	r2, r1, r2
 357 003c 1278     		ldrb	r2, [r2]
 358 003e 1A70     		strb	r2, [r3]
  42:./ros_lib/std_msgs/String.h ****       for(unsigned int k= offset; k< offset+length_data; ++k){
 359              		.loc 4 42 0 discriminator 2
 360 0040 7B69     		ldr	r3, [r7, #20]
 361 0042 0133     		add	r3, r3, #1
 362 0044 7B61     		str	r3, [r7, #20]
 363              	.L23:
  42:./ros_lib/std_msgs/String.h ****       for(unsigned int k= offset; k< offset+length_data; ++k){
 364              		.loc 4 42 0 is_stmt 0 discriminator 1
 365 0046 3A69     		ldr	r2, [r7, #16]
 366 0048 FB68     		ldr	r3, [r7, #12]
 367 004a D218     		add	r2, r2, r3
 368 004c 7B69     		ldr	r3, [r7, #20]
 369 004e 9A42     		cmp	r2, r3
 370 0050 EDD8     		bhi	.L24
 371              	.LBE7:
  44:./ros_lib/std_msgs/String.h ****       }
  45:./ros_lib/std_msgs/String.h ****       inbuffer[offset+length_data-1]=0;
 372              		.loc 4 45 0 is_stmt 1
 373 0052 3A69     		ldr	r2, [r7, #16]
 374 0054 FB68     		ldr	r3, [r7, #12]
 375 0056 D318     		add	r3, r2, r3
 376 0058 013B     		sub	r3, r3, #1
 377 005a 3A68     		ldr	r2, [r7]
 378 005c D318     		add	r3, r2, r3
 379 005e 0022     		mov	r2, #0
 380 0060 1A70     		strb	r2, [r3]
  46:./ros_lib/std_msgs/String.h ****       this->data = (char *)(inbuffer + offset-1);
 381              		.loc 4 46 0
 382 0062 3B69     		ldr	r3, [r7, #16]
ARM GAS  C:\DOCUME~1\Chuck\LOCALS~1\Temp\ccqhXblh.s 			page 11


 383 0064 013B     		sub	r3, r3, #1
 384 0066 3A68     		ldr	r2, [r7]
 385 0068 D218     		add	r2, r2, r3
 386 006a 7B68     		ldr	r3, [r7, #4]
 387 006c 5A60     		str	r2, [r3, #4]
  47:./ros_lib/std_msgs/String.h ****       offset += length_data;
 388              		.loc 4 47 0
 389 006e 3A69     		ldr	r2, [r7, #16]
 390 0070 FB68     		ldr	r3, [r7, #12]
 391 0072 D318     		add	r3, r2, r3
 392 0074 3B61     		str	r3, [r7, #16]
  48:./ros_lib/std_msgs/String.h **** #endif
  49:./ros_lib/std_msgs/String.h ****      return offset;
 393              		.loc 4 49 0
 394 0076 3B69     		ldr	r3, [r7, #16]
 395              	.LBE6:
  50:./ros_lib/std_msgs/String.h ****     }
 396              		.loc 4 50 0
 397 0078 181C     		mov	r0, r3
 398 007a BD46     		mov	sp, r7
 399 007c 06B0     		add	sp, sp, #24
 400              		@ sp needed
 401 007e 80BD     		pop	{r7, pc}
 402              		.cfi_endproc
 403              	.LFE129:
 404              		.size	_ZN8std_msgs6String11deserializeEPh, .-_ZN8std_msgs6String11deserializeEPh
 405              		.section	.rodata
 406 0001 000000   		.align	2
 407              	.LC5:
 408 0004 7374645F 		.ascii	"std_msgs/String\000"
 408      6D736773 
 408      2F537472 
 408      696E6700 
 409              		.section	.text._ZN8std_msgs6String7getTypeEv,"axG",%progbits,_ZN8std_msgs6String7getTypeEv,comdat
 410              		.align	2
 411              		.weak	_ZN8std_msgs6String7getTypeEv
 412              		.code	16
 413              		.thumb_func
 414              		.type	_ZN8std_msgs6String7getTypeEv, %function
 415              	_ZN8std_msgs6String7getTypeEv:
 416              	.LFB130:
  51:./ros_lib/std_msgs/String.h **** 
  52:./ros_lib/std_msgs/String.h ****     const char * getType(){ return "std_msgs/String"; };
 417              		.loc 4 52 0
 418              		.cfi_startproc
 419 0000 80B5     		push	{r7, lr}
 420              		.cfi_def_cfa_offset 8
 421              		.cfi_offset 7, -8
 422              		.cfi_offset 14, -4
 423 0002 82B0     		sub	sp, sp, #8
 424              		.cfi_def_cfa_offset 16
 425 0004 00AF     		add	r7, sp, #0
 426              		.cfi_def_cfa_register 7
 427 0006 7860     		str	r0, [r7, #4]
 428              		.loc 4 52 0
 429 0008 024B     		ldr	r3, .L28
 430 000a 181C     		mov	r0, r3
ARM GAS  C:\DOCUME~1\Chuck\LOCALS~1\Temp\ccqhXblh.s 			page 12


 431 000c BD46     		mov	sp, r7
 432 000e 02B0     		add	sp, sp, #8
 433              		@ sp needed
 434 0010 80BD     		pop	{r7, pc}
 435              	.L29:
 436 0012 C046     		.align	2
 437              	.L28:
 438 0014 04000000 		.word	.LC5
 439              		.cfi_endproc
 440              	.LFE130:
 441              		.size	_ZN8std_msgs6String7getTypeEv, .-_ZN8std_msgs6String7getTypeEv
 442              		.section	.rodata
 443              		.align	2
 444              	.LC7:
 445 0014 39393263 		.ascii	"992ce8a1687cec8c8bd883ec73ca41d1\000"
 445      65386131 
 445      36383763 
 445      65633863 
 445      38626438 
 446              		.section	.text._ZN8std_msgs6String6getMD5Ev,"axG",%progbits,_ZN8std_msgs6String6getMD5Ev,comdat
 447              		.align	2
 448              		.weak	_ZN8std_msgs6String6getMD5Ev
 449              		.code	16
 450              		.thumb_func
 451              		.type	_ZN8std_msgs6String6getMD5Ev, %function
 452              	_ZN8std_msgs6String6getMD5Ev:
 453              	.LFB131:
  53:./ros_lib/std_msgs/String.h ****     const char * getMD5(){ return "992ce8a1687cec8c8bd883ec73ca41d1"; };
 454              		.loc 4 53 0
 455              		.cfi_startproc
 456 0000 80B5     		push	{r7, lr}
 457              		.cfi_def_cfa_offset 8
 458              		.cfi_offset 7, -8
 459              		.cfi_offset 14, -4
 460 0002 82B0     		sub	sp, sp, #8
 461              		.cfi_def_cfa_offset 16
 462 0004 00AF     		add	r7, sp, #0
 463              		.cfi_def_cfa_register 7
 464 0006 7860     		str	r0, [r7, #4]
 465              		.loc 4 53 0
 466 0008 024B     		ldr	r3, .L32
 467 000a 181C     		mov	r0, r3
 468 000c BD46     		mov	sp, r7
 469 000e 02B0     		add	sp, sp, #8
 470              		@ sp needed
 471 0010 80BD     		pop	{r7, pc}
 472              	.L33:
 473 0012 C046     		.align	2
 474              	.L32:
 475 0014 14000000 		.word	.LC7
 476              		.cfi_endproc
 477              	.LFE131:
 478              		.size	_ZN8std_msgs6String6getMD5Ev, .-_ZN8std_msgs6String6getMD5Ev
 479              		.global	_ZN10HelloWorld7str_msgE
 480              		.bss
 481              		.align	2
 482              		.type	_ZN10HelloWorld7str_msgE, %object
ARM GAS  C:\DOCUME~1\Chuck\LOCALS~1\Temp\ccqhXblh.s 			page 13


 483              		.size	_ZN10HelloWorld7str_msgE, 8
 484              	_ZN10HelloWorld7str_msgE:
 485 0000 00000000 		.space	8
 485      00000000 
 486              		.global	_ZN10HelloWorld7chatterE
 487              		.align	2
 488              		.type	_ZN10HelloWorld7chatterE, %object
 489              		.size	_ZN10HelloWorld7chatterE, 20
 490              	_ZN10HelloWorld7chatterE:
 491 0008 00000000 		.space	20
 491      00000000 
 491      00000000 
 491      00000000 
 491      00000000 
 492              		.global	_ZN10HelloWorld5helloE
 493              		.data
 494              		.align	2
 495              		.type	_ZN10HelloWorld5helloE, %object
 496              		.size	_ZN10HelloWorld5helloE, 13
 497              	_ZN10HelloWorld5helloE:
 498 0000 68656C6C 		.ascii	"hello world!\000"
 498      6F20776F 
 498      726C6421 
 498      00
 499              		.global	_ZN10HelloWorld9next_timeE
 500 000d 000000   		.bss
 501              		.align	2
 502              		.type	_ZN10HelloWorld9next_timeE, %object
 503              		.size	_ZN10HelloWorld9next_timeE, 4
 504              	_ZN10HelloWorld9next_timeE:
 505 001c 00000000 		.space	4
 506              		.section	.text._ZN10HelloWorld5setupEv,"ax",%progbits
 507              		.align	2
 508              		.global	_ZN10HelloWorld5setupEv
 509              		.code	16
 510              		.thumb_func
 511              		.type	_ZN10HelloWorld5setupEv, %function
 512              	_ZN10HelloWorld5setupEv:
 513              	.LFB132:
 514              		.file 5 ".\\ros_lib\\examples\\HelloWorld\\HelloWorld.cpp"
   1:.\ros_lib\examples\HelloWorld/HelloWorld.cpp **** /*
   2:.\ros_lib\examples\HelloWorld/HelloWorld.cpp ****  * rosserial Publisher Example
   3:.\ros_lib\examples\HelloWorld/HelloWorld.cpp ****  * Prints "hello world!"
   4:.\ros_lib\examples\HelloWorld/HelloWorld.cpp ****  */
   5:.\ros_lib\examples\HelloWorld/HelloWorld.cpp **** 
   6:.\ros_lib\examples\HelloWorld/HelloWorld.cpp **** #include <ros.h>
   7:.\ros_lib\examples\HelloWorld/HelloWorld.cpp **** #include <std_msgs/String.h>
   8:.\ros_lib\examples\HelloWorld/HelloWorld.cpp **** extern ros::NodeHandle  nh;
   9:.\ros_lib\examples\HelloWorld/HelloWorld.cpp **** 
  10:.\ros_lib\examples\HelloWorld/HelloWorld.cpp **** namespace HelloWorld {
  11:.\ros_lib\examples\HelloWorld/HelloWorld.cpp **** 
  12:.\ros_lib\examples\HelloWorld/HelloWorld.cpp **** std_msgs::String str_msg;
  13:.\ros_lib\examples\HelloWorld/HelloWorld.cpp **** ros::Publisher chatter("chatter", &str_msg);
  14:.\ros_lib\examples\HelloWorld/HelloWorld.cpp **** 
  15:.\ros_lib\examples\HelloWorld/HelloWorld.cpp **** char hello[13] = "hello world!";
  16:.\ros_lib\examples\HelloWorld/HelloWorld.cpp **** uint32_t next_time;
  17:.\ros_lib\examples\HelloWorld/HelloWorld.cpp **** 
ARM GAS  C:\DOCUME~1\Chuck\LOCALS~1\Temp\ccqhXblh.s 			page 14


  18:.\ros_lib\examples\HelloWorld/HelloWorld.cpp **** void setup()
  19:.\ros_lib\examples\HelloWorld/HelloWorld.cpp **** {
 515              		.loc 5 19 0
 516              		.cfi_startproc
 517 0000 80B5     		push	{r7, lr}
 518              		.cfi_def_cfa_offset 8
 519              		.cfi_offset 7, -8
 520              		.cfi_offset 14, -4
 521 0002 00AF     		add	r7, sp, #0
 522              		.cfi_def_cfa_register 7
  20:.\ros_lib\examples\HelloWorld/HelloWorld.cpp ****   nh.advertise(chatter);
 523              		.loc 5 20 0
 524 0004 064A     		ldr	r2, .L35
 525 0006 074B     		ldr	r3, .L35+4
 526 0008 101C     		mov	r0, r2
 527 000a 191C     		mov	r1, r3
 528 000c FFF7FEFF 		bl	_ZN3ros11NodeHandle_I13Psoc4HardwareLi10ELi20ELi200ELi200EE9advertiseERNS_9PublisherE
  21:.\ros_lib\examples\HelloWorld/HelloWorld.cpp ****   next_time = SysTimer::millis();
 529              		.loc 5 21 0
 530 0010 FFF7FEFF 		bl	_ZN8SysTimer6millisEv
 531 0014 021C     		mov	r2, r0
 532 0016 044B     		ldr	r3, .L35+8
 533 0018 1A60     		str	r2, [r3]
  22:.\ros_lib\examples\HelloWorld/HelloWorld.cpp **** }
 534              		.loc 5 22 0
 535 001a BD46     		mov	sp, r7
 536              		@ sp needed
 537 001c 80BD     		pop	{r7, pc}
 538              	.L36:
 539 001e C046     		.align	2
 540              	.L35:
 541 0020 00000000 		.word	nh
 542 0024 00000000 		.word	_ZN10HelloWorld7chatterE
 543 0028 00000000 		.word	_ZN10HelloWorld9next_timeE
 544              		.cfi_endproc
 545              	.LFE132:
 546              		.size	_ZN10HelloWorld5setupEv, .-_ZN10HelloWorld5setupEv
 547              		.section	.text._ZN10HelloWorld4loopEv,"ax",%progbits
 548              		.align	2
 549              		.global	_ZN10HelloWorld4loopEv
 550              		.code	16
 551              		.thumb_func
 552              		.type	_ZN10HelloWorld4loopEv, %function
 553              	_ZN10HelloWorld4loopEv:
 554              	.LFB133:
  23:.\ros_lib\examples\HelloWorld/HelloWorld.cpp **** 
  24:.\ros_lib\examples\HelloWorld/HelloWorld.cpp **** void loop()
  25:.\ros_lib\examples\HelloWorld/HelloWorld.cpp **** {
 555              		.loc 5 25 0
 556              		.cfi_startproc
 557 0000 80B5     		push	{r7, lr}
 558              		.cfi_def_cfa_offset 8
 559              		.cfi_offset 7, -8
 560              		.cfi_offset 14, -4
 561 0002 00AF     		add	r7, sp, #0
 562              		.cfi_def_cfa_register 7
  26:.\ros_lib\examples\HelloWorld/HelloWorld.cpp ****   if ((int32_t)(SysTimer::millis()-next_time)>0) {
ARM GAS  C:\DOCUME~1\Chuck\LOCALS~1\Temp\ccqhXblh.s 			page 15


 563              		.loc 5 26 0
 564 0004 FFF7FEFF 		bl	_ZN8SysTimer6millisEv
 565 0008 021C     		mov	r2, r0
 566 000a 0D4B     		ldr	r3, .L39
 567 000c 1B68     		ldr	r3, [r3]
 568 000e D31A     		sub	r3, r2, r3
 569 0010 DA17     		asr	r2, r3, #31
 570 0012 D31A     		sub	r3, r2, r3
 571 0014 DB0F     		lsr	r3, r3, #31
 572 0016 DBB2     		uxtb	r3, r3
 573 0018 002B     		cmp	r3, #0
 574 001a 0FD0     		beq	.L37
  27:.\ros_lib\examples\HelloWorld/HelloWorld.cpp ****     next_time += 1000; // delay 1 sec
 575              		.loc 5 27 0
 576 001c 084B     		ldr	r3, .L39
 577 001e 1B68     		ldr	r3, [r3]
 578 0020 FA21     		mov	r1, #250
 579 0022 8900     		lsl	r1, r1, #2
 580 0024 5A18     		add	r2, r3, r1
 581 0026 064B     		ldr	r3, .L39
 582 0028 1A60     		str	r2, [r3]
  28:.\ros_lib\examples\HelloWorld/HelloWorld.cpp ****     str_msg.data = hello;
 583              		.loc 5 28 0
 584 002a 064B     		ldr	r3, .L39+4
 585 002c 064A     		ldr	r2, .L39+8
 586 002e 5A60     		str	r2, [r3, #4]
  29:.\ros_lib\examples\HelloWorld/HelloWorld.cpp ****     chatter.publish( &str_msg );
 587              		.loc 5 29 0
 588 0030 064A     		ldr	r2, .L39+12
 589 0032 044B     		ldr	r3, .L39+4
 590 0034 101C     		mov	r0, r2
 591 0036 191C     		mov	r1, r3
 592 0038 FFF7FEFF 		bl	_ZN3ros9Publisher7publishEPKNS_3MsgE
 593              	.L37:
  30:.\ros_lib\examples\HelloWorld/HelloWorld.cpp ****   }
  31:.\ros_lib\examples\HelloWorld/HelloWorld.cpp **** }
 594              		.loc 5 31 0
 595 003c BD46     		mov	sp, r7
 596              		@ sp needed
 597 003e 80BD     		pop	{r7, pc}
 598              	.L40:
 599              		.align	2
 600              	.L39:
 601 0040 00000000 		.word	_ZN10HelloWorld9next_timeE
 602 0044 00000000 		.word	_ZN10HelloWorld7str_msgE
 603 0048 00000000 		.word	_ZN10HelloWorld5helloE
 604 004c 00000000 		.word	_ZN10HelloWorld7chatterE
 605              		.cfi_endproc
 606              	.LFE133:
 607              		.size	_ZN10HelloWorld4loopEv, .-_ZN10HelloWorld4loopEv
 608              		.section	.text._ZN3ros11NodeHandle_I13Psoc4HardwareLi10ELi20ELi200ELi200EE9advertiseERNS_9Publishe
 609              		.align	2
 610              		.weak	_ZN3ros11NodeHandle_I13Psoc4HardwareLi10ELi20ELi200ELi200EE9advertiseERNS_9PublisherE
 611              		.code	16
 612              		.thumb_func
 613              		.type	_ZN3ros11NodeHandle_I13Psoc4HardwareLi10ELi20ELi200ELi200EE9advertiseERNS_9PublisherE, %func
 614              	_ZN3ros11NodeHandle_I13Psoc4HardwareLi10ELi20ELi200ELi200EE9advertiseERNS_9PublisherE:
ARM GAS  C:\DOCUME~1\Chuck\LOCALS~1\Temp\ccqhXblh.s 			page 16


 615              	.LFB134:
 616              		.file 6 "./ros_lib/ros/node_handle.h"
   1:./ros_lib/ros/node_handle.h **** /*
   2:./ros_lib/ros/node_handle.h ****  * Software License Agreement (BSD License)
   3:./ros_lib/ros/node_handle.h ****  *
   4:./ros_lib/ros/node_handle.h ****  * Copyright (c) 2011, Willow Garage, Inc.
   5:./ros_lib/ros/node_handle.h ****  * All rights reserved.
   6:./ros_lib/ros/node_handle.h ****  *
   7:./ros_lib/ros/node_handle.h ****  * Redistribution and use in source and binary forms, with or without
   8:./ros_lib/ros/node_handle.h ****  * modification, are permitted provided that the following conditions
   9:./ros_lib/ros/node_handle.h ****  * are met:
  10:./ros_lib/ros/node_handle.h ****  *
  11:./ros_lib/ros/node_handle.h ****  *  * Redistributions of source code must retain the above copyright
  12:./ros_lib/ros/node_handle.h ****  *    notice, this list of conditions and the following disclaimer.
  13:./ros_lib/ros/node_handle.h ****  *  * Redistributions in binary form must reproduce the above
  14:./ros_lib/ros/node_handle.h ****  *    copyright notice, this list of conditions and the following
  15:./ros_lib/ros/node_handle.h ****  *    disclaimer in the documentation and/or other materials provided
  16:./ros_lib/ros/node_handle.h ****  *    with the distribution.
  17:./ros_lib/ros/node_handle.h ****  *  * Neither the name of Willow Garage, Inc. nor the names of its
  18:./ros_lib/ros/node_handle.h ****  *    contributors may be used to endorse or promote prducts derived
  19:./ros_lib/ros/node_handle.h ****  *    from this software without specific prior written permission.
  20:./ros_lib/ros/node_handle.h ****  *
  21:./ros_lib/ros/node_handle.h ****  * THIS SOFTWARE IS PROVIDED BY THE COPYRIGHT HOLDERS AND CONTRIBUTORS
  22:./ros_lib/ros/node_handle.h ****  * "AS IS" AND ANY EXPRESS OR IMPLIED WARRANTIES, INCLUDING, BUT NOT
  23:./ros_lib/ros/node_handle.h ****  * LIMITED TO, THE IMPLIED WARRANTIES OF MERCHANTABILITY AND FITNESS
  24:./ros_lib/ros/node_handle.h ****  * FOR A PARTICULAR PURPOSE ARE DISCLAIMED. IN NO EVENT SHALL THE
  25:./ros_lib/ros/node_handle.h ****  * COPYRIGHT OWNER OR CONTRIBUTORS BE LIABLE FOR ANY DIRECT, INDIRECT,
  26:./ros_lib/ros/node_handle.h ****  * INCIDENTAL, SPECIAL, EXEMPLARY, OR CONSEQUENTIAL DAMAGES (INCLUDING,
  27:./ros_lib/ros/node_handle.h ****  * BUT NOT LIMITED TO, PROCUREMENT OF SUBSTITUTE GOODS OR SERVICES;
  28:./ros_lib/ros/node_handle.h ****  * LOSS OF USE, DATA, OR PROFITS; OR BUSINESS INTERRUPTION) HOWEVER
  29:./ros_lib/ros/node_handle.h ****  * CAUSED AND ON ANY THEORY OF LIABILITY, WHETHER IN CONTRACT, STRICT
  30:./ros_lib/ros/node_handle.h ****  * LIABILITY, OR TORT (INCLUDING NEGLIGENCE OR OTHERWISE) ARISING IN
  31:./ros_lib/ros/node_handle.h ****  * ANY WAY OUT OF THE USE OF THIS SOFTWARE, EVEN IF ADVISED OF THE
  32:./ros_lib/ros/node_handle.h ****  * POSSIBILITY OF SUCH DAMAGE.
  33:./ros_lib/ros/node_handle.h ****  */
  34:./ros_lib/ros/node_handle.h **** 
  35:./ros_lib/ros/node_handle.h **** #ifndef ROS_NODE_HANDLE_H_
  36:./ros_lib/ros/node_handle.h **** #define ROS_NODE_HANDLE_H_
  37:./ros_lib/ros/node_handle.h **** 
  38:./ros_lib/ros/node_handle.h **** #ifndef PARAM_REQ_SUPPORT
  39:./ros_lib/ros/node_handle.h **** #define PARAM_REQ_SUPPORT 1
  40:./ros_lib/ros/node_handle.h **** #endif
  41:./ros_lib/ros/node_handle.h **** 
  42:./ros_lib/ros/node_handle.h **** #include "std_msgs/Time.h"
  43:./ros_lib/ros/node_handle.h **** #include "rosserial_msgs/TopicInfo.h"
  44:./ros_lib/ros/node_handle.h **** #include "rosserial_msgs/Log.h"
  45:./ros_lib/ros/node_handle.h **** #if PARAM_REQ_SUPPORT
  46:./ros_lib/ros/node_handle.h **** #include "rosserial_msgs/RequestParam.h"
  47:./ros_lib/ros/node_handle.h **** #endif
  48:./ros_lib/ros/node_handle.h **** 
  49:./ros_lib/ros/node_handle.h **** #define SYNC_SECONDS        2
  50:./ros_lib/ros/node_handle.h **** 
  51:./ros_lib/ros/node_handle.h **** #define MODE_FIRST_FF       0
  52:./ros_lib/ros/node_handle.h **** /*
  53:./ros_lib/ros/node_handle.h ****  * The second sync byte is a protocol version. It's value is 0xff for the first
  54:./ros_lib/ros/node_handle.h ****  * version of the rosserial protocol (used up to hydro), 0xfe for the second version
  55:./ros_lib/ros/node_handle.h ****  * (introduced in hydro), 0xfd for the next, and so on. Its purpose is to enable
ARM GAS  C:\DOCUME~1\Chuck\LOCALS~1\Temp\ccqhXblh.s 			page 17


  56:./ros_lib/ros/node_handle.h ****  * detection of mismatched protocol versions (e.g. hydro rosserial_python with groovy
  57:./ros_lib/ros/node_handle.h ****  * rosserial_arduino. It must be changed in both this file and in
  58:./ros_lib/ros/node_handle.h ****  * rosserial_python/src/rosserial_python/SerialClient.py
  59:./ros_lib/ros/node_handle.h ****  */
  60:./ros_lib/ros/node_handle.h **** #define MODE_PROTOCOL_VER   1
  61:./ros_lib/ros/node_handle.h **** #define PROTOCOL_VER1		0xff // through groovy
  62:./ros_lib/ros/node_handle.h **** #define PROTOCOL_VER2		0xfe // in hydro
  63:./ros_lib/ros/node_handle.h **** #define PROTOCOL_VER 		PROTOCOL_VER2
  64:./ros_lib/ros/node_handle.h **** #define MODE_SIZE_L         2   
  65:./ros_lib/ros/node_handle.h **** #define MODE_SIZE_H         3
  66:./ros_lib/ros/node_handle.h **** #define MODE_SIZE_CHECKSUM  4   // checksum for msg size received from size L and H
  67:./ros_lib/ros/node_handle.h **** #define MODE_TOPIC_L        5   // waiting for topic id
  68:./ros_lib/ros/node_handle.h **** #define MODE_TOPIC_H        6
  69:./ros_lib/ros/node_handle.h **** #define MODE_MESSAGE        7
  70:./ros_lib/ros/node_handle.h **** #define MODE_MSG_CHECKSUM   8   // checksum for msg and topic id 
  71:./ros_lib/ros/node_handle.h **** 
  72:./ros_lib/ros/node_handle.h **** 
  73:./ros_lib/ros/node_handle.h **** #define MSG_TIMEOUT 200  // was 20 milliseconds to recieve all of message data
  74:./ros_lib/ros/node_handle.h **** 
  75:./ros_lib/ros/node_handle.h **** #include "msg.h"
  76:./ros_lib/ros/node_handle.h **** 
  77:./ros_lib/ros/node_handle.h **** namespace ros {
  78:./ros_lib/ros/node_handle.h **** 
  79:./ros_lib/ros/node_handle.h ****   class NodeHandleBase_{
  80:./ros_lib/ros/node_handle.h ****     public:
  81:./ros_lib/ros/node_handle.h ****       virtual int publish(int id, const Msg* msg)=0;
  82:./ros_lib/ros/node_handle.h ****       virtual int spinOnce()=0;
  83:./ros_lib/ros/node_handle.h ****       virtual bool connected()=0;
  84:./ros_lib/ros/node_handle.h ****     };
  85:./ros_lib/ros/node_handle.h **** }
  86:./ros_lib/ros/node_handle.h **** 
  87:./ros_lib/ros/node_handle.h **** #include "publisher.h"
  88:./ros_lib/ros/node_handle.h **** #include "subscriber.h"
  89:./ros_lib/ros/node_handle.h **** #include "service_server.h"
  90:./ros_lib/ros/node_handle.h **** #include "service_client.h"
  91:./ros_lib/ros/node_handle.h **** 
  92:./ros_lib/ros/node_handle.h **** namespace ros {
  93:./ros_lib/ros/node_handle.h **** 
  94:./ros_lib/ros/node_handle.h ****   using rosserial_msgs::TopicInfo;
  95:./ros_lib/ros/node_handle.h **** 
  96:./ros_lib/ros/node_handle.h ****   /* Node Handle */
  97:./ros_lib/ros/node_handle.h ****   template<class Hardware,
  98:./ros_lib/ros/node_handle.h ****            int MAX_SUBSCRIBERS=25,
  99:./ros_lib/ros/node_handle.h ****            int MAX_PUBLISHERS=25,
 100:./ros_lib/ros/node_handle.h ****            int INPUT_SIZE=512,
 101:./ros_lib/ros/node_handle.h ****            int OUTPUT_SIZE=512>
 102:./ros_lib/ros/node_handle.h ****   class NodeHandle_ : public NodeHandleBase_
 103:./ros_lib/ros/node_handle.h ****   {
 104:./ros_lib/ros/node_handle.h ****     protected:
 105:./ros_lib/ros/node_handle.h ****       Hardware hardware_;
 106:./ros_lib/ros/node_handle.h **** 
 107:./ros_lib/ros/node_handle.h ****       /* time used for syncing */
 108:./ros_lib/ros/node_handle.h ****       unsigned long rt_time;
 109:./ros_lib/ros/node_handle.h **** 
 110:./ros_lib/ros/node_handle.h ****       /* used for computing current time */
 111:./ros_lib/ros/node_handle.h ****       unsigned long sec_offset, nsec_offset;
 112:./ros_lib/ros/node_handle.h **** 
ARM GAS  C:\DOCUME~1\Chuck\LOCALS~1\Temp\ccqhXblh.s 			page 18


 113:./ros_lib/ros/node_handle.h ****       unsigned char message_in[INPUT_SIZE];
 114:./ros_lib/ros/node_handle.h ****       unsigned char message_out[OUTPUT_SIZE];
 115:./ros_lib/ros/node_handle.h **** 
 116:./ros_lib/ros/node_handle.h ****       Publisher * publishers[MAX_PUBLISHERS];
 117:./ros_lib/ros/node_handle.h ****       Subscriber_ * subscribers[MAX_SUBSCRIBERS];
 118:./ros_lib/ros/node_handle.h **** 
 119:./ros_lib/ros/node_handle.h ****       /*
 120:./ros_lib/ros/node_handle.h ****        * Setup Functions
 121:./ros_lib/ros/node_handle.h ****        */
 122:./ros_lib/ros/node_handle.h ****     public:
 123:./ros_lib/ros/node_handle.h ****       NodeHandle_() : configured_(false) {
 124:./ros_lib/ros/node_handle.h **** #if true
 125:./ros_lib/ros/node_handle.h ****         for(unsigned int i=0; i< MAX_PUBLISHERS; i++) 
 126:./ros_lib/ros/node_handle.h **** 	   publishers[i] = 0;
 127:./ros_lib/ros/node_handle.h **** 
 128:./ros_lib/ros/node_handle.h ****         for(unsigned int i=0; i< MAX_SUBSCRIBERS; i++) 
 129:./ros_lib/ros/node_handle.h **** 	   subscribers[i] = 0;
 130:./ros_lib/ros/node_handle.h **** 
 131:./ros_lib/ros/node_handle.h ****         for(unsigned int i=0; i< INPUT_SIZE; i++) 
 132:./ros_lib/ros/node_handle.h **** 	   message_in[i] = 0;
 133:./ros_lib/ros/node_handle.h **** 
 134:./ros_lib/ros/node_handle.h ****         for(unsigned int i=0; i< OUTPUT_SIZE; i++) 
 135:./ros_lib/ros/node_handle.h **** 	   message_out[i] = 0;
 136:./ros_lib/ros/node_handle.h **** 
 137:./ros_lib/ros/node_handle.h ****         req_param_resp.ints_length = 0;
 138:./ros_lib/ros/node_handle.h ****         req_param_resp.ints = NULL;
 139:./ros_lib/ros/node_handle.h ****         req_param_resp.floats_length = 0;
 140:./ros_lib/ros/node_handle.h ****         req_param_resp.floats = NULL;
 141:./ros_lib/ros/node_handle.h ****         req_param_resp.ints_length = 0;
 142:./ros_lib/ros/node_handle.h ****         req_param_resp.ints = NULL;
 143:./ros_lib/ros/node_handle.h ****       }
 144:./ros_lib/ros/node_handle.h **** #endif      
 145:./ros_lib/ros/node_handle.h ****       Hardware* getHardware(){
 146:./ros_lib/ros/node_handle.h ****         return &hardware_;
 147:./ros_lib/ros/node_handle.h ****       }
 148:./ros_lib/ros/node_handle.h **** 
 149:./ros_lib/ros/node_handle.h ****       /* Start serial, initialize buffers */
 150:./ros_lib/ros/node_handle.h ****       void initNode(){
 151:./ros_lib/ros/node_handle.h ****         hardware_.init();
 152:./ros_lib/ros/node_handle.h ****         mode_ = 0;
 153:./ros_lib/ros/node_handle.h ****         bytes_ = 0;
 154:./ros_lib/ros/node_handle.h ****         index_ = 0;
 155:./ros_lib/ros/node_handle.h ****         topic_ = 0;
 156:./ros_lib/ros/node_handle.h ****       };
 157:./ros_lib/ros/node_handle.h **** 
 158:./ros_lib/ros/node_handle.h ****       /* Start a named port, which may be network server IP, initialize buffers */
 159:./ros_lib/ros/node_handle.h ****       void initNode(char *portName){
 160:./ros_lib/ros/node_handle.h ****         hardware_.init(portName);
 161:./ros_lib/ros/node_handle.h ****         mode_ = 0;
 162:./ros_lib/ros/node_handle.h ****         bytes_ = 0;
 163:./ros_lib/ros/node_handle.h ****         index_ = 0;
 164:./ros_lib/ros/node_handle.h ****         topic_ = 0;
 165:./ros_lib/ros/node_handle.h ****       };
 166:./ros_lib/ros/node_handle.h **** 
 167:./ros_lib/ros/node_handle.h ****     protected:
 168:./ros_lib/ros/node_handle.h ****       //State machine variables for spinOnce
 169:./ros_lib/ros/node_handle.h ****       int mode_;
ARM GAS  C:\DOCUME~1\Chuck\LOCALS~1\Temp\ccqhXblh.s 			page 19


 170:./ros_lib/ros/node_handle.h ****       int bytes_;
 171:./ros_lib/ros/node_handle.h ****       int topic_;
 172:./ros_lib/ros/node_handle.h ****       int index_;
 173:./ros_lib/ros/node_handle.h ****       int checksum_;
 174:./ros_lib/ros/node_handle.h **** 
 175:./ros_lib/ros/node_handle.h ****       bool configured_;
 176:./ros_lib/ros/node_handle.h **** 
 177:./ros_lib/ros/node_handle.h ****       /* used for syncing the time */
 178:./ros_lib/ros/node_handle.h ****       unsigned long last_sync_time;
 179:./ros_lib/ros/node_handle.h ****       unsigned long last_sync_receive_time;
 180:./ros_lib/ros/node_handle.h ****       unsigned long last_msg_timeout_time;
 181:./ros_lib/ros/node_handle.h **** 
 182:./ros_lib/ros/node_handle.h ****     public:
 183:./ros_lib/ros/node_handle.h ****       /* This function goes in your loop() function, it handles
 184:./ros_lib/ros/node_handle.h ****        *  serial input and callbacks for subscribers.
 185:./ros_lib/ros/node_handle.h ****        */
 186:./ros_lib/ros/node_handle.h **** 
 187:./ros_lib/ros/node_handle.h **** 
 188:./ros_lib/ros/node_handle.h ****       virtual int spinOnce(){
 189:./ros_lib/ros/node_handle.h **** 
 190:./ros_lib/ros/node_handle.h ****         /* restart if timed out */
 191:./ros_lib/ros/node_handle.h ****         unsigned long c_time = hardware_.time();
 192:./ros_lib/ros/node_handle.h ****         if( (c_time - last_sync_receive_time) > (SYNC_SECONDS*1100) ){
 193:./ros_lib/ros/node_handle.h ****             configured_ = false;
 194:./ros_lib/ros/node_handle.h ****          }
 195:./ros_lib/ros/node_handle.h ****          
 196:./ros_lib/ros/node_handle.h ****         /* reset if message has timed out */
 197:./ros_lib/ros/node_handle.h ****         if ( mode_ != MODE_FIRST_FF){ 
 198:./ros_lib/ros/node_handle.h ****           if (c_time > last_msg_timeout_time){
 199:./ros_lib/ros/node_handle.h ****             mode_ = MODE_FIRST_FF;
 200:./ros_lib/ros/node_handle.h ****           }
 201:./ros_lib/ros/node_handle.h ****         }
 202:./ros_lib/ros/node_handle.h **** 
 203:./ros_lib/ros/node_handle.h ****         /* while available buffer, read data */
 204:./ros_lib/ros/node_handle.h ****         while( true )
 205:./ros_lib/ros/node_handle.h ****         {
 206:./ros_lib/ros/node_handle.h ****           int data = hardware_.read();
 207:./ros_lib/ros/node_handle.h ****           if( data < 0 )
 208:./ros_lib/ros/node_handle.h ****             break;
 209:./ros_lib/ros/node_handle.h ****           checksum_ += data;
 210:./ros_lib/ros/node_handle.h ****           if( mode_ == MODE_MESSAGE ){        /* message data being recieved */
 211:./ros_lib/ros/node_handle.h ****             message_in[index_++] = data;
 212:./ros_lib/ros/node_handle.h ****             bytes_--;
 213:./ros_lib/ros/node_handle.h ****             if(bytes_ == 0)                  /* is message complete? if so, checksum */
 214:./ros_lib/ros/node_handle.h ****               mode_ = MODE_MSG_CHECKSUM;
 215:./ros_lib/ros/node_handle.h ****           }else if( mode_ == MODE_FIRST_FF ){
 216:./ros_lib/ros/node_handle.h ****             if(data == 0xff){
 217:./ros_lib/ros/node_handle.h ****               mode_++;
 218:./ros_lib/ros/node_handle.h ****               last_msg_timeout_time = c_time + MSG_TIMEOUT;
 219:./ros_lib/ros/node_handle.h ****             }
 220:./ros_lib/ros/node_handle.h ****             else if( hardware_.time() - c_time > (SYNC_SECONDS)){
 221:./ros_lib/ros/node_handle.h ****               /* We have been stuck in spinOnce too long, return error */
 222:./ros_lib/ros/node_handle.h ****               configured_=false;
 223:./ros_lib/ros/node_handle.h ****               return -2;
 224:./ros_lib/ros/node_handle.h ****             }
 225:./ros_lib/ros/node_handle.h ****           }else if( mode_ == MODE_PROTOCOL_VER ){
 226:./ros_lib/ros/node_handle.h ****             if(data == PROTOCOL_VER){
ARM GAS  C:\DOCUME~1\Chuck\LOCALS~1\Temp\ccqhXblh.s 			page 20


 227:./ros_lib/ros/node_handle.h ****               mode_++;
 228:./ros_lib/ros/node_handle.h ****             }else{
 229:./ros_lib/ros/node_handle.h ****               mode_ = MODE_FIRST_FF;
 230:./ros_lib/ros/node_handle.h ****               if (configured_ == false)
 231:./ros_lib/ros/node_handle.h ****                   requestSyncTime(); 	/* send a msg back showing our protocol version */
 232:./ros_lib/ros/node_handle.h ****             }
 233:./ros_lib/ros/node_handle.h **** 	  }else if( mode_ == MODE_SIZE_L ){   /* bottom half of message size */
 234:./ros_lib/ros/node_handle.h ****             bytes_ = data;
 235:./ros_lib/ros/node_handle.h ****             index_ = 0;
 236:./ros_lib/ros/node_handle.h ****             mode_++;
 237:./ros_lib/ros/node_handle.h ****             checksum_ = data;               /* first byte for calculating size checksum */
 238:./ros_lib/ros/node_handle.h ****           }else if( mode_ == MODE_SIZE_H ){   /* top half of message size */
 239:./ros_lib/ros/node_handle.h ****             bytes_ += data<<8;
 240:./ros_lib/ros/node_handle.h **** 	    mode_++;
 241:./ros_lib/ros/node_handle.h ****           }else if( mode_ == MODE_SIZE_CHECKSUM ){  
 242:./ros_lib/ros/node_handle.h ****             if( (checksum_%256) == 255)
 243:./ros_lib/ros/node_handle.h **** 	      mode_++;
 244:./ros_lib/ros/node_handle.h **** 	    else 
 245:./ros_lib/ros/node_handle.h **** 	      mode_ = MODE_FIRST_FF;          /* Abandon the frame if the msg len is wrong */
 246:./ros_lib/ros/node_handle.h **** 	  }else if( mode_ == MODE_TOPIC_L ){  /* bottom half of topic id */
 247:./ros_lib/ros/node_handle.h ****             topic_ = data;
 248:./ros_lib/ros/node_handle.h ****             mode_++;
 249:./ros_lib/ros/node_handle.h ****             checksum_ = data;               /* first byte included in checksum */
 250:./ros_lib/ros/node_handle.h ****           }else if( mode_ == MODE_TOPIC_H ){  /* top half of topic id */
 251:./ros_lib/ros/node_handle.h ****             topic_ += data<<8;
 252:./ros_lib/ros/node_handle.h ****             mode_ = MODE_MESSAGE;
 253:./ros_lib/ros/node_handle.h ****             if(bytes_ == 0)
 254:./ros_lib/ros/node_handle.h ****               mode_ = MODE_MSG_CHECKSUM;  
 255:./ros_lib/ros/node_handle.h ****           }else if( mode_ == MODE_MSG_CHECKSUM ){ /* do checksum */
 256:./ros_lib/ros/node_handle.h ****             mode_ = MODE_FIRST_FF;
 257:./ros_lib/ros/node_handle.h ****             if( (checksum_%256) == 255){
 258:./ros_lib/ros/node_handle.h ****               if(topic_ == TopicInfo::ID_PUBLISHER){
 259:./ros_lib/ros/node_handle.h ****                 requestSyncTime();
 260:./ros_lib/ros/node_handle.h ****                 negotiateTopics();
 261:./ros_lib/ros/node_handle.h ****                 last_sync_time = c_time;
 262:./ros_lib/ros/node_handle.h ****                 last_sync_receive_time = c_time;
 263:./ros_lib/ros/node_handle.h ****                 return -1;
 264:./ros_lib/ros/node_handle.h ****               }else if(topic_ == TopicInfo::ID_TIME){
 265:./ros_lib/ros/node_handle.h ****                 syncTime(message_in);
 266:./ros_lib/ros/node_handle.h ****               #if PARAM_REQ_SUPPORT
 267:./ros_lib/ros/node_handle.h ****               }else if (topic_ == TopicInfo::ID_PARAMETER_REQUEST){
 268:./ros_lib/ros/node_handle.h ****                   req_param_resp.deserialize(message_in);
 269:./ros_lib/ros/node_handle.h ****                   param_recieved= true;
 270:./ros_lib/ros/node_handle.h ****               #endif
 271:./ros_lib/ros/node_handle.h ****               }else if(topic_ == TopicInfo::ID_TX_STOP){
 272:./ros_lib/ros/node_handle.h ****                   configured_ = false;
 273:./ros_lib/ros/node_handle.h ****               }else{
 274:./ros_lib/ros/node_handle.h ****                 if(subscribers[topic_-100])
 275:./ros_lib/ros/node_handle.h ****                   subscribers[topic_-100]->callback( message_in );
 276:./ros_lib/ros/node_handle.h ****               }
 277:./ros_lib/ros/node_handle.h ****             }
 278:./ros_lib/ros/node_handle.h ****           }
 279:./ros_lib/ros/node_handle.h ****         }
 280:./ros_lib/ros/node_handle.h **** 
 281:./ros_lib/ros/node_handle.h ****         /* occasionally sync time */
 282:./ros_lib/ros/node_handle.h ****         if( configured_ && ((c_time-last_sync_time) > (SYNC_SECONDS*500) )){
 283:./ros_lib/ros/node_handle.h ****           requestSyncTime();
ARM GAS  C:\DOCUME~1\Chuck\LOCALS~1\Temp\ccqhXblh.s 			page 21


 284:./ros_lib/ros/node_handle.h ****           last_sync_time = c_time;
 285:./ros_lib/ros/node_handle.h ****         }
 286:./ros_lib/ros/node_handle.h **** 
 287:./ros_lib/ros/node_handle.h ****         return 0;
 288:./ros_lib/ros/node_handle.h ****       }
 289:./ros_lib/ros/node_handle.h **** 
 290:./ros_lib/ros/node_handle.h **** 
 291:./ros_lib/ros/node_handle.h ****       /* Are we connected to the PC? */
 292:./ros_lib/ros/node_handle.h ****       virtual bool connected() {
 293:./ros_lib/ros/node_handle.h ****         return configured_;
 294:./ros_lib/ros/node_handle.h ****       };
 295:./ros_lib/ros/node_handle.h **** 
 296:./ros_lib/ros/node_handle.h ****       /********************************************************************
 297:./ros_lib/ros/node_handle.h ****        * Time functions
 298:./ros_lib/ros/node_handle.h ****        */
 299:./ros_lib/ros/node_handle.h **** 
 300:./ros_lib/ros/node_handle.h ****       void requestSyncTime()
 301:./ros_lib/ros/node_handle.h ****       {
 302:./ros_lib/ros/node_handle.h ****         std_msgs::Time t;
 303:./ros_lib/ros/node_handle.h ****         publish(TopicInfo::ID_TIME, &t);
 304:./ros_lib/ros/node_handle.h ****         rt_time = hardware_.time();
 305:./ros_lib/ros/node_handle.h ****       }
 306:./ros_lib/ros/node_handle.h **** 
 307:./ros_lib/ros/node_handle.h ****       void syncTime( unsigned char * data )
 308:./ros_lib/ros/node_handle.h ****       {
 309:./ros_lib/ros/node_handle.h ****         std_msgs::Time t;
 310:./ros_lib/ros/node_handle.h ****         unsigned long offset = hardware_.time() - rt_time;
 311:./ros_lib/ros/node_handle.h **** 
 312:./ros_lib/ros/node_handle.h ****         t.deserialize(data);
 313:./ros_lib/ros/node_handle.h ****         t.data.sec += offset/1000;
 314:./ros_lib/ros/node_handle.h ****         t.data.nsec += (offset%1000)*1000000UL;
 315:./ros_lib/ros/node_handle.h **** 
 316:./ros_lib/ros/node_handle.h ****         this->setNow(t.data);
 317:./ros_lib/ros/node_handle.h ****         last_sync_receive_time = hardware_.time();
 318:./ros_lib/ros/node_handle.h ****       }
 319:./ros_lib/ros/node_handle.h **** 
 320:./ros_lib/ros/node_handle.h ****       Time now(){
 321:./ros_lib/ros/node_handle.h ****         unsigned long ms = hardware_.time();
 322:./ros_lib/ros/node_handle.h ****         Time current_time;
 323:./ros_lib/ros/node_handle.h ****         current_time.sec = ms/1000 + sec_offset;
 324:./ros_lib/ros/node_handle.h ****         current_time.nsec = (ms%1000)*1000000UL + nsec_offset;
 325:./ros_lib/ros/node_handle.h ****         normalizeSecNSec(current_time.sec, current_time.nsec);
 326:./ros_lib/ros/node_handle.h ****         return current_time;
 327:./ros_lib/ros/node_handle.h ****       }
 328:./ros_lib/ros/node_handle.h **** 
 329:./ros_lib/ros/node_handle.h ****       void setNow( Time & new_now )
 330:./ros_lib/ros/node_handle.h ****       {
 331:./ros_lib/ros/node_handle.h ****         unsigned long ms = hardware_.time();
 332:./ros_lib/ros/node_handle.h ****         sec_offset = new_now.sec - ms/1000 - 1;
 333:./ros_lib/ros/node_handle.h ****         nsec_offset = new_now.nsec - (ms%1000)*1000000UL + 1000000000UL;
 334:./ros_lib/ros/node_handle.h ****         normalizeSecNSec(sec_offset, nsec_offset);
 335:./ros_lib/ros/node_handle.h ****       }
 336:./ros_lib/ros/node_handle.h **** 
 337:./ros_lib/ros/node_handle.h ****       /********************************************************************
 338:./ros_lib/ros/node_handle.h ****        * Topic Management 
 339:./ros_lib/ros/node_handle.h ****        */
 340:./ros_lib/ros/node_handle.h **** 
ARM GAS  C:\DOCUME~1\Chuck\LOCALS~1\Temp\ccqhXblh.s 			page 22


 341:./ros_lib/ros/node_handle.h ****       /* Register a new publisher */    
 342:./ros_lib/ros/node_handle.h ****       bool advertise(Publisher & p)
 617              		.loc 6 342 0
 618              		.cfi_startproc
 619 0000 80B5     		push	{r7, lr}
 620              		.cfi_def_cfa_offset 8
 621              		.cfi_offset 7, -8
 622              		.cfi_offset 14, -4
 623 0002 84B0     		sub	sp, sp, #16
 624              		.cfi_def_cfa_offset 24
 625 0004 00AF     		add	r7, sp, #0
 626              		.cfi_def_cfa_register 7
 627 0006 7860     		str	r0, [r7, #4]
 628 0008 3960     		str	r1, [r7]
 629              	.LBB8:
 630              	.LBB9:
 343:./ros_lib/ros/node_handle.h ****       {
 344:./ros_lib/ros/node_handle.h ****         for(int i = 0; i < MAX_PUBLISHERS; i++){
 631              		.loc 6 344 0
 632 000a 0023     		mov	r3, #0
 633 000c FB60     		str	r3, [r7, #12]
 634 000e 19E0     		b	.L42
 635              	.L45:
 345:./ros_lib/ros/node_handle.h ****           if(publishers[i] == 0){ // empty slot
 636              		.loc 6 345 0
 637 0010 7B68     		ldr	r3, [r7, #4]
 638 0012 FA68     		ldr	r2, [r7, #12]
 639 0014 6A32     		add	r2, r2, #106
 640 0016 9200     		lsl	r2, r2, #2
 641 0018 D358     		ldr	r3, [r2, r3]
 642 001a 002B     		cmp	r3, #0
 643 001c 0FD1     		bne	.L43
 346:./ros_lib/ros/node_handle.h ****             publishers[i] = &p;
 644              		.loc 6 346 0
 645 001e 7B68     		ldr	r3, [r7, #4]
 646 0020 FA68     		ldr	r2, [r7, #12]
 647 0022 6A32     		add	r2, r2, #106
 648 0024 9200     		lsl	r2, r2, #2
 649 0026 3968     		ldr	r1, [r7]
 650 0028 D150     		str	r1, [r2, r3]
 347:./ros_lib/ros/node_handle.h ****             p.id_ = i+100+MAX_SUBSCRIBERS;
 651              		.loc 6 347 0
 652 002a FB68     		ldr	r3, [r7, #12]
 653 002c 1A1C     		mov	r2, r3
 654 002e 6E32     		add	r2, r2, #110
 655 0030 3B68     		ldr	r3, [r7]
 656 0032 9A60     		str	r2, [r3, #8]
 348:./ros_lib/ros/node_handle.h ****             p.nh_ = this;
 657              		.loc 6 348 0
 658 0034 7A68     		ldr	r2, [r7, #4]
 659 0036 3B68     		ldr	r3, [r7]
 660 0038 DA60     		str	r2, [r3, #12]
 349:./ros_lib/ros/node_handle.h ****             return true;
 661              		.loc 6 349 0
 662 003a 0123     		mov	r3, #1
 663 003c 06E0     		b	.L44
 664              	.L43:
ARM GAS  C:\DOCUME~1\Chuck\LOCALS~1\Temp\ccqhXblh.s 			page 23


 344:./ros_lib/ros/node_handle.h ****         for(int i = 0; i < MAX_PUBLISHERS; i++){
 665              		.loc 6 344 0
 666 003e FB68     		ldr	r3, [r7, #12]
 667 0040 0133     		add	r3, r3, #1
 668 0042 FB60     		str	r3, [r7, #12]
 669              	.L42:
 344:./ros_lib/ros/node_handle.h ****         for(int i = 0; i < MAX_PUBLISHERS; i++){
 670              		.loc 6 344 0 is_stmt 0 discriminator 1
 671 0044 FB68     		ldr	r3, [r7, #12]
 672 0046 132B     		cmp	r3, #19
 673 0048 E2DD     		ble	.L45
 674              	.LBE9:
 350:./ros_lib/ros/node_handle.h ****           }
 351:./ros_lib/ros/node_handle.h ****         }
 352:./ros_lib/ros/node_handle.h ****         return false;
 675              		.loc 6 352 0 is_stmt 1
 676 004a 0023     		mov	r3, #0
 677              	.L44:
 678              	.LBE8:
 353:./ros_lib/ros/node_handle.h ****       }
 679              		.loc 6 353 0
 680 004c 181C     		mov	r0, r3
 681 004e BD46     		mov	sp, r7
 682 0050 04B0     		add	sp, sp, #16
 683              		@ sp needed
 684 0052 80BD     		pop	{r7, pc}
 685              		.cfi_endproc
 686              	.LFE134:
 687              		.size	_ZN3ros11NodeHandle_I13Psoc4HardwareLi10ELi20ELi200ELi200EE9advertiseERNS_9PublisherE, .-_ZN
 688              		.weak	_ZTVN8std_msgs6StringE
 689              		.section	.rodata._ZTVN8std_msgs6StringE,"aG",%progbits,_ZTVN8std_msgs6StringE,comdat
 690              		.align	3
 691              		.type	_ZTVN8std_msgs6StringE, %object
 692              		.size	_ZTVN8std_msgs6StringE, 24
 693              	_ZTVN8std_msgs6StringE:
 694 0000 00000000 		.word	0
 695 0004 00000000 		.word	0
 696 0008 00000000 		.word	_ZNK8std_msgs6String9serializeEPh
 697 000c 00000000 		.word	_ZN8std_msgs6String11deserializeEPh
 698 0010 00000000 		.word	_ZN8std_msgs6String7getTypeEv
 699 0014 00000000 		.word	_ZN8std_msgs6String6getMD5Ev
 700              		.weak	_ZTVN3ros3MsgE
 701              		.section	.rodata._ZTVN3ros3MsgE,"aG",%progbits,_ZTVN3ros3MsgE,comdat
 702              		.align	3
 703              		.type	_ZTVN3ros3MsgE, %object
 704              		.size	_ZTVN3ros3MsgE, 24
 705              	_ZTVN3ros3MsgE:
 706 0000 00000000 		.word	0
 707 0004 00000000 		.word	0
 708 0008 00000000 		.word	__cxa_pure_virtual
 709 000c 00000000 		.word	__cxa_pure_virtual
 710 0010 00000000 		.word	__cxa_pure_virtual
 711 0014 00000000 		.word	__cxa_pure_virtual
 712              		.section	.rodata
 713 0035 000000   		.align	2
 714              	.LC18:
 715 0038 63686174 		.ascii	"chatter\000"
ARM GAS  C:\DOCUME~1\Chuck\LOCALS~1\Temp\ccqhXblh.s 			page 24


 715      74657200 
 716              		.section	.text._Z41__static_initialization_and_destruction_0ii,"ax",%progbits
 717              		.align	2
 718              		.code	16
 719              		.thumb_func
 720              		.type	_Z41__static_initialization_and_destruction_0ii, %function
 721              	_Z41__static_initialization_and_destruction_0ii:
 722              	.LFB135:
  32:.\ros_lib\examples\HelloWorld/HelloWorld.cpp **** 
  33:.\ros_lib\examples\HelloWorld/HelloWorld.cpp **** } // namespace...
 723              		.loc 5 33 0
 724              		.cfi_startproc
 725 0000 80B5     		push	{r7, lr}
 726              		.cfi_def_cfa_offset 8
 727              		.cfi_offset 7, -8
 728              		.cfi_offset 14, -4
 729 0002 82B0     		sub	sp, sp, #8
 730              		.cfi_def_cfa_offset 16
 731 0004 00AF     		add	r7, sp, #0
 732              		.cfi_def_cfa_register 7
 733 0006 7860     		str	r0, [r7, #4]
 734 0008 3960     		str	r1, [r7]
 735              		.loc 5 33 0
 736 000a 7B68     		ldr	r3, [r7, #4]
 737 000c 012B     		cmp	r3, #1
 738 000e 10D1     		bne	.L46
 739              		.loc 5 33 0 is_stmt 0 discriminator 1
 740 0010 3A68     		ldr	r2, [r7]
 741 0012 094B     		ldr	r3, .L48
 742 0014 9A42     		cmp	r2, r3
 743 0016 0CD1     		bne	.L46
  12:.\ros_lib\examples\HelloWorld/HelloWorld.cpp **** std_msgs::String str_msg;
 744              		.loc 5 12 0 is_stmt 1
 745 0018 084B     		ldr	r3, .L48+4
 746 001a 181C     		mov	r0, r3
 747 001c FFF7FEFF 		bl	_ZN8std_msgs6StringC1Ev
  13:.\ros_lib\examples\HelloWorld/HelloWorld.cpp **** ros::Publisher chatter("chatter", &str_msg);
 748              		.loc 5 13 0
 749 0020 0749     		ldr	r1, .L48+8
 750 0022 084A     		ldr	r2, .L48+12
 751 0024 054B     		ldr	r3, .L48+4
 752 0026 081C     		mov	r0, r1
 753 0028 111C     		mov	r1, r2
 754 002a 1A1C     		mov	r2, r3
 755 002c 0023     		mov	r3, #0
 756 002e FFF7FEFF 		bl	_ZN3ros9PublisherC1EPKcPNS_3MsgEi
 757              	.L46:
 758              		.loc 5 33 0
 759 0032 BD46     		mov	sp, r7
 760 0034 02B0     		add	sp, sp, #8
 761              		@ sp needed
 762 0036 80BD     		pop	{r7, pc}
 763              	.L49:
 764              		.align	2
 765              	.L48:
 766 0038 FFFF0000 		.word	65535
 767 003c 00000000 		.word	_ZN10HelloWorld7str_msgE
ARM GAS  C:\DOCUME~1\Chuck\LOCALS~1\Temp\ccqhXblh.s 			page 25


 768 0040 00000000 		.word	_ZN10HelloWorld7chatterE
 769 0044 38000000 		.word	.LC18
 770              		.cfi_endproc
 771              	.LFE135:
 772              		.size	_Z41__static_initialization_and_destruction_0ii, .-_Z41__static_initialization_and_destructi
 773              		.section	.rodata
 774              		.align	2
 775              		.type	_ZN14rosserial_msgsL12REQUESTPARAME, %object
 776              		.size	_ZN14rosserial_msgsL12REQUESTPARAME, 28
 777              	_ZN14rosserial_msgsL12REQUESTPARAME:
 778 0040 726F7373 		.ascii	"rosserial_msgs/RequestParam\000"
 778      65726961 
 778      6C5F6D73 
 778      67732F52 
 778      65717565 
 779              		.section	.text._GLOBAL__sub_I__ZN10HelloWorld7str_msgE,"ax",%progbits
 780              		.align	2
 781              		.code	16
 782              		.thumb_func
 783              		.type	_GLOBAL__sub_I__ZN10HelloWorld7str_msgE, %function
 784              	_GLOBAL__sub_I__ZN10HelloWorld7str_msgE:
 785              	.LFB136:
 786              		.loc 5 33 0
 787              		.cfi_startproc
 788 0000 80B5     		push	{r7, lr}
 789              		.cfi_def_cfa_offset 8
 790              		.cfi_offset 7, -8
 791              		.cfi_offset 14, -4
 792 0002 00AF     		add	r7, sp, #0
 793              		.cfi_def_cfa_register 7
 794              		.loc 5 33 0
 795 0004 034B     		ldr	r3, .L51
 796 0006 0120     		mov	r0, #1
 797 0008 191C     		mov	r1, r3
 798 000a FFF7FEFF 		bl	_Z41__static_initialization_and_destruction_0ii
 799 000e BD46     		mov	sp, r7
 800              		@ sp needed
 801 0010 80BD     		pop	{r7, pc}
 802              	.L52:
 803 0012 C046     		.align	2
 804              	.L51:
 805 0014 FFFF0000 		.word	65535
 806              		.cfi_endproc
 807              	.LFE136:
 808              		.size	_GLOBAL__sub_I__ZN10HelloWorld7str_msgE, .-_GLOBAL__sub_I__ZN10HelloWorld7str_msgE
 809              		.section	.init_array,"aw",%init_array
 810              		.align	2
 811 0000 00000000 		.word	_GLOBAL__sub_I__ZN10HelloWorld7str_msgE(target1)
 812              		.text
 813              	.Letext0:
 814              		.file 7 "c:\\program files\\cypress\\psoc creator\\3.1\\psoc creator\\import\\gnu_cs\\arm\\4.8.4\\
 815              		.file 8 "c:\\program files\\cypress\\psoc creator\\3.1\\psoc creator\\import\\gnu_cs\\arm\\4.8.4\\
 816              		.file 9 "./ros_lib/ros.h"
 817              		.file 10 "./ros_lib/rosserial_msgs/TopicInfo.h"
 818              		.file 11 "./ros_lib/Psoc4Hardware.h"
 819              		.file 12 "./ros_lib/std_msgs/Time.h"
 820              		.file 13 "./ros_lib/rosserial_msgs/RequestParam.h"
ARM GAS  C:\DOCUME~1\Chuck\LOCALS~1\Temp\ccqhXblh.s 			page 26


 821              		.file 14 "./ros_lib/Uarts.h"