ARM GAS  C:\DOCUME~1\Chuck\LOCALS~1\Temp\ccFzXblh.s 			page 1


   1              		.cpu cortex-m0
   2              		.fpu softvfp
   3              		.eabi_attribute 20, 1
   4              		.eabi_attribute 21, 1
   5              		.eabi_attribute 23, 3
   6              		.eabi_attribute 24, 1
   7              		.eabi_attribute 25, 1
   8              		.eabi_attribute 26, 1
   9              		.eabi_attribute 30, 6
  10              		.eabi_attribute 34, 0
  11              		.eabi_attribute 18, 4
  12              		.code	16
  13              		.file	"isnprintf.cpp"
  14              		.text
  15              	.Ltext0:
  16              		.cfi_sections	.debug_frame
  17              		.section	.text._ZL8add_charPPcPiic,"ax",%progbits
  18              		.align	2
  19              		.code	16
  20              		.thumb_func
  21              		.type	_ZL8add_charPPcPiic, %function
  22              	_ZL8add_charPPcPiic:
  23              	.LFB0:
  24              		.file 1 ".\\ros_lib\\isnprintf.cpp"
   1:.\ros_lib/isnprintf.cpp **** /******************************************************************************
   2:.\ros_lib/isnprintf.cpp **** * derived from http://www.cypress.com/?id=4&rID=81086, license terms unknown
   3:.\ros_lib/isnprintf.cpp **** * modifications (c) C. Harrison CC BY 3.0 http://creativecommons.org/licenses/by/3.0/
   4:.\ros_lib/isnprintf.cpp **** *This file is for isnprintf()
   5:.\ros_lib/isnprintf.cpp **** *The isnprintf() is a simple snprintf() and only can print string with %s,%d,%c,%x.
   6:.\ros_lib/isnprintf.cpp **** *******************************************************************************/
   7:.\ros_lib/isnprintf.cpp **** #include "isnprintf.h"
   8:.\ros_lib/isnprintf.cpp **** 
   9:.\ros_lib/isnprintf.cpp **** static void add_char(char **ps, int* pchars_generated, int buf_len, char ch)
  10:.\ros_lib/isnprintf.cpp **** {
  25              		.loc 1 10 0
  26              		.cfi_startproc
  27 0000 80B5     		push	{r7, lr}
  28              		.cfi_def_cfa_offset 8
  29              		.cfi_offset 7, -8
  30              		.cfi_offset 14, -4
  31 0002 84B0     		sub	sp, sp, #16
  32              		.cfi_def_cfa_offset 24
  33 0004 00AF     		add	r7, sp, #0
  34              		.cfi_def_cfa_register 7
  35 0006 F860     		str	r0, [r7, #12]
  36 0008 B960     		str	r1, [r7, #8]
  37 000a 7A60     		str	r2, [r7, #4]
  38 000c 1A1C     		mov	r2, r3
  39 000e FB1C     		add	r3, r7, #3
  40 0010 1A70     		strb	r2, [r3]
  11:.\ros_lib/isnprintf.cpp ****    if((*pchars_generated)++ < buf_len)
  41              		.loc 1 11 0
  42 0012 BB68     		ldr	r3, [r7, #8]
  43 0014 1A68     		ldr	r2, [r3]
  44 0016 511C     		add	r1, r2, #1
  45 0018 BB68     		ldr	r3, [r7, #8]
  46 001a 1960     		str	r1, [r3]
ARM GAS  C:\DOCUME~1\Chuck\LOCALS~1\Temp\ccFzXblh.s 			page 2


  47 001c 0123     		mov	r3, #1
  48 001e 7968     		ldr	r1, [r7, #4]
  49 0020 8A42     		cmp	r2, r1
  50 0022 00DB     		blt	.L2
  51 0024 0023     		mov	r3, #0
  52              	.L2:
  53 0026 DBB2     		uxtb	r3, r3
  54 0028 002B     		cmp	r3, #0
  55 002a 07D0     		beq	.L3
  12:.\ros_lib/isnprintf.cpp ****    {
  13:.\ros_lib/isnprintf.cpp ****        *(*ps)++ = ch;
  56              		.loc 1 13 0
  57 002c FB68     		ldr	r3, [r7, #12]
  58 002e 1B68     		ldr	r3, [r3]
  59 0030 591C     		add	r1, r3, #1
  60 0032 FA68     		ldr	r2, [r7, #12]
  61 0034 1160     		str	r1, [r2]
  62 0036 FA1C     		add	r2, r7, #3
  63 0038 1278     		ldrb	r2, [r2]
  64 003a 1A70     		strb	r2, [r3]
  65              	.L3:
  14:.\ros_lib/isnprintf.cpp ****    }
  15:.\ros_lib/isnprintf.cpp ****    if (*pchars_generated == buf_len)
  66              		.loc 1 15 0
  67 003c BB68     		ldr	r3, [r7, #8]
  68 003e 1A68     		ldr	r2, [r3]
  69 0040 7B68     		ldr	r3, [r7, #4]
  70 0042 9A42     		cmp	r2, r3
  71 0044 04D1     		bne	.L1
  16:.\ros_lib/isnprintf.cpp ****    {
  17:.\ros_lib/isnprintf.cpp ****        *(*ps-1) = 0;
  72              		.loc 1 17 0
  73 0046 FB68     		ldr	r3, [r7, #12]
  74 0048 1B68     		ldr	r3, [r3]
  75 004a 013B     		sub	r3, r3, #1
  76 004c 0022     		mov	r2, #0
  77 004e 1A70     		strb	r2, [r3]
  78              	.L1:
  18:.\ros_lib/isnprintf.cpp ****    }
  19:.\ros_lib/isnprintf.cpp **** }
  79              		.loc 1 19 0
  80 0050 BD46     		mov	sp, r7
  81 0052 04B0     		add	sp, sp, #16
  82              		@ sp needed
  83 0054 80BD     		pop	{r7, pc}
  84              		.cfi_endproc
  85              	.LFE0:
  86              		.size	_ZL8add_charPPcPiic, .-_ZL8add_charPPcPiic
  87 0056 C046     		.section	.rodata
  88              		.align	2
  89              	.LC0:
  90 0000 30313233 		.ascii	"0123456789abcdef\000"
  90      34353637 
  90      38396162 
  90      63646566 
  90      00
  91 0011 000000   		.section	.text._ZL6changeh,"ax",%progbits
ARM GAS  C:\DOCUME~1\Chuck\LOCALS~1\Temp\ccFzXblh.s 			page 3


  92              		.align	2
  93              		.code	16
  94              		.thumb_func
  95              		.type	_ZL6changeh, %function
  96              	_ZL6changeh:
  97              	.LFB1:
  20:.\ros_lib/isnprintf.cpp **** 
  21:.\ros_lib/isnprintf.cpp ****       
  22:.\ros_lib/isnprintf.cpp **** static char* change(uint8_t Index)
  23:.\ros_lib/isnprintf.cpp **** {
  98              		.loc 1 23 0
  99              		.cfi_startproc
 100 0000 80B5     		push	{r7, lr}
 101              		.cfi_def_cfa_offset 8
 102              		.cfi_offset 7, -8
 103              		.cfi_offset 14, -4
 104 0002 82B0     		sub	sp, sp, #8
 105              		.cfi_def_cfa_offset 16
 106 0004 00AF     		add	r7, sp, #0
 107              		.cfi_def_cfa_register 7
 108 0006 021C     		mov	r2, r0
 109 0008 FB1D     		add	r3, r7, #7
 110 000a 1A70     		strb	r2, [r3]
  24:.\ros_lib/isnprintf.cpp ****     return (char*)("0123456789abcdef"+Index);
 111              		.loc 1 24 0
 112 000c FB1D     		add	r3, r7, #7
 113 000e 1A78     		ldrb	r2, [r3]
 114 0010 024B     		ldr	r3, .L7
 115 0012 D318     		add	r3, r2, r3
  25:.\ros_lib/isnprintf.cpp **** }
 116              		.loc 1 25 0
 117 0014 181C     		mov	r0, r3
 118 0016 BD46     		mov	sp, r7
 119 0018 02B0     		add	sp, sp, #8
 120              		@ sp needed
 121 001a 80BD     		pop	{r7, pc}
 122              	.L8:
 123              		.align	2
 124              	.L7:
 125 001c 00000000 		.word	.LC0
 126              		.cfi_endproc
 127              	.LFE1:
 128              		.size	_ZL6changeh, .-_ZL6changeh
 129              		.global	__aeabi_uidivmod
 130              		.global	__aeabi_uidiv
 131              		.section	.text._Z9isnprintfPciPKcz,"ax",%progbits
 132              		.align	2
 133              		.global	_Z9isnprintfPciPKcz
 134              		.code	16
 135              		.thumb_func
 136              		.type	_Z9isnprintfPciPKcz, %function
 137              	_Z9isnprintfPciPKcz:
 138              	.LFB2:
  26:.\ros_lib/isnprintf.cpp **** 
  27:.\ros_lib/isnprintf.cpp **** 
  28:.\ros_lib/isnprintf.cpp **** int isnprintf(char *s, int buf_len, const char *pszFmt,...)
  29:.\ros_lib/isnprintf.cpp **** {
ARM GAS  C:\DOCUME~1\Chuck\LOCALS~1\Temp\ccFzXblh.s 			page 4


 139              		.loc 1 29 0
 140              		.cfi_startproc
 141 0000 0CB4     		push	{r2, r3}
 142              		.cfi_def_cfa_offset 8
 143 0002 90B5     		push	{r4, r7, lr}
 144              		.cfi_def_cfa_offset 20
 145              		.cfi_offset 4, -20
 146              		.cfi_offset 7, -16
 147              		.cfi_offset 14, -12
 148 0004 8FB0     		sub	sp, sp, #60
 149              		.cfi_def_cfa_offset 80
 150 0006 00AF     		add	r7, sp, #0
 151              		.cfi_def_cfa_register 7
 152 0008 7860     		str	r0, [r7, #4]
 153 000a 3960     		str	r1, [r7]
 154              	.LBB2:
  30:.\ros_lib/isnprintf.cpp ****     int chars_generated=0;
 155              		.loc 1 30 0
 156 000c 0023     		mov	r3, #0
 157 000e BB61     		str	r3, [r7, #24]
  31:.\ros_lib/isnprintf.cpp ****     char *pszVal;
  32:.\ros_lib/isnprintf.cpp ****     uint32_t iVal, xVal, i = 0, index = 1;
 158              		.loc 1 32 0
 159 0010 0023     		mov	r3, #0
 160 0012 BB62     		str	r3, [r7, #40]
 161 0014 0123     		mov	r3, #1
 162 0016 7B62     		str	r3, [r7, #36]
  33:.\ros_lib/isnprintf.cpp ****     uint8_t buffer[12];
  34:.\ros_lib/isnprintf.cpp ****     char cVal;
  35:.\ros_lib/isnprintf.cpp ****     uint32_t *pArg;
  36:.\ros_lib/isnprintf.cpp ****     pArg =(uint32_t *)&pszFmt;
 163              		.loc 1 36 0
 164 0018 4823     		mov	r3, #72
 165 001a DB19     		add	r3, r3, r7
 166 001c 3B62     		str	r3, [r7, #32]
  37:.\ros_lib/isnprintf.cpp **** 
  38:.\ros_lib/isnprintf.cpp ****     while(*pszFmt)
 167              		.loc 1 38 0
 168 001e F2E0     		b	.L10
 169              	.L28:
  39:.\ros_lib/isnprintf.cpp ****     {
  40:.\ros_lib/isnprintf.cpp ****         if('%' != *pszFmt)
 170              		.loc 1 40 0
 171 0020 BB6C     		ldr	r3, [r7, #72]
 172 0022 1B78     		ldrb	r3, [r3]
 173 0024 252B     		cmp	r3, #37
 174 0026 0BD0     		beq	.L11
  41:.\ros_lib/isnprintf.cpp ****         {
  42:.\ros_lib/isnprintf.cpp ****             add_char(&s, &chars_generated, buf_len, *pszFmt);
 175              		.loc 1 42 0
 176 0028 BB6C     		ldr	r3, [r7, #72]
 177 002a 1B78     		ldrb	r3, [r3]
 178 002c 381D     		add	r0, r7, #4
 179 002e 391C     		mov	r1, r7
 180 0030 1831     		add	r1, r1, #24
 181 0032 3A68     		ldr	r2, [r7]
 182 0034 FFF7FEFF 		bl	_ZL8add_charPPcPiic
ARM GAS  C:\DOCUME~1\Chuck\LOCALS~1\Temp\ccFzXblh.s 			page 5


  43:.\ros_lib/isnprintf.cpp ****             pszFmt++;
 183              		.loc 1 43 0
 184 0038 BB6C     		ldr	r3, [r7, #72]
 185 003a 0133     		add	r3, r3, #1
 186 003c BB64     		str	r3, [r7, #72]
  44:.\ros_lib/isnprintf.cpp ****             continue;
 187              		.loc 1 44 0
 188 003e E2E0     		b	.L10
 189              	.L11:
  45:.\ros_lib/isnprintf.cpp ****         }
  46:.\ros_lib/isnprintf.cpp ****         pszFmt++;
 190              		.loc 1 46 0
 191 0040 BB6C     		ldr	r3, [r7, #72]
 192 0042 0133     		add	r3, r3, #1
 193 0044 BB64     		str	r3, [r7, #72]
  47:.\ros_lib/isnprintf.cpp **** 
  48:.\ros_lib/isnprintf.cpp ****         if(*pszFmt == 's')
 194              		.loc 1 48 0
 195 0046 BB6C     		ldr	r3, [r7, #72]
 196 0048 1B78     		ldrb	r3, [r3]
 197 004a 732B     		cmp	r3, #115
 198 004c 1BD1     		bne	.L12
  49:.\ros_lib/isnprintf.cpp ****         {
  50:.\ros_lib/isnprintf.cpp ****             pszVal = (char*)pArg[index++];
 199              		.loc 1 50 0
 200 004e 7B6A     		ldr	r3, [r7, #36]
 201 0050 5A1C     		add	r2, r3, #1
 202 0052 7A62     		str	r2, [r7, #36]
 203 0054 9B00     		lsl	r3, r3, #2
 204 0056 3A6A     		ldr	r2, [r7, #32]
 205 0058 D318     		add	r3, r2, r3
 206 005a 1B68     		ldr	r3, [r3]
 207 005c 7B63     		str	r3, [r7, #52]
  51:.\ros_lib/isnprintf.cpp ****             for(; *pszVal != '\0'; pszVal++)
 208              		.loc 1 51 0
 209 005e 0AE0     		b	.L13
 210              	.L14:
  52:.\ros_lib/isnprintf.cpp ****                 add_char(&s, &chars_generated, buf_len, *pszVal);
 211              		.loc 1 52 0 discriminator 2
 212 0060 7B6B     		ldr	r3, [r7, #52]
 213 0062 1B78     		ldrb	r3, [r3]
 214 0064 381D     		add	r0, r7, #4
 215 0066 391C     		mov	r1, r7
 216 0068 1831     		add	r1, r1, #24
 217 006a 3A68     		ldr	r2, [r7]
 218 006c FFF7FEFF 		bl	_ZL8add_charPPcPiic
  51:.\ros_lib/isnprintf.cpp ****             for(; *pszVal != '\0'; pszVal++)
 219              		.loc 1 51 0 discriminator 2
 220 0070 7B6B     		ldr	r3, [r7, #52]
 221 0072 0133     		add	r3, r3, #1
 222 0074 7B63     		str	r3, [r7, #52]
 223              	.L13:
  51:.\ros_lib/isnprintf.cpp ****             for(; *pszVal != '\0'; pszVal++)
 224              		.loc 1 51 0 is_stmt 0 discriminator 1
 225 0076 7B6B     		ldr	r3, [r7, #52]
 226 0078 1B78     		ldrb	r3, [r3]
 227 007a 002B     		cmp	r3, #0
ARM GAS  C:\DOCUME~1\Chuck\LOCALS~1\Temp\ccFzXblh.s 			page 6


 228 007c F0D1     		bne	.L14
  53:.\ros_lib/isnprintf.cpp ****             pszFmt++;
 229              		.loc 1 53 0 is_stmt 1
 230 007e BB6C     		ldr	r3, [r7, #72]
 231 0080 0133     		add	r3, r3, #1
 232 0082 BB64     		str	r3, [r7, #72]
  54:.\ros_lib/isnprintf.cpp ****             continue;
 233              		.loc 1 54 0
 234 0084 BFE0     		b	.L10
 235              	.L12:
  55:.\ros_lib/isnprintf.cpp ****         }
  56:.\ros_lib/isnprintf.cpp ****         if(*pszFmt == 'd')
 236              		.loc 1 56 0
 237 0086 BB6C     		ldr	r3, [r7, #72]
 238 0088 1B78     		ldrb	r3, [r3]
 239 008a 642B     		cmp	r3, #100
 240 008c 4DD1     		bne	.L15
  57:.\ros_lib/isnprintf.cpp ****         {
  58:.\ros_lib/isnprintf.cpp ****             iVal = pArg[index++];
 241              		.loc 1 58 0
 242 008e 7B6A     		ldr	r3, [r7, #36]
 243 0090 5A1C     		add	r2, r3, #1
 244 0092 7A62     		str	r2, [r7, #36]
 245 0094 9B00     		lsl	r3, r3, #2
 246 0096 3A6A     		ldr	r2, [r7, #32]
 247 0098 D318     		add	r3, r2, r3
 248 009a 1B68     		ldr	r3, [r3]
 249 009c 3B63     		str	r3, [r7, #48]
  59:.\ros_lib/isnprintf.cpp ****             // handle negative sign
  60:.\ros_lib/isnprintf.cpp ****             if (iVal & 0x8000) {
 250              		.loc 1 60 0
 251 009e 3A6B     		ldr	r2, [r7, #48]
 252 00a0 8023     		mov	r3, #128
 253 00a2 1B02     		lsl	r3, r3, #8
 254 00a4 1340     		and	r3, r2
 255 00a6 0CD0     		beq	.L16
  61:.\ros_lib/isnprintf.cpp ****               iVal = ~iVal + 1;
 256              		.loc 1 61 0
 257 00a8 3B6B     		ldr	r3, [r7, #48]
 258 00aa 5B42     		neg	r3, r3
 259 00ac 3B63     		str	r3, [r7, #48]
  62:.\ros_lib/isnprintf.cpp ****               add_char(&s, &chars_generated, buf_len, '-');
 260              		.loc 1 62 0
 261 00ae 391D     		add	r1, r7, #4
 262 00b0 3A1C     		mov	r2, r7
 263 00b2 1832     		add	r2, r2, #24
 264 00b4 3B68     		ldr	r3, [r7]
 265 00b6 081C     		mov	r0, r1
 266 00b8 111C     		mov	r1, r2
 267 00ba 1A1C     		mov	r2, r3
 268 00bc 2D23     		mov	r3, #45
 269 00be FFF7FEFF 		bl	_ZL8add_charPPcPiic
 270              	.L16:
  63:.\ros_lib/isnprintf.cpp ****             }
  64:.\ros_lib/isnprintf.cpp ****             i = 0;
 271              		.loc 1 64 0
 272 00c2 0023     		mov	r3, #0
ARM GAS  C:\DOCUME~1\Chuck\LOCALS~1\Temp\ccFzXblh.s 			page 7


 273 00c4 BB62     		str	r3, [r7, #40]
 274              	.L17:
  65:.\ros_lib/isnprintf.cpp ****             do{
  66:.\ros_lib/isnprintf.cpp ****                 buffer[i++] = iVal % 10;
 275              		.loc 1 66 0 discriminator 1
 276 00c6 BC6A     		ldr	r4, [r7, #40]
 277 00c8 631C     		add	r3, r4, #1
 278 00ca BB62     		str	r3, [r7, #40]
 279 00cc 3B6B     		ldr	r3, [r7, #48]
 280 00ce 181C     		mov	r0, r3
 281 00d0 0A21     		mov	r1, #10
 282 00d2 FFF7FEFF 		bl	__aeabi_uidivmod
 283 00d6 0B1C     		mov	r3, r1
 284 00d8 DAB2     		uxtb	r2, r3
 285 00da 3B1C     		mov	r3, r7
 286 00dc 0C33     		add	r3, r3, #12
 287 00de 1A55     		strb	r2, [r3, r4]
  67:.\ros_lib/isnprintf.cpp ****                 iVal /= 10;
 288              		.loc 1 67 0 discriminator 1
 289 00e0 3B6B     		ldr	r3, [r7, #48]
 290 00e2 181C     		mov	r0, r3
 291 00e4 0A21     		mov	r1, #10
 292 00e6 FFF7FEFF 		bl	__aeabi_uidiv
 293 00ea 031C     		mov	r3, r0
 294 00ec 3B63     		str	r3, [r7, #48]
  65:.\ros_lib/isnprintf.cpp ****             do{
 295              		.loc 1 65 0 discriminator 1
 296 00ee 3B6B     		ldr	r3, [r7, #48]
 297 00f0 002B     		cmp	r3, #0
 298 00f2 E8D1     		bne	.L17
  68:.\ros_lib/isnprintf.cpp ****             }while(iVal);
  69:.\ros_lib/isnprintf.cpp ****             while(i > 0)
 299              		.loc 1 69 0
 300 00f4 12E0     		b	.L18
 301              	.L19:
  70:.\ros_lib/isnprintf.cpp ****             {
  71:.\ros_lib/isnprintf.cpp ****                 i--;
 302              		.loc 1 71 0
 303 00f6 BB6A     		ldr	r3, [r7, #40]
 304 00f8 013B     		sub	r3, r3, #1
 305 00fa BB62     		str	r3, [r7, #40]
  72:.\ros_lib/isnprintf.cpp ****                 add_char(&s, &chars_generated, buf_len, *change(buffer[i]));
 306              		.loc 1 72 0
 307 00fc 3A1C     		mov	r2, r7
 308 00fe 0C32     		add	r2, r2, #12
 309 0100 BB6A     		ldr	r3, [r7, #40]
 310 0102 D318     		add	r3, r2, r3
 311 0104 1B78     		ldrb	r3, [r3]
 312 0106 181C     		mov	r0, r3
 313 0108 FFF7FEFF 		bl	_ZL6changeh
 314 010c 031C     		mov	r3, r0
 315 010e 1B78     		ldrb	r3, [r3]
 316 0110 381D     		add	r0, r7, #4
 317 0112 391C     		mov	r1, r7
 318 0114 1831     		add	r1, r1, #24
 319 0116 3A68     		ldr	r2, [r7]
 320 0118 FFF7FEFF 		bl	_ZL8add_charPPcPiic
ARM GAS  C:\DOCUME~1\Chuck\LOCALS~1\Temp\ccFzXblh.s 			page 8


 321              	.L18:
  69:.\ros_lib/isnprintf.cpp ****             while(i > 0)
 322              		.loc 1 69 0 discriminator 1
 323 011c BB6A     		ldr	r3, [r7, #40]
 324 011e 002B     		cmp	r3, #0
 325 0120 E9D1     		bne	.L19
  73:.\ros_lib/isnprintf.cpp ****             }
  74:.\ros_lib/isnprintf.cpp ****             pszFmt++;
 326              		.loc 1 74 0
 327 0122 BB6C     		ldr	r3, [r7, #72]
 328 0124 0133     		add	r3, r3, #1
 329 0126 BB64     		str	r3, [r7, #72]
  75:.\ros_lib/isnprintf.cpp ****             continue;
 330              		.loc 1 75 0
 331 0128 6DE0     		b	.L10
 332              	.L15:
  76:.\ros_lib/isnprintf.cpp ****         }
  77:.\ros_lib/isnprintf.cpp ****         if(*pszFmt == 'c')
 333              		.loc 1 77 0
 334 012a BB6C     		ldr	r3, [r7, #72]
 335 012c 1B78     		ldrb	r3, [r3]
 336 012e 632B     		cmp	r3, #99
 337 0130 16D1     		bne	.L20
  78:.\ros_lib/isnprintf.cpp ****         {
  79:.\ros_lib/isnprintf.cpp ****             cVal = (char)pArg[index++];
 338              		.loc 1 79 0
 339 0132 7B6A     		ldr	r3, [r7, #36]
 340 0134 5A1C     		add	r2, r3, #1
 341 0136 7A62     		str	r2, [r7, #36]
 342 0138 9B00     		lsl	r3, r3, #2
 343 013a 3A6A     		ldr	r2, [r7, #32]
 344 013c D318     		add	r3, r2, r3
 345 013e 1A68     		ldr	r2, [r3]
 346 0140 3B1C     		mov	r3, r7
 347 0142 1F33     		add	r3, r3, #31
 348 0144 1A70     		strb	r2, [r3]
  80:.\ros_lib/isnprintf.cpp ****             add_char(&s, &chars_generated, buf_len, cVal);
 349              		.loc 1 80 0
 350 0146 381D     		add	r0, r7, #4
 351 0148 391C     		mov	r1, r7
 352 014a 1831     		add	r1, r1, #24
 353 014c 3A68     		ldr	r2, [r7]
 354 014e 3B1C     		mov	r3, r7
 355 0150 1F33     		add	r3, r3, #31
 356 0152 1B78     		ldrb	r3, [r3]
 357 0154 FFF7FEFF 		bl	_ZL8add_charPPcPiic
  81:.\ros_lib/isnprintf.cpp ****             pszFmt++;
 358              		.loc 1 81 0
 359 0158 BB6C     		ldr	r3, [r7, #72]
 360 015a 0133     		add	r3, r3, #1
 361 015c BB64     		str	r3, [r7, #72]
  82:.\ros_lib/isnprintf.cpp ****             continue;
 362              		.loc 1 82 0
 363 015e 52E0     		b	.L10
 364              	.L20:
  83:.\ros_lib/isnprintf.cpp ****         }
  84:.\ros_lib/isnprintf.cpp ****         if(*pszFmt == 'x')
ARM GAS  C:\DOCUME~1\Chuck\LOCALS~1\Temp\ccFzXblh.s 			page 9


 365              		.loc 1 84 0
 366 0160 BB6C     		ldr	r3, [r7, #72]
 367 0162 1B78     		ldrb	r3, [r3]
 368 0164 782B     		cmp	r3, #120
 369 0166 4AD1     		bne	.L21
  85:.\ros_lib/isnprintf.cpp ****         {
  86:.\ros_lib/isnprintf.cpp ****             xVal = pArg[index++];
 370              		.loc 1 86 0
 371 0168 7B6A     		ldr	r3, [r7, #36]
 372 016a 5A1C     		add	r2, r3, #1
 373 016c 7A62     		str	r2, [r7, #36]
 374 016e 9B00     		lsl	r3, r3, #2
 375 0170 3A6A     		ldr	r2, [r7, #32]
 376 0172 D318     		add	r3, r2, r3
 377 0174 1B68     		ldr	r3, [r3]
 378 0176 FB62     		str	r3, [r7, #44]
  87:.\ros_lib/isnprintf.cpp ****             i = 0;
 379              		.loc 1 87 0
 380 0178 0023     		mov	r3, #0
 381 017a BB62     		str	r3, [r7, #40]
 382              	.L22:
  88:.\ros_lib/isnprintf.cpp ****             do{
  89:.\ros_lib/isnprintf.cpp ****                 buffer[i++] = xVal % 16;
 383              		.loc 1 89 0 discriminator 1
 384 017c BB6A     		ldr	r3, [r7, #40]
 385 017e 5A1C     		add	r2, r3, #1
 386 0180 BA62     		str	r2, [r7, #40]
 387 0182 FA6A     		ldr	r2, [r7, #44]
 388 0184 D1B2     		uxtb	r1, r2
 389 0186 0F22     		mov	r2, #15
 390 0188 0A40     		and	r2, r1
 391 018a D1B2     		uxtb	r1, r2
 392 018c 3A1C     		mov	r2, r7
 393 018e 0C32     		add	r2, r2, #12
 394 0190 D154     		strb	r1, [r2, r3]
  90:.\ros_lib/isnprintf.cpp ****                 xVal /= 16;
 395              		.loc 1 90 0 discriminator 1
 396 0192 FB6A     		ldr	r3, [r7, #44]
 397 0194 1B09     		lsr	r3, r3, #4
 398 0196 FB62     		str	r3, [r7, #44]
  88:.\ros_lib/isnprintf.cpp ****             do{
 399              		.loc 1 88 0 discriminator 1
 400 0198 FB6A     		ldr	r3, [r7, #44]
 401 019a 002B     		cmp	r3, #0
 402 019c EED1     		bne	.L22
  91:.\ros_lib/isnprintf.cpp ****             }while(xVal);
  92:.\ros_lib/isnprintf.cpp ****             if(i%2!=0)
 403              		.loc 1 92 0
 404 019e BA6A     		ldr	r2, [r7, #40]
 405 01a0 0123     		mov	r3, #1
 406 01a2 1340     		and	r3, r2
 407 01a4 06D0     		beq	.L23
  93:.\ros_lib/isnprintf.cpp ****                 buffer[i++]=0;
 408              		.loc 1 93 0
 409 01a6 BB6A     		ldr	r3, [r7, #40]
 410 01a8 5A1C     		add	r2, r3, #1
 411 01aa BA62     		str	r2, [r7, #40]
ARM GAS  C:\DOCUME~1\Chuck\LOCALS~1\Temp\ccFzXblh.s 			page 10


 412 01ac 3A1C     		mov	r2, r7
 413 01ae 0C32     		add	r2, r2, #12
 414 01b0 0021     		mov	r1, #0
 415 01b2 D154     		strb	r1, [r2, r3]
 416              	.L23:
  94:.\ros_lib/isnprintf.cpp ****             if(i<2)
 417              		.loc 1 94 0
 418 01b4 BB6A     		ldr	r3, [r7, #40]
 419 01b6 012B     		cmp	r3, #1
 420 01b8 06D8     		bhi	.L24
  95:.\ros_lib/isnprintf.cpp ****                 buffer[i++]=0;
 421              		.loc 1 95 0
 422 01ba BB6A     		ldr	r3, [r7, #40]
 423 01bc 5A1C     		add	r2, r3, #1
 424 01be BA62     		str	r2, [r7, #40]
 425 01c0 3A1C     		mov	r2, r7
 426 01c2 0C32     		add	r2, r2, #12
 427 01c4 0021     		mov	r1, #0
 428 01c6 D154     		strb	r1, [r2, r3]
 429              	.L24:
  96:.\ros_lib/isnprintf.cpp **** 
  97:.\ros_lib/isnprintf.cpp ****             while(i > 0)
 430              		.loc 1 97 0
 431 01c8 12E0     		b	.L25
 432              	.L26:
  98:.\ros_lib/isnprintf.cpp ****             {
  99:.\ros_lib/isnprintf.cpp ****                 i--;
 433              		.loc 1 99 0
 434 01ca BB6A     		ldr	r3, [r7, #40]
 435 01cc 013B     		sub	r3, r3, #1
 436 01ce BB62     		str	r3, [r7, #40]
 100:.\ros_lib/isnprintf.cpp ****                 add_char(&s, &chars_generated, buf_len, *change(buffer[i]));
 437              		.loc 1 100 0
 438 01d0 3A1C     		mov	r2, r7
 439 01d2 0C32     		add	r2, r2, #12
 440 01d4 BB6A     		ldr	r3, [r7, #40]
 441 01d6 D318     		add	r3, r2, r3
 442 01d8 1B78     		ldrb	r3, [r3]
 443 01da 181C     		mov	r0, r3
 444 01dc FFF7FEFF 		bl	_ZL6changeh
 445 01e0 031C     		mov	r3, r0
 446 01e2 1B78     		ldrb	r3, [r3]
 447 01e4 381D     		add	r0, r7, #4
 448 01e6 391C     		mov	r1, r7
 449 01e8 1831     		add	r1, r1, #24
 450 01ea 3A68     		ldr	r2, [r7]
 451 01ec FFF7FEFF 		bl	_ZL8add_charPPcPiic
 452              	.L25:
  97:.\ros_lib/isnprintf.cpp ****             while(i > 0)
 453              		.loc 1 97 0 discriminator 1
 454 01f0 BB6A     		ldr	r3, [r7, #40]
 455 01f2 002B     		cmp	r3, #0
 456 01f4 E9D1     		bne	.L26
 101:.\ros_lib/isnprintf.cpp ****             }
 102:.\ros_lib/isnprintf.cpp ****             pszFmt++;
 457              		.loc 1 102 0
 458 01f6 BB6C     		ldr	r3, [r7, #72]
ARM GAS  C:\DOCUME~1\Chuck\LOCALS~1\Temp\ccFzXblh.s 			page 11


 459 01f8 0133     		add	r3, r3, #1
 460 01fa BB64     		str	r3, [r7, #72]
 103:.\ros_lib/isnprintf.cpp ****             continue;
 461              		.loc 1 103 0
 462 01fc 03E0     		b	.L10
 463              	.L21:
 104:.\ros_lib/isnprintf.cpp ****         }
 105:.\ros_lib/isnprintf.cpp ****         if(pszFmt == '\0')
 464              		.loc 1 105 0
 465 01fe BB6C     		ldr	r3, [r7, #72]
 466 0200 002B     		cmp	r3, #0
 467 0202 00D1     		bne	.L10
 106:.\ros_lib/isnprintf.cpp ****         {
 107:.\ros_lib/isnprintf.cpp ****             break;
 468              		.loc 1 107 0
 469 0204 04E0     		b	.L27
 470              	.L10:
  38:.\ros_lib/isnprintf.cpp ****     while(*pszFmt)
 471              		.loc 1 38 0 discriminator 1
 472 0206 BB6C     		ldr	r3, [r7, #72]
 473 0208 1B78     		ldrb	r3, [r3]
 474 020a 002B     		cmp	r3, #0
 475 020c 00D0     		beq	.LCB414
 476 020e 07E7     		b	.L28	@long jump
 477              	.LCB414:
 478              	.L27:
 108:.\ros_lib/isnprintf.cpp ****         }
 109:.\ros_lib/isnprintf.cpp ****     }
 110:.\ros_lib/isnprintf.cpp ****     if (chars_generated < buf_len)
 479              		.loc 1 110 0
 480 0210 BA69     		ldr	r2, [r7, #24]
 481 0212 3B68     		ldr	r3, [r7]
 482 0214 9A42     		cmp	r2, r3
 483 0216 02DA     		bge	.L29
 111:.\ros_lib/isnprintf.cpp ****     {
 112:.\ros_lib/isnprintf.cpp ****         *s = '\0';
 484              		.loc 1 112 0
 485 0218 7B68     		ldr	r3, [r7, #4]
 486 021a 0022     		mov	r2, #0
 487 021c 1A70     		strb	r2, [r3]
 488              	.L29:
 113:.\ros_lib/isnprintf.cpp ****     }
 114:.\ros_lib/isnprintf.cpp ****     return chars_generated;
 489              		.loc 1 114 0
 490 021e BB69     		ldr	r3, [r7, #24]
 491              	.LBE2:
 115:.\ros_lib/isnprintf.cpp **** }
 492              		.loc 1 115 0
 493 0220 181C     		mov	r0, r3
 494 0222 BD46     		mov	sp, r7
 495 0224 0FB0     		add	sp, sp, #60
 496              		@ sp needed
 497 0226 90BC     		pop	{r4, r7}
 498 0228 08BC     		pop	{r3}
 499 022a 02B0     		add	sp, sp, #8
 500 022c 1847     		bx	r3
 501              		.cfi_endproc
ARM GAS  C:\DOCUME~1\Chuck\LOCALS~1\Temp\ccFzXblh.s 			page 12


 502              	.LFE2:
 503              		.size	_Z9isnprintfPciPKcz, .-_Z9isnprintfPciPKcz
 504              		.text
 505              	.Letext0:
 506              		.file 2 "c:\\program files\\cypress\\psoc creator\\3.1\\psoc creator\\import\\gnu_cs\\arm\\4.8.4\\
 507              		.file 3 "c:\\program files\\cypress\\psoc creator\\3.1\\psoc creator\\import\\gnu_cs\\arm\\4.8.4\\