ARM GAS  C:\DOCUME~1\Chuck\LOCALS~1\Temp\ccRWESA0.s 			page 1


   1              		.cpu cortex-m0
   2              		.fpu softvfp
   3              		.eabi_attribute 20, 1
   4              		.eabi_attribute 21, 1
   5              		.eabi_attribute 23, 3
   6              		.eabi_attribute 24, 1
   7              		.eabi_attribute 25, 1
   8              		.eabi_attribute 26, 1
   9              		.eabi_attribute 30, 6
  10              		.eabi_attribute 34, 0
  11              		.eabi_attribute 18, 4
  12              		.code	16
  13              		.file	"QuadDec_1.c"
  14              		.text
  15              	.Ltext0:
  16              		.cfi_sections	.debug_frame
  17              		.global	QuadDec_1_initVar
  18              		.bss
  19              		.type	QuadDec_1_initVar, %object
  20              		.size	QuadDec_1_initVar, 1
  21              	QuadDec_1_initVar:
  22 0000 00       		.space	1
  23              		.section	.text.QuadDec_1_Init,"ax",%progbits
  24              		.align	2
  25              		.global	QuadDec_1_Init
  26              		.code	16
  27              		.thumb_func
  28              		.type	QuadDec_1_Init, %function
  29              	QuadDec_1_Init:
  30              	.LFB0:
  31              		.file 1 ".\\Generated_Source\\PSoC4\\QuadDec_1.c"
   1:.\Generated_Source\PSoC4/QuadDec_1.c **** /*******************************************************************************
   2:.\Generated_Source\PSoC4/QuadDec_1.c **** * File Name: QuadDec_1.c
   3:.\Generated_Source\PSoC4/QuadDec_1.c **** * Version 1.10
   4:.\Generated_Source\PSoC4/QuadDec_1.c **** *
   5:.\Generated_Source\PSoC4/QuadDec_1.c **** * Description:
   6:.\Generated_Source\PSoC4/QuadDec_1.c **** *  This file provides the source code to the API for the QuadDec_1
   7:.\Generated_Source\PSoC4/QuadDec_1.c **** *  component
   8:.\Generated_Source\PSoC4/QuadDec_1.c **** *
   9:.\Generated_Source\PSoC4/QuadDec_1.c **** * Note:
  10:.\Generated_Source\PSoC4/QuadDec_1.c **** *  None
  11:.\Generated_Source\PSoC4/QuadDec_1.c **** *
  12:.\Generated_Source\PSoC4/QuadDec_1.c **** ********************************************************************************
  13:.\Generated_Source\PSoC4/QuadDec_1.c **** * Copyright 2013-2014, Cypress Semiconductor Corporation.  All rights reserved.
  14:.\Generated_Source\PSoC4/QuadDec_1.c **** * You may use this file only in accordance with the license, terms, conditions,
  15:.\Generated_Source\PSoC4/QuadDec_1.c **** * disclaimers, and limitations in the end user license agreement accompanying
  16:.\Generated_Source\PSoC4/QuadDec_1.c **** * the software package with which this file was provided.
  17:.\Generated_Source\PSoC4/QuadDec_1.c **** *******************************************************************************/
  18:.\Generated_Source\PSoC4/QuadDec_1.c **** 
  19:.\Generated_Source\PSoC4/QuadDec_1.c **** #include "QuadDec_1.h"
  20:.\Generated_Source\PSoC4/QuadDec_1.c **** #include "CyLib.h"
  21:.\Generated_Source\PSoC4/QuadDec_1.c **** 
  22:.\Generated_Source\PSoC4/QuadDec_1.c **** uint8 QuadDec_1_initVar = 0u;
  23:.\Generated_Source\PSoC4/QuadDec_1.c **** 
  24:.\Generated_Source\PSoC4/QuadDec_1.c **** 
  25:.\Generated_Source\PSoC4/QuadDec_1.c **** /*******************************************************************************
  26:.\Generated_Source\PSoC4/QuadDec_1.c **** * Function Name: QuadDec_1_Init
ARM GAS  C:\DOCUME~1\Chuck\LOCALS~1\Temp\ccRWESA0.s 			page 2


  27:.\Generated_Source\PSoC4/QuadDec_1.c **** ********************************************************************************
  28:.\Generated_Source\PSoC4/QuadDec_1.c **** *
  29:.\Generated_Source\PSoC4/QuadDec_1.c **** * Summary:
  30:.\Generated_Source\PSoC4/QuadDec_1.c **** *  Initialize/Restore default QuadDec_1 configuration.
  31:.\Generated_Source\PSoC4/QuadDec_1.c **** *
  32:.\Generated_Source\PSoC4/QuadDec_1.c **** * Parameters:
  33:.\Generated_Source\PSoC4/QuadDec_1.c **** *  None
  34:.\Generated_Source\PSoC4/QuadDec_1.c **** *
  35:.\Generated_Source\PSoC4/QuadDec_1.c **** * Return:
  36:.\Generated_Source\PSoC4/QuadDec_1.c **** *  None
  37:.\Generated_Source\PSoC4/QuadDec_1.c **** *
  38:.\Generated_Source\PSoC4/QuadDec_1.c **** *******************************************************************************/
  39:.\Generated_Source\PSoC4/QuadDec_1.c **** void QuadDec_1_Init(void)
  40:.\Generated_Source\PSoC4/QuadDec_1.c **** {
  32              		.loc 1 40 0
  33              		.cfi_startproc
  34 0000 80B5     		push	{r7, lr}
  35              		.cfi_def_cfa_offset 8
  36              		.cfi_offset 7, -8
  37              		.cfi_offset 14, -4
  38 0002 00AF     		add	r7, sp, #0
  39              		.cfi_def_cfa_register 7
  41:.\Generated_Source\PSoC4/QuadDec_1.c **** 
  42:.\Generated_Source\PSoC4/QuadDec_1.c ****     /* Set values from customizer to CTRL */
  43:.\Generated_Source\PSoC4/QuadDec_1.c ****     #if (QuadDec_1__QUAD == QuadDec_1_CONFIG)
  44:.\Generated_Source\PSoC4/QuadDec_1.c ****         QuadDec_1_CONTROL_REG =
  40              		.loc 1 44 0
  41 0004 064B     		ldr	r3, .L2
  42 0006 C822     		mov	r2, #200
  43 0008 9204     		lsl	r2, r2, #18
  44 000a 1A60     		str	r2, [r3]
  45:.\Generated_Source\PSoC4/QuadDec_1.c ****         (((uint32)(QuadDec_1_QUAD_ENCODING_MODES     << QuadDec_1_QUAD_MODE_SHIFT))       |
  46:.\Generated_Source\PSoC4/QuadDec_1.c ****          ((uint32)(QuadDec_1_CONFIG                  << QuadDec_1_MODE_SHIFT)));
  47:.\Generated_Source\PSoC4/QuadDec_1.c ****     #endif  /* (QuadDec_1__QUAD == QuadDec_1_CONFIG) */
  48:.\Generated_Source\PSoC4/QuadDec_1.c **** 
  49:.\Generated_Source\PSoC4/QuadDec_1.c ****     #if (QuadDec_1__PWM_SEL == QuadDec_1_CONFIG)
  50:.\Generated_Source\PSoC4/QuadDec_1.c ****         QuadDec_1_CONTROL_REG =
  51:.\Generated_Source\PSoC4/QuadDec_1.c ****         (((uint32)(QuadDec_1_PWM_STOP_EVENT          << QuadDec_1_PWM_STOP_KILL_SHIFT))    |
  52:.\Generated_Source\PSoC4/QuadDec_1.c ****          ((uint32)(QuadDec_1_PWM_OUT_INVERT          << QuadDec_1_INV_OUT_SHIFT))         |
  53:.\Generated_Source\PSoC4/QuadDec_1.c ****          ((uint32)(QuadDec_1_PWM_OUT_N_INVERT        << QuadDec_1_INV_COMPL_OUT_SHIFT))     |
  54:.\Generated_Source\PSoC4/QuadDec_1.c ****          ((uint32)(QuadDec_1_PWM_MODE                << QuadDec_1_MODE_SHIFT)));
  55:.\Generated_Source\PSoC4/QuadDec_1.c **** 
  56:.\Generated_Source\PSoC4/QuadDec_1.c ****         #if (QuadDec_1__PWM_PR == QuadDec_1_PWM_MODE)
  57:.\Generated_Source\PSoC4/QuadDec_1.c ****             QuadDec_1_CONTROL_REG |=
  58:.\Generated_Source\PSoC4/QuadDec_1.c ****             ((uint32)(QuadDec_1_PWM_RUN_MODE         << QuadDec_1_ONESHOT_SHIFT));
  59:.\Generated_Source\PSoC4/QuadDec_1.c **** 
  60:.\Generated_Source\PSoC4/QuadDec_1.c ****             QuadDec_1_WriteCounter(QuadDec_1_PWM_PR_INIT_VALUE);
  61:.\Generated_Source\PSoC4/QuadDec_1.c ****         #else
  62:.\Generated_Source\PSoC4/QuadDec_1.c ****             QuadDec_1_CONTROL_REG |=
  63:.\Generated_Source\PSoC4/QuadDec_1.c ****             (((uint32)(QuadDec_1_PWM_ALIGN           << QuadDec_1_UPDOWN_SHIFT))          |
  64:.\Generated_Source\PSoC4/QuadDec_1.c ****              ((uint32)(QuadDec_1_PWM_KILL_EVENT      << QuadDec_1_PWM_SYNC_KILL_SHIFT)));
  65:.\Generated_Source\PSoC4/QuadDec_1.c ****         #endif  /* (QuadDec_1__PWM_PR == QuadDec_1_PWM_MODE) */
  66:.\Generated_Source\PSoC4/QuadDec_1.c **** 
  67:.\Generated_Source\PSoC4/QuadDec_1.c ****         #if (QuadDec_1__PWM_DT == QuadDec_1_PWM_MODE)
  68:.\Generated_Source\PSoC4/QuadDec_1.c ****             QuadDec_1_CONTROL_REG |=
  69:.\Generated_Source\PSoC4/QuadDec_1.c ****             ((uint32)(QuadDec_1_PWM_DEAD_TIME_CYCLE  << QuadDec_1_PRESCALER_SHIFT));
  70:.\Generated_Source\PSoC4/QuadDec_1.c ****         #endif  /* (QuadDec_1__PWM_DT == QuadDec_1_PWM_MODE) */
ARM GAS  C:\DOCUME~1\Chuck\LOCALS~1\Temp\ccRWESA0.s 			page 3


  71:.\Generated_Source\PSoC4/QuadDec_1.c **** 
  72:.\Generated_Source\PSoC4/QuadDec_1.c ****         #if (QuadDec_1__PWM == QuadDec_1_PWM_MODE)
  73:.\Generated_Source\PSoC4/QuadDec_1.c ****             QuadDec_1_CONTROL_REG |=
  74:.\Generated_Source\PSoC4/QuadDec_1.c ****             ((uint32)QuadDec_1_PWM_PRESCALER         << QuadDec_1_PRESCALER_SHIFT);
  75:.\Generated_Source\PSoC4/QuadDec_1.c ****         #endif  /* (QuadDec_1__PWM == QuadDec_1_PWM_MODE) */
  76:.\Generated_Source\PSoC4/QuadDec_1.c ****     #endif  /* (QuadDec_1__PWM_SEL == QuadDec_1_CONFIG) */
  77:.\Generated_Source\PSoC4/QuadDec_1.c **** 
  78:.\Generated_Source\PSoC4/QuadDec_1.c ****     #if (QuadDec_1__TIMER == QuadDec_1_CONFIG)
  79:.\Generated_Source\PSoC4/QuadDec_1.c ****         QuadDec_1_CONTROL_REG =
  80:.\Generated_Source\PSoC4/QuadDec_1.c ****         (((uint32)(QuadDec_1_TC_PRESCALER            << QuadDec_1_PRESCALER_SHIFT))   |
  81:.\Generated_Source\PSoC4/QuadDec_1.c ****          ((uint32)(QuadDec_1_TC_COUNTER_MODE         << QuadDec_1_UPDOWN_SHIFT))      |
  82:.\Generated_Source\PSoC4/QuadDec_1.c ****          ((uint32)(QuadDec_1_TC_RUN_MODE             << QuadDec_1_ONESHOT_SHIFT))     |
  83:.\Generated_Source\PSoC4/QuadDec_1.c ****          ((uint32)(QuadDec_1_TC_COMP_CAP_MODE        << QuadDec_1_MODE_SHIFT)));
  84:.\Generated_Source\PSoC4/QuadDec_1.c ****     #endif  /* (QuadDec_1__TIMER == QuadDec_1_CONFIG) */
  85:.\Generated_Source\PSoC4/QuadDec_1.c **** 
  86:.\Generated_Source\PSoC4/QuadDec_1.c ****     /* Set values from customizer to CTRL1 */
  87:.\Generated_Source\PSoC4/QuadDec_1.c ****     #if (QuadDec_1__QUAD == QuadDec_1_CONFIG)
  88:.\Generated_Source\PSoC4/QuadDec_1.c ****         QuadDec_1_TRIG_CONTROL1_REG  =
  45              		.loc 1 88 0
  46 000c 054B     		ldr	r3, .L2+4
  47 000e C322     		mov	r2, #195
  48 0010 9200     		lsl	r2, r2, #2
  49 0012 1A60     		str	r2, [r3]
  89:.\Generated_Source\PSoC4/QuadDec_1.c ****         (((uint32)(QuadDec_1_QUAD_PHIA_SIGNAL_MODE   << QuadDec_1_COUNT_SHIFT))       |
  90:.\Generated_Source\PSoC4/QuadDec_1.c ****          ((uint32)(QuadDec_1_QUAD_INDEX_SIGNAL_MODE  << QuadDec_1_RELOAD_SHIFT))      |
  91:.\Generated_Source\PSoC4/QuadDec_1.c ****          ((uint32)(QuadDec_1_QUAD_STOP_SIGNAL_MODE   << QuadDec_1_STOP_SHIFT))        |
  92:.\Generated_Source\PSoC4/QuadDec_1.c ****          ((uint32)(QuadDec_1_QUAD_PHIB_SIGNAL_MODE   << QuadDec_1_START_SHIFT)));
  93:.\Generated_Source\PSoC4/QuadDec_1.c ****     #endif  /* (QuadDec_1__QUAD == QuadDec_1_CONFIG) */
  94:.\Generated_Source\PSoC4/QuadDec_1.c **** 
  95:.\Generated_Source\PSoC4/QuadDec_1.c ****     #if (QuadDec_1__PWM_SEL == QuadDec_1_CONFIG)
  96:.\Generated_Source\PSoC4/QuadDec_1.c ****         QuadDec_1_TRIG_CONTROL1_REG  =
  97:.\Generated_Source\PSoC4/QuadDec_1.c ****         (((uint32)(QuadDec_1_PWM_SWITCH_SIGNAL_MODE  << QuadDec_1_CAPTURE_SHIFT))     |
  98:.\Generated_Source\PSoC4/QuadDec_1.c ****          ((uint32)(QuadDec_1_PWM_COUNT_SIGNAL_MODE   << QuadDec_1_COUNT_SHIFT))       |
  99:.\Generated_Source\PSoC4/QuadDec_1.c ****          ((uint32)(QuadDec_1_PWM_RELOAD_SIGNAL_MODE  << QuadDec_1_RELOAD_SHIFT))      |
 100:.\Generated_Source\PSoC4/QuadDec_1.c ****          ((uint32)(QuadDec_1_PWM_STOP_SIGNAL_MODE    << QuadDec_1_STOP_SHIFT))        |
 101:.\Generated_Source\PSoC4/QuadDec_1.c ****          ((uint32)(QuadDec_1_PWM_START_SIGNAL_MODE   << QuadDec_1_START_SHIFT)));
 102:.\Generated_Source\PSoC4/QuadDec_1.c ****     #endif  /* (QuadDec_1__PWM_SEL == QuadDec_1_CONFIG) */
 103:.\Generated_Source\PSoC4/QuadDec_1.c **** 
 104:.\Generated_Source\PSoC4/QuadDec_1.c ****     #if (QuadDec_1__TIMER == QuadDec_1_CONFIG)
 105:.\Generated_Source\PSoC4/QuadDec_1.c ****         QuadDec_1_TRIG_CONTROL1_REG  =
 106:.\Generated_Source\PSoC4/QuadDec_1.c ****         (((uint32)(QuadDec_1_TC_CAPTURE_SIGNAL_MODE  << QuadDec_1_CAPTURE_SHIFT))     |
 107:.\Generated_Source\PSoC4/QuadDec_1.c ****          ((uint32)(QuadDec_1_TC_COUNT_SIGNAL_MODE    << QuadDec_1_COUNT_SHIFT))       |
 108:.\Generated_Source\PSoC4/QuadDec_1.c ****          ((uint32)(QuadDec_1_TC_RELOAD_SIGNAL_MODE   << QuadDec_1_RELOAD_SHIFT))      |
 109:.\Generated_Source\PSoC4/QuadDec_1.c ****          ((uint32)(QuadDec_1_TC_STOP_SIGNAL_MODE     << QuadDec_1_STOP_SHIFT))        |
 110:.\Generated_Source\PSoC4/QuadDec_1.c ****          ((uint32)(QuadDec_1_TC_START_SIGNAL_MODE    << QuadDec_1_START_SHIFT)));
 111:.\Generated_Source\PSoC4/QuadDec_1.c ****     #endif  /* (QuadDec_1__TIMER == QuadDec_1_CONFIG) */
 112:.\Generated_Source\PSoC4/QuadDec_1.c **** 
 113:.\Generated_Source\PSoC4/QuadDec_1.c ****     /* Set values from customizer to INTR */
 114:.\Generated_Source\PSoC4/QuadDec_1.c ****     #if (QuadDec_1__QUAD == QuadDec_1_CONFIG)
 115:.\Generated_Source\PSoC4/QuadDec_1.c ****         QuadDec_1_SetInterruptMode(QuadDec_1_QUAD_INTERRUPT_MASK);
  50              		.loc 1 115 0
  51 0014 0020     		mov	r0, #0
  52 0016 FFF7FEFF 		bl	QuadDec_1_SetInterruptMode
 116:.\Generated_Source\PSoC4/QuadDec_1.c ****     #endif  /* (QuadDec_1__QUAD == QuadDec_1_CONFIG) */
 117:.\Generated_Source\PSoC4/QuadDec_1.c **** 
 118:.\Generated_Source\PSoC4/QuadDec_1.c ****     #if (QuadDec_1__PWM_SEL == QuadDec_1_CONFIG)
 119:.\Generated_Source\PSoC4/QuadDec_1.c ****         QuadDec_1_SetInterruptMode(QuadDec_1_PWM_INTERRUPT_MASK);
ARM GAS  C:\DOCUME~1\Chuck\LOCALS~1\Temp\ccRWESA0.s 			page 4


 120:.\Generated_Source\PSoC4/QuadDec_1.c ****     #endif  /* (QuadDec_1__PWM_SEL == QuadDec_1_CONFIG) */
 121:.\Generated_Source\PSoC4/QuadDec_1.c **** 
 122:.\Generated_Source\PSoC4/QuadDec_1.c ****     #if (QuadDec_1__TIMER == QuadDec_1_CONFIG)
 123:.\Generated_Source\PSoC4/QuadDec_1.c ****         QuadDec_1_SetInterruptMode(QuadDec_1_TC_INTERRUPT_MASK);
 124:.\Generated_Source\PSoC4/QuadDec_1.c ****     #endif  /* (QuadDec_1__TIMER == QuadDec_1_CONFIG) */
 125:.\Generated_Source\PSoC4/QuadDec_1.c **** 
 126:.\Generated_Source\PSoC4/QuadDec_1.c ****     /* Set other values from customizer */
 127:.\Generated_Source\PSoC4/QuadDec_1.c ****     #if (QuadDec_1__TIMER == QuadDec_1_CONFIG)
 128:.\Generated_Source\PSoC4/QuadDec_1.c ****         QuadDec_1_WritePeriod(QuadDec_1_TC_PERIOD_VALUE );
 129:.\Generated_Source\PSoC4/QuadDec_1.c **** 
 130:.\Generated_Source\PSoC4/QuadDec_1.c ****         #if (QuadDec_1__COUNT_DOWN == QuadDec_1_TC_COUNTER_MODE)
 131:.\Generated_Source\PSoC4/QuadDec_1.c ****             QuadDec_1_WriteCounter(QuadDec_1_TC_PERIOD_VALUE );
 132:.\Generated_Source\PSoC4/QuadDec_1.c ****         #endif  /* (QuadDec_1__COUNT_DOWN == QuadDec_1_TC_COUNTER_MODE) */
 133:.\Generated_Source\PSoC4/QuadDec_1.c **** 
 134:.\Generated_Source\PSoC4/QuadDec_1.c ****         #if (QuadDec_1__COMPARE == QuadDec_1_TC_COMP_CAP_MODE)
 135:.\Generated_Source\PSoC4/QuadDec_1.c ****             QuadDec_1_WriteCompare(QuadDec_1_TC_COMPARE_VALUE);
 136:.\Generated_Source\PSoC4/QuadDec_1.c **** 
 137:.\Generated_Source\PSoC4/QuadDec_1.c ****             #if (1u == QuadDec_1_TC_COMPARE_SWAP)
 138:.\Generated_Source\PSoC4/QuadDec_1.c ****                 QuadDec_1_SetCompareSwap(1u);
 139:.\Generated_Source\PSoC4/QuadDec_1.c ****                 QuadDec_1_WriteCompareBuf(QuadDec_1_TC_COMPARE_BUF_VALUE);
 140:.\Generated_Source\PSoC4/QuadDec_1.c ****             #endif  /* (1u == QuadDec_1_TC_COMPARE_SWAP) */
 141:.\Generated_Source\PSoC4/QuadDec_1.c ****         #endif  /* (QuadDec_1__COMPARE == QuadDec_1_TC_COMP_CAP_MODE) */
 142:.\Generated_Source\PSoC4/QuadDec_1.c ****     #endif  /* (QuadDec_1__TIMER == QuadDec_1_CONFIG) */
 143:.\Generated_Source\PSoC4/QuadDec_1.c **** 
 144:.\Generated_Source\PSoC4/QuadDec_1.c ****     #if (QuadDec_1__PWM_SEL == QuadDec_1_CONFIG)
 145:.\Generated_Source\PSoC4/QuadDec_1.c ****         QuadDec_1_WritePeriod(QuadDec_1_PWM_PERIOD_VALUE );
 146:.\Generated_Source\PSoC4/QuadDec_1.c ****         QuadDec_1_WriteCompare(QuadDec_1_PWM_COMPARE_VALUE);
 147:.\Generated_Source\PSoC4/QuadDec_1.c **** 
 148:.\Generated_Source\PSoC4/QuadDec_1.c ****         #if (1u == QuadDec_1_PWM_COMPARE_SWAP)
 149:.\Generated_Source\PSoC4/QuadDec_1.c ****             QuadDec_1_SetCompareSwap(1u);
 150:.\Generated_Source\PSoC4/QuadDec_1.c ****             QuadDec_1_WriteCompareBuf(QuadDec_1_PWM_COMPARE_BUF_VALUE);
 151:.\Generated_Source\PSoC4/QuadDec_1.c ****         #endif  /* (1u == QuadDec_1_PWM_COMPARE_SWAP) */
 152:.\Generated_Source\PSoC4/QuadDec_1.c **** 
 153:.\Generated_Source\PSoC4/QuadDec_1.c ****         #if (1u == QuadDec_1_PWM_PERIOD_SWAP)
 154:.\Generated_Source\PSoC4/QuadDec_1.c ****             QuadDec_1_SetPeriodSwap(1u);
 155:.\Generated_Source\PSoC4/QuadDec_1.c ****             QuadDec_1_WritePeriodBuf(QuadDec_1_PWM_PERIOD_BUF_VALUE);
 156:.\Generated_Source\PSoC4/QuadDec_1.c ****         #endif  /* (1u == QuadDec_1_PWM_PERIOD_SWAP) */
 157:.\Generated_Source\PSoC4/QuadDec_1.c **** 
 158:.\Generated_Source\PSoC4/QuadDec_1.c ****         /* Set values from customizer to CTRL2 */
 159:.\Generated_Source\PSoC4/QuadDec_1.c ****         #if (QuadDec_1__PWM_PR == QuadDec_1_PWM_MODE)
 160:.\Generated_Source\PSoC4/QuadDec_1.c ****             QuadDec_1_TRIG_CONTROL2_REG =
 161:.\Generated_Source\PSoC4/QuadDec_1.c ****                     (QuadDec_1_CC_MATCH_NO_CHANGE    |
 162:.\Generated_Source\PSoC4/QuadDec_1.c ****                     QuadDec_1_OVERLOW_NO_CHANGE      |
 163:.\Generated_Source\PSoC4/QuadDec_1.c ****                     QuadDec_1_UNDERFLOW_NO_CHANGE);
 164:.\Generated_Source\PSoC4/QuadDec_1.c ****         #else
 165:.\Generated_Source\PSoC4/QuadDec_1.c ****             #if (QuadDec_1__LEFT == QuadDec_1_PWM_ALIGN)
 166:.\Generated_Source\PSoC4/QuadDec_1.c ****                 QuadDec_1_TRIG_CONTROL2_REG = QuadDec_1_PWM_MODE_LEFT;
 167:.\Generated_Source\PSoC4/QuadDec_1.c ****             #endif  /* ( QuadDec_1_PWM_LEFT == QuadDec_1_PWM_ALIGN) */
 168:.\Generated_Source\PSoC4/QuadDec_1.c **** 
 169:.\Generated_Source\PSoC4/QuadDec_1.c ****             #if (QuadDec_1__RIGHT == QuadDec_1_PWM_ALIGN)
 170:.\Generated_Source\PSoC4/QuadDec_1.c ****                 QuadDec_1_WriteCounter(QuadDec_1_PWM_PERIOD_VALUE);
 171:.\Generated_Source\PSoC4/QuadDec_1.c ****                 QuadDec_1_TRIG_CONTROL2_REG = QuadDec_1_PWM_MODE_RIGHT;
 172:.\Generated_Source\PSoC4/QuadDec_1.c ****             #endif  /* ( QuadDec_1_PWM_RIGHT == QuadDec_1_PWM_ALIGN) */
 173:.\Generated_Source\PSoC4/QuadDec_1.c **** 
 174:.\Generated_Source\PSoC4/QuadDec_1.c ****             #if (QuadDec_1__CENTER == QuadDec_1_PWM_ALIGN)
 175:.\Generated_Source\PSoC4/QuadDec_1.c ****                 QuadDec_1_TRIG_CONTROL2_REG = QuadDec_1_PWM_MODE_CENTER;
 176:.\Generated_Source\PSoC4/QuadDec_1.c ****             #endif  /* ( QuadDec_1_PWM_CENTER == QuadDec_1_PWM_ALIGN) */
ARM GAS  C:\DOCUME~1\Chuck\LOCALS~1\Temp\ccRWESA0.s 			page 5


 177:.\Generated_Source\PSoC4/QuadDec_1.c **** 
 178:.\Generated_Source\PSoC4/QuadDec_1.c ****             #if (QuadDec_1__ASYMMETRIC == QuadDec_1_PWM_ALIGN)
 179:.\Generated_Source\PSoC4/QuadDec_1.c ****                 QuadDec_1_TRIG_CONTROL2_REG = QuadDec_1_PWM_MODE_ASYM;
 180:.\Generated_Source\PSoC4/QuadDec_1.c ****             #endif  /* (QuadDec_1__ASYMMETRIC == QuadDec_1_PWM_ALIGN) */
 181:.\Generated_Source\PSoC4/QuadDec_1.c ****         #endif  /* (QuadDec_1__PWM_PR == QuadDec_1_PWM_MODE) */
 182:.\Generated_Source\PSoC4/QuadDec_1.c ****     #endif  /* (QuadDec_1__PWM_SEL == QuadDec_1_CONFIG) */
 183:.\Generated_Source\PSoC4/QuadDec_1.c **** }
  53              		.loc 1 183 0
  54 001a BD46     		mov	sp, r7
  55              		@ sp needed
  56 001c 80BD     		pop	{r7, pc}
  57              	.L3:
  58 001e C046     		.align	2
  59              	.L2:
  60 0020 00010540 		.word	1074069760
  61 0024 24010540 		.word	1074069796
  62              		.cfi_endproc
  63              	.LFE0:
  64              		.size	QuadDec_1_Init, .-QuadDec_1_Init
  65              		.section	.text.QuadDec_1_Enable,"ax",%progbits
  66              		.align	2
  67              		.global	QuadDec_1_Enable
  68              		.code	16
  69              		.thumb_func
  70              		.type	QuadDec_1_Enable, %function
  71              	QuadDec_1_Enable:
  72              	.LFB1:
 184:.\Generated_Source\PSoC4/QuadDec_1.c **** 
 185:.\Generated_Source\PSoC4/QuadDec_1.c **** 
 186:.\Generated_Source\PSoC4/QuadDec_1.c **** /*******************************************************************************
 187:.\Generated_Source\PSoC4/QuadDec_1.c **** * Function Name: QuadDec_1_Enable
 188:.\Generated_Source\PSoC4/QuadDec_1.c **** ********************************************************************************
 189:.\Generated_Source\PSoC4/QuadDec_1.c **** *
 190:.\Generated_Source\PSoC4/QuadDec_1.c **** * Summary:
 191:.\Generated_Source\PSoC4/QuadDec_1.c **** *  Enables the QuadDec_1.
 192:.\Generated_Source\PSoC4/QuadDec_1.c **** *
 193:.\Generated_Source\PSoC4/QuadDec_1.c **** * Parameters:
 194:.\Generated_Source\PSoC4/QuadDec_1.c **** *  None
 195:.\Generated_Source\PSoC4/QuadDec_1.c **** *
 196:.\Generated_Source\PSoC4/QuadDec_1.c **** * Return:
 197:.\Generated_Source\PSoC4/QuadDec_1.c **** *  None
 198:.\Generated_Source\PSoC4/QuadDec_1.c **** *
 199:.\Generated_Source\PSoC4/QuadDec_1.c **** *******************************************************************************/
 200:.\Generated_Source\PSoC4/QuadDec_1.c **** void QuadDec_1_Enable(void)
 201:.\Generated_Source\PSoC4/QuadDec_1.c **** {
  73              		.loc 1 201 0
  74              		.cfi_startproc
  75 0000 90B5     		push	{r4, r7, lr}
  76              		.cfi_def_cfa_offset 12
  77              		.cfi_offset 4, -12
  78              		.cfi_offset 7, -8
  79              		.cfi_offset 14, -4
  80 0002 83B0     		sub	sp, sp, #12
  81              		.cfi_def_cfa_offset 24
  82 0004 00AF     		add	r7, sp, #0
  83              		.cfi_def_cfa_register 7
 202:.\Generated_Source\PSoC4/QuadDec_1.c ****     uint8 enableInterrupts;
ARM GAS  C:\DOCUME~1\Chuck\LOCALS~1\Temp\ccRWESA0.s 			page 6


 203:.\Generated_Source\PSoC4/QuadDec_1.c **** 
 204:.\Generated_Source\PSoC4/QuadDec_1.c ****     enableInterrupts = CyEnterCriticalSection();
  84              		.loc 1 204 0
  85 0006 FC1D     		add	r4, r7, #7
  86 0008 FFF7FEFF 		bl	CyEnterCriticalSection
  87 000c 031C     		mov	r3, r0
  88 000e 2370     		strb	r3, [r4]
 205:.\Generated_Source\PSoC4/QuadDec_1.c ****     QuadDec_1_BLOCK_CONTROL_REG |= QuadDec_1_MASK;
  89              		.loc 1 205 0
  90 0010 064B     		ldr	r3, .L5
  91 0012 064A     		ldr	r2, .L5
  92 0014 1268     		ldr	r2, [r2]
  93 0016 0121     		mov	r1, #1
  94 0018 0A43     		orr	r2, r1
  95 001a 1A60     		str	r2, [r3]
 206:.\Generated_Source\PSoC4/QuadDec_1.c ****     CyExitCriticalSection(enableInterrupts);
  96              		.loc 1 206 0
  97 001c FB1D     		add	r3, r7, #7
  98 001e 1B78     		ldrb	r3, [r3]
  99 0020 181C     		mov	r0, r3
 100 0022 FFF7FEFF 		bl	CyExitCriticalSection
 207:.\Generated_Source\PSoC4/QuadDec_1.c **** 
 208:.\Generated_Source\PSoC4/QuadDec_1.c ****     /* Start Timer or PWM if start input is absent */
 209:.\Generated_Source\PSoC4/QuadDec_1.c ****     #if (QuadDec_1__PWM_SEL == QuadDec_1_CONFIG)
 210:.\Generated_Source\PSoC4/QuadDec_1.c ****         #if (0u == QuadDec_1_PWM_START_SIGNAL_PRESENT)
 211:.\Generated_Source\PSoC4/QuadDec_1.c ****             QuadDec_1_TriggerCommand(QuadDec_1_MASK, QuadDec_1_CMD_START);
 212:.\Generated_Source\PSoC4/QuadDec_1.c ****         #endif /* (0u == QuadDec_1_PWM_START_SIGNAL_PRESENT) */
 213:.\Generated_Source\PSoC4/QuadDec_1.c ****     #endif /* (QuadDec_1__PWM_SEL == QuadDec_1_CONFIG) */
 214:.\Generated_Source\PSoC4/QuadDec_1.c **** 
 215:.\Generated_Source\PSoC4/QuadDec_1.c ****     #if (QuadDec_1__TIMER == QuadDec_1_CONFIG)
 216:.\Generated_Source\PSoC4/QuadDec_1.c ****         #if (0u == QuadDec_1_TC_START_SIGNAL_PRESENT)
 217:.\Generated_Source\PSoC4/QuadDec_1.c ****             QuadDec_1_TriggerCommand(QuadDec_1_MASK, QuadDec_1_CMD_START);
 218:.\Generated_Source\PSoC4/QuadDec_1.c ****         #endif /* (0u == QuadDec_1_TC_START_SIGNAL_PRESENT) */
 219:.\Generated_Source\PSoC4/QuadDec_1.c ****     #endif /* (QuadDec_1__TIMER == QuadDec_1_CONFIG) */
 220:.\Generated_Source\PSoC4/QuadDec_1.c **** }
 101              		.loc 1 220 0
 102 0026 BD46     		mov	sp, r7
 103 0028 03B0     		add	sp, sp, #12
 104              		@ sp needed
 105 002a 90BD     		pop	{r4, r7, pc}
 106              	.L6:
 107              		.align	2
 108              	.L5:
 109 002c 00000540 		.word	1074069504
 110              		.cfi_endproc
 111              	.LFE1:
 112              		.size	QuadDec_1_Enable, .-QuadDec_1_Enable
 113              		.section	.text.QuadDec_1_Start,"ax",%progbits
 114              		.align	2
 115              		.global	QuadDec_1_Start
 116              		.code	16
 117              		.thumb_func
 118              		.type	QuadDec_1_Start, %function
 119              	QuadDec_1_Start:
 120              	.LFB2:
 221:.\Generated_Source\PSoC4/QuadDec_1.c **** 
 222:.\Generated_Source\PSoC4/QuadDec_1.c **** 
ARM GAS  C:\DOCUME~1\Chuck\LOCALS~1\Temp\ccRWESA0.s 			page 7


 223:.\Generated_Source\PSoC4/QuadDec_1.c **** /*******************************************************************************
 224:.\Generated_Source\PSoC4/QuadDec_1.c **** * Function Name: QuadDec_1_Start
 225:.\Generated_Source\PSoC4/QuadDec_1.c **** ********************************************************************************
 226:.\Generated_Source\PSoC4/QuadDec_1.c **** *
 227:.\Generated_Source\PSoC4/QuadDec_1.c **** * Summary:
 228:.\Generated_Source\PSoC4/QuadDec_1.c **** *  Initializes the QuadDec_1 with default customizer
 229:.\Generated_Source\PSoC4/QuadDec_1.c **** *  values when called the first time and enables the QuadDec_1.
 230:.\Generated_Source\PSoC4/QuadDec_1.c **** *  For subsequent calls the configuration is left unchanged and the component is
 231:.\Generated_Source\PSoC4/QuadDec_1.c **** *  just enabled.
 232:.\Generated_Source\PSoC4/QuadDec_1.c **** *
 233:.\Generated_Source\PSoC4/QuadDec_1.c **** * Parameters:
 234:.\Generated_Source\PSoC4/QuadDec_1.c **** *  None
 235:.\Generated_Source\PSoC4/QuadDec_1.c **** *
 236:.\Generated_Source\PSoC4/QuadDec_1.c **** * Return:
 237:.\Generated_Source\PSoC4/QuadDec_1.c **** *  None
 238:.\Generated_Source\PSoC4/QuadDec_1.c **** *
 239:.\Generated_Source\PSoC4/QuadDec_1.c **** * Global variables:
 240:.\Generated_Source\PSoC4/QuadDec_1.c **** *  QuadDec_1_initVar: global variable is used to indicate initial
 241:.\Generated_Source\PSoC4/QuadDec_1.c **** *  configuration of this component.  The variable is initialized to zero and set
 242:.\Generated_Source\PSoC4/QuadDec_1.c **** *  to 1 the first time QuadDec_1_Start() is called. This allows
 243:.\Generated_Source\PSoC4/QuadDec_1.c **** *  enabling/disabling a component without re-initialization in all subsequent
 244:.\Generated_Source\PSoC4/QuadDec_1.c **** *  calls to the QuadDec_1_Start() routine.
 245:.\Generated_Source\PSoC4/QuadDec_1.c **** *
 246:.\Generated_Source\PSoC4/QuadDec_1.c **** *******************************************************************************/
 247:.\Generated_Source\PSoC4/QuadDec_1.c **** void QuadDec_1_Start(void)
 248:.\Generated_Source\PSoC4/QuadDec_1.c **** {
 121              		.loc 1 248 0
 122              		.cfi_startproc
 123 0000 80B5     		push	{r7, lr}
 124              		.cfi_def_cfa_offset 8
 125              		.cfi_offset 7, -8
 126              		.cfi_offset 14, -4
 127 0002 00AF     		add	r7, sp, #0
 128              		.cfi_def_cfa_register 7
 249:.\Generated_Source\PSoC4/QuadDec_1.c ****     if (0u == QuadDec_1_initVar)
 129              		.loc 1 249 0
 130 0004 064B     		ldr	r3, .L9
 131 0006 1B78     		ldrb	r3, [r3]
 132 0008 002B     		cmp	r3, #0
 133 000a 04D1     		bne	.L8
 250:.\Generated_Source\PSoC4/QuadDec_1.c ****     {
 251:.\Generated_Source\PSoC4/QuadDec_1.c ****         QuadDec_1_Init();
 134              		.loc 1 251 0
 135 000c FFF7FEFF 		bl	QuadDec_1_Init
 252:.\Generated_Source\PSoC4/QuadDec_1.c ****         QuadDec_1_initVar = 1u;
 136              		.loc 1 252 0
 137 0010 034B     		ldr	r3, .L9
 138 0012 0122     		mov	r2, #1
 139 0014 1A70     		strb	r2, [r3]
 140              	.L8:
 253:.\Generated_Source\PSoC4/QuadDec_1.c ****     }
 254:.\Generated_Source\PSoC4/QuadDec_1.c **** 
 255:.\Generated_Source\PSoC4/QuadDec_1.c ****     QuadDec_1_Enable();
 141              		.loc 1 255 0
 142 0016 FFF7FEFF 		bl	QuadDec_1_Enable
 256:.\Generated_Source\PSoC4/QuadDec_1.c **** }
 143              		.loc 1 256 0
ARM GAS  C:\DOCUME~1\Chuck\LOCALS~1\Temp\ccRWESA0.s 			page 8


 144 001a BD46     		mov	sp, r7
 145              		@ sp needed
 146 001c 80BD     		pop	{r7, pc}
 147              	.L10:
 148 001e C046     		.align	2
 149              	.L9:
 150 0020 00000000 		.word	QuadDec_1_initVar
 151              		.cfi_endproc
 152              	.LFE2:
 153              		.size	QuadDec_1_Start, .-QuadDec_1_Start
 154              		.section	.text.QuadDec_1_Stop,"ax",%progbits
 155              		.align	2
 156              		.global	QuadDec_1_Stop
 157              		.code	16
 158              		.thumb_func
 159              		.type	QuadDec_1_Stop, %function
 160              	QuadDec_1_Stop:
 161              	.LFB3:
 257:.\Generated_Source\PSoC4/QuadDec_1.c **** 
 258:.\Generated_Source\PSoC4/QuadDec_1.c **** 
 259:.\Generated_Source\PSoC4/QuadDec_1.c **** /*******************************************************************************
 260:.\Generated_Source\PSoC4/QuadDec_1.c **** * Function Name: QuadDec_1_Stop
 261:.\Generated_Source\PSoC4/QuadDec_1.c **** ********************************************************************************
 262:.\Generated_Source\PSoC4/QuadDec_1.c **** *
 263:.\Generated_Source\PSoC4/QuadDec_1.c **** * Summary:
 264:.\Generated_Source\PSoC4/QuadDec_1.c **** *  Disables the QuadDec_1.
 265:.\Generated_Source\PSoC4/QuadDec_1.c **** *
 266:.\Generated_Source\PSoC4/QuadDec_1.c **** * Parameters:
 267:.\Generated_Source\PSoC4/QuadDec_1.c **** *  None
 268:.\Generated_Source\PSoC4/QuadDec_1.c **** *
 269:.\Generated_Source\PSoC4/QuadDec_1.c **** * Return:
 270:.\Generated_Source\PSoC4/QuadDec_1.c **** *  None
 271:.\Generated_Source\PSoC4/QuadDec_1.c **** *
 272:.\Generated_Source\PSoC4/QuadDec_1.c **** *******************************************************************************/
 273:.\Generated_Source\PSoC4/QuadDec_1.c **** void QuadDec_1_Stop(void)
 274:.\Generated_Source\PSoC4/QuadDec_1.c **** {
 162              		.loc 1 274 0
 163              		.cfi_startproc
 164 0000 90B5     		push	{r4, r7, lr}
 165              		.cfi_def_cfa_offset 12
 166              		.cfi_offset 4, -12
 167              		.cfi_offset 7, -8
 168              		.cfi_offset 14, -4
 169 0002 83B0     		sub	sp, sp, #12
 170              		.cfi_def_cfa_offset 24
 171 0004 00AF     		add	r7, sp, #0
 172              		.cfi_def_cfa_register 7
 275:.\Generated_Source\PSoC4/QuadDec_1.c ****     uint8 enableInterrupts;
 276:.\Generated_Source\PSoC4/QuadDec_1.c **** 
 277:.\Generated_Source\PSoC4/QuadDec_1.c ****     enableInterrupts = CyEnterCriticalSection();
 173              		.loc 1 277 0
 174 0006 FC1D     		add	r4, r7, #7
 175 0008 FFF7FEFF 		bl	CyEnterCriticalSection
 176 000c 031C     		mov	r3, r0
 177 000e 2370     		strb	r3, [r4]
 278:.\Generated_Source\PSoC4/QuadDec_1.c **** 
 279:.\Generated_Source\PSoC4/QuadDec_1.c ****     QuadDec_1_BLOCK_CONTROL_REG &= (uint32)~QuadDec_1_MASK;
ARM GAS  C:\DOCUME~1\Chuck\LOCALS~1\Temp\ccRWESA0.s 			page 9


 178              		.loc 1 279 0
 179 0010 064B     		ldr	r3, .L12
 180 0012 064A     		ldr	r2, .L12
 181 0014 1268     		ldr	r2, [r2]
 182 0016 0121     		mov	r1, #1
 183 0018 8A43     		bic	r2, r1
 184 001a 1A60     		str	r2, [r3]
 280:.\Generated_Source\PSoC4/QuadDec_1.c **** 
 281:.\Generated_Source\PSoC4/QuadDec_1.c ****     CyExitCriticalSection(enableInterrupts);
 185              		.loc 1 281 0
 186 001c FB1D     		add	r3, r7, #7
 187 001e 1B78     		ldrb	r3, [r3]
 188 0020 181C     		mov	r0, r3
 189 0022 FFF7FEFF 		bl	CyExitCriticalSection
 282:.\Generated_Source\PSoC4/QuadDec_1.c **** }
 190              		.loc 1 282 0
 191 0026 BD46     		mov	sp, r7
 192 0028 03B0     		add	sp, sp, #12
 193              		@ sp needed
 194 002a 90BD     		pop	{r4, r7, pc}
 195              	.L13:
 196              		.align	2
 197              	.L12:
 198 002c 00000540 		.word	1074069504
 199              		.cfi_endproc
 200              	.LFE3:
 201              		.size	QuadDec_1_Stop, .-QuadDec_1_Stop
 202              		.section	.text.QuadDec_1_SetMode,"ax",%progbits
 203              		.align	2
 204              		.global	QuadDec_1_SetMode
 205              		.code	16
 206              		.thumb_func
 207              		.type	QuadDec_1_SetMode, %function
 208              	QuadDec_1_SetMode:
 209              	.LFB4:
 283:.\Generated_Source\PSoC4/QuadDec_1.c **** 
 284:.\Generated_Source\PSoC4/QuadDec_1.c **** 
 285:.\Generated_Source\PSoC4/QuadDec_1.c **** /*******************************************************************************
 286:.\Generated_Source\PSoC4/QuadDec_1.c **** * Function Name: QuadDec_1_SetMode
 287:.\Generated_Source\PSoC4/QuadDec_1.c **** ********************************************************************************
 288:.\Generated_Source\PSoC4/QuadDec_1.c **** *
 289:.\Generated_Source\PSoC4/QuadDec_1.c **** * Summary:
 290:.\Generated_Source\PSoC4/QuadDec_1.c **** *  Sets the operation mode of the QuadDec_1. This function is used when
 291:.\Generated_Source\PSoC4/QuadDec_1.c **** *  configured as a generic QuadDec_1 and the actual mode of operation is
 292:.\Generated_Source\PSoC4/QuadDec_1.c **** *  set at runtime. The mode must be set while the component is disabled.
 293:.\Generated_Source\PSoC4/QuadDec_1.c **** *
 294:.\Generated_Source\PSoC4/QuadDec_1.c **** * Parameters:
 295:.\Generated_Source\PSoC4/QuadDec_1.c **** *  mode: Mode for the QuadDec_1 to operate in
 296:.\Generated_Source\PSoC4/QuadDec_1.c **** *   Values:
 297:.\Generated_Source\PSoC4/QuadDec_1.c **** *   - QuadDec_1_MODE_TIMER_COMPARE - Timer / Counter with
 298:.\Generated_Source\PSoC4/QuadDec_1.c **** *                                                 compare capability
 299:.\Generated_Source\PSoC4/QuadDec_1.c **** *         - QuadDec_1_MODE_TIMER_CAPTURE - Timer / Counter with
 300:.\Generated_Source\PSoC4/QuadDec_1.c **** *                                                 capture capability
 301:.\Generated_Source\PSoC4/QuadDec_1.c **** *         - QuadDec_1_MODE_QUAD - Quadrature decoder
 302:.\Generated_Source\PSoC4/QuadDec_1.c **** *         - QuadDec_1_MODE_PWM - PWM
 303:.\Generated_Source\PSoC4/QuadDec_1.c **** *         - QuadDec_1_MODE_PWM_DT - PWM with dead time
 304:.\Generated_Source\PSoC4/QuadDec_1.c **** *         - QuadDec_1_MODE_PWM_PR - PWM with pseudo random capability
ARM GAS  C:\DOCUME~1\Chuck\LOCALS~1\Temp\ccRWESA0.s 			page 10


 305:.\Generated_Source\PSoC4/QuadDec_1.c **** *
 306:.\Generated_Source\PSoC4/QuadDec_1.c **** * Return:
 307:.\Generated_Source\PSoC4/QuadDec_1.c **** *  None
 308:.\Generated_Source\PSoC4/QuadDec_1.c **** *
 309:.\Generated_Source\PSoC4/QuadDec_1.c **** *******************************************************************************/
 310:.\Generated_Source\PSoC4/QuadDec_1.c **** void QuadDec_1_SetMode(uint32 mode)
 311:.\Generated_Source\PSoC4/QuadDec_1.c **** {
 210              		.loc 1 311 0
 211              		.cfi_startproc
 212 0000 90B5     		push	{r4, r7, lr}
 213              		.cfi_def_cfa_offset 12
 214              		.cfi_offset 4, -12
 215              		.cfi_offset 7, -8
 216              		.cfi_offset 14, -4
 217 0002 85B0     		sub	sp, sp, #20
 218              		.cfi_def_cfa_offset 32
 219 0004 00AF     		add	r7, sp, #0
 220              		.cfi_def_cfa_register 7
 221 0006 7860     		str	r0, [r7, #4]
 312:.\Generated_Source\PSoC4/QuadDec_1.c ****     uint8 enableInterrupts;
 313:.\Generated_Source\PSoC4/QuadDec_1.c **** 
 314:.\Generated_Source\PSoC4/QuadDec_1.c ****     enableInterrupts = CyEnterCriticalSection();
 222              		.loc 1 314 0
 223 0008 3C1C     		mov	r4, r7
 224 000a 0F34     		add	r4, r4, #15
 225 000c FFF7FEFF 		bl	CyEnterCriticalSection
 226 0010 031C     		mov	r3, r0
 227 0012 2370     		strb	r3, [r4]
 315:.\Generated_Source\PSoC4/QuadDec_1.c **** 
 316:.\Generated_Source\PSoC4/QuadDec_1.c ****     QuadDec_1_CONTROL_REG &= (uint32)~QuadDec_1_MODE_MASK;
 228              		.loc 1 316 0
 229 0014 0A4B     		ldr	r3, .L15
 230 0016 0A4A     		ldr	r2, .L15
 231 0018 1168     		ldr	r1, [r2]
 232 001a 0A4A     		ldr	r2, .L15+4
 233 001c 0A40     		and	r2, r1
 234 001e 1A60     		str	r2, [r3]
 317:.\Generated_Source\PSoC4/QuadDec_1.c ****     QuadDec_1_CONTROL_REG |= mode;
 235              		.loc 1 317 0
 236 0020 074B     		ldr	r3, .L15
 237 0022 074A     		ldr	r2, .L15
 238 0024 1168     		ldr	r1, [r2]
 239 0026 7A68     		ldr	r2, [r7, #4]
 240 0028 0A43     		orr	r2, r1
 241 002a 1A60     		str	r2, [r3]
 318:.\Generated_Source\PSoC4/QuadDec_1.c **** 
 319:.\Generated_Source\PSoC4/QuadDec_1.c ****     CyExitCriticalSection(enableInterrupts);
 242              		.loc 1 319 0
 243 002c 3B1C     		mov	r3, r7
 244 002e 0F33     		add	r3, r3, #15
 245 0030 1B78     		ldrb	r3, [r3]
 246 0032 181C     		mov	r0, r3
 247 0034 FFF7FEFF 		bl	CyExitCriticalSection
 320:.\Generated_Source\PSoC4/QuadDec_1.c **** }
 248              		.loc 1 320 0
 249 0038 BD46     		mov	sp, r7
 250 003a 05B0     		add	sp, sp, #20
ARM GAS  C:\DOCUME~1\Chuck\LOCALS~1\Temp\ccRWESA0.s 			page 11


 251              		@ sp needed
 252 003c 90BD     		pop	{r4, r7, pc}
 253              	.L16:
 254 003e C046     		.align	2
 255              	.L15:
 256 0040 00010540 		.word	1074069760
 257 0044 FFFFFFF8 		.word	-117440513
 258              		.cfi_endproc
 259              	.LFE4:
 260              		.size	QuadDec_1_SetMode, .-QuadDec_1_SetMode
 261              		.section	.text.QuadDec_1_SetQDMode,"ax",%progbits
 262              		.align	2
 263              		.global	QuadDec_1_SetQDMode
 264              		.code	16
 265              		.thumb_func
 266              		.type	QuadDec_1_SetQDMode, %function
 267              	QuadDec_1_SetQDMode:
 268              	.LFB5:
 321:.\Generated_Source\PSoC4/QuadDec_1.c **** 
 322:.\Generated_Source\PSoC4/QuadDec_1.c **** 
 323:.\Generated_Source\PSoC4/QuadDec_1.c **** /*******************************************************************************
 324:.\Generated_Source\PSoC4/QuadDec_1.c **** * Function Name: QuadDec_1_SetQDMode
 325:.\Generated_Source\PSoC4/QuadDec_1.c **** ********************************************************************************
 326:.\Generated_Source\PSoC4/QuadDec_1.c **** *
 327:.\Generated_Source\PSoC4/QuadDec_1.c **** * Summary:
 328:.\Generated_Source\PSoC4/QuadDec_1.c **** *  Sets the the Quadrature Decoder to one of the 3 supported modes.
 329:.\Generated_Source\PSoC4/QuadDec_1.c **** *  Its functionality is only applicable to Quadrature Decoder operation.
 330:.\Generated_Source\PSoC4/QuadDec_1.c **** *
 331:.\Generated_Source\PSoC4/QuadDec_1.c **** * Parameters:
 332:.\Generated_Source\PSoC4/QuadDec_1.c **** *  qdMode: Quadrature Decoder mode
 333:.\Generated_Source\PSoC4/QuadDec_1.c **** *   Values:
 334:.\Generated_Source\PSoC4/QuadDec_1.c **** *         - QuadDec_1_MODE_X1 - Counts on phi 1 rising
 335:.\Generated_Source\PSoC4/QuadDec_1.c **** *         - QuadDec_1_MODE_X2 - Counts on both edges of phi1 (2x faster)
 336:.\Generated_Source\PSoC4/QuadDec_1.c **** *         - QuadDec_1_MODE_X4 - Counts on both edges of phi1 and phi2
 337:.\Generated_Source\PSoC4/QuadDec_1.c **** *                                        (4x faster)
 338:.\Generated_Source\PSoC4/QuadDec_1.c **** *
 339:.\Generated_Source\PSoC4/QuadDec_1.c **** * Return:
 340:.\Generated_Source\PSoC4/QuadDec_1.c **** *  None
 341:.\Generated_Source\PSoC4/QuadDec_1.c **** *
 342:.\Generated_Source\PSoC4/QuadDec_1.c **** *******************************************************************************/
 343:.\Generated_Source\PSoC4/QuadDec_1.c **** void QuadDec_1_SetQDMode(uint32 qdMode)
 344:.\Generated_Source\PSoC4/QuadDec_1.c **** {
 269              		.loc 1 344 0
 270              		.cfi_startproc
 271 0000 90B5     		push	{r4, r7, lr}
 272              		.cfi_def_cfa_offset 12
 273              		.cfi_offset 4, -12
 274              		.cfi_offset 7, -8
 275              		.cfi_offset 14, -4
 276 0002 85B0     		sub	sp, sp, #20
 277              		.cfi_def_cfa_offset 32
 278 0004 00AF     		add	r7, sp, #0
 279              		.cfi_def_cfa_register 7
 280 0006 7860     		str	r0, [r7, #4]
 345:.\Generated_Source\PSoC4/QuadDec_1.c ****     uint8 enableInterrupts;
 346:.\Generated_Source\PSoC4/QuadDec_1.c **** 
 347:.\Generated_Source\PSoC4/QuadDec_1.c ****     enableInterrupts = CyEnterCriticalSection();
ARM GAS  C:\DOCUME~1\Chuck\LOCALS~1\Temp\ccRWESA0.s 			page 12


 281              		.loc 1 347 0
 282 0008 3C1C     		mov	r4, r7
 283 000a 0F34     		add	r4, r4, #15
 284 000c FFF7FEFF 		bl	CyEnterCriticalSection
 285 0010 031C     		mov	r3, r0
 286 0012 2370     		strb	r3, [r4]
 348:.\Generated_Source\PSoC4/QuadDec_1.c **** 
 349:.\Generated_Source\PSoC4/QuadDec_1.c ****     QuadDec_1_CONTROL_REG &= (uint32)~QuadDec_1_QUAD_MODE_MASK;
 287              		.loc 1 349 0
 288 0014 0A4B     		ldr	r3, .L18
 289 0016 0A4A     		ldr	r2, .L18
 290 0018 1168     		ldr	r1, [r2]
 291 001a 0A4A     		ldr	r2, .L18+4
 292 001c 0A40     		and	r2, r1
 293 001e 1A60     		str	r2, [r3]
 350:.\Generated_Source\PSoC4/QuadDec_1.c ****     QuadDec_1_CONTROL_REG |= qdMode;
 294              		.loc 1 350 0
 295 0020 074B     		ldr	r3, .L18
 296 0022 074A     		ldr	r2, .L18
 297 0024 1168     		ldr	r1, [r2]
 298 0026 7A68     		ldr	r2, [r7, #4]
 299 0028 0A43     		orr	r2, r1
 300 002a 1A60     		str	r2, [r3]
 351:.\Generated_Source\PSoC4/QuadDec_1.c **** 
 352:.\Generated_Source\PSoC4/QuadDec_1.c ****     CyExitCriticalSection(enableInterrupts);
 301              		.loc 1 352 0
 302 002c 3B1C     		mov	r3, r7
 303 002e 0F33     		add	r3, r3, #15
 304 0030 1B78     		ldrb	r3, [r3]
 305 0032 181C     		mov	r0, r3
 306 0034 FFF7FEFF 		bl	CyExitCriticalSection
 353:.\Generated_Source\PSoC4/QuadDec_1.c **** }
 307              		.loc 1 353 0
 308 0038 BD46     		mov	sp, r7
 309 003a 05B0     		add	sp, sp, #20
 310              		@ sp needed
 311 003c 90BD     		pop	{r4, r7, pc}
 312              	.L19:
 313 003e C046     		.align	2
 314              	.L18:
 315 0040 00010540 		.word	1074069760
 316 0044 FFFF8FFF 		.word	-7340033
 317              		.cfi_endproc
 318              	.LFE5:
 319              		.size	QuadDec_1_SetQDMode, .-QuadDec_1_SetQDMode
 320              		.section	.text.QuadDec_1_SetPrescaler,"ax",%progbits
 321              		.align	2
 322              		.global	QuadDec_1_SetPrescaler
 323              		.code	16
 324              		.thumb_func
 325              		.type	QuadDec_1_SetPrescaler, %function
 326              	QuadDec_1_SetPrescaler:
 327              	.LFB6:
 354:.\Generated_Source\PSoC4/QuadDec_1.c **** 
 355:.\Generated_Source\PSoC4/QuadDec_1.c **** 
 356:.\Generated_Source\PSoC4/QuadDec_1.c **** /*******************************************************************************
 357:.\Generated_Source\PSoC4/QuadDec_1.c **** * Function Name: QuadDec_1_SetPrescaler
ARM GAS  C:\DOCUME~1\Chuck\LOCALS~1\Temp\ccRWESA0.s 			page 13


 358:.\Generated_Source\PSoC4/QuadDec_1.c **** ********************************************************************************
 359:.\Generated_Source\PSoC4/QuadDec_1.c **** *
 360:.\Generated_Source\PSoC4/QuadDec_1.c **** * Summary:
 361:.\Generated_Source\PSoC4/QuadDec_1.c **** *  Sets the prescaler value that is applied to the clock input.  Not applicable
 362:.\Generated_Source\PSoC4/QuadDec_1.c **** *  to a PWM with the dead time mode or Quadrature Decoder mode.
 363:.\Generated_Source\PSoC4/QuadDec_1.c **** *
 364:.\Generated_Source\PSoC4/QuadDec_1.c **** * Parameters:
 365:.\Generated_Source\PSoC4/QuadDec_1.c **** *  prescaler: Prescaler divider value
 366:.\Generated_Source\PSoC4/QuadDec_1.c **** *   Values:
 367:.\Generated_Source\PSoC4/QuadDec_1.c **** *         - QuadDec_1_PRESCALE_DIVBY1    - Divide by 1 (no prescaling)
 368:.\Generated_Source\PSoC4/QuadDec_1.c **** *         - QuadDec_1_PRESCALE_DIVBY2    - Divide by 2
 369:.\Generated_Source\PSoC4/QuadDec_1.c **** *         - QuadDec_1_PRESCALE_DIVBY4    - Divide by 4
 370:.\Generated_Source\PSoC4/QuadDec_1.c **** *         - QuadDec_1_PRESCALE_DIVBY8    - Divide by 8
 371:.\Generated_Source\PSoC4/QuadDec_1.c **** *         - QuadDec_1_PRESCALE_DIVBY16   - Divide by 16
 372:.\Generated_Source\PSoC4/QuadDec_1.c **** *         - QuadDec_1_PRESCALE_DIVBY32   - Divide by 32
 373:.\Generated_Source\PSoC4/QuadDec_1.c **** *         - QuadDec_1_PRESCALE_DIVBY64   - Divide by 64
 374:.\Generated_Source\PSoC4/QuadDec_1.c **** *         - QuadDec_1_PRESCALE_DIVBY128  - Divide by 128
 375:.\Generated_Source\PSoC4/QuadDec_1.c **** *
 376:.\Generated_Source\PSoC4/QuadDec_1.c **** * Return:
 377:.\Generated_Source\PSoC4/QuadDec_1.c **** *  None
 378:.\Generated_Source\PSoC4/QuadDec_1.c **** *
 379:.\Generated_Source\PSoC4/QuadDec_1.c **** *******************************************************************************/
 380:.\Generated_Source\PSoC4/QuadDec_1.c **** void QuadDec_1_SetPrescaler(uint32 prescaler)
 381:.\Generated_Source\PSoC4/QuadDec_1.c **** {
 328              		.loc 1 381 0
 329              		.cfi_startproc
 330 0000 90B5     		push	{r4, r7, lr}
 331              		.cfi_def_cfa_offset 12
 332              		.cfi_offset 4, -12
 333              		.cfi_offset 7, -8
 334              		.cfi_offset 14, -4
 335 0002 85B0     		sub	sp, sp, #20
 336              		.cfi_def_cfa_offset 32
 337 0004 00AF     		add	r7, sp, #0
 338              		.cfi_def_cfa_register 7
 339 0006 7860     		str	r0, [r7, #4]
 382:.\Generated_Source\PSoC4/QuadDec_1.c ****     uint8 enableInterrupts;
 383:.\Generated_Source\PSoC4/QuadDec_1.c **** 
 384:.\Generated_Source\PSoC4/QuadDec_1.c ****     enableInterrupts = CyEnterCriticalSection();
 340              		.loc 1 384 0
 341 0008 3C1C     		mov	r4, r7
 342 000a 0F34     		add	r4, r4, #15
 343 000c FFF7FEFF 		bl	CyEnterCriticalSection
 344 0010 031C     		mov	r3, r0
 345 0012 2370     		strb	r3, [r4]
 385:.\Generated_Source\PSoC4/QuadDec_1.c **** 
 386:.\Generated_Source\PSoC4/QuadDec_1.c ****     QuadDec_1_CONTROL_REG &= (uint32)~QuadDec_1_PRESCALER_MASK;
 346              		.loc 1 386 0
 347 0014 0A4B     		ldr	r3, .L21
 348 0016 0A4A     		ldr	r2, .L21
 349 0018 1168     		ldr	r1, [r2]
 350 001a 0A4A     		ldr	r2, .L21+4
 351 001c 0A40     		and	r2, r1
 352 001e 1A60     		str	r2, [r3]
 387:.\Generated_Source\PSoC4/QuadDec_1.c ****     QuadDec_1_CONTROL_REG |= prescaler;
 353              		.loc 1 387 0
 354 0020 074B     		ldr	r3, .L21
ARM GAS  C:\DOCUME~1\Chuck\LOCALS~1\Temp\ccRWESA0.s 			page 14


 355 0022 074A     		ldr	r2, .L21
 356 0024 1168     		ldr	r1, [r2]
 357 0026 7A68     		ldr	r2, [r7, #4]
 358 0028 0A43     		orr	r2, r1
 359 002a 1A60     		str	r2, [r3]
 388:.\Generated_Source\PSoC4/QuadDec_1.c **** 
 389:.\Generated_Source\PSoC4/QuadDec_1.c ****     CyExitCriticalSection(enableInterrupts);
 360              		.loc 1 389 0
 361 002c 3B1C     		mov	r3, r7
 362 002e 0F33     		add	r3, r3, #15
 363 0030 1B78     		ldrb	r3, [r3]
 364 0032 181C     		mov	r0, r3
 365 0034 FFF7FEFF 		bl	CyExitCriticalSection
 390:.\Generated_Source\PSoC4/QuadDec_1.c **** }
 366              		.loc 1 390 0
 367 0038 BD46     		mov	sp, r7
 368 003a 05B0     		add	sp, sp, #20
 369              		@ sp needed
 370 003c 90BD     		pop	{r4, r7, pc}
 371              	.L22:
 372 003e C046     		.align	2
 373              	.L21:
 374 0040 00010540 		.word	1074069760
 375 0044 FF00FFFF 		.word	-65281
 376              		.cfi_endproc
 377              	.LFE6:
 378              		.size	QuadDec_1_SetPrescaler, .-QuadDec_1_SetPrescaler
 379              		.section	.text.QuadDec_1_SetOneShot,"ax",%progbits
 380              		.align	2
 381              		.global	QuadDec_1_SetOneShot
 382              		.code	16
 383              		.thumb_func
 384              		.type	QuadDec_1_SetOneShot, %function
 385              	QuadDec_1_SetOneShot:
 386              	.LFB7:
 391:.\Generated_Source\PSoC4/QuadDec_1.c **** 
 392:.\Generated_Source\PSoC4/QuadDec_1.c **** 
 393:.\Generated_Source\PSoC4/QuadDec_1.c **** /*******************************************************************************
 394:.\Generated_Source\PSoC4/QuadDec_1.c **** * Function Name: QuadDec_1_SetOneShot
 395:.\Generated_Source\PSoC4/QuadDec_1.c **** ********************************************************************************
 396:.\Generated_Source\PSoC4/QuadDec_1.c **** *
 397:.\Generated_Source\PSoC4/QuadDec_1.c **** * Summary:
 398:.\Generated_Source\PSoC4/QuadDec_1.c **** *  Writes the register that controls whether the QuadDec_1 runs
 399:.\Generated_Source\PSoC4/QuadDec_1.c **** *  continuously or stops when terminal count is reached.  By default the
 400:.\Generated_Source\PSoC4/QuadDec_1.c **** *  QuadDec_1 operates in the continuous mode.
 401:.\Generated_Source\PSoC4/QuadDec_1.c **** *
 402:.\Generated_Source\PSoC4/QuadDec_1.c **** * Parameters:
 403:.\Generated_Source\PSoC4/QuadDec_1.c **** *  oneShotEnable
 404:.\Generated_Source\PSoC4/QuadDec_1.c **** *   Values:
 405:.\Generated_Source\PSoC4/QuadDec_1.c **** *     - 0 - Continuous
 406:.\Generated_Source\PSoC4/QuadDec_1.c **** *     - 1 - Enable One Shot
 407:.\Generated_Source\PSoC4/QuadDec_1.c **** *
 408:.\Generated_Source\PSoC4/QuadDec_1.c **** * Return:
 409:.\Generated_Source\PSoC4/QuadDec_1.c **** *  None
 410:.\Generated_Source\PSoC4/QuadDec_1.c **** *
 411:.\Generated_Source\PSoC4/QuadDec_1.c **** *******************************************************************************/
 412:.\Generated_Source\PSoC4/QuadDec_1.c **** void QuadDec_1_SetOneShot(uint32 oneShotEnable)
ARM GAS  C:\DOCUME~1\Chuck\LOCALS~1\Temp\ccRWESA0.s 			page 15


 413:.\Generated_Source\PSoC4/QuadDec_1.c **** {
 387              		.loc 1 413 0
 388              		.cfi_startproc
 389 0000 90B5     		push	{r4, r7, lr}
 390              		.cfi_def_cfa_offset 12
 391              		.cfi_offset 4, -12
 392              		.cfi_offset 7, -8
 393              		.cfi_offset 14, -4
 394 0002 85B0     		sub	sp, sp, #20
 395              		.cfi_def_cfa_offset 32
 396 0004 00AF     		add	r7, sp, #0
 397              		.cfi_def_cfa_register 7
 398 0006 7860     		str	r0, [r7, #4]
 414:.\Generated_Source\PSoC4/QuadDec_1.c ****     uint8 enableInterrupts;
 415:.\Generated_Source\PSoC4/QuadDec_1.c **** 
 416:.\Generated_Source\PSoC4/QuadDec_1.c ****     enableInterrupts = CyEnterCriticalSection();
 399              		.loc 1 416 0
 400 0008 3C1C     		mov	r4, r7
 401 000a 0F34     		add	r4, r4, #15
 402 000c FFF7FEFF 		bl	CyEnterCriticalSection
 403 0010 031C     		mov	r3, r0
 404 0012 2370     		strb	r3, [r4]
 417:.\Generated_Source\PSoC4/QuadDec_1.c **** 
 418:.\Generated_Source\PSoC4/QuadDec_1.c ****     QuadDec_1_CONTROL_REG &= (uint32)~QuadDec_1_ONESHOT_MASK;
 405              		.loc 1 418 0
 406 0014 0B4B     		ldr	r3, .L24
 407 0016 0B4A     		ldr	r2, .L24
 408 0018 1168     		ldr	r1, [r2]
 409 001a 0B4A     		ldr	r2, .L24+4
 410 001c 0A40     		and	r2, r1
 411 001e 1A60     		str	r2, [r3]
 419:.\Generated_Source\PSoC4/QuadDec_1.c ****     QuadDec_1_CONTROL_REG |= ((uint32)((oneShotEnable & QuadDec_1_1BIT_MASK) <<
 412              		.loc 1 419 0
 413 0020 084B     		ldr	r3, .L24
 414 0022 084A     		ldr	r2, .L24
 415 0024 1168     		ldr	r1, [r2]
 416 0026 7868     		ldr	r0, [r7, #4]
 417 0028 0122     		mov	r2, #1
 418 002a 0240     		and	r2, r0
 419 002c 9204     		lsl	r2, r2, #18
 420 002e 0A43     		orr	r2, r1
 421 0030 1A60     		str	r2, [r3]
 420:.\Generated_Source\PSoC4/QuadDec_1.c ****                                                                QuadDec_1_ONESHOT_SHIFT));
 421:.\Generated_Source\PSoC4/QuadDec_1.c **** 
 422:.\Generated_Source\PSoC4/QuadDec_1.c ****     CyExitCriticalSection(enableInterrupts);
 422              		.loc 1 422 0
 423 0032 3B1C     		mov	r3, r7
 424 0034 0F33     		add	r3, r3, #15
 425 0036 1B78     		ldrb	r3, [r3]
 426 0038 181C     		mov	r0, r3
 427 003a FFF7FEFF 		bl	CyExitCriticalSection
 423:.\Generated_Source\PSoC4/QuadDec_1.c **** }
 428              		.loc 1 423 0
 429 003e BD46     		mov	sp, r7
 430 0040 05B0     		add	sp, sp, #20
 431              		@ sp needed
 432 0042 90BD     		pop	{r4, r7, pc}
ARM GAS  C:\DOCUME~1\Chuck\LOCALS~1\Temp\ccRWESA0.s 			page 16


 433              	.L25:
 434              		.align	2
 435              	.L24:
 436 0044 00010540 		.word	1074069760
 437 0048 FFFFFBFF 		.word	-262145
 438              		.cfi_endproc
 439              	.LFE7:
 440              		.size	QuadDec_1_SetOneShot, .-QuadDec_1_SetOneShot
 441              		.section	.text.QuadDec_1_SetPWMMode,"ax",%progbits
 442              		.align	2
 443              		.global	QuadDec_1_SetPWMMode
 444              		.code	16
 445              		.thumb_func
 446              		.type	QuadDec_1_SetPWMMode, %function
 447              	QuadDec_1_SetPWMMode:
 448              	.LFB8:
 424:.\Generated_Source\PSoC4/QuadDec_1.c **** 
 425:.\Generated_Source\PSoC4/QuadDec_1.c **** 
 426:.\Generated_Source\PSoC4/QuadDec_1.c **** /*******************************************************************************
 427:.\Generated_Source\PSoC4/QuadDec_1.c **** * Function Name: QuadDec_1_SetPWMMode
 428:.\Generated_Source\PSoC4/QuadDec_1.c **** ********************************************************************************
 429:.\Generated_Source\PSoC4/QuadDec_1.c **** *
 430:.\Generated_Source\PSoC4/QuadDec_1.c **** * Summary:
 431:.\Generated_Source\PSoC4/QuadDec_1.c **** *  Writes the control register that determines what mode of operation the PWM
 432:.\Generated_Source\PSoC4/QuadDec_1.c **** *  output lines are driven in.  There is a setting for what to do on a
 433:.\Generated_Source\PSoC4/QuadDec_1.c **** *  comparison match (CC_MATCH), on an overflow (OVERFLOW) and on an underflow
 434:.\Generated_Source\PSoC4/QuadDec_1.c **** *  (UNDERFLOW).  The value for each of the three must be ORed together to form
 435:.\Generated_Source\PSoC4/QuadDec_1.c **** *  the mode.
 436:.\Generated_Source\PSoC4/QuadDec_1.c **** *
 437:.\Generated_Source\PSoC4/QuadDec_1.c **** * Parameters:
 438:.\Generated_Source\PSoC4/QuadDec_1.c **** *  modeMask: A combination of three mode settings.  Mask must include a value
 439:.\Generated_Source\PSoC4/QuadDec_1.c **** *  for each of the three or use one of the preconfigured PWM settings.
 440:.\Generated_Source\PSoC4/QuadDec_1.c **** *   Values:
 441:.\Generated_Source\PSoC4/QuadDec_1.c **** *     - CC_MATCH_SET        - Set on comparison match
 442:.\Generated_Source\PSoC4/QuadDec_1.c **** *     - CC_MATCH_CLEAR      - Clear on comparison match
 443:.\Generated_Source\PSoC4/QuadDec_1.c **** *     - CC_MATCH_INVERT     - Invert on comparison match
 444:.\Generated_Source\PSoC4/QuadDec_1.c **** *     - CC_MATCH_NO_CHANGE  - No change on comparison match
 445:.\Generated_Source\PSoC4/QuadDec_1.c **** *     - OVERLOW_SET         - Set on overflow
 446:.\Generated_Source\PSoC4/QuadDec_1.c **** *     - OVERLOW_CLEAR       - Clear on  overflow
 447:.\Generated_Source\PSoC4/QuadDec_1.c **** *     - OVERLOW_INVERT      - Invert on overflow
 448:.\Generated_Source\PSoC4/QuadDec_1.c **** *     - OVERLOW_NO_CHANGE   - No change on overflow
 449:.\Generated_Source\PSoC4/QuadDec_1.c **** *     - UNDERFLOW_SET       - Set on underflow
 450:.\Generated_Source\PSoC4/QuadDec_1.c **** *     - UNDERFLOW_CLEAR     - Clear on underflow
 451:.\Generated_Source\PSoC4/QuadDec_1.c **** *     - UNDERFLOW_INVERT    - Invert on underflow
 452:.\Generated_Source\PSoC4/QuadDec_1.c **** *     - UNDERFLOW_NO_CHANGE - No change on underflow
 453:.\Generated_Source\PSoC4/QuadDec_1.c **** *     - PWM_MODE_LEFT       - Setting for left aligned PWM.  Should be combined
 454:.\Generated_Source\PSoC4/QuadDec_1.c **** *                             with up counting mode
 455:.\Generated_Source\PSoC4/QuadDec_1.c **** *     - PWM_MODE_RIGHT      - Setting for right aligned PWM.  Should be combined
 456:.\Generated_Source\PSoC4/QuadDec_1.c **** *                             with down counting mode
 457:.\Generated_Source\PSoC4/QuadDec_1.c **** *     - PWM_MODE_CENTER     - Setting for center aligned PWM.  Should be
 458:.\Generated_Source\PSoC4/QuadDec_1.c **** *                             combined with up/down 0 mode
 459:.\Generated_Source\PSoC4/QuadDec_1.c **** *     - PWM_MODE_ASYM       - Setting for asymmetric PWM.  Should be combined
 460:.\Generated_Source\PSoC4/QuadDec_1.c **** *                             with up/down 1 mode
 461:.\Generated_Source\PSoC4/QuadDec_1.c **** *
 462:.\Generated_Source\PSoC4/QuadDec_1.c **** * Return:
 463:.\Generated_Source\PSoC4/QuadDec_1.c **** *  None
 464:.\Generated_Source\PSoC4/QuadDec_1.c **** *
ARM GAS  C:\DOCUME~1\Chuck\LOCALS~1\Temp\ccRWESA0.s 			page 17


 465:.\Generated_Source\PSoC4/QuadDec_1.c **** *******************************************************************************/
 466:.\Generated_Source\PSoC4/QuadDec_1.c **** void QuadDec_1_SetPWMMode(uint32 modeMask)
 467:.\Generated_Source\PSoC4/QuadDec_1.c **** {
 449              		.loc 1 467 0
 450              		.cfi_startproc
 451 0000 80B5     		push	{r7, lr}
 452              		.cfi_def_cfa_offset 8
 453              		.cfi_offset 7, -8
 454              		.cfi_offset 14, -4
 455 0002 82B0     		sub	sp, sp, #8
 456              		.cfi_def_cfa_offset 16
 457 0004 00AF     		add	r7, sp, #0
 458              		.cfi_def_cfa_register 7
 459 0006 7860     		str	r0, [r7, #4]
 468:.\Generated_Source\PSoC4/QuadDec_1.c ****     QuadDec_1_TRIG_CONTROL2_REG = (modeMask & QuadDec_1_6BIT_MASK);
 460              		.loc 1 468 0
 461 0008 034B     		ldr	r3, .L27
 462 000a 7968     		ldr	r1, [r7, #4]
 463 000c 3F22     		mov	r2, #63
 464 000e 0A40     		and	r2, r1
 465 0010 1A60     		str	r2, [r3]
 469:.\Generated_Source\PSoC4/QuadDec_1.c **** }
 466              		.loc 1 469 0
 467 0012 BD46     		mov	sp, r7
 468 0014 02B0     		add	sp, sp, #8
 469              		@ sp needed
 470 0016 80BD     		pop	{r7, pc}
 471              	.L28:
 472              		.align	2
 473              	.L27:
 474 0018 28010540 		.word	1074069800
 475              		.cfi_endproc
 476              	.LFE8:
 477              		.size	QuadDec_1_SetPWMMode, .-QuadDec_1_SetPWMMode
 478              		.section	.text.QuadDec_1_SetPWMSyncKill,"ax",%progbits
 479              		.align	2
 480              		.global	QuadDec_1_SetPWMSyncKill
 481              		.code	16
 482              		.thumb_func
 483              		.type	QuadDec_1_SetPWMSyncKill, %function
 484              	QuadDec_1_SetPWMSyncKill:
 485              	.LFB9:
 470:.\Generated_Source\PSoC4/QuadDec_1.c **** 
 471:.\Generated_Source\PSoC4/QuadDec_1.c **** 
 472:.\Generated_Source\PSoC4/QuadDec_1.c **** 
 473:.\Generated_Source\PSoC4/QuadDec_1.c **** /*******************************************************************************
 474:.\Generated_Source\PSoC4/QuadDec_1.c **** * Function Name: QuadDec_1_SetPWMSyncKill
 475:.\Generated_Source\PSoC4/QuadDec_1.c **** ********************************************************************************
 476:.\Generated_Source\PSoC4/QuadDec_1.c **** *
 477:.\Generated_Source\PSoC4/QuadDec_1.c **** * Summary:
 478:.\Generated_Source\PSoC4/QuadDec_1.c **** *  Writes the register that controls whether the PWM kill signal (stop input)
 479:.\Generated_Source\PSoC4/QuadDec_1.c **** *  causes asynchronous or synchronous kill operation.  By default the kill
 480:.\Generated_Source\PSoC4/QuadDec_1.c **** *  operation is asynchronous.  This functionality is only applicable to the PWM
 481:.\Generated_Source\PSoC4/QuadDec_1.c **** *  and PWM with dead time modes.
 482:.\Generated_Source\PSoC4/QuadDec_1.c **** *
 483:.\Generated_Source\PSoC4/QuadDec_1.c **** *  For Synchronous mode the kill signal disables both the line and line_n
 484:.\Generated_Source\PSoC4/QuadDec_1.c **** *  signals until the next terminal count.
ARM GAS  C:\DOCUME~1\Chuck\LOCALS~1\Temp\ccRWESA0.s 			page 18


 485:.\Generated_Source\PSoC4/QuadDec_1.c **** *
 486:.\Generated_Source\PSoC4/QuadDec_1.c **** *  For Asynchronous mode the kill signal disables both the line and line_n
 487:.\Generated_Source\PSoC4/QuadDec_1.c **** *  signals when the kill signal is present.  This mode should only be used
 488:.\Generated_Source\PSoC4/QuadDec_1.c **** *  when the kill signal (stop input) is configured in the pass through mode
 489:.\Generated_Source\PSoC4/QuadDec_1.c **** *  (Level sensitive signal).
 490:.\Generated_Source\PSoC4/QuadDec_1.c **** 
 491:.\Generated_Source\PSoC4/QuadDec_1.c **** *
 492:.\Generated_Source\PSoC4/QuadDec_1.c **** * Parameters:
 493:.\Generated_Source\PSoC4/QuadDec_1.c **** *  syncKillEnable
 494:.\Generated_Source\PSoC4/QuadDec_1.c **** *   Values:
 495:.\Generated_Source\PSoC4/QuadDec_1.c **** *     - 0 - Asynchronous
 496:.\Generated_Source\PSoC4/QuadDec_1.c **** *     - 1 - Synchronous
 497:.\Generated_Source\PSoC4/QuadDec_1.c **** *
 498:.\Generated_Source\PSoC4/QuadDec_1.c **** * Return:
 499:.\Generated_Source\PSoC4/QuadDec_1.c **** *  None
 500:.\Generated_Source\PSoC4/QuadDec_1.c **** *
 501:.\Generated_Source\PSoC4/QuadDec_1.c **** *******************************************************************************/
 502:.\Generated_Source\PSoC4/QuadDec_1.c **** void QuadDec_1_SetPWMSyncKill(uint32 syncKillEnable)
 503:.\Generated_Source\PSoC4/QuadDec_1.c **** {
 486              		.loc 1 503 0
 487              		.cfi_startproc
 488 0000 90B5     		push	{r4, r7, lr}
 489              		.cfi_def_cfa_offset 12
 490              		.cfi_offset 4, -12
 491              		.cfi_offset 7, -8
 492              		.cfi_offset 14, -4
 493 0002 85B0     		sub	sp, sp, #20
 494              		.cfi_def_cfa_offset 32
 495 0004 00AF     		add	r7, sp, #0
 496              		.cfi_def_cfa_register 7
 497 0006 7860     		str	r0, [r7, #4]
 504:.\Generated_Source\PSoC4/QuadDec_1.c ****     uint8 enableInterrupts;
 505:.\Generated_Source\PSoC4/QuadDec_1.c **** 
 506:.\Generated_Source\PSoC4/QuadDec_1.c ****     enableInterrupts = CyEnterCriticalSection();
 498              		.loc 1 506 0
 499 0008 3C1C     		mov	r4, r7
 500 000a 0F34     		add	r4, r4, #15
 501 000c FFF7FEFF 		bl	CyEnterCriticalSection
 502 0010 031C     		mov	r3, r0
 503 0012 2370     		strb	r3, [r4]
 507:.\Generated_Source\PSoC4/QuadDec_1.c **** 
 508:.\Generated_Source\PSoC4/QuadDec_1.c ****     QuadDec_1_CONTROL_REG &= (uint32)~QuadDec_1_PWM_SYNC_KILL_MASK;
 504              		.loc 1 508 0
 505 0014 0B4B     		ldr	r3, .L30
 506 0016 0B4A     		ldr	r2, .L30
 507 0018 1268     		ldr	r2, [r2]
 508 001a 0421     		mov	r1, #4
 509 001c 8A43     		bic	r2, r1
 510 001e 1A60     		str	r2, [r3]
 509:.\Generated_Source\PSoC4/QuadDec_1.c ****     QuadDec_1_CONTROL_REG |= ((uint32)((syncKillEnable & QuadDec_1_1BIT_MASK)  <<
 511              		.loc 1 509 0
 512 0020 084B     		ldr	r3, .L30
 513 0022 084A     		ldr	r2, .L30
 514 0024 1168     		ldr	r1, [r2]
 515 0026 7868     		ldr	r0, [r7, #4]
 516 0028 0122     		mov	r2, #1
 517 002a 0240     		and	r2, r0
ARM GAS  C:\DOCUME~1\Chuck\LOCALS~1\Temp\ccRWESA0.s 			page 19


 518 002c 9200     		lsl	r2, r2, #2
 519 002e 0A43     		orr	r2, r1
 520 0030 1A60     		str	r2, [r3]
 510:.\Generated_Source\PSoC4/QuadDec_1.c ****                                                QuadDec_1_PWM_SYNC_KILL_SHIFT));
 511:.\Generated_Source\PSoC4/QuadDec_1.c **** 
 512:.\Generated_Source\PSoC4/QuadDec_1.c ****     CyExitCriticalSection(enableInterrupts);
 521              		.loc 1 512 0
 522 0032 3B1C     		mov	r3, r7
 523 0034 0F33     		add	r3, r3, #15
 524 0036 1B78     		ldrb	r3, [r3]
 525 0038 181C     		mov	r0, r3
 526 003a FFF7FEFF 		bl	CyExitCriticalSection
 513:.\Generated_Source\PSoC4/QuadDec_1.c **** }
 527              		.loc 1 513 0
 528 003e BD46     		mov	sp, r7
 529 0040 05B0     		add	sp, sp, #20
 530              		@ sp needed
 531 0042 90BD     		pop	{r4, r7, pc}
 532              	.L31:
 533              		.align	2
 534              	.L30:
 535 0044 00010540 		.word	1074069760
 536              		.cfi_endproc
 537              	.LFE9:
 538              		.size	QuadDec_1_SetPWMSyncKill, .-QuadDec_1_SetPWMSyncKill
 539              		.section	.text.QuadDec_1_SetPWMStopOnKill,"ax",%progbits
 540              		.align	2
 541              		.global	QuadDec_1_SetPWMStopOnKill
 542              		.code	16
 543              		.thumb_func
 544              		.type	QuadDec_1_SetPWMStopOnKill, %function
 545              	QuadDec_1_SetPWMStopOnKill:
 546              	.LFB10:
 514:.\Generated_Source\PSoC4/QuadDec_1.c **** 
 515:.\Generated_Source\PSoC4/QuadDec_1.c **** 
 516:.\Generated_Source\PSoC4/QuadDec_1.c **** /*******************************************************************************
 517:.\Generated_Source\PSoC4/QuadDec_1.c **** * Function Name: QuadDec_1_SetPWMStopOnKill
 518:.\Generated_Source\PSoC4/QuadDec_1.c **** ********************************************************************************
 519:.\Generated_Source\PSoC4/QuadDec_1.c **** *
 520:.\Generated_Source\PSoC4/QuadDec_1.c **** * Summary:
 521:.\Generated_Source\PSoC4/QuadDec_1.c **** *  Writes the register that controls whether the PWM kill signal (stop input)
 522:.\Generated_Source\PSoC4/QuadDec_1.c **** *  causes the PWM counter to stop.  By default the kill operation does not stop
 523:.\Generated_Source\PSoC4/QuadDec_1.c **** *  the counter.  This functionality is only applicable to the three PWM modes.
 524:.\Generated_Source\PSoC4/QuadDec_1.c **** *
 525:.\Generated_Source\PSoC4/QuadDec_1.c **** *
 526:.\Generated_Source\PSoC4/QuadDec_1.c **** * Parameters:
 527:.\Generated_Source\PSoC4/QuadDec_1.c **** *  stopOnKillEnable
 528:.\Generated_Source\PSoC4/QuadDec_1.c **** *   Values:
 529:.\Generated_Source\PSoC4/QuadDec_1.c **** *     - 0 - Don't stop
 530:.\Generated_Source\PSoC4/QuadDec_1.c **** *     - 1 - Stop
 531:.\Generated_Source\PSoC4/QuadDec_1.c **** *
 532:.\Generated_Source\PSoC4/QuadDec_1.c **** * Return:
 533:.\Generated_Source\PSoC4/QuadDec_1.c **** *  None
 534:.\Generated_Source\PSoC4/QuadDec_1.c **** *
 535:.\Generated_Source\PSoC4/QuadDec_1.c **** *******************************************************************************/
 536:.\Generated_Source\PSoC4/QuadDec_1.c **** void QuadDec_1_SetPWMStopOnKill(uint32 stopOnKillEnable)
 537:.\Generated_Source\PSoC4/QuadDec_1.c **** {
ARM GAS  C:\DOCUME~1\Chuck\LOCALS~1\Temp\ccRWESA0.s 			page 20


 547              		.loc 1 537 0
 548              		.cfi_startproc
 549 0000 90B5     		push	{r4, r7, lr}
 550              		.cfi_def_cfa_offset 12
 551              		.cfi_offset 4, -12
 552              		.cfi_offset 7, -8
 553              		.cfi_offset 14, -4
 554 0002 85B0     		sub	sp, sp, #20
 555              		.cfi_def_cfa_offset 32
 556 0004 00AF     		add	r7, sp, #0
 557              		.cfi_def_cfa_register 7
 558 0006 7860     		str	r0, [r7, #4]
 538:.\Generated_Source\PSoC4/QuadDec_1.c ****     uint8 enableInterrupts;
 539:.\Generated_Source\PSoC4/QuadDec_1.c **** 
 540:.\Generated_Source\PSoC4/QuadDec_1.c ****     enableInterrupts = CyEnterCriticalSection();
 559              		.loc 1 540 0
 560 0008 3C1C     		mov	r4, r7
 561 000a 0F34     		add	r4, r4, #15
 562 000c FFF7FEFF 		bl	CyEnterCriticalSection
 563 0010 031C     		mov	r3, r0
 564 0012 2370     		strb	r3, [r4]
 541:.\Generated_Source\PSoC4/QuadDec_1.c **** 
 542:.\Generated_Source\PSoC4/QuadDec_1.c ****     QuadDec_1_CONTROL_REG &= (uint32)~QuadDec_1_PWM_STOP_KILL_MASK;
 565              		.loc 1 542 0
 566 0014 0B4B     		ldr	r3, .L33
 567 0016 0B4A     		ldr	r2, .L33
 568 0018 1268     		ldr	r2, [r2]
 569 001a 0821     		mov	r1, #8
 570 001c 8A43     		bic	r2, r1
 571 001e 1A60     		str	r2, [r3]
 543:.\Generated_Source\PSoC4/QuadDec_1.c ****     QuadDec_1_CONTROL_REG |= ((uint32)((stopOnKillEnable & QuadDec_1_1BIT_MASK)  <<
 572              		.loc 1 543 0
 573 0020 084B     		ldr	r3, .L33
 574 0022 084A     		ldr	r2, .L33
 575 0024 1168     		ldr	r1, [r2]
 576 0026 7868     		ldr	r0, [r7, #4]
 577 0028 0122     		mov	r2, #1
 578 002a 0240     		and	r2, r0
 579 002c D200     		lsl	r2, r2, #3
 580 002e 0A43     		orr	r2, r1
 581 0030 1A60     		str	r2, [r3]
 544:.\Generated_Source\PSoC4/QuadDec_1.c ****                                                          QuadDec_1_PWM_STOP_KILL_SHIFT));
 545:.\Generated_Source\PSoC4/QuadDec_1.c **** 
 546:.\Generated_Source\PSoC4/QuadDec_1.c ****     CyExitCriticalSection(enableInterrupts);
 582              		.loc 1 546 0
 583 0032 3B1C     		mov	r3, r7
 584 0034 0F33     		add	r3, r3, #15
 585 0036 1B78     		ldrb	r3, [r3]
 586 0038 181C     		mov	r0, r3
 587 003a FFF7FEFF 		bl	CyExitCriticalSection
 547:.\Generated_Source\PSoC4/QuadDec_1.c **** }
 588              		.loc 1 547 0
 589 003e BD46     		mov	sp, r7
 590 0040 05B0     		add	sp, sp, #20
 591              		@ sp needed
 592 0042 90BD     		pop	{r4, r7, pc}
 593              	.L34:
ARM GAS  C:\DOCUME~1\Chuck\LOCALS~1\Temp\ccRWESA0.s 			page 21


 594              		.align	2
 595              	.L33:
 596 0044 00010540 		.word	1074069760
 597              		.cfi_endproc
 598              	.LFE10:
 599              		.size	QuadDec_1_SetPWMStopOnKill, .-QuadDec_1_SetPWMStopOnKill
 600              		.section	.text.QuadDec_1_SetPWMDeadTime,"ax",%progbits
 601              		.align	2
 602              		.global	QuadDec_1_SetPWMDeadTime
 603              		.code	16
 604              		.thumb_func
 605              		.type	QuadDec_1_SetPWMDeadTime, %function
 606              	QuadDec_1_SetPWMDeadTime:
 607              	.LFB11:
 548:.\Generated_Source\PSoC4/QuadDec_1.c **** 
 549:.\Generated_Source\PSoC4/QuadDec_1.c **** 
 550:.\Generated_Source\PSoC4/QuadDec_1.c **** /*******************************************************************************
 551:.\Generated_Source\PSoC4/QuadDec_1.c **** * Function Name: QuadDec_1_SetPWMDeadTime
 552:.\Generated_Source\PSoC4/QuadDec_1.c **** ********************************************************************************
 553:.\Generated_Source\PSoC4/QuadDec_1.c **** *
 554:.\Generated_Source\PSoC4/QuadDec_1.c **** * Summary:
 555:.\Generated_Source\PSoC4/QuadDec_1.c **** *  Writes the dead time control value.  This value delays the rising edge of
 556:.\Generated_Source\PSoC4/QuadDec_1.c **** *  both the line and line_n signals the designated number of cycles resulting
 557:.\Generated_Source\PSoC4/QuadDec_1.c **** *  in both signals being inactive for that many cycles.  This functionality is
 558:.\Generated_Source\PSoC4/QuadDec_1.c **** *  only applicable to the PWM in the dead time mode.
 559:.\Generated_Source\PSoC4/QuadDec_1.c **** 
 560:.\Generated_Source\PSoC4/QuadDec_1.c **** *
 561:.\Generated_Source\PSoC4/QuadDec_1.c **** * Parameters:
 562:.\Generated_Source\PSoC4/QuadDec_1.c **** *  Dead time to insert
 563:.\Generated_Source\PSoC4/QuadDec_1.c **** *   Values: 0 to 255
 564:.\Generated_Source\PSoC4/QuadDec_1.c **** *
 565:.\Generated_Source\PSoC4/QuadDec_1.c **** * Return:
 566:.\Generated_Source\PSoC4/QuadDec_1.c **** *  None
 567:.\Generated_Source\PSoC4/QuadDec_1.c **** *
 568:.\Generated_Source\PSoC4/QuadDec_1.c **** *******************************************************************************/
 569:.\Generated_Source\PSoC4/QuadDec_1.c **** void QuadDec_1_SetPWMDeadTime(uint32 deadTime)
 570:.\Generated_Source\PSoC4/QuadDec_1.c **** {
 608              		.loc 1 570 0
 609              		.cfi_startproc
 610 0000 90B5     		push	{r4, r7, lr}
 611              		.cfi_def_cfa_offset 12
 612              		.cfi_offset 4, -12
 613              		.cfi_offset 7, -8
 614              		.cfi_offset 14, -4
 615 0002 85B0     		sub	sp, sp, #20
 616              		.cfi_def_cfa_offset 32
 617 0004 00AF     		add	r7, sp, #0
 618              		.cfi_def_cfa_register 7
 619 0006 7860     		str	r0, [r7, #4]
 571:.\Generated_Source\PSoC4/QuadDec_1.c ****     uint8 enableInterrupts;
 572:.\Generated_Source\PSoC4/QuadDec_1.c **** 
 573:.\Generated_Source\PSoC4/QuadDec_1.c ****     enableInterrupts = CyEnterCriticalSection();
 620              		.loc 1 573 0
 621 0008 3C1C     		mov	r4, r7
 622 000a 0F34     		add	r4, r4, #15
 623 000c FFF7FEFF 		bl	CyEnterCriticalSection
 624 0010 031C     		mov	r3, r0
ARM GAS  C:\DOCUME~1\Chuck\LOCALS~1\Temp\ccRWESA0.s 			page 22


 625 0012 2370     		strb	r3, [r4]
 574:.\Generated_Source\PSoC4/QuadDec_1.c **** 
 575:.\Generated_Source\PSoC4/QuadDec_1.c ****     QuadDec_1_CONTROL_REG &= (uint32)~QuadDec_1_PRESCALER_MASK;
 626              		.loc 1 575 0
 627 0014 0B4B     		ldr	r3, .L36
 628 0016 0B4A     		ldr	r2, .L36
 629 0018 1168     		ldr	r1, [r2]
 630 001a 0B4A     		ldr	r2, .L36+4
 631 001c 0A40     		and	r2, r1
 632 001e 1A60     		str	r2, [r3]
 576:.\Generated_Source\PSoC4/QuadDec_1.c ****     QuadDec_1_CONTROL_REG |= ((uint32)((deadTime & QuadDec_1_8BIT_MASK) <<
 633              		.loc 1 576 0
 634 0020 084B     		ldr	r3, .L36
 635 0022 084A     		ldr	r2, .L36
 636 0024 1168     		ldr	r1, [r2]
 637 0026 7A68     		ldr	r2, [r7, #4]
 638 0028 1202     		lsl	r2, r2, #8
 639 002a 1204     		lsl	r2, r2, #16
 640 002c 120C     		lsr	r2, r2, #16
 641 002e 0A43     		orr	r2, r1
 642 0030 1A60     		str	r2, [r3]
 577:.\Generated_Source\PSoC4/QuadDec_1.c ****                                                           QuadDec_1_PRESCALER_SHIFT));
 578:.\Generated_Source\PSoC4/QuadDec_1.c **** 
 579:.\Generated_Source\PSoC4/QuadDec_1.c ****     CyExitCriticalSection(enableInterrupts);
 643              		.loc 1 579 0
 644 0032 3B1C     		mov	r3, r7
 645 0034 0F33     		add	r3, r3, #15
 646 0036 1B78     		ldrb	r3, [r3]
 647 0038 181C     		mov	r0, r3
 648 003a FFF7FEFF 		bl	CyExitCriticalSection
 580:.\Generated_Source\PSoC4/QuadDec_1.c **** }
 649              		.loc 1 580 0
 650 003e BD46     		mov	sp, r7
 651 0040 05B0     		add	sp, sp, #20
 652              		@ sp needed
 653 0042 90BD     		pop	{r4, r7, pc}
 654              	.L37:
 655              		.align	2
 656              	.L36:
 657 0044 00010540 		.word	1074069760
 658 0048 FF00FFFF 		.word	-65281
 659              		.cfi_endproc
 660              	.LFE11:
 661              		.size	QuadDec_1_SetPWMDeadTime, .-QuadDec_1_SetPWMDeadTime
 662              		.section	.text.QuadDec_1_SetPWMInvert,"ax",%progbits
 663              		.align	2
 664              		.global	QuadDec_1_SetPWMInvert
 665              		.code	16
 666              		.thumb_func
 667              		.type	QuadDec_1_SetPWMInvert, %function
 668              	QuadDec_1_SetPWMInvert:
 669              	.LFB12:
 581:.\Generated_Source\PSoC4/QuadDec_1.c **** 
 582:.\Generated_Source\PSoC4/QuadDec_1.c **** 
 583:.\Generated_Source\PSoC4/QuadDec_1.c **** /*******************************************************************************
 584:.\Generated_Source\PSoC4/QuadDec_1.c **** * Function Name: QuadDec_1_SetPWMInvert
 585:.\Generated_Source\PSoC4/QuadDec_1.c **** ********************************************************************************
ARM GAS  C:\DOCUME~1\Chuck\LOCALS~1\Temp\ccRWESA0.s 			page 23


 586:.\Generated_Source\PSoC4/QuadDec_1.c **** *
 587:.\Generated_Source\PSoC4/QuadDec_1.c **** * Summary:
 588:.\Generated_Source\PSoC4/QuadDec_1.c **** *  Writes the bits that control whether the line and line_n outputs are
 589:.\Generated_Source\PSoC4/QuadDec_1.c **** *  inverted from their normal output values.  This functionality is only
 590:.\Generated_Source\PSoC4/QuadDec_1.c **** *  applicable to the three PWM modes.
 591:.\Generated_Source\PSoC4/QuadDec_1.c **** *
 592:.\Generated_Source\PSoC4/QuadDec_1.c **** * Parameters:
 593:.\Generated_Source\PSoC4/QuadDec_1.c **** *  mask: Mask of outputs to invert.
 594:.\Generated_Source\PSoC4/QuadDec_1.c **** *   Values:
 595:.\Generated_Source\PSoC4/QuadDec_1.c **** *         - QuadDec_1_INVERT_LINE   - Inverts the line output
 596:.\Generated_Source\PSoC4/QuadDec_1.c **** *         - QuadDec_1_INVERT_LINE_N - Inverts the line_n output
 597:.\Generated_Source\PSoC4/QuadDec_1.c **** *
 598:.\Generated_Source\PSoC4/QuadDec_1.c **** * Return:
 599:.\Generated_Source\PSoC4/QuadDec_1.c **** *  None
 600:.\Generated_Source\PSoC4/QuadDec_1.c **** *
 601:.\Generated_Source\PSoC4/QuadDec_1.c **** *******************************************************************************/
 602:.\Generated_Source\PSoC4/QuadDec_1.c **** void QuadDec_1_SetPWMInvert(uint32 mask)
 603:.\Generated_Source\PSoC4/QuadDec_1.c **** {
 670              		.loc 1 603 0
 671              		.cfi_startproc
 672 0000 90B5     		push	{r4, r7, lr}
 673              		.cfi_def_cfa_offset 12
 674              		.cfi_offset 4, -12
 675              		.cfi_offset 7, -8
 676              		.cfi_offset 14, -4
 677 0002 85B0     		sub	sp, sp, #20
 678              		.cfi_def_cfa_offset 32
 679 0004 00AF     		add	r7, sp, #0
 680              		.cfi_def_cfa_register 7
 681 0006 7860     		str	r0, [r7, #4]
 604:.\Generated_Source\PSoC4/QuadDec_1.c ****     uint8 enableInterrupts;
 605:.\Generated_Source\PSoC4/QuadDec_1.c **** 
 606:.\Generated_Source\PSoC4/QuadDec_1.c ****     enableInterrupts = CyEnterCriticalSection();
 682              		.loc 1 606 0
 683 0008 3C1C     		mov	r4, r7
 684 000a 0F34     		add	r4, r4, #15
 685 000c FFF7FEFF 		bl	CyEnterCriticalSection
 686 0010 031C     		mov	r3, r0
 687 0012 2370     		strb	r3, [r4]
 607:.\Generated_Source\PSoC4/QuadDec_1.c **** 
 608:.\Generated_Source\PSoC4/QuadDec_1.c ****     QuadDec_1_CONTROL_REG &= (uint32)~QuadDec_1_INV_OUT_MASK;
 688              		.loc 1 608 0
 689 0014 0A4B     		ldr	r3, .L39
 690 0016 0A4A     		ldr	r2, .L39
 691 0018 1168     		ldr	r1, [r2]
 692 001a 0A4A     		ldr	r2, .L39+4
 693 001c 0A40     		and	r2, r1
 694 001e 1A60     		str	r2, [r3]
 609:.\Generated_Source\PSoC4/QuadDec_1.c ****     QuadDec_1_CONTROL_REG |= mask;
 695              		.loc 1 609 0
 696 0020 074B     		ldr	r3, .L39
 697 0022 074A     		ldr	r2, .L39
 698 0024 1168     		ldr	r1, [r2]
 699 0026 7A68     		ldr	r2, [r7, #4]
 700 0028 0A43     		orr	r2, r1
 701 002a 1A60     		str	r2, [r3]
 610:.\Generated_Source\PSoC4/QuadDec_1.c **** 
ARM GAS  C:\DOCUME~1\Chuck\LOCALS~1\Temp\ccRWESA0.s 			page 24


 611:.\Generated_Source\PSoC4/QuadDec_1.c ****     CyExitCriticalSection(enableInterrupts);
 702              		.loc 1 611 0
 703 002c 3B1C     		mov	r3, r7
 704 002e 0F33     		add	r3, r3, #15
 705 0030 1B78     		ldrb	r3, [r3]
 706 0032 181C     		mov	r0, r3
 707 0034 FFF7FEFF 		bl	CyExitCriticalSection
 612:.\Generated_Source\PSoC4/QuadDec_1.c **** }
 708              		.loc 1 612 0
 709 0038 BD46     		mov	sp, r7
 710 003a 05B0     		add	sp, sp, #20
 711              		@ sp needed
 712 003c 90BD     		pop	{r4, r7, pc}
 713              	.L40:
 714 003e C046     		.align	2
 715              	.L39:
 716 0040 00010540 		.word	1074069760
 717 0044 FFFFCFFF 		.word	-3145729
 718              		.cfi_endproc
 719              	.LFE12:
 720              		.size	QuadDec_1_SetPWMInvert, .-QuadDec_1_SetPWMInvert
 721              		.section	.text.QuadDec_1_WriteCounter,"ax",%progbits
 722              		.align	2
 723              		.global	QuadDec_1_WriteCounter
 724              		.code	16
 725              		.thumb_func
 726              		.type	QuadDec_1_WriteCounter, %function
 727              	QuadDec_1_WriteCounter:
 728              	.LFB13:
 613:.\Generated_Source\PSoC4/QuadDec_1.c **** 
 614:.\Generated_Source\PSoC4/QuadDec_1.c **** 
 615:.\Generated_Source\PSoC4/QuadDec_1.c **** 
 616:.\Generated_Source\PSoC4/QuadDec_1.c **** /*******************************************************************************
 617:.\Generated_Source\PSoC4/QuadDec_1.c **** * Function Name: QuadDec_1_WriteCounter
 618:.\Generated_Source\PSoC4/QuadDec_1.c **** ********************************************************************************
 619:.\Generated_Source\PSoC4/QuadDec_1.c **** *
 620:.\Generated_Source\PSoC4/QuadDec_1.c **** * Summary:
 621:.\Generated_Source\PSoC4/QuadDec_1.c **** *  Writes a new 16bit counter value directly into the counter register, thus
 622:.\Generated_Source\PSoC4/QuadDec_1.c **** *  setting the counter (not the period) to the value written. It is not
 623:.\Generated_Source\PSoC4/QuadDec_1.c **** *  advised to write to this field when the counter is running.
 624:.\Generated_Source\PSoC4/QuadDec_1.c **** *
 625:.\Generated_Source\PSoC4/QuadDec_1.c **** * Parameters:
 626:.\Generated_Source\PSoC4/QuadDec_1.c **** *  count: value to write
 627:.\Generated_Source\PSoC4/QuadDec_1.c **** *
 628:.\Generated_Source\PSoC4/QuadDec_1.c **** * Return:
 629:.\Generated_Source\PSoC4/QuadDec_1.c **** *  None
 630:.\Generated_Source\PSoC4/QuadDec_1.c **** *
 631:.\Generated_Source\PSoC4/QuadDec_1.c **** *******************************************************************************/
 632:.\Generated_Source\PSoC4/QuadDec_1.c **** void QuadDec_1_WriteCounter(uint32 count)
 633:.\Generated_Source\PSoC4/QuadDec_1.c **** {
 729              		.loc 1 633 0
 730              		.cfi_startproc
 731 0000 80B5     		push	{r7, lr}
 732              		.cfi_def_cfa_offset 8
 733              		.cfi_offset 7, -8
 734              		.cfi_offset 14, -4
 735 0002 82B0     		sub	sp, sp, #8
ARM GAS  C:\DOCUME~1\Chuck\LOCALS~1\Temp\ccRWESA0.s 			page 25


 736              		.cfi_def_cfa_offset 16
 737 0004 00AF     		add	r7, sp, #0
 738              		.cfi_def_cfa_register 7
 739 0006 7860     		str	r0, [r7, #4]
 634:.\Generated_Source\PSoC4/QuadDec_1.c ****     QuadDec_1_COUNTER_REG = (count & QuadDec_1_16BIT_MASK);
 740              		.loc 1 634 0
 741 0008 034B     		ldr	r3, .L42
 742 000a 7A68     		ldr	r2, [r7, #4]
 743 000c 1204     		lsl	r2, r2, #16
 744 000e 120C     		lsr	r2, r2, #16
 745 0010 1A60     		str	r2, [r3]
 635:.\Generated_Source\PSoC4/QuadDec_1.c **** }
 746              		.loc 1 635 0
 747 0012 BD46     		mov	sp, r7
 748 0014 02B0     		add	sp, sp, #8
 749              		@ sp needed
 750 0016 80BD     		pop	{r7, pc}
 751              	.L43:
 752              		.align	2
 753              	.L42:
 754 0018 08010540 		.word	1074069768
 755              		.cfi_endproc
 756              	.LFE13:
 757              		.size	QuadDec_1_WriteCounter, .-QuadDec_1_WriteCounter
 758              		.section	.text.QuadDec_1_ReadCounter,"ax",%progbits
 759              		.align	2
 760              		.global	QuadDec_1_ReadCounter
 761              		.code	16
 762              		.thumb_func
 763              		.type	QuadDec_1_ReadCounter, %function
 764              	QuadDec_1_ReadCounter:
 765              	.LFB14:
 636:.\Generated_Source\PSoC4/QuadDec_1.c **** 
 637:.\Generated_Source\PSoC4/QuadDec_1.c **** 
 638:.\Generated_Source\PSoC4/QuadDec_1.c **** /*******************************************************************************
 639:.\Generated_Source\PSoC4/QuadDec_1.c **** * Function Name: QuadDec_1_ReadCounter
 640:.\Generated_Source\PSoC4/QuadDec_1.c **** ********************************************************************************
 641:.\Generated_Source\PSoC4/QuadDec_1.c **** *
 642:.\Generated_Source\PSoC4/QuadDec_1.c **** * Summary:
 643:.\Generated_Source\PSoC4/QuadDec_1.c **** *  Reads the current counter value.
 644:.\Generated_Source\PSoC4/QuadDec_1.c **** *
 645:.\Generated_Source\PSoC4/QuadDec_1.c **** * Parameters:
 646:.\Generated_Source\PSoC4/QuadDec_1.c **** *  None
 647:.\Generated_Source\PSoC4/QuadDec_1.c **** *
 648:.\Generated_Source\PSoC4/QuadDec_1.c **** * Return:
 649:.\Generated_Source\PSoC4/QuadDec_1.c **** *  Current counter value
 650:.\Generated_Source\PSoC4/QuadDec_1.c **** *
 651:.\Generated_Source\PSoC4/QuadDec_1.c **** *******************************************************************************/
 652:.\Generated_Source\PSoC4/QuadDec_1.c **** uint32 QuadDec_1_ReadCounter(void)
 653:.\Generated_Source\PSoC4/QuadDec_1.c **** {
 766              		.loc 1 653 0
 767              		.cfi_startproc
 768 0000 80B5     		push	{r7, lr}
 769              		.cfi_def_cfa_offset 8
 770              		.cfi_offset 7, -8
 771              		.cfi_offset 14, -4
 772 0002 00AF     		add	r7, sp, #0
ARM GAS  C:\DOCUME~1\Chuck\LOCALS~1\Temp\ccRWESA0.s 			page 26


 773              		.cfi_def_cfa_register 7
 654:.\Generated_Source\PSoC4/QuadDec_1.c ****     return (QuadDec_1_COUNTER_REG & QuadDec_1_16BIT_MASK);
 774              		.loc 1 654 0
 775 0004 034B     		ldr	r3, .L46
 776 0006 1B68     		ldr	r3, [r3]
 777 0008 1B04     		lsl	r3, r3, #16
 778 000a 1B0C     		lsr	r3, r3, #16
 655:.\Generated_Source\PSoC4/QuadDec_1.c **** }
 779              		.loc 1 655 0
 780 000c 181C     		mov	r0, r3
 781 000e BD46     		mov	sp, r7
 782              		@ sp needed
 783 0010 80BD     		pop	{r7, pc}
 784              	.L47:
 785 0012 C046     		.align	2
 786              	.L46:
 787 0014 08010540 		.word	1074069768
 788              		.cfi_endproc
 789              	.LFE14:
 790              		.size	QuadDec_1_ReadCounter, .-QuadDec_1_ReadCounter
 791              		.section	.text.QuadDec_1_SetCounterMode,"ax",%progbits
 792              		.align	2
 793              		.global	QuadDec_1_SetCounterMode
 794              		.code	16
 795              		.thumb_func
 796              		.type	QuadDec_1_SetCounterMode, %function
 797              	QuadDec_1_SetCounterMode:
 798              	.LFB15:
 656:.\Generated_Source\PSoC4/QuadDec_1.c **** 
 657:.\Generated_Source\PSoC4/QuadDec_1.c **** 
 658:.\Generated_Source\PSoC4/QuadDec_1.c **** /*******************************************************************************
 659:.\Generated_Source\PSoC4/QuadDec_1.c **** * Function Name: QuadDec_1_SetCounterMode
 660:.\Generated_Source\PSoC4/QuadDec_1.c **** ********************************************************************************
 661:.\Generated_Source\PSoC4/QuadDec_1.c **** *
 662:.\Generated_Source\PSoC4/QuadDec_1.c **** * Summary:
 663:.\Generated_Source\PSoC4/QuadDec_1.c **** *  Sets the counter mode.  Applicable to all modes except Quadrature Decoder
 664:.\Generated_Source\PSoC4/QuadDec_1.c **** *  and the PWM with a pseudo random output.
 665:.\Generated_Source\PSoC4/QuadDec_1.c **** *
 666:.\Generated_Source\PSoC4/QuadDec_1.c **** * Parameters:
 667:.\Generated_Source\PSoC4/QuadDec_1.c **** *  counterMode: Enumerated counter type values
 668:.\Generated_Source\PSoC4/QuadDec_1.c **** *   Values:
 669:.\Generated_Source\PSoC4/QuadDec_1.c **** *     - QuadDec_1_COUNT_UP       - Counts up
 670:.\Generated_Source\PSoC4/QuadDec_1.c **** *     - QuadDec_1_COUNT_DOWN     - Counts down
 671:.\Generated_Source\PSoC4/QuadDec_1.c **** *     - QuadDec_1_COUNT_UPDOWN0  - Counts up and down. Terminal count
 672:.\Generated_Source\PSoC4/QuadDec_1.c **** *                                         generated when counter reaches 0
 673:.\Generated_Source\PSoC4/QuadDec_1.c **** *     - QuadDec_1_COUNT_UPDOWN1  - Counts up and down. Terminal count
 674:.\Generated_Source\PSoC4/QuadDec_1.c **** *                                         generated both when counter reaches 0
 675:.\Generated_Source\PSoC4/QuadDec_1.c **** *                                         and period
 676:.\Generated_Source\PSoC4/QuadDec_1.c **** *
 677:.\Generated_Source\PSoC4/QuadDec_1.c **** * Return:
 678:.\Generated_Source\PSoC4/QuadDec_1.c **** *  None
 679:.\Generated_Source\PSoC4/QuadDec_1.c **** *
 680:.\Generated_Source\PSoC4/QuadDec_1.c **** *******************************************************************************/
 681:.\Generated_Source\PSoC4/QuadDec_1.c **** void QuadDec_1_SetCounterMode(uint32 counterMode)
 682:.\Generated_Source\PSoC4/QuadDec_1.c **** {
 799              		.loc 1 682 0
 800              		.cfi_startproc
ARM GAS  C:\DOCUME~1\Chuck\LOCALS~1\Temp\ccRWESA0.s 			page 27


 801 0000 90B5     		push	{r4, r7, lr}
 802              		.cfi_def_cfa_offset 12
 803              		.cfi_offset 4, -12
 804              		.cfi_offset 7, -8
 805              		.cfi_offset 14, -4
 806 0002 85B0     		sub	sp, sp, #20
 807              		.cfi_def_cfa_offset 32
 808 0004 00AF     		add	r7, sp, #0
 809              		.cfi_def_cfa_register 7
 810 0006 7860     		str	r0, [r7, #4]
 683:.\Generated_Source\PSoC4/QuadDec_1.c ****     uint8 enableInterrupts;
 684:.\Generated_Source\PSoC4/QuadDec_1.c **** 
 685:.\Generated_Source\PSoC4/QuadDec_1.c ****     enableInterrupts = CyEnterCriticalSection();
 811              		.loc 1 685 0
 812 0008 3C1C     		mov	r4, r7
 813 000a 0F34     		add	r4, r4, #15
 814 000c FFF7FEFF 		bl	CyEnterCriticalSection
 815 0010 031C     		mov	r3, r0
 816 0012 2370     		strb	r3, [r4]
 686:.\Generated_Source\PSoC4/QuadDec_1.c **** 
 687:.\Generated_Source\PSoC4/QuadDec_1.c ****     QuadDec_1_CONTROL_REG &= (uint32)~QuadDec_1_UPDOWN_MASK;
 817              		.loc 1 687 0
 818 0014 0A4B     		ldr	r3, .L49
 819 0016 0A4A     		ldr	r2, .L49
 820 0018 1168     		ldr	r1, [r2]
 821 001a 0A4A     		ldr	r2, .L49+4
 822 001c 0A40     		and	r2, r1
 823 001e 1A60     		str	r2, [r3]
 688:.\Generated_Source\PSoC4/QuadDec_1.c ****     QuadDec_1_CONTROL_REG |= counterMode;
 824              		.loc 1 688 0
 825 0020 074B     		ldr	r3, .L49
 826 0022 074A     		ldr	r2, .L49
 827 0024 1168     		ldr	r1, [r2]
 828 0026 7A68     		ldr	r2, [r7, #4]
 829 0028 0A43     		orr	r2, r1
 830 002a 1A60     		str	r2, [r3]
 689:.\Generated_Source\PSoC4/QuadDec_1.c **** 
 690:.\Generated_Source\PSoC4/QuadDec_1.c ****     CyExitCriticalSection(enableInterrupts);
 831              		.loc 1 690 0
 832 002c 3B1C     		mov	r3, r7
 833 002e 0F33     		add	r3, r3, #15
 834 0030 1B78     		ldrb	r3, [r3]
 835 0032 181C     		mov	r0, r3
 836 0034 FFF7FEFF 		bl	CyExitCriticalSection
 691:.\Generated_Source\PSoC4/QuadDec_1.c **** }
 837              		.loc 1 691 0
 838 0038 BD46     		mov	sp, r7
 839 003a 05B0     		add	sp, sp, #20
 840              		@ sp needed
 841 003c 90BD     		pop	{r4, r7, pc}
 842              	.L50:
 843 003e C046     		.align	2
 844              	.L49:
 845 0040 00010540 		.word	1074069760
 846 0044 FFFFFCFF 		.word	-196609
 847              		.cfi_endproc
 848              	.LFE15:
ARM GAS  C:\DOCUME~1\Chuck\LOCALS~1\Temp\ccRWESA0.s 			page 28


 849              		.size	QuadDec_1_SetCounterMode, .-QuadDec_1_SetCounterMode
 850              		.section	.text.QuadDec_1_WritePeriod,"ax",%progbits
 851              		.align	2
 852              		.global	QuadDec_1_WritePeriod
 853              		.code	16
 854              		.thumb_func
 855              		.type	QuadDec_1_WritePeriod, %function
 856              	QuadDec_1_WritePeriod:
 857              	.LFB16:
 692:.\Generated_Source\PSoC4/QuadDec_1.c **** 
 693:.\Generated_Source\PSoC4/QuadDec_1.c **** 
 694:.\Generated_Source\PSoC4/QuadDec_1.c **** /*******************************************************************************
 695:.\Generated_Source\PSoC4/QuadDec_1.c **** * Function Name: QuadDec_1_WritePeriod
 696:.\Generated_Source\PSoC4/QuadDec_1.c **** ********************************************************************************
 697:.\Generated_Source\PSoC4/QuadDec_1.c **** *
 698:.\Generated_Source\PSoC4/QuadDec_1.c **** * Summary:
 699:.\Generated_Source\PSoC4/QuadDec_1.c **** *  Writes the 16 bit period register with the new period value.
 700:.\Generated_Source\PSoC4/QuadDec_1.c **** *  To cause the counter to count for N cycles this register should be written
 701:.\Generated_Source\PSoC4/QuadDec_1.c **** *  with N-1 (counts from 0 to period inclusive).
 702:.\Generated_Source\PSoC4/QuadDec_1.c **** *
 703:.\Generated_Source\PSoC4/QuadDec_1.c **** * Parameters:
 704:.\Generated_Source\PSoC4/QuadDec_1.c **** *  period: Period value
 705:.\Generated_Source\PSoC4/QuadDec_1.c **** *
 706:.\Generated_Source\PSoC4/QuadDec_1.c **** * Return:
 707:.\Generated_Source\PSoC4/QuadDec_1.c **** *  None
 708:.\Generated_Source\PSoC4/QuadDec_1.c **** *
 709:.\Generated_Source\PSoC4/QuadDec_1.c **** *******************************************************************************/
 710:.\Generated_Source\PSoC4/QuadDec_1.c **** void QuadDec_1_WritePeriod(uint32 period)
 711:.\Generated_Source\PSoC4/QuadDec_1.c **** {
 858              		.loc 1 711 0
 859              		.cfi_startproc
 860 0000 80B5     		push	{r7, lr}
 861              		.cfi_def_cfa_offset 8
 862              		.cfi_offset 7, -8
 863              		.cfi_offset 14, -4
 864 0002 82B0     		sub	sp, sp, #8
 865              		.cfi_def_cfa_offset 16
 866 0004 00AF     		add	r7, sp, #0
 867              		.cfi_def_cfa_register 7
 868 0006 7860     		str	r0, [r7, #4]
 712:.\Generated_Source\PSoC4/QuadDec_1.c ****     QuadDec_1_PERIOD_REG = (period & QuadDec_1_16BIT_MASK);
 869              		.loc 1 712 0
 870 0008 034B     		ldr	r3, .L52
 871 000a 7A68     		ldr	r2, [r7, #4]
 872 000c 1204     		lsl	r2, r2, #16
 873 000e 120C     		lsr	r2, r2, #16
 874 0010 1A60     		str	r2, [r3]
 713:.\Generated_Source\PSoC4/QuadDec_1.c **** }
 875              		.loc 1 713 0
 876 0012 BD46     		mov	sp, r7
 877 0014 02B0     		add	sp, sp, #8
 878              		@ sp needed
 879 0016 80BD     		pop	{r7, pc}
 880              	.L53:
 881              		.align	2
 882              	.L52:
 883 0018 14010540 		.word	1074069780
ARM GAS  C:\DOCUME~1\Chuck\LOCALS~1\Temp\ccRWESA0.s 			page 29


 884              		.cfi_endproc
 885              	.LFE16:
 886              		.size	QuadDec_1_WritePeriod, .-QuadDec_1_WritePeriod
 887              		.section	.text.QuadDec_1_ReadPeriod,"ax",%progbits
 888              		.align	2
 889              		.global	QuadDec_1_ReadPeriod
 890              		.code	16
 891              		.thumb_func
 892              		.type	QuadDec_1_ReadPeriod, %function
 893              	QuadDec_1_ReadPeriod:
 894              	.LFB17:
 714:.\Generated_Source\PSoC4/QuadDec_1.c **** 
 715:.\Generated_Source\PSoC4/QuadDec_1.c **** 
 716:.\Generated_Source\PSoC4/QuadDec_1.c **** /*******************************************************************************
 717:.\Generated_Source\PSoC4/QuadDec_1.c **** * Function Name: QuadDec_1_ReadPeriod
 718:.\Generated_Source\PSoC4/QuadDec_1.c **** ********************************************************************************
 719:.\Generated_Source\PSoC4/QuadDec_1.c **** *
 720:.\Generated_Source\PSoC4/QuadDec_1.c **** * Summary:
 721:.\Generated_Source\PSoC4/QuadDec_1.c **** *  Reads the 16 bit period register.
 722:.\Generated_Source\PSoC4/QuadDec_1.c **** *
 723:.\Generated_Source\PSoC4/QuadDec_1.c **** * Parameters:
 724:.\Generated_Source\PSoC4/QuadDec_1.c **** *  None
 725:.\Generated_Source\PSoC4/QuadDec_1.c **** *
 726:.\Generated_Source\PSoC4/QuadDec_1.c **** * Return:
 727:.\Generated_Source\PSoC4/QuadDec_1.c **** *  Period value
 728:.\Generated_Source\PSoC4/QuadDec_1.c **** *
 729:.\Generated_Source\PSoC4/QuadDec_1.c **** *******************************************************************************/
 730:.\Generated_Source\PSoC4/QuadDec_1.c **** uint32 QuadDec_1_ReadPeriod(void)
 731:.\Generated_Source\PSoC4/QuadDec_1.c **** {
 895              		.loc 1 731 0
 896              		.cfi_startproc
 897 0000 80B5     		push	{r7, lr}
 898              		.cfi_def_cfa_offset 8
 899              		.cfi_offset 7, -8
 900              		.cfi_offset 14, -4
 901 0002 00AF     		add	r7, sp, #0
 902              		.cfi_def_cfa_register 7
 732:.\Generated_Source\PSoC4/QuadDec_1.c ****     return (QuadDec_1_PERIOD_REG & QuadDec_1_16BIT_MASK);
 903              		.loc 1 732 0
 904 0004 034B     		ldr	r3, .L56
 905 0006 1B68     		ldr	r3, [r3]
 906 0008 1B04     		lsl	r3, r3, #16
 907 000a 1B0C     		lsr	r3, r3, #16
 733:.\Generated_Source\PSoC4/QuadDec_1.c **** }
 908              		.loc 1 733 0
 909 000c 181C     		mov	r0, r3
 910 000e BD46     		mov	sp, r7
 911              		@ sp needed
 912 0010 80BD     		pop	{r7, pc}
 913              	.L57:
 914 0012 C046     		.align	2
 915              	.L56:
 916 0014 14010540 		.word	1074069780
 917              		.cfi_endproc
 918              	.LFE17:
 919              		.size	QuadDec_1_ReadPeriod, .-QuadDec_1_ReadPeriod
 920              		.section	.text.QuadDec_1_SetCompareSwap,"ax",%progbits
ARM GAS  C:\DOCUME~1\Chuck\LOCALS~1\Temp\ccRWESA0.s 			page 30


 921              		.align	2
 922              		.global	QuadDec_1_SetCompareSwap
 923              		.code	16
 924              		.thumb_func
 925              		.type	QuadDec_1_SetCompareSwap, %function
 926              	QuadDec_1_SetCompareSwap:
 927              	.LFB18:
 734:.\Generated_Source\PSoC4/QuadDec_1.c **** 
 735:.\Generated_Source\PSoC4/QuadDec_1.c **** 
 736:.\Generated_Source\PSoC4/QuadDec_1.c **** /*******************************************************************************
 737:.\Generated_Source\PSoC4/QuadDec_1.c **** * Function Name: QuadDec_1_SetCompareSwap
 738:.\Generated_Source\PSoC4/QuadDec_1.c **** ********************************************************************************
 739:.\Generated_Source\PSoC4/QuadDec_1.c **** *
 740:.\Generated_Source\PSoC4/QuadDec_1.c **** * Summary:
 741:.\Generated_Source\PSoC4/QuadDec_1.c **** *  Writes the register that controls whether the compare registers are
 742:.\Generated_Source\PSoC4/QuadDec_1.c **** *  swapped. When enabled in the Timer/Counter mode(without capture) the swap
 743:.\Generated_Source\PSoC4/QuadDec_1.c **** *  occurs at a TC event. In the PWM mode the swap occurs at the next TC event
 744:.\Generated_Source\PSoC4/QuadDec_1.c **** *  following a hardware switch event.
 745:.\Generated_Source\PSoC4/QuadDec_1.c **** *
 746:.\Generated_Source\PSoC4/QuadDec_1.c **** * Parameters:
 747:.\Generated_Source\PSoC4/QuadDec_1.c **** *  swapEnable
 748:.\Generated_Source\PSoC4/QuadDec_1.c **** *   Values:
 749:.\Generated_Source\PSoC4/QuadDec_1.c **** *     - 0 - Disable swap
 750:.\Generated_Source\PSoC4/QuadDec_1.c **** *     - 1 - Enable swap
 751:.\Generated_Source\PSoC4/QuadDec_1.c **** *
 752:.\Generated_Source\PSoC4/QuadDec_1.c **** * Return:
 753:.\Generated_Source\PSoC4/QuadDec_1.c **** *  None
 754:.\Generated_Source\PSoC4/QuadDec_1.c **** *
 755:.\Generated_Source\PSoC4/QuadDec_1.c **** *******************************************************************************/
 756:.\Generated_Source\PSoC4/QuadDec_1.c **** void QuadDec_1_SetCompareSwap(uint32 swapEnable)
 757:.\Generated_Source\PSoC4/QuadDec_1.c **** {
 928              		.loc 1 757 0
 929              		.cfi_startproc
 930 0000 90B5     		push	{r4, r7, lr}
 931              		.cfi_def_cfa_offset 12
 932              		.cfi_offset 4, -12
 933              		.cfi_offset 7, -8
 934              		.cfi_offset 14, -4
 935 0002 85B0     		sub	sp, sp, #20
 936              		.cfi_def_cfa_offset 32
 937 0004 00AF     		add	r7, sp, #0
 938              		.cfi_def_cfa_register 7
 939 0006 7860     		str	r0, [r7, #4]
 758:.\Generated_Source\PSoC4/QuadDec_1.c ****     uint8 enableInterrupts;
 759:.\Generated_Source\PSoC4/QuadDec_1.c **** 
 760:.\Generated_Source\PSoC4/QuadDec_1.c ****     enableInterrupts = CyEnterCriticalSection();
 940              		.loc 1 760 0
 941 0008 3C1C     		mov	r4, r7
 942 000a 0F34     		add	r4, r4, #15
 943 000c FFF7FEFF 		bl	CyEnterCriticalSection
 944 0010 031C     		mov	r3, r0
 945 0012 2370     		strb	r3, [r4]
 761:.\Generated_Source\PSoC4/QuadDec_1.c **** 
 762:.\Generated_Source\PSoC4/QuadDec_1.c ****     QuadDec_1_CONTROL_REG &= (uint32)~QuadDec_1_RELOAD_CC_MASK;
 946              		.loc 1 762 0
 947 0014 0B4B     		ldr	r3, .L59
 948 0016 0B4A     		ldr	r2, .L59
ARM GAS  C:\DOCUME~1\Chuck\LOCALS~1\Temp\ccRWESA0.s 			page 31


 949 0018 1268     		ldr	r2, [r2]
 950 001a 0121     		mov	r1, #1
 951 001c 8A43     		bic	r2, r1
 952 001e 1A60     		str	r2, [r3]
 763:.\Generated_Source\PSoC4/QuadDec_1.c ****     QuadDec_1_CONTROL_REG |= (swapEnable & QuadDec_1_1BIT_MASK);
 953              		.loc 1 763 0
 954 0020 084B     		ldr	r3, .L59
 955 0022 084A     		ldr	r2, .L59
 956 0024 1168     		ldr	r1, [r2]
 957 0026 7868     		ldr	r0, [r7, #4]
 958 0028 0122     		mov	r2, #1
 959 002a 0240     		and	r2, r0
 960 002c 0A43     		orr	r2, r1
 961 002e 1A60     		str	r2, [r3]
 764:.\Generated_Source\PSoC4/QuadDec_1.c **** 
 765:.\Generated_Source\PSoC4/QuadDec_1.c ****     CyExitCriticalSection(enableInterrupts);
 962              		.loc 1 765 0
 963 0030 3B1C     		mov	r3, r7
 964 0032 0F33     		add	r3, r3, #15
 965 0034 1B78     		ldrb	r3, [r3]
 966 0036 181C     		mov	r0, r3
 967 0038 FFF7FEFF 		bl	CyExitCriticalSection
 766:.\Generated_Source\PSoC4/QuadDec_1.c **** }
 968              		.loc 1 766 0
 969 003c BD46     		mov	sp, r7
 970 003e 05B0     		add	sp, sp, #20
 971              		@ sp needed
 972 0040 90BD     		pop	{r4, r7, pc}
 973              	.L60:
 974 0042 C046     		.align	2
 975              	.L59:
 976 0044 00010540 		.word	1074069760
 977              		.cfi_endproc
 978              	.LFE18:
 979              		.size	QuadDec_1_SetCompareSwap, .-QuadDec_1_SetCompareSwap
 980              		.section	.text.QuadDec_1_WritePeriodBuf,"ax",%progbits
 981              		.align	2
 982              		.global	QuadDec_1_WritePeriodBuf
 983              		.code	16
 984              		.thumb_func
 985              		.type	QuadDec_1_WritePeriodBuf, %function
 986              	QuadDec_1_WritePeriodBuf:
 987              	.LFB19:
 767:.\Generated_Source\PSoC4/QuadDec_1.c **** 
 768:.\Generated_Source\PSoC4/QuadDec_1.c **** 
 769:.\Generated_Source\PSoC4/QuadDec_1.c **** /*******************************************************************************
 770:.\Generated_Source\PSoC4/QuadDec_1.c **** * Function Name: QuadDec_1_WritePeriodBuf
 771:.\Generated_Source\PSoC4/QuadDec_1.c **** ********************************************************************************
 772:.\Generated_Source\PSoC4/QuadDec_1.c **** *
 773:.\Generated_Source\PSoC4/QuadDec_1.c **** * Summary:
 774:.\Generated_Source\PSoC4/QuadDec_1.c **** *  Writes the 16 bit period buf register with the new period value.
 775:.\Generated_Source\PSoC4/QuadDec_1.c **** *
 776:.\Generated_Source\PSoC4/QuadDec_1.c **** * Parameters:
 777:.\Generated_Source\PSoC4/QuadDec_1.c **** *  periodBuf: Period value
 778:.\Generated_Source\PSoC4/QuadDec_1.c **** *
 779:.\Generated_Source\PSoC4/QuadDec_1.c **** * Return:
 780:.\Generated_Source\PSoC4/QuadDec_1.c **** *  None
ARM GAS  C:\DOCUME~1\Chuck\LOCALS~1\Temp\ccRWESA0.s 			page 32


 781:.\Generated_Source\PSoC4/QuadDec_1.c **** *
 782:.\Generated_Source\PSoC4/QuadDec_1.c **** *******************************************************************************/
 783:.\Generated_Source\PSoC4/QuadDec_1.c **** void QuadDec_1_WritePeriodBuf(uint32 periodBuf)
 784:.\Generated_Source\PSoC4/QuadDec_1.c **** {
 988              		.loc 1 784 0
 989              		.cfi_startproc
 990 0000 80B5     		push	{r7, lr}
 991              		.cfi_def_cfa_offset 8
 992              		.cfi_offset 7, -8
 993              		.cfi_offset 14, -4
 994 0002 82B0     		sub	sp, sp, #8
 995              		.cfi_def_cfa_offset 16
 996 0004 00AF     		add	r7, sp, #0
 997              		.cfi_def_cfa_register 7
 998 0006 7860     		str	r0, [r7, #4]
 785:.\Generated_Source\PSoC4/QuadDec_1.c ****     QuadDec_1_PERIOD_BUF_REG = (periodBuf & QuadDec_1_16BIT_MASK);
 999              		.loc 1 785 0
 1000 0008 034B     		ldr	r3, .L62
 1001 000a 7A68     		ldr	r2, [r7, #4]
 1002 000c 1204     		lsl	r2, r2, #16
 1003 000e 120C     		lsr	r2, r2, #16
 1004 0010 1A60     		str	r2, [r3]
 786:.\Generated_Source\PSoC4/QuadDec_1.c **** }
 1005              		.loc 1 786 0
 1006 0012 BD46     		mov	sp, r7
 1007 0014 02B0     		add	sp, sp, #8
 1008              		@ sp needed
 1009 0016 80BD     		pop	{r7, pc}
 1010              	.L63:
 1011              		.align	2
 1012              	.L62:
 1013 0018 18010540 		.word	1074069784
 1014              		.cfi_endproc
 1015              	.LFE19:
 1016              		.size	QuadDec_1_WritePeriodBuf, .-QuadDec_1_WritePeriodBuf
 1017              		.section	.text.QuadDec_1_ReadPeriodBuf,"ax",%progbits
 1018              		.align	2
 1019              		.global	QuadDec_1_ReadPeriodBuf
 1020              		.code	16
 1021              		.thumb_func
 1022              		.type	QuadDec_1_ReadPeriodBuf, %function
 1023              	QuadDec_1_ReadPeriodBuf:
 1024              	.LFB20:
 787:.\Generated_Source\PSoC4/QuadDec_1.c **** 
 788:.\Generated_Source\PSoC4/QuadDec_1.c **** 
 789:.\Generated_Source\PSoC4/QuadDec_1.c **** /*******************************************************************************
 790:.\Generated_Source\PSoC4/QuadDec_1.c **** * Function Name: QuadDec_1_ReadPeriodBuf
 791:.\Generated_Source\PSoC4/QuadDec_1.c **** ********************************************************************************
 792:.\Generated_Source\PSoC4/QuadDec_1.c **** *
 793:.\Generated_Source\PSoC4/QuadDec_1.c **** * Summary:
 794:.\Generated_Source\PSoC4/QuadDec_1.c **** *  Reads the 16 bit period buf register.
 795:.\Generated_Source\PSoC4/QuadDec_1.c **** *
 796:.\Generated_Source\PSoC4/QuadDec_1.c **** * Parameters:
 797:.\Generated_Source\PSoC4/QuadDec_1.c **** *  None
 798:.\Generated_Source\PSoC4/QuadDec_1.c **** *
 799:.\Generated_Source\PSoC4/QuadDec_1.c **** * Return:
 800:.\Generated_Source\PSoC4/QuadDec_1.c **** *  Period value
ARM GAS  C:\DOCUME~1\Chuck\LOCALS~1\Temp\ccRWESA0.s 			page 33


 801:.\Generated_Source\PSoC4/QuadDec_1.c **** *
 802:.\Generated_Source\PSoC4/QuadDec_1.c **** *******************************************************************************/
 803:.\Generated_Source\PSoC4/QuadDec_1.c **** uint32 QuadDec_1_ReadPeriodBuf(void)
 804:.\Generated_Source\PSoC4/QuadDec_1.c **** {
 1025              		.loc 1 804 0
 1026              		.cfi_startproc
 1027 0000 80B5     		push	{r7, lr}
 1028              		.cfi_def_cfa_offset 8
 1029              		.cfi_offset 7, -8
 1030              		.cfi_offset 14, -4
 1031 0002 00AF     		add	r7, sp, #0
 1032              		.cfi_def_cfa_register 7
 805:.\Generated_Source\PSoC4/QuadDec_1.c ****     return (QuadDec_1_PERIOD_BUF_REG & QuadDec_1_16BIT_MASK);
 1033              		.loc 1 805 0
 1034 0004 034B     		ldr	r3, .L66
 1035 0006 1B68     		ldr	r3, [r3]
 1036 0008 1B04     		lsl	r3, r3, #16
 1037 000a 1B0C     		lsr	r3, r3, #16
 806:.\Generated_Source\PSoC4/QuadDec_1.c **** }
 1038              		.loc 1 806 0
 1039 000c 181C     		mov	r0, r3
 1040 000e BD46     		mov	sp, r7
 1041              		@ sp needed
 1042 0010 80BD     		pop	{r7, pc}
 1043              	.L67:
 1044 0012 C046     		.align	2
 1045              	.L66:
 1046 0014 18010540 		.word	1074069784
 1047              		.cfi_endproc
 1048              	.LFE20:
 1049              		.size	QuadDec_1_ReadPeriodBuf, .-QuadDec_1_ReadPeriodBuf
 1050              		.section	.text.QuadDec_1_SetPeriodSwap,"ax",%progbits
 1051              		.align	2
 1052              		.global	QuadDec_1_SetPeriodSwap
 1053              		.code	16
 1054              		.thumb_func
 1055              		.type	QuadDec_1_SetPeriodSwap, %function
 1056              	QuadDec_1_SetPeriodSwap:
 1057              	.LFB21:
 807:.\Generated_Source\PSoC4/QuadDec_1.c **** 
 808:.\Generated_Source\PSoC4/QuadDec_1.c **** 
 809:.\Generated_Source\PSoC4/QuadDec_1.c **** /*******************************************************************************
 810:.\Generated_Source\PSoC4/QuadDec_1.c **** * Function Name: QuadDec_1_SetPeriodSwap
 811:.\Generated_Source\PSoC4/QuadDec_1.c **** ********************************************************************************
 812:.\Generated_Source\PSoC4/QuadDec_1.c **** *
 813:.\Generated_Source\PSoC4/QuadDec_1.c **** * Summary:
 814:.\Generated_Source\PSoC4/QuadDec_1.c **** *  Writes the register that controls whether the period registers are
 815:.\Generated_Source\PSoC4/QuadDec_1.c **** *  swapped. When enabled in Timer/Counter mode the swap occurs at a TC event.
 816:.\Generated_Source\PSoC4/QuadDec_1.c **** *  In the PWM mode the swap occurs at the next TC event following a hardware
 817:.\Generated_Source\PSoC4/QuadDec_1.c **** *  switch event.
 818:.\Generated_Source\PSoC4/QuadDec_1.c **** *
 819:.\Generated_Source\PSoC4/QuadDec_1.c **** * Parameters:
 820:.\Generated_Source\PSoC4/QuadDec_1.c **** *  swapEnable
 821:.\Generated_Source\PSoC4/QuadDec_1.c **** *   Values:
 822:.\Generated_Source\PSoC4/QuadDec_1.c **** *     - 0 - Disable swap
 823:.\Generated_Source\PSoC4/QuadDec_1.c **** *     - 1 - Enable swap
 824:.\Generated_Source\PSoC4/QuadDec_1.c **** *
ARM GAS  C:\DOCUME~1\Chuck\LOCALS~1\Temp\ccRWESA0.s 			page 34


 825:.\Generated_Source\PSoC4/QuadDec_1.c **** * Return:
 826:.\Generated_Source\PSoC4/QuadDec_1.c **** *  None
 827:.\Generated_Source\PSoC4/QuadDec_1.c **** *
 828:.\Generated_Source\PSoC4/QuadDec_1.c **** *******************************************************************************/
 829:.\Generated_Source\PSoC4/QuadDec_1.c **** void QuadDec_1_SetPeriodSwap(uint32 swapEnable)
 830:.\Generated_Source\PSoC4/QuadDec_1.c **** {
 1058              		.loc 1 830 0
 1059              		.cfi_startproc
 1060 0000 90B5     		push	{r4, r7, lr}
 1061              		.cfi_def_cfa_offset 12
 1062              		.cfi_offset 4, -12
 1063              		.cfi_offset 7, -8
 1064              		.cfi_offset 14, -4
 1065 0002 85B0     		sub	sp, sp, #20
 1066              		.cfi_def_cfa_offset 32
 1067 0004 00AF     		add	r7, sp, #0
 1068              		.cfi_def_cfa_register 7
 1069 0006 7860     		str	r0, [r7, #4]
 831:.\Generated_Source\PSoC4/QuadDec_1.c ****     uint8 enableInterrupts;
 832:.\Generated_Source\PSoC4/QuadDec_1.c **** 
 833:.\Generated_Source\PSoC4/QuadDec_1.c ****     enableInterrupts = CyEnterCriticalSection();
 1070              		.loc 1 833 0
 1071 0008 3C1C     		mov	r4, r7
 1072 000a 0F34     		add	r4, r4, #15
 1073 000c FFF7FEFF 		bl	CyEnterCriticalSection
 1074 0010 031C     		mov	r3, r0
 1075 0012 2370     		strb	r3, [r4]
 834:.\Generated_Source\PSoC4/QuadDec_1.c **** 
 835:.\Generated_Source\PSoC4/QuadDec_1.c ****     QuadDec_1_CONTROL_REG &= (uint32)~QuadDec_1_RELOAD_PERIOD_MASK;
 1076              		.loc 1 835 0
 1077 0014 0B4B     		ldr	r3, .L69
 1078 0016 0B4A     		ldr	r2, .L69
 1079 0018 1268     		ldr	r2, [r2]
 1080 001a 0221     		mov	r1, #2
 1081 001c 8A43     		bic	r2, r1
 1082 001e 1A60     		str	r2, [r3]
 836:.\Generated_Source\PSoC4/QuadDec_1.c ****     QuadDec_1_CONTROL_REG |= ((uint32)((swapEnable & QuadDec_1_1BIT_MASK) <<
 1083              		.loc 1 836 0
 1084 0020 084B     		ldr	r3, .L69
 1085 0022 084A     		ldr	r2, .L69
 1086 0024 1168     		ldr	r1, [r2]
 1087 0026 7868     		ldr	r0, [r7, #4]
 1088 0028 0122     		mov	r2, #1
 1089 002a 0240     		and	r2, r0
 1090 002c 5200     		lsl	r2, r2, #1
 1091 002e 0A43     		orr	r2, r1
 1092 0030 1A60     		str	r2, [r3]
 837:.\Generated_Source\PSoC4/QuadDec_1.c ****                                                             QuadDec_1_RELOAD_PERIOD_SHIFT));
 838:.\Generated_Source\PSoC4/QuadDec_1.c **** 
 839:.\Generated_Source\PSoC4/QuadDec_1.c ****     CyExitCriticalSection(enableInterrupts);
 1093              		.loc 1 839 0
 1094 0032 3B1C     		mov	r3, r7
 1095 0034 0F33     		add	r3, r3, #15
 1096 0036 1B78     		ldrb	r3, [r3]
 1097 0038 181C     		mov	r0, r3
 1098 003a FFF7FEFF 		bl	CyExitCriticalSection
 840:.\Generated_Source\PSoC4/QuadDec_1.c **** }
ARM GAS  C:\DOCUME~1\Chuck\LOCALS~1\Temp\ccRWESA0.s 			page 35


 1099              		.loc 1 840 0
 1100 003e BD46     		mov	sp, r7
 1101 0040 05B0     		add	sp, sp, #20
 1102              		@ sp needed
 1103 0042 90BD     		pop	{r4, r7, pc}
 1104              	.L70:
 1105              		.align	2
 1106              	.L69:
 1107 0044 00010540 		.word	1074069760
 1108              		.cfi_endproc
 1109              	.LFE21:
 1110              		.size	QuadDec_1_SetPeriodSwap, .-QuadDec_1_SetPeriodSwap
 1111              		.section	.text.QuadDec_1_WriteCompare,"ax",%progbits
 1112              		.align	2
 1113              		.global	QuadDec_1_WriteCompare
 1114              		.code	16
 1115              		.thumb_func
 1116              		.type	QuadDec_1_WriteCompare, %function
 1117              	QuadDec_1_WriteCompare:
 1118              	.LFB22:
 841:.\Generated_Source\PSoC4/QuadDec_1.c **** 
 842:.\Generated_Source\PSoC4/QuadDec_1.c **** 
 843:.\Generated_Source\PSoC4/QuadDec_1.c **** /*******************************************************************************
 844:.\Generated_Source\PSoC4/QuadDec_1.c **** * Function Name: QuadDec_1_WriteCompare
 845:.\Generated_Source\PSoC4/QuadDec_1.c **** ********************************************************************************
 846:.\Generated_Source\PSoC4/QuadDec_1.c **** *
 847:.\Generated_Source\PSoC4/QuadDec_1.c **** * Summary:
 848:.\Generated_Source\PSoC4/QuadDec_1.c **** *  Writes the 16 bit compare register with the new compare value. Not
 849:.\Generated_Source\PSoC4/QuadDec_1.c **** *  applicable for Timer/Counter with Capture or in Quadrature Decoder modes.
 850:.\Generated_Source\PSoC4/QuadDec_1.c **** *
 851:.\Generated_Source\PSoC4/QuadDec_1.c **** * Parameters:
 852:.\Generated_Source\PSoC4/QuadDec_1.c **** *  compare: Compare value
 853:.\Generated_Source\PSoC4/QuadDec_1.c **** *
 854:.\Generated_Source\PSoC4/QuadDec_1.c **** * Return:
 855:.\Generated_Source\PSoC4/QuadDec_1.c **** *  None
 856:.\Generated_Source\PSoC4/QuadDec_1.c **** *
 857:.\Generated_Source\PSoC4/QuadDec_1.c **** *******************************************************************************/
 858:.\Generated_Source\PSoC4/QuadDec_1.c **** void QuadDec_1_WriteCompare(uint32 compare)
 859:.\Generated_Source\PSoC4/QuadDec_1.c **** {
 1119              		.loc 1 859 0
 1120              		.cfi_startproc
 1121 0000 80B5     		push	{r7, lr}
 1122              		.cfi_def_cfa_offset 8
 1123              		.cfi_offset 7, -8
 1124              		.cfi_offset 14, -4
 1125 0002 82B0     		sub	sp, sp, #8
 1126              		.cfi_def_cfa_offset 16
 1127 0004 00AF     		add	r7, sp, #0
 1128              		.cfi_def_cfa_register 7
 1129 0006 7860     		str	r0, [r7, #4]
 860:.\Generated_Source\PSoC4/QuadDec_1.c ****     #if (QuadDec_1_CY_TCPWM_V2)
 861:.\Generated_Source\PSoC4/QuadDec_1.c ****         uint32 currentMode;
 862:.\Generated_Source\PSoC4/QuadDec_1.c ****     #endif /* (QuadDec_1_CY_TCPWM_V2) */
 863:.\Generated_Source\PSoC4/QuadDec_1.c **** 
 864:.\Generated_Source\PSoC4/QuadDec_1.c ****     #if (QuadDec_1_CY_TCPWM_V2)
 865:.\Generated_Source\PSoC4/QuadDec_1.c ****         currentMode = ((QuadDec_1_CONTROL_REG & QuadDec_1_UPDOWN_MASK) >> QuadDec_1_UPDOWN_SHIFT);
 866:.\Generated_Source\PSoC4/QuadDec_1.c **** 
ARM GAS  C:\DOCUME~1\Chuck\LOCALS~1\Temp\ccRWESA0.s 			page 36


 867:.\Generated_Source\PSoC4/QuadDec_1.c ****         if (QuadDec_1__COUNT_DOWN == currentMode)
 868:.\Generated_Source\PSoC4/QuadDec_1.c ****         {
 869:.\Generated_Source\PSoC4/QuadDec_1.c ****             QuadDec_1_COMP_CAP_REG = ((compare + 1u) & QuadDec_1_16BIT_MASK);
 870:.\Generated_Source\PSoC4/QuadDec_1.c ****         }
 871:.\Generated_Source\PSoC4/QuadDec_1.c ****         else if (QuadDec_1__COUNT_UP == currentMode)
 872:.\Generated_Source\PSoC4/QuadDec_1.c ****         {
 873:.\Generated_Source\PSoC4/QuadDec_1.c ****             QuadDec_1_COMP_CAP_REG = ((compare - 1u) & QuadDec_1_16BIT_MASK);
 874:.\Generated_Source\PSoC4/QuadDec_1.c ****         }
 875:.\Generated_Source\PSoC4/QuadDec_1.c ****         else
 876:.\Generated_Source\PSoC4/QuadDec_1.c ****         {
 877:.\Generated_Source\PSoC4/QuadDec_1.c ****             QuadDec_1_COMP_CAP_REG = (compare & QuadDec_1_16BIT_MASK);
 878:.\Generated_Source\PSoC4/QuadDec_1.c ****         }
 879:.\Generated_Source\PSoC4/QuadDec_1.c ****     #else
 880:.\Generated_Source\PSoC4/QuadDec_1.c ****         QuadDec_1_COMP_CAP_REG = (compare & QuadDec_1_16BIT_MASK);
 1130              		.loc 1 880 0
 1131 0008 034B     		ldr	r3, .L72
 1132 000a 7A68     		ldr	r2, [r7, #4]
 1133 000c 1204     		lsl	r2, r2, #16
 1134 000e 120C     		lsr	r2, r2, #16
 1135 0010 1A60     		str	r2, [r3]
 881:.\Generated_Source\PSoC4/QuadDec_1.c ****     #endif /* (QuadDec_1_CY_TCPWM_V2) */
 882:.\Generated_Source\PSoC4/QuadDec_1.c **** }
 1136              		.loc 1 882 0
 1137 0012 BD46     		mov	sp, r7
 1138 0014 02B0     		add	sp, sp, #8
 1139              		@ sp needed
 1140 0016 80BD     		pop	{r7, pc}
 1141              	.L73:
 1142              		.align	2
 1143              	.L72:
 1144 0018 0C010540 		.word	1074069772
 1145              		.cfi_endproc
 1146              	.LFE22:
 1147              		.size	QuadDec_1_WriteCompare, .-QuadDec_1_WriteCompare
 1148              		.section	.text.QuadDec_1_ReadCompare,"ax",%progbits
 1149              		.align	2
 1150              		.global	QuadDec_1_ReadCompare
 1151              		.code	16
 1152              		.thumb_func
 1153              		.type	QuadDec_1_ReadCompare, %function
 1154              	QuadDec_1_ReadCompare:
 1155              	.LFB23:
 883:.\Generated_Source\PSoC4/QuadDec_1.c **** 
 884:.\Generated_Source\PSoC4/QuadDec_1.c **** 
 885:.\Generated_Source\PSoC4/QuadDec_1.c **** /*******************************************************************************
 886:.\Generated_Source\PSoC4/QuadDec_1.c **** * Function Name: QuadDec_1_ReadCompare
 887:.\Generated_Source\PSoC4/QuadDec_1.c **** ********************************************************************************
 888:.\Generated_Source\PSoC4/QuadDec_1.c **** *
 889:.\Generated_Source\PSoC4/QuadDec_1.c **** * Summary:
 890:.\Generated_Source\PSoC4/QuadDec_1.c **** *  Reads the compare register. Not applicable for Timer/Counter with Capture
 891:.\Generated_Source\PSoC4/QuadDec_1.c **** *  or in Quadrature Decoder modes.
 892:.\Generated_Source\PSoC4/QuadDec_1.c **** *
 893:.\Generated_Source\PSoC4/QuadDec_1.c **** * Parameters:
 894:.\Generated_Source\PSoC4/QuadDec_1.c **** *  None
 895:.\Generated_Source\PSoC4/QuadDec_1.c **** *
 896:.\Generated_Source\PSoC4/QuadDec_1.c **** * Return:
 897:.\Generated_Source\PSoC4/QuadDec_1.c **** *  Compare value
ARM GAS  C:\DOCUME~1\Chuck\LOCALS~1\Temp\ccRWESA0.s 			page 37


 898:.\Generated_Source\PSoC4/QuadDec_1.c **** *
 899:.\Generated_Source\PSoC4/QuadDec_1.c **** *******************************************************************************/
 900:.\Generated_Source\PSoC4/QuadDec_1.c **** uint32 QuadDec_1_ReadCompare(void)
 901:.\Generated_Source\PSoC4/QuadDec_1.c **** {
 1156              		.loc 1 901 0
 1157              		.cfi_startproc
 1158 0000 80B5     		push	{r7, lr}
 1159              		.cfi_def_cfa_offset 8
 1160              		.cfi_offset 7, -8
 1161              		.cfi_offset 14, -4
 1162 0002 00AF     		add	r7, sp, #0
 1163              		.cfi_def_cfa_register 7
 902:.\Generated_Source\PSoC4/QuadDec_1.c ****     #if (QuadDec_1_CY_TCPWM_V2)
 903:.\Generated_Source\PSoC4/QuadDec_1.c ****         uint32 currentMode;
 904:.\Generated_Source\PSoC4/QuadDec_1.c ****         uint32 regVal;
 905:.\Generated_Source\PSoC4/QuadDec_1.c ****     #endif /* (QuadDec_1_CY_TCPWM_V2) */
 906:.\Generated_Source\PSoC4/QuadDec_1.c **** 
 907:.\Generated_Source\PSoC4/QuadDec_1.c ****     #if (QuadDec_1_CY_TCPWM_V2)
 908:.\Generated_Source\PSoC4/QuadDec_1.c ****         currentMode = ((QuadDec_1_CONTROL_REG & QuadDec_1_UPDOWN_MASK) >> QuadDec_1_UPDOWN_SHIFT);
 909:.\Generated_Source\PSoC4/QuadDec_1.c **** 
 910:.\Generated_Source\PSoC4/QuadDec_1.c ****         if (QuadDec_1__COUNT_DOWN == currentMode)
 911:.\Generated_Source\PSoC4/QuadDec_1.c ****         {
 912:.\Generated_Source\PSoC4/QuadDec_1.c ****             regVal = ((QuadDec_1_COMP_CAP_REG - 1u) & QuadDec_1_16BIT_MASK);
 913:.\Generated_Source\PSoC4/QuadDec_1.c ****         }
 914:.\Generated_Source\PSoC4/QuadDec_1.c ****         else if (QuadDec_1__COUNT_UP == currentMode)
 915:.\Generated_Source\PSoC4/QuadDec_1.c ****         {
 916:.\Generated_Source\PSoC4/QuadDec_1.c ****             regVal = ((QuadDec_1_COMP_CAP_REG + 1u) & QuadDec_1_16BIT_MASK);
 917:.\Generated_Source\PSoC4/QuadDec_1.c ****         }
 918:.\Generated_Source\PSoC4/QuadDec_1.c ****         else
 919:.\Generated_Source\PSoC4/QuadDec_1.c ****         {
 920:.\Generated_Source\PSoC4/QuadDec_1.c ****             regVal = (QuadDec_1_COMP_CAP_REG & QuadDec_1_16BIT_MASK);
 921:.\Generated_Source\PSoC4/QuadDec_1.c ****         }
 922:.\Generated_Source\PSoC4/QuadDec_1.c ****         return (regVal);
 923:.\Generated_Source\PSoC4/QuadDec_1.c ****     #else
 924:.\Generated_Source\PSoC4/QuadDec_1.c ****         return (QuadDec_1_COMP_CAP_REG & QuadDec_1_16BIT_MASK);
 1164              		.loc 1 924 0
 1165 0004 034B     		ldr	r3, .L76
 1166 0006 1B68     		ldr	r3, [r3]
 1167 0008 1B04     		lsl	r3, r3, #16
 1168 000a 1B0C     		lsr	r3, r3, #16
 925:.\Generated_Source\PSoC4/QuadDec_1.c ****     #endif /* (QuadDec_1_CY_TCPWM_V2) */
 926:.\Generated_Source\PSoC4/QuadDec_1.c **** }
 1169              		.loc 1 926 0
 1170 000c 181C     		mov	r0, r3
 1171 000e BD46     		mov	sp, r7
 1172              		@ sp needed
 1173 0010 80BD     		pop	{r7, pc}
 1174              	.L77:
 1175 0012 C046     		.align	2
 1176              	.L76:
 1177 0014 0C010540 		.word	1074069772
 1178              		.cfi_endproc
 1179              	.LFE23:
 1180              		.size	QuadDec_1_ReadCompare, .-QuadDec_1_ReadCompare
 1181              		.section	.text.QuadDec_1_WriteCompareBuf,"ax",%progbits
 1182              		.align	2
 1183              		.global	QuadDec_1_WriteCompareBuf
ARM GAS  C:\DOCUME~1\Chuck\LOCALS~1\Temp\ccRWESA0.s 			page 38


 1184              		.code	16
 1185              		.thumb_func
 1186              		.type	QuadDec_1_WriteCompareBuf, %function
 1187              	QuadDec_1_WriteCompareBuf:
 1188              	.LFB24:
 927:.\Generated_Source\PSoC4/QuadDec_1.c **** 
 928:.\Generated_Source\PSoC4/QuadDec_1.c **** 
 929:.\Generated_Source\PSoC4/QuadDec_1.c **** /*******************************************************************************
 930:.\Generated_Source\PSoC4/QuadDec_1.c **** * Function Name: QuadDec_1_WriteCompareBuf
 931:.\Generated_Source\PSoC4/QuadDec_1.c **** ********************************************************************************
 932:.\Generated_Source\PSoC4/QuadDec_1.c **** *
 933:.\Generated_Source\PSoC4/QuadDec_1.c **** * Summary:
 934:.\Generated_Source\PSoC4/QuadDec_1.c **** *  Writes the 16 bit compare buffer register with the new compare value. Not
 935:.\Generated_Source\PSoC4/QuadDec_1.c **** *  applicable for Timer/Counter with Capture or in Quadrature Decoder modes.
 936:.\Generated_Source\PSoC4/QuadDec_1.c **** *
 937:.\Generated_Source\PSoC4/QuadDec_1.c **** * Parameters:
 938:.\Generated_Source\PSoC4/QuadDec_1.c **** *  compareBuf: Compare value
 939:.\Generated_Source\PSoC4/QuadDec_1.c **** *
 940:.\Generated_Source\PSoC4/QuadDec_1.c **** * Return:
 941:.\Generated_Source\PSoC4/QuadDec_1.c **** *  None
 942:.\Generated_Source\PSoC4/QuadDec_1.c **** *
 943:.\Generated_Source\PSoC4/QuadDec_1.c **** *******************************************************************************/
 944:.\Generated_Source\PSoC4/QuadDec_1.c **** void QuadDec_1_WriteCompareBuf(uint32 compareBuf)
 945:.\Generated_Source\PSoC4/QuadDec_1.c **** {
 1189              		.loc 1 945 0
 1190              		.cfi_startproc
 1191 0000 80B5     		push	{r7, lr}
 1192              		.cfi_def_cfa_offset 8
 1193              		.cfi_offset 7, -8
 1194              		.cfi_offset 14, -4
 1195 0002 82B0     		sub	sp, sp, #8
 1196              		.cfi_def_cfa_offset 16
 1197 0004 00AF     		add	r7, sp, #0
 1198              		.cfi_def_cfa_register 7
 1199 0006 7860     		str	r0, [r7, #4]
 946:.\Generated_Source\PSoC4/QuadDec_1.c ****     #if (QuadDec_1_CY_TCPWM_V2)
 947:.\Generated_Source\PSoC4/QuadDec_1.c ****         uint32 currentMode;
 948:.\Generated_Source\PSoC4/QuadDec_1.c ****     #endif /* (QuadDec_1_CY_TCPWM_V2) */
 949:.\Generated_Source\PSoC4/QuadDec_1.c **** 
 950:.\Generated_Source\PSoC4/QuadDec_1.c ****     #if (QuadDec_1_CY_TCPWM_V2)
 951:.\Generated_Source\PSoC4/QuadDec_1.c ****         currentMode = ((QuadDec_1_CONTROL_REG & QuadDec_1_UPDOWN_MASK) >> QuadDec_1_UPDOWN_SHIFT);
 952:.\Generated_Source\PSoC4/QuadDec_1.c **** 
 953:.\Generated_Source\PSoC4/QuadDec_1.c ****         if (QuadDec_1__COUNT_DOWN == currentMode)
 954:.\Generated_Source\PSoC4/QuadDec_1.c ****         {
 955:.\Generated_Source\PSoC4/QuadDec_1.c ****             QuadDec_1_COMP_CAP_BUF_REG = ((compareBuf + 1u) & QuadDec_1_16BIT_MASK);
 956:.\Generated_Source\PSoC4/QuadDec_1.c ****         }
 957:.\Generated_Source\PSoC4/QuadDec_1.c ****         else if (QuadDec_1__COUNT_UP == currentMode)
 958:.\Generated_Source\PSoC4/QuadDec_1.c ****         {
 959:.\Generated_Source\PSoC4/QuadDec_1.c ****             QuadDec_1_COMP_CAP_BUF_REG = ((compareBuf - 1u) & QuadDec_1_16BIT_MASK);
 960:.\Generated_Source\PSoC4/QuadDec_1.c ****         }
 961:.\Generated_Source\PSoC4/QuadDec_1.c ****         else
 962:.\Generated_Source\PSoC4/QuadDec_1.c ****         {
 963:.\Generated_Source\PSoC4/QuadDec_1.c ****             QuadDec_1_COMP_CAP_BUF_REG = (compareBuf & QuadDec_1_16BIT_MASK);
 964:.\Generated_Source\PSoC4/QuadDec_1.c ****         }
 965:.\Generated_Source\PSoC4/QuadDec_1.c ****     #else
 966:.\Generated_Source\PSoC4/QuadDec_1.c ****         QuadDec_1_COMP_CAP_BUF_REG = (compareBuf & QuadDec_1_16BIT_MASK);
 1200              		.loc 1 966 0
ARM GAS  C:\DOCUME~1\Chuck\LOCALS~1\Temp\ccRWESA0.s 			page 39


 1201 0008 034B     		ldr	r3, .L79
 1202 000a 7A68     		ldr	r2, [r7, #4]
 1203 000c 1204     		lsl	r2, r2, #16
 1204 000e 120C     		lsr	r2, r2, #16
 1205 0010 1A60     		str	r2, [r3]
 967:.\Generated_Source\PSoC4/QuadDec_1.c ****     #endif /* (QuadDec_1_CY_TCPWM_V2) */
 968:.\Generated_Source\PSoC4/QuadDec_1.c **** }
 1206              		.loc 1 968 0
 1207 0012 BD46     		mov	sp, r7
 1208 0014 02B0     		add	sp, sp, #8
 1209              		@ sp needed
 1210 0016 80BD     		pop	{r7, pc}
 1211              	.L80:
 1212              		.align	2
 1213              	.L79:
 1214 0018 10010540 		.word	1074069776
 1215              		.cfi_endproc
 1216              	.LFE24:
 1217              		.size	QuadDec_1_WriteCompareBuf, .-QuadDec_1_WriteCompareBuf
 1218              		.section	.text.QuadDec_1_ReadCompareBuf,"ax",%progbits
 1219              		.align	2
 1220              		.global	QuadDec_1_ReadCompareBuf
 1221              		.code	16
 1222              		.thumb_func
 1223              		.type	QuadDec_1_ReadCompareBuf, %function
 1224              	QuadDec_1_ReadCompareBuf:
 1225              	.LFB25:
 969:.\Generated_Source\PSoC4/QuadDec_1.c **** 
 970:.\Generated_Source\PSoC4/QuadDec_1.c **** 
 971:.\Generated_Source\PSoC4/QuadDec_1.c **** /*******************************************************************************
 972:.\Generated_Source\PSoC4/QuadDec_1.c **** * Function Name: QuadDec_1_ReadCompareBuf
 973:.\Generated_Source\PSoC4/QuadDec_1.c **** ********************************************************************************
 974:.\Generated_Source\PSoC4/QuadDec_1.c **** *
 975:.\Generated_Source\PSoC4/QuadDec_1.c **** * Summary:
 976:.\Generated_Source\PSoC4/QuadDec_1.c **** *  Reads the compare buffer register. Not applicable for Timer/Counter with
 977:.\Generated_Source\PSoC4/QuadDec_1.c **** *  Capture or in Quadrature Decoder modes.
 978:.\Generated_Source\PSoC4/QuadDec_1.c **** *
 979:.\Generated_Source\PSoC4/QuadDec_1.c **** * Parameters:
 980:.\Generated_Source\PSoC4/QuadDec_1.c **** *  None
 981:.\Generated_Source\PSoC4/QuadDec_1.c **** *
 982:.\Generated_Source\PSoC4/QuadDec_1.c **** * Return:
 983:.\Generated_Source\PSoC4/QuadDec_1.c **** *  Compare buffer value
 984:.\Generated_Source\PSoC4/QuadDec_1.c **** *
 985:.\Generated_Source\PSoC4/QuadDec_1.c **** *******************************************************************************/
 986:.\Generated_Source\PSoC4/QuadDec_1.c **** uint32 QuadDec_1_ReadCompareBuf(void)
 987:.\Generated_Source\PSoC4/QuadDec_1.c **** {
 1226              		.loc 1 987 0
 1227              		.cfi_startproc
 1228 0000 80B5     		push	{r7, lr}
 1229              		.cfi_def_cfa_offset 8
 1230              		.cfi_offset 7, -8
 1231              		.cfi_offset 14, -4
 1232 0002 00AF     		add	r7, sp, #0
 1233              		.cfi_def_cfa_register 7
 988:.\Generated_Source\PSoC4/QuadDec_1.c ****     #if (QuadDec_1_CY_TCPWM_V2)
 989:.\Generated_Source\PSoC4/QuadDec_1.c ****         uint32 currentMode;
 990:.\Generated_Source\PSoC4/QuadDec_1.c ****         uint32 regVal;
ARM GAS  C:\DOCUME~1\Chuck\LOCALS~1\Temp\ccRWESA0.s 			page 40


 991:.\Generated_Source\PSoC4/QuadDec_1.c ****     #endif /* (QuadDec_1_CY_TCPWM_V2) */
 992:.\Generated_Source\PSoC4/QuadDec_1.c **** 
 993:.\Generated_Source\PSoC4/QuadDec_1.c ****     #if (QuadDec_1_CY_TCPWM_V2)
 994:.\Generated_Source\PSoC4/QuadDec_1.c ****         currentMode = ((QuadDec_1_CONTROL_REG & QuadDec_1_UPDOWN_MASK) >> QuadDec_1_UPDOWN_SHIFT);
 995:.\Generated_Source\PSoC4/QuadDec_1.c **** 
 996:.\Generated_Source\PSoC4/QuadDec_1.c ****         if (QuadDec_1__COUNT_DOWN == currentMode)
 997:.\Generated_Source\PSoC4/QuadDec_1.c ****         {
 998:.\Generated_Source\PSoC4/QuadDec_1.c ****             regVal = ((QuadDec_1_COMP_CAP_BUF_REG - 1u) & QuadDec_1_16BIT_MASK);
 999:.\Generated_Source\PSoC4/QuadDec_1.c ****         }
1000:.\Generated_Source\PSoC4/QuadDec_1.c ****         else if (QuadDec_1__COUNT_UP == currentMode)
1001:.\Generated_Source\PSoC4/QuadDec_1.c ****         {
1002:.\Generated_Source\PSoC4/QuadDec_1.c ****             regVal = ((QuadDec_1_COMP_CAP_BUF_REG + 1u) & QuadDec_1_16BIT_MASK);
1003:.\Generated_Source\PSoC4/QuadDec_1.c ****         }
1004:.\Generated_Source\PSoC4/QuadDec_1.c ****         else
1005:.\Generated_Source\PSoC4/QuadDec_1.c ****         {
1006:.\Generated_Source\PSoC4/QuadDec_1.c ****             regVal = (QuadDec_1_COMP_CAP_BUF_REG & QuadDec_1_16BIT_MASK);
1007:.\Generated_Source\PSoC4/QuadDec_1.c ****         }
1008:.\Generated_Source\PSoC4/QuadDec_1.c ****         return (regVal);
1009:.\Generated_Source\PSoC4/QuadDec_1.c ****     #else
1010:.\Generated_Source\PSoC4/QuadDec_1.c ****         return (QuadDec_1_COMP_CAP_BUF_REG & QuadDec_1_16BIT_MASK);
 1234              		.loc 1 1010 0
 1235 0004 034B     		ldr	r3, .L83
 1236 0006 1B68     		ldr	r3, [r3]
 1237 0008 1B04     		lsl	r3, r3, #16
 1238 000a 1B0C     		lsr	r3, r3, #16
1011:.\Generated_Source\PSoC4/QuadDec_1.c ****     #endif /* (QuadDec_1_CY_TCPWM_V2) */
1012:.\Generated_Source\PSoC4/QuadDec_1.c **** }
 1239              		.loc 1 1012 0
 1240 000c 181C     		mov	r0, r3
 1241 000e BD46     		mov	sp, r7
 1242              		@ sp needed
 1243 0010 80BD     		pop	{r7, pc}
 1244              	.L84:
 1245 0012 C046     		.align	2
 1246              	.L83:
 1247 0014 10010540 		.word	1074069776
 1248              		.cfi_endproc
 1249              	.LFE25:
 1250              		.size	QuadDec_1_ReadCompareBuf, .-QuadDec_1_ReadCompareBuf
 1251              		.section	.text.QuadDec_1_ReadCapture,"ax",%progbits
 1252              		.align	2
 1253              		.global	QuadDec_1_ReadCapture
 1254              		.code	16
 1255              		.thumb_func
 1256              		.type	QuadDec_1_ReadCapture, %function
 1257              	QuadDec_1_ReadCapture:
 1258              	.LFB26:
1013:.\Generated_Source\PSoC4/QuadDec_1.c **** 
1014:.\Generated_Source\PSoC4/QuadDec_1.c **** 
1015:.\Generated_Source\PSoC4/QuadDec_1.c **** /*******************************************************************************
1016:.\Generated_Source\PSoC4/QuadDec_1.c **** * Function Name: QuadDec_1_ReadCapture
1017:.\Generated_Source\PSoC4/QuadDec_1.c **** ********************************************************************************
1018:.\Generated_Source\PSoC4/QuadDec_1.c **** *
1019:.\Generated_Source\PSoC4/QuadDec_1.c **** * Summary:
1020:.\Generated_Source\PSoC4/QuadDec_1.c **** *  Reads the captured counter value. This API is applicable only for
1021:.\Generated_Source\PSoC4/QuadDec_1.c **** *  Timer/Counter with the capture mode and Quadrature Decoder modes.
1022:.\Generated_Source\PSoC4/QuadDec_1.c **** *
ARM GAS  C:\DOCUME~1\Chuck\LOCALS~1\Temp\ccRWESA0.s 			page 41


1023:.\Generated_Source\PSoC4/QuadDec_1.c **** * Parameters:
1024:.\Generated_Source\PSoC4/QuadDec_1.c **** *  None
1025:.\Generated_Source\PSoC4/QuadDec_1.c **** *
1026:.\Generated_Source\PSoC4/QuadDec_1.c **** * Return:
1027:.\Generated_Source\PSoC4/QuadDec_1.c **** *  Capture value
1028:.\Generated_Source\PSoC4/QuadDec_1.c **** *
1029:.\Generated_Source\PSoC4/QuadDec_1.c **** *******************************************************************************/
1030:.\Generated_Source\PSoC4/QuadDec_1.c **** uint32 QuadDec_1_ReadCapture(void)
1031:.\Generated_Source\PSoC4/QuadDec_1.c **** {
 1259              		.loc 1 1031 0
 1260              		.cfi_startproc
 1261 0000 80B5     		push	{r7, lr}
 1262              		.cfi_def_cfa_offset 8
 1263              		.cfi_offset 7, -8
 1264              		.cfi_offset 14, -4
 1265 0002 00AF     		add	r7, sp, #0
 1266              		.cfi_def_cfa_register 7
1032:.\Generated_Source\PSoC4/QuadDec_1.c ****     return (QuadDec_1_COMP_CAP_REG & QuadDec_1_16BIT_MASK);
 1267              		.loc 1 1032 0
 1268 0004 034B     		ldr	r3, .L87
 1269 0006 1B68     		ldr	r3, [r3]
 1270 0008 1B04     		lsl	r3, r3, #16
 1271 000a 1B0C     		lsr	r3, r3, #16
1033:.\Generated_Source\PSoC4/QuadDec_1.c **** }
 1272              		.loc 1 1033 0
 1273 000c 181C     		mov	r0, r3
 1274 000e BD46     		mov	sp, r7
 1275              		@ sp needed
 1276 0010 80BD     		pop	{r7, pc}
 1277              	.L88:
 1278 0012 C046     		.align	2
 1279              	.L87:
 1280 0014 0C010540 		.word	1074069772
 1281              		.cfi_endproc
 1282              	.LFE26:
 1283              		.size	QuadDec_1_ReadCapture, .-QuadDec_1_ReadCapture
 1284              		.section	.text.QuadDec_1_ReadCaptureBuf,"ax",%progbits
 1285              		.align	2
 1286              		.global	QuadDec_1_ReadCaptureBuf
 1287              		.code	16
 1288              		.thumb_func
 1289              		.type	QuadDec_1_ReadCaptureBuf, %function
 1290              	QuadDec_1_ReadCaptureBuf:
 1291              	.LFB27:
1034:.\Generated_Source\PSoC4/QuadDec_1.c **** 
1035:.\Generated_Source\PSoC4/QuadDec_1.c **** 
1036:.\Generated_Source\PSoC4/QuadDec_1.c **** /*******************************************************************************
1037:.\Generated_Source\PSoC4/QuadDec_1.c **** * Function Name: QuadDec_1_ReadCaptureBuf
1038:.\Generated_Source\PSoC4/QuadDec_1.c **** ********************************************************************************
1039:.\Generated_Source\PSoC4/QuadDec_1.c **** *
1040:.\Generated_Source\PSoC4/QuadDec_1.c **** * Summary:
1041:.\Generated_Source\PSoC4/QuadDec_1.c **** *  Reads the capture buffer register. This API is applicable only for
1042:.\Generated_Source\PSoC4/QuadDec_1.c **** *  Timer/Counter with the capture mode and Quadrature Decoder modes.
1043:.\Generated_Source\PSoC4/QuadDec_1.c **** *
1044:.\Generated_Source\PSoC4/QuadDec_1.c **** * Parameters:
1045:.\Generated_Source\PSoC4/QuadDec_1.c **** *  None
1046:.\Generated_Source\PSoC4/QuadDec_1.c **** *
ARM GAS  C:\DOCUME~1\Chuck\LOCALS~1\Temp\ccRWESA0.s 			page 42


1047:.\Generated_Source\PSoC4/QuadDec_1.c **** * Return:
1048:.\Generated_Source\PSoC4/QuadDec_1.c **** *  Capture buffer value
1049:.\Generated_Source\PSoC4/QuadDec_1.c **** *
1050:.\Generated_Source\PSoC4/QuadDec_1.c **** *******************************************************************************/
1051:.\Generated_Source\PSoC4/QuadDec_1.c **** uint32 QuadDec_1_ReadCaptureBuf(void)
1052:.\Generated_Source\PSoC4/QuadDec_1.c **** {
 1292              		.loc 1 1052 0
 1293              		.cfi_startproc
 1294 0000 80B5     		push	{r7, lr}
 1295              		.cfi_def_cfa_offset 8
 1296              		.cfi_offset 7, -8
 1297              		.cfi_offset 14, -4
 1298 0002 00AF     		add	r7, sp, #0
 1299              		.cfi_def_cfa_register 7
1053:.\Generated_Source\PSoC4/QuadDec_1.c ****     return (QuadDec_1_COMP_CAP_BUF_REG & QuadDec_1_16BIT_MASK);
 1300              		.loc 1 1053 0
 1301 0004 034B     		ldr	r3, .L91
 1302 0006 1B68     		ldr	r3, [r3]
 1303 0008 1B04     		lsl	r3, r3, #16
 1304 000a 1B0C     		lsr	r3, r3, #16
1054:.\Generated_Source\PSoC4/QuadDec_1.c **** }
 1305              		.loc 1 1054 0
 1306 000c 181C     		mov	r0, r3
 1307 000e BD46     		mov	sp, r7
 1308              		@ sp needed
 1309 0010 80BD     		pop	{r7, pc}
 1310              	.L92:
 1311 0012 C046     		.align	2
 1312              	.L91:
 1313 0014 10010540 		.word	1074069776
 1314              		.cfi_endproc
 1315              	.LFE27:
 1316              		.size	QuadDec_1_ReadCaptureBuf, .-QuadDec_1_ReadCaptureBuf
 1317              		.section	.text.QuadDec_1_SetCaptureMode,"ax",%progbits
 1318              		.align	2
 1319              		.global	QuadDec_1_SetCaptureMode
 1320              		.code	16
 1321              		.thumb_func
 1322              		.type	QuadDec_1_SetCaptureMode, %function
 1323              	QuadDec_1_SetCaptureMode:
 1324              	.LFB28:
1055:.\Generated_Source\PSoC4/QuadDec_1.c **** 
1056:.\Generated_Source\PSoC4/QuadDec_1.c **** 
1057:.\Generated_Source\PSoC4/QuadDec_1.c **** /*******************************************************************************
1058:.\Generated_Source\PSoC4/QuadDec_1.c **** * Function Name: QuadDec_1_SetCaptureMode
1059:.\Generated_Source\PSoC4/QuadDec_1.c **** ********************************************************************************
1060:.\Generated_Source\PSoC4/QuadDec_1.c **** *
1061:.\Generated_Source\PSoC4/QuadDec_1.c **** * Summary:
1062:.\Generated_Source\PSoC4/QuadDec_1.c **** *  Sets the capture trigger mode. For PWM mode this is the switch input.
1063:.\Generated_Source\PSoC4/QuadDec_1.c **** *  This input is not applicable to the Timer/Counter without Capture and
1064:.\Generated_Source\PSoC4/QuadDec_1.c **** *  Quadrature Decoder modes.
1065:.\Generated_Source\PSoC4/QuadDec_1.c **** *
1066:.\Generated_Source\PSoC4/QuadDec_1.c **** * Parameters:
1067:.\Generated_Source\PSoC4/QuadDec_1.c **** *  triggerMode: Enumerated trigger mode value
1068:.\Generated_Source\PSoC4/QuadDec_1.c **** *   Values:
1069:.\Generated_Source\PSoC4/QuadDec_1.c **** *     - QuadDec_1_TRIG_LEVEL     - Level
1070:.\Generated_Source\PSoC4/QuadDec_1.c **** *     - QuadDec_1_TRIG_RISING    - Rising edge
ARM GAS  C:\DOCUME~1\Chuck\LOCALS~1\Temp\ccRWESA0.s 			page 43


1071:.\Generated_Source\PSoC4/QuadDec_1.c **** *     - QuadDec_1_TRIG_FALLING   - Falling edge
1072:.\Generated_Source\PSoC4/QuadDec_1.c **** *     - QuadDec_1_TRIG_BOTH      - Both rising and falling edge
1073:.\Generated_Source\PSoC4/QuadDec_1.c **** *
1074:.\Generated_Source\PSoC4/QuadDec_1.c **** * Return:
1075:.\Generated_Source\PSoC4/QuadDec_1.c **** *  None
1076:.\Generated_Source\PSoC4/QuadDec_1.c **** *
1077:.\Generated_Source\PSoC4/QuadDec_1.c **** *******************************************************************************/
1078:.\Generated_Source\PSoC4/QuadDec_1.c **** void QuadDec_1_SetCaptureMode(uint32 triggerMode)
1079:.\Generated_Source\PSoC4/QuadDec_1.c **** {
 1325              		.loc 1 1079 0
 1326              		.cfi_startproc
 1327 0000 90B5     		push	{r4, r7, lr}
 1328              		.cfi_def_cfa_offset 12
 1329              		.cfi_offset 4, -12
 1330              		.cfi_offset 7, -8
 1331              		.cfi_offset 14, -4
 1332 0002 85B0     		sub	sp, sp, #20
 1333              		.cfi_def_cfa_offset 32
 1334 0004 00AF     		add	r7, sp, #0
 1335              		.cfi_def_cfa_register 7
 1336 0006 7860     		str	r0, [r7, #4]
1080:.\Generated_Source\PSoC4/QuadDec_1.c ****     uint8 enableInterrupts;
1081:.\Generated_Source\PSoC4/QuadDec_1.c **** 
1082:.\Generated_Source\PSoC4/QuadDec_1.c ****     enableInterrupts = CyEnterCriticalSection();
 1337              		.loc 1 1082 0
 1338 0008 3C1C     		mov	r4, r7
 1339 000a 0F34     		add	r4, r4, #15
 1340 000c FFF7FEFF 		bl	CyEnterCriticalSection
 1341 0010 031C     		mov	r3, r0
 1342 0012 2370     		strb	r3, [r4]
1083:.\Generated_Source\PSoC4/QuadDec_1.c **** 
1084:.\Generated_Source\PSoC4/QuadDec_1.c ****     QuadDec_1_TRIG_CONTROL1_REG &= (uint32)~QuadDec_1_CAPTURE_MASK;
 1343              		.loc 1 1084 0
 1344 0014 0A4B     		ldr	r3, .L94
 1345 0016 0A4A     		ldr	r2, .L94
 1346 0018 1268     		ldr	r2, [r2]
 1347 001a 0321     		mov	r1, #3
 1348 001c 8A43     		bic	r2, r1
 1349 001e 1A60     		str	r2, [r3]
1085:.\Generated_Source\PSoC4/QuadDec_1.c ****     QuadDec_1_TRIG_CONTROL1_REG |= triggerMode;
 1350              		.loc 1 1085 0
 1351 0020 074B     		ldr	r3, .L94
 1352 0022 074A     		ldr	r2, .L94
 1353 0024 1168     		ldr	r1, [r2]
 1354 0026 7A68     		ldr	r2, [r7, #4]
 1355 0028 0A43     		orr	r2, r1
 1356 002a 1A60     		str	r2, [r3]
1086:.\Generated_Source\PSoC4/QuadDec_1.c **** 
1087:.\Generated_Source\PSoC4/QuadDec_1.c ****     CyExitCriticalSection(enableInterrupts);
 1357              		.loc 1 1087 0
 1358 002c 3B1C     		mov	r3, r7
 1359 002e 0F33     		add	r3, r3, #15
 1360 0030 1B78     		ldrb	r3, [r3]
 1361 0032 181C     		mov	r0, r3
 1362 0034 FFF7FEFF 		bl	CyExitCriticalSection
1088:.\Generated_Source\PSoC4/QuadDec_1.c **** }
 1363              		.loc 1 1088 0
ARM GAS  C:\DOCUME~1\Chuck\LOCALS~1\Temp\ccRWESA0.s 			page 44


 1364 0038 BD46     		mov	sp, r7
 1365 003a 05B0     		add	sp, sp, #20
 1366              		@ sp needed
 1367 003c 90BD     		pop	{r4, r7, pc}
 1368              	.L95:
 1369 003e C046     		.align	2
 1370              	.L94:
 1371 0040 24010540 		.word	1074069796
 1372              		.cfi_endproc
 1373              	.LFE28:
 1374              		.size	QuadDec_1_SetCaptureMode, .-QuadDec_1_SetCaptureMode
 1375              		.section	.text.QuadDec_1_SetReloadMode,"ax",%progbits
 1376              		.align	2
 1377              		.global	QuadDec_1_SetReloadMode
 1378              		.code	16
 1379              		.thumb_func
 1380              		.type	QuadDec_1_SetReloadMode, %function
 1381              	QuadDec_1_SetReloadMode:
 1382              	.LFB29:
1089:.\Generated_Source\PSoC4/QuadDec_1.c **** 
1090:.\Generated_Source\PSoC4/QuadDec_1.c **** 
1091:.\Generated_Source\PSoC4/QuadDec_1.c **** /*******************************************************************************
1092:.\Generated_Source\PSoC4/QuadDec_1.c **** * Function Name: QuadDec_1_SetReloadMode
1093:.\Generated_Source\PSoC4/QuadDec_1.c **** ********************************************************************************
1094:.\Generated_Source\PSoC4/QuadDec_1.c **** *
1095:.\Generated_Source\PSoC4/QuadDec_1.c **** * Summary:
1096:.\Generated_Source\PSoC4/QuadDec_1.c **** *  Sets the reload trigger mode. For Quadrature Decoder mode this is the index
1097:.\Generated_Source\PSoC4/QuadDec_1.c **** *  input.
1098:.\Generated_Source\PSoC4/QuadDec_1.c **** *
1099:.\Generated_Source\PSoC4/QuadDec_1.c **** * Parameters:
1100:.\Generated_Source\PSoC4/QuadDec_1.c **** *  triggerMode: Enumerated trigger mode value
1101:.\Generated_Source\PSoC4/QuadDec_1.c **** *   Values:
1102:.\Generated_Source\PSoC4/QuadDec_1.c **** *     - QuadDec_1_TRIG_LEVEL     - Level
1103:.\Generated_Source\PSoC4/QuadDec_1.c **** *     - QuadDec_1_TRIG_RISING    - Rising edge
1104:.\Generated_Source\PSoC4/QuadDec_1.c **** *     - QuadDec_1_TRIG_FALLING   - Falling edge
1105:.\Generated_Source\PSoC4/QuadDec_1.c **** *     - QuadDec_1_TRIG_BOTH      - Both rising and falling edge
1106:.\Generated_Source\PSoC4/QuadDec_1.c **** *
1107:.\Generated_Source\PSoC4/QuadDec_1.c **** * Return:
1108:.\Generated_Source\PSoC4/QuadDec_1.c **** *  None
1109:.\Generated_Source\PSoC4/QuadDec_1.c **** *
1110:.\Generated_Source\PSoC4/QuadDec_1.c **** *******************************************************************************/
1111:.\Generated_Source\PSoC4/QuadDec_1.c **** void QuadDec_1_SetReloadMode(uint32 triggerMode)
1112:.\Generated_Source\PSoC4/QuadDec_1.c **** {
 1383              		.loc 1 1112 0
 1384              		.cfi_startproc
 1385 0000 90B5     		push	{r4, r7, lr}
 1386              		.cfi_def_cfa_offset 12
 1387              		.cfi_offset 4, -12
 1388              		.cfi_offset 7, -8
 1389              		.cfi_offset 14, -4
 1390 0002 85B0     		sub	sp, sp, #20
 1391              		.cfi_def_cfa_offset 32
 1392 0004 00AF     		add	r7, sp, #0
 1393              		.cfi_def_cfa_register 7
 1394 0006 7860     		str	r0, [r7, #4]
1113:.\Generated_Source\PSoC4/QuadDec_1.c ****     uint8 enableInterrupts;
1114:.\Generated_Source\PSoC4/QuadDec_1.c **** 
ARM GAS  C:\DOCUME~1\Chuck\LOCALS~1\Temp\ccRWESA0.s 			page 45


1115:.\Generated_Source\PSoC4/QuadDec_1.c ****     enableInterrupts = CyEnterCriticalSection();
 1395              		.loc 1 1115 0
 1396 0008 3C1C     		mov	r4, r7
 1397 000a 0F34     		add	r4, r4, #15
 1398 000c FFF7FEFF 		bl	CyEnterCriticalSection
 1399 0010 031C     		mov	r3, r0
 1400 0012 2370     		strb	r3, [r4]
1116:.\Generated_Source\PSoC4/QuadDec_1.c **** 
1117:.\Generated_Source\PSoC4/QuadDec_1.c ****     QuadDec_1_TRIG_CONTROL1_REG &= (uint32)~QuadDec_1_RELOAD_MASK;
 1401              		.loc 1 1117 0
 1402 0014 0A4B     		ldr	r3, .L97
 1403 0016 0A4A     		ldr	r2, .L97
 1404 0018 1268     		ldr	r2, [r2]
 1405 001a 3021     		mov	r1, #48
 1406 001c 8A43     		bic	r2, r1
 1407 001e 1A60     		str	r2, [r3]
1118:.\Generated_Source\PSoC4/QuadDec_1.c ****     QuadDec_1_TRIG_CONTROL1_REG |= ((uint32)(triggerMode << QuadDec_1_RELOAD_SHIFT));
 1408              		.loc 1 1118 0
 1409 0020 074B     		ldr	r3, .L97
 1410 0022 074A     		ldr	r2, .L97
 1411 0024 1168     		ldr	r1, [r2]
 1412 0026 7A68     		ldr	r2, [r7, #4]
 1413 0028 1201     		lsl	r2, r2, #4
 1414 002a 0A43     		orr	r2, r1
 1415 002c 1A60     		str	r2, [r3]
1119:.\Generated_Source\PSoC4/QuadDec_1.c **** 
1120:.\Generated_Source\PSoC4/QuadDec_1.c ****     CyExitCriticalSection(enableInterrupts);
 1416              		.loc 1 1120 0
 1417 002e 3B1C     		mov	r3, r7
 1418 0030 0F33     		add	r3, r3, #15
 1419 0032 1B78     		ldrb	r3, [r3]
 1420 0034 181C     		mov	r0, r3
 1421 0036 FFF7FEFF 		bl	CyExitCriticalSection
1121:.\Generated_Source\PSoC4/QuadDec_1.c **** }
 1422              		.loc 1 1121 0
 1423 003a BD46     		mov	sp, r7
 1424 003c 05B0     		add	sp, sp, #20
 1425              		@ sp needed
 1426 003e 90BD     		pop	{r4, r7, pc}
 1427              	.L98:
 1428              		.align	2
 1429              	.L97:
 1430 0040 24010540 		.word	1074069796
 1431              		.cfi_endproc
 1432              	.LFE29:
 1433              		.size	QuadDec_1_SetReloadMode, .-QuadDec_1_SetReloadMode
 1434              		.section	.text.QuadDec_1_SetStartMode,"ax",%progbits
 1435              		.align	2
 1436              		.global	QuadDec_1_SetStartMode
 1437              		.code	16
 1438              		.thumb_func
 1439              		.type	QuadDec_1_SetStartMode, %function
 1440              	QuadDec_1_SetStartMode:
 1441              	.LFB30:
1122:.\Generated_Source\PSoC4/QuadDec_1.c **** 
1123:.\Generated_Source\PSoC4/QuadDec_1.c **** 
1124:.\Generated_Source\PSoC4/QuadDec_1.c **** /*******************************************************************************
ARM GAS  C:\DOCUME~1\Chuck\LOCALS~1\Temp\ccRWESA0.s 			page 46


1125:.\Generated_Source\PSoC4/QuadDec_1.c **** * Function Name: QuadDec_1_SetStartMode
1126:.\Generated_Source\PSoC4/QuadDec_1.c **** ********************************************************************************
1127:.\Generated_Source\PSoC4/QuadDec_1.c **** *
1128:.\Generated_Source\PSoC4/QuadDec_1.c **** * Summary:
1129:.\Generated_Source\PSoC4/QuadDec_1.c **** *  Sets the start trigger mode. For Quadrature Decoder mode this is the
1130:.\Generated_Source\PSoC4/QuadDec_1.c **** *  phiB input.
1131:.\Generated_Source\PSoC4/QuadDec_1.c **** *
1132:.\Generated_Source\PSoC4/QuadDec_1.c **** * Parameters:
1133:.\Generated_Source\PSoC4/QuadDec_1.c **** *  triggerMode: Enumerated trigger mode value
1134:.\Generated_Source\PSoC4/QuadDec_1.c **** *   Values:
1135:.\Generated_Source\PSoC4/QuadDec_1.c **** *     - QuadDec_1_TRIG_LEVEL     - Level
1136:.\Generated_Source\PSoC4/QuadDec_1.c **** *     - QuadDec_1_TRIG_RISING    - Rising edge
1137:.\Generated_Source\PSoC4/QuadDec_1.c **** *     - QuadDec_1_TRIG_FALLING   - Falling edge
1138:.\Generated_Source\PSoC4/QuadDec_1.c **** *     - QuadDec_1_TRIG_BOTH      - Both rising and falling edge
1139:.\Generated_Source\PSoC4/QuadDec_1.c **** *
1140:.\Generated_Source\PSoC4/QuadDec_1.c **** * Return:
1141:.\Generated_Source\PSoC4/QuadDec_1.c **** *  None
1142:.\Generated_Source\PSoC4/QuadDec_1.c **** *
1143:.\Generated_Source\PSoC4/QuadDec_1.c **** *******************************************************************************/
1144:.\Generated_Source\PSoC4/QuadDec_1.c **** void QuadDec_1_SetStartMode(uint32 triggerMode)
1145:.\Generated_Source\PSoC4/QuadDec_1.c **** {
 1442              		.loc 1 1145 0
 1443              		.cfi_startproc
 1444 0000 90B5     		push	{r4, r7, lr}
 1445              		.cfi_def_cfa_offset 12
 1446              		.cfi_offset 4, -12
 1447              		.cfi_offset 7, -8
 1448              		.cfi_offset 14, -4
 1449 0002 85B0     		sub	sp, sp, #20
 1450              		.cfi_def_cfa_offset 32
 1451 0004 00AF     		add	r7, sp, #0
 1452              		.cfi_def_cfa_register 7
 1453 0006 7860     		str	r0, [r7, #4]
1146:.\Generated_Source\PSoC4/QuadDec_1.c ****     uint8 enableInterrupts;
1147:.\Generated_Source\PSoC4/QuadDec_1.c **** 
1148:.\Generated_Source\PSoC4/QuadDec_1.c ****     enableInterrupts = CyEnterCriticalSection();
 1454              		.loc 1 1148 0
 1455 0008 3C1C     		mov	r4, r7
 1456 000a 0F34     		add	r4, r4, #15
 1457 000c FFF7FEFF 		bl	CyEnterCriticalSection
 1458 0010 031C     		mov	r3, r0
 1459 0012 2370     		strb	r3, [r4]
1149:.\Generated_Source\PSoC4/QuadDec_1.c **** 
1150:.\Generated_Source\PSoC4/QuadDec_1.c ****     QuadDec_1_TRIG_CONTROL1_REG &= (uint32)~QuadDec_1_START_MASK;
 1460              		.loc 1 1150 0
 1461 0014 0A4B     		ldr	r3, .L100
 1462 0016 0A4A     		ldr	r2, .L100
 1463 0018 1168     		ldr	r1, [r2]
 1464 001a 0A4A     		ldr	r2, .L100+4
 1465 001c 0A40     		and	r2, r1
 1466 001e 1A60     		str	r2, [r3]
1151:.\Generated_Source\PSoC4/QuadDec_1.c ****     QuadDec_1_TRIG_CONTROL1_REG |= ((uint32)(triggerMode << QuadDec_1_START_SHIFT));
 1467              		.loc 1 1151 0
 1468 0020 074B     		ldr	r3, .L100
 1469 0022 074A     		ldr	r2, .L100
 1470 0024 1168     		ldr	r1, [r2]
 1471 0026 7A68     		ldr	r2, [r7, #4]
ARM GAS  C:\DOCUME~1\Chuck\LOCALS~1\Temp\ccRWESA0.s 			page 47


 1472 0028 1202     		lsl	r2, r2, #8
 1473 002a 0A43     		orr	r2, r1
 1474 002c 1A60     		str	r2, [r3]
1152:.\Generated_Source\PSoC4/QuadDec_1.c **** 
1153:.\Generated_Source\PSoC4/QuadDec_1.c ****     CyExitCriticalSection(enableInterrupts);
 1475              		.loc 1 1153 0
 1476 002e 3B1C     		mov	r3, r7
 1477 0030 0F33     		add	r3, r3, #15
 1478 0032 1B78     		ldrb	r3, [r3]
 1479 0034 181C     		mov	r0, r3
 1480 0036 FFF7FEFF 		bl	CyExitCriticalSection
1154:.\Generated_Source\PSoC4/QuadDec_1.c **** }
 1481              		.loc 1 1154 0
 1482 003a BD46     		mov	sp, r7
 1483 003c 05B0     		add	sp, sp, #20
 1484              		@ sp needed
 1485 003e 90BD     		pop	{r4, r7, pc}
 1486              	.L101:
 1487              		.align	2
 1488              	.L100:
 1489 0040 24010540 		.word	1074069796
 1490 0044 FFFCFFFF 		.word	-769
 1491              		.cfi_endproc
 1492              	.LFE30:
 1493              		.size	QuadDec_1_SetStartMode, .-QuadDec_1_SetStartMode
 1494              		.section	.text.QuadDec_1_SetStopMode,"ax",%progbits
 1495              		.align	2
 1496              		.global	QuadDec_1_SetStopMode
 1497              		.code	16
 1498              		.thumb_func
 1499              		.type	QuadDec_1_SetStopMode, %function
 1500              	QuadDec_1_SetStopMode:
 1501              	.LFB31:
1155:.\Generated_Source\PSoC4/QuadDec_1.c **** 
1156:.\Generated_Source\PSoC4/QuadDec_1.c **** 
1157:.\Generated_Source\PSoC4/QuadDec_1.c **** /*******************************************************************************
1158:.\Generated_Source\PSoC4/QuadDec_1.c **** * Function Name: QuadDec_1_SetStopMode
1159:.\Generated_Source\PSoC4/QuadDec_1.c **** ********************************************************************************
1160:.\Generated_Source\PSoC4/QuadDec_1.c **** *
1161:.\Generated_Source\PSoC4/QuadDec_1.c **** * Summary:
1162:.\Generated_Source\PSoC4/QuadDec_1.c **** *  Sets the stop trigger mode. For PWM mode this is the kill input.
1163:.\Generated_Source\PSoC4/QuadDec_1.c **** *
1164:.\Generated_Source\PSoC4/QuadDec_1.c **** * Parameters:
1165:.\Generated_Source\PSoC4/QuadDec_1.c **** *  triggerMode: Enumerated trigger mode value
1166:.\Generated_Source\PSoC4/QuadDec_1.c **** *   Values:
1167:.\Generated_Source\PSoC4/QuadDec_1.c **** *     - QuadDec_1_TRIG_LEVEL     - Level
1168:.\Generated_Source\PSoC4/QuadDec_1.c **** *     - QuadDec_1_TRIG_RISING    - Rising edge
1169:.\Generated_Source\PSoC4/QuadDec_1.c **** *     - QuadDec_1_TRIG_FALLING   - Falling edge
1170:.\Generated_Source\PSoC4/QuadDec_1.c **** *     - QuadDec_1_TRIG_BOTH      - Both rising and falling edge
1171:.\Generated_Source\PSoC4/QuadDec_1.c **** *
1172:.\Generated_Source\PSoC4/QuadDec_1.c **** * Return:
1173:.\Generated_Source\PSoC4/QuadDec_1.c **** *  None
1174:.\Generated_Source\PSoC4/QuadDec_1.c **** *
1175:.\Generated_Source\PSoC4/QuadDec_1.c **** *******************************************************************************/
1176:.\Generated_Source\PSoC4/QuadDec_1.c **** void QuadDec_1_SetStopMode(uint32 triggerMode)
1177:.\Generated_Source\PSoC4/QuadDec_1.c **** {
 1502              		.loc 1 1177 0
ARM GAS  C:\DOCUME~1\Chuck\LOCALS~1\Temp\ccRWESA0.s 			page 48


 1503              		.cfi_startproc
 1504 0000 90B5     		push	{r4, r7, lr}
 1505              		.cfi_def_cfa_offset 12
 1506              		.cfi_offset 4, -12
 1507              		.cfi_offset 7, -8
 1508              		.cfi_offset 14, -4
 1509 0002 85B0     		sub	sp, sp, #20
 1510              		.cfi_def_cfa_offset 32
 1511 0004 00AF     		add	r7, sp, #0
 1512              		.cfi_def_cfa_register 7
 1513 0006 7860     		str	r0, [r7, #4]
1178:.\Generated_Source\PSoC4/QuadDec_1.c ****     uint8 enableInterrupts;
1179:.\Generated_Source\PSoC4/QuadDec_1.c **** 
1180:.\Generated_Source\PSoC4/QuadDec_1.c ****     enableInterrupts = CyEnterCriticalSection();
 1514              		.loc 1 1180 0
 1515 0008 3C1C     		mov	r4, r7
 1516 000a 0F34     		add	r4, r4, #15
 1517 000c FFF7FEFF 		bl	CyEnterCriticalSection
 1518 0010 031C     		mov	r3, r0
 1519 0012 2370     		strb	r3, [r4]
1181:.\Generated_Source\PSoC4/QuadDec_1.c **** 
1182:.\Generated_Source\PSoC4/QuadDec_1.c ****     QuadDec_1_TRIG_CONTROL1_REG &= (uint32)~QuadDec_1_STOP_MASK;
 1520              		.loc 1 1182 0
 1521 0014 0A4B     		ldr	r3, .L103
 1522 0016 0A4A     		ldr	r2, .L103
 1523 0018 1268     		ldr	r2, [r2]
 1524 001a C021     		mov	r1, #192
 1525 001c 8A43     		bic	r2, r1
 1526 001e 1A60     		str	r2, [r3]
1183:.\Generated_Source\PSoC4/QuadDec_1.c ****     QuadDec_1_TRIG_CONTROL1_REG |= ((uint32)(triggerMode << QuadDec_1_STOP_SHIFT));
 1527              		.loc 1 1183 0
 1528 0020 074B     		ldr	r3, .L103
 1529 0022 074A     		ldr	r2, .L103
 1530 0024 1168     		ldr	r1, [r2]
 1531 0026 7A68     		ldr	r2, [r7, #4]
 1532 0028 9201     		lsl	r2, r2, #6
 1533 002a 0A43     		orr	r2, r1
 1534 002c 1A60     		str	r2, [r3]
1184:.\Generated_Source\PSoC4/QuadDec_1.c **** 
1185:.\Generated_Source\PSoC4/QuadDec_1.c ****     CyExitCriticalSection(enableInterrupts);
 1535              		.loc 1 1185 0
 1536 002e 3B1C     		mov	r3, r7
 1537 0030 0F33     		add	r3, r3, #15
 1538 0032 1B78     		ldrb	r3, [r3]
 1539 0034 181C     		mov	r0, r3
 1540 0036 FFF7FEFF 		bl	CyExitCriticalSection
1186:.\Generated_Source\PSoC4/QuadDec_1.c **** }
 1541              		.loc 1 1186 0
 1542 003a BD46     		mov	sp, r7
 1543 003c 05B0     		add	sp, sp, #20
 1544              		@ sp needed
 1545 003e 90BD     		pop	{r4, r7, pc}
 1546              	.L104:
 1547              		.align	2
 1548              	.L103:
 1549 0040 24010540 		.word	1074069796
 1550              		.cfi_endproc
ARM GAS  C:\DOCUME~1\Chuck\LOCALS~1\Temp\ccRWESA0.s 			page 49


 1551              	.LFE31:
 1552              		.size	QuadDec_1_SetStopMode, .-QuadDec_1_SetStopMode
 1553              		.section	.text.QuadDec_1_SetCountMode,"ax",%progbits
 1554              		.align	2
 1555              		.global	QuadDec_1_SetCountMode
 1556              		.code	16
 1557              		.thumb_func
 1558              		.type	QuadDec_1_SetCountMode, %function
 1559              	QuadDec_1_SetCountMode:
 1560              	.LFB32:
1187:.\Generated_Source\PSoC4/QuadDec_1.c **** 
1188:.\Generated_Source\PSoC4/QuadDec_1.c **** 
1189:.\Generated_Source\PSoC4/QuadDec_1.c **** /*******************************************************************************
1190:.\Generated_Source\PSoC4/QuadDec_1.c **** * Function Name: QuadDec_1_SetCountMode
1191:.\Generated_Source\PSoC4/QuadDec_1.c **** ********************************************************************************
1192:.\Generated_Source\PSoC4/QuadDec_1.c **** *
1193:.\Generated_Source\PSoC4/QuadDec_1.c **** * Summary:
1194:.\Generated_Source\PSoC4/QuadDec_1.c **** *  Sets the count trigger mode. For Quadrature Decoder mode this is the phiA
1195:.\Generated_Source\PSoC4/QuadDec_1.c **** *  input.
1196:.\Generated_Source\PSoC4/QuadDec_1.c **** *
1197:.\Generated_Source\PSoC4/QuadDec_1.c **** * Parameters:
1198:.\Generated_Source\PSoC4/QuadDec_1.c **** *  triggerMode: Enumerated trigger mode value
1199:.\Generated_Source\PSoC4/QuadDec_1.c **** *   Values:
1200:.\Generated_Source\PSoC4/QuadDec_1.c **** *     - QuadDec_1_TRIG_LEVEL     - Level
1201:.\Generated_Source\PSoC4/QuadDec_1.c **** *     - QuadDec_1_TRIG_RISING    - Rising edge
1202:.\Generated_Source\PSoC4/QuadDec_1.c **** *     - QuadDec_1_TRIG_FALLING   - Falling edge
1203:.\Generated_Source\PSoC4/QuadDec_1.c **** *     - QuadDec_1_TRIG_BOTH      - Both rising and falling edge
1204:.\Generated_Source\PSoC4/QuadDec_1.c **** *
1205:.\Generated_Source\PSoC4/QuadDec_1.c **** * Return:
1206:.\Generated_Source\PSoC4/QuadDec_1.c **** *  None
1207:.\Generated_Source\PSoC4/QuadDec_1.c **** *
1208:.\Generated_Source\PSoC4/QuadDec_1.c **** *******************************************************************************/
1209:.\Generated_Source\PSoC4/QuadDec_1.c **** void QuadDec_1_SetCountMode(uint32 triggerMode)
1210:.\Generated_Source\PSoC4/QuadDec_1.c **** {
 1561              		.loc 1 1210 0
 1562              		.cfi_startproc
 1563 0000 90B5     		push	{r4, r7, lr}
 1564              		.cfi_def_cfa_offset 12
 1565              		.cfi_offset 4, -12
 1566              		.cfi_offset 7, -8
 1567              		.cfi_offset 14, -4
 1568 0002 85B0     		sub	sp, sp, #20
 1569              		.cfi_def_cfa_offset 32
 1570 0004 00AF     		add	r7, sp, #0
 1571              		.cfi_def_cfa_register 7
 1572 0006 7860     		str	r0, [r7, #4]
1211:.\Generated_Source\PSoC4/QuadDec_1.c ****     uint8 enableInterrupts;
1212:.\Generated_Source\PSoC4/QuadDec_1.c **** 
1213:.\Generated_Source\PSoC4/QuadDec_1.c ****     enableInterrupts = CyEnterCriticalSection();
 1573              		.loc 1 1213 0
 1574 0008 3C1C     		mov	r4, r7
 1575 000a 0F34     		add	r4, r4, #15
 1576 000c FFF7FEFF 		bl	CyEnterCriticalSection
 1577 0010 031C     		mov	r3, r0
 1578 0012 2370     		strb	r3, [r4]
1214:.\Generated_Source\PSoC4/QuadDec_1.c **** 
1215:.\Generated_Source\PSoC4/QuadDec_1.c ****     QuadDec_1_TRIG_CONTROL1_REG &= (uint32)~QuadDec_1_COUNT_MASK;
ARM GAS  C:\DOCUME~1\Chuck\LOCALS~1\Temp\ccRWESA0.s 			page 50


 1579              		.loc 1 1215 0
 1580 0014 0A4B     		ldr	r3, .L106
 1581 0016 0A4A     		ldr	r2, .L106
 1582 0018 1268     		ldr	r2, [r2]
 1583 001a 0C21     		mov	r1, #12
 1584 001c 8A43     		bic	r2, r1
 1585 001e 1A60     		str	r2, [r3]
1216:.\Generated_Source\PSoC4/QuadDec_1.c ****     QuadDec_1_TRIG_CONTROL1_REG |= ((uint32)(triggerMode << QuadDec_1_COUNT_SHIFT));
 1586              		.loc 1 1216 0
 1587 0020 074B     		ldr	r3, .L106
 1588 0022 074A     		ldr	r2, .L106
 1589 0024 1168     		ldr	r1, [r2]
 1590 0026 7A68     		ldr	r2, [r7, #4]
 1591 0028 9200     		lsl	r2, r2, #2
 1592 002a 0A43     		orr	r2, r1
 1593 002c 1A60     		str	r2, [r3]
1217:.\Generated_Source\PSoC4/QuadDec_1.c **** 
1218:.\Generated_Source\PSoC4/QuadDec_1.c ****     CyExitCriticalSection(enableInterrupts);
 1594              		.loc 1 1218 0
 1595 002e 3B1C     		mov	r3, r7
 1596 0030 0F33     		add	r3, r3, #15
 1597 0032 1B78     		ldrb	r3, [r3]
 1598 0034 181C     		mov	r0, r3
 1599 0036 FFF7FEFF 		bl	CyExitCriticalSection
1219:.\Generated_Source\PSoC4/QuadDec_1.c **** }
 1600              		.loc 1 1219 0
 1601 003a BD46     		mov	sp, r7
 1602 003c 05B0     		add	sp, sp, #20
 1603              		@ sp needed
 1604 003e 90BD     		pop	{r4, r7, pc}
 1605              	.L107:
 1606              		.align	2
 1607              	.L106:
 1608 0040 24010540 		.word	1074069796
 1609              		.cfi_endproc
 1610              	.LFE32:
 1611              		.size	QuadDec_1_SetCountMode, .-QuadDec_1_SetCountMode
 1612              		.section	.text.QuadDec_1_TriggerCommand,"ax",%progbits
 1613              		.align	2
 1614              		.global	QuadDec_1_TriggerCommand
 1615              		.code	16
 1616              		.thumb_func
 1617              		.type	QuadDec_1_TriggerCommand, %function
 1618              	QuadDec_1_TriggerCommand:
 1619              	.LFB33:
1220:.\Generated_Source\PSoC4/QuadDec_1.c **** 
1221:.\Generated_Source\PSoC4/QuadDec_1.c **** 
1222:.\Generated_Source\PSoC4/QuadDec_1.c **** /*******************************************************************************
1223:.\Generated_Source\PSoC4/QuadDec_1.c **** * Function Name: QuadDec_1_TriggerCommand
1224:.\Generated_Source\PSoC4/QuadDec_1.c **** ********************************************************************************
1225:.\Generated_Source\PSoC4/QuadDec_1.c **** *
1226:.\Generated_Source\PSoC4/QuadDec_1.c **** * Summary:
1227:.\Generated_Source\PSoC4/QuadDec_1.c **** *  Triggers the designated command to occur on the designated TCPWM instances.
1228:.\Generated_Source\PSoC4/QuadDec_1.c **** *  The mask can be used to apply this command simultaneously to more than one
1229:.\Generated_Source\PSoC4/QuadDec_1.c **** *  instance.  This allows multiple TCPWM instances to be synchronized.
1230:.\Generated_Source\PSoC4/QuadDec_1.c **** *
1231:.\Generated_Source\PSoC4/QuadDec_1.c **** * Parameters:
ARM GAS  C:\DOCUME~1\Chuck\LOCALS~1\Temp\ccRWESA0.s 			page 51


1232:.\Generated_Source\PSoC4/QuadDec_1.c **** *  mask: A combination of mask bits for each instance of the TCPWM that the
1233:.\Generated_Source\PSoC4/QuadDec_1.c **** *        command should apply to.  This function from one instance can be used
1234:.\Generated_Source\PSoC4/QuadDec_1.c **** *        to apply the command to any of the instances in the design.
1235:.\Generated_Source\PSoC4/QuadDec_1.c **** *        The mask value for a specific instance is available with the MASK
1236:.\Generated_Source\PSoC4/QuadDec_1.c **** *        define.
1237:.\Generated_Source\PSoC4/QuadDec_1.c **** *  command: Enumerated command values. Capture command only applicable for
1238:.\Generated_Source\PSoC4/QuadDec_1.c **** *           Timer/Counter with Capture and PWM modes.
1239:.\Generated_Source\PSoC4/QuadDec_1.c **** *   Values:
1240:.\Generated_Source\PSoC4/QuadDec_1.c **** *     - QuadDec_1_CMD_CAPTURE    - Trigger Capture command
1241:.\Generated_Source\PSoC4/QuadDec_1.c **** *     - QuadDec_1_CMD_RELOAD     - Trigger Reload command
1242:.\Generated_Source\PSoC4/QuadDec_1.c **** *     - QuadDec_1_CMD_STOP       - Trigger Stop command
1243:.\Generated_Source\PSoC4/QuadDec_1.c **** *     - QuadDec_1_CMD_START      - Trigger Start command
1244:.\Generated_Source\PSoC4/QuadDec_1.c **** *
1245:.\Generated_Source\PSoC4/QuadDec_1.c **** * Return:
1246:.\Generated_Source\PSoC4/QuadDec_1.c **** *  None
1247:.\Generated_Source\PSoC4/QuadDec_1.c **** *
1248:.\Generated_Source\PSoC4/QuadDec_1.c **** *******************************************************************************/
1249:.\Generated_Source\PSoC4/QuadDec_1.c **** void QuadDec_1_TriggerCommand(uint32 mask, uint32 command)
1250:.\Generated_Source\PSoC4/QuadDec_1.c **** {
 1620              		.loc 1 1250 0
 1621              		.cfi_startproc
 1622 0000 90B5     		push	{r4, r7, lr}
 1623              		.cfi_def_cfa_offset 12
 1624              		.cfi_offset 4, -12
 1625              		.cfi_offset 7, -8
 1626              		.cfi_offset 14, -4
 1627 0002 85B0     		sub	sp, sp, #20
 1628              		.cfi_def_cfa_offset 32
 1629 0004 00AF     		add	r7, sp, #0
 1630              		.cfi_def_cfa_register 7
 1631 0006 7860     		str	r0, [r7, #4]
 1632 0008 3960     		str	r1, [r7]
1251:.\Generated_Source\PSoC4/QuadDec_1.c ****     uint8 enableInterrupts;
1252:.\Generated_Source\PSoC4/QuadDec_1.c **** 
1253:.\Generated_Source\PSoC4/QuadDec_1.c ****     enableInterrupts = CyEnterCriticalSection();
 1633              		.loc 1 1253 0
 1634 000a 3C1C     		mov	r4, r7
 1635 000c 0F34     		add	r4, r4, #15
 1636 000e FFF7FEFF 		bl	CyEnterCriticalSection
 1637 0012 031C     		mov	r3, r0
 1638 0014 2370     		strb	r3, [r4]
1254:.\Generated_Source\PSoC4/QuadDec_1.c **** 
1255:.\Generated_Source\PSoC4/QuadDec_1.c ****     QuadDec_1_COMMAND_REG = ((uint32)(mask << command));
 1639              		.loc 1 1255 0
 1640 0016 084B     		ldr	r3, .L109
 1641 0018 3A68     		ldr	r2, [r7]
 1642 001a 7968     		ldr	r1, [r7, #4]
 1643 001c 081C     		mov	r0, r1
 1644 001e 9040     		lsl	r0, r0, r2
 1645 0020 021C     		mov	r2, r0
 1646 0022 1A60     		str	r2, [r3]
1256:.\Generated_Source\PSoC4/QuadDec_1.c **** 
1257:.\Generated_Source\PSoC4/QuadDec_1.c ****     CyExitCriticalSection(enableInterrupts);
 1647              		.loc 1 1257 0
 1648 0024 3B1C     		mov	r3, r7
 1649 0026 0F33     		add	r3, r3, #15
 1650 0028 1B78     		ldrb	r3, [r3]
ARM GAS  C:\DOCUME~1\Chuck\LOCALS~1\Temp\ccRWESA0.s 			page 52


 1651 002a 181C     		mov	r0, r3
 1652 002c FFF7FEFF 		bl	CyExitCriticalSection
1258:.\Generated_Source\PSoC4/QuadDec_1.c **** }
 1653              		.loc 1 1258 0
 1654 0030 BD46     		mov	sp, r7
 1655 0032 05B0     		add	sp, sp, #20
 1656              		@ sp needed
 1657 0034 90BD     		pop	{r4, r7, pc}
 1658              	.L110:
 1659 0036 C046     		.align	2
 1660              	.L109:
 1661 0038 08000540 		.word	1074069512
 1662              		.cfi_endproc
 1663              	.LFE33:
 1664              		.size	QuadDec_1_TriggerCommand, .-QuadDec_1_TriggerCommand
 1665              		.section	.text.QuadDec_1_ReadStatus,"ax",%progbits
 1666              		.align	2
 1667              		.global	QuadDec_1_ReadStatus
 1668              		.code	16
 1669              		.thumb_func
 1670              		.type	QuadDec_1_ReadStatus, %function
 1671              	QuadDec_1_ReadStatus:
 1672              	.LFB34:
1259:.\Generated_Source\PSoC4/QuadDec_1.c **** 
1260:.\Generated_Source\PSoC4/QuadDec_1.c **** 
1261:.\Generated_Source\PSoC4/QuadDec_1.c **** /*******************************************************************************
1262:.\Generated_Source\PSoC4/QuadDec_1.c **** * Function Name: QuadDec_1_ReadStatus
1263:.\Generated_Source\PSoC4/QuadDec_1.c **** ********************************************************************************
1264:.\Generated_Source\PSoC4/QuadDec_1.c **** *
1265:.\Generated_Source\PSoC4/QuadDec_1.c **** * Summary:
1266:.\Generated_Source\PSoC4/QuadDec_1.c **** *  Reads the status of the QuadDec_1.
1267:.\Generated_Source\PSoC4/QuadDec_1.c **** *
1268:.\Generated_Source\PSoC4/QuadDec_1.c **** * Parameters:
1269:.\Generated_Source\PSoC4/QuadDec_1.c **** *  None
1270:.\Generated_Source\PSoC4/QuadDec_1.c **** *
1271:.\Generated_Source\PSoC4/QuadDec_1.c **** * Return:
1272:.\Generated_Source\PSoC4/QuadDec_1.c **** *  Status
1273:.\Generated_Source\PSoC4/QuadDec_1.c **** *   Values:
1274:.\Generated_Source\PSoC4/QuadDec_1.c **** *     - QuadDec_1_STATUS_DOWN    - Set if counting down
1275:.\Generated_Source\PSoC4/QuadDec_1.c **** *     - QuadDec_1_STATUS_RUNNING - Set if counter is running
1276:.\Generated_Source\PSoC4/QuadDec_1.c **** *
1277:.\Generated_Source\PSoC4/QuadDec_1.c **** *******************************************************************************/
1278:.\Generated_Source\PSoC4/QuadDec_1.c **** uint32 QuadDec_1_ReadStatus(void)
1279:.\Generated_Source\PSoC4/QuadDec_1.c **** {
 1673              		.loc 1 1279 0
 1674              		.cfi_startproc
 1675 0000 80B5     		push	{r7, lr}
 1676              		.cfi_def_cfa_offset 8
 1677              		.cfi_offset 7, -8
 1678              		.cfi_offset 14, -4
 1679 0002 00AF     		add	r7, sp, #0
 1680              		.cfi_def_cfa_register 7
1280:.\Generated_Source\PSoC4/QuadDec_1.c ****     return ((QuadDec_1_STATUS_REG >> QuadDec_1_RUNNING_STATUS_SHIFT) |
 1681              		.loc 1 1280 0
 1682 0004 054B     		ldr	r3, .L113
 1683 0006 1B68     		ldr	r3, [r3]
 1684 0008 9A0F     		lsr	r2, r3, #30
ARM GAS  C:\DOCUME~1\Chuck\LOCALS~1\Temp\ccRWESA0.s 			page 53


1281:.\Generated_Source\PSoC4/QuadDec_1.c ****             (QuadDec_1_STATUS_REG & QuadDec_1_STATUS_DOWN));
 1685              		.loc 1 1281 0
 1686 000a 044B     		ldr	r3, .L113
 1687 000c 1968     		ldr	r1, [r3]
 1688 000e 0123     		mov	r3, #1
 1689 0010 0B40     		and	r3, r1
1280:.\Generated_Source\PSoC4/QuadDec_1.c ****     return ((QuadDec_1_STATUS_REG >> QuadDec_1_RUNNING_STATUS_SHIFT) |
 1690              		.loc 1 1280 0
 1691 0012 1343     		orr	r3, r2
1282:.\Generated_Source\PSoC4/QuadDec_1.c **** }
 1692              		.loc 1 1282 0
 1693 0014 181C     		mov	r0, r3
 1694 0016 BD46     		mov	sp, r7
 1695              		@ sp needed
 1696 0018 80BD     		pop	{r7, pc}
 1697              	.L114:
 1698 001a C046     		.align	2
 1699              	.L113:
 1700 001c 04010540 		.word	1074069764
 1701              		.cfi_endproc
 1702              	.LFE34:
 1703              		.size	QuadDec_1_ReadStatus, .-QuadDec_1_ReadStatus
 1704              		.section	.text.QuadDec_1_SetInterruptMode,"ax",%progbits
 1705              		.align	2
 1706              		.global	QuadDec_1_SetInterruptMode
 1707              		.code	16
 1708              		.thumb_func
 1709              		.type	QuadDec_1_SetInterruptMode, %function
 1710              	QuadDec_1_SetInterruptMode:
 1711              	.LFB35:
1283:.\Generated_Source\PSoC4/QuadDec_1.c **** 
1284:.\Generated_Source\PSoC4/QuadDec_1.c **** 
1285:.\Generated_Source\PSoC4/QuadDec_1.c **** /*******************************************************************************
1286:.\Generated_Source\PSoC4/QuadDec_1.c **** * Function Name: QuadDec_1_SetInterruptMode
1287:.\Generated_Source\PSoC4/QuadDec_1.c **** ********************************************************************************
1288:.\Generated_Source\PSoC4/QuadDec_1.c **** *
1289:.\Generated_Source\PSoC4/QuadDec_1.c **** * Summary:
1290:.\Generated_Source\PSoC4/QuadDec_1.c **** *  Sets the interrupt mask to control which interrupt
1291:.\Generated_Source\PSoC4/QuadDec_1.c **** *  requests generate the interrupt signal.
1292:.\Generated_Source\PSoC4/QuadDec_1.c **** *
1293:.\Generated_Source\PSoC4/QuadDec_1.c **** * Parameters:
1294:.\Generated_Source\PSoC4/QuadDec_1.c **** *   interruptMask: Mask of bits to be enabled
1295:.\Generated_Source\PSoC4/QuadDec_1.c **** *   Values:
1296:.\Generated_Source\PSoC4/QuadDec_1.c **** *     - QuadDec_1_INTR_MASK_TC       - Terminal count mask
1297:.\Generated_Source\PSoC4/QuadDec_1.c **** *     - QuadDec_1_INTR_MASK_CC_MATCH - Compare count / capture mask
1298:.\Generated_Source\PSoC4/QuadDec_1.c **** *
1299:.\Generated_Source\PSoC4/QuadDec_1.c **** * Return:
1300:.\Generated_Source\PSoC4/QuadDec_1.c **** *  None
1301:.\Generated_Source\PSoC4/QuadDec_1.c **** *
1302:.\Generated_Source\PSoC4/QuadDec_1.c **** *******************************************************************************/
1303:.\Generated_Source\PSoC4/QuadDec_1.c **** void QuadDec_1_SetInterruptMode(uint32 interruptMask)
1304:.\Generated_Source\PSoC4/QuadDec_1.c **** {
 1712              		.loc 1 1304 0
 1713              		.cfi_startproc
 1714 0000 80B5     		push	{r7, lr}
 1715              		.cfi_def_cfa_offset 8
 1716              		.cfi_offset 7, -8
ARM GAS  C:\DOCUME~1\Chuck\LOCALS~1\Temp\ccRWESA0.s 			page 54


 1717              		.cfi_offset 14, -4
 1718 0002 82B0     		sub	sp, sp, #8
 1719              		.cfi_def_cfa_offset 16
 1720 0004 00AF     		add	r7, sp, #0
 1721              		.cfi_def_cfa_register 7
 1722 0006 7860     		str	r0, [r7, #4]
1305:.\Generated_Source\PSoC4/QuadDec_1.c ****     QuadDec_1_INTERRUPT_MASK_REG =  interruptMask;
 1723              		.loc 1 1305 0
 1724 0008 024B     		ldr	r3, .L116
 1725 000a 7A68     		ldr	r2, [r7, #4]
 1726 000c 1A60     		str	r2, [r3]
1306:.\Generated_Source\PSoC4/QuadDec_1.c **** }
 1727              		.loc 1 1306 0
 1728 000e BD46     		mov	sp, r7
 1729 0010 02B0     		add	sp, sp, #8
 1730              		@ sp needed
 1731 0012 80BD     		pop	{r7, pc}
 1732              	.L117:
 1733              		.align	2
 1734              	.L116:
 1735 0014 38010540 		.word	1074069816
 1736              		.cfi_endproc
 1737              	.LFE35:
 1738              		.size	QuadDec_1_SetInterruptMode, .-QuadDec_1_SetInterruptMode
 1739              		.section	.text.QuadDec_1_GetInterruptSourceMasked,"ax",%progbits
 1740              		.align	2
 1741              		.global	QuadDec_1_GetInterruptSourceMasked
 1742              		.code	16
 1743              		.thumb_func
 1744              		.type	QuadDec_1_GetInterruptSourceMasked, %function
 1745              	QuadDec_1_GetInterruptSourceMasked:
 1746              	.LFB36:
1307:.\Generated_Source\PSoC4/QuadDec_1.c **** 
1308:.\Generated_Source\PSoC4/QuadDec_1.c **** 
1309:.\Generated_Source\PSoC4/QuadDec_1.c **** /*******************************************************************************
1310:.\Generated_Source\PSoC4/QuadDec_1.c **** * Function Name: QuadDec_1_GetInterruptSourceMasked
1311:.\Generated_Source\PSoC4/QuadDec_1.c **** ********************************************************************************
1312:.\Generated_Source\PSoC4/QuadDec_1.c **** *
1313:.\Generated_Source\PSoC4/QuadDec_1.c **** * Summary:
1314:.\Generated_Source\PSoC4/QuadDec_1.c **** *  Gets the interrupt requests masked by the interrupt mask.
1315:.\Generated_Source\PSoC4/QuadDec_1.c **** *
1316:.\Generated_Source\PSoC4/QuadDec_1.c **** * Parameters:
1317:.\Generated_Source\PSoC4/QuadDec_1.c **** *   None
1318:.\Generated_Source\PSoC4/QuadDec_1.c **** *
1319:.\Generated_Source\PSoC4/QuadDec_1.c **** * Return:
1320:.\Generated_Source\PSoC4/QuadDec_1.c **** *  Masked interrupt source
1321:.\Generated_Source\PSoC4/QuadDec_1.c **** *   Values:
1322:.\Generated_Source\PSoC4/QuadDec_1.c **** *     - QuadDec_1_INTR_MASK_TC       - Terminal count mask
1323:.\Generated_Source\PSoC4/QuadDec_1.c **** *     - QuadDec_1_INTR_MASK_CC_MATCH - Compare count / capture mask
1324:.\Generated_Source\PSoC4/QuadDec_1.c **** *
1325:.\Generated_Source\PSoC4/QuadDec_1.c **** *******************************************************************************/
1326:.\Generated_Source\PSoC4/QuadDec_1.c **** uint32 QuadDec_1_GetInterruptSourceMasked(void)
1327:.\Generated_Source\PSoC4/QuadDec_1.c **** {
 1747              		.loc 1 1327 0
 1748              		.cfi_startproc
 1749 0000 80B5     		push	{r7, lr}
 1750              		.cfi_def_cfa_offset 8
ARM GAS  C:\DOCUME~1\Chuck\LOCALS~1\Temp\ccRWESA0.s 			page 55


 1751              		.cfi_offset 7, -8
 1752              		.cfi_offset 14, -4
 1753 0002 00AF     		add	r7, sp, #0
 1754              		.cfi_def_cfa_register 7
1328:.\Generated_Source\PSoC4/QuadDec_1.c ****     return (QuadDec_1_INTERRUPT_MASKED_REG);
 1755              		.loc 1 1328 0
 1756 0004 024B     		ldr	r3, .L120
 1757 0006 1B68     		ldr	r3, [r3]
1329:.\Generated_Source\PSoC4/QuadDec_1.c **** }
 1758              		.loc 1 1329 0
 1759 0008 181C     		mov	r0, r3
 1760 000a BD46     		mov	sp, r7
 1761              		@ sp needed
 1762 000c 80BD     		pop	{r7, pc}
 1763              	.L121:
 1764 000e C046     		.align	2
 1765              	.L120:
 1766 0010 3C010540 		.word	1074069820
 1767              		.cfi_endproc
 1768              	.LFE36:
 1769              		.size	QuadDec_1_GetInterruptSourceMasked, .-QuadDec_1_GetInterruptSourceMasked
 1770              		.section	.text.QuadDec_1_GetInterruptSource,"ax",%progbits
 1771              		.align	2
 1772              		.global	QuadDec_1_GetInterruptSource
 1773              		.code	16
 1774              		.thumb_func
 1775              		.type	QuadDec_1_GetInterruptSource, %function
 1776              	QuadDec_1_GetInterruptSource:
 1777              	.LFB37:
1330:.\Generated_Source\PSoC4/QuadDec_1.c **** 
1331:.\Generated_Source\PSoC4/QuadDec_1.c **** 
1332:.\Generated_Source\PSoC4/QuadDec_1.c **** /*******************************************************************************
1333:.\Generated_Source\PSoC4/QuadDec_1.c **** * Function Name: QuadDec_1_GetInterruptSource
1334:.\Generated_Source\PSoC4/QuadDec_1.c **** ********************************************************************************
1335:.\Generated_Source\PSoC4/QuadDec_1.c **** *
1336:.\Generated_Source\PSoC4/QuadDec_1.c **** * Summary:
1337:.\Generated_Source\PSoC4/QuadDec_1.c **** *  Gets the interrupt requests (without masking).
1338:.\Generated_Source\PSoC4/QuadDec_1.c **** *
1339:.\Generated_Source\PSoC4/QuadDec_1.c **** * Parameters:
1340:.\Generated_Source\PSoC4/QuadDec_1.c **** *  None
1341:.\Generated_Source\PSoC4/QuadDec_1.c **** *
1342:.\Generated_Source\PSoC4/QuadDec_1.c **** * Return:
1343:.\Generated_Source\PSoC4/QuadDec_1.c **** *  Interrupt request value
1344:.\Generated_Source\PSoC4/QuadDec_1.c **** *   Values:
1345:.\Generated_Source\PSoC4/QuadDec_1.c **** *     - QuadDec_1_INTR_MASK_TC       - Terminal count mask
1346:.\Generated_Source\PSoC4/QuadDec_1.c **** *     - QuadDec_1_INTR_MASK_CC_MATCH - Compare count / capture mask
1347:.\Generated_Source\PSoC4/QuadDec_1.c **** *
1348:.\Generated_Source\PSoC4/QuadDec_1.c **** *******************************************************************************/
1349:.\Generated_Source\PSoC4/QuadDec_1.c **** uint32 QuadDec_1_GetInterruptSource(void)
1350:.\Generated_Source\PSoC4/QuadDec_1.c **** {
 1778              		.loc 1 1350 0
 1779              		.cfi_startproc
 1780 0000 80B5     		push	{r7, lr}
 1781              		.cfi_def_cfa_offset 8
 1782              		.cfi_offset 7, -8
 1783              		.cfi_offset 14, -4
 1784 0002 00AF     		add	r7, sp, #0
ARM GAS  C:\DOCUME~1\Chuck\LOCALS~1\Temp\ccRWESA0.s 			page 56


 1785              		.cfi_def_cfa_register 7
1351:.\Generated_Source\PSoC4/QuadDec_1.c ****     return (QuadDec_1_INTERRUPT_REQ_REG);
 1786              		.loc 1 1351 0
 1787 0004 024B     		ldr	r3, .L124
 1788 0006 1B68     		ldr	r3, [r3]
1352:.\Generated_Source\PSoC4/QuadDec_1.c **** }
 1789              		.loc 1 1352 0
 1790 0008 181C     		mov	r0, r3
 1791 000a BD46     		mov	sp, r7
 1792              		@ sp needed
 1793 000c 80BD     		pop	{r7, pc}
 1794              	.L125:
 1795 000e C046     		.align	2
 1796              	.L124:
 1797 0010 30010540 		.word	1074069808
 1798              		.cfi_endproc
 1799              	.LFE37:
 1800              		.size	QuadDec_1_GetInterruptSource, .-QuadDec_1_GetInterruptSource
 1801              		.section	.text.QuadDec_1_ClearInterrupt,"ax",%progbits
 1802              		.align	2
 1803              		.global	QuadDec_1_ClearInterrupt
 1804              		.code	16
 1805              		.thumb_func
 1806              		.type	QuadDec_1_ClearInterrupt, %function
 1807              	QuadDec_1_ClearInterrupt:
 1808              	.LFB38:
1353:.\Generated_Source\PSoC4/QuadDec_1.c **** 
1354:.\Generated_Source\PSoC4/QuadDec_1.c **** 
1355:.\Generated_Source\PSoC4/QuadDec_1.c **** /*******************************************************************************
1356:.\Generated_Source\PSoC4/QuadDec_1.c **** * Function Name: QuadDec_1_ClearInterrupt
1357:.\Generated_Source\PSoC4/QuadDec_1.c **** ********************************************************************************
1358:.\Generated_Source\PSoC4/QuadDec_1.c **** *
1359:.\Generated_Source\PSoC4/QuadDec_1.c **** * Summary:
1360:.\Generated_Source\PSoC4/QuadDec_1.c **** *  Clears the interrupt request.
1361:.\Generated_Source\PSoC4/QuadDec_1.c **** *
1362:.\Generated_Source\PSoC4/QuadDec_1.c **** * Parameters:
1363:.\Generated_Source\PSoC4/QuadDec_1.c **** *   interruptMask: Mask of interrupts to clear
1364:.\Generated_Source\PSoC4/QuadDec_1.c **** *   Values:
1365:.\Generated_Source\PSoC4/QuadDec_1.c **** *     - QuadDec_1_INTR_MASK_TC       - Terminal count mask
1366:.\Generated_Source\PSoC4/QuadDec_1.c **** *     - QuadDec_1_INTR_MASK_CC_MATCH - Compare count / capture mask
1367:.\Generated_Source\PSoC4/QuadDec_1.c **** *
1368:.\Generated_Source\PSoC4/QuadDec_1.c **** * Return:
1369:.\Generated_Source\PSoC4/QuadDec_1.c **** *  None
1370:.\Generated_Source\PSoC4/QuadDec_1.c **** *
1371:.\Generated_Source\PSoC4/QuadDec_1.c **** *******************************************************************************/
1372:.\Generated_Source\PSoC4/QuadDec_1.c **** void QuadDec_1_ClearInterrupt(uint32 interruptMask)
1373:.\Generated_Source\PSoC4/QuadDec_1.c **** {
 1809              		.loc 1 1373 0
 1810              		.cfi_startproc
 1811 0000 80B5     		push	{r7, lr}
 1812              		.cfi_def_cfa_offset 8
 1813              		.cfi_offset 7, -8
 1814              		.cfi_offset 14, -4
 1815 0002 82B0     		sub	sp, sp, #8
 1816              		.cfi_def_cfa_offset 16
 1817 0004 00AF     		add	r7, sp, #0
 1818              		.cfi_def_cfa_register 7
ARM GAS  C:\DOCUME~1\Chuck\LOCALS~1\Temp\ccRWESA0.s 			page 57


 1819 0006 7860     		str	r0, [r7, #4]
1374:.\Generated_Source\PSoC4/QuadDec_1.c ****     QuadDec_1_INTERRUPT_REQ_REG = interruptMask;
 1820              		.loc 1 1374 0
 1821 0008 024B     		ldr	r3, .L127
 1822 000a 7A68     		ldr	r2, [r7, #4]
 1823 000c 1A60     		str	r2, [r3]
1375:.\Generated_Source\PSoC4/QuadDec_1.c **** }
 1824              		.loc 1 1375 0
 1825 000e BD46     		mov	sp, r7
 1826 0010 02B0     		add	sp, sp, #8
 1827              		@ sp needed
 1828 0012 80BD     		pop	{r7, pc}
 1829              	.L128:
 1830              		.align	2
 1831              	.L127:
 1832 0014 30010540 		.word	1074069808
 1833              		.cfi_endproc
 1834              	.LFE38:
 1835              		.size	QuadDec_1_ClearInterrupt, .-QuadDec_1_ClearInterrupt
 1836              		.section	.text.QuadDec_1_SetInterrupt,"ax",%progbits
 1837              		.align	2
 1838              		.global	QuadDec_1_SetInterrupt
 1839              		.code	16
 1840              		.thumb_func
 1841              		.type	QuadDec_1_SetInterrupt, %function
 1842              	QuadDec_1_SetInterrupt:
 1843              	.LFB39:
1376:.\Generated_Source\PSoC4/QuadDec_1.c **** 
1377:.\Generated_Source\PSoC4/QuadDec_1.c **** 
1378:.\Generated_Source\PSoC4/QuadDec_1.c **** /*******************************************************************************
1379:.\Generated_Source\PSoC4/QuadDec_1.c **** * Function Name: QuadDec_1_SetInterrupt
1380:.\Generated_Source\PSoC4/QuadDec_1.c **** ********************************************************************************
1381:.\Generated_Source\PSoC4/QuadDec_1.c **** *
1382:.\Generated_Source\PSoC4/QuadDec_1.c **** * Summary:
1383:.\Generated_Source\PSoC4/QuadDec_1.c **** *  Sets a software interrupt request.
1384:.\Generated_Source\PSoC4/QuadDec_1.c **** *
1385:.\Generated_Source\PSoC4/QuadDec_1.c **** * Parameters:
1386:.\Generated_Source\PSoC4/QuadDec_1.c **** *   interruptMask: Mask of interrupts to set
1387:.\Generated_Source\PSoC4/QuadDec_1.c **** *   Values:
1388:.\Generated_Source\PSoC4/QuadDec_1.c **** *     - QuadDec_1_INTR_MASK_TC       - Terminal count mask
1389:.\Generated_Source\PSoC4/QuadDec_1.c **** *     - QuadDec_1_INTR_MASK_CC_MATCH - Compare count / capture mask
1390:.\Generated_Source\PSoC4/QuadDec_1.c **** *
1391:.\Generated_Source\PSoC4/QuadDec_1.c **** * Return:
1392:.\Generated_Source\PSoC4/QuadDec_1.c **** *  None
1393:.\Generated_Source\PSoC4/QuadDec_1.c **** *
1394:.\Generated_Source\PSoC4/QuadDec_1.c **** *******************************************************************************/
1395:.\Generated_Source\PSoC4/QuadDec_1.c **** void QuadDec_1_SetInterrupt(uint32 interruptMask)
1396:.\Generated_Source\PSoC4/QuadDec_1.c **** {
 1844              		.loc 1 1396 0
 1845              		.cfi_startproc
 1846 0000 80B5     		push	{r7, lr}
 1847              		.cfi_def_cfa_offset 8
 1848              		.cfi_offset 7, -8
 1849              		.cfi_offset 14, -4
 1850 0002 82B0     		sub	sp, sp, #8
 1851              		.cfi_def_cfa_offset 16
 1852 0004 00AF     		add	r7, sp, #0
ARM GAS  C:\DOCUME~1\Chuck\LOCALS~1\Temp\ccRWESA0.s 			page 58


 1853              		.cfi_def_cfa_register 7
 1854 0006 7860     		str	r0, [r7, #4]
1397:.\Generated_Source\PSoC4/QuadDec_1.c ****     QuadDec_1_INTERRUPT_SET_REG = interruptMask;
 1855              		.loc 1 1397 0
 1856 0008 024B     		ldr	r3, .L130
 1857 000a 7A68     		ldr	r2, [r7, #4]
 1858 000c 1A60     		str	r2, [r3]
1398:.\Generated_Source\PSoC4/QuadDec_1.c **** }
 1859              		.loc 1 1398 0
 1860 000e BD46     		mov	sp, r7
 1861 0010 02B0     		add	sp, sp, #8
 1862              		@ sp needed
 1863 0012 80BD     		pop	{r7, pc}
 1864              	.L131:
 1865              		.align	2
 1866              	.L130:
 1867 0014 34010540 		.word	1074069812
 1868              		.cfi_endproc
 1869              	.LFE39:
 1870              		.size	QuadDec_1_SetInterrupt, .-QuadDec_1_SetInterrupt
 1871              		.text
 1872              	.Letext0:
 1873              		.file 2 ".\\Generated_Source\\PSoC4\\cytypes.h"