ARM GAS  C:\DOCUME~1\Chuck\LOCALS~1\Temp\ccn4arI2.s 			page 1


   1              		.cpu cortex-m0
   2              		.fpu softvfp
   3              		.eabi_attribute 20, 1
   4              		.eabi_attribute 21, 1
   5              		.eabi_attribute 23, 3
   6              		.eabi_attribute 24, 1
   7              		.eabi_attribute 25, 1
   8              		.eabi_attribute 26, 1
   9              		.eabi_attribute 30, 6
  10              		.eabi_attribute 34, 0
  11              		.eabi_attribute 18, 4
  12              		.code	16
  13              		.file	"ROSSerial_UART_SPI_UART.c"
  14              		.text
  15              	.Ltext0:
  16              		.cfi_sections	.debug_frame
  17              		.comm	ROSSerial_UART_rxBufferHead,4,4
  18              		.comm	ROSSerial_UART_rxBufferTail,4,4
  19              		.comm	ROSSerial_UART_rxBufferOverflow,1,1
  20              		.comm	ROSSerial_UART_txBufferHead,4,4
  21              		.comm	ROSSerial_UART_txBufferTail,4,4
  22              		.comm	ROSSerial_UART_rxBufferInternal,65,4
  23              		.comm	ROSSerial_UART_txBufferInternal,128,4
  24              		.section	.text.ROSSerial_UART_SpiUartReadRxData,"ax",%progbits
  25              		.align	2
  26              		.global	ROSSerial_UART_SpiUartReadRxData
  27              		.code	16
  28              		.thumb_func
  29              		.type	ROSSerial_UART_SpiUartReadRxData, %function
  30              	ROSSerial_UART_SpiUartReadRxData:
  31              	.LFB0:
  32              		.file 1 ".\\Generated_Source\\PSoC4\\ROSSerial_UART_SPI_UART.c"
   1:.\Generated_Source\PSoC4/ROSSerial_UART_SPI_UART.c **** /*******************************************************************************
   2:.\Generated_Source\PSoC4/ROSSerial_UART_SPI_UART.c **** * File Name: ROSSerial_UART_SPI_UART.c
   3:.\Generated_Source\PSoC4/ROSSerial_UART_SPI_UART.c **** * Version 1.20
   4:.\Generated_Source\PSoC4/ROSSerial_UART_SPI_UART.c **** *
   5:.\Generated_Source\PSoC4/ROSSerial_UART_SPI_UART.c **** * Description:
   6:.\Generated_Source\PSoC4/ROSSerial_UART_SPI_UART.c **** *  This file provides the source code to the API for the SCB Component in
   7:.\Generated_Source\PSoC4/ROSSerial_UART_SPI_UART.c **** *  SPI and UART modes.
   8:.\Generated_Source\PSoC4/ROSSerial_UART_SPI_UART.c **** *
   9:.\Generated_Source\PSoC4/ROSSerial_UART_SPI_UART.c **** * Note:
  10:.\Generated_Source\PSoC4/ROSSerial_UART_SPI_UART.c **** *
  11:.\Generated_Source\PSoC4/ROSSerial_UART_SPI_UART.c **** *******************************************************************************
  12:.\Generated_Source\PSoC4/ROSSerial_UART_SPI_UART.c **** * Copyright 2013-2014, Cypress Semiconductor Corporation.  All rights reserved.
  13:.\Generated_Source\PSoC4/ROSSerial_UART_SPI_UART.c **** * You may use this file only in accordance with the license, terms, conditions,
  14:.\Generated_Source\PSoC4/ROSSerial_UART_SPI_UART.c **** * disclaimers, and limitations in the end user license agreement accompanying
  15:.\Generated_Source\PSoC4/ROSSerial_UART_SPI_UART.c **** * the software package with which this file was provided.
  16:.\Generated_Source\PSoC4/ROSSerial_UART_SPI_UART.c **** *******************************************************************************/
  17:.\Generated_Source\PSoC4/ROSSerial_UART_SPI_UART.c **** 
  18:.\Generated_Source\PSoC4/ROSSerial_UART_SPI_UART.c **** #include "ROSSerial_UART_PVT.h"
  19:.\Generated_Source\PSoC4/ROSSerial_UART_SPI_UART.c **** #include "ROSSerial_UART_SPI_UART_PVT.h"
  20:.\Generated_Source\PSoC4/ROSSerial_UART_SPI_UART.c **** 
  21:.\Generated_Source\PSoC4/ROSSerial_UART_SPI_UART.c **** /***************************************
  22:.\Generated_Source\PSoC4/ROSSerial_UART_SPI_UART.c **** *        SPI/UART Private Vars
  23:.\Generated_Source\PSoC4/ROSSerial_UART_SPI_UART.c **** ***************************************/
  24:.\Generated_Source\PSoC4/ROSSerial_UART_SPI_UART.c **** 
  25:.\Generated_Source\PSoC4/ROSSerial_UART_SPI_UART.c **** #if(ROSSerial_UART_INTERNAL_RX_SW_BUFFER_CONST)
ARM GAS  C:\DOCUME~1\Chuck\LOCALS~1\Temp\ccn4arI2.s 			page 2


  26:.\Generated_Source\PSoC4/ROSSerial_UART_SPI_UART.c ****     volatile uint32 ROSSerial_UART_rxBufferHead;
  27:.\Generated_Source\PSoC4/ROSSerial_UART_SPI_UART.c ****     volatile uint32 ROSSerial_UART_rxBufferTail;
  28:.\Generated_Source\PSoC4/ROSSerial_UART_SPI_UART.c ****     volatile uint8  ROSSerial_UART_rxBufferOverflow;
  29:.\Generated_Source\PSoC4/ROSSerial_UART_SPI_UART.c **** #endif /* (ROSSerial_UART_INTERNAL_RX_SW_BUFFER_CONST) */
  30:.\Generated_Source\PSoC4/ROSSerial_UART_SPI_UART.c **** 
  31:.\Generated_Source\PSoC4/ROSSerial_UART_SPI_UART.c **** #if(ROSSerial_UART_INTERNAL_TX_SW_BUFFER_CONST)
  32:.\Generated_Source\PSoC4/ROSSerial_UART_SPI_UART.c ****     volatile uint32 ROSSerial_UART_txBufferHead;
  33:.\Generated_Source\PSoC4/ROSSerial_UART_SPI_UART.c ****     volatile uint32 ROSSerial_UART_txBufferTail;
  34:.\Generated_Source\PSoC4/ROSSerial_UART_SPI_UART.c **** #endif /* (ROSSerial_UART_INTERNAL_TX_SW_BUFFER_CONST) */
  35:.\Generated_Source\PSoC4/ROSSerial_UART_SPI_UART.c **** 
  36:.\Generated_Source\PSoC4/ROSSerial_UART_SPI_UART.c **** #if(ROSSerial_UART_INTERNAL_RX_SW_BUFFER)
  37:.\Generated_Source\PSoC4/ROSSerial_UART_SPI_UART.c ****     /* Add one element to the buffer to receive full packet. One byte in receive buffer is always e
  38:.\Generated_Source\PSoC4/ROSSerial_UART_SPI_UART.c ****     volatile uint8 ROSSerial_UART_rxBufferInternal[ROSSerial_UART_RX_BUFFER_SIZE];
  39:.\Generated_Source\PSoC4/ROSSerial_UART_SPI_UART.c **** #endif /* (ROSSerial_UART_INTERNAL_RX_SW_BUFFER) */
  40:.\Generated_Source\PSoC4/ROSSerial_UART_SPI_UART.c **** 
  41:.\Generated_Source\PSoC4/ROSSerial_UART_SPI_UART.c **** #if(ROSSerial_UART_INTERNAL_TX_SW_BUFFER)
  42:.\Generated_Source\PSoC4/ROSSerial_UART_SPI_UART.c ****     volatile uint8 ROSSerial_UART_txBufferInternal[ROSSerial_UART_TX_BUFFER_SIZE];
  43:.\Generated_Source\PSoC4/ROSSerial_UART_SPI_UART.c **** #endif /* (ROSSerial_UART_INTERNAL_TX_SW_BUFFER) */
  44:.\Generated_Source\PSoC4/ROSSerial_UART_SPI_UART.c **** 
  45:.\Generated_Source\PSoC4/ROSSerial_UART_SPI_UART.c **** 
  46:.\Generated_Source\PSoC4/ROSSerial_UART_SPI_UART.c **** #if(ROSSerial_UART_RX_DIRECTION)
  47:.\Generated_Source\PSoC4/ROSSerial_UART_SPI_UART.c **** 
  48:.\Generated_Source\PSoC4/ROSSerial_UART_SPI_UART.c ****     /*******************************************************************************
  49:.\Generated_Source\PSoC4/ROSSerial_UART_SPI_UART.c ****     * Function Name: ROSSerial_UART_SpiUartReadRxData
  50:.\Generated_Source\PSoC4/ROSSerial_UART_SPI_UART.c ****     ********************************************************************************
  51:.\Generated_Source\PSoC4/ROSSerial_UART_SPI_UART.c ****     *
  52:.\Generated_Source\PSoC4/ROSSerial_UART_SPI_UART.c ****     * Summary:
  53:.\Generated_Source\PSoC4/ROSSerial_UART_SPI_UART.c ****     *  Retrieves the next data element from the receive buffer.
  54:.\Generated_Source\PSoC4/ROSSerial_UART_SPI_UART.c ****     *   - RX software buffer is disabled: Returns data element retrieved from
  55:.\Generated_Source\PSoC4/ROSSerial_UART_SPI_UART.c ****     *     RX FIFO. Undefined data will be returned if the RX FIFO is empty.
  56:.\Generated_Source\PSoC4/ROSSerial_UART_SPI_UART.c ****     *   - RX software buffer is enabled: Returns data element from the software
  57:.\Generated_Source\PSoC4/ROSSerial_UART_SPI_UART.c ****     *     receive buffer. Zero value is returned if the software receive buffer
  58:.\Generated_Source\PSoC4/ROSSerial_UART_SPI_UART.c ****     *     is empty.
  59:.\Generated_Source\PSoC4/ROSSerial_UART_SPI_UART.c ****     *
  60:.\Generated_Source\PSoC4/ROSSerial_UART_SPI_UART.c ****     * Parameters:
  61:.\Generated_Source\PSoC4/ROSSerial_UART_SPI_UART.c ****     *  None
  62:.\Generated_Source\PSoC4/ROSSerial_UART_SPI_UART.c ****     *
  63:.\Generated_Source\PSoC4/ROSSerial_UART_SPI_UART.c ****     * Return:
  64:.\Generated_Source\PSoC4/ROSSerial_UART_SPI_UART.c ****     *  Next data element from the receive buffer.
  65:.\Generated_Source\PSoC4/ROSSerial_UART_SPI_UART.c ****     *
  66:.\Generated_Source\PSoC4/ROSSerial_UART_SPI_UART.c ****     * Global Variables:
  67:.\Generated_Source\PSoC4/ROSSerial_UART_SPI_UART.c ****     *  Look into ROSSerial_UART_SpiInit for description.
  68:.\Generated_Source\PSoC4/ROSSerial_UART_SPI_UART.c ****     *
  69:.\Generated_Source\PSoC4/ROSSerial_UART_SPI_UART.c ****     *******************************************************************************/
  70:.\Generated_Source\PSoC4/ROSSerial_UART_SPI_UART.c ****     uint32 ROSSerial_UART_SpiUartReadRxData(void)
  71:.\Generated_Source\PSoC4/ROSSerial_UART_SPI_UART.c ****     {
  33              		.loc 1 71 0
  34              		.cfi_startproc
  35 0000 80B5     		push	{r7, lr}
  36              		.cfi_def_cfa_offset 8
  37              		.cfi_offset 7, -8
  38              		.cfi_offset 14, -4
  39 0002 82B0     		sub	sp, sp, #8
  40              		.cfi_def_cfa_offset 16
  41 0004 00AF     		add	r7, sp, #0
  42              		.cfi_def_cfa_register 7
  72:.\Generated_Source\PSoC4/ROSSerial_UART_SPI_UART.c ****         uint32 rxData = 0u;
ARM GAS  C:\DOCUME~1\Chuck\LOCALS~1\Temp\ccn4arI2.s 			page 3


  43              		.loc 1 72 0
  44 0006 0023     		mov	r3, #0
  45 0008 7B60     		str	r3, [r7, #4]
  73:.\Generated_Source\PSoC4/ROSSerial_UART_SPI_UART.c **** 
  74:.\Generated_Source\PSoC4/ROSSerial_UART_SPI_UART.c ****         #if(ROSSerial_UART_INTERNAL_RX_SW_BUFFER_CONST)
  75:.\Generated_Source\PSoC4/ROSSerial_UART_SPI_UART.c ****             uint32 locTail;
  76:.\Generated_Source\PSoC4/ROSSerial_UART_SPI_UART.c ****         #endif /* (ROSSerial_UART_INTERNAL_RX_SW_BUFFER_CONST) */
  77:.\Generated_Source\PSoC4/ROSSerial_UART_SPI_UART.c **** 
  78:.\Generated_Source\PSoC4/ROSSerial_UART_SPI_UART.c ****         #if(ROSSerial_UART_CHECK_RX_SW_BUFFER)
  79:.\Generated_Source\PSoC4/ROSSerial_UART_SPI_UART.c ****         {
  80:.\Generated_Source\PSoC4/ROSSerial_UART_SPI_UART.c ****             if(ROSSerial_UART_rxBufferHead != ROSSerial_UART_rxBufferTail)
  46              		.loc 1 80 0
  47 000a 0E4B     		ldr	r3, .L5
  48 000c 1A68     		ldr	r2, [r3]
  49 000e 0E4B     		ldr	r3, .L5+4
  50 0010 1B68     		ldr	r3, [r3]
  51 0012 9A42     		cmp	r2, r3
  52 0014 11D0     		beq	.L2
  81:.\Generated_Source\PSoC4/ROSSerial_UART_SPI_UART.c ****             {
  82:.\Generated_Source\PSoC4/ROSSerial_UART_SPI_UART.c ****                 /* There is data in RX software buffer */
  83:.\Generated_Source\PSoC4/ROSSerial_UART_SPI_UART.c **** 
  84:.\Generated_Source\PSoC4/ROSSerial_UART_SPI_UART.c ****                 /* Calculate index to read from */
  85:.\Generated_Source\PSoC4/ROSSerial_UART_SPI_UART.c ****                 locTail = (ROSSerial_UART_rxBufferTail + 1u);
  53              		.loc 1 85 0
  54 0016 0C4B     		ldr	r3, .L5+4
  55 0018 1B68     		ldr	r3, [r3]
  56 001a 0133     		add	r3, r3, #1
  57 001c 3B60     		str	r3, [r7]
  86:.\Generated_Source\PSoC4/ROSSerial_UART_SPI_UART.c **** 
  87:.\Generated_Source\PSoC4/ROSSerial_UART_SPI_UART.c ****                 if(ROSSerial_UART_RX_BUFFER_SIZE == locTail)
  58              		.loc 1 87 0
  59 001e 3B68     		ldr	r3, [r7]
  60 0020 412B     		cmp	r3, #65
  61 0022 01D1     		bne	.L3
  88:.\Generated_Source\PSoC4/ROSSerial_UART_SPI_UART.c ****                 {
  89:.\Generated_Source\PSoC4/ROSSerial_UART_SPI_UART.c ****                     locTail = 0u;
  62              		.loc 1 89 0
  63 0024 0023     		mov	r3, #0
  64 0026 3B60     		str	r3, [r7]
  65              	.L3:
  90:.\Generated_Source\PSoC4/ROSSerial_UART_SPI_UART.c ****                 }
  91:.\Generated_Source\PSoC4/ROSSerial_UART_SPI_UART.c **** 
  92:.\Generated_Source\PSoC4/ROSSerial_UART_SPI_UART.c ****                 /* Get data from RX software buffer */
  93:.\Generated_Source\PSoC4/ROSSerial_UART_SPI_UART.c ****                 rxData = ROSSerial_UART_GetWordFromRxBuffer(locTail);
  66              		.loc 1 93 0
  67 0028 084A     		ldr	r2, .L5+8
  68 002a 3B68     		ldr	r3, [r7]
  69 002c D318     		add	r3, r2, r3
  70 002e 1B78     		ldrb	r3, [r3]
  71 0030 DBB2     		uxtb	r3, r3
  72 0032 7B60     		str	r3, [r7, #4]
  94:.\Generated_Source\PSoC4/ROSSerial_UART_SPI_UART.c **** 
  95:.\Generated_Source\PSoC4/ROSSerial_UART_SPI_UART.c ****                 /* Change index in the buffer */
  96:.\Generated_Source\PSoC4/ROSSerial_UART_SPI_UART.c ****                 ROSSerial_UART_rxBufferTail = locTail;
  73              		.loc 1 96 0
  74 0034 044B     		ldr	r3, .L5+4
  75 0036 3A68     		ldr	r2, [r7]
ARM GAS  C:\DOCUME~1\Chuck\LOCALS~1\Temp\ccn4arI2.s 			page 4


  76 0038 1A60     		str	r2, [r3]
  77              	.L2:
  97:.\Generated_Source\PSoC4/ROSSerial_UART_SPI_UART.c ****             }
  98:.\Generated_Source\PSoC4/ROSSerial_UART_SPI_UART.c ****         }
  99:.\Generated_Source\PSoC4/ROSSerial_UART_SPI_UART.c ****         #else
 100:.\Generated_Source\PSoC4/ROSSerial_UART_SPI_UART.c ****         {
 101:.\Generated_Source\PSoC4/ROSSerial_UART_SPI_UART.c ****             rxData = ROSSerial_UART_RX_FIFO_RD_REG; /* Read data from RX FIFO */
 102:.\Generated_Source\PSoC4/ROSSerial_UART_SPI_UART.c ****         }
 103:.\Generated_Source\PSoC4/ROSSerial_UART_SPI_UART.c ****         #endif
 104:.\Generated_Source\PSoC4/ROSSerial_UART_SPI_UART.c **** 
 105:.\Generated_Source\PSoC4/ROSSerial_UART_SPI_UART.c ****         return(rxData);
  78              		.loc 1 105 0
  79 003a 7B68     		ldr	r3, [r7, #4]
 106:.\Generated_Source\PSoC4/ROSSerial_UART_SPI_UART.c ****     }
  80              		.loc 1 106 0
  81 003c 181C     		mov	r0, r3
  82 003e BD46     		mov	sp, r7
  83 0040 02B0     		add	sp, sp, #8
  84              		@ sp needed
  85 0042 80BD     		pop	{r7, pc}
  86              	.L6:
  87              		.align	2
  88              	.L5:
  89 0044 00000000 		.word	ROSSerial_UART_rxBufferHead
  90 0048 00000000 		.word	ROSSerial_UART_rxBufferTail
  91 004c 00000000 		.word	ROSSerial_UART_rxBufferInternal
  92              		.cfi_endproc
  93              	.LFE0:
  94              		.size	ROSSerial_UART_SpiUartReadRxData, .-ROSSerial_UART_SpiUartReadRxData
  95              		.section	.text.ROSSerial_UART_SpiUartGetRxBufferSize,"ax",%progbits
  96              		.align	2
  97              		.global	ROSSerial_UART_SpiUartGetRxBufferSize
  98              		.code	16
  99              		.thumb_func
 100              		.type	ROSSerial_UART_SpiUartGetRxBufferSize, %function
 101              	ROSSerial_UART_SpiUartGetRxBufferSize:
 102              	.LFB1:
 107:.\Generated_Source\PSoC4/ROSSerial_UART_SPI_UART.c **** 
 108:.\Generated_Source\PSoC4/ROSSerial_UART_SPI_UART.c **** 
 109:.\Generated_Source\PSoC4/ROSSerial_UART_SPI_UART.c ****     /*******************************************************************************
 110:.\Generated_Source\PSoC4/ROSSerial_UART_SPI_UART.c ****     * Function Name: ROSSerial_UART_SpiUartGetRxBufferSize
 111:.\Generated_Source\PSoC4/ROSSerial_UART_SPI_UART.c ****     ********************************************************************************
 112:.\Generated_Source\PSoC4/ROSSerial_UART_SPI_UART.c ****     *
 113:.\Generated_Source\PSoC4/ROSSerial_UART_SPI_UART.c ****     * Summary:
 114:.\Generated_Source\PSoC4/ROSSerial_UART_SPI_UART.c ****     *  Returns the number of received data elements in the receive buffer.
 115:.\Generated_Source\PSoC4/ROSSerial_UART_SPI_UART.c ****     *   - RX software buffer disabled: returns the number of used entries in
 116:.\Generated_Source\PSoC4/ROSSerial_UART_SPI_UART.c ****     *     RX FIFO.
 117:.\Generated_Source\PSoC4/ROSSerial_UART_SPI_UART.c ****     *   - RX software buffer enabled: returns the number of elements which were
 118:.\Generated_Source\PSoC4/ROSSerial_UART_SPI_UART.c ****     *     placed in the receive buffer.
 119:.\Generated_Source\PSoC4/ROSSerial_UART_SPI_UART.c ****     *
 120:.\Generated_Source\PSoC4/ROSSerial_UART_SPI_UART.c ****     * Parameters:
 121:.\Generated_Source\PSoC4/ROSSerial_UART_SPI_UART.c ****     *  None
 122:.\Generated_Source\PSoC4/ROSSerial_UART_SPI_UART.c ****     *
 123:.\Generated_Source\PSoC4/ROSSerial_UART_SPI_UART.c ****     * Return:
 124:.\Generated_Source\PSoC4/ROSSerial_UART_SPI_UART.c ****     *  Number of received data elements
 125:.\Generated_Source\PSoC4/ROSSerial_UART_SPI_UART.c ****     *
 126:.\Generated_Source\PSoC4/ROSSerial_UART_SPI_UART.c ****     *******************************************************************************/
ARM GAS  C:\DOCUME~1\Chuck\LOCALS~1\Temp\ccn4arI2.s 			page 5


 127:.\Generated_Source\PSoC4/ROSSerial_UART_SPI_UART.c ****     uint32 ROSSerial_UART_SpiUartGetRxBufferSize(void)
 128:.\Generated_Source\PSoC4/ROSSerial_UART_SPI_UART.c ****     {
 103              		.loc 1 128 0
 104              		.cfi_startproc
 105 0000 80B5     		push	{r7, lr}
 106              		.cfi_def_cfa_offset 8
 107              		.cfi_offset 7, -8
 108              		.cfi_offset 14, -4
 109 0002 82B0     		sub	sp, sp, #8
 110              		.cfi_def_cfa_offset 16
 111 0004 00AF     		add	r7, sp, #0
 112              		.cfi_def_cfa_register 7
 129:.\Generated_Source\PSoC4/ROSSerial_UART_SPI_UART.c ****         uint32 size;
 130:.\Generated_Source\PSoC4/ROSSerial_UART_SPI_UART.c ****         #if(ROSSerial_UART_INTERNAL_RX_SW_BUFFER_CONST)
 131:.\Generated_Source\PSoC4/ROSSerial_UART_SPI_UART.c ****             uint32 locHead;
 132:.\Generated_Source\PSoC4/ROSSerial_UART_SPI_UART.c ****         #endif /* (ROSSerial_UART_INTERNAL_RX_SW_BUFFER_CONST) */
 133:.\Generated_Source\PSoC4/ROSSerial_UART_SPI_UART.c **** 
 134:.\Generated_Source\PSoC4/ROSSerial_UART_SPI_UART.c ****         #if(ROSSerial_UART_CHECK_RX_SW_BUFFER)
 135:.\Generated_Source\PSoC4/ROSSerial_UART_SPI_UART.c ****         {
 136:.\Generated_Source\PSoC4/ROSSerial_UART_SPI_UART.c ****             locHead = ROSSerial_UART_rxBufferHead;
 113              		.loc 1 136 0
 114 0006 0C4B     		ldr	r3, .L11
 115 0008 1B68     		ldr	r3, [r3]
 116 000a 3B60     		str	r3, [r7]
 137:.\Generated_Source\PSoC4/ROSSerial_UART_SPI_UART.c **** 
 138:.\Generated_Source\PSoC4/ROSSerial_UART_SPI_UART.c ****             if(locHead >= ROSSerial_UART_rxBufferTail)
 117              		.loc 1 138 0
 118 000c 0B4B     		ldr	r3, .L11+4
 119 000e 1B68     		ldr	r3, [r3]
 120 0010 3A68     		ldr	r2, [r7]
 121 0012 9A42     		cmp	r2, r3
 122 0014 05D3     		bcc	.L8
 139:.\Generated_Source\PSoC4/ROSSerial_UART_SPI_UART.c ****             {
 140:.\Generated_Source\PSoC4/ROSSerial_UART_SPI_UART.c ****                 size = (locHead - ROSSerial_UART_rxBufferTail);
 123              		.loc 1 140 0
 124 0016 094B     		ldr	r3, .L11+4
 125 0018 1B68     		ldr	r3, [r3]
 126 001a 3A68     		ldr	r2, [r7]
 127 001c D31A     		sub	r3, r2, r3
 128 001e 7B60     		str	r3, [r7, #4]
 129 0020 05E0     		b	.L9
 130              	.L8:
 141:.\Generated_Source\PSoC4/ROSSerial_UART_SPI_UART.c ****             }
 142:.\Generated_Source\PSoC4/ROSSerial_UART_SPI_UART.c ****             else
 143:.\Generated_Source\PSoC4/ROSSerial_UART_SPI_UART.c ****             {
 144:.\Generated_Source\PSoC4/ROSSerial_UART_SPI_UART.c ****                 size = (locHead + (ROSSerial_UART_RX_BUFFER_SIZE - ROSSerial_UART_rxBufferTail));
 131              		.loc 1 144 0
 132 0022 064B     		ldr	r3, .L11+4
 133 0024 1B68     		ldr	r3, [r3]
 134 0026 3A68     		ldr	r2, [r7]
 135 0028 D31A     		sub	r3, r2, r3
 136 002a 4133     		add	r3, r3, #65
 137 002c 7B60     		str	r3, [r7, #4]
 138              	.L9:
 145:.\Generated_Source\PSoC4/ROSSerial_UART_SPI_UART.c ****             }
 146:.\Generated_Source\PSoC4/ROSSerial_UART_SPI_UART.c ****         }
 147:.\Generated_Source\PSoC4/ROSSerial_UART_SPI_UART.c ****         #else
ARM GAS  C:\DOCUME~1\Chuck\LOCALS~1\Temp\ccn4arI2.s 			page 6


 148:.\Generated_Source\PSoC4/ROSSerial_UART_SPI_UART.c ****         {
 149:.\Generated_Source\PSoC4/ROSSerial_UART_SPI_UART.c ****             size = ROSSerial_UART_GET_RX_FIFO_ENTRIES;
 150:.\Generated_Source\PSoC4/ROSSerial_UART_SPI_UART.c ****         }
 151:.\Generated_Source\PSoC4/ROSSerial_UART_SPI_UART.c ****         #endif
 152:.\Generated_Source\PSoC4/ROSSerial_UART_SPI_UART.c **** 
 153:.\Generated_Source\PSoC4/ROSSerial_UART_SPI_UART.c ****         return(size);
 139              		.loc 1 153 0
 140 002e 7B68     		ldr	r3, [r7, #4]
 154:.\Generated_Source\PSoC4/ROSSerial_UART_SPI_UART.c ****     }
 141              		.loc 1 154 0
 142 0030 181C     		mov	r0, r3
 143 0032 BD46     		mov	sp, r7
 144 0034 02B0     		add	sp, sp, #8
 145              		@ sp needed
 146 0036 80BD     		pop	{r7, pc}
 147              	.L12:
 148              		.align	2
 149              	.L11:
 150 0038 00000000 		.word	ROSSerial_UART_rxBufferHead
 151 003c 00000000 		.word	ROSSerial_UART_rxBufferTail
 152              		.cfi_endproc
 153              	.LFE1:
 154              		.size	ROSSerial_UART_SpiUartGetRxBufferSize, .-ROSSerial_UART_SpiUartGetRxBufferSize
 155              		.section	.text.ROSSerial_UART_SpiUartClearRxBuffer,"ax",%progbits
 156              		.align	2
 157              		.global	ROSSerial_UART_SpiUartClearRxBuffer
 158              		.code	16
 159              		.thumb_func
 160              		.type	ROSSerial_UART_SpiUartClearRxBuffer, %function
 161              	ROSSerial_UART_SpiUartClearRxBuffer:
 162              	.LFB2:
 155:.\Generated_Source\PSoC4/ROSSerial_UART_SPI_UART.c **** 
 156:.\Generated_Source\PSoC4/ROSSerial_UART_SPI_UART.c **** 
 157:.\Generated_Source\PSoC4/ROSSerial_UART_SPI_UART.c ****     /*******************************************************************************
 158:.\Generated_Source\PSoC4/ROSSerial_UART_SPI_UART.c ****     * Function Name: ROSSerial_UART_SpiUartClearRxBuffer
 159:.\Generated_Source\PSoC4/ROSSerial_UART_SPI_UART.c ****     ********************************************************************************
 160:.\Generated_Source\PSoC4/ROSSerial_UART_SPI_UART.c ****     *
 161:.\Generated_Source\PSoC4/ROSSerial_UART_SPI_UART.c ****     * Summary:
 162:.\Generated_Source\PSoC4/ROSSerial_UART_SPI_UART.c ****     *  Clears the receive buffer and RX FIFO.
 163:.\Generated_Source\PSoC4/ROSSerial_UART_SPI_UART.c ****     *
 164:.\Generated_Source\PSoC4/ROSSerial_UART_SPI_UART.c ****     * Parameters:
 165:.\Generated_Source\PSoC4/ROSSerial_UART_SPI_UART.c ****     *  None
 166:.\Generated_Source\PSoC4/ROSSerial_UART_SPI_UART.c ****     *
 167:.\Generated_Source\PSoC4/ROSSerial_UART_SPI_UART.c ****     * Return:
 168:.\Generated_Source\PSoC4/ROSSerial_UART_SPI_UART.c ****     *  None
 169:.\Generated_Source\PSoC4/ROSSerial_UART_SPI_UART.c ****     *
 170:.\Generated_Source\PSoC4/ROSSerial_UART_SPI_UART.c ****     *******************************************************************************/
 171:.\Generated_Source\PSoC4/ROSSerial_UART_SPI_UART.c ****     void ROSSerial_UART_SpiUartClearRxBuffer(void)
 172:.\Generated_Source\PSoC4/ROSSerial_UART_SPI_UART.c ****     {
 163              		.loc 1 172 0
 164              		.cfi_startproc
 165 0000 80B5     		push	{r7, lr}
 166              		.cfi_def_cfa_offset 8
 167              		.cfi_offset 7, -8
 168              		.cfi_offset 14, -4
 169 0002 82B0     		sub	sp, sp, #8
 170              		.cfi_def_cfa_offset 16
ARM GAS  C:\DOCUME~1\Chuck\LOCALS~1\Temp\ccn4arI2.s 			page 7


 171 0004 00AF     		add	r7, sp, #0
 172              		.cfi_def_cfa_register 7
 173:.\Generated_Source\PSoC4/ROSSerial_UART_SPI_UART.c ****         #if(ROSSerial_UART_INTERNAL_RX_SW_BUFFER_CONST)
 174:.\Generated_Source\PSoC4/ROSSerial_UART_SPI_UART.c ****             uint32 intSourceMask;
 175:.\Generated_Source\PSoC4/ROSSerial_UART_SPI_UART.c ****         #endif /* (ROSSerial_UART_INTERNAL_RX_SW_BUFFER_CONST) */
 176:.\Generated_Source\PSoC4/ROSSerial_UART_SPI_UART.c **** 
 177:.\Generated_Source\PSoC4/ROSSerial_UART_SPI_UART.c ****         #if(ROSSerial_UART_CHECK_RX_SW_BUFFER)
 178:.\Generated_Source\PSoC4/ROSSerial_UART_SPI_UART.c ****         {
 179:.\Generated_Source\PSoC4/ROSSerial_UART_SPI_UART.c ****             intSourceMask = ROSSerial_UART_SpiUartDisableIntRx();
 173              		.loc 1 179 0
 174 0006 FFF7FEFF 		bl	ROSSerial_UART_SpiUartDisableIntRx
 175 000a 031C     		mov	r3, r0
 176 000c 7B60     		str	r3, [r7, #4]
 180:.\Generated_Source\PSoC4/ROSSerial_UART_SPI_UART.c **** 
 181:.\Generated_Source\PSoC4/ROSSerial_UART_SPI_UART.c ****             ROSSerial_UART_CLEAR_RX_FIFO;
 177              		.loc 1 181 0
 178 000e 0E4B     		ldr	r3, .L14
 179 0010 0D4A     		ldr	r2, .L14
 180 0012 1268     		ldr	r2, [r2]
 181 0014 8021     		mov	r1, #128
 182 0016 4902     		lsl	r1, r1, #9
 183 0018 0A43     		orr	r2, r1
 184 001a 1A60     		str	r2, [r3]
 185 001c 0A4B     		ldr	r3, .L14
 186 001e 0A4A     		ldr	r2, .L14
 187 0020 1168     		ldr	r1, [r2]
 188 0022 0A4A     		ldr	r2, .L14+4
 189 0024 0A40     		and	r2, r1
 190 0026 1A60     		str	r2, [r3]
 182:.\Generated_Source\PSoC4/ROSSerial_UART_SPI_UART.c **** 
 183:.\Generated_Source\PSoC4/ROSSerial_UART_SPI_UART.c ****             /* Flush RX software buffer */
 184:.\Generated_Source\PSoC4/ROSSerial_UART_SPI_UART.c ****             ROSSerial_UART_rxBufferHead     = ROSSerial_UART_rxBufferTail;
 191              		.loc 1 184 0
 192 0028 094B     		ldr	r3, .L14+8
 193 002a 1A68     		ldr	r2, [r3]
 194 002c 094B     		ldr	r3, .L14+12
 195 002e 1A60     		str	r2, [r3]
 185:.\Generated_Source\PSoC4/ROSSerial_UART_SPI_UART.c ****             ROSSerial_UART_rxBufferOverflow = 0u;
 196              		.loc 1 185 0
 197 0030 094B     		ldr	r3, .L14+16
 198 0032 0022     		mov	r2, #0
 199 0034 1A70     		strb	r2, [r3]
 186:.\Generated_Source\PSoC4/ROSSerial_UART_SPI_UART.c **** 
 187:.\Generated_Source\PSoC4/ROSSerial_UART_SPI_UART.c ****             /* End RX transfer */
 188:.\Generated_Source\PSoC4/ROSSerial_UART_SPI_UART.c ****             ROSSerial_UART_ClearRxInterruptSource(ROSSerial_UART_INTR_RX_ALL);
 200              		.loc 1 188 0
 201 0036 094B     		ldr	r3, .L14+20
 202 0038 094A     		ldr	r2, .L14+24
 203 003a 1A60     		str	r2, [r3]
 189:.\Generated_Source\PSoC4/ROSSerial_UART_SPI_UART.c **** 
 190:.\Generated_Source\PSoC4/ROSSerial_UART_SPI_UART.c ****             ROSSerial_UART_SpiUartEnableIntRx(intSourceMask);
 204              		.loc 1 190 0
 205 003c 094B     		ldr	r3, .L14+28
 206 003e 7A68     		ldr	r2, [r7, #4]
 207 0040 1A60     		str	r2, [r3]
 191:.\Generated_Source\PSoC4/ROSSerial_UART_SPI_UART.c ****         }
 192:.\Generated_Source\PSoC4/ROSSerial_UART_SPI_UART.c ****         #else
ARM GAS  C:\DOCUME~1\Chuck\LOCALS~1\Temp\ccn4arI2.s 			page 8


 193:.\Generated_Source\PSoC4/ROSSerial_UART_SPI_UART.c ****         {
 194:.\Generated_Source\PSoC4/ROSSerial_UART_SPI_UART.c ****             ROSSerial_UART_CLEAR_RX_FIFO;
 195:.\Generated_Source\PSoC4/ROSSerial_UART_SPI_UART.c ****         }
 196:.\Generated_Source\PSoC4/ROSSerial_UART_SPI_UART.c ****         #endif
 197:.\Generated_Source\PSoC4/ROSSerial_UART_SPI_UART.c ****     }
 208              		.loc 1 197 0
 209 0042 BD46     		mov	sp, r7
 210 0044 02B0     		add	sp, sp, #8
 211              		@ sp needed
 212 0046 80BD     		pop	{r7, pc}
 213              	.L15:
 214              		.align	2
 215              	.L14:
 216 0048 04030640 		.word	1074135812
 217 004c FFFFFEFF 		.word	-65537
 218 0050 00000000 		.word	ROSSerial_UART_rxBufferTail
 219 0054 00000000 		.word	ROSSerial_UART_rxBufferHead
 220 0058 00000000 		.word	ROSSerial_UART_rxBufferOverflow
 221 005c C00F0640 		.word	1074139072
 222 0060 ED0F0000 		.word	4077
 223 0064 C80F0640 		.word	1074139080
 224              		.cfi_endproc
 225              	.LFE2:
 226              		.size	ROSSerial_UART_SpiUartClearRxBuffer, .-ROSSerial_UART_SpiUartClearRxBuffer
 227              		.section	.text.ROSSerial_UART_SpiUartWriteTxData,"ax",%progbits
 228              		.align	2
 229              		.global	ROSSerial_UART_SpiUartWriteTxData
 230              		.code	16
 231              		.thumb_func
 232              		.type	ROSSerial_UART_SpiUartWriteTxData, %function
 233              	ROSSerial_UART_SpiUartWriteTxData:
 234              	.LFB3:
 198:.\Generated_Source\PSoC4/ROSSerial_UART_SPI_UART.c **** 
 199:.\Generated_Source\PSoC4/ROSSerial_UART_SPI_UART.c **** #endif /* (ROSSerial_UART_RX_DIRECTION) */
 200:.\Generated_Source\PSoC4/ROSSerial_UART_SPI_UART.c **** 
 201:.\Generated_Source\PSoC4/ROSSerial_UART_SPI_UART.c **** 
 202:.\Generated_Source\PSoC4/ROSSerial_UART_SPI_UART.c **** #if(ROSSerial_UART_TX_DIRECTION)
 203:.\Generated_Source\PSoC4/ROSSerial_UART_SPI_UART.c **** 
 204:.\Generated_Source\PSoC4/ROSSerial_UART_SPI_UART.c ****     /*******************************************************************************
 205:.\Generated_Source\PSoC4/ROSSerial_UART_SPI_UART.c ****     * Function Name: ROSSerial_UART_SpiUartWriteTxData
 206:.\Generated_Source\PSoC4/ROSSerial_UART_SPI_UART.c ****     ********************************************************************************
 207:.\Generated_Source\PSoC4/ROSSerial_UART_SPI_UART.c ****     *
 208:.\Generated_Source\PSoC4/ROSSerial_UART_SPI_UART.c ****     * Summary:
 209:.\Generated_Source\PSoC4/ROSSerial_UART_SPI_UART.c ****     *  Places a data entry into the transmit buffer to be sent at the next available
 210:.\Generated_Source\PSoC4/ROSSerial_UART_SPI_UART.c ****     *  bus time.
 211:.\Generated_Source\PSoC4/ROSSerial_UART_SPI_UART.c ****     *  This function is blocking and waits until there is space available to put the
 212:.\Generated_Source\PSoC4/ROSSerial_UART_SPI_UART.c ****     *  requested data in the transmit buffer.
 213:.\Generated_Source\PSoC4/ROSSerial_UART_SPI_UART.c ****     *
 214:.\Generated_Source\PSoC4/ROSSerial_UART_SPI_UART.c ****     * Parameters:
 215:.\Generated_Source\PSoC4/ROSSerial_UART_SPI_UART.c ****     *  txDataByte: the data to be transmitted.
 216:.\Generated_Source\PSoC4/ROSSerial_UART_SPI_UART.c ****     *
 217:.\Generated_Source\PSoC4/ROSSerial_UART_SPI_UART.c ****     * Return:
 218:.\Generated_Source\PSoC4/ROSSerial_UART_SPI_UART.c ****     *  None
 219:.\Generated_Source\PSoC4/ROSSerial_UART_SPI_UART.c ****     *
 220:.\Generated_Source\PSoC4/ROSSerial_UART_SPI_UART.c ****     *******************************************************************************/
 221:.\Generated_Source\PSoC4/ROSSerial_UART_SPI_UART.c ****     void ROSSerial_UART_SpiUartWriteTxData(uint32 txData)
 222:.\Generated_Source\PSoC4/ROSSerial_UART_SPI_UART.c ****     {
ARM GAS  C:\DOCUME~1\Chuck\LOCALS~1\Temp\ccn4arI2.s 			page 9


 235              		.loc 1 222 0
 236              		.cfi_startproc
 237 0000 80B5     		push	{r7, lr}
 238              		.cfi_def_cfa_offset 8
 239              		.cfi_offset 7, -8
 240              		.cfi_offset 14, -4
 241 0002 84B0     		sub	sp, sp, #16
 242              		.cfi_def_cfa_offset 24
 243 0004 00AF     		add	r7, sp, #0
 244              		.cfi_def_cfa_register 7
 245 0006 7860     		str	r0, [r7, #4]
 223:.\Generated_Source\PSoC4/ROSSerial_UART_SPI_UART.c ****         #if(ROSSerial_UART_INTERNAL_TX_SW_BUFFER_CONST)
 224:.\Generated_Source\PSoC4/ROSSerial_UART_SPI_UART.c ****             uint32 locHead;
 225:.\Generated_Source\PSoC4/ROSSerial_UART_SPI_UART.c ****             uint32 intSourceMask;
 226:.\Generated_Source\PSoC4/ROSSerial_UART_SPI_UART.c ****         #endif /* (ROSSerial_UART_INTERNAL_TX_SW_BUFFER_CONST) */
 227:.\Generated_Source\PSoC4/ROSSerial_UART_SPI_UART.c **** 
 228:.\Generated_Source\PSoC4/ROSSerial_UART_SPI_UART.c ****         #if(ROSSerial_UART_CHECK_TX_SW_BUFFER)
 229:.\Generated_Source\PSoC4/ROSSerial_UART_SPI_UART.c ****         {
 230:.\Generated_Source\PSoC4/ROSSerial_UART_SPI_UART.c ****             /* Head index to put data */
 231:.\Generated_Source\PSoC4/ROSSerial_UART_SPI_UART.c ****             locHead = (ROSSerial_UART_txBufferHead + 1u);
 246              		.loc 1 231 0
 247 0008 1C4B     		ldr	r3, .L22
 248 000a 1B68     		ldr	r3, [r3]
 249 000c 0133     		add	r3, r3, #1
 250 000e FB60     		str	r3, [r7, #12]
 232:.\Generated_Source\PSoC4/ROSSerial_UART_SPI_UART.c **** 
 233:.\Generated_Source\PSoC4/ROSSerial_UART_SPI_UART.c ****             /* Adjust TX software buffer index */
 234:.\Generated_Source\PSoC4/ROSSerial_UART_SPI_UART.c ****             if(ROSSerial_UART_TX_BUFFER_SIZE == locHead)
 251              		.loc 1 234 0
 252 0010 FB68     		ldr	r3, [r7, #12]
 253 0012 802B     		cmp	r3, #128
 254 0014 02D1     		bne	.L17
 235:.\Generated_Source\PSoC4/ROSSerial_UART_SPI_UART.c ****             {
 236:.\Generated_Source\PSoC4/ROSSerial_UART_SPI_UART.c ****                 locHead = 0u;
 255              		.loc 1 236 0
 256 0016 0023     		mov	r3, #0
 257 0018 FB60     		str	r3, [r7, #12]
 237:.\Generated_Source\PSoC4/ROSSerial_UART_SPI_UART.c ****             }
 238:.\Generated_Source\PSoC4/ROSSerial_UART_SPI_UART.c **** 
 239:.\Generated_Source\PSoC4/ROSSerial_UART_SPI_UART.c ****             while(locHead == ROSSerial_UART_txBufferTail)
 258              		.loc 1 239 0
 259 001a FFE7     		b	.L21
 260              	.L17:
 261              	.L21:
 262 001c C046     		mov	r8, r8
 263              	.L18:
 264              		.loc 1 239 0 is_stmt 0 discriminator 1
 265 001e 184B     		ldr	r3, .L22+4
 266 0020 1B68     		ldr	r3, [r3]
 267 0022 FA68     		ldr	r2, [r7, #12]
 268 0024 9A42     		cmp	r2, r3
 269 0026 FAD0     		beq	.L18
 240:.\Generated_Source\PSoC4/ROSSerial_UART_SPI_UART.c ****             {
 241:.\Generated_Source\PSoC4/ROSSerial_UART_SPI_UART.c ****                 /* Wait for space in TX software buffer */
 242:.\Generated_Source\PSoC4/ROSSerial_UART_SPI_UART.c ****             }
 243:.\Generated_Source\PSoC4/ROSSerial_UART_SPI_UART.c **** 
 244:.\Generated_Source\PSoC4/ROSSerial_UART_SPI_UART.c ****             /* TX software buffer has at least one room */
ARM GAS  C:\DOCUME~1\Chuck\LOCALS~1\Temp\ccn4arI2.s 			page 10


 245:.\Generated_Source\PSoC4/ROSSerial_UART_SPI_UART.c **** 
 246:.\Generated_Source\PSoC4/ROSSerial_UART_SPI_UART.c ****             if((ROSSerial_UART_txBufferHead == ROSSerial_UART_txBufferTail) &&
 270              		.loc 1 246 0 is_stmt 1
 271 0028 144B     		ldr	r3, .L22
 272 002a 1A68     		ldr	r2, [r3]
 273 002c 144B     		ldr	r3, .L22+4
 274 002e 1B68     		ldr	r3, [r3]
 275 0030 9A42     		cmp	r2, r3
 276 0032 09D1     		bne	.L19
 247:.\Generated_Source\PSoC4/ROSSerial_UART_SPI_UART.c ****                (ROSSerial_UART_FIFO_SIZE != ROSSerial_UART_GET_TX_FIFO_ENTRIES))
 277              		.loc 1 247 0 discriminator 1
 278 0034 134B     		ldr	r3, .L22+8
 279 0036 1A68     		ldr	r2, [r3]
 280 0038 0F23     		mov	r3, #15
 281 003a 1340     		and	r3, r2
 246:.\Generated_Source\PSoC4/ROSSerial_UART_SPI_UART.c ****             if((ROSSerial_UART_txBufferHead == ROSSerial_UART_txBufferTail) &&
 282              		.loc 1 246 0 discriminator 1
 283 003c 082B     		cmp	r3, #8
 284 003e 03D0     		beq	.L19
 248:.\Generated_Source\PSoC4/ROSSerial_UART_SPI_UART.c ****             {
 249:.\Generated_Source\PSoC4/ROSSerial_UART_SPI_UART.c ****                 /* TX software buffer is empty: put data directly in TX FIFO */
 250:.\Generated_Source\PSoC4/ROSSerial_UART_SPI_UART.c ****                 ROSSerial_UART_TX_FIFO_WR_REG = txData;
 285              		.loc 1 250 0
 286 0040 114B     		ldr	r3, .L22+12
 287 0042 7A68     		ldr	r2, [r7, #4]
 288 0044 1A60     		str	r2, [r3]
 289 0046 15E0     		b	.L16
 290              	.L19:
 251:.\Generated_Source\PSoC4/ROSSerial_UART_SPI_UART.c ****             }
 252:.\Generated_Source\PSoC4/ROSSerial_UART_SPI_UART.c ****             /* Put data in TX software buffer */
 253:.\Generated_Source\PSoC4/ROSSerial_UART_SPI_UART.c ****             else
 254:.\Generated_Source\PSoC4/ROSSerial_UART_SPI_UART.c ****             {
 255:.\Generated_Source\PSoC4/ROSSerial_UART_SPI_UART.c ****                 /* Clear old status of INTR_TX_NOT_FULL. It sets at the end of transfer when TX FIF
 256:.\Generated_Source\PSoC4/ROSSerial_UART_SPI_UART.c ****                 ROSSerial_UART_ClearTxInterruptSource(ROSSerial_UART_INTR_TX_NOT_FULL);
 291              		.loc 1 256 0
 292 0048 104B     		ldr	r3, .L22+16
 293 004a 0222     		mov	r2, #2
 294 004c 1A60     		str	r2, [r3]
 257:.\Generated_Source\PSoC4/ROSSerial_UART_SPI_UART.c **** 
 258:.\Generated_Source\PSoC4/ROSSerial_UART_SPI_UART.c ****                 ROSSerial_UART_PutWordInTxBuffer(locHead, txData);
 295              		.loc 1 258 0
 296 004e 7B68     		ldr	r3, [r7, #4]
 297 0050 DAB2     		uxtb	r2, r3
 298 0052 0F49     		ldr	r1, .L22+20
 299 0054 FB68     		ldr	r3, [r7, #12]
 300 0056 CB18     		add	r3, r1, r3
 301 0058 1A70     		strb	r2, [r3]
 259:.\Generated_Source\PSoC4/ROSSerial_UART_SPI_UART.c **** 
 260:.\Generated_Source\PSoC4/ROSSerial_UART_SPI_UART.c ****                 ROSSerial_UART_txBufferHead = locHead;
 302              		.loc 1 260 0
 303 005a 084B     		ldr	r3, .L22
 304 005c FA68     		ldr	r2, [r7, #12]
 305 005e 1A60     		str	r2, [r3]
 261:.\Generated_Source\PSoC4/ROSSerial_UART_SPI_UART.c **** 
 262:.\Generated_Source\PSoC4/ROSSerial_UART_SPI_UART.c ****                 /* Enable interrupt to transmit */
 263:.\Generated_Source\PSoC4/ROSSerial_UART_SPI_UART.c ****                 intSourceMask  = ROSSerial_UART_INTR_TX_NOT_FULL;
 306              		.loc 1 263 0
ARM GAS  C:\DOCUME~1\Chuck\LOCALS~1\Temp\ccn4arI2.s 			page 11


 307 0060 0223     		mov	r3, #2
 308 0062 BB60     		str	r3, [r7, #8]
 264:.\Generated_Source\PSoC4/ROSSerial_UART_SPI_UART.c ****                 intSourceMask |= ROSSerial_UART_GetTxInterruptMode();
 309              		.loc 1 264 0
 310 0064 0B4B     		ldr	r3, .L22+24
 311 0066 1B68     		ldr	r3, [r3]
 312 0068 BA68     		ldr	r2, [r7, #8]
 313 006a 1343     		orr	r3, r2
 314 006c BB60     		str	r3, [r7, #8]
 265:.\Generated_Source\PSoC4/ROSSerial_UART_SPI_UART.c ****                 ROSSerial_UART_SpiUartEnableIntTx(intSourceMask);
 315              		.loc 1 265 0
 316 006e 094B     		ldr	r3, .L22+24
 317 0070 BA68     		ldr	r2, [r7, #8]
 318 0072 1A60     		str	r2, [r3]
 319              	.L16:
 266:.\Generated_Source\PSoC4/ROSSerial_UART_SPI_UART.c ****             }
 267:.\Generated_Source\PSoC4/ROSSerial_UART_SPI_UART.c ****         }
 268:.\Generated_Source\PSoC4/ROSSerial_UART_SPI_UART.c ****         #else
 269:.\Generated_Source\PSoC4/ROSSerial_UART_SPI_UART.c ****         {
 270:.\Generated_Source\PSoC4/ROSSerial_UART_SPI_UART.c ****             while(ROSSerial_UART_FIFO_SIZE == ROSSerial_UART_GET_TX_FIFO_ENTRIES)
 271:.\Generated_Source\PSoC4/ROSSerial_UART_SPI_UART.c ****             {
 272:.\Generated_Source\PSoC4/ROSSerial_UART_SPI_UART.c ****                 /* Block while TX FIFO is FULL */
 273:.\Generated_Source\PSoC4/ROSSerial_UART_SPI_UART.c ****             }
 274:.\Generated_Source\PSoC4/ROSSerial_UART_SPI_UART.c **** 
 275:.\Generated_Source\PSoC4/ROSSerial_UART_SPI_UART.c ****             ROSSerial_UART_TX_FIFO_WR_REG = txData;
 276:.\Generated_Source\PSoC4/ROSSerial_UART_SPI_UART.c ****         }
 277:.\Generated_Source\PSoC4/ROSSerial_UART_SPI_UART.c ****         #endif
 278:.\Generated_Source\PSoC4/ROSSerial_UART_SPI_UART.c ****     }
 320              		.loc 1 278 0
 321 0074 BD46     		mov	sp, r7
 322 0076 04B0     		add	sp, sp, #16
 323              		@ sp needed
 324 0078 80BD     		pop	{r7, pc}
 325              	.L23:
 326 007a C046     		.align	2
 327              	.L22:
 328 007c 00000000 		.word	ROSSerial_UART_txBufferHead
 329 0080 00000000 		.word	ROSSerial_UART_txBufferTail
 330 0084 08020640 		.word	1074135560
 331 0088 40020640 		.word	1074135616
 332 008c 800F0640 		.word	1074139008
 333 0090 00000000 		.word	ROSSerial_UART_txBufferInternal
 334 0094 880F0640 		.word	1074139016
 335              		.cfi_endproc
 336              	.LFE3:
 337              		.size	ROSSerial_UART_SpiUartWriteTxData, .-ROSSerial_UART_SpiUartWriteTxData
 338              		.section	.text.ROSSerial_UART_SpiUartPutArray,"ax",%progbits
 339              		.align	2
 340              		.global	ROSSerial_UART_SpiUartPutArray
 341              		.code	16
 342              		.thumb_func
 343              		.type	ROSSerial_UART_SpiUartPutArray, %function
 344              	ROSSerial_UART_SpiUartPutArray:
 345              	.LFB4:
 279:.\Generated_Source\PSoC4/ROSSerial_UART_SPI_UART.c **** 
 280:.\Generated_Source\PSoC4/ROSSerial_UART_SPI_UART.c **** 
 281:.\Generated_Source\PSoC4/ROSSerial_UART_SPI_UART.c ****     /*******************************************************************************
ARM GAS  C:\DOCUME~1\Chuck\LOCALS~1\Temp\ccn4arI2.s 			page 12


 282:.\Generated_Source\PSoC4/ROSSerial_UART_SPI_UART.c ****     * Function Name: ROSSerial_UART_SpiUartPutArray
 283:.\Generated_Source\PSoC4/ROSSerial_UART_SPI_UART.c ****     ********************************************************************************
 284:.\Generated_Source\PSoC4/ROSSerial_UART_SPI_UART.c ****     *
 285:.\Generated_Source\PSoC4/ROSSerial_UART_SPI_UART.c ****     * Summary:
 286:.\Generated_Source\PSoC4/ROSSerial_UART_SPI_UART.c ****     *  Places an array of data into the transmit buffer to be sent.
 287:.\Generated_Source\PSoC4/ROSSerial_UART_SPI_UART.c ****     *  This function is blocking and waits until there is a space available to put
 288:.\Generated_Source\PSoC4/ROSSerial_UART_SPI_UART.c ****     *  all the requested data in the transmit buffer. The array size can be greater
 289:.\Generated_Source\PSoC4/ROSSerial_UART_SPI_UART.c ****     *  than transmit buffer size.
 290:.\Generated_Source\PSoC4/ROSSerial_UART_SPI_UART.c ****     *
 291:.\Generated_Source\PSoC4/ROSSerial_UART_SPI_UART.c ****     * Parameters:
 292:.\Generated_Source\PSoC4/ROSSerial_UART_SPI_UART.c ****     *  wrBuf:  pointer to an array with data to be placed in transmit buffer.
 293:.\Generated_Source\PSoC4/ROSSerial_UART_SPI_UART.c ****     *  count:  number of data elements to be placed in the transmit buffer.
 294:.\Generated_Source\PSoC4/ROSSerial_UART_SPI_UART.c ****     *
 295:.\Generated_Source\PSoC4/ROSSerial_UART_SPI_UART.c ****     * Return:
 296:.\Generated_Source\PSoC4/ROSSerial_UART_SPI_UART.c ****     *  None
 297:.\Generated_Source\PSoC4/ROSSerial_UART_SPI_UART.c ****     *
 298:.\Generated_Source\PSoC4/ROSSerial_UART_SPI_UART.c ****     *******************************************************************************/
 299:.\Generated_Source\PSoC4/ROSSerial_UART_SPI_UART.c ****     void ROSSerial_UART_SpiUartPutArray(const uint8 wrBuf[], uint32 count)
 300:.\Generated_Source\PSoC4/ROSSerial_UART_SPI_UART.c ****     {
 346              		.loc 1 300 0
 347              		.cfi_startproc
 348 0000 80B5     		push	{r7, lr}
 349              		.cfi_def_cfa_offset 8
 350              		.cfi_offset 7, -8
 351              		.cfi_offset 14, -4
 352 0002 84B0     		sub	sp, sp, #16
 353              		.cfi_def_cfa_offset 24
 354 0004 00AF     		add	r7, sp, #0
 355              		.cfi_def_cfa_register 7
 356 0006 7860     		str	r0, [r7, #4]
 357 0008 3960     		str	r1, [r7]
 301:.\Generated_Source\PSoC4/ROSSerial_UART_SPI_UART.c ****         uint32 i;
 302:.\Generated_Source\PSoC4/ROSSerial_UART_SPI_UART.c **** 
 303:.\Generated_Source\PSoC4/ROSSerial_UART_SPI_UART.c ****         for(i=0u; i < count; i++)
 358              		.loc 1 303 0
 359 000a 0023     		mov	r3, #0
 360 000c FB60     		str	r3, [r7, #12]
 361 000e 09E0     		b	.L25
 362              	.L26:
 304:.\Generated_Source\PSoC4/ROSSerial_UART_SPI_UART.c ****         {
 305:.\Generated_Source\PSoC4/ROSSerial_UART_SPI_UART.c ****             ROSSerial_UART_SpiUartWriteTxData((uint32) wrBuf[i]);
 363              		.loc 1 305 0 discriminator 2
 364 0010 7A68     		ldr	r2, [r7, #4]
 365 0012 FB68     		ldr	r3, [r7, #12]
 366 0014 D318     		add	r3, r2, r3
 367 0016 1B78     		ldrb	r3, [r3]
 368 0018 181C     		mov	r0, r3
 369 001a FFF7FEFF 		bl	ROSSerial_UART_SpiUartWriteTxData
 303:.\Generated_Source\PSoC4/ROSSerial_UART_SPI_UART.c ****         for(i=0u; i < count; i++)
 370              		.loc 1 303 0 discriminator 2
 371 001e FB68     		ldr	r3, [r7, #12]
 372 0020 0133     		add	r3, r3, #1
 373 0022 FB60     		str	r3, [r7, #12]
 374              	.L25:
 303:.\Generated_Source\PSoC4/ROSSerial_UART_SPI_UART.c ****         for(i=0u; i < count; i++)
 375              		.loc 1 303 0 is_stmt 0 discriminator 1
 376 0024 FA68     		ldr	r2, [r7, #12]
ARM GAS  C:\DOCUME~1\Chuck\LOCALS~1\Temp\ccn4arI2.s 			page 13


 377 0026 3B68     		ldr	r3, [r7]
 378 0028 9A42     		cmp	r2, r3
 379 002a F1D3     		bcc	.L26
 306:.\Generated_Source\PSoC4/ROSSerial_UART_SPI_UART.c ****         }
 307:.\Generated_Source\PSoC4/ROSSerial_UART_SPI_UART.c ****     }
 380              		.loc 1 307 0 is_stmt 1
 381 002c BD46     		mov	sp, r7
 382 002e 04B0     		add	sp, sp, #16
 383              		@ sp needed
 384 0030 80BD     		pop	{r7, pc}
 385              		.cfi_endproc
 386              	.LFE4:
 387              		.size	ROSSerial_UART_SpiUartPutArray, .-ROSSerial_UART_SpiUartPutArray
 388 0032 C046     		.section	.text.ROSSerial_UART_SpiUartGetTxBufferSize,"ax",%progbits
 389              		.align	2
 390              		.global	ROSSerial_UART_SpiUartGetTxBufferSize
 391              		.code	16
 392              		.thumb_func
 393              		.type	ROSSerial_UART_SpiUartGetTxBufferSize, %function
 394              	ROSSerial_UART_SpiUartGetTxBufferSize:
 395              	.LFB5:
 308:.\Generated_Source\PSoC4/ROSSerial_UART_SPI_UART.c **** 
 309:.\Generated_Source\PSoC4/ROSSerial_UART_SPI_UART.c **** 
 310:.\Generated_Source\PSoC4/ROSSerial_UART_SPI_UART.c ****     /*******************************************************************************
 311:.\Generated_Source\PSoC4/ROSSerial_UART_SPI_UART.c ****     * Function Name: ROSSerial_UART_SpiUartGetTxBufferSize
 312:.\Generated_Source\PSoC4/ROSSerial_UART_SPI_UART.c ****     ********************************************************************************
 313:.\Generated_Source\PSoC4/ROSSerial_UART_SPI_UART.c ****     *
 314:.\Generated_Source\PSoC4/ROSSerial_UART_SPI_UART.c ****     * Summary:
 315:.\Generated_Source\PSoC4/ROSSerial_UART_SPI_UART.c ****     * Returns the number of elements currently in the transmit buffer.
 316:.\Generated_Source\PSoC4/ROSSerial_UART_SPI_UART.c ****     *  - TX software buffer is disabled: returns the number of used entries in
 317:.\Generated_Source\PSoC4/ROSSerial_UART_SPI_UART.c ****     *    TX FIFO.
 318:.\Generated_Source\PSoC4/ROSSerial_UART_SPI_UART.c ****     *  - TX software buffer is enabled: returns the number of elements currently
 319:.\Generated_Source\PSoC4/ROSSerial_UART_SPI_UART.c ****     *    used in the transmit buffer. This number does not include used entries in
 320:.\Generated_Source\PSoC4/ROSSerial_UART_SPI_UART.c ****     *    the TX FIFO. The transmit buffer size is zero until the TX FIFO is
 321:.\Generated_Source\PSoC4/ROSSerial_UART_SPI_UART.c ****     *    not full.
 322:.\Generated_Source\PSoC4/ROSSerial_UART_SPI_UART.c ****     *
 323:.\Generated_Source\PSoC4/ROSSerial_UART_SPI_UART.c ****     * Parameters:
 324:.\Generated_Source\PSoC4/ROSSerial_UART_SPI_UART.c ****     *  None
 325:.\Generated_Source\PSoC4/ROSSerial_UART_SPI_UART.c ****     *
 326:.\Generated_Source\PSoC4/ROSSerial_UART_SPI_UART.c ****     * Return:
 327:.\Generated_Source\PSoC4/ROSSerial_UART_SPI_UART.c ****     *  Number of data elements ready to transmit.
 328:.\Generated_Source\PSoC4/ROSSerial_UART_SPI_UART.c ****     *
 329:.\Generated_Source\PSoC4/ROSSerial_UART_SPI_UART.c ****     *******************************************************************************/
 330:.\Generated_Source\PSoC4/ROSSerial_UART_SPI_UART.c ****     uint32 ROSSerial_UART_SpiUartGetTxBufferSize(void)
 331:.\Generated_Source\PSoC4/ROSSerial_UART_SPI_UART.c ****     {
 396              		.loc 1 331 0
 397              		.cfi_startproc
 398 0000 80B5     		push	{r7, lr}
 399              		.cfi_def_cfa_offset 8
 400              		.cfi_offset 7, -8
 401              		.cfi_offset 14, -4
 402 0002 82B0     		sub	sp, sp, #8
 403              		.cfi_def_cfa_offset 16
 404 0004 00AF     		add	r7, sp, #0
 405              		.cfi_def_cfa_register 7
 332:.\Generated_Source\PSoC4/ROSSerial_UART_SPI_UART.c ****         uint32 size;
 333:.\Generated_Source\PSoC4/ROSSerial_UART_SPI_UART.c ****         #if(ROSSerial_UART_INTERNAL_TX_SW_BUFFER_CONST)
ARM GAS  C:\DOCUME~1\Chuck\LOCALS~1\Temp\ccn4arI2.s 			page 14


 334:.\Generated_Source\PSoC4/ROSSerial_UART_SPI_UART.c ****             uint32 locTail;
 335:.\Generated_Source\PSoC4/ROSSerial_UART_SPI_UART.c ****         #endif /* (ROSSerial_UART_INTERNAL_TX_SW_BUFFER_CONST) */
 336:.\Generated_Source\PSoC4/ROSSerial_UART_SPI_UART.c **** 
 337:.\Generated_Source\PSoC4/ROSSerial_UART_SPI_UART.c ****         #if(ROSSerial_UART_CHECK_TX_SW_BUFFER)
 338:.\Generated_Source\PSoC4/ROSSerial_UART_SPI_UART.c ****         {
 339:.\Generated_Source\PSoC4/ROSSerial_UART_SPI_UART.c ****             /* Get current Tail index */
 340:.\Generated_Source\PSoC4/ROSSerial_UART_SPI_UART.c ****             locTail = ROSSerial_UART_txBufferTail;
 406              		.loc 1 340 0
 407 0006 0C4B     		ldr	r3, .L31
 408 0008 1B68     		ldr	r3, [r3]
 409 000a 3B60     		str	r3, [r7]
 341:.\Generated_Source\PSoC4/ROSSerial_UART_SPI_UART.c **** 
 342:.\Generated_Source\PSoC4/ROSSerial_UART_SPI_UART.c ****             if(ROSSerial_UART_txBufferHead >= locTail)
 410              		.loc 1 342 0
 411 000c 0B4B     		ldr	r3, .L31+4
 412 000e 1A68     		ldr	r2, [r3]
 413 0010 3B68     		ldr	r3, [r7]
 414 0012 9A42     		cmp	r2, r3
 415 0014 05D3     		bcc	.L28
 343:.\Generated_Source\PSoC4/ROSSerial_UART_SPI_UART.c ****             {
 344:.\Generated_Source\PSoC4/ROSSerial_UART_SPI_UART.c ****                 size = (ROSSerial_UART_txBufferHead - locTail);
 416              		.loc 1 344 0
 417 0016 094B     		ldr	r3, .L31+4
 418 0018 1A68     		ldr	r2, [r3]
 419 001a 3B68     		ldr	r3, [r7]
 420 001c D31A     		sub	r3, r2, r3
 421 001e 7B60     		str	r3, [r7, #4]
 422 0020 05E0     		b	.L29
 423              	.L28:
 345:.\Generated_Source\PSoC4/ROSSerial_UART_SPI_UART.c ****             }
 346:.\Generated_Source\PSoC4/ROSSerial_UART_SPI_UART.c ****             else
 347:.\Generated_Source\PSoC4/ROSSerial_UART_SPI_UART.c ****             {
 348:.\Generated_Source\PSoC4/ROSSerial_UART_SPI_UART.c ****                 size = (ROSSerial_UART_txBufferHead + (ROSSerial_UART_TX_BUFFER_SIZE - locTail));
 424              		.loc 1 348 0
 425 0022 064B     		ldr	r3, .L31+4
 426 0024 1A68     		ldr	r2, [r3]
 427 0026 3B68     		ldr	r3, [r7]
 428 0028 D31A     		sub	r3, r2, r3
 429 002a 8033     		add	r3, r3, #128
 430 002c 7B60     		str	r3, [r7, #4]
 431              	.L29:
 349:.\Generated_Source\PSoC4/ROSSerial_UART_SPI_UART.c ****             }
 350:.\Generated_Source\PSoC4/ROSSerial_UART_SPI_UART.c ****         }
 351:.\Generated_Source\PSoC4/ROSSerial_UART_SPI_UART.c ****         #else
 352:.\Generated_Source\PSoC4/ROSSerial_UART_SPI_UART.c ****         {
 353:.\Generated_Source\PSoC4/ROSSerial_UART_SPI_UART.c ****             size = ROSSerial_UART_GET_TX_FIFO_ENTRIES;
 354:.\Generated_Source\PSoC4/ROSSerial_UART_SPI_UART.c ****         }
 355:.\Generated_Source\PSoC4/ROSSerial_UART_SPI_UART.c ****         #endif
 356:.\Generated_Source\PSoC4/ROSSerial_UART_SPI_UART.c **** 
 357:.\Generated_Source\PSoC4/ROSSerial_UART_SPI_UART.c ****         return(size);
 432              		.loc 1 357 0
 433 002e 7B68     		ldr	r3, [r7, #4]
 358:.\Generated_Source\PSoC4/ROSSerial_UART_SPI_UART.c ****     }
 434              		.loc 1 358 0
 435 0030 181C     		mov	r0, r3
 436 0032 BD46     		mov	sp, r7
 437 0034 02B0     		add	sp, sp, #8
ARM GAS  C:\DOCUME~1\Chuck\LOCALS~1\Temp\ccn4arI2.s 			page 15


 438              		@ sp needed
 439 0036 80BD     		pop	{r7, pc}
 440              	.L32:
 441              		.align	2
 442              	.L31:
 443 0038 00000000 		.word	ROSSerial_UART_txBufferTail
 444 003c 00000000 		.word	ROSSerial_UART_txBufferHead
 445              		.cfi_endproc
 446              	.LFE5:
 447              		.size	ROSSerial_UART_SpiUartGetTxBufferSize, .-ROSSerial_UART_SpiUartGetTxBufferSize
 448              		.section	.text.ROSSerial_UART_SpiUartClearTxBuffer,"ax",%progbits
 449              		.align	2
 450              		.global	ROSSerial_UART_SpiUartClearTxBuffer
 451              		.code	16
 452              		.thumb_func
 453              		.type	ROSSerial_UART_SpiUartClearTxBuffer, %function
 454              	ROSSerial_UART_SpiUartClearTxBuffer:
 455              	.LFB6:
 359:.\Generated_Source\PSoC4/ROSSerial_UART_SPI_UART.c **** 
 360:.\Generated_Source\PSoC4/ROSSerial_UART_SPI_UART.c **** 
 361:.\Generated_Source\PSoC4/ROSSerial_UART_SPI_UART.c ****     /*******************************************************************************
 362:.\Generated_Source\PSoC4/ROSSerial_UART_SPI_UART.c ****     * Function Name: ROSSerial_UART_SpiUartClearTxBuffer
 363:.\Generated_Source\PSoC4/ROSSerial_UART_SPI_UART.c ****     ********************************************************************************
 364:.\Generated_Source\PSoC4/ROSSerial_UART_SPI_UART.c ****     *
 365:.\Generated_Source\PSoC4/ROSSerial_UART_SPI_UART.c ****     * Summary:
 366:.\Generated_Source\PSoC4/ROSSerial_UART_SPI_UART.c ****     *  Clears the transmit buffer and TX FIFO.
 367:.\Generated_Source\PSoC4/ROSSerial_UART_SPI_UART.c ****     *
 368:.\Generated_Source\PSoC4/ROSSerial_UART_SPI_UART.c ****     * Parameters:
 369:.\Generated_Source\PSoC4/ROSSerial_UART_SPI_UART.c ****     *  None
 370:.\Generated_Source\PSoC4/ROSSerial_UART_SPI_UART.c ****     *
 371:.\Generated_Source\PSoC4/ROSSerial_UART_SPI_UART.c ****     * Return:
 372:.\Generated_Source\PSoC4/ROSSerial_UART_SPI_UART.c ****     *  None
 373:.\Generated_Source\PSoC4/ROSSerial_UART_SPI_UART.c ****     *
 374:.\Generated_Source\PSoC4/ROSSerial_UART_SPI_UART.c ****     *******************************************************************************/
 375:.\Generated_Source\PSoC4/ROSSerial_UART_SPI_UART.c ****     void ROSSerial_UART_SpiUartClearTxBuffer(void)
 376:.\Generated_Source\PSoC4/ROSSerial_UART_SPI_UART.c ****     {
 456              		.loc 1 376 0
 457              		.cfi_startproc
 458 0000 80B5     		push	{r7, lr}
 459              		.cfi_def_cfa_offset 8
 460              		.cfi_offset 7, -8
 461              		.cfi_offset 14, -4
 462 0002 82B0     		sub	sp, sp, #8
 463              		.cfi_def_cfa_offset 16
 464 0004 00AF     		add	r7, sp, #0
 465              		.cfi_def_cfa_register 7
 377:.\Generated_Source\PSoC4/ROSSerial_UART_SPI_UART.c ****         #if(ROSSerial_UART_INTERNAL_TX_SW_BUFFER_CONST)
 378:.\Generated_Source\PSoC4/ROSSerial_UART_SPI_UART.c ****             uint32 intSourceMask;
 379:.\Generated_Source\PSoC4/ROSSerial_UART_SPI_UART.c ****         #endif /* (ROSSerial_UART_INTERNAL_TX_SW_BUFFER_CONST) */
 380:.\Generated_Source\PSoC4/ROSSerial_UART_SPI_UART.c **** 
 381:.\Generated_Source\PSoC4/ROSSerial_UART_SPI_UART.c ****         #if(ROSSerial_UART_CHECK_TX_SW_BUFFER)
 382:.\Generated_Source\PSoC4/ROSSerial_UART_SPI_UART.c ****         {
 383:.\Generated_Source\PSoC4/ROSSerial_UART_SPI_UART.c ****             intSourceMask = ROSSerial_UART_SpiUartDisableIntTx();
 466              		.loc 1 383 0
 467 0006 FFF7FEFF 		bl	ROSSerial_UART_SpiUartDisableIntTx
 468 000a 031C     		mov	r3, r0
 469 000c 7B60     		str	r3, [r7, #4]
ARM GAS  C:\DOCUME~1\Chuck\LOCALS~1\Temp\ccn4arI2.s 			page 16


 384:.\Generated_Source\PSoC4/ROSSerial_UART_SPI_UART.c **** 
 385:.\Generated_Source\PSoC4/ROSSerial_UART_SPI_UART.c ****             ROSSerial_UART_CLEAR_TX_FIFO;
 470              		.loc 1 385 0
 471 000e 0D4B     		ldr	r3, .L34
 472 0010 0C4A     		ldr	r2, .L34
 473 0012 1268     		ldr	r2, [r2]
 474 0014 8021     		mov	r1, #128
 475 0016 4902     		lsl	r1, r1, #9
 476 0018 0A43     		orr	r2, r1
 477 001a 1A60     		str	r2, [r3]
 478 001c 094B     		ldr	r3, .L34
 479 001e 094A     		ldr	r2, .L34
 480 0020 1168     		ldr	r1, [r2]
 481 0022 094A     		ldr	r2, .L34+4
 482 0024 0A40     		and	r2, r1
 483 0026 1A60     		str	r2, [r3]
 386:.\Generated_Source\PSoC4/ROSSerial_UART_SPI_UART.c **** 
 387:.\Generated_Source\PSoC4/ROSSerial_UART_SPI_UART.c ****             /* Flush TX software buffer */
 388:.\Generated_Source\PSoC4/ROSSerial_UART_SPI_UART.c ****             ROSSerial_UART_txBufferHead = ROSSerial_UART_txBufferTail;
 484              		.loc 1 388 0
 485 0028 084B     		ldr	r3, .L34+8
 486 002a 1A68     		ldr	r2, [r3]
 487 002c 084B     		ldr	r3, .L34+12
 488 002e 1A60     		str	r2, [r3]
 389:.\Generated_Source\PSoC4/ROSSerial_UART_SPI_UART.c **** 
 390:.\Generated_Source\PSoC4/ROSSerial_UART_SPI_UART.c ****             /* End TX transfer if it is in progress */
 391:.\Generated_Source\PSoC4/ROSSerial_UART_SPI_UART.c ****             intSourceMask &= (uint32) ~ROSSerial_UART_INTR_TX_NOT_FULL;
 489              		.loc 1 391 0
 490 0030 7B68     		ldr	r3, [r7, #4]
 491 0032 0222     		mov	r2, #2
 492 0034 9343     		bic	r3, r2
 493 0036 7B60     		str	r3, [r7, #4]
 392:.\Generated_Source\PSoC4/ROSSerial_UART_SPI_UART.c **** 
 393:.\Generated_Source\PSoC4/ROSSerial_UART_SPI_UART.c ****             ROSSerial_UART_SpiUartEnableIntTx(intSourceMask);
 494              		.loc 1 393 0
 495 0038 064B     		ldr	r3, .L34+16
 496 003a 7A68     		ldr	r2, [r7, #4]
 497 003c 1A60     		str	r2, [r3]
 394:.\Generated_Source\PSoC4/ROSSerial_UART_SPI_UART.c ****         }
 395:.\Generated_Source\PSoC4/ROSSerial_UART_SPI_UART.c ****         #else
 396:.\Generated_Source\PSoC4/ROSSerial_UART_SPI_UART.c ****         {
 397:.\Generated_Source\PSoC4/ROSSerial_UART_SPI_UART.c ****             ROSSerial_UART_CLEAR_TX_FIFO;
 398:.\Generated_Source\PSoC4/ROSSerial_UART_SPI_UART.c ****         }
 399:.\Generated_Source\PSoC4/ROSSerial_UART_SPI_UART.c ****         #endif
 400:.\Generated_Source\PSoC4/ROSSerial_UART_SPI_UART.c ****     }
 498              		.loc 1 400 0
 499 003e BD46     		mov	sp, r7
 500 0040 02B0     		add	sp, sp, #8
 501              		@ sp needed
 502 0042 80BD     		pop	{r7, pc}
 503              	.L35:
 504              		.align	2
 505              	.L34:
 506 0044 04020640 		.word	1074135556
 507 0048 FFFFFEFF 		.word	-65537
 508 004c 00000000 		.word	ROSSerial_UART_txBufferTail
 509 0050 00000000 		.word	ROSSerial_UART_txBufferHead
ARM GAS  C:\DOCUME~1\Chuck\LOCALS~1\Temp\ccn4arI2.s 			page 17


 510 0054 880F0640 		.word	1074139016
 511              		.cfi_endproc
 512              	.LFE6:
 513              		.size	ROSSerial_UART_SpiUartClearTxBuffer, .-ROSSerial_UART_SpiUartClearTxBuffer
 514              		.section	.text.ROSSerial_UART_SpiUartDisableIntRx,"ax",%progbits
 515              		.align	2
 516              		.global	ROSSerial_UART_SpiUartDisableIntRx
 517              		.code	16
 518              		.thumb_func
 519              		.type	ROSSerial_UART_SpiUartDisableIntRx, %function
 520              	ROSSerial_UART_SpiUartDisableIntRx:
 521              	.LFB7:
 401:.\Generated_Source\PSoC4/ROSSerial_UART_SPI_UART.c **** 
 402:.\Generated_Source\PSoC4/ROSSerial_UART_SPI_UART.c **** #endif /* (ROSSerial_UART_TX_DIRECTION) */
 403:.\Generated_Source\PSoC4/ROSSerial_UART_SPI_UART.c **** 
 404:.\Generated_Source\PSoC4/ROSSerial_UART_SPI_UART.c **** 
 405:.\Generated_Source\PSoC4/ROSSerial_UART_SPI_UART.c **** /*******************************************************************************
 406:.\Generated_Source\PSoC4/ROSSerial_UART_SPI_UART.c **** * Function Name: ROSSerial_UART_SpiUartDisableIntRx
 407:.\Generated_Source\PSoC4/ROSSerial_UART_SPI_UART.c **** ********************************************************************************
 408:.\Generated_Source\PSoC4/ROSSerial_UART_SPI_UART.c **** *
 409:.\Generated_Source\PSoC4/ROSSerial_UART_SPI_UART.c **** * Summary:
 410:.\Generated_Source\PSoC4/ROSSerial_UART_SPI_UART.c **** *  Disables the RX interrupt sources.
 411:.\Generated_Source\PSoC4/ROSSerial_UART_SPI_UART.c **** *
 412:.\Generated_Source\PSoC4/ROSSerial_UART_SPI_UART.c **** * Parameters:
 413:.\Generated_Source\PSoC4/ROSSerial_UART_SPI_UART.c **** *  None
 414:.\Generated_Source\PSoC4/ROSSerial_UART_SPI_UART.c **** *
 415:.\Generated_Source\PSoC4/ROSSerial_UART_SPI_UART.c **** * Return:
 416:.\Generated_Source\PSoC4/ROSSerial_UART_SPI_UART.c **** *  Returns the RX interrupt sources enabled before the function call.
 417:.\Generated_Source\PSoC4/ROSSerial_UART_SPI_UART.c **** *
 418:.\Generated_Source\PSoC4/ROSSerial_UART_SPI_UART.c **** *******************************************************************************/
 419:.\Generated_Source\PSoC4/ROSSerial_UART_SPI_UART.c **** uint32 ROSSerial_UART_SpiUartDisableIntRx(void)
 420:.\Generated_Source\PSoC4/ROSSerial_UART_SPI_UART.c **** {
 522              		.loc 1 420 0
 523              		.cfi_startproc
 524 0000 80B5     		push	{r7, lr}
 525              		.cfi_def_cfa_offset 8
 526              		.cfi_offset 7, -8
 527              		.cfi_offset 14, -4
 528 0002 82B0     		sub	sp, sp, #8
 529              		.cfi_def_cfa_offset 16
 530 0004 00AF     		add	r7, sp, #0
 531              		.cfi_def_cfa_register 7
 421:.\Generated_Source\PSoC4/ROSSerial_UART_SPI_UART.c ****     uint32 intSource;
 422:.\Generated_Source\PSoC4/ROSSerial_UART_SPI_UART.c **** 
 423:.\Generated_Source\PSoC4/ROSSerial_UART_SPI_UART.c ****     intSource = ROSSerial_UART_GetRxInterruptMode();
 532              		.loc 1 423 0
 533 0006 054B     		ldr	r3, .L38
 534 0008 1B68     		ldr	r3, [r3]
 535 000a 7B60     		str	r3, [r7, #4]
 424:.\Generated_Source\PSoC4/ROSSerial_UART_SPI_UART.c **** 
 425:.\Generated_Source\PSoC4/ROSSerial_UART_SPI_UART.c ****     ROSSerial_UART_SetRxInterruptMode(ROSSerial_UART_NO_INTR_SOURCES);
 536              		.loc 1 425 0
 537 000c 034B     		ldr	r3, .L38
 538 000e 0022     		mov	r2, #0
 539 0010 1A60     		str	r2, [r3]
 426:.\Generated_Source\PSoC4/ROSSerial_UART_SPI_UART.c **** 
 427:.\Generated_Source\PSoC4/ROSSerial_UART_SPI_UART.c ****     return(intSource);
ARM GAS  C:\DOCUME~1\Chuck\LOCALS~1\Temp\ccn4arI2.s 			page 18


 540              		.loc 1 427 0
 541 0012 7B68     		ldr	r3, [r7, #4]
 428:.\Generated_Source\PSoC4/ROSSerial_UART_SPI_UART.c **** }
 542              		.loc 1 428 0
 543 0014 181C     		mov	r0, r3
 544 0016 BD46     		mov	sp, r7
 545 0018 02B0     		add	sp, sp, #8
 546              		@ sp needed
 547 001a 80BD     		pop	{r7, pc}
 548              	.L39:
 549              		.align	2
 550              	.L38:
 551 001c C80F0640 		.word	1074139080
 552              		.cfi_endproc
 553              	.LFE7:
 554              		.size	ROSSerial_UART_SpiUartDisableIntRx, .-ROSSerial_UART_SpiUartDisableIntRx
 555              		.section	.text.ROSSerial_UART_SpiUartDisableIntTx,"ax",%progbits
 556              		.align	2
 557              		.global	ROSSerial_UART_SpiUartDisableIntTx
 558              		.code	16
 559              		.thumb_func
 560              		.type	ROSSerial_UART_SpiUartDisableIntTx, %function
 561              	ROSSerial_UART_SpiUartDisableIntTx:
 562              	.LFB8:
 429:.\Generated_Source\PSoC4/ROSSerial_UART_SPI_UART.c **** 
 430:.\Generated_Source\PSoC4/ROSSerial_UART_SPI_UART.c **** 
 431:.\Generated_Source\PSoC4/ROSSerial_UART_SPI_UART.c **** /*******************************************************************************
 432:.\Generated_Source\PSoC4/ROSSerial_UART_SPI_UART.c **** * Function Name: ROSSerial_UART_SpiUartDisableIntTx
 433:.\Generated_Source\PSoC4/ROSSerial_UART_SPI_UART.c **** ********************************************************************************
 434:.\Generated_Source\PSoC4/ROSSerial_UART_SPI_UART.c **** *
 435:.\Generated_Source\PSoC4/ROSSerial_UART_SPI_UART.c **** * Summary:
 436:.\Generated_Source\PSoC4/ROSSerial_UART_SPI_UART.c **** *  Disables TX interrupt sources.
 437:.\Generated_Source\PSoC4/ROSSerial_UART_SPI_UART.c **** *
 438:.\Generated_Source\PSoC4/ROSSerial_UART_SPI_UART.c **** * Parameters:
 439:.\Generated_Source\PSoC4/ROSSerial_UART_SPI_UART.c **** *  None
 440:.\Generated_Source\PSoC4/ROSSerial_UART_SPI_UART.c **** *
 441:.\Generated_Source\PSoC4/ROSSerial_UART_SPI_UART.c **** * Return:
 442:.\Generated_Source\PSoC4/ROSSerial_UART_SPI_UART.c **** *  Returns TX interrupt sources enabled before function call.
 443:.\Generated_Source\PSoC4/ROSSerial_UART_SPI_UART.c **** *
 444:.\Generated_Source\PSoC4/ROSSerial_UART_SPI_UART.c **** *******************************************************************************/
 445:.\Generated_Source\PSoC4/ROSSerial_UART_SPI_UART.c **** uint32 ROSSerial_UART_SpiUartDisableIntTx(void)
 446:.\Generated_Source\PSoC4/ROSSerial_UART_SPI_UART.c **** {
 563              		.loc 1 446 0
 564              		.cfi_startproc
 565 0000 80B5     		push	{r7, lr}
 566              		.cfi_def_cfa_offset 8
 567              		.cfi_offset 7, -8
 568              		.cfi_offset 14, -4
 569 0002 82B0     		sub	sp, sp, #8
 570              		.cfi_def_cfa_offset 16
 571 0004 00AF     		add	r7, sp, #0
 572              		.cfi_def_cfa_register 7
 447:.\Generated_Source\PSoC4/ROSSerial_UART_SPI_UART.c ****     uint32 intSourceMask;
 448:.\Generated_Source\PSoC4/ROSSerial_UART_SPI_UART.c **** 
 449:.\Generated_Source\PSoC4/ROSSerial_UART_SPI_UART.c ****     intSourceMask = ROSSerial_UART_GetTxInterruptMode();
 573              		.loc 1 449 0
 574 0006 054B     		ldr	r3, .L42
ARM GAS  C:\DOCUME~1\Chuck\LOCALS~1\Temp\ccn4arI2.s 			page 19


 575 0008 1B68     		ldr	r3, [r3]
 576 000a 7B60     		str	r3, [r7, #4]
 450:.\Generated_Source\PSoC4/ROSSerial_UART_SPI_UART.c **** 
 451:.\Generated_Source\PSoC4/ROSSerial_UART_SPI_UART.c ****     ROSSerial_UART_SetTxInterruptMode(ROSSerial_UART_NO_INTR_SOURCES);
 577              		.loc 1 451 0
 578 000c 034B     		ldr	r3, .L42
 579 000e 0022     		mov	r2, #0
 580 0010 1A60     		str	r2, [r3]
 452:.\Generated_Source\PSoC4/ROSSerial_UART_SPI_UART.c **** 
 453:.\Generated_Source\PSoC4/ROSSerial_UART_SPI_UART.c ****     return(intSourceMask);
 581              		.loc 1 453 0
 582 0012 7B68     		ldr	r3, [r7, #4]
 454:.\Generated_Source\PSoC4/ROSSerial_UART_SPI_UART.c **** }
 583              		.loc 1 454 0
 584 0014 181C     		mov	r0, r3
 585 0016 BD46     		mov	sp, r7
 586 0018 02B0     		add	sp, sp, #8
 587              		@ sp needed
 588 001a 80BD     		pop	{r7, pc}
 589              	.L43:
 590              		.align	2
 591              	.L42:
 592 001c 880F0640 		.word	1074139016
 593              		.cfi_endproc
 594              	.LFE8:
 595              		.size	ROSSerial_UART_SpiUartDisableIntTx, .-ROSSerial_UART_SpiUartDisableIntTx
 596              		.text
 597              	.Letext0:
 598              		.file 2 ".\\Generated_Source\\PSoC4/cytypes.h"