ARM GAS  C:\DOCUME~1\Chuck\LOCALS~1\Temp\ccf3JxeF.s 			page 1


   1              		.cpu cortex-m0
   2              		.fpu softvfp
   3              		.eabi_attribute 20, 1
   4              		.eabi_attribute 21, 1
   5              		.eabi_attribute 23, 3
   6              		.eabi_attribute 24, 1
   7              		.eabi_attribute 25, 1
   8              		.eabi_attribute 26, 1
   9              		.eabi_attribute 30, 6
  10              		.eabi_attribute 34, 0
  11              		.eabi_attribute 18, 4
  12              		.code	16
  13              		.file	"ServoControl.cpp"
  14              		.text
  15              	.Ltext0:
  16              		.cfi_sections	.debug_frame
  17              		.section	.text._ZN3ros3MsgC2Ev,"axG",%progbits,_ZN3ros3MsgC5Ev,comdat
  18              		.align	2
  19              		.weak	_ZN3ros3MsgC2Ev
  20              		.code	16
  21              		.thumb_func
  22              		.type	_ZN3ros3MsgC2Ev, %function
  23              	_ZN3ros3MsgC2Ev:
  24              	.LFB21:
  25              		.file 1 "./ros_lib/ros/msg.h"
   1:./ros_lib/ros/msg.h **** /* 
   2:./ros_lib/ros/msg.h ****  * Software License Agreement (BSD License)
   3:./ros_lib/ros/msg.h ****  *
   4:./ros_lib/ros/msg.h ****  * Copyright (c) 2011, Willow Garage, Inc.
   5:./ros_lib/ros/msg.h ****  * All rights reserved.
   6:./ros_lib/ros/msg.h ****  *
   7:./ros_lib/ros/msg.h ****  * Redistribution and use in source and binary forms, with or without
   8:./ros_lib/ros/msg.h ****  * modification, are permitted provided that the following conditions
   9:./ros_lib/ros/msg.h ****  * are met:
  10:./ros_lib/ros/msg.h ****  *
  11:./ros_lib/ros/msg.h ****  *  * Redistributions of source code must retain the above copyright
  12:./ros_lib/ros/msg.h ****  *    notice, this list of conditions and the following disclaimer.
  13:./ros_lib/ros/msg.h ****  *  * Redistributions in binary form must reproduce the above
  14:./ros_lib/ros/msg.h ****  *    copyright notice, this list of conditions and the following
  15:./ros_lib/ros/msg.h ****  *    disclaimer in the documentation and/or other materials provided
  16:./ros_lib/ros/msg.h ****  *    with the distribution.
  17:./ros_lib/ros/msg.h ****  *  * Neither the name of Willow Garage, Inc. nor the names of its
  18:./ros_lib/ros/msg.h ****  *    contributors may be used to endorse or promote prducts derived
  19:./ros_lib/ros/msg.h ****  *    from this software without specific prior written permission.
  20:./ros_lib/ros/msg.h ****  *
  21:./ros_lib/ros/msg.h ****  * THIS SOFTWARE IS PROVIDED BY THE COPYRIGHT HOLDERS AND CONTRIBUTORS
  22:./ros_lib/ros/msg.h ****  * "AS IS" AND ANY EXPRESS OR IMPLIED WARRANTIES, INCLUDING, BUT NOT
  23:./ros_lib/ros/msg.h ****  * LIMITED TO, THE IMPLIED WARRANTIES OF MERCHANTABILITY AND FITNESS
  24:./ros_lib/ros/msg.h ****  * FOR A PARTICULAR PURPOSE ARE DISCLAIMED. IN NO EVENT SHALL THE
  25:./ros_lib/ros/msg.h ****  * COPYRIGHT OWNER OR CONTRIBUTORS BE LIABLE FOR ANY DIRECT, INDIRECT,
  26:./ros_lib/ros/msg.h ****  * INCIDENTAL, SPECIAL, EXEMPLARY, OR CONSEQUENTIAL DAMAGES (INCLUDING,
  27:./ros_lib/ros/msg.h ****  * BUT NOT LIMITED TO, PROCUREMENT OF SUBSTITUTE GOODS OR SERVICES;
  28:./ros_lib/ros/msg.h ****  * LOSS OF USE, DATA, OR PROFITS; OR BUSINESS INTERRUPTION) HOWEVER
  29:./ros_lib/ros/msg.h ****  * CAUSED AND ON ANY THEORY OF LIABILITY, WHETHER IN CONTRACT, STRICT
  30:./ros_lib/ros/msg.h ****  * LIABILITY, OR TORT (INCLUDING NEGLIGENCE OR OTHERWISE) ARISING IN
  31:./ros_lib/ros/msg.h ****  * ANY WAY OUT OF THE USE OF THIS SOFTWARE, EVEN IF ADVISED OF THE
  32:./ros_lib/ros/msg.h ****  * POSSIBILITY OF SUCH DAMAGE.
ARM GAS  C:\DOCUME~1\Chuck\LOCALS~1\Temp\ccf3JxeF.s 			page 2


  33:./ros_lib/ros/msg.h ****  */
  34:./ros_lib/ros/msg.h **** 
  35:./ros_lib/ros/msg.h **** #ifndef _ROS_MSG_H_
  36:./ros_lib/ros/msg.h **** #define _ROS_MSG_H_
  37:./ros_lib/ros/msg.h **** 
  38:./ros_lib/ros/msg.h **** #include <stdint.h>
  39:./ros_lib/ros/msg.h **** 
  40:./ros_lib/ros/msg.h **** namespace ros {
  41:./ros_lib/ros/msg.h **** 
  42:./ros_lib/ros/msg.h **** /* Base Message Type */
  43:./ros_lib/ros/msg.h **** class Msg
  26              		.loc 1 43 0
  27              		.cfi_startproc
  28 0000 80B5     		push	{r7, lr}
  29              		.cfi_def_cfa_offset 8
  30              		.cfi_offset 7, -8
  31              		.cfi_offset 14, -4
  32 0002 82B0     		sub	sp, sp, #8
  33              		.cfi_def_cfa_offset 16
  34 0004 00AF     		add	r7, sp, #0
  35              		.cfi_def_cfa_register 7
  36 0006 7860     		str	r0, [r7, #4]
  37              	.LBB2:
  38              		.loc 1 43 0
  39 0008 7B68     		ldr	r3, [r7, #4]
  40 000a 034A     		ldr	r2, .L4
  41 000c 1A60     		str	r2, [r3]
  42              	.LBE2:
  43 000e 7B68     		ldr	r3, [r7, #4]
  44 0010 181C     		mov	r0, r3
  45 0012 BD46     		mov	sp, r7
  46 0014 02B0     		add	sp, sp, #8
  47              		@ sp needed
  48 0016 80BD     		pop	{r7, pc}
  49              	.L5:
  50              		.align	2
  51              	.L4:
  52 0018 08000000 		.word	_ZTVN3ros3MsgE+8
  53              		.cfi_endproc
  54              	.LFE21:
  55              		.size	_ZN3ros3MsgC2Ev, .-_ZN3ros3MsgC2Ev
  56              		.weak	_ZN3ros3MsgC1Ev
  57              		.thumb_set _ZN3ros3MsgC1Ev,_ZN3ros3MsgC2Ev
  58              		.section	.text._ZN8std_msgs6UInt16C2Ev,"axG",%progbits,_ZN8std_msgs6UInt16C5Ev,comdat
  59              		.align	2
  60              		.weak	_ZN8std_msgs6UInt16C2Ev
  61              		.code	16
  62              		.thumb_func
  63              		.type	_ZN8std_msgs6UInt16C2Ev, %function
  64              	_ZN8std_msgs6UInt16C2Ev:
  65              	.LFB126:
  66              		.file 2 "./ros_lib/std_msgs/UInt16.h"
   1:./ros_lib/std_msgs/UInt16.h **** #ifndef _ROS_std_msgs_UInt16_h
   2:./ros_lib/std_msgs/UInt16.h **** #define _ROS_std_msgs_UInt16_h
   3:./ros_lib/std_msgs/UInt16.h **** 
   4:./ros_lib/std_msgs/UInt16.h **** #include <stdint.h>
   5:./ros_lib/std_msgs/UInt16.h **** #include <string.h>
ARM GAS  C:\DOCUME~1\Chuck\LOCALS~1\Temp\ccf3JxeF.s 			page 3


   6:./ros_lib/std_msgs/UInt16.h **** #include <stdlib.h>
   7:./ros_lib/std_msgs/UInt16.h **** #include "ros/msg.h"
   8:./ros_lib/std_msgs/UInt16.h **** 
   9:./ros_lib/std_msgs/UInt16.h **** namespace std_msgs
  10:./ros_lib/std_msgs/UInt16.h **** {
  11:./ros_lib/std_msgs/UInt16.h **** 
  12:./ros_lib/std_msgs/UInt16.h ****   class UInt16 : public ros::Msg
  13:./ros_lib/std_msgs/UInt16.h ****   {
  14:./ros_lib/std_msgs/UInt16.h ****     public:
  15:./ros_lib/std_msgs/UInt16.h ****       uint16_t data;
  16:./ros_lib/std_msgs/UInt16.h **** 
  17:./ros_lib/std_msgs/UInt16.h ****     UInt16():
  67              		.loc 2 17 0
  68              		.cfi_startproc
  69 0000 80B5     		push	{r7, lr}
  70              		.cfi_def_cfa_offset 8
  71              		.cfi_offset 7, -8
  72              		.cfi_offset 14, -4
  73 0002 82B0     		sub	sp, sp, #8
  74              		.cfi_def_cfa_offset 16
  75 0004 00AF     		add	r7, sp, #0
  76              		.cfi_def_cfa_register 7
  77 0006 7860     		str	r0, [r7, #4]
  78              	.LBB3:
  18:./ros_lib/std_msgs/UInt16.h ****       data(0)
  79              		.loc 2 18 0
  80 0008 7B68     		ldr	r3, [r7, #4]
  81 000a 181C     		mov	r0, r3
  82 000c FFF7FEFF 		bl	_ZN3ros3MsgC2Ev
  83 0010 7B68     		ldr	r3, [r7, #4]
  84 0012 054A     		ldr	r2, .L9
  85 0014 1A60     		str	r2, [r3]
  86 0016 7B68     		ldr	r3, [r7, #4]
  87 0018 0022     		mov	r2, #0
  88 001a 9A80     		strh	r2, [r3, #4]
  89              	.LBE3:
  19:./ros_lib/std_msgs/UInt16.h ****     {
  20:./ros_lib/std_msgs/UInt16.h ****     }
  90              		.loc 2 20 0
  91 001c 7B68     		ldr	r3, [r7, #4]
  92 001e 181C     		mov	r0, r3
  93 0020 BD46     		mov	sp, r7
  94 0022 02B0     		add	sp, sp, #8
  95              		@ sp needed
  96 0024 80BD     		pop	{r7, pc}
  97              	.L10:
  98 0026 C046     		.align	2
  99              	.L9:
 100 0028 08000000 		.word	_ZTVN8std_msgs6UInt16E+8
 101              		.cfi_endproc
 102              	.LFE126:
 103              		.size	_ZN8std_msgs6UInt16C2Ev, .-_ZN8std_msgs6UInt16C2Ev
 104              		.weak	_ZN8std_msgs6UInt16C1Ev
 105              		.thumb_set _ZN8std_msgs6UInt16C1Ev,_ZN8std_msgs6UInt16C2Ev
 106              		.section	.text._ZNK8std_msgs6UInt169serializeEPh,"axG",%progbits,_ZNK8std_msgs6UInt169serializeEPh
 107              		.align	2
 108              		.weak	_ZNK8std_msgs6UInt169serializeEPh
ARM GAS  C:\DOCUME~1\Chuck\LOCALS~1\Temp\ccf3JxeF.s 			page 4


 109              		.code	16
 110              		.thumb_func
 111              		.type	_ZNK8std_msgs6UInt169serializeEPh, %function
 112              	_ZNK8std_msgs6UInt169serializeEPh:
 113              	.LFB128:
  21:./ros_lib/std_msgs/UInt16.h **** 
  22:./ros_lib/std_msgs/UInt16.h ****     virtual int serialize(unsigned char *outbuffer) const
 114              		.loc 2 22 0
 115              		.cfi_startproc
 116 0000 80B5     		push	{r7, lr}
 117              		.cfi_def_cfa_offset 8
 118              		.cfi_offset 7, -8
 119              		.cfi_offset 14, -4
 120 0002 84B0     		sub	sp, sp, #16
 121              		.cfi_def_cfa_offset 24
 122 0004 00AF     		add	r7, sp, #0
 123              		.cfi_def_cfa_register 7
 124 0006 7860     		str	r0, [r7, #4]
 125 0008 3960     		str	r1, [r7]
 126              	.LBB4:
  23:./ros_lib/std_msgs/UInt16.h ****     {
  24:./ros_lib/std_msgs/UInt16.h ****       int offset = 0;
 127              		.loc 2 24 0
 128 000a 0023     		mov	r3, #0
 129 000c FB60     		str	r3, [r7, #12]
  25:./ros_lib/std_msgs/UInt16.h **** #ifndef ROS_MSG_DONT_SERIALIZE
  26:./ros_lib/std_msgs/UInt16.h ****       *(outbuffer + offset + 0) = (this->data >> (8 * 0)) & 0xFF;
 130              		.loc 2 26 0
 131 000e FB68     		ldr	r3, [r7, #12]
 132 0010 3A68     		ldr	r2, [r7]
 133 0012 D318     		add	r3, r2, r3
 134 0014 7A68     		ldr	r2, [r7, #4]
 135 0016 9288     		ldrh	r2, [r2, #4]
 136 0018 D2B2     		uxtb	r2, r2
 137 001a 1A70     		strb	r2, [r3]
  27:./ros_lib/std_msgs/UInt16.h ****       *(outbuffer + offset + 1) = (this->data >> (8 * 1)) & 0xFF;
 138              		.loc 2 27 0
 139 001c FB68     		ldr	r3, [r7, #12]
 140 001e 0133     		add	r3, r3, #1
 141 0020 3A68     		ldr	r2, [r7]
 142 0022 D318     		add	r3, r2, r3
 143 0024 7A68     		ldr	r2, [r7, #4]
 144 0026 9288     		ldrh	r2, [r2, #4]
 145 0028 120A     		lsr	r2, r2, #8
 146 002a 92B2     		uxth	r2, r2
 147 002c D2B2     		uxtb	r2, r2
 148 002e 1A70     		strb	r2, [r3]
  28:./ros_lib/std_msgs/UInt16.h ****       offset += sizeof(this->data);
 149              		.loc 2 28 0
 150 0030 FB68     		ldr	r3, [r7, #12]
 151 0032 0233     		add	r3, r3, #2
 152 0034 FB60     		str	r3, [r7, #12]
  29:./ros_lib/std_msgs/UInt16.h **** #endif
  30:./ros_lib/std_msgs/UInt16.h ****       return offset;
 153              		.loc 2 30 0
 154 0036 FB68     		ldr	r3, [r7, #12]
 155              	.LBE4:
ARM GAS  C:\DOCUME~1\Chuck\LOCALS~1\Temp\ccf3JxeF.s 			page 5


  31:./ros_lib/std_msgs/UInt16.h ****     }
 156              		.loc 2 31 0
 157 0038 181C     		mov	r0, r3
 158 003a BD46     		mov	sp, r7
 159 003c 04B0     		add	sp, sp, #16
 160              		@ sp needed
 161 003e 80BD     		pop	{r7, pc}
 162              		.cfi_endproc
 163              	.LFE128:
 164              		.size	_ZNK8std_msgs6UInt169serializeEPh, .-_ZNK8std_msgs6UInt169serializeEPh
 165              		.section	.text._ZN8std_msgs6UInt1611deserializeEPh,"axG",%progbits,_ZN8std_msgs6UInt1611deserializ
 166              		.align	2
 167              		.weak	_ZN8std_msgs6UInt1611deserializeEPh
 168              		.code	16
 169              		.thumb_func
 170              		.type	_ZN8std_msgs6UInt1611deserializeEPh, %function
 171              	_ZN8std_msgs6UInt1611deserializeEPh:
 172              	.LFB129:
  32:./ros_lib/std_msgs/UInt16.h **** 
  33:./ros_lib/std_msgs/UInt16.h ****     virtual int deserialize(unsigned char *inbuffer)
 173              		.loc 2 33 0
 174              		.cfi_startproc
 175 0000 80B5     		push	{r7, lr}
 176              		.cfi_def_cfa_offset 8
 177              		.cfi_offset 7, -8
 178              		.cfi_offset 14, -4
 179 0002 84B0     		sub	sp, sp, #16
 180              		.cfi_def_cfa_offset 24
 181 0004 00AF     		add	r7, sp, #0
 182              		.cfi_def_cfa_register 7
 183 0006 7860     		str	r0, [r7, #4]
 184 0008 3960     		str	r1, [r7]
 185              	.LBB5:
  34:./ros_lib/std_msgs/UInt16.h ****     {
  35:./ros_lib/std_msgs/UInt16.h ****       int offset = 0;
 186              		.loc 2 35 0
 187 000a 0023     		mov	r3, #0
 188 000c FB60     		str	r3, [r7, #12]
  36:./ros_lib/std_msgs/UInt16.h **** #ifndef ROS_MSG_DONT_DESERIALIZE
  37:./ros_lib/std_msgs/UInt16.h ****       this->data =  ((uint16_t) (*(inbuffer + offset)));
 189              		.loc 2 37 0
 190 000e FB68     		ldr	r3, [r7, #12]
 191 0010 3A68     		ldr	r2, [r7]
 192 0012 D318     		add	r3, r2, r3
 193 0014 1B78     		ldrb	r3, [r3]
 194 0016 1A1C     		mov	r2, r3
 195 0018 7B68     		ldr	r3, [r7, #4]
 196 001a 9A80     		strh	r2, [r3, #4]
  38:./ros_lib/std_msgs/UInt16.h ****       this->data |= ((uint16_t) (*(inbuffer + offset + 1))) << (8 * 1);
 197              		.loc 2 38 0
 198 001c 7B68     		ldr	r3, [r7, #4]
 199 001e 9B88     		ldrh	r3, [r3, #4]
 200 0020 9AB2     		uxth	r2, r3
 201 0022 FB68     		ldr	r3, [r7, #12]
 202 0024 0133     		add	r3, r3, #1
 203 0026 3968     		ldr	r1, [r7]
 204 0028 CB18     		add	r3, r1, r3
ARM GAS  C:\DOCUME~1\Chuck\LOCALS~1\Temp\ccf3JxeF.s 			page 6


 205 002a 1B78     		ldrb	r3, [r3]
 206 002c 1B02     		lsl	r3, r3, #8
 207 002e 9BB2     		uxth	r3, r3
 208 0030 1343     		orr	r3, r2
 209 0032 9BB2     		uxth	r3, r3
 210 0034 9AB2     		uxth	r2, r3
 211 0036 7B68     		ldr	r3, [r7, #4]
 212 0038 9A80     		strh	r2, [r3, #4]
  39:./ros_lib/std_msgs/UInt16.h ****       offset += sizeof(this->data);
 213              		.loc 2 39 0
 214 003a FB68     		ldr	r3, [r7, #12]
 215 003c 0233     		add	r3, r3, #2
 216 003e FB60     		str	r3, [r7, #12]
  40:./ros_lib/std_msgs/UInt16.h **** #endif
  41:./ros_lib/std_msgs/UInt16.h ****      return offset;
 217              		.loc 2 41 0
 218 0040 FB68     		ldr	r3, [r7, #12]
 219              	.LBE5:
  42:./ros_lib/std_msgs/UInt16.h ****     }
 220              		.loc 2 42 0
 221 0042 181C     		mov	r0, r3
 222 0044 BD46     		mov	sp, r7
 223 0046 04B0     		add	sp, sp, #16
 224              		@ sp needed
 225 0048 80BD     		pop	{r7, pc}
 226              		.cfi_endproc
 227              	.LFE129:
 228              		.size	_ZN8std_msgs6UInt1611deserializeEPh, .-_ZN8std_msgs6UInt1611deserializeEPh
 229 004a C046     		.section	.rodata
 230              		.align	2
 231              	.LC2:
 232 0000 7374645F 		.ascii	"std_msgs/UInt16\000"
 232      6D736773 
 232      2F55496E 
 232      74313600 
 233              		.section	.text._ZN8std_msgs6UInt167getTypeEv,"axG",%progbits,_ZN8std_msgs6UInt167getTypeEv,comdat
 234              		.align	2
 235              		.weak	_ZN8std_msgs6UInt167getTypeEv
 236              		.code	16
 237              		.thumb_func
 238              		.type	_ZN8std_msgs6UInt167getTypeEv, %function
 239              	_ZN8std_msgs6UInt167getTypeEv:
 240              	.LFB130:
  43:./ros_lib/std_msgs/UInt16.h **** 
  44:./ros_lib/std_msgs/UInt16.h ****     const char * getType(){ return "std_msgs/UInt16"; };
 241              		.loc 2 44 0
 242              		.cfi_startproc
 243 0000 80B5     		push	{r7, lr}
 244              		.cfi_def_cfa_offset 8
 245              		.cfi_offset 7, -8
 246              		.cfi_offset 14, -4
 247 0002 82B0     		sub	sp, sp, #8
 248              		.cfi_def_cfa_offset 16
 249 0004 00AF     		add	r7, sp, #0
 250              		.cfi_def_cfa_register 7
 251 0006 7860     		str	r0, [r7, #4]
 252              		.loc 2 44 0
ARM GAS  C:\DOCUME~1\Chuck\LOCALS~1\Temp\ccf3JxeF.s 			page 7


 253 0008 024B     		ldr	r3, .L17
 254 000a 181C     		mov	r0, r3
 255 000c BD46     		mov	sp, r7
 256 000e 02B0     		add	sp, sp, #8
 257              		@ sp needed
 258 0010 80BD     		pop	{r7, pc}
 259              	.L18:
 260 0012 C046     		.align	2
 261              	.L17:
 262 0014 00000000 		.word	.LC2
 263              		.cfi_endproc
 264              	.LFE130:
 265              		.size	_ZN8std_msgs6UInt167getTypeEv, .-_ZN8std_msgs6UInt167getTypeEv
 266              		.section	.rodata
 267              		.align	2
 268              	.LC4:
 269 0010 31646637 		.ascii	"1df79edf208b629fe6b81923a544552d\000"
 269      39656466 
 269      32303862 
 269      36323966 
 269      65366238 
 270              		.section	.text._ZN8std_msgs6UInt166getMD5Ev,"axG",%progbits,_ZN8std_msgs6UInt166getMD5Ev,comdat
 271              		.align	2
 272              		.weak	_ZN8std_msgs6UInt166getMD5Ev
 273              		.code	16
 274              		.thumb_func
 275              		.type	_ZN8std_msgs6UInt166getMD5Ev, %function
 276              	_ZN8std_msgs6UInt166getMD5Ev:
 277              	.LFB131:
  45:./ros_lib/std_msgs/UInt16.h ****     const char * getMD5(){ return "1df79edf208b629fe6b81923a544552d"; };
 278              		.loc 2 45 0
 279              		.cfi_startproc
 280 0000 80B5     		push	{r7, lr}
 281              		.cfi_def_cfa_offset 8
 282              		.cfi_offset 7, -8
 283              		.cfi_offset 14, -4
 284 0002 82B0     		sub	sp, sp, #8
 285              		.cfi_def_cfa_offset 16
 286 0004 00AF     		add	r7, sp, #0
 287              		.cfi_def_cfa_register 7
 288 0006 7860     		str	r0, [r7, #4]
 289              		.loc 2 45 0
 290 0008 024B     		ldr	r3, .L21
 291 000a 181C     		mov	r0, r3
 292 000c BD46     		mov	sp, r7
 293 000e 02B0     		add	sp, sp, #8
 294              		@ sp needed
 295 0010 80BD     		pop	{r7, pc}
 296              	.L22:
 297 0012 C046     		.align	2
 298              	.L21:
 299 0014 10000000 		.word	.LC4
 300              		.cfi_endproc
 301              	.LFE131:
 302              		.size	_ZN8std_msgs6UInt166getMD5Ev, .-_ZN8std_msgs6UInt166getMD5Ev
 303              		.section	.text._ZN12ServoControl11servo_us_cbERKN8std_msgs6UInt16E,"ax",%progbits
 304              		.align	2
ARM GAS  C:\DOCUME~1\Chuck\LOCALS~1\Temp\ccf3JxeF.s 			page 8


 305              		.global	_ZN12ServoControl11servo_us_cbERKN8std_msgs6UInt16E
 306              		.code	16
 307              		.thumb_func
 308              		.type	_ZN12ServoControl11servo_us_cbERKN8std_msgs6UInt16E, %function
 309              	_ZN12ServoControl11servo_us_cbERKN8std_msgs6UInt16E:
 310              	.LFB165:
 311              		.file 3 ".\\ros_lib\\examples\\ServoControl\\ServoControl.cpp"
   1:.\ros_lib\examples\ServoControl/ServoControl.cpp **** /*
   2:.\ros_lib\examples\ServoControl/ServoControl.cpp ****  * rosserial Servo Control Example
   3:.\ros_lib\examples\ServoControl/ServoControl.cpp ****  *
   4:.\ros_lib\examples\ServoControl/ServoControl.cpp ****  * This sketch demonstrates the control of hobby R/C servos
   5:.\ros_lib\examples\ServoControl/ServoControl.cpp ****  * using ROS and Cypress PSoC4 "RosOnAStick"
   6:.\ros_lib\examples\ServoControl/ServoControl.cpp ****  * 
   7:.\ros_lib\examples\ServoControl/ServoControl.cpp ****  */
   8:.\ros_lib\examples\ServoControl/ServoControl.cpp **** 
   9:.\ros_lib\examples\ServoControl/ServoControl.cpp **** 
  10:.\ros_lib\examples\ServoControl/ServoControl.cpp **** #include <ros.h>
  11:.\ros_lib\examples\ServoControl/ServoControl.cpp **** #include <std_msgs/UInt16.h>
  12:.\ros_lib\examples\ServoControl/ServoControl.cpp **** #include "ServoControl.h"
  13:.\ros_lib\examples\ServoControl/ServoControl.cpp **** 
  14:.\ros_lib\examples\ServoControl/ServoControl.cpp **** extern ros::NodeHandle  nh;
  15:.\ros_lib\examples\ServoControl/ServoControl.cpp **** 
  16:.\ros_lib\examples\ServoControl/ServoControl.cpp **** namespace ServoControl {
  17:.\ros_lib\examples\ServoControl/ServoControl.cpp **** 
  18:.\ros_lib\examples\ServoControl/ServoControl.cpp **** void servo_us_cb( const std_msgs::UInt16& cmd_msg){
 312              		.loc 3 18 0
 313              		.cfi_startproc
 314 0000 80B5     		push	{r7, lr}
 315              		.cfi_def_cfa_offset 8
 316              		.cfi_offset 7, -8
 317              		.cfi_offset 14, -4
 318 0002 84B0     		sub	sp, sp, #16
 319              		.cfi_def_cfa_offset 24
 320 0004 00AF     		add	r7, sp, #0
 321              		.cfi_def_cfa_register 7
 322 0006 7860     		str	r0, [r7, #4]
 323              	.LBB6:
  19:.\ros_lib\examples\ServoControl/ServoControl.cpp ****   // set servo pulse width in microseconds
  20:.\ros_lib\examples\ServoControl/ServoControl.cpp ****   uint16_t width = cmd_msg.data;
 324              		.loc 3 20 0
 325 0008 3B1C     		mov	r3, r7
 326 000a 0E33     		add	r3, r3, #14
 327 000c 7A68     		ldr	r2, [r7, #4]
 328 000e 9288     		ldrh	r2, [r2, #4]
 329 0010 1A80     		strh	r2, [r3]
  21:.\ros_lib\examples\ServoControl/ServoControl.cpp ****   if (width<500) { width = 500; }
 330              		.loc 3 21 0
 331 0012 3B1C     		mov	r3, r7
 332 0014 0E33     		add	r3, r3, #14
 333 0016 1A88     		ldrh	r2, [r3]
 334 0018 F423     		mov	r3, #244
 335 001a FF33     		add	r3, r3, #255
 336 001c 9A42     		cmp	r2, r3
 337 001e 04D8     		bhi	.L24
 338              		.loc 3 21 0 is_stmt 0 discriminator 1
 339 0020 3B1C     		mov	r3, r7
 340 0022 0E33     		add	r3, r3, #14
ARM GAS  C:\DOCUME~1\Chuck\LOCALS~1\Temp\ccf3JxeF.s 			page 9


 341 0024 FA22     		mov	r2, #250
 342 0026 5200     		lsl	r2, r2, #1
 343 0028 1A80     		strh	r2, [r3]
 344              	.L24:
  22:.\ros_lib\examples\ServoControl/ServoControl.cpp ****   if (width>2000) { width = 2000; }
 345              		.loc 3 22 0 is_stmt 1
 346 002a 3B1C     		mov	r3, r7
 347 002c 0E33     		add	r3, r3, #14
 348 002e 1A88     		ldrh	r2, [r3]
 349 0030 FA23     		mov	r3, #250
 350 0032 DB00     		lsl	r3, r3, #3
 351 0034 9A42     		cmp	r2, r3
 352 0036 04D9     		bls	.L25
 353              		.loc 3 22 0 is_stmt 0 discriminator 1
 354 0038 3B1C     		mov	r3, r7
 355 003a 0E33     		add	r3, r3, #14
 356 003c FA22     		mov	r2, #250
 357 003e D200     		lsl	r2, r2, #3
 358 0040 1A80     		strh	r2, [r3]
 359              	.L25:
  23:.\ros_lib\examples\ServoControl/ServoControl.cpp ****   PWM_1_WriteCompare(width); 
 360              		.loc 3 23 0 is_stmt 1
 361 0042 3B1C     		mov	r3, r7
 362 0044 0E33     		add	r3, r3, #14
 363 0046 1B88     		ldrh	r3, [r3]
 364 0048 181C     		mov	r0, r3
 365 004a FFF7FEFF 		bl	PWM_1_WriteCompare
 366              	.LBE6:
  24:.\ros_lib\examples\ServoControl/ServoControl.cpp **** }
 367              		.loc 3 24 0
 368 004e BD46     		mov	sp, r7
 369 0050 04B0     		add	sp, sp, #16
 370              		@ sp needed
 371 0052 80BD     		pop	{r7, pc}
 372              		.cfi_endproc
 373              	.LFE165:
 374              		.size	_ZN12ServoControl11servo_us_cbERKN8std_msgs6UInt16E, .-_ZN12ServoControl11servo_us_cbERKN8st
 375              		.global	_ZN12ServoControl3subE
 376              		.bss
 377              		.align	2
 378              		.type	_ZN12ServoControl3subE, %object
 379              		.size	_ZN12ServoControl3subE, 32
 380              	_ZN12ServoControl3subE:
 381 0000 00000000 		.space	32
 381      00000000 
 381      00000000 
 381      00000000 
 381      00000000 
 382              		.section	.text._ZN12ServoControl5setupEv,"ax",%progbits
 383              		.align	2
 384              		.global	_ZN12ServoControl5setupEv
 385              		.code	16
 386              		.thumb_func
 387              		.type	_ZN12ServoControl5setupEv, %function
 388              	_ZN12ServoControl5setupEv:
 389              	.LFB166:
  25:.\ros_lib\examples\ServoControl/ServoControl.cpp **** 
ARM GAS  C:\DOCUME~1\Chuck\LOCALS~1\Temp\ccf3JxeF.s 			page 10


  26:.\ros_lib\examples\ServoControl/ServoControl.cpp **** 
  27:.\ros_lib\examples\ServoControl/ServoControl.cpp **** ros::Subscriber<std_msgs::UInt16> sub("servo_us", servo_us_cb);
  28:.\ros_lib\examples\ServoControl/ServoControl.cpp **** 
  29:.\ros_lib\examples\ServoControl/ServoControl.cpp **** void setup(){
 390              		.loc 3 29 0
 391              		.cfi_startproc
 392 0000 80B5     		push	{r7, lr}
 393              		.cfi_def_cfa_offset 8
 394              		.cfi_offset 7, -8
 395              		.cfi_offset 14, -4
 396 0002 00AF     		add	r7, sp, #0
 397              		.cfi_def_cfa_register 7
  30:.\ros_lib\examples\ServoControl/ServoControl.cpp ****   nh.subscribe(sub);
 398              		.loc 3 30 0
 399 0004 044A     		ldr	r2, .L27
 400 0006 054B     		ldr	r3, .L27+4
 401 0008 101C     		mov	r0, r2
 402 000a 191C     		mov	r1, r3
 403 000c FFF7FEFF 		bl	_ZN3ros11NodeHandle_I13Psoc4HardwareLi10ELi20ELi200ELi200EE9subscribeIN8std_msgs6UInt16EEEbRNS_
  31:.\ros_lib\examples\ServoControl/ServoControl.cpp ****   
  32:.\ros_lib\examples\ServoControl/ServoControl.cpp ****   PWM_1_Start();
 404              		.loc 3 32 0
 405 0010 FFF7FEFF 		bl	PWM_1_Start
  33:.\ros_lib\examples\ServoControl/ServoControl.cpp **** }
 406              		.loc 3 33 0
 407 0014 BD46     		mov	sp, r7
 408              		@ sp needed
 409 0016 80BD     		pop	{r7, pc}
 410              	.L28:
 411              		.align	2
 412              	.L27:
 413 0018 00000000 		.word	nh
 414 001c 00000000 		.word	_ZN12ServoControl3subE
 415              		.cfi_endproc
 416              	.LFE166:
 417              		.size	_ZN12ServoControl5setupEv, .-_ZN12ServoControl5setupEv
 418              		.section	.text._ZN12ServoControl4loopEv,"ax",%progbits
 419              		.align	2
 420              		.global	_ZN12ServoControl4loopEv
 421              		.code	16
 422              		.thumb_func
 423              		.type	_ZN12ServoControl4loopEv, %function
 424              	_ZN12ServoControl4loopEv:
 425              	.LFB167:
  34:.\ros_lib\examples\ServoControl/ServoControl.cpp **** 
  35:.\ros_lib\examples\ServoControl/ServoControl.cpp **** void loop(){
 426              		.loc 3 35 0
 427              		.cfi_startproc
 428 0000 80B5     		push	{r7, lr}
 429              		.cfi_def_cfa_offset 8
 430              		.cfi_offset 7, -8
 431              		.cfi_offset 14, -4
 432 0002 00AF     		add	r7, sp, #0
 433              		.cfi_def_cfa_register 7
  36:.\ros_lib\examples\ServoControl/ServoControl.cpp **** }
 434              		.loc 3 36 0
 435 0004 BD46     		mov	sp, r7
ARM GAS  C:\DOCUME~1\Chuck\LOCALS~1\Temp\ccf3JxeF.s 			page 11


 436              		@ sp needed
 437 0006 80BD     		pop	{r7, pc}
 438              		.cfi_endproc
 439              	.LFE167:
 440              		.size	_ZN12ServoControl4loopEv, .-_ZN12ServoControl4loopEv
 441              		.section	.text._ZN3ros11Subscriber_C2Ev,"axG",%progbits,_ZN3ros11Subscriber_C5Ev,comdat
 442              		.align	2
 443              		.weak	_ZN3ros11Subscriber_C2Ev
 444              		.code	16
 445              		.thumb_func
 446              		.type	_ZN3ros11Subscriber_C2Ev, %function
 447              	_ZN3ros11Subscriber_C2Ev:
 448              	.LFB170:
 449              		.file 4 "./ros_lib/ros/subscriber.h"
   1:./ros_lib/ros/subscriber.h **** /* 
   2:./ros_lib/ros/subscriber.h ****  * Software License Agreement (BSD License)
   3:./ros_lib/ros/subscriber.h ****  *
   4:./ros_lib/ros/subscriber.h ****  * Copyright (c) 2011, Willow Garage, Inc.
   5:./ros_lib/ros/subscriber.h ****  * All rights reserved.
   6:./ros_lib/ros/subscriber.h ****  *
   7:./ros_lib/ros/subscriber.h ****  * Redistribution and use in source and binary forms, with or without
   8:./ros_lib/ros/subscriber.h ****  * modification, are permitted provided that the following conditions
   9:./ros_lib/ros/subscriber.h ****  * are met:
  10:./ros_lib/ros/subscriber.h ****  *
  11:./ros_lib/ros/subscriber.h ****  *  * Redistributions of source code must retain the above copyright
  12:./ros_lib/ros/subscriber.h ****  *    notice, this list of conditions and the following disclaimer.
  13:./ros_lib/ros/subscriber.h ****  *  * Redistributions in binary form must reproduce the above
  14:./ros_lib/ros/subscriber.h ****  *    copyright notice, this list of conditions and the following
  15:./ros_lib/ros/subscriber.h ****  *    disclaimer in the documentation and/or other materials provided
  16:./ros_lib/ros/subscriber.h ****  *    with the distribution.
  17:./ros_lib/ros/subscriber.h ****  *  * Neither the name of Willow Garage, Inc. nor the names of its
  18:./ros_lib/ros/subscriber.h ****  *    contributors may be used to endorse or promote prducts derived
  19:./ros_lib/ros/subscriber.h ****  *    from this software without specific prior written permission.
  20:./ros_lib/ros/subscriber.h ****  *
  21:./ros_lib/ros/subscriber.h ****  * THIS SOFTWARE IS PROVIDED BY THE COPYRIGHT HOLDERS AND CONTRIBUTORS
  22:./ros_lib/ros/subscriber.h ****  * "AS IS" AND ANY EXPRESS OR IMPLIED WARRANTIES, INCLUDING, BUT NOT
  23:./ros_lib/ros/subscriber.h ****  * LIMITED TO, THE IMPLIED WARRANTIES OF MERCHANTABILITY AND FITNESS
  24:./ros_lib/ros/subscriber.h ****  * FOR A PARTICULAR PURPOSE ARE DISCLAIMED. IN NO EVENT SHALL THE
  25:./ros_lib/ros/subscriber.h ****  * COPYRIGHT OWNER OR CONTRIBUTORS BE LIABLE FOR ANY DIRECT, INDIRECT,
  26:./ros_lib/ros/subscriber.h ****  * INCIDENTAL, SPECIAL, EXEMPLARY, OR CONSEQUENTIAL DAMAGES (INCLUDING,
  27:./ros_lib/ros/subscriber.h ****  * BUT NOT LIMITED TO, PROCUREMENT OF SUBSTITUTE GOODS OR SERVICES;
  28:./ros_lib/ros/subscriber.h ****  * LOSS OF USE, DATA, OR PROFITS; OR BUSINESS INTERRUPTION) HOWEVER
  29:./ros_lib/ros/subscriber.h ****  * CAUSED AND ON ANY THEORY OF LIABILITY, WHETHER IN CONTRACT, STRICT
  30:./ros_lib/ros/subscriber.h ****  * LIABILITY, OR TORT (INCLUDING NEGLIGENCE OR OTHERWISE) ARISING IN
  31:./ros_lib/ros/subscriber.h ****  * ANY WAY OUT OF THE USE OF THIS SOFTWARE, EVEN IF ADVISED OF THE
  32:./ros_lib/ros/subscriber.h ****  * POSSIBILITY OF SUCH DAMAGE.
  33:./ros_lib/ros/subscriber.h ****  */
  34:./ros_lib/ros/subscriber.h **** 
  35:./ros_lib/ros/subscriber.h **** #ifndef ROS_SUBSCRIBER_H_
  36:./ros_lib/ros/subscriber.h **** #define ROS_SUBSCRIBER_H_
  37:./ros_lib/ros/subscriber.h **** 
  38:./ros_lib/ros/subscriber.h **** #include "rosserial_msgs/TopicInfo.h"
  39:./ros_lib/ros/subscriber.h **** 
  40:./ros_lib/ros/subscriber.h **** namespace ros {
  41:./ros_lib/ros/subscriber.h **** 
  42:./ros_lib/ros/subscriber.h ****   /* Base class for objects subscribers. */
  43:./ros_lib/ros/subscriber.h ****   class Subscriber_
ARM GAS  C:\DOCUME~1\Chuck\LOCALS~1\Temp\ccf3JxeF.s 			page 12


 450              		.loc 4 43 0
 451              		.cfi_startproc
 452 0000 80B5     		push	{r7, lr}
 453              		.cfi_def_cfa_offset 8
 454              		.cfi_offset 7, -8
 455              		.cfi_offset 14, -4
 456 0002 82B0     		sub	sp, sp, #8
 457              		.cfi_def_cfa_offset 16
 458 0004 00AF     		add	r7, sp, #0
 459              		.cfi_def_cfa_register 7
 460 0006 7860     		str	r0, [r7, #4]
 461              	.LBB7:
 462              		.loc 4 43 0
 463 0008 7B68     		ldr	r3, [r7, #4]
 464 000a 034A     		ldr	r2, .L33
 465 000c 1A60     		str	r2, [r3]
 466              	.LBE7:
 467 000e 7B68     		ldr	r3, [r7, #4]
 468 0010 181C     		mov	r0, r3
 469 0012 BD46     		mov	sp, r7
 470 0014 02B0     		add	sp, sp, #8
 471              		@ sp needed
 472 0016 80BD     		pop	{r7, pc}
 473              	.L34:
 474              		.align	2
 475              	.L33:
 476 0018 08000000 		.word	_ZTVN3ros11Subscriber_E+8
 477              		.cfi_endproc
 478              	.LFE170:
 479              		.size	_ZN3ros11Subscriber_C2Ev, .-_ZN3ros11Subscriber_C2Ev
 480              		.weak	_ZN3ros11Subscriber_C1Ev
 481              		.thumb_set _ZN3ros11Subscriber_C1Ev,_ZN3ros11Subscriber_C2Ev
 482              		.section	.text._ZN3ros10SubscriberIN8std_msgs6UInt16EEC2EPKcPFvRKS2_Ei,"axG",%progbits,_ZN3ros10Su
 483              		.align	2
 484              		.weak	_ZN3ros10SubscriberIN8std_msgs6UInt16EEC2EPKcPFvRKS2_Ei
 485              		.code	16
 486              		.thumb_func
 487              		.type	_ZN3ros10SubscriberIN8std_msgs6UInt16EEC2EPKcPFvRKS2_Ei, %function
 488              	_ZN3ros10SubscriberIN8std_msgs6UInt16EEC2EPKcPFvRKS2_Ei:
 489              	.LFB172:
  44:./ros_lib/ros/subscriber.h ****   {
  45:./ros_lib/ros/subscriber.h ****     public:
  46:./ros_lib/ros/subscriber.h ****       virtual void callback(unsigned char *data)=0;
  47:./ros_lib/ros/subscriber.h ****       virtual int getEndpointType()=0;
  48:./ros_lib/ros/subscriber.h **** 
  49:./ros_lib/ros/subscriber.h ****       // id_ is set by NodeHandle when we advertise 
  50:./ros_lib/ros/subscriber.h ****       int id_;
  51:./ros_lib/ros/subscriber.h **** 
  52:./ros_lib/ros/subscriber.h ****       virtual const char * getMsgType()=0;
  53:./ros_lib/ros/subscriber.h ****       virtual const char * getMsgMD5()=0;
  54:./ros_lib/ros/subscriber.h ****       const char * topic_;
  55:./ros_lib/ros/subscriber.h ****   };
  56:./ros_lib/ros/subscriber.h **** 
  57:./ros_lib/ros/subscriber.h **** 
  58:./ros_lib/ros/subscriber.h ****   /* Actual subscriber, templated on message type. */
  59:./ros_lib/ros/subscriber.h ****   template<typename MsgT>
  60:./ros_lib/ros/subscriber.h ****   class Subscriber: public Subscriber_{
ARM GAS  C:\DOCUME~1\Chuck\LOCALS~1\Temp\ccf3JxeF.s 			page 13


  61:./ros_lib/ros/subscriber.h ****     public:
  62:./ros_lib/ros/subscriber.h ****       typedef void(*CallbackT)(const MsgT&);
  63:./ros_lib/ros/subscriber.h ****       MsgT msg;
  64:./ros_lib/ros/subscriber.h ****       // Rosserial standard callback
  65:./ros_lib/ros/subscriber.h ****       Subscriber(const char * topic_name, CallbackT cb, int endpoint=rosserial_msgs::TopicInfo::ID_
 490              		.loc 4 65 0
 491              		.cfi_startproc
 492 0000 80B5     		push	{r7, lr}
 493              		.cfi_def_cfa_offset 8
 494              		.cfi_offset 7, -8
 495              		.cfi_offset 14, -4
 496 0002 84B0     		sub	sp, sp, #16
 497              		.cfi_def_cfa_offset 24
 498 0004 00AF     		add	r7, sp, #0
 499              		.cfi_def_cfa_register 7
 500 0006 F860     		str	r0, [r7, #12]
 501 0008 B960     		str	r1, [r7, #8]
 502 000a 7A60     		str	r2, [r7, #4]
 503 000c 3B60     		str	r3, [r7]
 504              	.LBB8:
  66:./ros_lib/ros/subscriber.h ****         cb_(cb), cbp_(NULL),
  67:./ros_lib/ros/subscriber.h ****         endpoint_(endpoint)
 505              		.loc 4 67 0
 506 000e FB68     		ldr	r3, [r7, #12]
 507 0010 181C     		mov	r0, r3
 508 0012 FFF7FEFF 		bl	_ZN3ros11Subscriber_C2Ev
 509 0016 FB68     		ldr	r3, [r7, #12]
 510 0018 0B4A     		ldr	r2, .L38
 511 001a 1A60     		str	r2, [r3]
 512 001c FB68     		ldr	r3, [r7, #12]
 513 001e 0C33     		add	r3, r3, #12
 514 0020 181C     		mov	r0, r3
 515 0022 FFF7FEFF 		bl	_ZN8std_msgs6UInt16C1Ev
 516 0026 FB68     		ldr	r3, [r7, #12]
 517 0028 7A68     		ldr	r2, [r7, #4]
 518 002a 5A61     		str	r2, [r3, #20]
 519 002c FB68     		ldr	r3, [r7, #12]
 520 002e 0022     		mov	r2, #0
 521 0030 9A61     		str	r2, [r3, #24]
 522 0032 FB68     		ldr	r3, [r7, #12]
 523 0034 3A68     		ldr	r2, [r7]
 524 0036 DA61     		str	r2, [r3, #28]
  68:./ros_lib/ros/subscriber.h ****       {
  69:./ros_lib/ros/subscriber.h ****         topic_ = topic_name;
 525              		.loc 4 69 0
 526 0038 FB68     		ldr	r3, [r7, #12]
 527 003a BA68     		ldr	r2, [r7, #8]
 528 003c 9A60     		str	r2, [r3, #8]
 529              	.LBE8:
  70:./ros_lib/ros/subscriber.h ****       };
 530              		.loc 4 70 0
 531 003e FB68     		ldr	r3, [r7, #12]
 532 0040 181C     		mov	r0, r3
 533 0042 BD46     		mov	sp, r7
 534 0044 04B0     		add	sp, sp, #16
 535              		@ sp needed
 536 0046 80BD     		pop	{r7, pc}
ARM GAS  C:\DOCUME~1\Chuck\LOCALS~1\Temp\ccf3JxeF.s 			page 14


 537              	.L39:
 538              		.align	2
 539              	.L38:
 540 0048 08000000 		.word	_ZTVN3ros10SubscriberIN8std_msgs6UInt16EEE+8
 541              		.cfi_endproc
 542              	.LFE172:
 543              		.size	_ZN3ros10SubscriberIN8std_msgs6UInt16EEC2EPKcPFvRKS2_Ei, .-_ZN3ros10SubscriberIN8std_msgs6UI
 544              		.weak	_ZN3ros10SubscriberIN8std_msgs6UInt16EEC1EPKcPFvRKS2_Ei
 545              		.thumb_set _ZN3ros10SubscriberIN8std_msgs6UInt16EEC1EPKcPFvRKS2_Ei,_ZN3ros10SubscriberIN8std_msgs6
 546              		.section	.text._ZN3ros11NodeHandle_I13Psoc4HardwareLi10ELi20ELi200ELi200EE9subscribeIN8std_msgs6UI
 547              		.align	2
 548              		.weak	_ZN3ros11NodeHandle_I13Psoc4HardwareLi10ELi20ELi200ELi200EE9subscribeIN8std_msgs6UInt16EEEbR
 549              		.code	16
 550              		.thumb_func
 551              		.type	_ZN3ros11NodeHandle_I13Psoc4HardwareLi10ELi20ELi200ELi200EE9subscribeIN8std_msgs6UInt16EEEbR
 552              	_ZN3ros11NodeHandle_I13Psoc4HardwareLi10ELi20ELi200ELi200EE9subscribeIN8std_msgs6UInt16EEEbRNS_10Su
 553              	.LFB174:
 554              		.file 5 "./ros_lib/ros/node_handle.h"
   1:./ros_lib/ros/node_handle.h **** /*
   2:./ros_lib/ros/node_handle.h ****  * Software License Agreement (BSD License)
   3:./ros_lib/ros/node_handle.h ****  *
   4:./ros_lib/ros/node_handle.h ****  * Copyright (c) 2011, Willow Garage, Inc.
   5:./ros_lib/ros/node_handle.h ****  * All rights reserved.
   6:./ros_lib/ros/node_handle.h ****  *
   7:./ros_lib/ros/node_handle.h ****  * Redistribution and use in source and binary forms, with or without
   8:./ros_lib/ros/node_handle.h ****  * modification, are permitted provided that the following conditions
   9:./ros_lib/ros/node_handle.h ****  * are met:
  10:./ros_lib/ros/node_handle.h ****  *
  11:./ros_lib/ros/node_handle.h ****  *  * Redistributions of source code must retain the above copyright
  12:./ros_lib/ros/node_handle.h ****  *    notice, this list of conditions and the following disclaimer.
  13:./ros_lib/ros/node_handle.h ****  *  * Redistributions in binary form must reproduce the above
  14:./ros_lib/ros/node_handle.h ****  *    copyright notice, this list of conditions and the following
  15:./ros_lib/ros/node_handle.h ****  *    disclaimer in the documentation and/or other materials provided
  16:./ros_lib/ros/node_handle.h ****  *    with the distribution.
  17:./ros_lib/ros/node_handle.h ****  *  * Neither the name of Willow Garage, Inc. nor the names of its
  18:./ros_lib/ros/node_handle.h ****  *    contributors may be used to endorse or promote prducts derived
  19:./ros_lib/ros/node_handle.h ****  *    from this software without specific prior written permission.
  20:./ros_lib/ros/node_handle.h ****  *
  21:./ros_lib/ros/node_handle.h ****  * THIS SOFTWARE IS PROVIDED BY THE COPYRIGHT HOLDERS AND CONTRIBUTORS
  22:./ros_lib/ros/node_handle.h ****  * "AS IS" AND ANY EXPRESS OR IMPLIED WARRANTIES, INCLUDING, BUT NOT
  23:./ros_lib/ros/node_handle.h ****  * LIMITED TO, THE IMPLIED WARRANTIES OF MERCHANTABILITY AND FITNESS
  24:./ros_lib/ros/node_handle.h ****  * FOR A PARTICULAR PURPOSE ARE DISCLAIMED. IN NO EVENT SHALL THE
  25:./ros_lib/ros/node_handle.h ****  * COPYRIGHT OWNER OR CONTRIBUTORS BE LIABLE FOR ANY DIRECT, INDIRECT,
  26:./ros_lib/ros/node_handle.h ****  * INCIDENTAL, SPECIAL, EXEMPLARY, OR CONSEQUENTIAL DAMAGES (INCLUDING,
  27:./ros_lib/ros/node_handle.h ****  * BUT NOT LIMITED TO, PROCUREMENT OF SUBSTITUTE GOODS OR SERVICES;
  28:./ros_lib/ros/node_handle.h ****  * LOSS OF USE, DATA, OR PROFITS; OR BUSINESS INTERRUPTION) HOWEVER
  29:./ros_lib/ros/node_handle.h ****  * CAUSED AND ON ANY THEORY OF LIABILITY, WHETHER IN CONTRACT, STRICT
  30:./ros_lib/ros/node_handle.h ****  * LIABILITY, OR TORT (INCLUDING NEGLIGENCE OR OTHERWISE) ARISING IN
  31:./ros_lib/ros/node_handle.h ****  * ANY WAY OUT OF THE USE OF THIS SOFTWARE, EVEN IF ADVISED OF THE
  32:./ros_lib/ros/node_handle.h ****  * POSSIBILITY OF SUCH DAMAGE.
  33:./ros_lib/ros/node_handle.h ****  */
  34:./ros_lib/ros/node_handle.h **** 
  35:./ros_lib/ros/node_handle.h **** #ifndef ROS_NODE_HANDLE_H_
  36:./ros_lib/ros/node_handle.h **** #define ROS_NODE_HANDLE_H_
  37:./ros_lib/ros/node_handle.h **** 
  38:./ros_lib/ros/node_handle.h **** #ifndef PARAM_REQ_SUPPORT
  39:./ros_lib/ros/node_handle.h **** #define PARAM_REQ_SUPPORT 1
ARM GAS  C:\DOCUME~1\Chuck\LOCALS~1\Temp\ccf3JxeF.s 			page 15


  40:./ros_lib/ros/node_handle.h **** #endif
  41:./ros_lib/ros/node_handle.h **** 
  42:./ros_lib/ros/node_handle.h **** #include "std_msgs/Time.h"
  43:./ros_lib/ros/node_handle.h **** #include "rosserial_msgs/TopicInfo.h"
  44:./ros_lib/ros/node_handle.h **** #include "rosserial_msgs/Log.h"
  45:./ros_lib/ros/node_handle.h **** #if PARAM_REQ_SUPPORT
  46:./ros_lib/ros/node_handle.h **** #include "rosserial_msgs/RequestParam.h"
  47:./ros_lib/ros/node_handle.h **** #endif
  48:./ros_lib/ros/node_handle.h **** 
  49:./ros_lib/ros/node_handle.h **** #define SYNC_SECONDS        2
  50:./ros_lib/ros/node_handle.h **** 
  51:./ros_lib/ros/node_handle.h **** #define MODE_FIRST_FF       0
  52:./ros_lib/ros/node_handle.h **** /*
  53:./ros_lib/ros/node_handle.h ****  * The second sync byte is a protocol version. It's value is 0xff for the first
  54:./ros_lib/ros/node_handle.h ****  * version of the rosserial protocol (used up to hydro), 0xfe for the second version
  55:./ros_lib/ros/node_handle.h ****  * (introduced in hydro), 0xfd for the next, and so on. Its purpose is to enable
  56:./ros_lib/ros/node_handle.h ****  * detection of mismatched protocol versions (e.g. hydro rosserial_python with groovy
  57:./ros_lib/ros/node_handle.h ****  * rosserial_arduino. It must be changed in both this file and in
  58:./ros_lib/ros/node_handle.h ****  * rosserial_python/src/rosserial_python/SerialClient.py
  59:./ros_lib/ros/node_handle.h ****  */
  60:./ros_lib/ros/node_handle.h **** #define MODE_PROTOCOL_VER   1
  61:./ros_lib/ros/node_handle.h **** #define PROTOCOL_VER1		0xff // through groovy
  62:./ros_lib/ros/node_handle.h **** #define PROTOCOL_VER2		0xfe // in hydro
  63:./ros_lib/ros/node_handle.h **** #define PROTOCOL_VER 		PROTOCOL_VER2
  64:./ros_lib/ros/node_handle.h **** #define MODE_SIZE_L         2   
  65:./ros_lib/ros/node_handle.h **** #define MODE_SIZE_H         3
  66:./ros_lib/ros/node_handle.h **** #define MODE_SIZE_CHECKSUM  4   // checksum for msg size received from size L and H
  67:./ros_lib/ros/node_handle.h **** #define MODE_TOPIC_L        5   // waiting for topic id
  68:./ros_lib/ros/node_handle.h **** #define MODE_TOPIC_H        6
  69:./ros_lib/ros/node_handle.h **** #define MODE_MESSAGE        7
  70:./ros_lib/ros/node_handle.h **** #define MODE_MSG_CHECKSUM   8   // checksum for msg and topic id 
  71:./ros_lib/ros/node_handle.h **** 
  72:./ros_lib/ros/node_handle.h **** 
  73:./ros_lib/ros/node_handle.h **** #define MSG_TIMEOUT 200  // was 20 milliseconds to recieve all of message data
  74:./ros_lib/ros/node_handle.h **** 
  75:./ros_lib/ros/node_handle.h **** #include "msg.h"
  76:./ros_lib/ros/node_handle.h **** 
  77:./ros_lib/ros/node_handle.h **** namespace ros {
  78:./ros_lib/ros/node_handle.h **** 
  79:./ros_lib/ros/node_handle.h ****   class NodeHandleBase_{
  80:./ros_lib/ros/node_handle.h ****     public:
  81:./ros_lib/ros/node_handle.h ****       virtual int publish(int id, const Msg* msg)=0;
  82:./ros_lib/ros/node_handle.h ****       virtual int spinOnce()=0;
  83:./ros_lib/ros/node_handle.h ****       virtual bool connected()=0;
  84:./ros_lib/ros/node_handle.h ****     };
  85:./ros_lib/ros/node_handle.h **** }
  86:./ros_lib/ros/node_handle.h **** 
  87:./ros_lib/ros/node_handle.h **** #include "publisher.h"
  88:./ros_lib/ros/node_handle.h **** #include "subscriber.h"
  89:./ros_lib/ros/node_handle.h **** #include "service_server.h"
  90:./ros_lib/ros/node_handle.h **** #include "service_client.h"
  91:./ros_lib/ros/node_handle.h **** 
  92:./ros_lib/ros/node_handle.h **** namespace ros {
  93:./ros_lib/ros/node_handle.h **** 
  94:./ros_lib/ros/node_handle.h ****   using rosserial_msgs::TopicInfo;
  95:./ros_lib/ros/node_handle.h **** 
  96:./ros_lib/ros/node_handle.h ****   /* Node Handle */
ARM GAS  C:\DOCUME~1\Chuck\LOCALS~1\Temp\ccf3JxeF.s 			page 16


  97:./ros_lib/ros/node_handle.h ****   template<class Hardware,
  98:./ros_lib/ros/node_handle.h ****            int MAX_SUBSCRIBERS=25,
  99:./ros_lib/ros/node_handle.h ****            int MAX_PUBLISHERS=25,
 100:./ros_lib/ros/node_handle.h ****            int INPUT_SIZE=512,
 101:./ros_lib/ros/node_handle.h ****            int OUTPUT_SIZE=512>
 102:./ros_lib/ros/node_handle.h ****   class NodeHandle_ : public NodeHandleBase_
 103:./ros_lib/ros/node_handle.h ****   {
 104:./ros_lib/ros/node_handle.h ****     protected:
 105:./ros_lib/ros/node_handle.h ****       Hardware hardware_;
 106:./ros_lib/ros/node_handle.h **** 
 107:./ros_lib/ros/node_handle.h ****       /* time used for syncing */
 108:./ros_lib/ros/node_handle.h ****       unsigned long rt_time;
 109:./ros_lib/ros/node_handle.h **** 
 110:./ros_lib/ros/node_handle.h ****       /* used for computing current time */
 111:./ros_lib/ros/node_handle.h ****       unsigned long sec_offset, nsec_offset;
 112:./ros_lib/ros/node_handle.h **** 
 113:./ros_lib/ros/node_handle.h ****       unsigned char message_in[INPUT_SIZE];
 114:./ros_lib/ros/node_handle.h ****       unsigned char message_out[OUTPUT_SIZE];
 115:./ros_lib/ros/node_handle.h **** 
 116:./ros_lib/ros/node_handle.h ****       Publisher * publishers[MAX_PUBLISHERS];
 117:./ros_lib/ros/node_handle.h ****       Subscriber_ * subscribers[MAX_SUBSCRIBERS];
 118:./ros_lib/ros/node_handle.h **** 
 119:./ros_lib/ros/node_handle.h ****       /*
 120:./ros_lib/ros/node_handle.h ****        * Setup Functions
 121:./ros_lib/ros/node_handle.h ****        */
 122:./ros_lib/ros/node_handle.h ****     public:
 123:./ros_lib/ros/node_handle.h ****       NodeHandle_() : configured_(false) {
 124:./ros_lib/ros/node_handle.h **** #if true
 125:./ros_lib/ros/node_handle.h ****         for(unsigned int i=0; i< MAX_PUBLISHERS; i++) 
 126:./ros_lib/ros/node_handle.h **** 	   publishers[i] = 0;
 127:./ros_lib/ros/node_handle.h **** 
 128:./ros_lib/ros/node_handle.h ****         for(unsigned int i=0; i< MAX_SUBSCRIBERS; i++) 
 129:./ros_lib/ros/node_handle.h **** 	   subscribers[i] = 0;
 130:./ros_lib/ros/node_handle.h **** 
 131:./ros_lib/ros/node_handle.h ****         for(unsigned int i=0; i< INPUT_SIZE; i++) 
 132:./ros_lib/ros/node_handle.h **** 	   message_in[i] = 0;
 133:./ros_lib/ros/node_handle.h **** 
 134:./ros_lib/ros/node_handle.h ****         for(unsigned int i=0; i< OUTPUT_SIZE; i++) 
 135:./ros_lib/ros/node_handle.h **** 	   message_out[i] = 0;
 136:./ros_lib/ros/node_handle.h **** 
 137:./ros_lib/ros/node_handle.h ****         req_param_resp.ints_length = 0;
 138:./ros_lib/ros/node_handle.h ****         req_param_resp.ints = NULL;
 139:./ros_lib/ros/node_handle.h ****         req_param_resp.floats_length = 0;
 140:./ros_lib/ros/node_handle.h ****         req_param_resp.floats = NULL;
 141:./ros_lib/ros/node_handle.h ****         req_param_resp.ints_length = 0;
 142:./ros_lib/ros/node_handle.h ****         req_param_resp.ints = NULL;
 143:./ros_lib/ros/node_handle.h ****       }
 144:./ros_lib/ros/node_handle.h **** #endif      
 145:./ros_lib/ros/node_handle.h ****       Hardware* getHardware(){
 146:./ros_lib/ros/node_handle.h ****         return &hardware_;
 147:./ros_lib/ros/node_handle.h ****       }
 148:./ros_lib/ros/node_handle.h **** 
 149:./ros_lib/ros/node_handle.h ****       /* Start serial, initialize buffers */
 150:./ros_lib/ros/node_handle.h ****       void initNode(){
 151:./ros_lib/ros/node_handle.h ****         hardware_.init();
 152:./ros_lib/ros/node_handle.h ****         mode_ = 0;
 153:./ros_lib/ros/node_handle.h ****         bytes_ = 0;
ARM GAS  C:\DOCUME~1\Chuck\LOCALS~1\Temp\ccf3JxeF.s 			page 17


 154:./ros_lib/ros/node_handle.h ****         index_ = 0;
 155:./ros_lib/ros/node_handle.h ****         topic_ = 0;
 156:./ros_lib/ros/node_handle.h ****       };
 157:./ros_lib/ros/node_handle.h **** 
 158:./ros_lib/ros/node_handle.h ****       /* Start a named port, which may be network server IP, initialize buffers */
 159:./ros_lib/ros/node_handle.h ****       void initNode(char *portName){
 160:./ros_lib/ros/node_handle.h ****         hardware_.init(portName);
 161:./ros_lib/ros/node_handle.h ****         mode_ = 0;
 162:./ros_lib/ros/node_handle.h ****         bytes_ = 0;
 163:./ros_lib/ros/node_handle.h ****         index_ = 0;
 164:./ros_lib/ros/node_handle.h ****         topic_ = 0;
 165:./ros_lib/ros/node_handle.h ****       };
 166:./ros_lib/ros/node_handle.h **** 
 167:./ros_lib/ros/node_handle.h ****     protected:
 168:./ros_lib/ros/node_handle.h ****       //State machine variables for spinOnce
 169:./ros_lib/ros/node_handle.h ****       int mode_;
 170:./ros_lib/ros/node_handle.h ****       int bytes_;
 171:./ros_lib/ros/node_handle.h ****       int topic_;
 172:./ros_lib/ros/node_handle.h ****       int index_;
 173:./ros_lib/ros/node_handle.h ****       int checksum_;
 174:./ros_lib/ros/node_handle.h **** 
 175:./ros_lib/ros/node_handle.h ****       bool configured_;
 176:./ros_lib/ros/node_handle.h **** 
 177:./ros_lib/ros/node_handle.h ****       /* used for syncing the time */
 178:./ros_lib/ros/node_handle.h ****       unsigned long last_sync_time;
 179:./ros_lib/ros/node_handle.h ****       unsigned long last_sync_receive_time;
 180:./ros_lib/ros/node_handle.h ****       unsigned long last_msg_timeout_time;
 181:./ros_lib/ros/node_handle.h **** 
 182:./ros_lib/ros/node_handle.h ****     public:
 183:./ros_lib/ros/node_handle.h ****       /* This function goes in your loop() function, it handles
 184:./ros_lib/ros/node_handle.h ****        *  serial input and callbacks for subscribers.
 185:./ros_lib/ros/node_handle.h ****        */
 186:./ros_lib/ros/node_handle.h **** 
 187:./ros_lib/ros/node_handle.h **** 
 188:./ros_lib/ros/node_handle.h ****       virtual int spinOnce(){
 189:./ros_lib/ros/node_handle.h **** 
 190:./ros_lib/ros/node_handle.h ****         /* restart if timed out */
 191:./ros_lib/ros/node_handle.h ****         unsigned long c_time = hardware_.time();
 192:./ros_lib/ros/node_handle.h ****         if( (c_time - last_sync_receive_time) > (SYNC_SECONDS*1100) ){
 193:./ros_lib/ros/node_handle.h ****             configured_ = false;
 194:./ros_lib/ros/node_handle.h ****          }
 195:./ros_lib/ros/node_handle.h ****          
 196:./ros_lib/ros/node_handle.h ****         /* reset if message has timed out */
 197:./ros_lib/ros/node_handle.h ****         if ( mode_ != MODE_FIRST_FF){ 
 198:./ros_lib/ros/node_handle.h ****           if (c_time > last_msg_timeout_time){
 199:./ros_lib/ros/node_handle.h ****             mode_ = MODE_FIRST_FF;
 200:./ros_lib/ros/node_handle.h ****           }
 201:./ros_lib/ros/node_handle.h ****         }
 202:./ros_lib/ros/node_handle.h **** 
 203:./ros_lib/ros/node_handle.h ****         /* while available buffer, read data */
 204:./ros_lib/ros/node_handle.h ****         while( true )
 205:./ros_lib/ros/node_handle.h ****         {
 206:./ros_lib/ros/node_handle.h ****           int data = hardware_.read();
 207:./ros_lib/ros/node_handle.h ****           if( data < 0 )
 208:./ros_lib/ros/node_handle.h ****             break;
 209:./ros_lib/ros/node_handle.h ****           checksum_ += data;
 210:./ros_lib/ros/node_handle.h ****           if( mode_ == MODE_MESSAGE ){        /* message data being recieved */
ARM GAS  C:\DOCUME~1\Chuck\LOCALS~1\Temp\ccf3JxeF.s 			page 18


 211:./ros_lib/ros/node_handle.h ****             message_in[index_++] = data;
 212:./ros_lib/ros/node_handle.h ****             bytes_--;
 213:./ros_lib/ros/node_handle.h ****             if(bytes_ == 0)                  /* is message complete? if so, checksum */
 214:./ros_lib/ros/node_handle.h ****               mode_ = MODE_MSG_CHECKSUM;
 215:./ros_lib/ros/node_handle.h ****           }else if( mode_ == MODE_FIRST_FF ){
 216:./ros_lib/ros/node_handle.h ****             if(data == 0xff){
 217:./ros_lib/ros/node_handle.h ****               mode_++;
 218:./ros_lib/ros/node_handle.h ****               last_msg_timeout_time = c_time + MSG_TIMEOUT;
 219:./ros_lib/ros/node_handle.h ****             }
 220:./ros_lib/ros/node_handle.h ****             else if( hardware_.time() - c_time > (SYNC_SECONDS)){
 221:./ros_lib/ros/node_handle.h ****               /* We have been stuck in spinOnce too long, return error */
 222:./ros_lib/ros/node_handle.h ****               configured_=false;
 223:./ros_lib/ros/node_handle.h ****               return -2;
 224:./ros_lib/ros/node_handle.h ****             }
 225:./ros_lib/ros/node_handle.h ****           }else if( mode_ == MODE_PROTOCOL_VER ){
 226:./ros_lib/ros/node_handle.h ****             if(data == PROTOCOL_VER){
 227:./ros_lib/ros/node_handle.h ****               mode_++;
 228:./ros_lib/ros/node_handle.h ****             }else{
 229:./ros_lib/ros/node_handle.h ****               mode_ = MODE_FIRST_FF;
 230:./ros_lib/ros/node_handle.h ****               if (configured_ == false)
 231:./ros_lib/ros/node_handle.h ****                   requestSyncTime(); 	/* send a msg back showing our protocol version */
 232:./ros_lib/ros/node_handle.h ****             }
 233:./ros_lib/ros/node_handle.h **** 	  }else if( mode_ == MODE_SIZE_L ){   /* bottom half of message size */
 234:./ros_lib/ros/node_handle.h ****             bytes_ = data;
 235:./ros_lib/ros/node_handle.h ****             index_ = 0;
 236:./ros_lib/ros/node_handle.h ****             mode_++;
 237:./ros_lib/ros/node_handle.h ****             checksum_ = data;               /* first byte for calculating size checksum */
 238:./ros_lib/ros/node_handle.h ****           }else if( mode_ == MODE_SIZE_H ){   /* top half of message size */
 239:./ros_lib/ros/node_handle.h ****             bytes_ += data<<8;
 240:./ros_lib/ros/node_handle.h **** 	    mode_++;
 241:./ros_lib/ros/node_handle.h ****           }else if( mode_ == MODE_SIZE_CHECKSUM ){  
 242:./ros_lib/ros/node_handle.h ****             if( (checksum_%256) == 255)
 243:./ros_lib/ros/node_handle.h **** 	      mode_++;
 244:./ros_lib/ros/node_handle.h **** 	    else 
 245:./ros_lib/ros/node_handle.h **** 	      mode_ = MODE_FIRST_FF;          /* Abandon the frame if the msg len is wrong */
 246:./ros_lib/ros/node_handle.h **** 	  }else if( mode_ == MODE_TOPIC_L ){  /* bottom half of topic id */
 247:./ros_lib/ros/node_handle.h ****             topic_ = data;
 248:./ros_lib/ros/node_handle.h ****             mode_++;
 249:./ros_lib/ros/node_handle.h ****             checksum_ = data;               /* first byte included in checksum */
 250:./ros_lib/ros/node_handle.h ****           }else if( mode_ == MODE_TOPIC_H ){  /* top half of topic id */
 251:./ros_lib/ros/node_handle.h ****             topic_ += data<<8;
 252:./ros_lib/ros/node_handle.h ****             mode_ = MODE_MESSAGE;
 253:./ros_lib/ros/node_handle.h ****             if(bytes_ == 0)
 254:./ros_lib/ros/node_handle.h ****               mode_ = MODE_MSG_CHECKSUM;  
 255:./ros_lib/ros/node_handle.h ****           }else if( mode_ == MODE_MSG_CHECKSUM ){ /* do checksum */
 256:./ros_lib/ros/node_handle.h ****             mode_ = MODE_FIRST_FF;
 257:./ros_lib/ros/node_handle.h ****             if( (checksum_%256) == 255){
 258:./ros_lib/ros/node_handle.h ****               if(topic_ == TopicInfo::ID_PUBLISHER){
 259:./ros_lib/ros/node_handle.h ****                 requestSyncTime();
 260:./ros_lib/ros/node_handle.h ****                 negotiateTopics();
 261:./ros_lib/ros/node_handle.h ****                 last_sync_time = c_time;
 262:./ros_lib/ros/node_handle.h ****                 last_sync_receive_time = c_time;
 263:./ros_lib/ros/node_handle.h ****                 return -1;
 264:./ros_lib/ros/node_handle.h ****               }else if(topic_ == TopicInfo::ID_TIME){
 265:./ros_lib/ros/node_handle.h ****                 syncTime(message_in);
 266:./ros_lib/ros/node_handle.h ****               #if PARAM_REQ_SUPPORT
 267:./ros_lib/ros/node_handle.h ****               }else if (topic_ == TopicInfo::ID_PARAMETER_REQUEST){
ARM GAS  C:\DOCUME~1\Chuck\LOCALS~1\Temp\ccf3JxeF.s 			page 19


 268:./ros_lib/ros/node_handle.h ****                   req_param_resp.deserialize(message_in);
 269:./ros_lib/ros/node_handle.h ****                   param_recieved= true;
 270:./ros_lib/ros/node_handle.h ****               #endif
 271:./ros_lib/ros/node_handle.h ****               }else if(topic_ == TopicInfo::ID_TX_STOP){
 272:./ros_lib/ros/node_handle.h ****                   configured_ = false;
 273:./ros_lib/ros/node_handle.h ****               }else{
 274:./ros_lib/ros/node_handle.h ****                 if(subscribers[topic_-100])
 275:./ros_lib/ros/node_handle.h ****                   subscribers[topic_-100]->callback( message_in );
 276:./ros_lib/ros/node_handle.h ****               }
 277:./ros_lib/ros/node_handle.h ****             }
 278:./ros_lib/ros/node_handle.h ****           }
 279:./ros_lib/ros/node_handle.h ****         }
 280:./ros_lib/ros/node_handle.h **** 
 281:./ros_lib/ros/node_handle.h ****         /* occasionally sync time */
 282:./ros_lib/ros/node_handle.h ****         if( configured_ && ((c_time-last_sync_time) > (SYNC_SECONDS*500) )){
 283:./ros_lib/ros/node_handle.h ****           requestSyncTime();
 284:./ros_lib/ros/node_handle.h ****           last_sync_time = c_time;
 285:./ros_lib/ros/node_handle.h ****         }
 286:./ros_lib/ros/node_handle.h **** 
 287:./ros_lib/ros/node_handle.h ****         return 0;
 288:./ros_lib/ros/node_handle.h ****       }
 289:./ros_lib/ros/node_handle.h **** 
 290:./ros_lib/ros/node_handle.h **** 
 291:./ros_lib/ros/node_handle.h ****       /* Are we connected to the PC? */
 292:./ros_lib/ros/node_handle.h ****       virtual bool connected() {
 293:./ros_lib/ros/node_handle.h ****         return configured_;
 294:./ros_lib/ros/node_handle.h ****       };
 295:./ros_lib/ros/node_handle.h **** 
 296:./ros_lib/ros/node_handle.h ****       /********************************************************************
 297:./ros_lib/ros/node_handle.h ****        * Time functions
 298:./ros_lib/ros/node_handle.h ****        */
 299:./ros_lib/ros/node_handle.h **** 
 300:./ros_lib/ros/node_handle.h ****       void requestSyncTime()
 301:./ros_lib/ros/node_handle.h ****       {
 302:./ros_lib/ros/node_handle.h ****         std_msgs::Time t;
 303:./ros_lib/ros/node_handle.h ****         publish(TopicInfo::ID_TIME, &t);
 304:./ros_lib/ros/node_handle.h ****         rt_time = hardware_.time();
 305:./ros_lib/ros/node_handle.h ****       }
 306:./ros_lib/ros/node_handle.h **** 
 307:./ros_lib/ros/node_handle.h ****       void syncTime( unsigned char * data )
 308:./ros_lib/ros/node_handle.h ****       {
 309:./ros_lib/ros/node_handle.h ****         std_msgs::Time t;
 310:./ros_lib/ros/node_handle.h ****         unsigned long offset = hardware_.time() - rt_time;
 311:./ros_lib/ros/node_handle.h **** 
 312:./ros_lib/ros/node_handle.h ****         t.deserialize(data);
 313:./ros_lib/ros/node_handle.h ****         t.data.sec += offset/1000;
 314:./ros_lib/ros/node_handle.h ****         t.data.nsec += (offset%1000)*1000000UL;
 315:./ros_lib/ros/node_handle.h **** 
 316:./ros_lib/ros/node_handle.h ****         this->setNow(t.data);
 317:./ros_lib/ros/node_handle.h ****         last_sync_receive_time = hardware_.time();
 318:./ros_lib/ros/node_handle.h ****       }
 319:./ros_lib/ros/node_handle.h **** 
 320:./ros_lib/ros/node_handle.h ****       Time now(){
 321:./ros_lib/ros/node_handle.h ****         unsigned long ms = hardware_.time();
 322:./ros_lib/ros/node_handle.h ****         Time current_time;
 323:./ros_lib/ros/node_handle.h ****         current_time.sec = ms/1000 + sec_offset;
 324:./ros_lib/ros/node_handle.h ****         current_time.nsec = (ms%1000)*1000000UL + nsec_offset;
ARM GAS  C:\DOCUME~1\Chuck\LOCALS~1\Temp\ccf3JxeF.s 			page 20


 325:./ros_lib/ros/node_handle.h ****         normalizeSecNSec(current_time.sec, current_time.nsec);
 326:./ros_lib/ros/node_handle.h ****         return current_time;
 327:./ros_lib/ros/node_handle.h ****       }
 328:./ros_lib/ros/node_handle.h **** 
 329:./ros_lib/ros/node_handle.h ****       void setNow( Time & new_now )
 330:./ros_lib/ros/node_handle.h ****       {
 331:./ros_lib/ros/node_handle.h ****         unsigned long ms = hardware_.time();
 332:./ros_lib/ros/node_handle.h ****         sec_offset = new_now.sec - ms/1000 - 1;
 333:./ros_lib/ros/node_handle.h ****         nsec_offset = new_now.nsec - (ms%1000)*1000000UL + 1000000000UL;
 334:./ros_lib/ros/node_handle.h ****         normalizeSecNSec(sec_offset, nsec_offset);
 335:./ros_lib/ros/node_handle.h ****       }
 336:./ros_lib/ros/node_handle.h **** 
 337:./ros_lib/ros/node_handle.h ****       /********************************************************************
 338:./ros_lib/ros/node_handle.h ****        * Topic Management 
 339:./ros_lib/ros/node_handle.h ****        */
 340:./ros_lib/ros/node_handle.h **** 
 341:./ros_lib/ros/node_handle.h ****       /* Register a new publisher */    
 342:./ros_lib/ros/node_handle.h ****       bool advertise(Publisher & p)
 343:./ros_lib/ros/node_handle.h ****       {
 344:./ros_lib/ros/node_handle.h ****         for(int i = 0; i < MAX_PUBLISHERS; i++){
 345:./ros_lib/ros/node_handle.h ****           if(publishers[i] == 0){ // empty slot
 346:./ros_lib/ros/node_handle.h ****             publishers[i] = &p;
 347:./ros_lib/ros/node_handle.h ****             p.id_ = i+100+MAX_SUBSCRIBERS;
 348:./ros_lib/ros/node_handle.h ****             p.nh_ = this;
 349:./ros_lib/ros/node_handle.h ****             return true;
 350:./ros_lib/ros/node_handle.h ****           }
 351:./ros_lib/ros/node_handle.h ****         }
 352:./ros_lib/ros/node_handle.h ****         return false;
 353:./ros_lib/ros/node_handle.h ****       }
 354:./ros_lib/ros/node_handle.h **** 
 355:./ros_lib/ros/node_handle.h ****       /* Register a new subscriber */
 356:./ros_lib/ros/node_handle.h ****       template<typename MsgT>
 357:./ros_lib/ros/node_handle.h ****       bool subscribe(Subscriber< MsgT> & s){
 555              		.loc 5 357 0
 556              		.cfi_startproc
 557 0000 80B5     		push	{r7, lr}
 558              		.cfi_def_cfa_offset 8
 559              		.cfi_offset 7, -8
 560              		.cfi_offset 14, -4
 561 0002 84B0     		sub	sp, sp, #16
 562              		.cfi_def_cfa_offset 24
 563 0004 00AF     		add	r7, sp, #0
 564              		.cfi_def_cfa_register 7
 565 0006 7860     		str	r0, [r7, #4]
 566 0008 3960     		str	r1, [r7]
 567              	.LBB9:
 568              	.LBB10:
 358:./ros_lib/ros/node_handle.h ****         for(int i = 0; i < MAX_SUBSCRIBERS; i++){
 569              		.loc 5 358 0
 570 000a 0023     		mov	r3, #0
 571 000c FB60     		str	r3, [r7, #12]
 572 000e 16E0     		b	.L41
 573              	.L44:
 359:./ros_lib/ros/node_handle.h ****           if(subscribers[i] == 0){ // empty slot
 574              		.loc 5 359 0
 575 0010 7B68     		ldr	r3, [r7, #4]
 576 0012 FA68     		ldr	r2, [r7, #12]
ARM GAS  C:\DOCUME~1\Chuck\LOCALS~1\Temp\ccf3JxeF.s 			page 21


 577 0014 7E32     		add	r2, r2, #126
 578 0016 9200     		lsl	r2, r2, #2
 579 0018 D358     		ldr	r3, [r2, r3]
 580 001a 002B     		cmp	r3, #0
 581 001c 0CD1     		bne	.L42
 360:./ros_lib/ros/node_handle.h ****             subscribers[i] = (Subscriber_*) &s;
 582              		.loc 5 360 0
 583 001e 3968     		ldr	r1, [r7]
 584 0020 7B68     		ldr	r3, [r7, #4]
 585 0022 FA68     		ldr	r2, [r7, #12]
 586 0024 7E32     		add	r2, r2, #126
 587 0026 9200     		lsl	r2, r2, #2
 588 0028 D150     		str	r1, [r2, r3]
 361:./ros_lib/ros/node_handle.h ****             s.id_ = i+100;
 589              		.loc 5 361 0
 590 002a FB68     		ldr	r3, [r7, #12]
 591 002c 1A1C     		mov	r2, r3
 592 002e 6432     		add	r2, r2, #100
 593 0030 3B68     		ldr	r3, [r7]
 594 0032 5A60     		str	r2, [r3, #4]
 362:./ros_lib/ros/node_handle.h ****             return true;
 595              		.loc 5 362 0
 596 0034 0123     		mov	r3, #1
 597 0036 06E0     		b	.L43
 598              	.L42:
 358:./ros_lib/ros/node_handle.h ****         for(int i = 0; i < MAX_SUBSCRIBERS; i++){
 599              		.loc 5 358 0
 600 0038 FB68     		ldr	r3, [r7, #12]
 601 003a 0133     		add	r3, r3, #1
 602 003c FB60     		str	r3, [r7, #12]
 603              	.L41:
 358:./ros_lib/ros/node_handle.h ****         for(int i = 0; i < MAX_SUBSCRIBERS; i++){
 604              		.loc 5 358 0 is_stmt 0 discriminator 1
 605 003e FB68     		ldr	r3, [r7, #12]
 606 0040 092B     		cmp	r3, #9
 607 0042 E5DD     		ble	.L44
 608              	.LBE10:
 363:./ros_lib/ros/node_handle.h ****           }
 364:./ros_lib/ros/node_handle.h ****         }
 365:./ros_lib/ros/node_handle.h ****         return false;
 609              		.loc 5 365 0 is_stmt 1
 610 0044 0023     		mov	r3, #0
 611              	.L43:
 612              	.LBE9:
 366:./ros_lib/ros/node_handle.h ****       }
 613              		.loc 5 366 0
 614 0046 181C     		mov	r0, r3
 615 0048 BD46     		mov	sp, r7
 616 004a 04B0     		add	sp, sp, #16
 617              		@ sp needed
 618 004c 80BD     		pop	{r7, pc}
 619              		.cfi_endproc
 620              	.LFE174:
 621              		.size	_ZN3ros11NodeHandle_I13Psoc4HardwareLi10ELi20ELi200ELi200EE9subscribeIN8std_msgs6UInt16EEEbR
 622              		.weak	_ZTVN3ros10SubscriberIN8std_msgs6UInt16EEE
 623 004e C046     		.section	.rodata._ZTVN3ros10SubscriberIN8std_msgs6UInt16EEE,"aG",%progbits,_ZTVN3ros10SubscriberIN
 624              		.align	3
ARM GAS  C:\DOCUME~1\Chuck\LOCALS~1\Temp\ccf3JxeF.s 			page 22


 625              		.type	_ZTVN3ros10SubscriberIN8std_msgs6UInt16EEE, %object
 626              		.size	_ZTVN3ros10SubscriberIN8std_msgs6UInt16EEE, 24
 627              	_ZTVN3ros10SubscriberIN8std_msgs6UInt16EEE:
 628 0000 00000000 		.word	0
 629 0004 00000000 		.word	0
 630 0008 00000000 		.word	_ZN3ros10SubscriberIN8std_msgs6UInt16EE8callbackEPh
 631 000c 00000000 		.word	_ZN3ros10SubscriberIN8std_msgs6UInt16EE15getEndpointTypeEv
 632 0010 00000000 		.word	_ZN3ros10SubscriberIN8std_msgs6UInt16EE10getMsgTypeEv
 633 0014 00000000 		.word	_ZN3ros10SubscriberIN8std_msgs6UInt16EE9getMsgMD5Ev
 634              		.weak	_ZTVN8std_msgs6UInt16E
 635              		.section	.rodata._ZTVN8std_msgs6UInt16E,"aG",%progbits,_ZTVN8std_msgs6UInt16E,comdat
 636              		.align	3
 637              		.type	_ZTVN8std_msgs6UInt16E, %object
 638              		.size	_ZTVN8std_msgs6UInt16E, 24
 639              	_ZTVN8std_msgs6UInt16E:
 640 0000 00000000 		.word	0
 641 0004 00000000 		.word	0
 642 0008 00000000 		.word	_ZNK8std_msgs6UInt169serializeEPh
 643 000c 00000000 		.word	_ZN8std_msgs6UInt1611deserializeEPh
 644 0010 00000000 		.word	_ZN8std_msgs6UInt167getTypeEv
 645 0014 00000000 		.word	_ZN8std_msgs6UInt166getMD5Ev
 646              		.weak	_ZTVN3ros11Subscriber_E
 647              		.section	.rodata._ZTVN3ros11Subscriber_E,"aG",%progbits,_ZTVN3ros11Subscriber_E,comdat
 648              		.align	3
 649              		.type	_ZTVN3ros11Subscriber_E, %object
 650              		.size	_ZTVN3ros11Subscriber_E, 24
 651              	_ZTVN3ros11Subscriber_E:
 652 0000 00000000 		.word	0
 653 0004 00000000 		.word	0
 654 0008 00000000 		.word	__cxa_pure_virtual
 655 000c 00000000 		.word	__cxa_pure_virtual
 656 0010 00000000 		.word	__cxa_pure_virtual
 657 0014 00000000 		.word	__cxa_pure_virtual
 658              		.weak	_ZTVN3ros3MsgE
 659              		.section	.rodata._ZTVN3ros3MsgE,"aG",%progbits,_ZTVN3ros3MsgE,comdat
 660              		.align	3
 661              		.type	_ZTVN3ros3MsgE, %object
 662              		.size	_ZTVN3ros3MsgE, 24
 663              	_ZTVN3ros3MsgE:
 664 0000 00000000 		.word	0
 665 0004 00000000 		.word	0
 666 0008 00000000 		.word	__cxa_pure_virtual
 667 000c 00000000 		.word	__cxa_pure_virtual
 668 0010 00000000 		.word	__cxa_pure_virtual
 669 0014 00000000 		.word	__cxa_pure_virtual
 670              		.section	.rodata
 671 0031 000000   		.align	2
 672              	.LC11:
 673 0034 73657276 		.ascii	"servo_us\000"
 673      6F5F7573 
 673      00
 674              		.section	.text._Z41__static_initialization_and_destruction_0ii,"ax",%progbits
 675              		.align	2
 676              		.code	16
 677              		.thumb_func
 678              		.type	_Z41__static_initialization_and_destruction_0ii, %function
 679              	_Z41__static_initialization_and_destruction_0ii:
ARM GAS  C:\DOCUME~1\Chuck\LOCALS~1\Temp\ccf3JxeF.s 			page 23


 680              	.LFB175:
  37:.\ros_lib\examples\ServoControl/ServoControl.cpp **** 
  38:.\ros_lib\examples\ServoControl/ServoControl.cpp **** } // namespace
 681              		.loc 3 38 0
 682              		.cfi_startproc
 683 0000 80B5     		push	{r7, lr}
 684              		.cfi_def_cfa_offset 8
 685              		.cfi_offset 7, -8
 686              		.cfi_offset 14, -4
 687 0002 82B0     		sub	sp, sp, #8
 688              		.cfi_def_cfa_offset 16
 689 0004 00AF     		add	r7, sp, #0
 690              		.cfi_def_cfa_register 7
 691 0006 7860     		str	r0, [r7, #4]
 692 0008 3960     		str	r1, [r7]
 693              		.loc 3 38 0
 694 000a 7B68     		ldr	r3, [r7, #4]
 695 000c 012B     		cmp	r3, #1
 696 000e 0CD1     		bne	.L45
 697              		.loc 3 38 0 is_stmt 0 discriminator 1
 698 0010 3A68     		ldr	r2, [r7]
 699 0012 074B     		ldr	r3, .L47
 700 0014 9A42     		cmp	r2, r3
 701 0016 08D1     		bne	.L45
  27:.\ros_lib\examples\ServoControl/ServoControl.cpp **** ros::Subscriber<std_msgs::UInt16> sub("servo_us", servo_us_cb);
 702              		.loc 3 27 0 is_stmt 1
 703 0018 0649     		ldr	r1, .L47+4
 704 001a 074A     		ldr	r2, .L47+8
 705 001c 074B     		ldr	r3, .L47+12
 706 001e 081C     		mov	r0, r1
 707 0020 111C     		mov	r1, r2
 708 0022 1A1C     		mov	r2, r3
 709 0024 0123     		mov	r3, #1
 710 0026 FFF7FEFF 		bl	_ZN3ros10SubscriberIN8std_msgs6UInt16EEC1EPKcPFvRKS2_Ei
 711              	.L45:
 712              		.loc 3 38 0
 713 002a BD46     		mov	sp, r7
 714 002c 02B0     		add	sp, sp, #8
 715              		@ sp needed
 716 002e 80BD     		pop	{r7, pc}
 717              	.L48:
 718              		.align	2
 719              	.L47:
 720 0030 FFFF0000 		.word	65535
 721 0034 00000000 		.word	_ZN12ServoControl3subE
 722 0038 34000000 		.word	.LC11
 723 003c 00000000 		.word	_ZN12ServoControl11servo_us_cbERKN8std_msgs6UInt16E
 724              		.cfi_endproc
 725              	.LFE175:
 726              		.size	_Z41__static_initialization_and_destruction_0ii, .-_Z41__static_initialization_and_destructi
 727              		.section	.rodata
 728 003d 000000   		.align	2
 729              		.type	_ZN14rosserial_msgsL12REQUESTPARAME, %object
 730              		.size	_ZN14rosserial_msgsL12REQUESTPARAME, 28
 731              	_ZN14rosserial_msgsL12REQUESTPARAME:
 732 0040 726F7373 		.ascii	"rosserial_msgs/RequestParam\000"
 732      65726961 
ARM GAS  C:\DOCUME~1\Chuck\LOCALS~1\Temp\ccf3JxeF.s 			page 24


 732      6C5F6D73 
 732      67732F52 
 732      65717565 
 733              		.section	.text._ZN3ros10SubscriberIN8std_msgs6UInt16EE8callbackEPh,"axG",%progbits,_ZN3ros10Subscr
 734              		.align	2
 735              		.weak	_ZN3ros10SubscriberIN8std_msgs6UInt16EE8callbackEPh
 736              		.code	16
 737              		.thumb_func
 738              		.type	_ZN3ros10SubscriberIN8std_msgs6UInt16EE8callbackEPh, %function
 739              	_ZN3ros10SubscriberIN8std_msgs6UInt16EE8callbackEPh:
 740              	.LFB176:
  71:./ros_lib/ros/subscriber.h ****       // callback with message pointer allows use of member-function callbacks
  72:./ros_lib/ros/subscriber.h ****       typedef void(*CallbackTPtr)(const MsgT*);
  73:./ros_lib/ros/subscriber.h ****       Subscriber(const char * topic_name, CallbackTPtr cbp, int endpoint=rosserial_msgs::TopicInfo:
  74:./ros_lib/ros/subscriber.h ****         cb_(NULL), cbp_(cbp),
  75:./ros_lib/ros/subscriber.h ****         endpoint_(endpoint)
  76:./ros_lib/ros/subscriber.h ****       {
  77:./ros_lib/ros/subscriber.h ****         topic_ = topic_name;
  78:./ros_lib/ros/subscriber.h ****       };
  79:./ros_lib/ros/subscriber.h ****       // uninitialized callback pointer
  80:./ros_lib/ros/subscriber.h ****       Subscriber(int endpoint=rosserial_msgs::TopicInfo::ID_SUBSCRIBER) :
  81:./ros_lib/ros/subscriber.h ****         cb_(NULL), cbp_(NULL),
  82:./ros_lib/ros/subscriber.h ****         endpoint_(endpoint)
  83:./ros_lib/ros/subscriber.h ****       {
  84:./ros_lib/ros/subscriber.h ****       };
  85:./ros_lib/ros/subscriber.h **** 
  86:./ros_lib/ros/subscriber.h ****       virtual void callback(unsigned char* data){
 741              		.loc 4 86 0
 742              		.cfi_startproc
 743 0000 80B5     		push	{r7, lr}
 744              		.cfi_def_cfa_offset 8
 745              		.cfi_offset 7, -8
 746              		.cfi_offset 14, -4
 747 0002 82B0     		sub	sp, sp, #8
 748              		.cfi_def_cfa_offset 16
 749 0004 00AF     		add	r7, sp, #0
 750              		.cfi_def_cfa_register 7
 751 0006 7860     		str	r0, [r7, #4]
 752 0008 3960     		str	r1, [r7]
  87:./ros_lib/ros/subscriber.h ****         msg.deserialize(data);
 753              		.loc 4 87 0
 754 000a 7B68     		ldr	r3, [r7, #4]
 755 000c 1A1C     		mov	r2, r3
 756 000e 0C32     		add	r2, r2, #12
 757 0010 3B68     		ldr	r3, [r7]
 758 0012 101C     		mov	r0, r2
 759 0014 191C     		mov	r1, r3
 760 0016 FFF7FEFF 		bl	_ZN8std_msgs6UInt1611deserializeEPh
  88:./ros_lib/ros/subscriber.h ****         if (cb_) {
 761              		.loc 4 88 0
 762 001a 7B68     		ldr	r3, [r7, #4]
 763 001c 5B69     		ldr	r3, [r3, #20]
 764 001e 002B     		cmp	r3, #0
 765 0020 06D0     		beq	.L50
  89:./ros_lib/ros/subscriber.h ****           this->cb_(msg);
 766              		.loc 4 89 0
 767 0022 7B68     		ldr	r3, [r7, #4]
ARM GAS  C:\DOCUME~1\Chuck\LOCALS~1\Temp\ccf3JxeF.s 			page 25


 768 0024 5B69     		ldr	r3, [r3, #20]
 769 0026 7A68     		ldr	r2, [r7, #4]
 770 0028 0C32     		add	r2, r2, #12
 771 002a 101C     		mov	r0, r2
 772 002c 9847     		blx	r3
 773 002e 09E0     		b	.L49
 774              	.L50:
  90:./ros_lib/ros/subscriber.h ****         } else if (cbp_) {
 775              		.loc 4 90 0
 776 0030 7B68     		ldr	r3, [r7, #4]
 777 0032 9B69     		ldr	r3, [r3, #24]
 778 0034 002B     		cmp	r3, #0
 779 0036 05D0     		beq	.L49
  91:./ros_lib/ros/subscriber.h ****           this->cbp_(&msg);
 780              		.loc 4 91 0
 781 0038 7B68     		ldr	r3, [r7, #4]
 782 003a 9B69     		ldr	r3, [r3, #24]
 783 003c 7A68     		ldr	r2, [r7, #4]
 784 003e 0C32     		add	r2, r2, #12
 785 0040 101C     		mov	r0, r2
 786 0042 9847     		blx	r3
 787              	.L49:
  92:./ros_lib/ros/subscriber.h ****         }
  93:./ros_lib/ros/subscriber.h ****       }
 788              		.loc 4 93 0
 789 0044 BD46     		mov	sp, r7
 790 0046 02B0     		add	sp, sp, #8
 791              		@ sp needed
 792 0048 80BD     		pop	{r7, pc}
 793              		.cfi_endproc
 794              	.LFE176:
 795              		.size	_ZN3ros10SubscriberIN8std_msgs6UInt16EE8callbackEPh, .-_ZN3ros10SubscriberIN8std_msgs6UInt16
 796 004a C046     		.section	.text._ZN3ros10SubscriberIN8std_msgs6UInt16EE15getEndpointTypeEv,"axG",%progbits,_ZN3ros1
 797              		.align	2
 798              		.weak	_ZN3ros10SubscriberIN8std_msgs6UInt16EE15getEndpointTypeEv
 799              		.code	16
 800              		.thumb_func
 801              		.type	_ZN3ros10SubscriberIN8std_msgs6UInt16EE15getEndpointTypeEv, %function
 802              	_ZN3ros10SubscriberIN8std_msgs6UInt16EE15getEndpointTypeEv:
 803              	.LFB177:
  94:./ros_lib/ros/subscriber.h **** 
  95:./ros_lib/ros/subscriber.h ****       virtual const char * getMsgType(){ return this->msg.getType(); }
  96:./ros_lib/ros/subscriber.h ****       virtual const char * getMsgMD5(){ return this->msg.getMD5(); }
  97:./ros_lib/ros/subscriber.h ****       virtual int getEndpointType(){ return endpoint_; }
 804              		.loc 4 97 0
 805              		.cfi_startproc
 806 0000 80B5     		push	{r7, lr}
 807              		.cfi_def_cfa_offset 8
 808              		.cfi_offset 7, -8
 809              		.cfi_offset 14, -4
 810 0002 82B0     		sub	sp, sp, #8
 811              		.cfi_def_cfa_offset 16
 812 0004 00AF     		add	r7, sp, #0
 813              		.cfi_def_cfa_register 7
 814 0006 7860     		str	r0, [r7, #4]
 815              		.loc 4 97 0
 816 0008 7B68     		ldr	r3, [r7, #4]
ARM GAS  C:\DOCUME~1\Chuck\LOCALS~1\Temp\ccf3JxeF.s 			page 26


 817 000a DB69     		ldr	r3, [r3, #28]
 818 000c 181C     		mov	r0, r3
 819 000e BD46     		mov	sp, r7
 820 0010 02B0     		add	sp, sp, #8
 821              		@ sp needed
 822 0012 80BD     		pop	{r7, pc}
 823              		.cfi_endproc
 824              	.LFE177:
 825              		.size	_ZN3ros10SubscriberIN8std_msgs6UInt16EE15getEndpointTypeEv, .-_ZN3ros10SubscriberIN8std_msgs
 826              		.section	.text._ZN3ros10SubscriberIN8std_msgs6UInt16EE10getMsgTypeEv,"axG",%progbits,_ZN3ros10Subs
 827              		.align	2
 828              		.weak	_ZN3ros10SubscriberIN8std_msgs6UInt16EE10getMsgTypeEv
 829              		.code	16
 830              		.thumb_func
 831              		.type	_ZN3ros10SubscriberIN8std_msgs6UInt16EE10getMsgTypeEv, %function
 832              	_ZN3ros10SubscriberIN8std_msgs6UInt16EE10getMsgTypeEv:
 833              	.LFB178:
  95:./ros_lib/ros/subscriber.h ****       virtual const char * getMsgType(){ return this->msg.getType(); }
 834              		.loc 4 95 0
 835              		.cfi_startproc
 836 0000 80B5     		push	{r7, lr}
 837              		.cfi_def_cfa_offset 8
 838              		.cfi_offset 7, -8
 839              		.cfi_offset 14, -4
 840 0002 82B0     		sub	sp, sp, #8
 841              		.cfi_def_cfa_offset 16
 842 0004 00AF     		add	r7, sp, #0
 843              		.cfi_def_cfa_register 7
 844 0006 7860     		str	r0, [r7, #4]
  95:./ros_lib/ros/subscriber.h ****       virtual const char * getMsgType(){ return this->msg.getType(); }
 845              		.loc 4 95 0
 846 0008 7B68     		ldr	r3, [r7, #4]
 847 000a 0C33     		add	r3, r3, #12
 848 000c 181C     		mov	r0, r3
 849 000e FFF7FEFF 		bl	_ZN8std_msgs6UInt167getTypeEv
 850 0012 031C     		mov	r3, r0
 851 0014 181C     		mov	r0, r3
 852 0016 BD46     		mov	sp, r7
 853 0018 02B0     		add	sp, sp, #8
 854              		@ sp needed
 855 001a 80BD     		pop	{r7, pc}
 856              		.cfi_endproc
 857              	.LFE178:
 858              		.size	_ZN3ros10SubscriberIN8std_msgs6UInt16EE10getMsgTypeEv, .-_ZN3ros10SubscriberIN8std_msgs6UInt
 859              		.section	.text._ZN3ros10SubscriberIN8std_msgs6UInt16EE9getMsgMD5Ev,"axG",%progbits,_ZN3ros10Subscr
 860              		.align	2
 861              		.weak	_ZN3ros10SubscriberIN8std_msgs6UInt16EE9getMsgMD5Ev
 862              		.code	16
 863              		.thumb_func
 864              		.type	_ZN3ros10SubscriberIN8std_msgs6UInt16EE9getMsgMD5Ev, %function
 865              	_ZN3ros10SubscriberIN8std_msgs6UInt16EE9getMsgMD5Ev:
 866              	.LFB179:
  96:./ros_lib/ros/subscriber.h ****       virtual const char * getMsgMD5(){ return this->msg.getMD5(); }
 867              		.loc 4 96 0
 868              		.cfi_startproc
 869 0000 80B5     		push	{r7, lr}
 870              		.cfi_def_cfa_offset 8
ARM GAS  C:\DOCUME~1\Chuck\LOCALS~1\Temp\ccf3JxeF.s 			page 27


 871              		.cfi_offset 7, -8
 872              		.cfi_offset 14, -4
 873 0002 82B0     		sub	sp, sp, #8
 874              		.cfi_def_cfa_offset 16
 875 0004 00AF     		add	r7, sp, #0
 876              		.cfi_def_cfa_register 7
 877 0006 7860     		str	r0, [r7, #4]
  96:./ros_lib/ros/subscriber.h ****       virtual const char * getMsgMD5(){ return this->msg.getMD5(); }
 878              		.loc 4 96 0
 879 0008 7B68     		ldr	r3, [r7, #4]
 880 000a 0C33     		add	r3, r3, #12
 881 000c 181C     		mov	r0, r3
 882 000e FFF7FEFF 		bl	_ZN8std_msgs6UInt166getMD5Ev
 883 0012 031C     		mov	r3, r0
 884 0014 181C     		mov	r0, r3
 885 0016 BD46     		mov	sp, r7
 886 0018 02B0     		add	sp, sp, #8
 887              		@ sp needed
 888 001a 80BD     		pop	{r7, pc}
 889              		.cfi_endproc
 890              	.LFE179:
 891              		.size	_ZN3ros10SubscriberIN8std_msgs6UInt16EE9getMsgMD5Ev, .-_ZN3ros10SubscriberIN8std_msgs6UInt16
 892              		.section	.text._GLOBAL__sub_I__ZN12ServoControl11servo_us_cbERKN8std_msgs6UInt16E,"ax",%progbits
 893              		.align	2
 894              		.code	16
 895              		.thumb_func
 896              		.type	_GLOBAL__sub_I__ZN12ServoControl11servo_us_cbERKN8std_msgs6UInt16E, %function
 897              	_GLOBAL__sub_I__ZN12ServoControl11servo_us_cbERKN8std_msgs6UInt16E:
 898              	.LFB180:
 899              		.loc 3 38 0
 900              		.cfi_startproc
 901 0000 80B5     		push	{r7, lr}
 902              		.cfi_def_cfa_offset 8
 903              		.cfi_offset 7, -8
 904              		.cfi_offset 14, -4
 905 0002 00AF     		add	r7, sp, #0
 906              		.cfi_def_cfa_register 7
 907              		.loc 3 38 0
 908 0004 034B     		ldr	r3, .L59
 909 0006 0120     		mov	r0, #1
 910 0008 191C     		mov	r1, r3
 911 000a FFF7FEFF 		bl	_Z41__static_initialization_and_destruction_0ii
 912 000e BD46     		mov	sp, r7
 913              		@ sp needed
 914 0010 80BD     		pop	{r7, pc}
 915              	.L60:
 916 0012 C046     		.align	2
 917              	.L59:
 918 0014 FFFF0000 		.word	65535
 919              		.cfi_endproc
 920              	.LFE180:
 921              		.size	_GLOBAL__sub_I__ZN12ServoControl11servo_us_cbERKN8std_msgs6UInt16E, .-_GLOBAL__sub_I__ZN12Se
 922              		.section	.init_array,"aw",%init_array
 923              		.align	2
 924 0000 00000000 		.word	_GLOBAL__sub_I__ZN12ServoControl11servo_us_cbERKN8std_msgs6UInt16E(target1)
 925              		.text
 926              	.Letext0:
ARM GAS  C:\DOCUME~1\Chuck\LOCALS~1\Temp\ccf3JxeF.s 			page 28


 927              		.file 6 "c:\\program files\\cypress\\psoc creator\\3.1\\psoc creator\\import\\gnu_cs\\arm\\4.8.4\\
 928              		.file 7 "c:\\program files\\cypress\\psoc creator\\3.1\\psoc creator\\import\\gnu_cs\\arm\\4.8.4\\
 929              		.file 8 "./ros_lib/ros.h"
 930              		.file 9 "./ros_lib/rosserial_msgs/TopicInfo.h"
 931              		.file 10 "./ros_lib/Psoc4Hardware.h"
 932              		.file 11 "./ros_lib/std_msgs/Time.h"
 933              		.file 12 ".\\ros_lib\\examples\\ServoControl\\ServoControl.h"
 934              		.file 13 "./ros_lib/rosserial_msgs/RequestParam.h"
 935              		.file 14 "./ros_lib/Uarts.h"