ARM GAS  C:\DOCUME~1\Chuck\LOCALS~1\Temp\cc7R3yPq.s 			page 1


   1              		.cpu cortex-m0
   2              		.fpu softvfp
   3              		.eabi_attribute 20, 1
   4              		.eabi_attribute 21, 1
   5              		.eabi_attribute 23, 3
   6              		.eabi_attribute 24, 1
   7              		.eabi_attribute 25, 1
   8              		.eabi_attribute 26, 1
   9              		.eabi_attribute 30, 6
  10              		.eabi_attribute 34, 0
  11              		.eabi_attribute 18, 4
  12              		.code	16
  13              		.file	"Uarts.cpp"
  14              		.text
  15              	.Ltext0:
  16              		.cfi_sections	.debug_frame
  17              		.global	__aeabi_uidiv
  18              		.section	.text._ZN4Uart5beginEm,"ax",%progbits
  19              		.align	2
  20              		.global	_ZN4Uart5beginEm
  21              		.code	16
  22              		.thumb_func
  23              		.type	_ZN4Uart5beginEm, %function
  24              	_ZN4Uart5beginEm:
  25              	.LFB158:
  26              		.file 1 ".\\ros_lib\\Uarts.cpp"
   1:.\ros_lib/Uarts.cpp **** /* ========================================
   2:.\ros_lib/Uarts.cpp ****  * PSoc4 "ROSOnAStick" Uart
   3:.\ros_lib/Uarts.cpp ****  *
   4:.\ros_lib/Uarts.cpp ****  * Copyright C. Harrison
   5:.\ros_lib/Uarts.cpp ****  * BSD 2-clause license http://opensource.org/licenses/BSD-2-Clause
   6:.\ros_lib/Uarts.cpp ****  *
   7:.\ros_lib/Uarts.cpp ****  * ========================================
   8:.\ros_lib/Uarts.cpp ****  */
   9:.\ros_lib/Uarts.cpp **** 
  10:.\ros_lib/Uarts.cpp **** #include "ros.h"
  11:.\ros_lib/Uarts.cpp **** 
  12:.\ros_lib/Uarts.cpp **** #include "Uarts.h"
  13:.\ros_lib/Uarts.cpp **** extern "C" {
  14:.\ros_lib/Uarts.cpp ****   #include "project.h"
  15:.\ros_lib/Uarts.cpp **** }
  16:.\ros_lib/Uarts.cpp **** 
  17:.\ros_lib/Uarts.cpp **** void Uart::begin(unsigned long baud) {
  27              		.loc 1 17 0
  28              		.cfi_startproc
  29 0000 80B5     		push	{r7, lr}
  30              		.cfi_def_cfa_offset 8
  31              		.cfi_offset 7, -8
  32              		.cfi_offset 14, -4
  33 0002 84B0     		sub	sp, sp, #16
  34              		.cfi_def_cfa_offset 24
  35 0004 00AF     		add	r7, sp, #0
  36              		.cfi_def_cfa_register 7
  37 0006 7860     		str	r0, [r7, #4]
  38 0008 3960     		str	r1, [r7]
  39              	.LBB2:
  18:.\ros_lib/Uarts.cpp ****   // compute clock divider D = HFCLK/(baud * oversampling_factor)
ARM GAS  C:\DOCUME~1\Chuck\LOCALS~1\Temp\cc7R3yPq.s 			page 2


  19:.\ros_lib/Uarts.cpp ****   uint32_t denom = baud * ROSSerial_UART_UART_OVS_FACTOR;
  40              		.loc 1 19 0
  41 000a 3B68     		ldr	r3, [r7]
  42 000c 1B01     		lsl	r3, r3, #4
  43 000e FB60     		str	r3, [r7, #12]
  20:.\ros_lib/Uarts.cpp ****   uint16_t divider = (CYDEV_BCLK__HFCLK__HZ + (denom/2))/denom;
  44              		.loc 1 20 0
  45 0010 FB68     		ldr	r3, [r7, #12]
  46 0012 5B08     		lsr	r3, r3, #1
  47 0014 0B4A     		ldr	r2, .L2
  48 0016 9B18     		add	r3, r3, r2
  49 0018 181C     		mov	r0, r3
  50 001a F968     		ldr	r1, [r7, #12]
  51 001c FFF7FEFF 		bl	__aeabi_uidiv
  52 0020 031C     		mov	r3, r0
  53 0022 1A1C     		mov	r2, r3
  54 0024 3B1C     		mov	r3, r7
  55 0026 0A33     		add	r3, r3, #10
  56 0028 1A80     		strh	r2, [r3]
  21:.\ros_lib/Uarts.cpp ****   ROSSerial_UART_Clock_SetFractionalDividerRegister(divider, 0);
  57              		.loc 1 21 0
  58 002a 3B1C     		mov	r3, r7
  59 002c 0A33     		add	r3, r3, #10
  60 002e 1B88     		ldrh	r3, [r3]
  61 0030 181C     		mov	r0, r3
  62 0032 0021     		mov	r1, #0
  63 0034 FFF7FEFF 		bl	ROSSerial_UART_Clock_SetFractionalDividerRegister
  22:.\ros_lib/Uarts.cpp ****   ROSSerial_UART_Start();
  64              		.loc 1 22 0
  65 0038 FFF7FEFF 		bl	ROSSerial_UART_Start
  66              	.LBE2:
  23:.\ros_lib/Uarts.cpp **** };
  67              		.loc 1 23 0
  68 003c BD46     		mov	sp, r7
  69 003e 04B0     		add	sp, sp, #16
  70              		@ sp needed
  71 0040 80BD     		pop	{r7, pc}
  72              	.L3:
  73 0042 C046     		.align	2
  74              	.L2:
  75 0044 00366E01 		.word	24000000
  76              		.cfi_endproc
  77              	.LFE158:
  78              		.size	_ZN4Uart5beginEm, .-_ZN4Uart5beginEm
  79              		.section	.text._ZN4Uart4readEv,"ax",%progbits
  80              		.align	2
  81              		.global	_ZN4Uart4readEv
  82              		.code	16
  83              		.thumb_func
  84              		.type	_ZN4Uart4readEv, %function
  85              	_ZN4Uart4readEv:
  86              	.LFB159:
  24:.\ros_lib/Uarts.cpp **** 
  25:.\ros_lib/Uarts.cpp **** int Uart::read(void) {
  87              		.loc 1 25 0
  88              		.cfi_startproc
  89 0000 80B5     		push	{r7, lr}
ARM GAS  C:\DOCUME~1\Chuck\LOCALS~1\Temp\cc7R3yPq.s 			page 3


  90              		.cfi_def_cfa_offset 8
  91              		.cfi_offset 7, -8
  92              		.cfi_offset 14, -4
  93 0002 84B0     		sub	sp, sp, #16
  94              		.cfi_def_cfa_offset 24
  95 0004 00AF     		add	r7, sp, #0
  96              		.cfi_def_cfa_register 7
  97 0006 7860     		str	r0, [r7, #4]
  98              	.LBB3:
  26:.\ros_lib/Uarts.cpp ****   int32_t data = -1;
  99              		.loc 1 26 0
 100 0008 0123     		mov	r3, #1
 101 000a 5B42     		neg	r3, r3
 102 000c FB60     		str	r3, [r7, #12]
  27:.\ros_lib/Uarts.cpp ****   if (ROSSerial_UART_SpiUartGetRxBufferSize() != 0) {
 103              		.loc 1 27 0
 104 000e FFF7FEFF 		bl	ROSSerial_UART_SpiUartGetRxBufferSize
 105 0012 031C     		mov	r3, r0
 106 0014 5A1E     		sub	r2, r3, #1
 107 0016 9341     		sbc	r3, r3, r2
 108 0018 DBB2     		uxtb	r3, r3
 109 001a 002B     		cmp	r3, #0
 110 001c 03D0     		beq	.L5
  28:.\ros_lib/Uarts.cpp ****     // data is ready
  29:.\ros_lib/Uarts.cpp ****     data = (int32_t)ROSSerial_UART_SpiUartReadRxData();
 111              		.loc 1 29 0
 112 001e FFF7FEFF 		bl	ROSSerial_UART_SpiUartReadRxData
 113 0022 031C     		mov	r3, r0
 114 0024 FB60     		str	r3, [r7, #12]
 115              	.L5:
  30:.\ros_lib/Uarts.cpp ****   }
  31:.\ros_lib/Uarts.cpp ****   // clear error flags
  32:.\ros_lib/Uarts.cpp ****   if (ROSSerial_UART_CHECK_INTR_RX(ROSSerial_UART_INTR_RX_ERR)) {
 116              		.loc 1 32 0
 117 0026 094B     		ldr	r3, .L8
 118 0028 1A68     		ldr	r2, [r3]
 119 002a D823     		mov	r3, #216
 120 002c 9B00     		lsl	r3, r3, #2
 121 002e 1340     		and	r3, r2
 122 0030 5A1E     		sub	r2, r3, #1
 123 0032 9341     		sbc	r3, r3, r2
 124 0034 DBB2     		uxtb	r3, r3
 125 0036 002B     		cmp	r3, #0
 126 0038 03D0     		beq	.L6
  33:.\ros_lib/Uarts.cpp ****     // TODO: test for meaningful error (i.e. not Buffer empty) & return -1
  34:.\ros_lib/Uarts.cpp ****     ROSSerial_UART_ClearRxInterruptSource(ROSSerial_UART_INTR_RX_ERR);
 127              		.loc 1 34 0
 128 003a 044B     		ldr	r3, .L8
 129 003c D822     		mov	r2, #216
 130 003e 9200     		lsl	r2, r2, #2
 131 0040 1A60     		str	r2, [r3]
 132              	.L6:
  35:.\ros_lib/Uarts.cpp ****   }
  36:.\ros_lib/Uarts.cpp ****   return data;
 133              		.loc 1 36 0
 134 0042 FB68     		ldr	r3, [r7, #12]
 135              	.LBE3:
ARM GAS  C:\DOCUME~1\Chuck\LOCALS~1\Temp\cc7R3yPq.s 			page 4


  37:.\ros_lib/Uarts.cpp **** };
 136              		.loc 1 37 0
 137 0044 181C     		mov	r0, r3
 138 0046 BD46     		mov	sp, r7
 139 0048 04B0     		add	sp, sp, #16
 140              		@ sp needed
 141 004a 80BD     		pop	{r7, pc}
 142              	.L9:
 143              		.align	2
 144              	.L8:
 145 004c C00F0640 		.word	1074139072
 146              		.cfi_endproc
 147              	.LFE159:
 148              		.size	_ZN4Uart4readEv, .-_ZN4Uart4readEv
 149              		.section	.text._ZN4Uart5writeEh,"ax",%progbits
 150              		.align	2
 151              		.global	_ZN4Uart5writeEh
 152              		.code	16
 153              		.thumb_func
 154              		.type	_ZN4Uart5writeEh, %function
 155              	_ZN4Uart5writeEh:
 156              	.LFB160:
  38:.\ros_lib/Uarts.cpp **** 
  39:.\ros_lib/Uarts.cpp **** size_t Uart::write(uint8_t data) {
 157              		.loc 1 39 0
 158              		.cfi_startproc
 159 0000 80B5     		push	{r7, lr}
 160              		.cfi_def_cfa_offset 8
 161              		.cfi_offset 7, -8
 162              		.cfi_offset 14, -4
 163 0002 82B0     		sub	sp, sp, #8
 164              		.cfi_def_cfa_offset 16
 165 0004 00AF     		add	r7, sp, #0
 166              		.cfi_def_cfa_register 7
 167 0006 7860     		str	r0, [r7, #4]
 168 0008 0A1C     		mov	r2, r1
 169 000a FB1C     		add	r3, r7, #3
 170 000c 1A70     		strb	r2, [r3]
  40:.\ros_lib/Uarts.cpp ****   ROSSerial_UART_SpiUartWriteTxData((uint32_t)data);
 171              		.loc 1 40 0
 172 000e FB1C     		add	r3, r7, #3
 173 0010 1B78     		ldrb	r3, [r3]
 174 0012 181C     		mov	r0, r3
 175 0014 FFF7FEFF 		bl	ROSSerial_UART_SpiUartWriteTxData
  41:.\ros_lib/Uarts.cpp ****   return 1;
 176              		.loc 1 41 0
 177 0018 0123     		mov	r3, #1
  42:.\ros_lib/Uarts.cpp **** };
 178              		.loc 1 42 0
 179 001a 181C     		mov	r0, r3
 180 001c BD46     		mov	sp, r7
 181 001e 02B0     		add	sp, sp, #8
 182              		@ sp needed
 183 0020 80BD     		pop	{r7, pc}
 184              		.cfi_endproc
 185              	.LFE160:
 186              		.size	_ZN4Uart5writeEh, .-_ZN4Uart5writeEh
ARM GAS  C:\DOCUME~1\Chuck\LOCALS~1\Temp\cc7R3yPq.s 			page 5


 187 0022 C046     		.section	.text._ZN14HardwareSerialC2Ev,"axG",%progbits,_ZN14HardwareSerialC5Ev,comdat
 188              		.align	2
 189              		.weak	_ZN14HardwareSerialC2Ev
 190              		.code	16
 191              		.thumb_func
 192              		.type	_ZN14HardwareSerialC2Ev, %function
 193              	_ZN14HardwareSerialC2Ev:
 194              	.LFB163:
 195              		.file 2 ".\\ros_lib\\HardwareSerial.h"
   1:.\ros_lib/HardwareSerial.h **** /*
   2:.\ros_lib/HardwareSerial.h ****   Copyright (c) 2011 Arduino.  All right reserved.
   3:.\ros_lib/HardwareSerial.h **** 
   4:.\ros_lib/HardwareSerial.h ****   This library is free software; you can redistribute it and/or
   5:.\ros_lib/HardwareSerial.h ****   modify it under the terms of the GNU Lesser General Public
   6:.\ros_lib/HardwareSerial.h ****   License as published by the Free Software Foundation; either
   7:.\ros_lib/HardwareSerial.h ****   version 2.1 of the License, or (at your option) any later version.
   8:.\ros_lib/HardwareSerial.h **** 
   9:.\ros_lib/HardwareSerial.h ****   This library is distributed in the hope that it will be useful,
  10:.\ros_lib/HardwareSerial.h ****   but WITHOUT ANY WARRANTY; without even the implied warranty of
  11:.\ros_lib/HardwareSerial.h ****   MERCHANTABILITY or FITNESS FOR A PARTICULAR PURPOSE. 
  12:.\ros_lib/HardwareSerial.h ****   See the GNU Lesser General Public License for more details.
  13:.\ros_lib/HardwareSerial.h **** 
  14:.\ros_lib/HardwareSerial.h ****   You should have received a copy of the GNU Lesser General Public
  15:.\ros_lib/HardwareSerial.h ****   License along with this library; if not, write to the Free Software
  16:.\ros_lib/HardwareSerial.h ****   Foundation, Inc., 51 Franklin St, Fifth Floor, Boston, MA  02110-1301  USA
  17:.\ros_lib/HardwareSerial.h **** */
  18:.\ros_lib/HardwareSerial.h **** 
  19:.\ros_lib/HardwareSerial.h **** #ifndef HardwareSerial_h
  20:.\ros_lib/HardwareSerial.h **** #define HardwareSerial_h
  21:.\ros_lib/HardwareSerial.h **** 
  22:.\ros_lib/HardwareSerial.h **** #include <inttypes.h>
  23:.\ros_lib/HardwareSerial.h **** #include <cstddef>
  24:.\ros_lib/HardwareSerial.h **** 
  25:.\ros_lib/HardwareSerial.h **** /* functions exposed by embedded_linux_comms
  26:.\ros_lib/HardwareSerial.h **** extern "C" int elCommInit(char *portName, int baud);
  27:.\ros_lib/HardwareSerial.h **** extern "C" int elCommRead(int fd);
  28:.\ros_lib/HardwareSerial.h **** extern "C" elCommWrite(int fd, uint8_t* data, int length);
  29:.\ros_lib/HardwareSerial.h **** */
  30:.\ros_lib/HardwareSerial.h **** 
  31:.\ros_lib/HardwareSerial.h **** class HardwareSerial
 196              		.loc 2 31 0
 197              		.cfi_startproc
 198 0000 80B5     		push	{r7, lr}
 199              		.cfi_def_cfa_offset 8
 200              		.cfi_offset 7, -8
 201              		.cfi_offset 14, -4
 202 0002 82B0     		sub	sp, sp, #8
 203              		.cfi_def_cfa_offset 16
 204 0004 00AF     		add	r7, sp, #0
 205              		.cfi_def_cfa_register 7
 206 0006 7860     		str	r0, [r7, #4]
 207              	.LBB4:
 208              		.loc 2 31 0
 209 0008 7B68     		ldr	r3, [r7, #4]
 210 000a 034A     		ldr	r2, .L15
 211 000c 1A60     		str	r2, [r3]
 212              	.LBE4:
ARM GAS  C:\DOCUME~1\Chuck\LOCALS~1\Temp\cc7R3yPq.s 			page 6


 213 000e 7B68     		ldr	r3, [r7, #4]
 214 0010 181C     		mov	r0, r3
 215 0012 BD46     		mov	sp, r7
 216 0014 02B0     		add	sp, sp, #8
 217              		@ sp needed
 218 0016 80BD     		pop	{r7, pc}
 219              	.L16:
 220              		.align	2
 221              	.L15:
 222 0018 08000000 		.word	_ZTV14HardwareSerial+8
 223              		.cfi_endproc
 224              	.LFE163:
 225              		.size	_ZN14HardwareSerialC2Ev, .-_ZN14HardwareSerialC2Ev
 226              		.weak	_ZN14HardwareSerialC1Ev
 227              		.thumb_set _ZN14HardwareSerialC1Ev,_ZN14HardwareSerialC2Ev
 228              		.section	.text._ZN4UartC2Ev,"axG",%progbits,_ZN4UartC5Ev,comdat
 229              		.align	2
 230              		.weak	_ZN4UartC2Ev
 231              		.code	16
 232              		.thumb_func
 233              		.type	_ZN4UartC2Ev, %function
 234              	_ZN4UartC2Ev:
 235              	.LFB165:
 236              		.file 3 ".\\ros_lib\\Uarts.h"
   1:.\ros_lib/Uarts.h **** /* ========================================
   2:.\ros_lib/Uarts.h ****  *
   3:.\ros_lib/Uarts.h ****  * The following firmware was developed by Chuck Harrison
   4:.\ros_lib/Uarts.h ****  * This work is licensed under a Creative Commons Attribution 3.0 Unported License.
   5:.\ros_lib/Uarts.h ****  * 
   6:.\ros_lib/Uarts.h ****  * http://creativecommons.org/licenses/by/3.0/deed.en_US
   7:.\ros_lib/Uarts.h ****  * 
   8:.\ros_lib/Uarts.h ****  * You are free to:
   9:.\ros_lib/Uarts.h ****  * -To Share — to copy, distribute and transmit the work 
  10:.\ros_lib/Uarts.h ****  * -To Remix — to adapt the work 
  11:.\ros_lib/Uarts.h ****  * -To make commercial use of the work
  12:.\ros_lib/Uarts.h ****  *
  13:.\ros_lib/Uarts.h ****  * ========================================
  14:.\ros_lib/Uarts.h ****  */
  15:.\ros_lib/Uarts.h **** 
  16:.\ros_lib/Uarts.h **** #ifndef ROS_UARTS_H_
  17:.\ros_lib/Uarts.h **** #define ROS_UARTS_H_
  18:.\ros_lib/Uarts.h **** 
  19:.\ros_lib/Uarts.h **** #include "HardwareSerial.h"
  20:.\ros_lib/Uarts.h **** 
  21:.\ros_lib/Uarts.h **** class Uart : public HardwareSerial
 237              		.loc 3 21 0
 238              		.cfi_startproc
 239 0000 80B5     		push	{r7, lr}
 240              		.cfi_def_cfa_offset 8
 241              		.cfi_offset 7, -8
 242              		.cfi_offset 14, -4
 243 0002 82B0     		sub	sp, sp, #8
 244              		.cfi_def_cfa_offset 16
 245 0004 00AF     		add	r7, sp, #0
 246              		.cfi_def_cfa_register 7
 247 0006 7860     		str	r0, [r7, #4]
 248              	.LBB5:
ARM GAS  C:\DOCUME~1\Chuck\LOCALS~1\Temp\cc7R3yPq.s 			page 7


 249              		.loc 3 21 0
 250 0008 7B68     		ldr	r3, [r7, #4]
 251 000a 181C     		mov	r0, r3
 252 000c FFF7FEFF 		bl	_ZN14HardwareSerialC2Ev
 253 0010 7B68     		ldr	r3, [r7, #4]
 254 0012 034A     		ldr	r2, .L20
 255 0014 1A60     		str	r2, [r3]
 256              	.LBE5:
 257 0016 7B68     		ldr	r3, [r7, #4]
 258 0018 181C     		mov	r0, r3
 259 001a BD46     		mov	sp, r7
 260 001c 02B0     		add	sp, sp, #8
 261              		@ sp needed
 262 001e 80BD     		pop	{r7, pc}
 263              	.L21:
 264              		.align	2
 265              	.L20:
 266 0020 08000000 		.word	_ZTV4Uart+8
 267              		.cfi_endproc
 268              	.LFE165:
 269              		.size	_ZN4UartC2Ev, .-_ZN4UartC2Ev
 270              		.weak	_ZN4UartC1Ev
 271              		.thumb_set _ZN4UartC1Ev,_ZN4UartC2Ev
 272              		.global	Uart0
 273              		.bss
 274              		.align	2
 275              		.type	Uart0, %object
 276              		.size	Uart0, 4
 277              	Uart0:
 278 0000 00000000 		.space	4
 279              		.global	_ZTV4Uart
 280              		.section	.rodata
 281              		.align	3
 282              		.type	_ZTV4Uart, %object
 283              		.size	_ZTV4Uart, 20
 284              	_ZTV4Uart:
 285 0000 00000000 		.word	0
 286 0004 00000000 		.word	0
 287 0008 00000000 		.word	_ZN4Uart5beginEm
 288 000c 00000000 		.word	_ZN4Uart4readEv
 289 0010 00000000 		.word	_ZN4Uart5writeEh
 290              		.weak	_ZTV14HardwareSerial
 291              		.section	.rodata._ZTV14HardwareSerial,"aG",%progbits,_ZTV14HardwareSerial,comdat
 292              		.align	3
 293              		.type	_ZTV14HardwareSerial, %object
 294              		.size	_ZTV14HardwareSerial, 20
 295              	_ZTV14HardwareSerial:
 296 0000 00000000 		.word	0
 297 0004 00000000 		.word	0
 298 0008 00000000 		.word	__cxa_pure_virtual
 299 000c 00000000 		.word	__cxa_pure_virtual
 300 0010 00000000 		.word	__cxa_pure_virtual
 301 0014 00000000 		.section	.text._Z41__static_initialization_and_destruction_0ii,"ax",%progbits
 302              		.align	2
 303              		.code	16
 304              		.thumb_func
 305              		.type	_Z41__static_initialization_and_destruction_0ii, %function
ARM GAS  C:\DOCUME~1\Chuck\LOCALS~1\Temp\cc7R3yPq.s 			page 8


 306              	_Z41__static_initialization_and_destruction_0ii:
 307              	.LFB167:
  43:.\ros_lib/Uarts.cpp **** 
  44:.\ros_lib/Uarts.cpp **** Uart Uart0;
 308              		.loc 1 44 0
 309              		.cfi_startproc
 310 0000 80B5     		push	{r7, lr}
 311              		.cfi_def_cfa_offset 8
 312              		.cfi_offset 7, -8
 313              		.cfi_offset 14, -4
 314 0002 82B0     		sub	sp, sp, #8
 315              		.cfi_def_cfa_offset 16
 316 0004 00AF     		add	r7, sp, #0
 317              		.cfi_def_cfa_register 7
 318 0006 7860     		str	r0, [r7, #4]
 319 0008 3960     		str	r1, [r7]
 320              		.loc 1 44 0
 321 000a 7B68     		ldr	r3, [r7, #4]
 322 000c 012B     		cmp	r3, #1
 323 000e 07D1     		bne	.L22
 324              		.loc 1 44 0 is_stmt 0 discriminator 1
 325 0010 3A68     		ldr	r2, [r7]
 326 0012 054B     		ldr	r3, .L24
 327 0014 9A42     		cmp	r2, r3
 328 0016 03D1     		bne	.L22
 329              		.loc 1 44 0 discriminator 3
 330 0018 044B     		ldr	r3, .L24+4
 331 001a 181C     		mov	r0, r3
 332 001c FFF7FEFF 		bl	_ZN4UartC1Ev
 333              	.L22:
 334              		.loc 1 44 0
 335 0020 BD46     		mov	sp, r7
 336 0022 02B0     		add	sp, sp, #8
 337              		@ sp needed
 338 0024 80BD     		pop	{r7, pc}
 339              	.L25:
 340 0026 C046     		.align	2
 341              	.L24:
 342 0028 FFFF0000 		.word	65535
 343 002c 00000000 		.word	Uart0
 344              		.cfi_endproc
 345              	.LFE167:
 346              		.size	_Z41__static_initialization_and_destruction_0ii, .-_Z41__static_initialization_and_destructi
 347              		.section	.rodata
 348              		.align	2
 349              		.type	_ZN14rosserial_msgsL12REQUESTPARAME, %object
 350              		.size	_ZN14rosserial_msgsL12REQUESTPARAME, 28
 351              	_ZN14rosserial_msgsL12REQUESTPARAME:
 352 0014 726F7373 		.ascii	"rosserial_msgs/RequestParam\000"
 352      65726961 
 352      6C5F6D73 
 352      67732F52 
 352      65717565 
 353              		.section	.text._GLOBAL__sub_I__ZN4Uart5beginEm,"ax",%progbits
 354              		.align	2
 355              		.code	16
 356              		.thumb_func
ARM GAS  C:\DOCUME~1\Chuck\LOCALS~1\Temp\cc7R3yPq.s 			page 9


 357              		.type	_GLOBAL__sub_I__ZN4Uart5beginEm, %function
 358              	_GLOBAL__sub_I__ZN4Uart5beginEm:
 359              	.LFB168:
 360              		.loc 1 44 0 is_stmt 1
 361              		.cfi_startproc
 362 0000 80B5     		push	{r7, lr}
 363              		.cfi_def_cfa_offset 8
 364              		.cfi_offset 7, -8
 365              		.cfi_offset 14, -4
 366 0002 00AF     		add	r7, sp, #0
 367              		.cfi_def_cfa_register 7
 368              		.loc 1 44 0
 369 0004 034B     		ldr	r3, .L27
 370 0006 0120     		mov	r0, #1
 371 0008 191C     		mov	r1, r3
 372 000a FFF7FEFF 		bl	_Z41__static_initialization_and_destruction_0ii
 373 000e BD46     		mov	sp, r7
 374              		@ sp needed
 375 0010 80BD     		pop	{r7, pc}
 376              	.L28:
 377 0012 C046     		.align	2
 378              	.L27:
 379 0014 FFFF0000 		.word	65535
 380              		.cfi_endproc
 381              	.LFE168:
 382              		.size	_GLOBAL__sub_I__ZN4Uart5beginEm, .-_GLOBAL__sub_I__ZN4Uart5beginEm
 383              		.section	.init_array,"aw",%init_array
 384              		.align	2
 385 0000 00000000 		.word	_GLOBAL__sub_I__ZN4Uart5beginEm(target1)
 386              		.text
 387              	.Letext0:
 388              		.file 4 "c:\\program files\\cypress\\psoc creator\\3.1\\psoc creator\\import\\gnu_cs\\arm\\4.8.4\\
 389              		.file 5 "c:\\program files\\cypress\\psoc creator\\3.1\\psoc creator\\import\\gnu_cs\\arm\\4.8.4\\
 390              		.file 6 "c:\\program files\\cypress\\psoc creator\\3.1\\psoc creator\\import\\gnu_cs\\arm\\4.8.4\\
 391              		.file 7 "./ros_lib/ros/msg.h"
 392              		.file 8 "./ros_lib/rosserial_msgs/TopicInfo.h"
 393              		.file 9 ".\\Generated_Source\\PSoC4/cytypes.h"
 394              		.file 10 "./ros_lib/rosserial_msgs/RequestParam.h"
 395              		.file 11 ".\\ros_lib\\ros/node_handle.h"
 396              		.file 12 "./ros_lib/std_msgs/Time.h"