ARM GAS  C:\DOCUME~1\Chuck\LOCALS~1\Temp\ccjhbcm5.s 			page 1


   1              		.cpu cortex-m0
   2              		.fpu softvfp
   3              		.eabi_attribute 20, 1
   4              		.eabi_attribute 21, 1
   5              		.eabi_attribute 23, 3
   6              		.eabi_attribute 24, 1
   7              		.eabi_attribute 25, 1
   8              		.eabi_attribute 26, 1
   9              		.eabi_attribute 30, 4
  10              		.eabi_attribute 34, 0
  11              		.eabi_attribute 18, 4
  12              		.code	16
  13              		.file	"Bootloader.c"
  14              		.text
  15              	.Ltext0:
  16              		.cfi_sections	.debug_frame
  17              		.section	.text.Bootloader_LaunchBootloadable,"ax",%progbits
  18              		.align	1
  19              		.code	16
  20              		.thumb_func
  21              		.type	Bootloader_LaunchBootloadable, %function
  22              	Bootloader_LaunchBootloadable:
  23              	.LFB38:
  24              		.file 1 ".\\Generated_Source\\PSoC4\\Bootloader.c"
   1:.\Generated_Source\PSoC4/Bootloader.c **** /*******************************************************************************
   2:.\Generated_Source\PSoC4/Bootloader.c **** * File Name: Bootloader.c
   3:.\Generated_Source\PSoC4/Bootloader.c **** * Version 1.20
   4:.\Generated_Source\PSoC4/Bootloader.c **** *
   5:.\Generated_Source\PSoC4/Bootloader.c **** *  Description:
   6:.\Generated_Source\PSoC4/Bootloader.c **** *   Provides an API for the Bootloader component. The API includes functions
   7:.\Generated_Source\PSoC4/Bootloader.c **** *   for starting boot loading operations, validating the application and
   8:.\Generated_Source\PSoC4/Bootloader.c **** *   jumping to the application.
   9:.\Generated_Source\PSoC4/Bootloader.c **** *
  10:.\Generated_Source\PSoC4/Bootloader.c **** ********************************************************************************
  11:.\Generated_Source\PSoC4/Bootloader.c **** * Copyright 2008-2013, Cypress Semiconductor Corporation.  All rights reserved.
  12:.\Generated_Source\PSoC4/Bootloader.c **** * You may use this file only in accordance with the license, terms, conditions,
  13:.\Generated_Source\PSoC4/Bootloader.c **** * disclaimers, and limitations in the end user license agreement accompanying
  14:.\Generated_Source\PSoC4/Bootloader.c **** * the software package with which this file was provided.
  15:.\Generated_Source\PSoC4/Bootloader.c **** *******************************************************************************/
  16:.\Generated_Source\PSoC4/Bootloader.c **** 
  17:.\Generated_Source\PSoC4/Bootloader.c **** #include "Bootloader_PVT.h"
  18:.\Generated_Source\PSoC4/Bootloader.c **** 
  19:.\Generated_Source\PSoC4/Bootloader.c **** #include "project.h"
  20:.\Generated_Source\PSoC4/Bootloader.c **** #include <string.h>
  21:.\Generated_Source\PSoC4/Bootloader.c **** 
  22:.\Generated_Source\PSoC4/Bootloader.c **** 
  23:.\Generated_Source\PSoC4/Bootloader.c **** /*******************************************************************************
  24:.\Generated_Source\PSoC4/Bootloader.c **** * The Checksum and SizeBytes are forcefully set in code. We then post process
  25:.\Generated_Source\PSoC4/Bootloader.c **** * the hex file from the linker and inject their values then. When the hex file
  26:.\Generated_Source\PSoC4/Bootloader.c **** * is loaded onto the device these two variables should have valid values.
  27:.\Generated_Source\PSoC4/Bootloader.c **** * Because the compiler can do optimizations remove the constant
  28:.\Generated_Source\PSoC4/Bootloader.c **** * accesses, these should not be accessed directly. Instead, the variables
  29:.\Generated_Source\PSoC4/Bootloader.c **** * CyBtldr_ChecksumAccess & CyBtldr_SizeBytesAccess should be used to get the
  30:.\Generated_Source\PSoC4/Bootloader.c **** * proper values at runtime.
  31:.\Generated_Source\PSoC4/Bootloader.c **** *******************************************************************************/
  32:.\Generated_Source\PSoC4/Bootloader.c **** #if defined(__ARMCC_VERSION) || defined (__GNUC__)
  33:.\Generated_Source\PSoC4/Bootloader.c ****     __attribute__((section (".bootloader")))
ARM GAS  C:\DOCUME~1\Chuck\LOCALS~1\Temp\ccjhbcm5.s 			page 2


  34:.\Generated_Source\PSoC4/Bootloader.c **** #elif defined (__ICCARM__)
  35:.\Generated_Source\PSoC4/Bootloader.c ****     #pragma location=".bootloader"
  36:.\Generated_Source\PSoC4/Bootloader.c **** #endif  /* defined(__ARMCC_VERSION) || defined (__GNUC__) */
  37:.\Generated_Source\PSoC4/Bootloader.c **** 
  38:.\Generated_Source\PSoC4/Bootloader.c **** const uint8  CYCODE Bootloader_Checksum = 0u;
  39:.\Generated_Source\PSoC4/Bootloader.c **** const uint8  CYCODE *Bootloader_ChecksumAccess  = (const uint8  CYCODE *)(&Bootloader_Checksum);
  40:.\Generated_Source\PSoC4/Bootloader.c **** 
  41:.\Generated_Source\PSoC4/Bootloader.c **** #if defined(__ARMCC_VERSION) || defined (__GNUC__)
  42:.\Generated_Source\PSoC4/Bootloader.c ****     __attribute__((section (".bootloader")))
  43:.\Generated_Source\PSoC4/Bootloader.c **** #elif defined (__ICCARM__)
  44:.\Generated_Source\PSoC4/Bootloader.c ****     #pragma location=".bootloader"
  45:.\Generated_Source\PSoC4/Bootloader.c **** #endif  /* defined(__ARMCC_VERSION) || defined (__GNUC__) */
  46:.\Generated_Source\PSoC4/Bootloader.c **** 
  47:.\Generated_Source\PSoC4/Bootloader.c **** const uint32 CYCODE Bootloader_SizeBytes = 0xFFFFFFFFu;
  48:.\Generated_Source\PSoC4/Bootloader.c **** const uint32 CYCODE *Bootloader_SizeBytesAccess = (const uint32 CYCODE *)(&Bootloader_SizeBytes);
  49:.\Generated_Source\PSoC4/Bootloader.c **** 
  50:.\Generated_Source\PSoC4/Bootloader.c **** 
  51:.\Generated_Source\PSoC4/Bootloader.c **** #if(0u != Bootloader_DUAL_APP_BOOTLOADER)
  52:.\Generated_Source\PSoC4/Bootloader.c ****     uint8 Bootloader_activeApp = Bootloader_MD_BTLDB_ACTIVE_NONE;
  53:.\Generated_Source\PSoC4/Bootloader.c **** #else
  54:.\Generated_Source\PSoC4/Bootloader.c ****     #define Bootloader_activeApp      (Bootloader_MD_BTLDB_ACTIVE_0)
  55:.\Generated_Source\PSoC4/Bootloader.c **** #endif  /* (0u != Bootloader_DUAL_APP_BOOTLOADER) */
  56:.\Generated_Source\PSoC4/Bootloader.c **** 
  57:.\Generated_Source\PSoC4/Bootloader.c **** 
  58:.\Generated_Source\PSoC4/Bootloader.c **** /***************************************
  59:.\Generated_Source\PSoC4/Bootloader.c **** *     Function Prototypes
  60:.\Generated_Source\PSoC4/Bootloader.c **** ***************************************/
  61:.\Generated_Source\PSoC4/Bootloader.c **** static cystatus Bootloader_WritePacket(uint8 status, uint8 buffer[], uint16 size) CYSMALL \
  62:.\Generated_Source\PSoC4/Bootloader.c ****                                     ;
  63:.\Generated_Source\PSoC4/Bootloader.c **** 
  64:.\Generated_Source\PSoC4/Bootloader.c **** static uint16   Bootloader_CalcPacketChecksum(const uint8 buffer[], uint16 size) CYSMALL \
  65:.\Generated_Source\PSoC4/Bootloader.c ****                                     ;
  66:.\Generated_Source\PSoC4/Bootloader.c **** 
  67:.\Generated_Source\PSoC4/Bootloader.c **** static uint8    Bootloader_Calc8BitFlashSum(uint32 start, uint32 size) CYSMALL \
  68:.\Generated_Source\PSoC4/Bootloader.c ****                                     ;
  69:.\Generated_Source\PSoC4/Bootloader.c **** #if(!CY_PSOC4)
  70:.\Generated_Source\PSoC4/Bootloader.c **** static uint8    Bootloader_Calc8BitEepromSum(uint32 start, uint32 size) CYSMALL \
  71:.\Generated_Source\PSoC4/Bootloader.c ****                                     ;
  72:.\Generated_Source\PSoC4/Bootloader.c **** #endif /* (!CY_PSOC4) */
  73:.\Generated_Source\PSoC4/Bootloader.c **** 
  74:.\Generated_Source\PSoC4/Bootloader.c **** static void     Bootloader_HostLink(uint8 timeOut) \
  75:.\Generated_Source\PSoC4/Bootloader.c ****                                     ;
  76:.\Generated_Source\PSoC4/Bootloader.c **** 
  77:.\Generated_Source\PSoC4/Bootloader.c **** static void     Bootloader_LaunchApplication(void) CYSMALL \
  78:.\Generated_Source\PSoC4/Bootloader.c ****                                     ;
  79:.\Generated_Source\PSoC4/Bootloader.c **** 
  80:.\Generated_Source\PSoC4/Bootloader.c **** static cystatus Bootloader_ValidateBootloadable(uint8 appId) CYSMALL \
  81:.\Generated_Source\PSoC4/Bootloader.c ****                                     ;
  82:.\Generated_Source\PSoC4/Bootloader.c **** 
  83:.\Generated_Source\PSoC4/Bootloader.c **** static uint32   Bootloader_GetMetadata(uint8 fieldName, uint8 appId)\
  84:.\Generated_Source\PSoC4/Bootloader.c ****                                     ;
  85:.\Generated_Source\PSoC4/Bootloader.c **** 
  86:.\Generated_Source\PSoC4/Bootloader.c **** #if(!CY_PSOC3)
  87:.\Generated_Source\PSoC4/Bootloader.c ****     /* Implementation for the PSoC 3 resides in a Bootloader_psoc3.a51 file.  */
  88:.\Generated_Source\PSoC4/Bootloader.c ****     static void     Bootloader_LaunchBootloadable(uint32 appAddr);
  89:.\Generated_Source\PSoC4/Bootloader.c **** #endif  /* (!CY_PSOC3) */
  90:.\Generated_Source\PSoC4/Bootloader.c **** 
ARM GAS  C:\DOCUME~1\Chuck\LOCALS~1\Temp\ccjhbcm5.s 			page 3


  91:.\Generated_Source\PSoC4/Bootloader.c **** 
  92:.\Generated_Source\PSoC4/Bootloader.c **** /*******************************************************************************
  93:.\Generated_Source\PSoC4/Bootloader.c **** * Function Name: Bootloader_CalcPacketChecksum
  94:.\Generated_Source\PSoC4/Bootloader.c **** ********************************************************************************
  95:.\Generated_Source\PSoC4/Bootloader.c **** *
  96:.\Generated_Source\PSoC4/Bootloader.c **** * Summary:
  97:.\Generated_Source\PSoC4/Bootloader.c **** *  This computes the 16 bit checksum for the provided number of bytes contained
  98:.\Generated_Source\PSoC4/Bootloader.c **** *  in the provided buffer
  99:.\Generated_Source\PSoC4/Bootloader.c **** *
 100:.\Generated_Source\PSoC4/Bootloader.c **** * Parameters:
 101:.\Generated_Source\PSoC4/Bootloader.c **** *  buffer:
 102:.\Generated_Source\PSoC4/Bootloader.c **** *     The buffer containing the data to compute the checksum for
 103:.\Generated_Source\PSoC4/Bootloader.c **** *  size:
 104:.\Generated_Source\PSoC4/Bootloader.c **** *     The number of bytes in buffer to compute the checksum for
 105:.\Generated_Source\PSoC4/Bootloader.c **** *
 106:.\Generated_Source\PSoC4/Bootloader.c **** * Returns:
 107:.\Generated_Source\PSoC4/Bootloader.c **** *  16 bit checksum for the provided data
 108:.\Generated_Source\PSoC4/Bootloader.c **** *
 109:.\Generated_Source\PSoC4/Bootloader.c **** *******************************************************************************/
 110:.\Generated_Source\PSoC4/Bootloader.c **** static uint16 Bootloader_CalcPacketChecksum(const uint8 buffer[], uint16 size) \
 111:.\Generated_Source\PSoC4/Bootloader.c ****                     CYSMALL 
 112:.\Generated_Source\PSoC4/Bootloader.c **** {
 113:.\Generated_Source\PSoC4/Bootloader.c ****     #if(0u != Bootloader_PACKET_CHECKSUM_CRC)
 114:.\Generated_Source\PSoC4/Bootloader.c **** 
 115:.\Generated_Source\PSoC4/Bootloader.c ****         uint16 CYDATA crc = Bootloader_CRC_CCITT_INITIAL_VALUE;
 116:.\Generated_Source\PSoC4/Bootloader.c ****         uint16 CYDATA tmp;
 117:.\Generated_Source\PSoC4/Bootloader.c ****         uint8  CYDATA i;
 118:.\Generated_Source\PSoC4/Bootloader.c ****         uint16 CYDATA tmpIndex = size;
 119:.\Generated_Source\PSoC4/Bootloader.c **** 
 120:.\Generated_Source\PSoC4/Bootloader.c ****         if(0u == size)
 121:.\Generated_Source\PSoC4/Bootloader.c ****         {
 122:.\Generated_Source\PSoC4/Bootloader.c ****             crc = ~crc;
 123:.\Generated_Source\PSoC4/Bootloader.c ****         }
 124:.\Generated_Source\PSoC4/Bootloader.c ****         else
 125:.\Generated_Source\PSoC4/Bootloader.c ****         {
 126:.\Generated_Source\PSoC4/Bootloader.c ****             do
 127:.\Generated_Source\PSoC4/Bootloader.c ****             {
 128:.\Generated_Source\PSoC4/Bootloader.c ****                 tmp = buffer[tmpIndex - size];
 129:.\Generated_Source\PSoC4/Bootloader.c **** 
 130:.\Generated_Source\PSoC4/Bootloader.c ****                 for (i = 0u; i < 8u; i++)
 131:.\Generated_Source\PSoC4/Bootloader.c ****                 {
 132:.\Generated_Source\PSoC4/Bootloader.c ****                     if (0u != ((crc & 0x0001u) ^ (tmp & 0x0001u)))
 133:.\Generated_Source\PSoC4/Bootloader.c ****                     {
 134:.\Generated_Source\PSoC4/Bootloader.c ****                         crc = (crc >> 1u) ^ Bootloader_CRC_CCITT_POLYNOMIAL;
 135:.\Generated_Source\PSoC4/Bootloader.c ****                     }
 136:.\Generated_Source\PSoC4/Bootloader.c ****                     else
 137:.\Generated_Source\PSoC4/Bootloader.c ****                     {
 138:.\Generated_Source\PSoC4/Bootloader.c ****                         crc >>= 1u;
 139:.\Generated_Source\PSoC4/Bootloader.c ****                     }
 140:.\Generated_Source\PSoC4/Bootloader.c **** 
 141:.\Generated_Source\PSoC4/Bootloader.c ****                     tmp >>= 1u;
 142:.\Generated_Source\PSoC4/Bootloader.c ****                 }
 143:.\Generated_Source\PSoC4/Bootloader.c **** 
 144:.\Generated_Source\PSoC4/Bootloader.c ****                 size--;
 145:.\Generated_Source\PSoC4/Bootloader.c ****             }
 146:.\Generated_Source\PSoC4/Bootloader.c ****             while(0u != size);
 147:.\Generated_Source\PSoC4/Bootloader.c **** 
ARM GAS  C:\DOCUME~1\Chuck\LOCALS~1\Temp\ccjhbcm5.s 			page 4


 148:.\Generated_Source\PSoC4/Bootloader.c ****             crc = ~crc;
 149:.\Generated_Source\PSoC4/Bootloader.c ****             tmp = crc;
 150:.\Generated_Source\PSoC4/Bootloader.c ****             crc = ( uint16 )(crc << 8u) | (tmp >> 8u);
 151:.\Generated_Source\PSoC4/Bootloader.c ****         }
 152:.\Generated_Source\PSoC4/Bootloader.c **** 
 153:.\Generated_Source\PSoC4/Bootloader.c ****         return(crc);
 154:.\Generated_Source\PSoC4/Bootloader.c **** 
 155:.\Generated_Source\PSoC4/Bootloader.c ****     #else
 156:.\Generated_Source\PSoC4/Bootloader.c **** 
 157:.\Generated_Source\PSoC4/Bootloader.c ****         uint16 CYDATA sum = 0u;
 158:.\Generated_Source\PSoC4/Bootloader.c **** 
 159:.\Generated_Source\PSoC4/Bootloader.c ****         while (size > 0u)
 160:.\Generated_Source\PSoC4/Bootloader.c ****         {
 161:.\Generated_Source\PSoC4/Bootloader.c ****             sum += buffer[size - 1u];
 162:.\Generated_Source\PSoC4/Bootloader.c ****             size--;
 163:.\Generated_Source\PSoC4/Bootloader.c ****         }
 164:.\Generated_Source\PSoC4/Bootloader.c **** 
 165:.\Generated_Source\PSoC4/Bootloader.c ****         return(( uint16 )1u + ( uint16 )(~sum));
 166:.\Generated_Source\PSoC4/Bootloader.c **** 
 167:.\Generated_Source\PSoC4/Bootloader.c ****     #endif /* (0u != Bootloader_PACKET_CHECKSUM_CRC) */
 168:.\Generated_Source\PSoC4/Bootloader.c **** }
 169:.\Generated_Source\PSoC4/Bootloader.c **** 
 170:.\Generated_Source\PSoC4/Bootloader.c **** 
 171:.\Generated_Source\PSoC4/Bootloader.c **** /*******************************************************************************
 172:.\Generated_Source\PSoC4/Bootloader.c **** * Function Name: Bootloader_Calc8BitFlashSum
 173:.\Generated_Source\PSoC4/Bootloader.c **** ********************************************************************************
 174:.\Generated_Source\PSoC4/Bootloader.c **** *
 175:.\Generated_Source\PSoC4/Bootloader.c **** * Summary:
 176:.\Generated_Source\PSoC4/Bootloader.c **** *  This computes the 8 bit sum for the provided number of bytes contained in
 177:.\Generated_Source\PSoC4/Bootloader.c **** *  flash.
 178:.\Generated_Source\PSoC4/Bootloader.c **** *
 179:.\Generated_Source\PSoC4/Bootloader.c **** * Parameters:
 180:.\Generated_Source\PSoC4/Bootloader.c **** *  start:
 181:.\Generated_Source\PSoC4/Bootloader.c **** *     The starting address to start summing data for
 182:.\Generated_Source\PSoC4/Bootloader.c **** *  size:
 183:.\Generated_Source\PSoC4/Bootloader.c **** *     The number of bytes to read and compute the sum for
 184:.\Generated_Source\PSoC4/Bootloader.c **** *
 185:.\Generated_Source\PSoC4/Bootloader.c **** * Returns:
 186:.\Generated_Source\PSoC4/Bootloader.c **** *   8 bit sum for the provided data
 187:.\Generated_Source\PSoC4/Bootloader.c **** *
 188:.\Generated_Source\PSoC4/Bootloader.c **** *******************************************************************************/
 189:.\Generated_Source\PSoC4/Bootloader.c **** static uint8 Bootloader_Calc8BitFlashSum(uint32 start, uint32 size) \
 190:.\Generated_Source\PSoC4/Bootloader.c ****                 CYSMALL 
 191:.\Generated_Source\PSoC4/Bootloader.c **** {
 192:.\Generated_Source\PSoC4/Bootloader.c ****     uint8 CYDATA sum = 0u;
 193:.\Generated_Source\PSoC4/Bootloader.c **** 
 194:.\Generated_Source\PSoC4/Bootloader.c ****     while (size > 0u)
 195:.\Generated_Source\PSoC4/Bootloader.c ****     {
 196:.\Generated_Source\PSoC4/Bootloader.c ****         size--;
 197:.\Generated_Source\PSoC4/Bootloader.c ****         sum += Bootloader_GET_CODE_BYTE(start + size);
 198:.\Generated_Source\PSoC4/Bootloader.c ****     }
 199:.\Generated_Source\PSoC4/Bootloader.c **** 
 200:.\Generated_Source\PSoC4/Bootloader.c ****     return(sum);
 201:.\Generated_Source\PSoC4/Bootloader.c **** }
 202:.\Generated_Source\PSoC4/Bootloader.c **** 
 203:.\Generated_Source\PSoC4/Bootloader.c **** 
 204:.\Generated_Source\PSoC4/Bootloader.c **** #if(!CY_PSOC4)
ARM GAS  C:\DOCUME~1\Chuck\LOCALS~1\Temp\ccjhbcm5.s 			page 5


 205:.\Generated_Source\PSoC4/Bootloader.c **** 
 206:.\Generated_Source\PSoC4/Bootloader.c ****     /*******************************************************************************
 207:.\Generated_Source\PSoC4/Bootloader.c ****     * Function Name: Bootloader_Calc8BitEepromSum
 208:.\Generated_Source\PSoC4/Bootloader.c ****     ********************************************************************************
 209:.\Generated_Source\PSoC4/Bootloader.c ****     *
 210:.\Generated_Source\PSoC4/Bootloader.c ****     * Summary:
 211:.\Generated_Source\PSoC4/Bootloader.c ****     *  This computes the 8 bit sum for the provided number of bytes contained in
 212:.\Generated_Source\PSoC4/Bootloader.c ****     *  EEPROM.
 213:.\Generated_Source\PSoC4/Bootloader.c ****     *
 214:.\Generated_Source\PSoC4/Bootloader.c ****     * Parameters:
 215:.\Generated_Source\PSoC4/Bootloader.c ****     *  start:
 216:.\Generated_Source\PSoC4/Bootloader.c ****     *     The starting address to start summing data for
 217:.\Generated_Source\PSoC4/Bootloader.c ****     *  size:
 218:.\Generated_Source\PSoC4/Bootloader.c ****     *     The number of bytes to read and compute the sum for
 219:.\Generated_Source\PSoC4/Bootloader.c ****     *
 220:.\Generated_Source\PSoC4/Bootloader.c ****     * Returns:
 221:.\Generated_Source\PSoC4/Bootloader.c ****     *   8 bit sum for the provided data
 222:.\Generated_Source\PSoC4/Bootloader.c ****     *
 223:.\Generated_Source\PSoC4/Bootloader.c ****     *******************************************************************************/
 224:.\Generated_Source\PSoC4/Bootloader.c ****     static uint8 Bootloader_Calc8BitEepromSum(uint32 start, uint32 size) \
 225:.\Generated_Source\PSoC4/Bootloader.c ****                     CYSMALL 
 226:.\Generated_Source\PSoC4/Bootloader.c ****     {
 227:.\Generated_Source\PSoC4/Bootloader.c ****         uint8 CYDATA sum = 0u;
 228:.\Generated_Source\PSoC4/Bootloader.c **** 
 229:.\Generated_Source\PSoC4/Bootloader.c ****         while (size > 0u)
 230:.\Generated_Source\PSoC4/Bootloader.c ****         {
 231:.\Generated_Source\PSoC4/Bootloader.c ****             size--;
 232:.\Generated_Source\PSoC4/Bootloader.c ****             sum += Bootloader_GET_EEPROM_BYTE(start + size);
 233:.\Generated_Source\PSoC4/Bootloader.c ****         }
 234:.\Generated_Source\PSoC4/Bootloader.c **** 
 235:.\Generated_Source\PSoC4/Bootloader.c ****         return(sum);
 236:.\Generated_Source\PSoC4/Bootloader.c ****     }
 237:.\Generated_Source\PSoC4/Bootloader.c **** 
 238:.\Generated_Source\PSoC4/Bootloader.c **** #endif  /* (!CY_PSOC4) */
 239:.\Generated_Source\PSoC4/Bootloader.c **** 
 240:.\Generated_Source\PSoC4/Bootloader.c **** 
 241:.\Generated_Source\PSoC4/Bootloader.c **** /*******************************************************************************
 242:.\Generated_Source\PSoC4/Bootloader.c **** * Function Name: Bootloader_Start
 243:.\Generated_Source\PSoC4/Bootloader.c **** ********************************************************************************
 244:.\Generated_Source\PSoC4/Bootloader.c **** * Summary:
 245:.\Generated_Source\PSoC4/Bootloader.c **** *  This function is called in order executing following algorithm:
 246:.\Generated_Source\PSoC4/Bootloader.c **** *
 247:.\Generated_Source\PSoC4/Bootloader.c **** *  - Identify active bootloadable application (applicable only to
 248:.\Generated_Source\PSoC4/Bootloader.c **** *    Multi-application bootloader)
 249:.\Generated_Source\PSoC4/Bootloader.c **** *
 250:.\Generated_Source\PSoC4/Bootloader.c **** *  - Validate bootloader application (desing-time configurable, Bootloader
 251:.\Generated_Source\PSoC4/Bootloader.c **** *    application validation option of the component customizer)
 252:.\Generated_Source\PSoC4/Bootloader.c **** *
 253:.\Generated_Source\PSoC4/Bootloader.c **** *  - Validate active bootloadable application
 254:.\Generated_Source\PSoC4/Bootloader.c **** *
 255:.\Generated_Source\PSoC4/Bootloader.c **** *  - Run communication subroutine (desing-time configurable, Wait for command
 256:.\Generated_Source\PSoC4/Bootloader.c **** *    option of the component customizer)
 257:.\Generated_Source\PSoC4/Bootloader.c **** *
 258:.\Generated_Source\PSoC4/Bootloader.c **** *  - Schedule bootloadable and reset device
 259:.\Generated_Source\PSoC4/Bootloader.c **** *
 260:.\Generated_Source\PSoC4/Bootloader.c **** * Parameters:
 261:.\Generated_Source\PSoC4/Bootloader.c **** *  None
ARM GAS  C:\DOCUME~1\Chuck\LOCALS~1\Temp\ccjhbcm5.s 			page 6


 262:.\Generated_Source\PSoC4/Bootloader.c **** *
 263:.\Generated_Source\PSoC4/Bootloader.c **** * Return:
 264:.\Generated_Source\PSoC4/Bootloader.c **** *  This method will never return. It will either load a new application and
 265:.\Generated_Source\PSoC4/Bootloader.c **** *  reset the device or it will jump directly to the existing application.
 266:.\Generated_Source\PSoC4/Bootloader.c **** *
 267:.\Generated_Source\PSoC4/Bootloader.c **** * Side Effects:
 268:.\Generated_Source\PSoC4/Bootloader.c **** *  If this method determines that the bootloader appliation itself is corrupt,
 269:.\Generated_Source\PSoC4/Bootloader.c **** *  this method will not return, instead it will simply hang the application.
 270:.\Generated_Source\PSoC4/Bootloader.c **** *
 271:.\Generated_Source\PSoC4/Bootloader.c **** *******************************************************************************/
 272:.\Generated_Source\PSoC4/Bootloader.c **** void Bootloader_Start(void) CYSMALL 
 273:.\Generated_Source\PSoC4/Bootloader.c **** {
 274:.\Generated_Source\PSoC4/Bootloader.c ****     #if(0u != Bootloader_BOOTLOADER_APP_VALIDATION)
 275:.\Generated_Source\PSoC4/Bootloader.c ****         uint8 CYDATA calcedChecksum;
 276:.\Generated_Source\PSoC4/Bootloader.c ****     #endif    /* (0u != Bootloader_BOOTLOADER_APP_VALIDATION) */
 277:.\Generated_Source\PSoC4/Bootloader.c **** 
 278:.\Generated_Source\PSoC4/Bootloader.c ****     #if(!CY_PSOC4)
 279:.\Generated_Source\PSoC4/Bootloader.c ****         uint8 CYXDATA Bootloader_flashBuffer[Bootloader_FROW_SIZE];
 280:.\Generated_Source\PSoC4/Bootloader.c ****     #endif  /* (!CY_PSOC4) */
 281:.\Generated_Source\PSoC4/Bootloader.c **** 
 282:.\Generated_Source\PSoC4/Bootloader.c ****     cystatus tmpStatus;
 283:.\Generated_Source\PSoC4/Bootloader.c **** 
 284:.\Generated_Source\PSoC4/Bootloader.c **** 
 285:.\Generated_Source\PSoC4/Bootloader.c ****     /* Identify active bootloadable application */
 286:.\Generated_Source\PSoC4/Bootloader.c ****     #if(0u != Bootloader_DUAL_APP_BOOTLOADER)
 287:.\Generated_Source\PSoC4/Bootloader.c **** 
 288:.\Generated_Source\PSoC4/Bootloader.c ****         if(Bootloader_MD_BTLDB_ACTIVE_VALUE(0u) == Bootloader_MD_BTLDB_IS_ACTIVE)
 289:.\Generated_Source\PSoC4/Bootloader.c ****         {
 290:.\Generated_Source\PSoC4/Bootloader.c ****             Bootloader_activeApp = Bootloader_MD_BTLDB_ACTIVE_0;
 291:.\Generated_Source\PSoC4/Bootloader.c ****         }
 292:.\Generated_Source\PSoC4/Bootloader.c ****         else if (Bootloader_MD_BTLDB_ACTIVE_VALUE(1u) == Bootloader_MD_BTLDB_IS_ACTIVE)
 293:.\Generated_Source\PSoC4/Bootloader.c ****         {
 294:.\Generated_Source\PSoC4/Bootloader.c ****             Bootloader_activeApp = Bootloader_MD_BTLDB_ACTIVE_1;
 295:.\Generated_Source\PSoC4/Bootloader.c ****         }
 296:.\Generated_Source\PSoC4/Bootloader.c ****         else
 297:.\Generated_Source\PSoC4/Bootloader.c ****         {
 298:.\Generated_Source\PSoC4/Bootloader.c ****             Bootloader_activeApp = Bootloader_MD_BTLDB_ACTIVE_NONE;
 299:.\Generated_Source\PSoC4/Bootloader.c ****         }
 300:.\Generated_Source\PSoC4/Bootloader.c **** 
 301:.\Generated_Source\PSoC4/Bootloader.c ****     #endif  /* (0u != Bootloader_DUAL_APP_BOOTLOADER) */
 302:.\Generated_Source\PSoC4/Bootloader.c **** 
 303:.\Generated_Source\PSoC4/Bootloader.c **** 
 304:.\Generated_Source\PSoC4/Bootloader.c ****     /* Initialize Flash subsystem for non-PSoC 4 devices */
 305:.\Generated_Source\PSoC4/Bootloader.c ****     #if(!CY_PSOC4)
 306:.\Generated_Source\PSoC4/Bootloader.c ****         if (CYRET_SUCCESS != CySetTemp())
 307:.\Generated_Source\PSoC4/Bootloader.c ****         {
 308:.\Generated_Source\PSoC4/Bootloader.c ****             CyHalt(0x00u);
 309:.\Generated_Source\PSoC4/Bootloader.c ****         }
 310:.\Generated_Source\PSoC4/Bootloader.c **** 
 311:.\Generated_Source\PSoC4/Bootloader.c ****         if (CYRET_SUCCESS != CySetFlashEEBuffer(Bootloader_flashBuffer))
 312:.\Generated_Source\PSoC4/Bootloader.c ****         {
 313:.\Generated_Source\PSoC4/Bootloader.c ****             CyHalt(0x00u);
 314:.\Generated_Source\PSoC4/Bootloader.c ****         }
 315:.\Generated_Source\PSoC4/Bootloader.c ****     #endif  /* (CY_PSOC4) */
 316:.\Generated_Source\PSoC4/Bootloader.c **** 
 317:.\Generated_Source\PSoC4/Bootloader.c **** 
 318:.\Generated_Source\PSoC4/Bootloader.c ****     /***********************************************************************
ARM GAS  C:\DOCUME~1\Chuck\LOCALS~1\Temp\ccjhbcm5.s 			page 7


 319:.\Generated_Source\PSoC4/Bootloader.c ****     * Bootloader Application Validation
 320:.\Generated_Source\PSoC4/Bootloader.c ****     *
 321:.\Generated_Source\PSoC4/Bootloader.c ****     * Halt device if:
 322:.\Generated_Source\PSoC4/Bootloader.c ****     *  - Calculated checksum does not much one stored in metadata section
 323:.\Generated_Source\PSoC4/Bootloader.c ****     *  - Invalid pointer to the place where bootloader application ends
 324:.\Generated_Source\PSoC4/Bootloader.c ****     *  - Flash subsystem where not initialized correctly
 325:.\Generated_Source\PSoC4/Bootloader.c ****     ***********************************************************************/
 326:.\Generated_Source\PSoC4/Bootloader.c ****     #if(0u != Bootloader_BOOTLOADER_APP_VALIDATION)
 327:.\Generated_Source\PSoC4/Bootloader.c **** 
 328:.\Generated_Source\PSoC4/Bootloader.c ****         /* Calculate Bootloader application checksum */
 329:.\Generated_Source\PSoC4/Bootloader.c ****         calcedChecksum = Bootloader_Calc8BitFlashSum(Bootloader_MD_BTLDR_ADDR_PTR,
 330:.\Generated_Source\PSoC4/Bootloader.c ****                 *Bootloader_SizeBytesAccess - Bootloader_MD_BTLDR_ADDR_PTR);
 331:.\Generated_Source\PSoC4/Bootloader.c **** 
 332:.\Generated_Source\PSoC4/Bootloader.c ****         /* we actually included the checksum, so remove it */
 333:.\Generated_Source\PSoC4/Bootloader.c ****         calcedChecksum -= *Bootloader_ChecksumAccess;
 334:.\Generated_Source\PSoC4/Bootloader.c ****         calcedChecksum = ( uint8 )1u + ( uint8 )(~calcedChecksum);
 335:.\Generated_Source\PSoC4/Bootloader.c **** 
 336:.\Generated_Source\PSoC4/Bootloader.c ****         /* Checksum and pointer to bootloader verification */
 337:.\Generated_Source\PSoC4/Bootloader.c ****         if((calcedChecksum != *Bootloader_ChecksumAccess) ||
 338:.\Generated_Source\PSoC4/Bootloader.c ****            (0u == *Bootloader_SizeBytesAccess))
 339:.\Generated_Source\PSoC4/Bootloader.c ****         {
 340:.\Generated_Source\PSoC4/Bootloader.c ****             CyHalt(0x00u);
 341:.\Generated_Source\PSoC4/Bootloader.c ****         }
 342:.\Generated_Source\PSoC4/Bootloader.c **** 
 343:.\Generated_Source\PSoC4/Bootloader.c ****     #endif  /* (0u != Bootloader_BOOTLOADER_APP_VALIDATION) */
 344:.\Generated_Source\PSoC4/Bootloader.c **** 
 345:.\Generated_Source\PSoC4/Bootloader.c **** 
 346:.\Generated_Source\PSoC4/Bootloader.c ****     /***********************************************************************
 347:.\Generated_Source\PSoC4/Bootloader.c ****     * Active Bootloadable Application Validation
 348:.\Generated_Source\PSoC4/Bootloader.c ****     *
 349:.\Generated_Source\PSoC4/Bootloader.c ****     * If active bootloadable application is invalid or bootloader
 350:.\Generated_Source\PSoC4/Bootloader.c ****     * application is scheduled - do the following:
 351:.\Generated_Source\PSoC4/Bootloader.c ****     *  - schedule bootloader application to be run after software reset
 352:.\Generated_Source\PSoC4/Bootloader.c ****     *  - Go to the communication subroutine. Will wait for commands forever
 353:.\Generated_Source\PSoC4/Bootloader.c ****     ***********************************************************************/
 354:.\Generated_Source\PSoC4/Bootloader.c ****     tmpStatus = Bootloader_ValidateBootloadable(Bootloader_activeApp);
 355:.\Generated_Source\PSoC4/Bootloader.c **** 
 356:.\Generated_Source\PSoC4/Bootloader.c ****     if ((Bootloader_GET_RUN_TYPE == Bootloader_START_BTLDR) ||
 357:.\Generated_Source\PSoC4/Bootloader.c ****         (CYRET_SUCCESS != tmpStatus))
 358:.\Generated_Source\PSoC4/Bootloader.c ****     {
 359:.\Generated_Source\PSoC4/Bootloader.c ****         Bootloader_SET_RUN_TYPE(0u);
 360:.\Generated_Source\PSoC4/Bootloader.c **** 
 361:.\Generated_Source\PSoC4/Bootloader.c ****         Bootloader_HostLink(Bootloader_WAIT_FOR_COMMAND_FOREVER);
 362:.\Generated_Source\PSoC4/Bootloader.c ****     }
 363:.\Generated_Source\PSoC4/Bootloader.c **** 
 364:.\Generated_Source\PSoC4/Bootloader.c **** 
 365:.\Generated_Source\PSoC4/Bootloader.c ****     /* Go to the communication subroutine. Will wait for commands specifed time */
 366:.\Generated_Source\PSoC4/Bootloader.c ****     #if(0u != Bootloader_WAIT_FOR_COMMAND)
 367:.\Generated_Source\PSoC4/Bootloader.c **** 
 368:.\Generated_Source\PSoC4/Bootloader.c ****         /* Timeout is in 100s of miliseconds */
 369:.\Generated_Source\PSoC4/Bootloader.c ****         Bootloader_HostLink(Bootloader_WAIT_FOR_COMMAND_TIME);
 370:.\Generated_Source\PSoC4/Bootloader.c **** 
 371:.\Generated_Source\PSoC4/Bootloader.c ****     #endif  /* (0u != Bootloader_WAIT_FOR_COMMAND) */
 372:.\Generated_Source\PSoC4/Bootloader.c **** 
 373:.\Generated_Source\PSoC4/Bootloader.c **** 
 374:.\Generated_Source\PSoC4/Bootloader.c ****     /* Schedule bootloadable application and perform software reset */
 375:.\Generated_Source\PSoC4/Bootloader.c ****     Bootloader_LaunchApplication();
ARM GAS  C:\DOCUME~1\Chuck\LOCALS~1\Temp\ccjhbcm5.s 			page 8


 376:.\Generated_Source\PSoC4/Bootloader.c **** }
 377:.\Generated_Source\PSoC4/Bootloader.c **** 
 378:.\Generated_Source\PSoC4/Bootloader.c **** 
 379:.\Generated_Source\PSoC4/Bootloader.c **** /*******************************************************************************
 380:.\Generated_Source\PSoC4/Bootloader.c **** * Function Name: Bootloader_LaunchApplication
 381:.\Generated_Source\PSoC4/Bootloader.c **** ********************************************************************************
 382:.\Generated_Source\PSoC4/Bootloader.c **** *
 383:.\Generated_Source\PSoC4/Bootloader.c **** * Summary:
 384:.\Generated_Source\PSoC4/Bootloader.c **** *  Jumps the PC to the start address of the user application in flash.
 385:.\Generated_Source\PSoC4/Bootloader.c **** *
 386:.\Generated_Source\PSoC4/Bootloader.c **** * Parameters:
 387:.\Generated_Source\PSoC4/Bootloader.c **** *  None
 388:.\Generated_Source\PSoC4/Bootloader.c **** *
 389:.\Generated_Source\PSoC4/Bootloader.c **** * Returns:
 390:.\Generated_Source\PSoC4/Bootloader.c **** *  This method will never return if it succesfully goes to the user application.
 391:.\Generated_Source\PSoC4/Bootloader.c **** *
 392:.\Generated_Source\PSoC4/Bootloader.c **** *******************************************************************************/
 393:.\Generated_Source\PSoC4/Bootloader.c **** static void Bootloader_LaunchApplication(void) CYSMALL 
 394:.\Generated_Source\PSoC4/Bootloader.c **** {
 395:.\Generated_Source\PSoC4/Bootloader.c ****     /* Schedule Bootloadable to start after reset */
 396:.\Generated_Source\PSoC4/Bootloader.c ****     Bootloader_SET_RUN_TYPE(Bootloader_START_APP);
 397:.\Generated_Source\PSoC4/Bootloader.c **** 
 398:.\Generated_Source\PSoC4/Bootloader.c ****     CySoftwareReset();
 399:.\Generated_Source\PSoC4/Bootloader.c **** }
 400:.\Generated_Source\PSoC4/Bootloader.c **** 
 401:.\Generated_Source\PSoC4/Bootloader.c **** 
 402:.\Generated_Source\PSoC4/Bootloader.c **** /*******************************************************************************
 403:.\Generated_Source\PSoC4/Bootloader.c **** * Function Name: CyBtldr_CheckLaunch
 404:.\Generated_Source\PSoC4/Bootloader.c **** ********************************************************************************
 405:.\Generated_Source\PSoC4/Bootloader.c **** *
 406:.\Generated_Source\PSoC4/Bootloader.c **** * Summary:
 407:.\Generated_Source\PSoC4/Bootloader.c **** *  This routine checks to see if the bootloader or the bootloadable application
 408:.\Generated_Source\PSoC4/Bootloader.c **** *  should be run.  If the application is to be run, it will start executing.
 409:.\Generated_Source\PSoC4/Bootloader.c **** *  If the bootloader is to be run, it will return so the bootloader can
 410:.\Generated_Source\PSoC4/Bootloader.c **** *  continue starting up.
 411:.\Generated_Source\PSoC4/Bootloader.c **** *
 412:.\Generated_Source\PSoC4/Bootloader.c **** * Parameters:
 413:.\Generated_Source\PSoC4/Bootloader.c **** *  None
 414:.\Generated_Source\PSoC4/Bootloader.c **** *
 415:.\Generated_Source\PSoC4/Bootloader.c **** * Returns:
 416:.\Generated_Source\PSoC4/Bootloader.c **** *  None
 417:.\Generated_Source\PSoC4/Bootloader.c **** *
 418:.\Generated_Source\PSoC4/Bootloader.c **** *******************************************************************************/
 419:.\Generated_Source\PSoC4/Bootloader.c **** void CyBtldr_CheckLaunch(void) CYSMALL 
 420:.\Generated_Source\PSoC4/Bootloader.c **** {
 421:.\Generated_Source\PSoC4/Bootloader.c **** 
 422:.\Generated_Source\PSoC4/Bootloader.c **** #if(CY_PSOC4)
 423:.\Generated_Source\PSoC4/Bootloader.c **** 
 424:.\Generated_Source\PSoC4/Bootloader.c ****     /*******************************************************************************
 425:.\Generated_Source\PSoC4/Bootloader.c ****     * Set cyBtldrRunType to zero in case of non-software reset occured. This means
 426:.\Generated_Source\PSoC4/Bootloader.c ****     * that bootloader application is scheduled - that is initial clean state. The
 427:.\Generated_Source\PSoC4/Bootloader.c ****     * value of cyBtldrRunType is valid only in case of software reset.
 428:.\Generated_Source\PSoC4/Bootloader.c ****     *******************************************************************************/
 429:.\Generated_Source\PSoC4/Bootloader.c ****     if (0u == (Bootloader_RES_CAUSE_REG & Bootloader_RES_CAUSE_RESET_SOFT))
 430:.\Generated_Source\PSoC4/Bootloader.c ****     {
 431:.\Generated_Source\PSoC4/Bootloader.c ****         cyBtldrRunType = 0u;
 432:.\Generated_Source\PSoC4/Bootloader.c ****     }
ARM GAS  C:\DOCUME~1\Chuck\LOCALS~1\Temp\ccjhbcm5.s 			page 9


 433:.\Generated_Source\PSoC4/Bootloader.c **** 
 434:.\Generated_Source\PSoC4/Bootloader.c **** #endif /* (CY_PSOC4) */
 435:.\Generated_Source\PSoC4/Bootloader.c **** 
 436:.\Generated_Source\PSoC4/Bootloader.c **** 
 437:.\Generated_Source\PSoC4/Bootloader.c ****     if (Bootloader_GET_RUN_TYPE == Bootloader_START_APP)
 438:.\Generated_Source\PSoC4/Bootloader.c ****     {
 439:.\Generated_Source\PSoC4/Bootloader.c ****         Bootloader_SET_RUN_TYPE(0u);
 440:.\Generated_Source\PSoC4/Bootloader.c **** 
 441:.\Generated_Source\PSoC4/Bootloader.c ****         /*******************************************************************************
 442:.\Generated_Source\PSoC4/Bootloader.c ****         * Indicates that we have told ourselves to jump to the application since we have
 443:.\Generated_Source\PSoC4/Bootloader.c ****         * already told ourselves to jump, we do not do any expensive verification of the
 444:.\Generated_Source\PSoC4/Bootloader.c ****         * application. We just check to make sure that the value at CY_APP_ADDR_ADDRESS
 445:.\Generated_Source\PSoC4/Bootloader.c ****         * is something other than 0.
 446:.\Generated_Source\PSoC4/Bootloader.c ****         *******************************************************************************/
 447:.\Generated_Source\PSoC4/Bootloader.c ****         if(0u != Bootloader_GetMetadata(Bootloader_GET_METADATA_BTLDB_ADDR, Bootloader_activeApp))
 448:.\Generated_Source\PSoC4/Bootloader.c ****         {
 449:.\Generated_Source\PSoC4/Bootloader.c ****             /* Never return from this method */
 450:.\Generated_Source\PSoC4/Bootloader.c ****             Bootloader_LaunchBootloadable(Bootloader_GetMetadata(Bootloader_GET_METADATA_BTLDB_ADDR
 451:.\Generated_Source\PSoC4/Bootloader.c ****                                                                              Bootloader_activeApp))
 452:.\Generated_Source\PSoC4/Bootloader.c ****         }
 453:.\Generated_Source\PSoC4/Bootloader.c ****     }
 454:.\Generated_Source\PSoC4/Bootloader.c **** }
 455:.\Generated_Source\PSoC4/Bootloader.c **** 
 456:.\Generated_Source\PSoC4/Bootloader.c **** 
 457:.\Generated_Source\PSoC4/Bootloader.c **** /* Moves the arguement appAddr (RO) into PC, moving execution to the appAddr */
 458:.\Generated_Source\PSoC4/Bootloader.c **** #if defined (__ARMCC_VERSION)
 459:.\Generated_Source\PSoC4/Bootloader.c **** 
 460:.\Generated_Source\PSoC4/Bootloader.c ****     __asm static void Bootloader_LaunchBootloadable(uint32 appAddr)
 461:.\Generated_Source\PSoC4/Bootloader.c ****     {
 462:.\Generated_Source\PSoC4/Bootloader.c ****         BX  R0
 463:.\Generated_Source\PSoC4/Bootloader.c ****         ALIGN
 464:.\Generated_Source\PSoC4/Bootloader.c ****     }
 465:.\Generated_Source\PSoC4/Bootloader.c **** 
 466:.\Generated_Source\PSoC4/Bootloader.c **** #elif defined(__GNUC__)
 467:.\Generated_Source\PSoC4/Bootloader.c **** 
 468:.\Generated_Source\PSoC4/Bootloader.c ****     __attribute__((noinline)) /* Workaround for GCC toolchain bug with inlining */
 469:.\Generated_Source\PSoC4/Bootloader.c ****     __attribute__((naked))
 470:.\Generated_Source\PSoC4/Bootloader.c ****     static void Bootloader_LaunchBootloadable(uint32 appAddr)
 471:.\Generated_Source\PSoC4/Bootloader.c ****     {
  25              		.loc 1 471 0
  26              		.cfi_startproc
  27              	.LVL0:
 472:.\Generated_Source\PSoC4/Bootloader.c ****         __asm volatile("    BX  R0\n");
  28              		.loc 1 472 0
  29              	@ 472 ".\Generated_Source\PSoC4\Bootloader.c" 1
  30 0000 0047     		    BX  R0
  31              	
  32              	@ 0 "" 2
 473:.\Generated_Source\PSoC4/Bootloader.c ****     }
  33              		.loc 1 473 0
  34              		.code	16
  35              		.cfi_endproc
  36              	.LFE38:
  37              		.size	Bootloader_LaunchBootloadable, .-Bootloader_LaunchBootloadable
  38              		.section	.text.Bootloader_GetMetadata.constprop.2,"ax",%progbits
  39              		.align	1
  40              		.code	16
ARM GAS  C:\DOCUME~1\Chuck\LOCALS~1\Temp\ccjhbcm5.s 			page 10


  41              		.thumb_func
  42              		.type	Bootloader_GetMetadata.constprop.2, %function
  43              	Bootloader_GetMetadata.constprop.2:
  44              	.LFB44:
 474:.\Generated_Source\PSoC4/Bootloader.c **** 
 475:.\Generated_Source\PSoC4/Bootloader.c **** #elif defined (__ICCARM__)
 476:.\Generated_Source\PSoC4/Bootloader.c **** 
 477:.\Generated_Source\PSoC4/Bootloader.c ****     static void Bootloader_LaunchBootloadable(uint32 appAddr)
 478:.\Generated_Source\PSoC4/Bootloader.c ****     {
 479:.\Generated_Source\PSoC4/Bootloader.c ****         __asm volatile("    BX  R0\n");
 480:.\Generated_Source\PSoC4/Bootloader.c ****     }
 481:.\Generated_Source\PSoC4/Bootloader.c **** 
 482:.\Generated_Source\PSoC4/Bootloader.c **** #endif  /* (__ARMCC_VERSION) */
 483:.\Generated_Source\PSoC4/Bootloader.c **** 
 484:.\Generated_Source\PSoC4/Bootloader.c **** 
 485:.\Generated_Source\PSoC4/Bootloader.c **** /*******************************************************************************
 486:.\Generated_Source\PSoC4/Bootloader.c **** * Function Name: Bootloader_ValidateBootloadable
 487:.\Generated_Source\PSoC4/Bootloader.c **** ********************************************************************************
 488:.\Generated_Source\PSoC4/Bootloader.c **** * Summary:
 489:.\Generated_Source\PSoC4/Bootloader.c **** *  This routine computes the checksum, zero check, 0xFF check of the
 490:.\Generated_Source\PSoC4/Bootloader.c **** *  application area to determine whether a valid application is loaded.
 491:.\Generated_Source\PSoC4/Bootloader.c **** *
 492:.\Generated_Source\PSoC4/Bootloader.c **** * Parameters:
 493:.\Generated_Source\PSoC4/Bootloader.c **** *  appId:
 494:.\Generated_Source\PSoC4/Bootloader.c **** *      The application number to verify
 495:.\Generated_Source\PSoC4/Bootloader.c **** *
 496:.\Generated_Source\PSoC4/Bootloader.c **** * Returns:
 497:.\Generated_Source\PSoC4/Bootloader.c **** *  CYRET_SUCCESS  - if successful
 498:.\Generated_Source\PSoC4/Bootloader.c **** *  CYRET_BAD_DATA - if the bootloadable is corrupt
 499:.\Generated_Source\PSoC4/Bootloader.c **** *
 500:.\Generated_Source\PSoC4/Bootloader.c **** *******************************************************************************/
 501:.\Generated_Source\PSoC4/Bootloader.c **** static cystatus Bootloader_ValidateBootloadable(uint8 appId) CYSMALL \
 502:.\Generated_Source\PSoC4/Bootloader.c **** 
 503:.\Generated_Source\PSoC4/Bootloader.c ****     {
 504:.\Generated_Source\PSoC4/Bootloader.c ****         uint32 CYDATA idx;
 505:.\Generated_Source\PSoC4/Bootloader.c **** 
 506:.\Generated_Source\PSoC4/Bootloader.c ****         uint32 CYDATA end   = Bootloader_FIRST_APP_BYTE(appId) +
 507:.\Generated_Source\PSoC4/Bootloader.c ****                                 Bootloader_GetMetadata(Bootloader_GET_METADATA_BTLDB_LENGTH,
 508:.\Generated_Source\PSoC4/Bootloader.c ****                                                        appId);
 509:.\Generated_Source\PSoC4/Bootloader.c **** 
 510:.\Generated_Source\PSoC4/Bootloader.c ****         CYBIT         valid = 0u; /* Assume bad flash image */
 511:.\Generated_Source\PSoC4/Bootloader.c ****         uint8  CYDATA calcedChecksum = 0u;
 512:.\Generated_Source\PSoC4/Bootloader.c **** 
 513:.\Generated_Source\PSoC4/Bootloader.c **** 
 514:.\Generated_Source\PSoC4/Bootloader.c ****         #if(0u != Bootloader_DUAL_APP_BOOTLOADER)
 515:.\Generated_Source\PSoC4/Bootloader.c **** 
 516:.\Generated_Source\PSoC4/Bootloader.c ****             if(appId > 1u)
 517:.\Generated_Source\PSoC4/Bootloader.c ****             {
 518:.\Generated_Source\PSoC4/Bootloader.c ****                 return(CYRET_BAD_DATA);
 519:.\Generated_Source\PSoC4/Bootloader.c ****             }
 520:.\Generated_Source\PSoC4/Bootloader.c **** 
 521:.\Generated_Source\PSoC4/Bootloader.c ****         #endif  /* (0u != Bootloader_DUAL_APP_BOOTLOADER) */
 522:.\Generated_Source\PSoC4/Bootloader.c **** 
 523:.\Generated_Source\PSoC4/Bootloader.c **** 
 524:.\Generated_Source\PSoC4/Bootloader.c ****         #if(0u != Bootloader_FAST_APP_VALIDATION)
 525:.\Generated_Source\PSoC4/Bootloader.c **** 
 526:.\Generated_Source\PSoC4/Bootloader.c ****             if(Bootloader_MD_BTLDB_VERIFIED_VALUE(appId) == Bootloader_MD_BTLDB_IS_VERIFIED)
ARM GAS  C:\DOCUME~1\Chuck\LOCALS~1\Temp\ccjhbcm5.s 			page 11


 527:.\Generated_Source\PSoC4/Bootloader.c ****             {
 528:.\Generated_Source\PSoC4/Bootloader.c ****                 return(CYRET_SUCCESS);
 529:.\Generated_Source\PSoC4/Bootloader.c ****             }
 530:.\Generated_Source\PSoC4/Bootloader.c **** 
 531:.\Generated_Source\PSoC4/Bootloader.c ****         #endif  /* (0u != Bootloader_FAST_APP_VALIDATION) */
 532:.\Generated_Source\PSoC4/Bootloader.c **** 
 533:.\Generated_Source\PSoC4/Bootloader.c **** 
 534:.\Generated_Source\PSoC4/Bootloader.c ****         /* Calculate checksum of bootloadable image */
 535:.\Generated_Source\PSoC4/Bootloader.c ****         for(idx = Bootloader_FIRST_APP_BYTE(appId); idx < end; ++idx)
 536:.\Generated_Source\PSoC4/Bootloader.c ****         {
 537:.\Generated_Source\PSoC4/Bootloader.c ****             uint8 CYDATA curByte = Bootloader_GET_CODE_BYTE(idx);
 538:.\Generated_Source\PSoC4/Bootloader.c **** 
 539:.\Generated_Source\PSoC4/Bootloader.c ****             if((curByte != 0u) && (curByte != 0xFFu))
 540:.\Generated_Source\PSoC4/Bootloader.c ****             {
 541:.\Generated_Source\PSoC4/Bootloader.c ****                 valid = 1u;
 542:.\Generated_Source\PSoC4/Bootloader.c ****             }
 543:.\Generated_Source\PSoC4/Bootloader.c **** 
 544:.\Generated_Source\PSoC4/Bootloader.c ****             calcedChecksum += curByte;
 545:.\Generated_Source\PSoC4/Bootloader.c ****         }
 546:.\Generated_Source\PSoC4/Bootloader.c **** 
 547:.\Generated_Source\PSoC4/Bootloader.c **** 
 548:.\Generated_Source\PSoC4/Bootloader.c ****         /***************************************************************************
 549:.\Generated_Source\PSoC4/Bootloader.c ****         * We do not compute checksum over the meta data section, so no need to
 550:.\Generated_Source\PSoC4/Bootloader.c ****         * subtract off App Verified or App Active information here like we do when
 551:.\Generated_Source\PSoC4/Bootloader.c ****         * verifying a row.
 552:.\Generated_Source\PSoC4/Bootloader.c ****         ***************************************************************************/
 553:.\Generated_Source\PSoC4/Bootloader.c **** 
 554:.\Generated_Source\PSoC4/Bootloader.c **** 
 555:.\Generated_Source\PSoC4/Bootloader.c ****         #if((!CY_PSOC4) && (CYDEV_ECC_ENABLE == 0u))
 556:.\Generated_Source\PSoC4/Bootloader.c **** 
 557:.\Generated_Source\PSoC4/Bootloader.c ****             /* Add ECC data to checksum */
 558:.\Generated_Source\PSoC4/Bootloader.c ****             idx = ((Bootloader_FIRST_APP_BYTE(appId)) >> 3u);
 559:.\Generated_Source\PSoC4/Bootloader.c **** 
 560:.\Generated_Source\PSoC4/Bootloader.c ****             /* Flash may run into meta data, ECC does not so use full row */
 561:.\Generated_Source\PSoC4/Bootloader.c ****             end = (end == (CY_FLASH_SIZE - Bootloader_MD_SIZEOF))
 562:.\Generated_Source\PSoC4/Bootloader.c ****                 ? (CY_FLASH_SIZE >> 3u)
 563:.\Generated_Source\PSoC4/Bootloader.c ****                 : (end >> 3u);
 564:.\Generated_Source\PSoC4/Bootloader.c **** 
 565:.\Generated_Source\PSoC4/Bootloader.c ****             for (; idx < end; ++idx)
 566:.\Generated_Source\PSoC4/Bootloader.c ****             {
 567:.\Generated_Source\PSoC4/Bootloader.c ****                 calcedChecksum += CY_GET_XTND_REG8((volatile uint8 *)(CYDEV_ECC_BASE + idx));
 568:.\Generated_Source\PSoC4/Bootloader.c ****             }
 569:.\Generated_Source\PSoC4/Bootloader.c **** 
 570:.\Generated_Source\PSoC4/Bootloader.c ****         #endif  /* ((!CY_PSOC4) && (CYDEV_ECC_ENABLE == 0u)) */
 571:.\Generated_Source\PSoC4/Bootloader.c **** 
 572:.\Generated_Source\PSoC4/Bootloader.c **** 
 573:.\Generated_Source\PSoC4/Bootloader.c ****         calcedChecksum = ( uint8 )1u + ( uint8 )(~calcedChecksum);
 574:.\Generated_Source\PSoC4/Bootloader.c **** 
 575:.\Generated_Source\PSoC4/Bootloader.c ****         if((calcedChecksum != Bootloader_MD_BTLDB_CHECKSUM_VALUE(appId)) ||
 576:.\Generated_Source\PSoC4/Bootloader.c ****            (0u == valid))
 577:.\Generated_Source\PSoC4/Bootloader.c ****         {
 578:.\Generated_Source\PSoC4/Bootloader.c ****             return(CYRET_BAD_DATA);
 579:.\Generated_Source\PSoC4/Bootloader.c ****         }
 580:.\Generated_Source\PSoC4/Bootloader.c **** 
 581:.\Generated_Source\PSoC4/Bootloader.c **** 
 582:.\Generated_Source\PSoC4/Bootloader.c ****         #if(0u != Bootloader_FAST_APP_VALIDATION)
 583:.\Generated_Source\PSoC4/Bootloader.c ****             Bootloader_SetFlashByte((uint32) Bootloader_MD_BTLDB_VERIFIED_OFFSET(appId),
ARM GAS  C:\DOCUME~1\Chuck\LOCALS~1\Temp\ccjhbcm5.s 			page 12


 584:.\Generated_Source\PSoC4/Bootloader.c ****                                           Bootloader_MD_BTLDB_IS_VERIFIED);
 585:.\Generated_Source\PSoC4/Bootloader.c ****         #endif  /* (0u != Bootloader_FAST_APP_VALIDATION) */
 586:.\Generated_Source\PSoC4/Bootloader.c **** 
 587:.\Generated_Source\PSoC4/Bootloader.c **** 
 588:.\Generated_Source\PSoC4/Bootloader.c ****         return(CYRET_SUCCESS);
 589:.\Generated_Source\PSoC4/Bootloader.c **** }
 590:.\Generated_Source\PSoC4/Bootloader.c **** 
 591:.\Generated_Source\PSoC4/Bootloader.c **** 
 592:.\Generated_Source\PSoC4/Bootloader.c **** /*******************************************************************************
 593:.\Generated_Source\PSoC4/Bootloader.c **** * Function Name: Bootloader_HostLink
 594:.\Generated_Source\PSoC4/Bootloader.c **** ********************************************************************************
 595:.\Generated_Source\PSoC4/Bootloader.c **** *
 596:.\Generated_Source\PSoC4/Bootloader.c **** * Summary:
 597:.\Generated_Source\PSoC4/Bootloader.c **** *  Causes the bootloader to attempt to read data being transmitted by the
 598:.\Generated_Source\PSoC4/Bootloader.c **** *  host application.  If data is sent from the host, this establishes the
 599:.\Generated_Source\PSoC4/Bootloader.c **** *  communication interface to process all requests.
 600:.\Generated_Source\PSoC4/Bootloader.c **** *
 601:.\Generated_Source\PSoC4/Bootloader.c **** * Parameters:
 602:.\Generated_Source\PSoC4/Bootloader.c **** *  timeOut:
 603:.\Generated_Source\PSoC4/Bootloader.c **** *   The amount of time to listen for data before giving up. Timeout is
 604:.\Generated_Source\PSoC4/Bootloader.c **** *   measured in 10s of ms.  Use 0 for infinite wait.
 605:.\Generated_Source\PSoC4/Bootloader.c **** *
 606:.\Generated_Source\PSoC4/Bootloader.c **** * Return:
 607:.\Generated_Source\PSoC4/Bootloader.c **** *   None
 608:.\Generated_Source\PSoC4/Bootloader.c **** *
 609:.\Generated_Source\PSoC4/Bootloader.c **** *******************************************************************************/
 610:.\Generated_Source\PSoC4/Bootloader.c **** static void Bootloader_HostLink(uint8 timeOut) 
 611:.\Generated_Source\PSoC4/Bootloader.c **** {
 612:.\Generated_Source\PSoC4/Bootloader.c ****     uint16    CYDATA numberRead;
 613:.\Generated_Source\PSoC4/Bootloader.c ****     uint16    CYDATA rspSize;
 614:.\Generated_Source\PSoC4/Bootloader.c ****     uint8     CYDATA ackCode;
 615:.\Generated_Source\PSoC4/Bootloader.c ****     uint16    CYDATA pktChecksum;
 616:.\Generated_Source\PSoC4/Bootloader.c ****     cystatus  CYDATA readStat;
 617:.\Generated_Source\PSoC4/Bootloader.c ****     uint16    CYDATA pktSize    = 0u;
 618:.\Generated_Source\PSoC4/Bootloader.c ****     uint16    CYDATA dataOffset = 0u;
 619:.\Generated_Source\PSoC4/Bootloader.c ****     uint8     CYDATA timeOutCnt = 10u;
 620:.\Generated_Source\PSoC4/Bootloader.c **** 
 621:.\Generated_Source\PSoC4/Bootloader.c ****     #if(0u == Bootloader_DUAL_APP_BOOTLOADER)
 622:.\Generated_Source\PSoC4/Bootloader.c ****         uint8 CYDATA clearedMetaData = 0u;
 623:.\Generated_Source\PSoC4/Bootloader.c ****     #endif  /* (0u == Bootloader_DUAL_APP_BOOTLOADER) */
 624:.\Generated_Source\PSoC4/Bootloader.c **** 
 625:.\Generated_Source\PSoC4/Bootloader.c ****     CYBIT     communicationState = Bootloader_COMMUNICATION_STATE_IDLE;
 626:.\Generated_Source\PSoC4/Bootloader.c **** 
 627:.\Generated_Source\PSoC4/Bootloader.c ****     uint8     packetBuffer[Bootloader_SIZEOF_COMMAND_BUFFER];
 628:.\Generated_Source\PSoC4/Bootloader.c ****     uint8     dataBuffer  [Bootloader_SIZEOF_COMMAND_BUFFER];
 629:.\Generated_Source\PSoC4/Bootloader.c **** 
 630:.\Generated_Source\PSoC4/Bootloader.c **** 
 631:.\Generated_Source\PSoC4/Bootloader.c ****     /* Initialize communications channel. */
 632:.\Generated_Source\PSoC4/Bootloader.c ****     CyBtldrCommStart();
 633:.\Generated_Source\PSoC4/Bootloader.c **** 
 634:.\Generated_Source\PSoC4/Bootloader.c ****     /* Enable global interrupts */
 635:.\Generated_Source\PSoC4/Bootloader.c ****     CyGlobalIntEnable;
 636:.\Generated_Source\PSoC4/Bootloader.c **** 
 637:.\Generated_Source\PSoC4/Bootloader.c ****     do
 638:.\Generated_Source\PSoC4/Bootloader.c ****     {
 639:.\Generated_Source\PSoC4/Bootloader.c ****         ackCode = CYRET_SUCCESS;
 640:.\Generated_Source\PSoC4/Bootloader.c **** 
ARM GAS  C:\DOCUME~1\Chuck\LOCALS~1\Temp\ccjhbcm5.s 			page 13


 641:.\Generated_Source\PSoC4/Bootloader.c ****         do
 642:.\Generated_Source\PSoC4/Bootloader.c ****         {
 643:.\Generated_Source\PSoC4/Bootloader.c ****             readStat = CyBtldrCommRead(packetBuffer,
 644:.\Generated_Source\PSoC4/Bootloader.c ****                                         Bootloader_SIZEOF_COMMAND_BUFFER,
 645:.\Generated_Source\PSoC4/Bootloader.c ****                                         &numberRead,
 646:.\Generated_Source\PSoC4/Bootloader.c ****                                         (0u == timeOut) ? 0xFFu : timeOut);
 647:.\Generated_Source\PSoC4/Bootloader.c ****             if (0u != timeOut)
 648:.\Generated_Source\PSoC4/Bootloader.c ****             {
 649:.\Generated_Source\PSoC4/Bootloader.c ****                 timeOutCnt--;
 650:.\Generated_Source\PSoC4/Bootloader.c ****             }
 651:.\Generated_Source\PSoC4/Bootloader.c **** 
 652:.\Generated_Source\PSoC4/Bootloader.c ****         } while ( (0u != timeOutCnt) && (readStat != CYRET_SUCCESS) );
 653:.\Generated_Source\PSoC4/Bootloader.c **** 
 654:.\Generated_Source\PSoC4/Bootloader.c **** 
 655:.\Generated_Source\PSoC4/Bootloader.c ****         if( readStat != CYRET_SUCCESS )
 656:.\Generated_Source\PSoC4/Bootloader.c ****         {
 657:.\Generated_Source\PSoC4/Bootloader.c ****             continue;
 658:.\Generated_Source\PSoC4/Bootloader.c ****         }
 659:.\Generated_Source\PSoC4/Bootloader.c **** 
 660:.\Generated_Source\PSoC4/Bootloader.c ****         if((numberRead < Bootloader_MIN_PKT_SIZE) ||
 661:.\Generated_Source\PSoC4/Bootloader.c ****            (packetBuffer[Bootloader_SOP_ADDR] != Bootloader_SOP))
 662:.\Generated_Source\PSoC4/Bootloader.c ****         {
 663:.\Generated_Source\PSoC4/Bootloader.c ****             ackCode = Bootloader_ERR_DATA;
 664:.\Generated_Source\PSoC4/Bootloader.c ****         }
 665:.\Generated_Source\PSoC4/Bootloader.c ****         else
 666:.\Generated_Source\PSoC4/Bootloader.c ****         {
 667:.\Generated_Source\PSoC4/Bootloader.c ****             pktSize = ((uint16)((uint16)packetBuffer[Bootloader_SIZE_ADDR + 1u] << 8u)) |
 668:.\Generated_Source\PSoC4/Bootloader.c ****                                packetBuffer[Bootloader_SIZE_ADDR];
 669:.\Generated_Source\PSoC4/Bootloader.c **** 
 670:.\Generated_Source\PSoC4/Bootloader.c ****             pktChecksum = ((uint16)((uint16)packetBuffer[Bootloader_CHK_ADDR(pktSize) + 1u] << 8u))
 671:.\Generated_Source\PSoC4/Bootloader.c ****                                    packetBuffer[Bootloader_CHK_ADDR(pktSize)];
 672:.\Generated_Source\PSoC4/Bootloader.c **** 
 673:.\Generated_Source\PSoC4/Bootloader.c ****             if((pktSize + Bootloader_MIN_PKT_SIZE) > numberRead)
 674:.\Generated_Source\PSoC4/Bootloader.c ****             {
 675:.\Generated_Source\PSoC4/Bootloader.c ****                 ackCode = Bootloader_ERR_LENGTH;
 676:.\Generated_Source\PSoC4/Bootloader.c ****             }
 677:.\Generated_Source\PSoC4/Bootloader.c ****             else if(packetBuffer[Bootloader_EOP_ADDR(pktSize)] != Bootloader_EOP)
 678:.\Generated_Source\PSoC4/Bootloader.c ****             {
 679:.\Generated_Source\PSoC4/Bootloader.c ****                 ackCode = Bootloader_ERR_DATA;
 680:.\Generated_Source\PSoC4/Bootloader.c ****             }
 681:.\Generated_Source\PSoC4/Bootloader.c ****             else if(pktChecksum != Bootloader_CalcPacketChecksum(packetBuffer,
 682:.\Generated_Source\PSoC4/Bootloader.c ****                                                                         pktSize + Bootloader_DATA_A
 683:.\Generated_Source\PSoC4/Bootloader.c ****             {
 684:.\Generated_Source\PSoC4/Bootloader.c ****                 ackCode = Bootloader_ERR_CHECKSUM;
 685:.\Generated_Source\PSoC4/Bootloader.c ****             }
 686:.\Generated_Source\PSoC4/Bootloader.c ****             else
 687:.\Generated_Source\PSoC4/Bootloader.c ****             {
 688:.\Generated_Source\PSoC4/Bootloader.c ****                 /* Empty section */
 689:.\Generated_Source\PSoC4/Bootloader.c ****             }
 690:.\Generated_Source\PSoC4/Bootloader.c ****         }
 691:.\Generated_Source\PSoC4/Bootloader.c **** 
 692:.\Generated_Source\PSoC4/Bootloader.c ****         rspSize = 0u;
 693:.\Generated_Source\PSoC4/Bootloader.c ****         if(ackCode == CYRET_SUCCESS)
 694:.\Generated_Source\PSoC4/Bootloader.c ****         {
 695:.\Generated_Source\PSoC4/Bootloader.c ****             uint8 CYDATA btldrData = packetBuffer[Bootloader_DATA_ADDR];
 696:.\Generated_Source\PSoC4/Bootloader.c **** 
 697:.\Generated_Source\PSoC4/Bootloader.c ****             ackCode = Bootloader_ERR_DATA;
ARM GAS  C:\DOCUME~1\Chuck\LOCALS~1\Temp\ccjhbcm5.s 			page 14


 698:.\Generated_Source\PSoC4/Bootloader.c ****             switch(packetBuffer[Bootloader_CMD_ADDR])
 699:.\Generated_Source\PSoC4/Bootloader.c ****             {
 700:.\Generated_Source\PSoC4/Bootloader.c **** 
 701:.\Generated_Source\PSoC4/Bootloader.c **** 
 702:.\Generated_Source\PSoC4/Bootloader.c ****             /***************************************************************************
 703:.\Generated_Source\PSoC4/Bootloader.c ****             *   Get metadata
 704:.\Generated_Source\PSoC4/Bootloader.c ****             ***************************************************************************/
 705:.\Generated_Source\PSoC4/Bootloader.c ****             #if(0u != Bootloader_CMD_GET_METADATA)
 706:.\Generated_Source\PSoC4/Bootloader.c **** 
 707:.\Generated_Source\PSoC4/Bootloader.c ****                 case Bootloader_COMMAND_GET_METADATA:
 708:.\Generated_Source\PSoC4/Bootloader.c **** 
 709:.\Generated_Source\PSoC4/Bootloader.c ****                     if((Bootloader_COMMUNICATION_STATE_ACTIVE == communicationState) && (pktSize ==
 710:.\Generated_Source\PSoC4/Bootloader.c ****                     {
 711:.\Generated_Source\PSoC4/Bootloader.c ****                         if (btldrData >= Bootloader_MAX_NUM_OF_BTLDB)
 712:.\Generated_Source\PSoC4/Bootloader.c ****                         {
 713:.\Generated_Source\PSoC4/Bootloader.c ****                             ackCode = Bootloader_ERR_APP;
 714:.\Generated_Source\PSoC4/Bootloader.c ****                         }
 715:.\Generated_Source\PSoC4/Bootloader.c ****                         else if(CYRET_SUCCESS == Bootloader_ValidateBootloadable(btldrData))
 716:.\Generated_Source\PSoC4/Bootloader.c ****                         {
 717:.\Generated_Source\PSoC4/Bootloader.c ****                             #if(CY_PSOC3)
 718:.\Generated_Source\PSoC4/Bootloader.c ****                                 (void) memcpy(&packetBuffer[Bootloader_DATA_ADDR],
 719:.\Generated_Source\PSoC4/Bootloader.c ****                                             ((uint8  CYCODE *) (Bootloader_META_BASE(btldrData))), 
 720:.\Generated_Source\PSoC4/Bootloader.c ****                             #else
 721:.\Generated_Source\PSoC4/Bootloader.c ****                                 (void) memcpy(&packetBuffer[Bootloader_DATA_ADDR],
 722:.\Generated_Source\PSoC4/Bootloader.c ****                                             (uint8 *) Bootloader_META_BASE(btldrData), 56u);
 723:.\Generated_Source\PSoC4/Bootloader.c ****                             #endif  /* (CY_PSOC3) */
 724:.\Generated_Source\PSoC4/Bootloader.c **** 
 725:.\Generated_Source\PSoC4/Bootloader.c ****                             rspSize = 56u;
 726:.\Generated_Source\PSoC4/Bootloader.c ****                             ackCode = CYRET_SUCCESS;
 727:.\Generated_Source\PSoC4/Bootloader.c ****                         }
 728:.\Generated_Source\PSoC4/Bootloader.c ****                         else
 729:.\Generated_Source\PSoC4/Bootloader.c ****                         {
 730:.\Generated_Source\PSoC4/Bootloader.c ****                             ackCode = Bootloader_ERR_APP;
 731:.\Generated_Source\PSoC4/Bootloader.c ****                         }
 732:.\Generated_Source\PSoC4/Bootloader.c ****                     }
 733:.\Generated_Source\PSoC4/Bootloader.c ****                     break;
 734:.\Generated_Source\PSoC4/Bootloader.c **** 
 735:.\Generated_Source\PSoC4/Bootloader.c ****             #endif  /* (0u != Bootloader_CMD_GET_METADATA) */
 736:.\Generated_Source\PSoC4/Bootloader.c **** 
 737:.\Generated_Source\PSoC4/Bootloader.c **** 
 738:.\Generated_Source\PSoC4/Bootloader.c ****             /***************************************************************************
 739:.\Generated_Source\PSoC4/Bootloader.c ****             *   Verify checksum
 740:.\Generated_Source\PSoC4/Bootloader.c ****             ***************************************************************************/
 741:.\Generated_Source\PSoC4/Bootloader.c ****             case Bootloader_COMMAND_CHECKSUM:
 742:.\Generated_Source\PSoC4/Bootloader.c **** 
 743:.\Generated_Source\PSoC4/Bootloader.c ****                 if((Bootloader_COMMUNICATION_STATE_ACTIVE == communicationState) && (pktSize == 0u)
 744:.\Generated_Source\PSoC4/Bootloader.c ****                 {
 745:.\Generated_Source\PSoC4/Bootloader.c ****                     packetBuffer[Bootloader_DATA_ADDR] =
 746:.\Generated_Source\PSoC4/Bootloader.c ****                             (uint8)(Bootloader_ValidateBootloadable(Bootloader_activeApp) == CYRET_
 747:.\Generated_Source\PSoC4/Bootloader.c **** 
 748:.\Generated_Source\PSoC4/Bootloader.c ****                     rspSize = 1u;
 749:.\Generated_Source\PSoC4/Bootloader.c ****                     ackCode = CYRET_SUCCESS;
 750:.\Generated_Source\PSoC4/Bootloader.c ****                 }
 751:.\Generated_Source\PSoC4/Bootloader.c ****                 break;
 752:.\Generated_Source\PSoC4/Bootloader.c **** 
 753:.\Generated_Source\PSoC4/Bootloader.c **** 
 754:.\Generated_Source\PSoC4/Bootloader.c ****             /***************************************************************************
ARM GAS  C:\DOCUME~1\Chuck\LOCALS~1\Temp\ccjhbcm5.s 			page 15


 755:.\Generated_Source\PSoC4/Bootloader.c ****             *   Get flash size
 756:.\Generated_Source\PSoC4/Bootloader.c ****             ***************************************************************************/
 757:.\Generated_Source\PSoC4/Bootloader.c ****             #if(0u != Bootloader_CMD_GET_FLASH_SIZE_AVAIL)
 758:.\Generated_Source\PSoC4/Bootloader.c **** 
 759:.\Generated_Source\PSoC4/Bootloader.c ****                 case Bootloader_COMMAND_REPORT_SIZE:
 760:.\Generated_Source\PSoC4/Bootloader.c **** 
 761:.\Generated_Source\PSoC4/Bootloader.c ****                     if((Bootloader_COMMUNICATION_STATE_ACTIVE == communicationState) && (pktSize ==
 762:.\Generated_Source\PSoC4/Bootloader.c ****                     {
 763:.\Generated_Source\PSoC4/Bootloader.c ****                         /* btldrData holds flash array ID sent by host */
 764:.\Generated_Source\PSoC4/Bootloader.c ****                         if(btldrData < Bootloader_NUM_OF_FLASH_ARRAYS)
 765:.\Generated_Source\PSoC4/Bootloader.c ****                         {
 766:.\Generated_Source\PSoC4/Bootloader.c ****                             #if (1u == Bootloader_NUM_OF_FLASH_ARRAYS)
 767:.\Generated_Source\PSoC4/Bootloader.c ****                                 uint16 CYDATA startRow = (uint16)*Bootloader_SizeBytesAccess / CYDE
 768:.\Generated_Source\PSoC4/Bootloader.c ****                             #else
 769:.\Generated_Source\PSoC4/Bootloader.c ****                                 uint16 CYDATA startRow = 0u;
 770:.\Generated_Source\PSoC4/Bootloader.c ****                             #endif  /* (1u == Bootloader_NUM_OF_FLASH_ARRAYS) */
 771:.\Generated_Source\PSoC4/Bootloader.c **** 
 772:.\Generated_Source\PSoC4/Bootloader.c ****                             packetBuffer[Bootloader_DATA_ADDR]      = LO8(startRow);
 773:.\Generated_Source\PSoC4/Bootloader.c ****                             packetBuffer[Bootloader_DATA_ADDR + 1u] = HI8(startRow);
 774:.\Generated_Source\PSoC4/Bootloader.c ****                             packetBuffer[Bootloader_DATA_ADDR + 2u] = LO8(CY_FLASH_NUMBER_ROWS - 1u
 775:.\Generated_Source\PSoC4/Bootloader.c ****                             packetBuffer[Bootloader_DATA_ADDR + 3u] = HI8(CY_FLASH_NUMBER_ROWS - 1u
 776:.\Generated_Source\PSoC4/Bootloader.c **** 
 777:.\Generated_Source\PSoC4/Bootloader.c ****                             rspSize = 4u;
 778:.\Generated_Source\PSoC4/Bootloader.c ****                             ackCode = CYRET_SUCCESS;
 779:.\Generated_Source\PSoC4/Bootloader.c ****                         }
 780:.\Generated_Source\PSoC4/Bootloader.c **** 
 781:.\Generated_Source\PSoC4/Bootloader.c ****                     }
 782:.\Generated_Source\PSoC4/Bootloader.c ****                     break;
 783:.\Generated_Source\PSoC4/Bootloader.c **** 
 784:.\Generated_Source\PSoC4/Bootloader.c ****             #endif  /* (0u != Bootloader_CMD_GET_FLASH_SIZE_AVAIL) */
 785:.\Generated_Source\PSoC4/Bootloader.c **** 
 786:.\Generated_Source\PSoC4/Bootloader.c **** 
 787:.\Generated_Source\PSoC4/Bootloader.c ****             /***************************************************************************
 788:.\Generated_Source\PSoC4/Bootloader.c ****             *   Get application status
 789:.\Generated_Source\PSoC4/Bootloader.c ****             ***************************************************************************/
 790:.\Generated_Source\PSoC4/Bootloader.c ****             #if(0u != Bootloader_DUAL_APP_BOOTLOADER)
 791:.\Generated_Source\PSoC4/Bootloader.c **** 
 792:.\Generated_Source\PSoC4/Bootloader.c ****                 #if(0u != Bootloader_CMD_GET_APP_STATUS_AVAIL)
 793:.\Generated_Source\PSoC4/Bootloader.c **** 
 794:.\Generated_Source\PSoC4/Bootloader.c ****                     case Bootloader_COMMAND_APP_STATUS:
 795:.\Generated_Source\PSoC4/Bootloader.c **** 
 796:.\Generated_Source\PSoC4/Bootloader.c ****                         if((Bootloader_COMMUNICATION_STATE_ACTIVE == communicationState) && (pktSiz
 797:.\Generated_Source\PSoC4/Bootloader.c ****                         {
 798:.\Generated_Source\PSoC4/Bootloader.c **** 
 799:.\Generated_Source\PSoC4/Bootloader.c ****                             packetBuffer[Bootloader_DATA_ADDR] =
 800:.\Generated_Source\PSoC4/Bootloader.c ****                                 (uint8)Bootloader_ValidateBootloadable(btldrData);
 801:.\Generated_Source\PSoC4/Bootloader.c **** 
 802:.\Generated_Source\PSoC4/Bootloader.c ****                             packetBuffer[Bootloader_DATA_ADDR + 1u] =
 803:.\Generated_Source\PSoC4/Bootloader.c ****                                 (uint8)Bootloader_MD_BTLDB_ACTIVE_VALUE(btldrData);
 804:.\Generated_Source\PSoC4/Bootloader.c **** 
 805:.\Generated_Source\PSoC4/Bootloader.c ****                             rspSize = 2u;
 806:.\Generated_Source\PSoC4/Bootloader.c ****                             ackCode = CYRET_SUCCESS;
 807:.\Generated_Source\PSoC4/Bootloader.c ****                         }
 808:.\Generated_Source\PSoC4/Bootloader.c ****                         break;
 809:.\Generated_Source\PSoC4/Bootloader.c **** 
 810:.\Generated_Source\PSoC4/Bootloader.c ****                 #endif  /* (0u != Bootloader_CMD_GET_APP_STATUS_AVAIL) */
 811:.\Generated_Source\PSoC4/Bootloader.c **** 
ARM GAS  C:\DOCUME~1\Chuck\LOCALS~1\Temp\ccjhbcm5.s 			page 16


 812:.\Generated_Source\PSoC4/Bootloader.c ****             #endif  /* (0u != Bootloader_DUAL_APP_BOOTLOADER) */
 813:.\Generated_Source\PSoC4/Bootloader.c **** 
 814:.\Generated_Source\PSoC4/Bootloader.c **** 
 815:.\Generated_Source\PSoC4/Bootloader.c ****             /***************************************************************************
 816:.\Generated_Source\PSoC4/Bootloader.c ****             *   Program / Erase row
 817:.\Generated_Source\PSoC4/Bootloader.c ****             ***************************************************************************/
 818:.\Generated_Source\PSoC4/Bootloader.c ****             case Bootloader_COMMAND_PROGRAM:
 819:.\Generated_Source\PSoC4/Bootloader.c **** 
 820:.\Generated_Source\PSoC4/Bootloader.c ****             /* The btldrData variable holds Flash Array ID */
 821:.\Generated_Source\PSoC4/Bootloader.c **** 
 822:.\Generated_Source\PSoC4/Bootloader.c ****         #if (0u != Bootloader_CMD_ERASE_ROW_AVAIL)
 823:.\Generated_Source\PSoC4/Bootloader.c **** 
 824:.\Generated_Source\PSoC4/Bootloader.c ****             case Bootloader_COMMAND_ERASE:
 825:.\Generated_Source\PSoC4/Bootloader.c ****                 if (Bootloader_COMMAND_ERASE == packetBuffer[Bootloader_CMD_ADDR])
 826:.\Generated_Source\PSoC4/Bootloader.c ****                 {
 827:.\Generated_Source\PSoC4/Bootloader.c ****                     if ((Bootloader_COMMUNICATION_STATE_ACTIVE == communicationState) && (pktSize =
 828:.\Generated_Source\PSoC4/Bootloader.c ****                     {
 829:.\Generated_Source\PSoC4/Bootloader.c ****                         #if(!CY_PSOC4)
 830:.\Generated_Source\PSoC4/Bootloader.c ****                             if((btldrData >= Bootloader_FIRST_EE_ARRAYID) &&
 831:.\Generated_Source\PSoC4/Bootloader.c ****                                (btldrData <= Bootloader_LAST_EE_ARRAYID))
 832:.\Generated_Source\PSoC4/Bootloader.c ****                             {
 833:.\Generated_Source\PSoC4/Bootloader.c ****                                 /* Size of EEPROM row */
 834:.\Generated_Source\PSoC4/Bootloader.c ****                                 dataOffset = CY_EEPROM_SIZEOF_ROW;
 835:.\Generated_Source\PSoC4/Bootloader.c ****                             }
 836:.\Generated_Source\PSoC4/Bootloader.c ****                             else
 837:.\Generated_Source\PSoC4/Bootloader.c ****                             {
 838:.\Generated_Source\PSoC4/Bootloader.c ****                                 /* Size of FLASH row (depends on ECC configuration) */
 839:.\Generated_Source\PSoC4/Bootloader.c ****                                 dataOffset = Bootloader_FROW_SIZE;
 840:.\Generated_Source\PSoC4/Bootloader.c ****                             }
 841:.\Generated_Source\PSoC4/Bootloader.c ****                         #else
 842:.\Generated_Source\PSoC4/Bootloader.c ****                             /* Size of FLASH row (no ECC available) */
 843:.\Generated_Source\PSoC4/Bootloader.c ****                             dataOffset = Bootloader_FROW_SIZE;
 844:.\Generated_Source\PSoC4/Bootloader.c ****                         #endif  /* (!CY_PSOC4) */
 845:.\Generated_Source\PSoC4/Bootloader.c **** 
 846:.\Generated_Source\PSoC4/Bootloader.c ****                         #if(CY_PSOC3)
 847:.\Generated_Source\PSoC4/Bootloader.c ****                             (void) memset(dataBuffer, (char8) 0, (int16) dataOffset);
 848:.\Generated_Source\PSoC4/Bootloader.c ****                         #else
 849:.\Generated_Source\PSoC4/Bootloader.c ****                             (void) memset(dataBuffer, 0, dataOffset);
 850:.\Generated_Source\PSoC4/Bootloader.c ****                         #endif  /* (CY_PSOC3) */
 851:.\Generated_Source\PSoC4/Bootloader.c ****                     }
 852:.\Generated_Source\PSoC4/Bootloader.c ****                     else
 853:.\Generated_Source\PSoC4/Bootloader.c ****                     {
 854:.\Generated_Source\PSoC4/Bootloader.c ****                         break;
 855:.\Generated_Source\PSoC4/Bootloader.c ****                     }
 856:.\Generated_Source\PSoC4/Bootloader.c ****                 }
 857:.\Generated_Source\PSoC4/Bootloader.c **** 
 858:.\Generated_Source\PSoC4/Bootloader.c ****         #endif  /* (0u != Bootloader_CMD_ERASE_ROW_AVAIL) */
 859:.\Generated_Source\PSoC4/Bootloader.c **** 
 860:.\Generated_Source\PSoC4/Bootloader.c **** 
 861:.\Generated_Source\PSoC4/Bootloader.c ****                 if((Bootloader_COMMUNICATION_STATE_ACTIVE == communicationState) && (pktSize >= 3u)
 862:.\Generated_Source\PSoC4/Bootloader.c ****                 {
 863:.\Generated_Source\PSoC4/Bootloader.c **** 
 864:.\Generated_Source\PSoC4/Bootloader.c ****                     /* The command may be sent along with the last block of data, to program the ro
 865:.\Generated_Source\PSoC4/Bootloader.c ****                     #if(CY_PSOC3)
 866:.\Generated_Source\PSoC4/Bootloader.c ****                         (void) memcpy(&dataBuffer[dataOffset],
 867:.\Generated_Source\PSoC4/Bootloader.c ****                                       &packetBuffer[Bootloader_DATA_ADDR + 3u],
 868:.\Generated_Source\PSoC4/Bootloader.c ****                                       ( int16 )pktSize - 3);
ARM GAS  C:\DOCUME~1\Chuck\LOCALS~1\Temp\ccjhbcm5.s 			page 17


 869:.\Generated_Source\PSoC4/Bootloader.c ****                     #else
 870:.\Generated_Source\PSoC4/Bootloader.c ****                         (void) memcpy(&dataBuffer[dataOffset],
 871:.\Generated_Source\PSoC4/Bootloader.c ****                                       &packetBuffer[Bootloader_DATA_ADDR + 3u],
 872:.\Generated_Source\PSoC4/Bootloader.c ****                                       pktSize - 3u);
 873:.\Generated_Source\PSoC4/Bootloader.c ****                     #endif  /* (CY_PSOC3) */
 874:.\Generated_Source\PSoC4/Bootloader.c **** 
 875:.\Generated_Source\PSoC4/Bootloader.c ****                     dataOffset += (pktSize - 3u);
 876:.\Generated_Source\PSoC4/Bootloader.c **** 
 877:.\Generated_Source\PSoC4/Bootloader.c ****                     #if(!CY_PSOC4)
 878:.\Generated_Source\PSoC4/Bootloader.c ****                         if((btldrData >= Bootloader_FIRST_EE_ARRAYID) &&
 879:.\Generated_Source\PSoC4/Bootloader.c ****                            (btldrData <= Bootloader_LAST_EE_ARRAYID))
 880:.\Generated_Source\PSoC4/Bootloader.c ****                         {
 881:.\Generated_Source\PSoC4/Bootloader.c **** 
 882:.\Generated_Source\PSoC4/Bootloader.c ****                             CyEEPROM_Start();
 883:.\Generated_Source\PSoC4/Bootloader.c **** 
 884:.\Generated_Source\PSoC4/Bootloader.c ****                             /* Size of EEPROM row */
 885:.\Generated_Source\PSoC4/Bootloader.c ****                             pktSize = CY_EEPROM_SIZEOF_ROW;
 886:.\Generated_Source\PSoC4/Bootloader.c ****                         }
 887:.\Generated_Source\PSoC4/Bootloader.c ****                         else
 888:.\Generated_Source\PSoC4/Bootloader.c ****                         {
 889:.\Generated_Source\PSoC4/Bootloader.c ****                             /* Size of FLASH row (depends on ECC configuration) */
 890:.\Generated_Source\PSoC4/Bootloader.c ****                             pktSize = Bootloader_FROW_SIZE;
 891:.\Generated_Source\PSoC4/Bootloader.c ****                         }
 892:.\Generated_Source\PSoC4/Bootloader.c ****                     #else
 893:.\Generated_Source\PSoC4/Bootloader.c ****                         /* Size of FLASH row (no ECC available) */
 894:.\Generated_Source\PSoC4/Bootloader.c ****                         pktSize = Bootloader_FROW_SIZE;
 895:.\Generated_Source\PSoC4/Bootloader.c ****                     #endif  /* (!CY_PSOC4) */
 896:.\Generated_Source\PSoC4/Bootloader.c **** 
 897:.\Generated_Source\PSoC4/Bootloader.c **** 
 898:.\Generated_Source\PSoC4/Bootloader.c ****                     /* Check if we have all data to program */
 899:.\Generated_Source\PSoC4/Bootloader.c ****                     if(dataOffset == pktSize)
 900:.\Generated_Source\PSoC4/Bootloader.c ****                     {
 901:.\Generated_Source\PSoC4/Bootloader.c ****                         /* Get FLASH/EEPROM row number */
 902:.\Generated_Source\PSoC4/Bootloader.c ****                         dataOffset = ((uint16)((uint16)packetBuffer[Bootloader_DATA_ADDR + 2u] << 8
 903:.\Generated_Source\PSoC4/Bootloader.c ****                                               packetBuffer[Bootloader_DATA_ADDR + 1u];
 904:.\Generated_Source\PSoC4/Bootloader.c **** 
 905:.\Generated_Source\PSoC4/Bootloader.c ****                         #if(!CY_PSOC4)
 906:.\Generated_Source\PSoC4/Bootloader.c ****                             if(btldrData <= Bootloader_LAST_FLASH_ARRAYID)
 907:.\Generated_Source\PSoC4/Bootloader.c ****                             {
 908:.\Generated_Source\PSoC4/Bootloader.c ****                         #endif  /* (!CY_PSOC4) */
 909:.\Generated_Source\PSoC4/Bootloader.c **** 
 910:.\Generated_Source\PSoC4/Bootloader.c ****                         #if(0u == Bootloader_DUAL_APP_BOOTLOADER)
 911:.\Generated_Source\PSoC4/Bootloader.c **** 
 912:.\Generated_Source\PSoC4/Bootloader.c ****                             if(0u == clearedMetaData)
 913:.\Generated_Source\PSoC4/Bootloader.c ****                             {
 914:.\Generated_Source\PSoC4/Bootloader.c ****                                 /* Metadata section must be filled with zeroes */
 915:.\Generated_Source\PSoC4/Bootloader.c **** 
 916:.\Generated_Source\PSoC4/Bootloader.c ****                                 uint8 erase[Bootloader_FROW_SIZE];
 917:.\Generated_Source\PSoC4/Bootloader.c **** 
 918:.\Generated_Source\PSoC4/Bootloader.c ****                                 #if(CY_PSOC3)
 919:.\Generated_Source\PSoC4/Bootloader.c ****                                     (void) memset(erase, (char8) 0, (int16) Bootloader_FROW_SIZE);
 920:.\Generated_Source\PSoC4/Bootloader.c ****                                 #else
 921:.\Generated_Source\PSoC4/Bootloader.c ****                                     (void) memset(erase, 0, Bootloader_FROW_SIZE);
 922:.\Generated_Source\PSoC4/Bootloader.c ****                                 #endif  /* (CY_PSOC3) */
 923:.\Generated_Source\PSoC4/Bootloader.c **** 
 924:.\Generated_Source\PSoC4/Bootloader.c ****                                 #if(CY_PSOC4)
 925:.\Generated_Source\PSoC4/Bootloader.c ****                                     (void) CySysFlashWriteRow(Bootloader_MD_ROW, erase);
ARM GAS  C:\DOCUME~1\Chuck\LOCALS~1\Temp\ccjhbcm5.s 			page 18


 926:.\Generated_Source\PSoC4/Bootloader.c ****                                 #else
 927:.\Generated_Source\PSoC4/Bootloader.c ****                                     (void) CyWriteRowFull((uint8)  Bootloader_MD_FLASH_ARRAY_NUM,
 928:.\Generated_Source\PSoC4/Bootloader.c ****                                                           (uint16) Bootloader_MD_ROW,
 929:.\Generated_Source\PSoC4/Bootloader.c ****                                                                     erase,
 930:.\Generated_Source\PSoC4/Bootloader.c ****                                                                     Bootloader_FROW_SIZE);
 931:.\Generated_Source\PSoC4/Bootloader.c ****                                 #endif  /* (CY_PSOC4) */
 932:.\Generated_Source\PSoC4/Bootloader.c **** 
 933:.\Generated_Source\PSoC4/Bootloader.c ****                                 /* Set up flag that metadata was cleared */
 934:.\Generated_Source\PSoC4/Bootloader.c ****                                 clearedMetaData = 1u;
 935:.\Generated_Source\PSoC4/Bootloader.c ****                             }
 936:.\Generated_Source\PSoC4/Bootloader.c **** 
 937:.\Generated_Source\PSoC4/Bootloader.c ****                         #else
 938:.\Generated_Source\PSoC4/Bootloader.c **** 
 939:.\Generated_Source\PSoC4/Bootloader.c ****                             if(Bootloader_activeApp < Bootloader_MD_BTLDB_ACTIVE_NONE)
 940:.\Generated_Source\PSoC4/Bootloader.c ****                             {
 941:.\Generated_Source\PSoC4/Bootloader.c ****                                 /* First active bootloadable application row */
 942:.\Generated_Source\PSoC4/Bootloader.c ****                                 uint16 firstRow = (uint16) 1u +
 943:.\Generated_Source\PSoC4/Bootloader.c ****                                     (uint16) Bootloader_GetMetadata(Bootloader_GET_METADATA_BTLDR_L
 944:.\Generated_Source\PSoC4/Bootloader.c ****                                                                           Bootloader_activeApp);
 945:.\Generated_Source\PSoC4/Bootloader.c **** 
 946:.\Generated_Source\PSoC4/Bootloader.c ****                                 #if(CY_PSOC4)
 947:.\Generated_Source\PSoC4/Bootloader.c ****                                     uint16 row = dataOffset;
 948:.\Generated_Source\PSoC4/Bootloader.c ****                                 #else
 949:.\Generated_Source\PSoC4/Bootloader.c ****                                     uint16 row = (uint16)(btldrData * (CYDEV_FLS_SECTOR_SIZE / CYDE
 950:.\Generated_Source\PSoC4/Bootloader.c ****                                                   dataOffset;
 951:.\Generated_Source\PSoC4/Bootloader.c ****                                 #endif  /* (CY_PSOC4) */
 952:.\Generated_Source\PSoC4/Bootloader.c **** 
 953:.\Generated_Source\PSoC4/Bootloader.c **** 
 954:.\Generated_Source\PSoC4/Bootloader.c ****                                 /******************************************************************
 955:.\Generated_Source\PSoC4/Bootloader.c ****                                 * Last row is equal to the first row plus the number of rows availa
 956:.\Generated_Source\PSoC4/Bootloader.c ****                                 * app. To compute this, we first subtract the number of appliaction
 957:.\Generated_Source\PSoC4/Bootloader.c ****                                 * the total flash rows: (CY_FLASH_NUMBER_ROWS - 2u).
 958:.\Generated_Source\PSoC4/Bootloader.c ****                                 *
 959:.\Generated_Source\PSoC4/Bootloader.c ****                                 * Then subtract off the first row:
 960:.\Generated_Source\PSoC4/Bootloader.c ****                                 * App Rows = (CY_FLASH_NUMBER_ROWS - 2u - firstRow)
 961:.\Generated_Source\PSoC4/Bootloader.c ****                                 * Then divide that number by the number of application that must fi
 962:.\Generated_Source\PSoC4/Bootloader.c ****                                 * space, if we are app1 then that number is 2, if app2 then 1.  Our
 963:.\Generated_Source\PSoC4/Bootloader.c ****                                 * then: (2u - Bootloader_activeApp).
 964:.\Generated_Source\PSoC4/Bootloader.c ****                                 *
 965:.\Generated_Source\PSoC4/Bootloader.c ****                                 * Adding this number to firstRow gives the address right beyond our
 966:.\Generated_Source\PSoC4/Bootloader.c ****                                 * so we subtract 1.
 967:.\Generated_Source\PSoC4/Bootloader.c ****                                 *******************************************************************
 968:.\Generated_Source\PSoC4/Bootloader.c ****                                 uint16 lastRow = (firstRow - 1u) +
 969:.\Generated_Source\PSoC4/Bootloader.c ****                                                   ((uint16)((CYDEV_FLASH_SIZE / CYDEV_FLS_ROW_SIZE)
 970:.\Generated_Source\PSoC4/Bootloader.c ****                                                   ((uint16)2u - (uint16)Bootloader_activeApp));
 971:.\Generated_Source\PSoC4/Bootloader.c **** 
 972:.\Generated_Source\PSoC4/Bootloader.c **** 
 973:.\Generated_Source\PSoC4/Bootloader.c ****                                 /******************************************************************
 974:.\Generated_Source\PSoC4/Bootloader.c ****                                 * Check to see if the row to program is within the range of the act
 975:.\Generated_Source\PSoC4/Bootloader.c ****                                 * application, or if it maches the active application's metadata ro
 976:.\Generated_Source\PSoC4/Bootloader.c ****                                 * refuse to program as it would corrupt the active app.
 977:.\Generated_Source\PSoC4/Bootloader.c ****                                 *******************************************************************
 978:.\Generated_Source\PSoC4/Bootloader.c ****                                 if(((row >= firstRow) && (row <= lastRow)) ||
 979:.\Generated_Source\PSoC4/Bootloader.c ****                                    ((btldrData == Bootloader_MD_FLASH_ARRAY_NUM) &&
 980:.\Generated_Source\PSoC4/Bootloader.c ****                                    (dataOffset == Bootloader_MD_ROW_NUM(Bootloader_activeApp))))
 981:.\Generated_Source\PSoC4/Bootloader.c ****                                 {
 982:.\Generated_Source\PSoC4/Bootloader.c ****                                     ackCode = Bootloader_ERR_ACTIVE;
ARM GAS  C:\DOCUME~1\Chuck\LOCALS~1\Temp\ccjhbcm5.s 			page 19


 983:.\Generated_Source\PSoC4/Bootloader.c ****                                     dataOffset = 0u;
 984:.\Generated_Source\PSoC4/Bootloader.c ****                                     break;
 985:.\Generated_Source\PSoC4/Bootloader.c ****                                 }
 986:.\Generated_Source\PSoC4/Bootloader.c ****                             }
 987:.\Generated_Source\PSoC4/Bootloader.c **** 
 988:.\Generated_Source\PSoC4/Bootloader.c ****                         #endif  /* (0u == Bootloader_DUAL_APP_BOOTLOADER) */
 989:.\Generated_Source\PSoC4/Bootloader.c **** 
 990:.\Generated_Source\PSoC4/Bootloader.c ****                         #if(!CY_PSOC4)
 991:.\Generated_Source\PSoC4/Bootloader.c ****                             }
 992:.\Generated_Source\PSoC4/Bootloader.c ****                         #endif  /* (!CY_PSOC4) */
 993:.\Generated_Source\PSoC4/Bootloader.c **** 
 994:.\Generated_Source\PSoC4/Bootloader.c ****                         #if(CY_PSOC4)
 995:.\Generated_Source\PSoC4/Bootloader.c **** 
 996:.\Generated_Source\PSoC4/Bootloader.c ****                             ackCode = (CYRET_SUCCESS != CySysFlashWriteRow((uint32) dataOffset, dat
 997:.\Generated_Source\PSoC4/Bootloader.c ****                                 ? Bootloader_ERR_ROW \
 998:.\Generated_Source\PSoC4/Bootloader.c ****                                 : CYRET_SUCCESS;
 999:.\Generated_Source\PSoC4/Bootloader.c **** 
1000:.\Generated_Source\PSoC4/Bootloader.c ****                         #else
1001:.\Generated_Source\PSoC4/Bootloader.c **** 
1002:.\Generated_Source\PSoC4/Bootloader.c ****                             ackCode = (CYRET_SUCCESS != CyWriteRowFull(btldrData, dataOffset, dataB
1003:.\Generated_Source\PSoC4/Bootloader.c ****                                 ? Bootloader_ERR_ROW \
1004:.\Generated_Source\PSoC4/Bootloader.c ****                                 : CYRET_SUCCESS;
1005:.\Generated_Source\PSoC4/Bootloader.c **** 
1006:.\Generated_Source\PSoC4/Bootloader.c ****                         #endif  /* (CY_PSOC4) */
1007:.\Generated_Source\PSoC4/Bootloader.c **** 
1008:.\Generated_Source\PSoC4/Bootloader.c ****                     }
1009:.\Generated_Source\PSoC4/Bootloader.c ****                     else
1010:.\Generated_Source\PSoC4/Bootloader.c ****                     {
1011:.\Generated_Source\PSoC4/Bootloader.c ****                         ackCode = Bootloader_ERR_LENGTH;
1012:.\Generated_Source\PSoC4/Bootloader.c ****                     }
1013:.\Generated_Source\PSoC4/Bootloader.c **** 
1014:.\Generated_Source\PSoC4/Bootloader.c ****                     dataOffset = 0u;
1015:.\Generated_Source\PSoC4/Bootloader.c ****                 }
1016:.\Generated_Source\PSoC4/Bootloader.c ****                 break;
1017:.\Generated_Source\PSoC4/Bootloader.c **** 
1018:.\Generated_Source\PSoC4/Bootloader.c **** 
1019:.\Generated_Source\PSoC4/Bootloader.c ****             /***************************************************************************
1020:.\Generated_Source\PSoC4/Bootloader.c ****             *   Sync bootloader
1021:.\Generated_Source\PSoC4/Bootloader.c ****             ***************************************************************************/
1022:.\Generated_Source\PSoC4/Bootloader.c ****             #if(0u != Bootloader_CMD_SYNC_BOOTLOADER_AVAIL)
1023:.\Generated_Source\PSoC4/Bootloader.c **** 
1024:.\Generated_Source\PSoC4/Bootloader.c ****             case Bootloader_COMMAND_SYNC:
1025:.\Generated_Source\PSoC4/Bootloader.c **** 
1026:.\Generated_Source\PSoC4/Bootloader.c ****                 if(Bootloader_COMMUNICATION_STATE_ACTIVE == communicationState)
1027:.\Generated_Source\PSoC4/Bootloader.c ****                 {
1028:.\Generated_Source\PSoC4/Bootloader.c ****                     /* If something failed the host would send this command to reset the bootloader
1029:.\Generated_Source\PSoC4/Bootloader.c ****                     dataOffset = 0u;
1030:.\Generated_Source\PSoC4/Bootloader.c **** 
1031:.\Generated_Source\PSoC4/Bootloader.c ****                     /* Don't ack the packet, just get ready to accept the next one */
1032:.\Generated_Source\PSoC4/Bootloader.c ****                     continue;
1033:.\Generated_Source\PSoC4/Bootloader.c ****                 }
1034:.\Generated_Source\PSoC4/Bootloader.c ****                 break;
1035:.\Generated_Source\PSoC4/Bootloader.c **** 
1036:.\Generated_Source\PSoC4/Bootloader.c ****             #endif  /* (0u != Bootloader_CMD_SYNC_BOOTLOADER_AVAIL) */
1037:.\Generated_Source\PSoC4/Bootloader.c **** 
1038:.\Generated_Source\PSoC4/Bootloader.c **** 
1039:.\Generated_Source\PSoC4/Bootloader.c ****             /***************************************************************************
ARM GAS  C:\DOCUME~1\Chuck\LOCALS~1\Temp\ccjhbcm5.s 			page 20


1040:.\Generated_Source\PSoC4/Bootloader.c ****             *   Set active application
1041:.\Generated_Source\PSoC4/Bootloader.c ****             ***************************************************************************/
1042:.\Generated_Source\PSoC4/Bootloader.c ****             #if(0u != Bootloader_DUAL_APP_BOOTLOADER)
1043:.\Generated_Source\PSoC4/Bootloader.c **** 
1044:.\Generated_Source\PSoC4/Bootloader.c ****                 case Bootloader_COMMAND_APP_ACTIVE:
1045:.\Generated_Source\PSoC4/Bootloader.c **** 
1046:.\Generated_Source\PSoC4/Bootloader.c ****                     if((Bootloader_COMMUNICATION_STATE_ACTIVE == communicationState) && (pktSize ==
1047:.\Generated_Source\PSoC4/Bootloader.c ****                     {
1048:.\Generated_Source\PSoC4/Bootloader.c ****                         if(CYRET_SUCCESS == Bootloader_ValidateBootloadable(btldrData))
1049:.\Generated_Source\PSoC4/Bootloader.c ****                         {
1050:.\Generated_Source\PSoC4/Bootloader.c ****                             uint8 CYDATA idx;
1051:.\Generated_Source\PSoC4/Bootloader.c **** 
1052:.\Generated_Source\PSoC4/Bootloader.c ****                             for(idx = 0u; idx < Bootloader_MAX_NUM_OF_BTLDB; idx++)
1053:.\Generated_Source\PSoC4/Bootloader.c ****                             {
1054:.\Generated_Source\PSoC4/Bootloader.c ****                                 Bootloader_SetFlashByte((uint32) Bootloader_MD_BTLDB_ACTIVE_OFFSET(
1055:.\Generated_Source\PSoC4/Bootloader.c ****                                                               (uint8 )(idx == btldrData));
1056:.\Generated_Source\PSoC4/Bootloader.c ****                             }
1057:.\Generated_Source\PSoC4/Bootloader.c ****                             Bootloader_activeApp = btldrData;
1058:.\Generated_Source\PSoC4/Bootloader.c ****                             ackCode = CYRET_SUCCESS;
1059:.\Generated_Source\PSoC4/Bootloader.c ****                         }
1060:.\Generated_Source\PSoC4/Bootloader.c ****                         else
1061:.\Generated_Source\PSoC4/Bootloader.c ****                         {
1062:.\Generated_Source\PSoC4/Bootloader.c ****                             ackCode = Bootloader_ERR_APP;
1063:.\Generated_Source\PSoC4/Bootloader.c ****                         }
1064:.\Generated_Source\PSoC4/Bootloader.c ****                     }
1065:.\Generated_Source\PSoC4/Bootloader.c ****                     break;
1066:.\Generated_Source\PSoC4/Bootloader.c **** 
1067:.\Generated_Source\PSoC4/Bootloader.c ****             #endif  /* (0u != Bootloader_DUAL_APP_BOOTLOADER) */
1068:.\Generated_Source\PSoC4/Bootloader.c **** 
1069:.\Generated_Source\PSoC4/Bootloader.c **** 
1070:.\Generated_Source\PSoC4/Bootloader.c ****             /***************************************************************************
1071:.\Generated_Source\PSoC4/Bootloader.c ****             *   Send data
1072:.\Generated_Source\PSoC4/Bootloader.c ****             ***************************************************************************/
1073:.\Generated_Source\PSoC4/Bootloader.c ****             #if (0u != Bootloader_CMD_SEND_DATA_AVAIL)
1074:.\Generated_Source\PSoC4/Bootloader.c **** 
1075:.\Generated_Source\PSoC4/Bootloader.c ****                 case Bootloader_COMMAND_DATA:
1076:.\Generated_Source\PSoC4/Bootloader.c **** 
1077:.\Generated_Source\PSoC4/Bootloader.c ****                     if(Bootloader_COMMUNICATION_STATE_ACTIVE == communicationState)
1078:.\Generated_Source\PSoC4/Bootloader.c ****                     {
1079:.\Generated_Source\PSoC4/Bootloader.c ****                         /*  Make sure that dataOffset is valid before copying the data */
1080:.\Generated_Source\PSoC4/Bootloader.c ****                         if((dataOffset + pktSize) <= Bootloader_SIZEOF_COMMAND_BUFFER)
1081:.\Generated_Source\PSoC4/Bootloader.c ****                         {
1082:.\Generated_Source\PSoC4/Bootloader.c ****                             ackCode = CYRET_SUCCESS;
1083:.\Generated_Source\PSoC4/Bootloader.c **** 
1084:.\Generated_Source\PSoC4/Bootloader.c ****                             #if(CY_PSOC3)
1085:.\Generated_Source\PSoC4/Bootloader.c ****                                 (void) memcpy(&dataBuffer[dataOffset],
1086:.\Generated_Source\PSoC4/Bootloader.c ****                                               &packetBuffer[Bootloader_DATA_ADDR],
1087:.\Generated_Source\PSoC4/Bootloader.c ****                                               ( int16 )pktSize);
1088:.\Generated_Source\PSoC4/Bootloader.c ****                             #else
1089:.\Generated_Source\PSoC4/Bootloader.c ****                                 (void) memcpy(&dataBuffer[dataOffset],
1090:.\Generated_Source\PSoC4/Bootloader.c ****                                               &packetBuffer[Bootloader_DATA_ADDR],
1091:.\Generated_Source\PSoC4/Bootloader.c ****                                               pktSize);
1092:.\Generated_Source\PSoC4/Bootloader.c ****                             #endif  /* (CY_PSOC3) */
1093:.\Generated_Source\PSoC4/Bootloader.c **** 
1094:.\Generated_Source\PSoC4/Bootloader.c ****                             dataOffset += pktSize;
1095:.\Generated_Source\PSoC4/Bootloader.c ****                         }
1096:.\Generated_Source\PSoC4/Bootloader.c ****                         else
ARM GAS  C:\DOCUME~1\Chuck\LOCALS~1\Temp\ccjhbcm5.s 			page 21


1097:.\Generated_Source\PSoC4/Bootloader.c ****                         {
1098:.\Generated_Source\PSoC4/Bootloader.c ****                             ackCode = Bootloader_ERR_LENGTH;
1099:.\Generated_Source\PSoC4/Bootloader.c ****                         }
1100:.\Generated_Source\PSoC4/Bootloader.c ****                     }
1101:.\Generated_Source\PSoC4/Bootloader.c **** 
1102:.\Generated_Source\PSoC4/Bootloader.c ****                     break;
1103:.\Generated_Source\PSoC4/Bootloader.c **** 
1104:.\Generated_Source\PSoC4/Bootloader.c ****             #endif  /* (0u != Bootloader_CMD_SEND_DATA_AVAIL) */
1105:.\Generated_Source\PSoC4/Bootloader.c **** 
1106:.\Generated_Source\PSoC4/Bootloader.c **** 
1107:.\Generated_Source\PSoC4/Bootloader.c ****             /***************************************************************************
1108:.\Generated_Source\PSoC4/Bootloader.c ****             *   Enter bootloader
1109:.\Generated_Source\PSoC4/Bootloader.c ****             ***************************************************************************/
1110:.\Generated_Source\PSoC4/Bootloader.c ****             case Bootloader_COMMAND_ENTER:
1111:.\Generated_Source\PSoC4/Bootloader.c **** 
1112:.\Generated_Source\PSoC4/Bootloader.c ****                 if(pktSize == 0u)
1113:.\Generated_Source\PSoC4/Bootloader.c ****                 {
1114:.\Generated_Source\PSoC4/Bootloader.c ****                     #if(CY_PSOC3)
1115:.\Generated_Source\PSoC4/Bootloader.c **** 
1116:.\Generated_Source\PSoC4/Bootloader.c ****                         Bootloader_ENTER CYDATA BtldrVersion =
1117:.\Generated_Source\PSoC4/Bootloader.c ****                             {CYSWAP_ENDIAN32(CYDEV_CHIP_JTAG_ID), CYDEV_CHIP_REV_EXPECT, Bootloader
1118:.\Generated_Source\PSoC4/Bootloader.c **** 
1119:.\Generated_Source\PSoC4/Bootloader.c ****                     #else
1120:.\Generated_Source\PSoC4/Bootloader.c **** 
1121:.\Generated_Source\PSoC4/Bootloader.c ****                         Bootloader_ENTER CYDATA BtldrVersion =
1122:.\Generated_Source\PSoC4/Bootloader.c ****                             {CYDEV_CHIP_JTAG_ID, CYDEV_CHIP_REV_EXPECT, Bootloader_VERSION};
1123:.\Generated_Source\PSoC4/Bootloader.c **** 
1124:.\Generated_Source\PSoC4/Bootloader.c ****                     #endif  /* (CY_PSOC3) */
1125:.\Generated_Source\PSoC4/Bootloader.c **** 
1126:.\Generated_Source\PSoC4/Bootloader.c ****                     communicationState = Bootloader_COMMUNICATION_STATE_ACTIVE;
1127:.\Generated_Source\PSoC4/Bootloader.c **** 
1128:.\Generated_Source\PSoC4/Bootloader.c ****                     rspSize = sizeof(Bootloader_ENTER);
1129:.\Generated_Source\PSoC4/Bootloader.c **** 
1130:.\Generated_Source\PSoC4/Bootloader.c ****                     #if(CY_PSOC3)
1131:.\Generated_Source\PSoC4/Bootloader.c ****                         (void) memcpy(&packetBuffer[Bootloader_DATA_ADDR],
1132:.\Generated_Source\PSoC4/Bootloader.c ****                                       &BtldrVersion,
1133:.\Generated_Source\PSoC4/Bootloader.c ****                                       ( int16 )rspSize);
1134:.\Generated_Source\PSoC4/Bootloader.c ****                     #else
1135:.\Generated_Source\PSoC4/Bootloader.c ****                         (void) memcpy(&packetBuffer[Bootloader_DATA_ADDR],
1136:.\Generated_Source\PSoC4/Bootloader.c ****                                       &BtldrVersion,
1137:.\Generated_Source\PSoC4/Bootloader.c ****                                       rspSize);
1138:.\Generated_Source\PSoC4/Bootloader.c ****                     #endif  /* (CY_PSOC3) */
1139:.\Generated_Source\PSoC4/Bootloader.c **** 
1140:.\Generated_Source\PSoC4/Bootloader.c ****                     ackCode = CYRET_SUCCESS;
1141:.\Generated_Source\PSoC4/Bootloader.c ****                 }
1142:.\Generated_Source\PSoC4/Bootloader.c ****                 break;
1143:.\Generated_Source\PSoC4/Bootloader.c **** 
1144:.\Generated_Source\PSoC4/Bootloader.c **** 
1145:.\Generated_Source\PSoC4/Bootloader.c ****             /***************************************************************************
1146:.\Generated_Source\PSoC4/Bootloader.c ****             *   Verify row
1147:.\Generated_Source\PSoC4/Bootloader.c ****             ***************************************************************************/
1148:.\Generated_Source\PSoC4/Bootloader.c ****             case Bootloader_COMMAND_VERIFY:
1149:.\Generated_Source\PSoC4/Bootloader.c **** 
1150:.\Generated_Source\PSoC4/Bootloader.c ****                 if((Bootloader_COMMUNICATION_STATE_ACTIVE == communicationState) && (pktSize == 3u)
1151:.\Generated_Source\PSoC4/Bootloader.c ****                 {
1152:.\Generated_Source\PSoC4/Bootloader.c ****                     /* Get FLASH/EEPROM row number */
1153:.\Generated_Source\PSoC4/Bootloader.c ****                     uint16 CYDATA rowNum = ((uint16)((uint16)packetBuffer[Bootloader_DATA_ADDR + 2u
ARM GAS  C:\DOCUME~1\Chuck\LOCALS~1\Temp\ccjhbcm5.s 			page 22


1154:.\Generated_Source\PSoC4/Bootloader.c ****                                                     packetBuffer[Bootloader_DATA_ADDR + 1u];
1155:.\Generated_Source\PSoC4/Bootloader.c **** 
1156:.\Generated_Source\PSoC4/Bootloader.c ****                     #if(!CY_PSOC4)
1157:.\Generated_Source\PSoC4/Bootloader.c **** 
1158:.\Generated_Source\PSoC4/Bootloader.c ****                         uint32 CYDATA rowAddr;
1159:.\Generated_Source\PSoC4/Bootloader.c ****                         uint8 CYDATA checksum;
1160:.\Generated_Source\PSoC4/Bootloader.c **** 
1161:.\Generated_Source\PSoC4/Bootloader.c ****                         if((btldrData >= Bootloader_FIRST_EE_ARRAYID) &&
1162:.\Generated_Source\PSoC4/Bootloader.c ****                            (btldrData <= Bootloader_LAST_EE_ARRAYID))
1163:.\Generated_Source\PSoC4/Bootloader.c ****                         {
1164:.\Generated_Source\PSoC4/Bootloader.c ****                             /* EEPROM */
1165:.\Generated_Source\PSoC4/Bootloader.c ****                             /* Both PSoC 3 and PSoC 5LP architectures have one EEPROM array. */
1166:.\Generated_Source\PSoC4/Bootloader.c ****                             rowAddr = (uint32)rowNum * CYDEV_EEPROM_ROW_SIZE;
1167:.\Generated_Source\PSoC4/Bootloader.c **** 
1168:.\Generated_Source\PSoC4/Bootloader.c ****                             checksum = Bootloader_Calc8BitEepromSum(rowAddr, CYDEV_EEPROM_ROW_SIZE)
1169:.\Generated_Source\PSoC4/Bootloader.c ****                         }
1170:.\Generated_Source\PSoC4/Bootloader.c ****                         else
1171:.\Generated_Source\PSoC4/Bootloader.c ****                         {
1172:.\Generated_Source\PSoC4/Bootloader.c ****                             /* FLASH */
1173:.\Generated_Source\PSoC4/Bootloader.c ****                             rowAddr = ((uint32)btldrData * CYDEV_FLS_SECTOR_SIZE)
1174:.\Generated_Source\PSoC4/Bootloader.c ****                                        + ((uint32)rowNum * CYDEV_FLS_ROW_SIZE);
1175:.\Generated_Source\PSoC4/Bootloader.c **** 
1176:.\Generated_Source\PSoC4/Bootloader.c ****                             checksum = Bootloader_Calc8BitFlashSum(rowAddr, CYDEV_FLS_ROW_SIZE);
1177:.\Generated_Source\PSoC4/Bootloader.c ****                         }
1178:.\Generated_Source\PSoC4/Bootloader.c **** 
1179:.\Generated_Source\PSoC4/Bootloader.c ****                     #else
1180:.\Generated_Source\PSoC4/Bootloader.c **** 
1181:.\Generated_Source\PSoC4/Bootloader.c ****                         uint32 CYDATA rowAddr = ((uint32)btldrData * CYDEV_FLS_SECTOR_SIZE)
1182:.\Generated_Source\PSoC4/Bootloader.c ****                                             + ((uint32)rowNum * CYDEV_FLS_ROW_SIZE);
1183:.\Generated_Source\PSoC4/Bootloader.c **** 
1184:.\Generated_Source\PSoC4/Bootloader.c ****                         uint8 CYDATA checksum = Bootloader_Calc8BitFlashSum(rowAddr, CYDEV_FLS_ROW_
1185:.\Generated_Source\PSoC4/Bootloader.c **** 
1186:.\Generated_Source\PSoC4/Bootloader.c ****                     #endif  /* (!CY_PSOC4) */
1187:.\Generated_Source\PSoC4/Bootloader.c **** 
1188:.\Generated_Source\PSoC4/Bootloader.c **** 
1189:.\Generated_Source\PSoC4/Bootloader.c ****                     /* Calculate checksum on data from ECC */
1190:.\Generated_Source\PSoC4/Bootloader.c ****                     #if(!CY_PSOC4) && (CYDEV_ECC_ENABLE == 0u)
1191:.\Generated_Source\PSoC4/Bootloader.c **** 
1192:.\Generated_Source\PSoC4/Bootloader.c ****                         if(btldrData <= Bootloader_LAST_FLASH_ARRAYID)
1193:.\Generated_Source\PSoC4/Bootloader.c ****                         {
1194:.\Generated_Source\PSoC4/Bootloader.c ****                             uint16 CYDATA tmpIndex;
1195:.\Generated_Source\PSoC4/Bootloader.c **** 
1196:.\Generated_Source\PSoC4/Bootloader.c ****                             rowAddr = CYDEV_ECC_BASE + ((uint32)btldrData * (CYDEV_FLS_SECTOR_SIZE 
1197:.\Generated_Source\PSoC4/Bootloader.c ****                                         + ((uint32)rowNum * CYDEV_ECC_ROW_SIZE);
1198:.\Generated_Source\PSoC4/Bootloader.c **** 
1199:.\Generated_Source\PSoC4/Bootloader.c ****                             for(tmpIndex = 0u; tmpIndex < CYDEV_ECC_ROW_SIZE; tmpIndex++)
1200:.\Generated_Source\PSoC4/Bootloader.c ****                             {
1201:.\Generated_Source\PSoC4/Bootloader.c ****                                 checksum += CY_GET_XTND_REG8((uint8 CYFAR *)(rowAddr + tmpIndex));
1202:.\Generated_Source\PSoC4/Bootloader.c ****                             }
1203:.\Generated_Source\PSoC4/Bootloader.c ****                         }
1204:.\Generated_Source\PSoC4/Bootloader.c **** 
1205:.\Generated_Source\PSoC4/Bootloader.c ****                     #endif  /* (!CY_PSOC4) && (CYDEV_ECC_ENABLE == 0u) */
1206:.\Generated_Source\PSoC4/Bootloader.c **** 
1207:.\Generated_Source\PSoC4/Bootloader.c **** 
1208:.\Generated_Source\PSoC4/Bootloader.c ****                     /******************************************************************************
1209:.\Generated_Source\PSoC4/Bootloader.c ****                     * App Verified & App Active are information that is updated in flash at runtime
1210:.\Generated_Source\PSoC4/Bootloader.c ****                     * remove these items from the checksum to allow the host to verify everything i
ARM GAS  C:\DOCUME~1\Chuck\LOCALS~1\Temp\ccjhbcm5.s 			page 23


1211:.\Generated_Source\PSoC4/Bootloader.c ****                     * correct.
1212:.\Generated_Source\PSoC4/Bootloader.c ****                      ******************************************************************************
1213:.\Generated_Source\PSoC4/Bootloader.c ****                     if((Bootloader_MD_FLASH_ARRAY_NUM == btldrData) &&
1214:.\Generated_Source\PSoC4/Bootloader.c ****                        (Bootloader_CONTAIN_METADATA(rowNum)))
1215:.\Generated_Source\PSoC4/Bootloader.c ****                     {
1216:.\Generated_Source\PSoC4/Bootloader.c ****                         checksum -= Bootloader_MD_BTLDB_ACTIVE_VALUE  (Bootloader_GET_APP_ID(rowNum
1217:.\Generated_Source\PSoC4/Bootloader.c ****                         checksum -= Bootloader_MD_BTLDB_VERIFIED_VALUE(Bootloader_GET_APP_ID(rowNum
1218:.\Generated_Source\PSoC4/Bootloader.c ****                     }
1219:.\Generated_Source\PSoC4/Bootloader.c **** 
1220:.\Generated_Source\PSoC4/Bootloader.c ****                     packetBuffer[Bootloader_DATA_ADDR] = (uint8)1u + (uint8)(~checksum);
1221:.\Generated_Source\PSoC4/Bootloader.c ****                     ackCode = CYRET_SUCCESS;
1222:.\Generated_Source\PSoC4/Bootloader.c ****                     rspSize = 1u;
1223:.\Generated_Source\PSoC4/Bootloader.c ****                 }
1224:.\Generated_Source\PSoC4/Bootloader.c ****                 break;
1225:.\Generated_Source\PSoC4/Bootloader.c **** 
1226:.\Generated_Source\PSoC4/Bootloader.c **** 
1227:.\Generated_Source\PSoC4/Bootloader.c ****             /***************************************************************************
1228:.\Generated_Source\PSoC4/Bootloader.c ****             *   Exit bootloader
1229:.\Generated_Source\PSoC4/Bootloader.c ****             ***************************************************************************/
1230:.\Generated_Source\PSoC4/Bootloader.c ****             case Bootloader_COMMAND_EXIT:
1231:.\Generated_Source\PSoC4/Bootloader.c **** 
1232:.\Generated_Source\PSoC4/Bootloader.c ****                 if(CYRET_SUCCESS == Bootloader_ValidateBootloadable(Bootloader_activeApp))
1233:.\Generated_Source\PSoC4/Bootloader.c ****                 {
1234:.\Generated_Source\PSoC4/Bootloader.c ****                     Bootloader_SET_RUN_TYPE(Bootloader_START_APP);
1235:.\Generated_Source\PSoC4/Bootloader.c ****                 }
1236:.\Generated_Source\PSoC4/Bootloader.c **** 
1237:.\Generated_Source\PSoC4/Bootloader.c ****                 CySoftwareReset();
1238:.\Generated_Source\PSoC4/Bootloader.c **** 
1239:.\Generated_Source\PSoC4/Bootloader.c ****                 /* Will never get here */
1240:.\Generated_Source\PSoC4/Bootloader.c ****                 break;
1241:.\Generated_Source\PSoC4/Bootloader.c **** 
1242:.\Generated_Source\PSoC4/Bootloader.c **** 
1243:.\Generated_Source\PSoC4/Bootloader.c ****             /***************************************************************************
1244:.\Generated_Source\PSoC4/Bootloader.c ****             *   Unsupported command
1245:.\Generated_Source\PSoC4/Bootloader.c ****             ***************************************************************************/
1246:.\Generated_Source\PSoC4/Bootloader.c ****             default:
1247:.\Generated_Source\PSoC4/Bootloader.c ****                 ackCode = Bootloader_ERR_CMD;
1248:.\Generated_Source\PSoC4/Bootloader.c ****                 break;
1249:.\Generated_Source\PSoC4/Bootloader.c ****             }
1250:.\Generated_Source\PSoC4/Bootloader.c ****         }
1251:.\Generated_Source\PSoC4/Bootloader.c **** 
1252:.\Generated_Source\PSoC4/Bootloader.c ****         /* ?CK the packet and function. */
1253:.\Generated_Source\PSoC4/Bootloader.c ****         (void) Bootloader_WritePacket(ackCode, packetBuffer, rspSize);
1254:.\Generated_Source\PSoC4/Bootloader.c **** 
1255:.\Generated_Source\PSoC4/Bootloader.c ****     } while ((0u == timeOut) || (Bootloader_COMMUNICATION_STATE_ACTIVE == communicationState));
1256:.\Generated_Source\PSoC4/Bootloader.c **** }
1257:.\Generated_Source\PSoC4/Bootloader.c **** 
1258:.\Generated_Source\PSoC4/Bootloader.c **** 
1259:.\Generated_Source\PSoC4/Bootloader.c **** /*******************************************************************************
1260:.\Generated_Source\PSoC4/Bootloader.c **** * Function Name: Bootloader_WritePacket
1261:.\Generated_Source\PSoC4/Bootloader.c **** ********************************************************************************
1262:.\Generated_Source\PSoC4/Bootloader.c **** *
1263:.\Generated_Source\PSoC4/Bootloader.c **** * Summary:
1264:.\Generated_Source\PSoC4/Bootloader.c **** *  Creates a bootloader responce packet and transmits it back to the bootloader
1265:.\Generated_Source\PSoC4/Bootloader.c **** *  host application over the already established communications protocol.
1266:.\Generated_Source\PSoC4/Bootloader.c **** *
1267:.\Generated_Source\PSoC4/Bootloader.c **** * Parameters:
ARM GAS  C:\DOCUME~1\Chuck\LOCALS~1\Temp\ccjhbcm5.s 			page 24


1268:.\Generated_Source\PSoC4/Bootloader.c **** *  status:
1269:.\Generated_Source\PSoC4/Bootloader.c **** *      The status code to pass back as the second byte of the packet
1270:.\Generated_Source\PSoC4/Bootloader.c **** *  buffer:
1271:.\Generated_Source\PSoC4/Bootloader.c **** *      The buffer containing the data portion of the packet
1272:.\Generated_Source\PSoC4/Bootloader.c **** *  size:
1273:.\Generated_Source\PSoC4/Bootloader.c **** *      The number of bytes contained within the buffer to pass back
1274:.\Generated_Source\PSoC4/Bootloader.c **** *
1275:.\Generated_Source\PSoC4/Bootloader.c **** * Return:
1276:.\Generated_Source\PSoC4/Bootloader.c **** *   CYRET_SUCCESS if successful.
1277:.\Generated_Source\PSoC4/Bootloader.c **** *   CYRET_UNKNOWN if there was an error tranmitting the packet.
1278:.\Generated_Source\PSoC4/Bootloader.c **** *
1279:.\Generated_Source\PSoC4/Bootloader.c **** *******************************************************************************/
1280:.\Generated_Source\PSoC4/Bootloader.c **** static cystatus Bootloader_WritePacket(uint8 status, uint8 buffer[], uint16 size) CYSMALL \
1281:.\Generated_Source\PSoC4/Bootloader.c ****                                             
1282:.\Generated_Source\PSoC4/Bootloader.c **** {
1283:.\Generated_Source\PSoC4/Bootloader.c ****     uint16 CYDATA checksum;
1284:.\Generated_Source\PSoC4/Bootloader.c **** 
1285:.\Generated_Source\PSoC4/Bootloader.c ****     /* Start of the packet. */
1286:.\Generated_Source\PSoC4/Bootloader.c ****     buffer[Bootloader_SOP_ADDR]      = Bootloader_SOP;
1287:.\Generated_Source\PSoC4/Bootloader.c ****     buffer[Bootloader_CMD_ADDR]      = status;
1288:.\Generated_Source\PSoC4/Bootloader.c ****     buffer[Bootloader_SIZE_ADDR]     = LO8(size);
1289:.\Generated_Source\PSoC4/Bootloader.c ****     buffer[Bootloader_SIZE_ADDR + 1u] = HI8(size);
1290:.\Generated_Source\PSoC4/Bootloader.c **** 
1291:.\Generated_Source\PSoC4/Bootloader.c ****     /* Compute the checksum. */
1292:.\Generated_Source\PSoC4/Bootloader.c ****     checksum = Bootloader_CalcPacketChecksum(buffer, size + Bootloader_DATA_ADDR);
1293:.\Generated_Source\PSoC4/Bootloader.c **** 
1294:.\Generated_Source\PSoC4/Bootloader.c ****     buffer[Bootloader_CHK_ADDR(size)]     = LO8(checksum);
1295:.\Generated_Source\PSoC4/Bootloader.c ****     buffer[Bootloader_CHK_ADDR(1u + size)] = HI8(checksum);
1296:.\Generated_Source\PSoC4/Bootloader.c ****     buffer[Bootloader_EOP_ADDR(size)]     = Bootloader_EOP;
1297:.\Generated_Source\PSoC4/Bootloader.c **** 
1298:.\Generated_Source\PSoC4/Bootloader.c ****     /* Start the packet transmit. */
1299:.\Generated_Source\PSoC4/Bootloader.c ****     return(CyBtldrCommWrite(buffer, size + Bootloader_MIN_PKT_SIZE, &size, 150u));
1300:.\Generated_Source\PSoC4/Bootloader.c **** }
1301:.\Generated_Source\PSoC4/Bootloader.c **** 
1302:.\Generated_Source\PSoC4/Bootloader.c **** 
1303:.\Generated_Source\PSoC4/Bootloader.c **** /*******************************************************************************
1304:.\Generated_Source\PSoC4/Bootloader.c **** * Function Name: Bootloader_SetFlashByte
1305:.\Generated_Source\PSoC4/Bootloader.c **** ********************************************************************************
1306:.\Generated_Source\PSoC4/Bootloader.c **** *
1307:.\Generated_Source\PSoC4/Bootloader.c **** * Summary:
1308:.\Generated_Source\PSoC4/Bootloader.c **** *  Writes byte a flash memory location
1309:.\Generated_Source\PSoC4/Bootloader.c **** *
1310:.\Generated_Source\PSoC4/Bootloader.c **** * Parameters:
1311:.\Generated_Source\PSoC4/Bootloader.c **** *  address:
1312:.\Generated_Source\PSoC4/Bootloader.c **** *      Address in Flash memory where data will be written
1313:.\Generated_Source\PSoC4/Bootloader.c **** *
1314:.\Generated_Source\PSoC4/Bootloader.c **** *  runType:
1315:.\Generated_Source\PSoC4/Bootloader.c **** *      Byte to be written
1316:.\Generated_Source\PSoC4/Bootloader.c **** *
1317:.\Generated_Source\PSoC4/Bootloader.c **** * Return:
1318:.\Generated_Source\PSoC4/Bootloader.c **** *  None
1319:.\Generated_Source\PSoC4/Bootloader.c **** *
1320:.\Generated_Source\PSoC4/Bootloader.c **** *******************************************************************************/
1321:.\Generated_Source\PSoC4/Bootloader.c **** void Bootloader_SetFlashByte(uint32 address, uint8 runType) 
1322:.\Generated_Source\PSoC4/Bootloader.c **** {
1323:.\Generated_Source\PSoC4/Bootloader.c ****     uint32 flsAddr = address - CYDEV_FLASH_BASE;
1324:.\Generated_Source\PSoC4/Bootloader.c ****     uint8  rowData[CYDEV_FLS_ROW_SIZE];
ARM GAS  C:\DOCUME~1\Chuck\LOCALS~1\Temp\ccjhbcm5.s 			page 25


1325:.\Generated_Source\PSoC4/Bootloader.c **** 
1326:.\Generated_Source\PSoC4/Bootloader.c ****     #if !(CY_PSOC4)
1327:.\Generated_Source\PSoC4/Bootloader.c ****         uint8 arrayId = ( uint8 )(flsAddr / CYDEV_FLS_SECTOR_SIZE);
1328:.\Generated_Source\PSoC4/Bootloader.c ****     #endif  /* !(CY_PSOC4) */
1329:.\Generated_Source\PSoC4/Bootloader.c **** 
1330:.\Generated_Source\PSoC4/Bootloader.c ****     uint16 rowNum = ( uint16 )((flsAddr % CYDEV_FLS_SECTOR_SIZE) / CYDEV_FLS_ROW_SIZE);
1331:.\Generated_Source\PSoC4/Bootloader.c ****     uint32 baseAddr = address - (address % CYDEV_FLS_ROW_SIZE);
1332:.\Generated_Source\PSoC4/Bootloader.c ****     uint16 idx;
1333:.\Generated_Source\PSoC4/Bootloader.c **** 
1334:.\Generated_Source\PSoC4/Bootloader.c ****     for(idx = 0u; idx < CYDEV_FLS_ROW_SIZE; idx++)
1335:.\Generated_Source\PSoC4/Bootloader.c ****     {
1336:.\Generated_Source\PSoC4/Bootloader.c ****         rowData[idx] = Bootloader_GET_CODE_BYTE(baseAddr + idx);
1337:.\Generated_Source\PSoC4/Bootloader.c ****     }
1338:.\Generated_Source\PSoC4/Bootloader.c **** 
1339:.\Generated_Source\PSoC4/Bootloader.c ****     rowData[address % CYDEV_FLS_ROW_SIZE] = runType;
1340:.\Generated_Source\PSoC4/Bootloader.c **** 
1341:.\Generated_Source\PSoC4/Bootloader.c ****     #if(CY_PSOC4)
1342:.\Generated_Source\PSoC4/Bootloader.c ****         (void) CySysFlashWriteRow((uint32) rowNum, rowData);
1343:.\Generated_Source\PSoC4/Bootloader.c ****     #else
1344:.\Generated_Source\PSoC4/Bootloader.c ****         (void) CyWriteRowData(arrayId, rowNum, rowData);
1345:.\Generated_Source\PSoC4/Bootloader.c ****     #endif  /* (CY_PSOC4) */
1346:.\Generated_Source\PSoC4/Bootloader.c **** }
1347:.\Generated_Source\PSoC4/Bootloader.c **** 
1348:.\Generated_Source\PSoC4/Bootloader.c **** 
1349:.\Generated_Source\PSoC4/Bootloader.c **** /*******************************************************************************
1350:.\Generated_Source\PSoC4/Bootloader.c **** * Function Name: Bootloader_GetMetadata
1351:.\Generated_Source\PSoC4/Bootloader.c **** ********************************************************************************
1352:.\Generated_Source\PSoC4/Bootloader.c **** *
1353:.\Generated_Source\PSoC4/Bootloader.c **** * Summary:
1354:.\Generated_Source\PSoC4/Bootloader.c **** *  Returns value of the multi-byte field.
1355:.\Generated_Source\PSoC4/Bootloader.c **** *
1356:.\Generated_Source\PSoC4/Bootloader.c **** * Parameters:
1357:.\Generated_Source\PSoC4/Bootloader.c **** *  fieldName:
1358:.\Generated_Source\PSoC4/Bootloader.c **** *   The field to get data from:
1359:.\Generated_Source\PSoC4/Bootloader.c **** *     Bootloader_GET_METADATA_BTLDB_ADDR
1360:.\Generated_Source\PSoC4/Bootloader.c **** *     Bootloader_GET_METADATA_BTLDR_LAST_ROW
1361:.\Generated_Source\PSoC4/Bootloader.c **** *     Bootloader_GET_METADATA_BTLDB_LENGTH
1362:.\Generated_Source\PSoC4/Bootloader.c **** *     Bootloader_GET_METADATA_BTLDR_APP_VERSION
1363:.\Generated_Source\PSoC4/Bootloader.c **** *     Bootloader_GET_METADATA_BTLDB_APP_VERSION
1364:.\Generated_Source\PSoC4/Bootloader.c **** *     Bootloader_GET_METADATA_BTLDB_APP_ID
1365:.\Generated_Source\PSoC4/Bootloader.c **** *     Bootloader_GET_METADATA_BTLDB_APP_CUST_ID
1366:.\Generated_Source\PSoC4/Bootloader.c **** *
1367:.\Generated_Source\PSoC4/Bootloader.c **** *  appId:
1368:.\Generated_Source\PSoC4/Bootloader.c **** *   Number of the bootlodable application.
1369:.\Generated_Source\PSoC4/Bootloader.c **** *
1370:.\Generated_Source\PSoC4/Bootloader.c **** * Return:
1371:.\Generated_Source\PSoC4/Bootloader.c **** *  None
1372:.\Generated_Source\PSoC4/Bootloader.c **** *
1373:.\Generated_Source\PSoC4/Bootloader.c **** *******************************************************************************/
1374:.\Generated_Source\PSoC4/Bootloader.c **** static uint32 Bootloader_GetMetadata(uint8 fieldName, uint8 appId)
  45              		.loc 1 1374 0
  46              		.cfi_startproc
  47              	.LVL1:
  48 0000 38B5     		push	{r3, r4, r5, lr}
  49              		.cfi_def_cfa_offset 16
  50              		.cfi_offset 3, -16
  51              		.cfi_offset 4, -12
ARM GAS  C:\DOCUME~1\Chuck\LOCALS~1\Temp\ccjhbcm5.s 			page 26


  52              		.cfi_offset 5, -8
  53              		.cfi_offset 14, -4
  54              		.loc 1 1374 0
  55 0002 041C     		mov	r4, r0
1375:.\Generated_Source\PSoC4/Bootloader.c **** {
1376:.\Generated_Source\PSoC4/Bootloader.c ****     uint32 fieldPtr;
1377:.\Generated_Source\PSoC4/Bootloader.c ****     uint8  fieldSize = 2u;
1378:.\Generated_Source\PSoC4/Bootloader.c ****     uint32 result;
1379:.\Generated_Source\PSoC4/Bootloader.c **** 
1380:.\Generated_Source\PSoC4/Bootloader.c ****     switch (fieldName)
  56              		.loc 1 1380 0
  57 0004 0138     		sub	r0, r0, #1
  58              	.LVL2:
  59 0006 0628     		cmp	r0, #6
  60 0008 0BD8     		bhi	.L3
  61 000a FFF7FEFF 		bl	__gnu_thumb1_case_uqi
  62              	.L5:
  63 000e 16       		.byte	(.L4-.L5)/2
  64 000f 11       		.byte	(.L16-.L5)/2
  65 0010 06       		.byte	(.L7-.L5)/2
  66 0011 0F       		.byte	(.L8-.L5)/2
  67 0012 04       		.byte	(.L9-.L5)/2
  68 0013 08       		.byte	(.L10-.L5)/2
  69 0014 18       		.byte	(.L17-.L5)/2
  70 0015 00       		.p2align 1
  71              	.L9:
1381:.\Generated_Source\PSoC4/Bootloader.c ****     {
1382:.\Generated_Source\PSoC4/Bootloader.c ****     case Bootloader_GET_METADATA_BTLDB_APP_CUST_ID:
1383:.\Generated_Source\PSoC4/Bootloader.c ****         fieldPtr  = Bootloader_MD_BTLDB_APP_CUST_ID_OFFSET(appId);
1384:.\Generated_Source\PSoC4/Bootloader.c ****         fieldSize = 4u;
1385:.\Generated_Source\PSoC4/Bootloader.c ****         break;
1386:.\Generated_Source\PSoC4/Bootloader.c **** 
1387:.\Generated_Source\PSoC4/Bootloader.c ****     case Bootloader_GET_METADATA_BTLDR_APP_VERSION:
1388:.\Generated_Source\PSoC4/Bootloader.c ****         fieldPtr  = Bootloader_MD_BTLDR_APP_VERSION_OFFSET(appId);
1389:.\Generated_Source\PSoC4/Bootloader.c ****         break;
1390:.\Generated_Source\PSoC4/Bootloader.c **** 
1391:.\Generated_Source\PSoC4/Bootloader.c ****     case Bootloader_GET_METADATA_BTLDB_ADDR:
1392:.\Generated_Source\PSoC4/Bootloader.c ****         fieldPtr  = Bootloader_MD_BTLDB_ADDR_OFFSET(appId);
1393:.\Generated_Source\PSoC4/Bootloader.c ****     #if(!CY_PSOC3)
1394:.\Generated_Source\PSoC4/Bootloader.c ****         fieldSize = 4u;
1395:.\Generated_Source\PSoC4/Bootloader.c ****     #endif  /* (!CY_PSOC3) */
1396:.\Generated_Source\PSoC4/Bootloader.c ****         break;
1397:.\Generated_Source\PSoC4/Bootloader.c **** 
1398:.\Generated_Source\PSoC4/Bootloader.c ****     case Bootloader_GET_METADATA_BTLDR_LAST_ROW:
1399:.\Generated_Source\PSoC4/Bootloader.c ****         fieldPtr  = Bootloader_MD_BTLDR_LAST_ROW_OFFSET(appId);
1400:.\Generated_Source\PSoC4/Bootloader.c ****         break;
1401:.\Generated_Source\PSoC4/Bootloader.c **** 
1402:.\Generated_Source\PSoC4/Bootloader.c ****     case Bootloader_GET_METADATA_BTLDB_LENGTH:
1403:.\Generated_Source\PSoC4/Bootloader.c ****         fieldPtr  = Bootloader_MD_BTLDB_LENGTH_OFFSET(appId);
1404:.\Generated_Source\PSoC4/Bootloader.c ****     #if(!CY_PSOC3)
1405:.\Generated_Source\PSoC4/Bootloader.c ****         fieldSize = 4u;
1406:.\Generated_Source\PSoC4/Bootloader.c ****     #endif  /* (!CY_PSOC3) */
1407:.\Generated_Source\PSoC4/Bootloader.c ****         break;
1408:.\Generated_Source\PSoC4/Bootloader.c **** 
1409:.\Generated_Source\PSoC4/Bootloader.c ****     case Bootloader_GET_METADATA_BTLDB_APP_VERSION:
1410:.\Generated_Source\PSoC4/Bootloader.c ****         fieldPtr  = Bootloader_MD_BTLDB_APP_VERSION_OFFSET(appId);
  72              		.loc 1 1410 0
ARM GAS  C:\DOCUME~1\Chuck\LOCALS~1\Temp\ccjhbcm5.s 			page 27


  73 0016 164A     		ldr	r2, .L27
  74 0018 0BE0     		b	.L6
  75              	.L7:
1403:.\Generated_Source\PSoC4/Bootloader.c ****     #if(!CY_PSOC3)
  76              		.loc 1 1403 0
  77 001a 164A     		ldr	r2, .L27+4
  78 001c 10E0     		b	.L11
  79              	.L10:
  80              	.LVL3:
1411:.\Generated_Source\PSoC4/Bootloader.c ****         break;
1412:.\Generated_Source\PSoC4/Bootloader.c **** 
1413:.\Generated_Source\PSoC4/Bootloader.c ****     case Bootloader_GET_METADATA_BTLDB_APP_ID:
1414:.\Generated_Source\PSoC4/Bootloader.c ****         fieldPtr  = Bootloader_MD_BTLDB_APP_ID_OFFSET(appId);
  81              		.loc 1 1414 0
  82 001e 164A     		ldr	r2, .L27+8
  83 0020 07E0     		b	.L6
  84              	.LVL4:
  85              	.L3:
1415:.\Generated_Source\PSoC4/Bootloader.c ****         break;
1416:.\Generated_Source\PSoC4/Bootloader.c **** 
1417:.\Generated_Source\PSoC4/Bootloader.c ****     default:
1418:.\Generated_Source\PSoC4/Bootloader.c ****         /* Should never be here */
1419:.\Generated_Source\PSoC4/Bootloader.c ****         CYASSERT(0u != 0u);
  86              		.loc 1 1419 0
  87 0022 0020     		mov	r0, #0
  88 0024 FFF7FEFF 		bl	CyHalt
  89              	.LVL5:
1420:.\Generated_Source\PSoC4/Bootloader.c ****         fieldPtr  = 0u;
  90              		.loc 1 1420 0
  91 0028 0022     		mov	r2, #0
  92 002a 02E0     		b	.L6
  93              	.LVL6:
  94              	.L8:
1388:.\Generated_Source\PSoC4/Bootloader.c ****         break;
  95              		.loc 1 1388 0
  96 002c 134A     		ldr	r2, .L27+12
  97 002e 00E0     		b	.L6
  98              	.L16:
1399:.\Generated_Source\PSoC4/Bootloader.c ****         break;
  99              		.loc 1 1399 0
 100 0030 134A     		ldr	r2, .L27+16
 101              	.L6:
 102              	.LVL7:
1421:.\Generated_Source\PSoC4/Bootloader.c ****         break;
1422:.\Generated_Source\PSoC4/Bootloader.c ****     }
1423:.\Generated_Source\PSoC4/Bootloader.c **** 
1424:.\Generated_Source\PSoC4/Bootloader.c **** 
1425:.\Generated_Source\PSoC4/Bootloader.c ****     /* Read all fields as big-endian */
1426:.\Generated_Source\PSoC4/Bootloader.c ****     if (2u == fieldSize)
1427:.\Generated_Source\PSoC4/Bootloader.c ****     {
1428:.\Generated_Source\PSoC4/Bootloader.c ****         result =  (uint32) CY_GET_XTND_REG8((volatile uint8 *)(fieldPtr + 1u));
 103              		.loc 1 1428 0
 104 0032 5378     		ldrb	r3, [r2, #1]
 105              	.LVL8:
1429:.\Generated_Source\PSoC4/Bootloader.c ****         result |= (uint32) CY_GET_XTND_REG8((volatile uint8 *) fieldPtr      ) <<  8u;
 106              		.loc 1 1429 0
 107 0034 1078     		ldrb	r0, [r2]
ARM GAS  C:\DOCUME~1\Chuck\LOCALS~1\Temp\ccjhbcm5.s 			page 28


 108 0036 0002     		lsl	r0, r0, #8
 109 0038 0BE0     		b	.L25
 110              	.LVL9:
 111              	.L4:
1392:.\Generated_Source\PSoC4/Bootloader.c ****     #if(!CY_PSOC3)
 112              		.loc 1 1392 0
 113 003a 124A     		ldr	r2, .L27+20
 114 003c 00E0     		b	.L11
 115              	.L17:
1383:.\Generated_Source\PSoC4/Bootloader.c ****         fieldSize = 4u;
 116              		.loc 1 1383 0
 117 003e 124A     		ldr	r2, .L27+24
 118              	.L11:
 119              	.LVL10:
1430:.\Generated_Source\PSoC4/Bootloader.c ****     }
1431:.\Generated_Source\PSoC4/Bootloader.c ****     else
1432:.\Generated_Source\PSoC4/Bootloader.c ****     {
1433:.\Generated_Source\PSoC4/Bootloader.c ****         result =  (uint32) CY_GET_XTND_REG8((volatile uint8 *)(fieldPtr + 3u));
 120              		.loc 1 1433 0
 121 0040 D578     		ldrb	r5, [r2, #3]
 122              	.LVL11:
1434:.\Generated_Source\PSoC4/Bootloader.c ****         result |= (uint32) CY_GET_XTND_REG8((volatile uint8 *)(fieldPtr + 2u)) <<  8u;
 123              		.loc 1 1434 0
 124 0042 9178     		ldrb	r1, [r2, #2]
 125              	.LVL12:
1435:.\Generated_Source\PSoC4/Bootloader.c ****         result |= (uint32) CY_GET_XTND_REG8((volatile uint8 *)(fieldPtr + 1u)) << 16u;
 126              		.loc 1 1435 0
 127 0044 5378     		ldrb	r3, [r2, #1]
 128              	.LVL13:
1436:.\Generated_Source\PSoC4/Bootloader.c ****         result |= (uint32) CY_GET_XTND_REG8((volatile uint8 *)(fieldPtr     )) << 24u;
 129              		.loc 1 1436 0
 130 0046 1078     		ldrb	r0, [r2]
1434:.\Generated_Source\PSoC4/Bootloader.c ****         result |= (uint32) CY_GET_XTND_REG8((volatile uint8 *)(fieldPtr + 2u)) <<  8u;
 131              		.loc 1 1434 0
 132 0048 0A02     		lsl	r2, r1, #8
 133              	.LVL14:
 134              		.loc 1 1436 0
 135 004a 0006     		lsl	r0, r0, #24
 136 004c 2843     		orr	r0, r5
 137 004e 1043     		orr	r0, r2
1435:.\Generated_Source\PSoC4/Bootloader.c ****         result |= (uint32) CY_GET_XTND_REG8((volatile uint8 *)(fieldPtr + 1u)) << 16u;
 138              		.loc 1 1435 0
 139 0050 1B04     		lsl	r3, r3, #16
 140              	.LVL15:
 141              	.L25:
 142              		.loc 1 1436 0
 143 0052 1843     		orr	r0, r3
 144              	.LVL16:
1437:.\Generated_Source\PSoC4/Bootloader.c ****     }
1438:.\Generated_Source\PSoC4/Bootloader.c **** 
1439:.\Generated_Source\PSoC4/Bootloader.c ****     /* Following fields should be little-endian */
1440:.\Generated_Source\PSoC4/Bootloader.c **** #if(!CY_PSOC3)
1441:.\Generated_Source\PSoC4/Bootloader.c ****     switch (fieldName)
 145              		.loc 1 1441 0
 146 0054 022C     		cmp	r4, #2
 147 0056 04D0     		beq	.L13
 148 0058 032C     		cmp	r4, #3
ARM GAS  C:\DOCUME~1\Chuck\LOCALS~1\Temp\ccjhbcm5.s 			page 29


 149 005a 07D0     		beq	.L14
 150 005c 012C     		cmp	r4, #1
 151 005e 06D1     		bne	.L24
 152 0060 04E0     		b	.L14
 153              	.L13:
1442:.\Generated_Source\PSoC4/Bootloader.c ****     {
1443:.\Generated_Source\PSoC4/Bootloader.c ****     case Bootloader_GET_METADATA_BTLDR_LAST_ROW:
1444:.\Generated_Source\PSoC4/Bootloader.c ****         result = CYSWAP_ENDIAN16(result);
 154              		.loc 1 1444 0
 155 0062 030A     		lsr	r3, r0, #8
 156 0064 0002     		lsl	r0, r0, #8
 157              	.LVL17:
 158 0066 1843     		orr	r0, r3
 159 0068 80B2     		uxth	r0, r0
 160              	.LVL18:
 161 006a 00E0     		b	.L24
 162              	.L14:
 163 006c 00BA     		rev	r0, r0
 164              	.LVL19:
 165              	.L24:
1445:.\Generated_Source\PSoC4/Bootloader.c ****         break;
1446:.\Generated_Source\PSoC4/Bootloader.c **** 
1447:.\Generated_Source\PSoC4/Bootloader.c ****     case Bootloader_GET_METADATA_BTLDB_ADDR:
1448:.\Generated_Source\PSoC4/Bootloader.c ****     case Bootloader_GET_METADATA_BTLDB_LENGTH:
1449:.\Generated_Source\PSoC4/Bootloader.c ****         result = CYSWAP_ENDIAN32(result);
1450:.\Generated_Source\PSoC4/Bootloader.c ****         break;
1451:.\Generated_Source\PSoC4/Bootloader.c **** 
1452:.\Generated_Source\PSoC4/Bootloader.c ****     default:
1453:.\Generated_Source\PSoC4/Bootloader.c ****         break;
1454:.\Generated_Source\PSoC4/Bootloader.c ****     }
1455:.\Generated_Source\PSoC4/Bootloader.c **** 
1456:.\Generated_Source\PSoC4/Bootloader.c **** #endif  /* (!CY_PSOC3) */
1457:.\Generated_Source\PSoC4/Bootloader.c **** 
1458:.\Generated_Source\PSoC4/Bootloader.c ****     return (result);
1459:.\Generated_Source\PSoC4/Bootloader.c **** }
 166              		.loc 1 1459 0
 167              		@ sp needed
 168 006e 38BD     		pop	{r3, r4, r5, pc}
 169              	.L28:
 170              		.align	2
 171              	.L27:
 172 0070 D67F0000 		.word	32726
 173 0074 C97F0000 		.word	32713
 174 0078 D47F0000 		.word	32724
 175 007c D27F0000 		.word	32722
 176 0080 C57F0000 		.word	32709
 177 0084 C17F0000 		.word	32705
 178 0088 D87F0000 		.word	32728
 179              		.cfi_endproc
 180              	.LFE44:
 181              		.size	Bootloader_GetMetadata.constprop.2, .-Bootloader_GetMetadata.constprop.2
 182              		.section	.text.Bootloader_ValidateBootloadable.constprop.1,"ax",%progbits
 183              		.align	1
 184              		.code	16
 185              		.thumb_func
 186              		.type	Bootloader_ValidateBootloadable.constprop.1, %function
 187              	Bootloader_ValidateBootloadable.constprop.1:
ARM GAS  C:\DOCUME~1\Chuck\LOCALS~1\Temp\ccjhbcm5.s 			page 30


 188              	.LFB45:
 501:.\Generated_Source\PSoC4/Bootloader.c **** 
 189              		.loc 1 501 0
 190              		.cfi_startproc
 191              	.LVL20:
 192 0000 38B5     		push	{r3, r4, r5, lr}
 193              		.cfi_def_cfa_offset 16
 194              		.cfi_offset 3, -16
 195              		.cfi_offset 4, -12
 196              		.cfi_offset 5, -8
 197              		.cfi_offset 14, -4
 506:.\Generated_Source\PSoC4/Bootloader.c ****                                 Bootloader_GetMetadata(Bootloader_GET_METADATA_BTLDB_LENGTH,
 198              		.loc 1 506 0
 199 0002 0220     		mov	r0, #2
 200 0004 FFF7FEFF 		bl	Bootloader_GetMetadata.constprop.2
 201              	.LVL21:
 202 0008 051C     		mov	r5, r0
 507:.\Generated_Source\PSoC4/Bootloader.c ****                                                        appId);
 203              		.loc 1 507 0
 204 000a 0320     		mov	r0, #3
 205 000c FFF7FEFF 		bl	Bootloader_GetMetadata.constprop.2
 206              	.LVL22:
 506:.\Generated_Source\PSoC4/Bootloader.c ****                                 Bootloader_GetMetadata(Bootloader_GET_METADATA_BTLDB_LENGTH,
 207              		.loc 1 506 0
 208 0010 0135     		add	r5, r5, #1
 209 0012 ED01     		lsl	r5, r5, #7
 210 0014 2C18     		add	r4, r5, r0
 211              	.LVL23:
 535:.\Generated_Source\PSoC4/Bootloader.c ****         {
 212              		.loc 1 535 0
 213 0016 0220     		mov	r0, #2
 214 0018 FFF7FEFF 		bl	Bootloader_GetMetadata.constprop.2
 215              	.LVL24:
 511:.\Generated_Source\PSoC4/Bootloader.c **** 
 216              		.loc 1 511 0
 217 001c 0023     		mov	r3, #0
 510:.\Generated_Source\PSoC4/Bootloader.c ****         uint8  CYDATA calcedChecksum = 0u;
 218              		.loc 1 510 0
 219 001e 1A1C     		mov	r2, r3
 535:.\Generated_Source\PSoC4/Bootloader.c ****         {
 220              		.loc 1 535 0
 221 0020 0130     		add	r0, r0, #1
 222 0022 C001     		lsl	r0, r0, #7
 223              	.LVL25:
 224              	.L30:
 225 0024 A042     		cmp	r0, r4
 226 0026 09D2     		bcs	.L36
 227              	.LBB8:
 537:.\Generated_Source\PSoC4/Bootloader.c **** 
 228              		.loc 1 537 0
 229 0028 0578     		ldrb	r5, [r0]
 230              	.LVL26:
 539:.\Generated_Source\PSoC4/Bootloader.c ****             {
 231              		.loc 1 539 0
 232 002a 691E     		sub	r1, r5, #1
 233 002c C9B2     		uxtb	r1, r1
 234 002e FD29     		cmp	r1, #253
ARM GAS  C:\DOCUME~1\Chuck\LOCALS~1\Temp\ccjhbcm5.s 			page 31


 235 0030 00D8     		bhi	.L31
 541:.\Generated_Source\PSoC4/Bootloader.c ****             }
 236              		.loc 1 541 0
 237 0032 0122     		mov	r2, #1
 238              	.LVL27:
 239              	.L31:
 544:.\Generated_Source\PSoC4/Bootloader.c ****         }
 240              		.loc 1 544 0
 241 0034 EB18     		add	r3, r5, r3
 242              	.LVL28:
 243 0036 DBB2     		uxtb	r3, r3
 244              	.LVL29:
 245              	.LBE8:
 535:.\Generated_Source\PSoC4/Bootloader.c ****         {
 246              		.loc 1 535 0
 247 0038 0130     		add	r0, r0, #1
 248              	.LVL30:
 249 003a F3E7     		b	.L30
 250              	.LVL31:
 251              	.L36:
 575:.\Generated_Source\PSoC4/Bootloader.c ****            (0u == valid))
 252              		.loc 1 575 0
 253 003c 0549     		ldr	r1, .L37
 573:.\Generated_Source\PSoC4/Bootloader.c **** 
 254              		.loc 1 573 0
 255 003e 5B42     		neg	r3, r3
 256              	.LVL32:
 575:.\Generated_Source\PSoC4/Bootloader.c ****            (0u == valid))
 257              		.loc 1 575 0
 258 0040 0978     		ldrb	r1, [r1]
 259 0042 DBB2     		uxtb	r3, r3
 578:.\Generated_Source\PSoC4/Bootloader.c ****         }
 260              		.loc 1 578 0
 261 0044 0620     		mov	r0, #6
 262              	.LVL33:
 575:.\Generated_Source\PSoC4/Bootloader.c ****            (0u == valid))
 263              		.loc 1 575 0
 264 0046 8B42     		cmp	r3, r1
 265 0048 03D1     		bne	.L33
 588:.\Generated_Source\PSoC4/Bootloader.c **** }
 266              		.loc 1 588 0
 267 004a 5342     		neg	r3, r2
 268 004c 5A41     		adc	r2, r2, r3
 269              	.LVL34:
 270 004e 5242     		neg	r2, r2
 271 0050 1040     		and	r0, r2
 272              	.L33:
 589:.\Generated_Source\PSoC4/Bootloader.c **** 
 273              		.loc 1 589 0
 274              		@ sp needed
 275              	.LVL35:
 276 0052 38BD     		pop	{r3, r4, r5, pc}
 277              	.L38:
 278              		.align	2
 279              	.L37:
 280 0054 C07F0000 		.word	32704
 281              		.cfi_endproc
ARM GAS  C:\DOCUME~1\Chuck\LOCALS~1\Temp\ccjhbcm5.s 			page 32


 282              	.LFE45:
 283              		.size	Bootloader_ValidateBootloadable.constprop.1, .-Bootloader_ValidateBootloadable.constprop.1
 284              		.section	.text.Bootloader_HostLink.constprop.0,"ax",%progbits
 285              		.align	1
 286              		.code	16
 287              		.thumb_func
 288              		.type	Bootloader_HostLink.constprop.0, %function
 289              	Bootloader_HostLink.constprop.0:
 290              	.LFB46:
 610:.\Generated_Source\PSoC4/Bootloader.c **** {
 291              		.loc 1 610 0
 292              		.cfi_startproc
 293              	.LVL36:
 294 0000 F0B5     		push	{r4, r5, r6, r7, lr}
 295              		.cfi_def_cfa_offset 20
 296              		.cfi_offset 4, -20
 297              		.cfi_offset 5, -16
 298              		.cfi_offset 6, -12
 299              		.cfi_offset 7, -8
 300              		.cfi_offset 14, -4
 301 0002 A34C     		ldr	r4, .L95
 302 0004 A544     		add	sp, sp, r4
 303              		.cfi_def_cfa_offset 776
 632:.\Generated_Source\PSoC4/Bootloader.c **** 
 304              		.loc 1 632 0
 305 0006 FFF7FEFF 		bl	CyBtldrCommStart
 306              	.LVL37:
 635:.\Generated_Source\PSoC4/Bootloader.c **** 
 307              		.loc 1 635 0
 308              	@ 635 ".\Generated_Source\PSoC4\Bootloader.c" 1
 309 000a 62B6     		CPSIE   i
 310              	@ 0 "" 2
 625:.\Generated_Source\PSoC4/Bootloader.c **** 
 311              		.loc 1 625 0
 312              		.code	16
 313 000c 0027     		mov	r7, #0
 622:.\Generated_Source\PSoC4/Bootloader.c ****     #endif  /* (0u == Bootloader_DUAL_APP_BOOTLOADER) */
 314              		.loc 1 622 0
 315 000e 0197     		str	r7, [sp, #4]
 316              	.LVL38:
 317              	.L80:
 318              	.LBB22:
1029:.\Generated_Source\PSoC4/Bootloader.c **** 
 319              		.loc 1 1029 0
 320 0010 0024     		mov	r4, #0
 321              	.L41:
 322              	.LBE22:
 643:.\Generated_Source\PSoC4/Bootloader.c ****                                         Bootloader_SIZEOF_COMMAND_BUFFER,
 323              		.loc 1 643 0
 324 0012 9621     		mov	r1, #150
 325 0014 26AE     		add	r6, sp, #152
 326 0016 05AD     		add	r5, sp, #20
 327 0018 301C     		mov	r0, r6
 328 001a 4900     		lsl	r1, r1, #1
 329 001c 2A1C     		mov	r2, r5
 330 001e FF23     		mov	r3, #255
 331 0020 FFF7FEFF 		bl	CyBtldrCommRead
ARM GAS  C:\DOCUME~1\Chuck\LOCALS~1\Temp\ccjhbcm5.s 			page 33


 332              	.LVL39:
 333 0024 0290     		str	r0, [sp, #8]
 334              	.LVL40:
 652:.\Generated_Source\PSoC4/Bootloader.c **** 
 335              		.loc 1 652 0
 336 0026 0028     		cmp	r0, #0
 337 0028 F3D1     		bne	.L41
 660:.\Generated_Source\PSoC4/Bootloader.c ****            (packetBuffer[Bootloader_SOP_ADDR] != Bootloader_SOP))
 338              		.loc 1 660 0
 339 002a 2B88     		ldrh	r3, [r5]
 340 002c 181E     		sub	r0, r3, #0
 341              	.LVL41:
 342 002e 0628     		cmp	r0, #6
 343 0030 00D8     		bhi	.LCB324
 344 0032 29E1     		b	.L64	@long jump
 345              	.LCB324:
 346 0034 3278     		ldrb	r2, [r6]
 663:.\Generated_Source\PSoC4/Bootloader.c ****         }
 347              		.loc 1 663 0
 348 0036 0423     		mov	r3, #4
 660:.\Generated_Source\PSoC4/Bootloader.c ****            (packetBuffer[Bootloader_SOP_ADDR] != Bootloader_SOP))
 349              		.loc 1 660 0
 350 0038 012A     		cmp	r2, #1
 351 003a 5FD1     		bne	.L88
 667:.\Generated_Source\PSoC4/Bootloader.c ****                                packetBuffer[Bootloader_SIZE_ADDR];
 352              		.loc 1 667 0
 353 003c F578     		ldrb	r5, [r6, #3]
 354 003e B278     		ldrb	r2, [r6, #2]
 355 0040 2D02     		lsl	r5, r5, #8
 356 0042 1543     		orr	r5, r2
 357              	.LVL42:
 670:.\Generated_Source\PSoC4/Bootloader.c ****                                    packetBuffer[Bootloader_CHK_ADDR(pktSize)];
 358              		.loc 1 670 0
 359 0044 7219     		add	r2, r6, r5
 360 0046 5179     		ldrb	r1, [r2, #5]
 361 0048 0391     		str	r1, [sp, #12]
 671:.\Generated_Source\PSoC4/Bootloader.c **** 
 362              		.loc 1 671 0
 363 004a 1179     		ldrb	r1, [r2, #4]
 364 004c 8C46     		mov	ip, r1
 365              	.LVL43:
 673:.\Generated_Source\PSoC4/Bootloader.c ****             {
 366              		.loc 1 673 0
 367 004e E91D     		add	r1, r5, #7
 368 0050 8142     		cmp	r1, r0
 369 0052 00D9     		bls	.LCB343
 370 0054 1AE1     		b	.L66	@long jump
 371              	.LCB343:
 677:.\Generated_Source\PSoC4/Bootloader.c ****             {
 372              		.loc 1 677 0
 373 0056 9279     		ldrb	r2, [r2, #6]
 374 0058 172A     		cmp	r2, #23
 375 005a 4FD1     		bne	.L88
 681:.\Generated_Source\PSoC4/Bootloader.c ****                                                                         pktSize + Bootloader_DATA_A
 376              		.loc 1 681 0
 377 005c EB18     		add	r3, r5, r3
 378              	.LBB29:
ARM GAS  C:\DOCUME~1\Chuck\LOCALS~1\Temp\ccjhbcm5.s 			page 34


 379              	.LBB30:
 157:.\Generated_Source\PSoC4/Bootloader.c **** 
 380              		.loc 1 157 0
 381 005e 0298     		ldr	r0, [sp, #8]
 382              	.LBE30:
 383              	.LBE29:
 681:.\Generated_Source\PSoC4/Bootloader.c ****                                                                         pktSize + Bootloader_DATA_A
 384              		.loc 1 681 0
 385 0060 9BB2     		uxth	r3, r3
 386              	.LVL44:
 387              	.L43:
 388              	.LBB33:
 389              	.LBB31:
 159:.\Generated_Source\PSoC4/Bootloader.c ****         {
 390              		.loc 1 159 0
 391 0062 002B     		cmp	r3, #0
 392 0064 09D0     		beq	.L91
 161:.\Generated_Source\PSoC4/Bootloader.c ****             size--;
 393              		.loc 1 161 0
 394 0066 BCAA     		add	r2, sp, #752
 395 0068 8A49     		ldr	r1, .L95+4
 396 006a D218     		add	r2, r2, r3
 397 006c 5218     		add	r2, r2, r1
 398 006e 1278     		ldrb	r2, [r2]
 162:.\Generated_Source\PSoC4/Bootloader.c ****         }
 399              		.loc 1 162 0
 400 0070 013B     		sub	r3, r3, #1
 401              	.LVL45:
 161:.\Generated_Source\PSoC4/Bootloader.c ****             size--;
 402              		.loc 1 161 0
 403 0072 8018     		add	r0, r0, r2
 404              	.LVL46:
 405 0074 80B2     		uxth	r0, r0
 406              	.LVL47:
 162:.\Generated_Source\PSoC4/Bootloader.c ****         }
 407              		.loc 1 162 0
 408 0076 9BB2     		uxth	r3, r3
 409              	.LVL48:
 410 0078 F3E7     		b	.L43
 411              	.L91:
 412              	.LBE31:
 413              	.LBE33:
 670:.\Generated_Source\PSoC4/Bootloader.c ****                                    packetBuffer[Bootloader_CHK_ADDR(pktSize)];
 414              		.loc 1 670 0
 415 007a 039B     		ldr	r3, [sp, #12]
 416              	.LVL49:
 417              	.LBB34:
 418              	.LBB32:
 165:.\Generated_Source\PSoC4/Bootloader.c **** 
 419              		.loc 1 165 0
 420 007c 4042     		neg	r0, r0
 421              	.LVL50:
 422              	.LBE32:
 423              	.LBE34:
 670:.\Generated_Source\PSoC4/Bootloader.c ****                                    packetBuffer[Bootloader_CHK_ADDR(pktSize)];
 424              		.loc 1 670 0
 425 007e 1A02     		lsl	r2, r3, #8
ARM GAS  C:\DOCUME~1\Chuck\LOCALS~1\Temp\ccjhbcm5.s 			page 35


 681:.\Generated_Source\PSoC4/Bootloader.c ****                                                                         pktSize + Bootloader_DATA_A
 426              		.loc 1 681 0
 427 0080 6346     		mov	r3, ip
 428 0082 80B2     		uxth	r0, r0
 429 0084 1A43     		orr	r2, r3
 684:.\Generated_Source\PSoC4/Bootloader.c ****             }
 430              		.loc 1 684 0
 431 0086 0823     		mov	r3, #8
 681:.\Generated_Source\PSoC4/Bootloader.c ****                                                                         pktSize + Bootloader_DATA_A
 432              		.loc 1 681 0
 433 0088 8242     		cmp	r2, r0
 434 008a 37D1     		bne	.L88
 435 008c 65E0     		b	.L92
 436              	.LVL51:
 437              	.L49:
 438              	.LBB35:
 825:.\Generated_Source\PSoC4/Bootloader.c ****                 {
 439              		.loc 1 825 0
 440 008e 342A     		cmp	r2, #52
 441 0090 00D0     		beq	.LCB417
 442 0092 98E0     		b	.L50	@long jump
 443              	.LCB417:
 827:.\Generated_Source\PSoC4/Bootloader.c ****                     {
 444              		.loc 1 827 0
 445 0094 012F     		cmp	r7, #1
 446 0096 00D0     		beq	.LCB419
 447 0098 F6E0     		b	.L64	@long jump
 448              	.LCB419:
 449 009a 032D     		cmp	r5, #3
 450 009c 00D0     		beq	.LCB421
 451 009e F3E0     		b	.L64	@long jump
 452              	.LCB421:
 453              	.LVL52:
 849:.\Generated_Source\PSoC4/Bootloader.c ****                         #endif  /* (CY_PSOC3) */
 454              		.loc 1 849 0
 455 00a0 71A8     		add	r0, sp, #452
 456 00a2 0021     		mov	r1, #0
 457 00a4 4C32     		add	r2, r2, #76
 458 00a6 FFF7FEFF 		bl	memset
 459              	.LVL53:
 843:.\Generated_Source\PSoC4/Bootloader.c ****                         #endif  /* (!CY_PSOC4) */
 460              		.loc 1 843 0
 461 00aa 8024     		mov	r4, #128
 462              	.LVL54:
 463              	.L51:
 870:.\Generated_Source\PSoC4/Bootloader.c ****                                       &packetBuffer[Bootloader_DATA_ADDR + 3u],
 464              		.loc 1 870 0
 465 00ac 8F21     		mov	r1, #143
 466 00ae 71AB     		add	r3, sp, #452
 467 00b0 1819     		add	r0, r3, r4
 468 00b2 04AB     		add	r3, sp, #16
 875:.\Generated_Source\PSoC4/Bootloader.c **** 
 469              		.loc 1 875 0
 470 00b4 6419     		add	r4, r4, r5
 471              	.LVL55:
 870:.\Generated_Source\PSoC4/Bootloader.c ****                                       &packetBuffer[Bootloader_DATA_ADDR + 3u],
 472              		.loc 1 870 0
ARM GAS  C:\DOCUME~1\Chuck\LOCALS~1\Temp\ccjhbcm5.s 			page 36


 473 00b6 EA1E     		sub	r2, r5, #3
 474 00b8 C918     		add	r1, r1, r3
 899:.\Generated_Source\PSoC4/Bootloader.c ****                     {
 475              		.loc 1 899 0
 476 00ba A4B2     		uxth	r4, r4
 870:.\Generated_Source\PSoC4/Bootloader.c ****                                       &packetBuffer[Bootloader_DATA_ADDR + 3u],
 477              		.loc 1 870 0
 478 00bc FFF7FEFF 		bl	memcpy
 479              	.LVL56:
 899:.\Generated_Source\PSoC4/Bootloader.c ****                     {
 480              		.loc 1 899 0
 481 00c0 832C     		cmp	r4, #131
 482 00c2 00D0     		beq	.LCB452
 483 00c4 DAE0     		b	.L78	@long jump
 484              	.LCB452:
 902:.\Generated_Source\PSoC4/Bootloader.c ****                                               packetBuffer[Bootloader_DATA_ADDR + 1u];
 485              		.loc 1 902 0
 486 00c6 B479     		ldrb	r4, [r6, #6]
 487 00c8 7379     		ldrb	r3, [r6, #5]
 488 00ca 2402     		lsl	r4, r4, #8
 489 00cc 1C43     		orr	r4, r3
 490              	.LVL57:
 912:.\Generated_Source\PSoC4/Bootloader.c ****                             {
 491              		.loc 1 912 0
 492 00ce 019B     		ldr	r3, [sp, #4]
 493 00d0 002B     		cmp	r3, #0
 494 00d2 0AD1     		bne	.L52
 495              	.LBB23:
 921:.\Generated_Source\PSoC4/Bootloader.c ****                                 #endif  /* (CY_PSOC3) */
 496              		.loc 1 921 0
 497 00d4 191C     		mov	r1, r3
 498 00d6 8022     		mov	r2, #128
 499 00d8 06A8     		add	r0, sp, #24
 500 00da FFF7FEFF 		bl	memset
 501              	.LVL58:
 925:.\Generated_Source\PSoC4/Bootloader.c ****                                 #else
 502              		.loc 1 925 0
 503 00de FF20     		mov	r0, #255
 504 00e0 06A9     		add	r1, sp, #24
 505 00e2 FFF7FEFF 		bl	CySysFlashWriteRow
 506              	.LVL59:
 934:.\Generated_Source\PSoC4/Bootloader.c ****                             }
 507              		.loc 1 934 0
 508 00e6 0123     		mov	r3, #1
 509 00e8 0193     		str	r3, [sp, #4]
 510              	.LVL60:
 511              	.L52:
 512              	.LBE23:
 996:.\Generated_Source\PSoC4/Bootloader.c ****                                 ? Bootloader_ERR_ROW \
 513              		.loc 1 996 0
 514 00ea 201C     		mov	r0, r4
 515 00ec 71A9     		add	r1, sp, #452
 516 00ee FFF7FEFF 		bl	CySysFlashWriteRow
 517              	.LVL61:
 518 00f2 0127     		mov	r7, #1
1014:.\Generated_Source\PSoC4/Bootloader.c ****                 }
 519              		.loc 1 1014 0
ARM GAS  C:\DOCUME~1\Chuck\LOCALS~1\Temp\ccjhbcm5.s 			page 37


 520 00f4 041E     		sub	r4, r0, #0
 521              	.LVL62:
 996:.\Generated_Source\PSoC4/Bootloader.c ****                                 ? Bootloader_ERR_ROW \
 522              		.loc 1 996 0
 523 00f6 00D0     		beq	.LCB489
 524 00f8 C3E0     		b	.L93	@long jump
 525              	.LCB489:
 526              	.LVL63:
 527              	.L90:
1082:.\Generated_Source\PSoC4/Bootloader.c **** 
 528              		.loc 1 1082 0
 529 00fa 0023     		mov	r3, #0
 530              	.LVL64:
 531              	.L88:
 532              	.LBE35:
 692:.\Generated_Source\PSoC4/Bootloader.c ****         if(ackCode == CYRET_SUCCESS)
 533              		.loc 1 692 0
 534 00fc 0021     		mov	r1, #0
 535              	.L47:
 536              	.LVL65:
 537 00fe 04AA     		add	r2, sp, #16
 538              	.LBB36:
 539              	.LBB37:
1286:.\Generated_Source\PSoC4/Bootloader.c ****     buffer[Bootloader_CMD_ADDR]      = status;
 540              		.loc 1 1286 0
 541 0100 0120     		mov	r0, #1
 542 0102 0632     		add	r2, r2, #6
1287:.\Generated_Source\PSoC4/Bootloader.c ****     buffer[Bootloader_SIZE_ADDR]     = LO8(size);
 543              		.loc 1 1287 0
 544 0104 7370     		strb	r3, [r6, #1]
1289:.\Generated_Source\PSoC4/Bootloader.c **** 
 545              		.loc 1 1289 0
 546 0106 0023     		mov	r3, #0
 547              	.LVL66:
 548 0108 9446     		mov	ip, r2
1286:.\Generated_Source\PSoC4/Bootloader.c ****     buffer[Bootloader_CMD_ADDR]      = status;
 549              		.loc 1 1286 0
 550 010a 3070     		strb	r0, [r6]
1292:.\Generated_Source\PSoC4/Bootloader.c **** 
 551              		.loc 1 1292 0
 552 010c 081D     		add	r0, r1, #4
 553 010e 1180     		strh	r1, [r2]
 554              	.LVL67:
1288:.\Generated_Source\PSoC4/Bootloader.c ****     buffer[Bootloader_SIZE_ADDR + 1u] = HI8(size);
 555              		.loc 1 1288 0
 556 0110 B170     		strb	r1, [r6, #2]
1289:.\Generated_Source\PSoC4/Bootloader.c **** 
 557              		.loc 1 1289 0
 558 0112 F370     		strb	r3, [r6, #3]
1292:.\Generated_Source\PSoC4/Bootloader.c **** 
 559              		.loc 1 1292 0
 560 0114 80B2     		uxth	r0, r0
 561              	.LVL68:
 562              	.L62:
 563              	.LBB38:
 564              	.LBB39:
 161:.\Generated_Source\PSoC4/Bootloader.c ****             size--;
ARM GAS  C:\DOCUME~1\Chuck\LOCALS~1\Temp\ccjhbcm5.s 			page 38


 565              		.loc 1 161 0
 566 0116 BCAD     		add	r5, sp, #752
 567 0118 5E4A     		ldr	r2, .L95+4
 568 011a 2D18     		add	r5, r5, r0
 569 011c AD18     		add	r5, r5, r2
 570 011e 2D78     		ldrb	r5, [r5]
 162:.\Generated_Source\PSoC4/Bootloader.c ****         }
 571              		.loc 1 162 0
 572 0120 0138     		sub	r0, r0, #1
 573              	.LVL69:
 161:.\Generated_Source\PSoC4/Bootloader.c ****             size--;
 574              		.loc 1 161 0
 575 0122 5B19     		add	r3, r3, r5
 576              	.LVL70:
 162:.\Generated_Source\PSoC4/Bootloader.c ****         }
 577              		.loc 1 162 0
 578 0124 80B2     		uxth	r0, r0
 161:.\Generated_Source\PSoC4/Bootloader.c ****             size--;
 579              		.loc 1 161 0
 580 0126 9BB2     		uxth	r3, r3
 581              	.LVL71:
 159:.\Generated_Source\PSoC4/Bootloader.c ****         {
 582              		.loc 1 159 0
 583 0128 0028     		cmp	r0, #0
 584 012a F4D1     		bne	.L62
 585              	.LBE39:
 586              	.LBE38:
1294:.\Generated_Source\PSoC4/Bootloader.c ****     buffer[Bootloader_CHK_ADDR(1u + size)] = HI8(checksum);
 587              		.loc 1 1294 0
 588 012c BCAA     		add	r2, sp, #752
 589 012e 5018     		add	r0, r2, r1
 590              	.LVL72:
 591 0130 594A     		ldr	r2, .L95+8
 592              	.LBB42:
 593              	.LBB40:
 165:.\Generated_Source\PSoC4/Bootloader.c **** 
 594              		.loc 1 165 0
 595 0132 5B42     		neg	r3, r3
 596              	.LVL73:
 597              	.LBE40:
 598              	.LBE42:
1294:.\Generated_Source\PSoC4/Bootloader.c ****     buffer[Bootloader_CHK_ADDR(1u + size)] = HI8(checksum);
 599              		.loc 1 1294 0
 600 0134 8518     		add	r5, r0, r2
1295:.\Generated_Source\PSoC4/Bootloader.c ****     buffer[Bootloader_EOP_ADDR(size)]     = Bootloader_EOP;
 601              		.loc 1 1295 0
 602 0136 594A     		ldr	r2, .L95+12
 603              	.LBB43:
 604              	.LBB41:
 165:.\Generated_Source\PSoC4/Bootloader.c **** 
 605              		.loc 1 165 0
 606 0138 9BB2     		uxth	r3, r3
 607              	.LVL74:
 608              	.LBE41:
 609              	.LBE43:
1294:.\Generated_Source\PSoC4/Bootloader.c ****     buffer[Bootloader_CHK_ADDR(1u + size)] = HI8(checksum);
 610              		.loc 1 1294 0
ARM GAS  C:\DOCUME~1\Chuck\LOCALS~1\Temp\ccjhbcm5.s 			page 39


 611 013a 2B70     		strb	r3, [r5]
 612              	.LVL75:
1295:.\Generated_Source\PSoC4/Bootloader.c ****     buffer[Bootloader_EOP_ADDR(size)]     = Bootloader_EOP;
 613              		.loc 1 1295 0
 614 013c 8518     		add	r5, r0, r2
 615 013e 1B0A     		lsr	r3, r3, #8
 616 0140 2B70     		strb	r3, [r5]
1296:.\Generated_Source\PSoC4/Bootloader.c **** 
 617              		.loc 1 1296 0
 618 0142 574B     		ldr	r3, .L95+16
1299:.\Generated_Source\PSoC4/Bootloader.c **** }
 619              		.loc 1 1299 0
 620 0144 0731     		add	r1, r1, #7
 621              	.LVL76:
1296:.\Generated_Source\PSoC4/Bootloader.c **** 
 622              		.loc 1 1296 0
 623 0146 C318     		add	r3, r0, r3
 624 0148 1720     		mov	r0, #23
1299:.\Generated_Source\PSoC4/Bootloader.c **** }
 625              		.loc 1 1299 0
 626 014a 89B2     		uxth	r1, r1
1296:.\Generated_Source\PSoC4/Bootloader.c **** 
 627              		.loc 1 1296 0
 628 014c 1870     		strb	r0, [r3]
1299:.\Generated_Source\PSoC4/Bootloader.c **** }
 629              		.loc 1 1299 0
 630 014e 6246     		mov	r2, ip
 631 0150 301C     		mov	r0, r6
 632 0152 9623     		mov	r3, #150
 633 0154 FFF7FEFF 		bl	CyBtldrCommWrite
 634              	.LVL77:
 635 0158 5BE7     		b	.L41
 636              	.LVL78:
 637              	.L92:
 638              	.LBE37:
 639              	.LBE36:
 640              	.LBB44:
 695:.\Generated_Source\PSoC4/Bootloader.c **** 
 641              		.loc 1 695 0
 642 015a 8C22     		mov	r2, #140
 698:.\Generated_Source\PSoC4/Bootloader.c ****             {
 643              		.loc 1 698 0
 644 015c 8921     		mov	r1, #137
 695:.\Generated_Source\PSoC4/Bootloader.c **** 
 645              		.loc 1 695 0
 646 015e 04AB     		add	r3, sp, #16
 647 0160 9B18     		add	r3, r3, r2
 698:.\Generated_Source\PSoC4/Bootloader.c ****             {
 648              		.loc 1 698 0
 649 0162 04AA     		add	r2, sp, #16
 650 0164 5218     		add	r2, r2, r1
 651 0166 1278     		ldrb	r2, [r2]
 695:.\Generated_Source\PSoC4/Bootloader.c **** 
 652              		.loc 1 695 0
 653 0168 1B78     		ldrb	r3, [r3]
 654              	.LVL79:
 698:.\Generated_Source\PSoC4/Bootloader.c ****             {
ARM GAS  C:\DOCUME~1\Chuck\LOCALS~1\Temp\ccjhbcm5.s 			page 40


 655              		.loc 1 698 0
 656 016a 101C     		mov	r0, r2
 657 016c 3138     		sub	r0, r0, #49
 658 016e 0A28     		cmp	r0, #10
 659 0170 01D9     		bls	.L94
 660              	.LVL80:
 661              	.L86:
1247:.\Generated_Source\PSoC4/Bootloader.c ****                 break;
 662              		.loc 1 1247 0
 663 0172 0523     		mov	r3, #5
 664              	.LVL81:
 665 0174 C2E7     		b	.L88
 666              	.LVL82:
 667              	.L94:
 698:.\Generated_Source\PSoC4/Bootloader.c ****             {
 668              		.loc 1 698 0
 669 0176 FFF7FEFF 		bl	__gnu_thumb1_case_sqi
 670              	.LVL83:
 671              	.L63:
 672 017a 06       		.byte	(.L46-.L63)/2
 673 017b 13       		.byte	(.L48-.L63)/2
 674 017c FC       		.byte	(.L86-.L63)/2
 675 017d 8A       		.byte	(.L49-.L63)/2
 676 017e 2B       		.byte	(.L53-.L63)/2
 677 017f FC       		.byte	(.L86-.L63)/2
 678 0180 2E       		.byte	(.L55-.L63)/2
 679 0181 40       		.byte	(.L56-.L63)/2
 680 0182 8A       		.byte	(.L49-.L63)/2
 681 0183 4E       		.byte	(.L57-.L63)/2
 682 0184 77       		.byte	(.L60-.L63)/2
 683 0185 00       		.p2align 1
 684              	.L46:
 743:.\Generated_Source\PSoC4/Bootloader.c ****                 {
 685              		.loc 1 743 0
 686 0186 012F     		cmp	r7, #1
 687 0188 7ED1     		bne	.L64
 688 018a 002D     		cmp	r5, #0
 689 018c 7CD1     		bne	.L64
 746:.\Generated_Source\PSoC4/Bootloader.c **** 
 690              		.loc 1 746 0
 691 018e FFF7FEFF 		bl	Bootloader_ValidateBootloadable.constprop.1
 692              	.LVL84:
 745:.\Generated_Source\PSoC4/Bootloader.c ****                             (uint8)(Bootloader_ValidateBootloadable(Bootloader_activeApp) == CYRET_
 693              		.loc 1 745 0
 694 0192 8C21     		mov	r1, #140
 746:.\Generated_Source\PSoC4/Bootloader.c **** 
 695              		.loc 1 746 0
 696 0194 4342     		neg	r3, r0
 697 0196 4341     		adc	r3, r3, r0
 745:.\Generated_Source\PSoC4/Bootloader.c ****                             (uint8)(Bootloader_ValidateBootloadable(Bootloader_activeApp) == CYRET_
 698              		.loc 1 745 0
 699 0198 04AA     		add	r2, sp, #16
 700 019a 5218     		add	r2, r2, r1
 701 019c 1370     		strb	r3, [r2]
 702              	.LVL85:
 703 019e 60E0     		b	.L89
 704              	.LVL86:
ARM GAS  C:\DOCUME~1\Chuck\LOCALS~1\Temp\ccjhbcm5.s 			page 41


 705              	.L48:
 761:.\Generated_Source\PSoC4/Bootloader.c ****                     {
 706              		.loc 1 761 0
 707 01a0 012F     		cmp	r7, #1
 708 01a2 71D1     		bne	.L64
 709 01a4 012D     		cmp	r5, #1
 710 01a6 6FD1     		bne	.L64
 764:.\Generated_Source\PSoC4/Bootloader.c ****                         {
 711              		.loc 1 764 0
 712 01a8 002B     		cmp	r3, #0
 713 01aa 6DD1     		bne	.L64
 714              	.LBB24:
 767:.\Generated_Source\PSoC4/Bootloader.c ****                             #else
 715              		.loc 1 767 0
 716 01ac 3D4A     		ldr	r2, .L95+20
 777:.\Generated_Source\PSoC4/Bootloader.c ****                             ackCode = CYRET_SUCCESS;
 717              		.loc 1 777 0
 718 01ae 0421     		mov	r1, #4
 767:.\Generated_Source\PSoC4/Bootloader.c ****                             #else
 719              		.loc 1 767 0
 720 01b0 1268     		ldr	r2, [r2]
 721 01b2 1268     		ldr	r2, [r2]
 775:.\Generated_Source\PSoC4/Bootloader.c **** 
 722              		.loc 1 775 0
 723 01b4 F371     		strb	r3, [r6, #7]
 724              	.LVL87:
 767:.\Generated_Source\PSoC4/Bootloader.c ****                             #else
 725              		.loc 1 767 0
 726 01b6 92B2     		uxth	r2, r2
 727 01b8 D209     		lsr	r2, r2, #7
 728              	.LVL88:
 772:.\Generated_Source\PSoC4/Bootloader.c ****                             packetBuffer[Bootloader_DATA_ADDR + 1u] = HI8(startRow);
 729              		.loc 1 772 0
 730 01ba 3271     		strb	r2, [r6, #4]
 773:.\Generated_Source\PSoC4/Bootloader.c ****                             packetBuffer[Bootloader_DATA_ADDR + 2u] = LO8(CY_FLASH_NUMBER_ROWS - 1u
 731              		.loc 1 773 0
 732 01bc 120A     		lsr	r2, r2, #8
 733              	.LVL89:
 734 01be 7271     		strb	r2, [r6, #5]
 774:.\Generated_Source\PSoC4/Bootloader.c ****                             packetBuffer[Bootloader_DATA_ADDR + 3u] = HI8(CY_FLASH_NUMBER_ROWS - 1u
 735              		.loc 1 774 0
 736 01c0 FF22     		mov	r2, #255
 737 01c2 B271     		strb	r2, [r6, #6]
 738 01c4 9BE7     		b	.L47
 739              	.LVL90:
 740              	.L50:
 741              	.LBE24:
 861:.\Generated_Source\PSoC4/Bootloader.c ****                 {
 742              		.loc 1 861 0
 743 01c6 012F     		cmp	r7, #1
 744 01c8 5ED1     		bne	.L64
 745 01ca 022D     		cmp	r5, #2
 746 01cc 5CD9     		bls	.L64
 747 01ce 6DE7     		b	.L51
 748              	.LVL91:
 749              	.L53:
1026:.\Generated_Source\PSoC4/Bootloader.c ****                 {
ARM GAS  C:\DOCUME~1\Chuck\LOCALS~1\Temp\ccjhbcm5.s 			page 42


 750              		.loc 1 1026 0
 751 01d0 012F     		cmp	r7, #1
 752 01d2 59D1     		bne	.L64
 753 01d4 1CE7     		b	.L80
 754              	.L55:
1077:.\Generated_Source\PSoC4/Bootloader.c ****                     {
 755              		.loc 1 1077 0
 756 01d6 012F     		cmp	r7, #1
 757 01d8 56D1     		bne	.L64
1080:.\Generated_Source\PSoC4/Bootloader.c ****                         {
 758              		.loc 1 1080 0
 759 01da 6319     		add	r3, r4, r5
 760              	.LVL92:
 761 01dc 0293     		str	r3, [sp, #8]
 762              	.LVL93:
 763 01de 9623     		mov	r3, #150
 764 01e0 029A     		ldr	r2, [sp, #8]
 765 01e2 5B00     		lsl	r3, r3, #1
 766 01e4 9A42     		cmp	r2, r3
 767 01e6 51DC     		bgt	.L66
 768              	.LVL94:
1089:.\Generated_Source\PSoC4/Bootloader.c ****                                               &packetBuffer[Bootloader_DATA_ADDR],
 769              		.loc 1 1089 0
 770 01e8 71AB     		add	r3, sp, #452
 771 01ea 1819     		add	r0, r3, r4
 772 01ec 27A9     		add	r1, sp, #156
 773 01ee 2A1C     		mov	r2, r5
 774 01f0 FFF7FEFF 		bl	memcpy
 775              	.LVL95:
1094:.\Generated_Source\PSoC4/Bootloader.c ****                         }
 776              		.loc 1 1094 0
 777 01f4 6B46     		mov	r3, sp
 778 01f6 1C89     		ldrh	r4, [r3, #8]
 779 01f8 7FE7     		b	.L90
 780              	.LVL96:
 781              	.L56:
1112:.\Generated_Source\PSoC4/Bootloader.c ****                 {
 782              		.loc 1 1112 0
 783 01fa 002D     		cmp	r5, #0
 784 01fc 44D1     		bne	.L64
 785              	.LBB25:
1121:.\Generated_Source\PSoC4/Bootloader.c ****                             {CYDEV_CHIP_JTAG_ID, CYDEV_CHIP_REV_EXPECT, Bootloader_VERSION};
 786              		.loc 1 1121 0
 787 01fe 06AB     		add	r3, sp, #24
 788              	.LVL97:
 789 0200 191C     		mov	r1, r3
 790 0202 294A     		ldr	r2, .L95+24
 791 0204 81CA     		ldmia	r2!, {r0, r7}
 792 0206 81C1     		stmia	r1!, {r0, r7}
 793              	.LVL98:
1135:.\Generated_Source\PSoC4/Bootloader.c ****                                       &BtldrVersion,
 794              		.loc 1 1135 0
 795 0208 27AA     		add	r2, sp, #156
 796 020a 03CB     		ldmia	r3!, {r0, r1}
 797 020c 03C2     		stmia	r2!, {r0, r1}
 798              	.LVL99:
1126:.\Generated_Source\PSoC4/Bootloader.c **** 
ARM GAS  C:\DOCUME~1\Chuck\LOCALS~1\Temp\ccjhbcm5.s 			page 43


 799              		.loc 1 1126 0
 800 020e 0127     		mov	r7, #1
1140:.\Generated_Source\PSoC4/Bootloader.c ****                 }
 801              		.loc 1 1140 0
 802 0210 2B1C     		mov	r3, r5
1128:.\Generated_Source\PSoC4/Bootloader.c **** 
 803              		.loc 1 1128 0
 804 0212 0821     		mov	r1, #8
 805 0214 73E7     		b	.L47
 806              	.LVL100:
 807              	.L57:
 808              	.LBE25:
1150:.\Generated_Source\PSoC4/Bootloader.c ****                 {
 809              		.loc 1 1150 0
 810 0216 012F     		cmp	r7, #1
 811 0218 36D1     		bne	.L64
 812 021a 032D     		cmp	r5, #3
 813 021c 34D1     		bne	.L64
 814              	.LBB26:
1153:.\Generated_Source\PSoC4/Bootloader.c ****                                                     packetBuffer[Bootloader_DATA_ADDR + 1u];
 815              		.loc 1 1153 0
 816 021e B079     		ldrb	r0, [r6, #6]
 817 0220 7279     		ldrb	r2, [r6, #5]
 818 0222 0002     		lsl	r0, r0, #8
 819 0224 1043     		orr	r0, r2
 820              	.LVL101:
1182:.\Generated_Source\PSoC4/Bootloader.c **** 
 821              		.loc 1 1182 0
 822 0226 1A02     		lsl	r2, r3, #8
 823 0228 8218     		add	r2, r0, r2
1181:.\Generated_Source\PSoC4/Bootloader.c ****                                             + ((uint32)rowNum * CYDEV_FLS_ROW_SIZE);
 824              		.loc 1 1181 0
 825 022a D201     		lsl	r2, r2, #7
 826              	.LVL102:
 827 022c 151C     		mov	r5, r2
 828              	.LVL103:
 829              	.LBB27:
 830              	.LBB28:
 192:.\Generated_Source\PSoC4/Bootloader.c **** 
 831              		.loc 1 192 0
 832 022e 0021     		mov	r1, #0
 833 0230 013A     		sub	r2, r2, #1
 834              	.LVL104:
 835 0232 7F35     		add	r5, r5, #127
 836              	.LVL105:
 837 0234 0292     		str	r2, [sp, #8]
 838              	.LVL106:
 839              	.L58:
 197:.\Generated_Source\PSoC4/Bootloader.c ****     }
 840              		.loc 1 197 0
 841 0236 2A78     		ldrb	r2, [r5]
 842 0238 013D     		sub	r5, r5, #1
 843              	.LVL107:
 844 023a 9446     		mov	ip, r2
 194:.\Generated_Source\PSoC4/Bootloader.c ****     {
 845              		.loc 1 194 0
 846 023c 029A     		ldr	r2, [sp, #8]
ARM GAS  C:\DOCUME~1\Chuck\LOCALS~1\Temp\ccjhbcm5.s 			page 44


 197:.\Generated_Source\PSoC4/Bootloader.c ****     }
 847              		.loc 1 197 0
 848 023e 6144     		add	r1, r1, ip
 849              	.LVL108:
 850 0240 C9B2     		uxtb	r1, r1
 851              	.LVL109:
 194:.\Generated_Source\PSoC4/Bootloader.c ****     {
 852              		.loc 1 194 0
 853 0242 9542     		cmp	r5, r2
 854 0244 F7D1     		bne	.L58
 855              	.LBE28:
 856              	.LBE27:
1213:.\Generated_Source\PSoC4/Bootloader.c ****                        (Bootloader_CONTAIN_METADATA(rowNum)))
 857              		.loc 1 1213 0
 858 0246 002B     		cmp	r3, #0
 859 0248 08D1     		bne	.L59
 860 024a FF28     		cmp	r0, #255
 861 024c 06D1     		bne	.L59
1216:.\Generated_Source\PSoC4/Bootloader.c ****                         checksum -= Bootloader_MD_BTLDB_VERIFIED_VALUE(Bootloader_GET_APP_ID(rowNum
 862              		.loc 1 1216 0
 863 024e 174B     		ldr	r3, .L95+28
 864              	.LVL110:
 865 0250 1B78     		ldrb	r3, [r3]
 866 0252 C91A     		sub	r1, r1, r3
 867              	.LVL111:
1217:.\Generated_Source\PSoC4/Bootloader.c ****                     }
 868              		.loc 1 1217 0
 869 0254 164B     		ldr	r3, .L95+32
 870 0256 1B78     		ldrb	r3, [r3]
 871 0258 C91A     		sub	r1, r1, r3
 872              	.LVL112:
 873 025a C9B2     		uxtb	r1, r1
 874              	.LVL113:
 875              	.L59:
1220:.\Generated_Source\PSoC4/Bootloader.c ****                     ackCode = CYRET_SUCCESS;
 876              		.loc 1 1220 0
 877 025c 4942     		neg	r1, r1
 878              	.LVL114:
 879 025e 26AB     		add	r3, sp, #152
 880 0260 1971     		strb	r1, [r3, #4]
 881              	.LVL115:
 882              	.L89:
1221:.\Generated_Source\PSoC4/Bootloader.c ****                     rspSize = 1u;
 883              		.loc 1 1221 0
 884 0262 0023     		mov	r3, #0
1222:.\Generated_Source\PSoC4/Bootloader.c ****                 }
 885              		.loc 1 1222 0
 886 0264 0121     		mov	r1, #1
 887 0266 4AE7     		b	.L47
 888              	.LVL116:
 889              	.L60:
 890              	.LBE26:
1232:.\Generated_Source\PSoC4/Bootloader.c ****                 {
 891              		.loc 1 1232 0
 892 0268 FFF7FEFF 		bl	Bootloader_ValidateBootloadable.constprop.1
 893              	.LVL117:
 894 026c 0028     		cmp	r0, #0
ARM GAS  C:\DOCUME~1\Chuck\LOCALS~1\Temp\ccjhbcm5.s 			page 45


 895 026e 02D1     		bne	.L61
1234:.\Generated_Source\PSoC4/Bootloader.c ****                 }
 896              		.loc 1 1234 0
 897 0270 8022     		mov	r2, #128
 898 0272 104B     		ldr	r3, .L95+36
 899 0274 1A60     		str	r2, [r3]
 900              	.L61:
1237:.\Generated_Source\PSoC4/Bootloader.c **** 
 901              		.loc 1 1237 0
 902 0276 FFF7FEFF 		bl	CySoftwareReset
 903              	.LVL118:
 904 027a 05E0     		b	.L64
 905              	.LVL119:
 906              	.L78:
 899:.\Generated_Source\PSoC4/Bootloader.c ****                     {
 907              		.loc 1 899 0
 908 027c 0127     		mov	r7, #1
1014:.\Generated_Source\PSoC4/Bootloader.c ****                 }
 909              		.loc 1 1014 0
 910 027e 0024     		mov	r4, #0
 911 0280 04E0     		b	.L66
 912              	.LVL120:
 913              	.L93:
 914 0282 0024     		mov	r4, #0
 996:.\Generated_Source\PSoC4/Bootloader.c ****                                 ? Bootloader_ERR_ROW \
 915              		.loc 1 996 0
 916 0284 0A23     		mov	r3, #10
 917 0286 39E7     		b	.L88
 918              	.LVL121:
 919              	.L64:
 920              	.LBE44:
 663:.\Generated_Source\PSoC4/Bootloader.c ****         }
 921              		.loc 1 663 0
 922 0288 0423     		mov	r3, #4
 923 028a 37E7     		b	.L88
 924              	.LVL122:
 925              	.L66:
 675:.\Generated_Source\PSoC4/Bootloader.c ****             }
 926              		.loc 1 675 0
 927 028c 0323     		mov	r3, #3
 928              	.LVL123:
 929 028e 35E7     		b	.L88
 930              	.L96:
 931              		.align	2
 932              	.L95:
 933 0290 0CFDFFFF 		.word	-756
 934 0294 A7FDFFFF 		.word	-601
 935 0298 ACFDFFFF 		.word	-596
 936 029c ADFDFFFF 		.word	-595
 937 02a0 AEFDFFFF 		.word	-594
 938 02a4 00000000 		.word	.LANCHOR0
 939 02a8 00000000 		.word	.LANCHOR1
 940 02ac D07F0000 		.word	32720
 941 02b0 D17F0000 		.word	32721
 942 02b4 00000000 		.word	cyBtldrRunType
 943              		.cfi_endproc
 944              	.LFE46:
ARM GAS  C:\DOCUME~1\Chuck\LOCALS~1\Temp\ccjhbcm5.s 			page 46


 945              		.size	Bootloader_HostLink.constprop.0, .-Bootloader_HostLink.constprop.0
 946              		.section	.text.Bootloader_Start,"ax",%progbits
 947              		.align	1
 948              		.global	Bootloader_Start
 949              		.code	16
 950              		.thumb_func
 951              		.type	Bootloader_Start, %function
 952              	Bootloader_Start:
 953              	.LFB35:
 273:.\Generated_Source\PSoC4/Bootloader.c ****     #if(0u != Bootloader_BOOTLOADER_APP_VALIDATION)
 954              		.loc 1 273 0
 955              		.cfi_startproc
 330:.\Generated_Source\PSoC4/Bootloader.c **** 
 956              		.loc 1 330 0
 957 0000 144A     		ldr	r2, .L108
 273:.\Generated_Source\PSoC4/Bootloader.c ****     #if(0u != Bootloader_BOOTLOADER_APP_VALIDATION)
 958              		.loc 1 273 0
 959 0002 10B5     		push	{r4, lr}
 960              		.cfi_def_cfa_offset 8
 961              		.cfi_offset 4, -8
 962              		.cfi_offset 14, -4
 330:.\Generated_Source\PSoC4/Bootloader.c **** 
 963              		.loc 1 330 0
 964 0004 1368     		ldr	r3, [r2]
 965 0006 1868     		ldr	r0, [r3]
 966              	.LVL124:
 967              	.LBB49:
 968              	.LBB50:
 192:.\Generated_Source\PSoC4/Bootloader.c **** 
 969              		.loc 1 192 0
 970 0008 0023     		mov	r3, #0
 971              	.LBE50:
 972              	.LBE49:
 330:.\Generated_Source\PSoC4/Bootloader.c **** 
 973              		.loc 1 330 0
 974 000a 011C     		mov	r1, r0
 975              	.LVL125:
 976              	.L98:
 977 000c 0139     		sub	r1, r1, #1
 978              	.LVL126:
 979              	.LBB52:
 980              	.LBB51:
 194:.\Generated_Source\PSoC4/Bootloader.c ****     {
 981              		.loc 1 194 0
 982 000e BF29     		cmp	r1, #191
 983 0010 03D0     		beq	.L107
 984              	.LVL127:
 197:.\Generated_Source\PSoC4/Bootloader.c ****     }
 985              		.loc 1 197 0
 986 0012 0C78     		ldrb	r4, [r1]
 987 0014 1B19     		add	r3, r3, r4
 988              	.LVL128:
 989 0016 DBB2     		uxtb	r3, r3
 990              	.LVL129:
 991 0018 F8E7     		b	.L98
 992              	.LVL130:
 993              	.L107:
ARM GAS  C:\DOCUME~1\Chuck\LOCALS~1\Temp\ccjhbcm5.s 			page 47


 994              	.LBE51:
 995              	.LBE52:
 333:.\Generated_Source\PSoC4/Bootloader.c ****         calcedChecksum = ( uint8 )1u + ( uint8 )(~calcedChecksum);
 996              		.loc 1 333 0
 997 001a 5268     		ldr	r2, [r2, #4]
 998 001c 1278     		ldrb	r2, [r2]
 999              	.LVL131:
 334:.\Generated_Source\PSoC4/Bootloader.c **** 
 1000              		.loc 1 334 0
 1001 001e D31A     		sub	r3, r2, r3
 1002              	.LVL132:
 337:.\Generated_Source\PSoC4/Bootloader.c ****            (0u == *Bootloader_SizeBytesAccess))
 1003              		.loc 1 337 0
 1004 0020 DBB2     		uxtb	r3, r3
 1005 0022 9342     		cmp	r3, r2
 1006 0024 01D1     		bne	.L100
 337:.\Generated_Source\PSoC4/Bootloader.c ****            (0u == *Bootloader_SizeBytesAccess))
 1007              		.loc 1 337 0 is_stmt 0 discriminator 1
 1008 0026 0028     		cmp	r0, #0
 1009 0028 02D1     		bne	.L101
 1010              	.L100:
 340:.\Generated_Source\PSoC4/Bootloader.c ****         }
 1011              		.loc 1 340 0 is_stmt 1
 1012 002a 0020     		mov	r0, #0
 1013 002c FFF7FEFF 		bl	CyHalt
 1014              	.LVL133:
 1015              	.L101:
 354:.\Generated_Source\PSoC4/Bootloader.c **** 
 1016              		.loc 1 354 0
 1017 0030 FFF7FEFF 		bl	Bootloader_ValidateBootloadable.constprop.1
 1018              	.LVL134:
 356:.\Generated_Source\PSoC4/Bootloader.c ****         (CYRET_SUCCESS != tmpStatus))
 1019              		.loc 1 356 0
 1020 0034 084B     		ldr	r3, .L108+4
 1021 0036 1968     		ldr	r1, [r3]
 1022 0038 1A1C     		mov	r2, r3
 1023 003a 4029     		cmp	r1, #64
 1024 003c 01D0     		beq	.L102
 356:.\Generated_Source\PSoC4/Bootloader.c ****         (CYRET_SUCCESS != tmpStatus))
 1025              		.loc 1 356 0 is_stmt 0 discriminator 1
 1026 003e 0028     		cmp	r0, #0
 1027 0040 03D0     		beq	.L103
 1028              	.L102:
 359:.\Generated_Source\PSoC4/Bootloader.c **** 
 1029              		.loc 1 359 0 is_stmt 1
 1030 0042 0023     		mov	r3, #0
 1031 0044 1360     		str	r3, [r2]
 361:.\Generated_Source\PSoC4/Bootloader.c ****     }
 1032              		.loc 1 361 0
 1033 0046 FFF7FEFF 		bl	Bootloader_HostLink.constprop.0
 1034              	.LVL135:
 1035              	.L103:
 1036              	.LBB53:
 1037              	.LBB54:
 396:.\Generated_Source\PSoC4/Bootloader.c **** 
 1038              		.loc 1 396 0
 1039 004a 8022     		mov	r2, #128
ARM GAS  C:\DOCUME~1\Chuck\LOCALS~1\Temp\ccjhbcm5.s 			page 48


 1040              	.LBE54:
 1041              	.LBE53:
 376:.\Generated_Source\PSoC4/Bootloader.c **** 
 1042              		.loc 1 376 0
 1043              		@ sp needed
 1044              	.LBB56:
 1045              	.LBB55:
 396:.\Generated_Source\PSoC4/Bootloader.c **** 
 1046              		.loc 1 396 0
 1047 004c 1A60     		str	r2, [r3]
 398:.\Generated_Source\PSoC4/Bootloader.c **** }
 1048              		.loc 1 398 0
 1049 004e FFF7FEFF 		bl	CySoftwareReset
 1050              	.LVL136:
 1051              	.LBE55:
 1052              	.LBE56:
 376:.\Generated_Source\PSoC4/Bootloader.c **** 
 1053              		.loc 1 376 0
 1054 0052 10BD     		pop	{r4, pc}
 1055              	.L109:
 1056              		.align	2
 1057              	.L108:
 1058 0054 00000000 		.word	.LANCHOR0
 1059 0058 00000000 		.word	cyBtldrRunType
 1060              		.cfi_endproc
 1061              	.LFE35:
 1062              		.size	Bootloader_Start, .-Bootloader_Start
 1063              		.section	.text.CyBtldr_CheckLaunch,"ax",%progbits
 1064              		.align	1
 1065              		.global	CyBtldr_CheckLaunch
 1066              		.code	16
 1067              		.thumb_func
 1068              		.type	CyBtldr_CheckLaunch, %function
 1069              	CyBtldr_CheckLaunch:
 1070              	.LFB37:
 420:.\Generated_Source\PSoC4/Bootloader.c **** 
 1071              		.loc 1 420 0
 1072              		.cfi_startproc
 1073 0000 08B5     		push	{r3, lr}
 1074              		.cfi_def_cfa_offset 8
 1075              		.cfi_offset 3, -8
 1076              		.cfi_offset 14, -4
 429:.\Generated_Source\PSoC4/Bootloader.c ****     {
 1077              		.loc 1 429 0
 1078 0002 0B4B     		ldr	r3, .L118
 1079 0004 1A68     		ldr	r2, [r3]
 1080 0006 1023     		mov	r3, #16
 1081 0008 1340     		and	r3, r2
 1082 000a 0A4A     		ldr	r2, .L118+4
 1083 000c 00D1     		bne	.L111
 431:.\Generated_Source\PSoC4/Bootloader.c ****     }
 1084              		.loc 1 431 0
 1085 000e 1360     		str	r3, [r2]
 1086              	.L111:
 437:.\Generated_Source\PSoC4/Bootloader.c ****     {
 1087              		.loc 1 437 0
 1088 0010 1368     		ldr	r3, [r2]
ARM GAS  C:\DOCUME~1\Chuck\LOCALS~1\Temp\ccjhbcm5.s 			page 49


 1089 0012 802B     		cmp	r3, #128
 1090 0014 0BD1     		bne	.L110
 439:.\Generated_Source\PSoC4/Bootloader.c **** 
 1091              		.loc 1 439 0
 1092 0016 0023     		mov	r3, #0
 447:.\Generated_Source\PSoC4/Bootloader.c ****         {
 1093              		.loc 1 447 0
 1094 0018 0120     		mov	r0, #1
 439:.\Generated_Source\PSoC4/Bootloader.c **** 
 1095              		.loc 1 439 0
 1096 001a 1360     		str	r3, [r2]
 447:.\Generated_Source\PSoC4/Bootloader.c ****         {
 1097              		.loc 1 447 0
 1098 001c FFF7FEFF 		bl	Bootloader_GetMetadata.constprop.2
 1099              	.LVL137:
 1100 0020 0028     		cmp	r0, #0
 1101 0022 04D0     		beq	.L110
 450:.\Generated_Source\PSoC4/Bootloader.c ****                                                                              Bootloader_activeApp))
 1102              		.loc 1 450 0
 1103 0024 0120     		mov	r0, #1
 1104 0026 FFF7FEFF 		bl	Bootloader_GetMetadata.constprop.2
 1105              	.LVL138:
 1106 002a FFF7FEFF 		bl	Bootloader_LaunchBootloadable
 1107              	.LVL139:
 1108              	.L110:
 454:.\Generated_Source\PSoC4/Bootloader.c **** 
 1109              		.loc 1 454 0
 1110              		@ sp needed
 1111 002e 08BD     		pop	{r3, pc}
 1112              	.L119:
 1113              		.align	2
 1114              	.L118:
 1115 0030 00030B40 		.word	1074463488
 1116 0034 00000000 		.word	cyBtldrRunType
 1117              		.cfi_endproc
 1118              	.LFE37:
 1119              		.size	CyBtldr_CheckLaunch, .-CyBtldr_CheckLaunch
 1120              		.section	.text.Bootloader_SetFlashByte,"ax",%progbits
 1121              		.align	1
 1122              		.global	Bootloader_SetFlashByte
 1123              		.code	16
 1124              		.thumb_func
 1125              		.type	Bootloader_SetFlashByte, %function
 1126              	Bootloader_SetFlashByte:
 1127              	.LFB42:
1322:.\Generated_Source\PSoC4/Bootloader.c ****     uint32 flsAddr = address - CYDEV_FLASH_BASE;
 1128              		.loc 1 1322 0
 1129              		.cfi_startproc
 1130              	.LVL140:
 1131 0000 F0B5     		push	{r4, r5, r6, r7, lr}
 1132              		.cfi_def_cfa_offset 20
 1133              		.cfi_offset 4, -20
 1134              		.cfi_offset 5, -16
 1135              		.cfi_offset 6, -12
 1136              		.cfi_offset 7, -8
 1137              		.cfi_offset 14, -4
1331:.\Generated_Source\PSoC4/Bootloader.c ****     uint16 idx;
ARM GAS  C:\DOCUME~1\Chuck\LOCALS~1\Temp\ccjhbcm5.s 			page 50


 1138              		.loc 1 1331 0
 1139 0002 7F23     		mov	r3, #127
 1140 0004 051C     		mov	r5, r0
 1141 0006 9D43     		bic	r5, r3
 1142 0008 2E1C     		mov	r6, r5
 1143 000a 2B1C     		mov	r3, r5
1322:.\Generated_Source\PSoC4/Bootloader.c ****     uint32 flsAddr = address - CYDEV_FLASH_BASE;
 1144              		.loc 1 1322 0
 1145 000c A3B0     		sub	sp, sp, #140
 1146              		.cfi_def_cfa_offset 160
1330:.\Generated_Source\PSoC4/Bootloader.c ****     uint32 baseAddr = address - (address % CYDEV_FLS_ROW_SIZE);
 1147              		.loc 1 1330 0
 1148 000e 4404     		lsl	r4, r0, #17
1322:.\Generated_Source\PSoC4/Bootloader.c ****     uint32 flsAddr = address - CYDEV_FLASH_BASE;
 1149              		.loc 1 1322 0
 1150 0010 0191     		str	r1, [sp, #4]
1330:.\Generated_Source\PSoC4/Bootloader.c ****     uint32 baseAddr = address - (address % CYDEV_FLS_ROW_SIZE);
 1151              		.loc 1 1330 0
 1152 0012 240E     		lsr	r4, r4, #24
 1153              	.LVL141:
 1154 0014 8036     		add	r6, r6, #128
 1155              	.LVL142:
 1156              	.L121:
1336:.\Generated_Source\PSoC4/Bootloader.c ****     }
 1157              		.loc 1 1336 0 discriminator 3
 1158 0016 1A78     		ldrb	r2, [r3]
 1159 0018 9446     		mov	ip, r2
 1160 001a 6146     		mov	r1, ip
 1161 001c 02AA     		add	r2, sp, #8
 1162 001e 571B     		sub	r7, r2, r5
 1163 0020 F954     		strb	r1, [r7, r3]
 1164              	.LVL143:
 1165 0022 0133     		add	r3, r3, #1
 1166              	.LVL144:
1334:.\Generated_Source\PSoC4/Bootloader.c ****     {
 1167              		.loc 1 1334 0 discriminator 3
 1168 0024 B342     		cmp	r3, r6
 1169 0026 F6D1     		bne	.L121
1339:.\Generated_Source\PSoC4/Bootloader.c **** 
 1170              		.loc 1 1339 0
 1171 0028 7F23     		mov	r3, #127
 1172 002a 1840     		and	r0, r3
 1173              	.LVL145:
 1174 002c 6B46     		mov	r3, sp
 1175 002e 1B79     		ldrb	r3, [r3, #4]
1342:.\Generated_Source\PSoC4/Bootloader.c ****     #else
 1176              		.loc 1 1342 0
 1177 0030 111C     		mov	r1, r2
1339:.\Generated_Source\PSoC4/Bootloader.c **** 
 1178              		.loc 1 1339 0
 1179 0032 1354     		strb	r3, [r2, r0]
1342:.\Generated_Source\PSoC4/Bootloader.c ****     #else
 1180              		.loc 1 1342 0
 1181 0034 201C     		mov	r0, r4
 1182 0036 FFF7FEFF 		bl	CySysFlashWriteRow
 1183              	.LVL146:
1346:.\Generated_Source\PSoC4/Bootloader.c **** 
ARM GAS  C:\DOCUME~1\Chuck\LOCALS~1\Temp\ccjhbcm5.s 			page 51


 1184              		.loc 1 1346 0
 1185 003a 23B0     		add	sp, sp, #140
 1186              		@ sp needed
 1187              	.LVL147:
 1188              	.LVL148:
 1189              	.LVL149:
 1190 003c F0BD     		pop	{r4, r5, r6, r7, pc}
 1191              		.cfi_endproc
 1192              	.LFE42:
 1193              		.size	Bootloader_SetFlashByte, .-Bootloader_SetFlashByte
 1194              		.global	Bootloader_SizeBytesAccess
 1195              		.global	Bootloader_SizeBytes
 1196              		.global	Bootloader_ChecksumAccess
 1197              		.global	Bootloader_Checksum
 1198              		.section	.rodata
 1199              		.align	2
 1200              		.set	.LANCHOR1,. + 0
 1201              	.LC0:
 1202 0000 9311C804 		.word	80220563
 1203 0004 11       		.byte	17
 1204 0005 14       		.byte	20
 1205 0006 01       		.byte	1
 1206 0007 01       		.byte	1
 1207              		.section	.bootloader,"a",%progbits
 1208              		.align	2
 1209              		.type	Bootloader_SizeBytes, %object
 1210              		.size	Bootloader_SizeBytes, 4
 1211              	Bootloader_SizeBytes:
 1212 0000 FFFFFFFF 		.word	-1
 1213              		.type	Bootloader_Checksum, %object
 1214              		.size	Bootloader_Checksum, 1
 1215              	Bootloader_Checksum:
 1216 0004 00       		.space	1
 1217 0005 000000   		.data
 1218              		.align	2
 1219              		.set	.LANCHOR0,. + 0
 1220              		.type	Bootloader_SizeBytesAccess, %object
 1221              		.size	Bootloader_SizeBytesAccess, 4
 1222              	Bootloader_SizeBytesAccess:
 1223 0000 00000000 		.word	Bootloader_SizeBytes
 1224              		.type	Bootloader_ChecksumAccess, %object
 1225              		.size	Bootloader_ChecksumAccess, 4
 1226              	Bootloader_ChecksumAccess:
 1227 0004 00000000 		.word	Bootloader_Checksum
 1228              		.text
 1229              	.Letext0:
 1230              		.file 2 ".\\Generated_Source\\PSoC4\\cytypes.h"
 1231              		.file 3 ".\\Generated_Source\\PSoC4\\Bootloader_PVT.h"
 1232              		.file 4 ".\\Generated_Source\\PSoC4\\Bootloader.h"
 1233              		.file 5 ".\\Generated_Source\\PSoC4\\CyFlash.h"
 1234              		.file 6 "Generated_Source\\PSoC4/CyLib.h"
 1235              		.section	.debug_info,"",%progbits
 1236              	.Ldebug_info0:
 1237 0000 5F0A0000 		.4byte	0xa5f
 1238 0004 0400     		.2byte	0x4
 1239 0006 00000000 		.4byte	.Ldebug_abbrev0
 1240 000a 04       		.byte	0x4
ARM GAS  C:\DOCUME~1\Chuck\LOCALS~1\Temp\ccjhbcm5.s 			page 52


 1241 000b 01       		.uleb128 0x1
 1242 000c 1A000000 		.4byte	.LASF83
 1243 0010 01       		.byte	0x1
 1244 0011 15050000 		.4byte	.LASF84
 1245 0015 B2010000 		.4byte	.LASF85
 1246 0019 90000000 		.4byte	.Ldebug_ranges0+0x90
 1247 001d 00000000 		.4byte	0
 1248 0021 00000000 		.4byte	.Ldebug_line0
 1249 0025 02       		.uleb128 0x2
 1250 0026 01       		.byte	0x1
 1251 0027 06       		.byte	0x6
 1252 0028 81010000 		.4byte	.LASF0
 1253 002c 02       		.uleb128 0x2
 1254 002d 01       		.byte	0x1
 1255 002e 08       		.byte	0x8
 1256 002f BD030000 		.4byte	.LASF1
 1257 0033 02       		.uleb128 0x2
 1258 0034 02       		.byte	0x2
 1259 0035 05       		.byte	0x5
 1260 0036 EB030000 		.4byte	.LASF2
 1261 003a 02       		.uleb128 0x2
 1262 003b 02       		.byte	0x2
 1263 003c 07       		.byte	0x7
 1264 003d 17030000 		.4byte	.LASF3
 1265 0041 02       		.uleb128 0x2
 1266 0042 04       		.byte	0x4
 1267 0043 05       		.byte	0x5
 1268 0044 09020000 		.4byte	.LASF4
 1269 0048 02       		.uleb128 0x2
 1270 0049 04       		.byte	0x4
 1271 004a 07       		.byte	0x7
 1272 004b C9020000 		.4byte	.LASF5
 1273 004f 02       		.uleb128 0x2
 1274 0050 08       		.byte	0x8
 1275 0051 05       		.byte	0x5
 1276 0052 73010000 		.4byte	.LASF6
 1277 0056 02       		.uleb128 0x2
 1278 0057 08       		.byte	0x8
 1279 0058 07       		.byte	0x7
 1280 0059 F3000000 		.4byte	.LASF7
 1281 005d 03       		.uleb128 0x3
 1282 005e 04       		.byte	0x4
 1283 005f 05       		.byte	0x5
 1284 0060 696E7400 		.ascii	"int\000"
 1285 0064 02       		.uleb128 0x2
 1286 0065 04       		.byte	0x4
 1287 0066 07       		.byte	0x7
 1288 0067 9C020000 		.4byte	.LASF8
 1289 006b 04       		.uleb128 0x4
 1290 006c 2A020000 		.4byte	.LASF9
 1291 0070 02       		.byte	0x2
 1292 0071 5B       		.byte	0x5b
 1293 0072 2C000000 		.4byte	0x2c
 1294 0076 04       		.uleb128 0x4
 1295 0077 13000000 		.4byte	.LASF10
 1296 007b 02       		.byte	0x2
 1297 007c 5C       		.byte	0x5c
ARM GAS  C:\DOCUME~1\Chuck\LOCALS~1\Temp\ccjhbcm5.s 			page 53


 1298 007d 3A000000 		.4byte	0x3a
 1299 0081 04       		.uleb128 0x4
 1300 0082 40020000 		.4byte	.LASF11
 1301 0086 02       		.byte	0x2
 1302 0087 5D       		.byte	0x5d
 1303 0088 48000000 		.4byte	0x48
 1304 008c 02       		.uleb128 0x2
 1305 008d 04       		.byte	0x4
 1306 008e 04       		.byte	0x4
 1307 008f 97030000 		.4byte	.LASF12
 1308 0093 02       		.uleb128 0x2
 1309 0094 08       		.byte	0x8
 1310 0095 04       		.byte	0x4
 1311 0096 30020000 		.4byte	.LASF13
 1312 009a 02       		.uleb128 0x2
 1313 009b 01       		.byte	0x1
 1314 009c 08       		.byte	0x8
 1315 009d 47040000 		.4byte	.LASF14
 1316 00a1 04       		.uleb128 0x4
 1317 00a2 E6040000 		.4byte	.LASF15
 1318 00a6 02       		.byte	0x2
 1319 00a7 E8       		.byte	0xe8
 1320 00a8 48000000 		.4byte	0x48
 1321 00ac 04       		.uleb128 0x4
 1322 00ad B2030000 		.4byte	.LASF16
 1323 00b1 02       		.byte	0x2
 1324 00b2 F0       		.byte	0xf0
 1325 00b3 B7000000 		.4byte	0xb7
 1326 00b7 05       		.uleb128 0x5
 1327 00b8 6B000000 		.4byte	0x6b
 1328 00bc 04       		.uleb128 0x4
 1329 00bd 5C030000 		.4byte	.LASF17
 1330 00c1 02       		.byte	0x2
 1331 00c2 F2       		.byte	0xf2
 1332 00c3 C7000000 		.4byte	0xc7
 1333 00c7 05       		.uleb128 0x5
 1334 00c8 81000000 		.4byte	0x81
 1335 00cc 06       		.uleb128 0x6
 1336 00cd 08       		.byte	0x8
 1337 00ce 03       		.byte	0x3
 1338 00cf 15       		.byte	0x15
 1339 00d0 F9000000 		.4byte	0xf9
 1340 00d4 07       		.uleb128 0x7
 1341 00d5 8C040000 		.4byte	.LASF18
 1342 00d9 03       		.byte	0x3
 1343 00da 17       		.byte	0x17
 1344 00db 81000000 		.4byte	0x81
 1345 00df 00       		.byte	0
 1346 00e0 07       		.uleb128 0x7
 1347 00e1 69040000 		.4byte	.LASF19
 1348 00e5 03       		.byte	0x3
 1349 00e6 18       		.byte	0x18
 1350 00e7 6B000000 		.4byte	0x6b
 1351 00eb 04       		.byte	0x4
 1352 00ec 07       		.uleb128 0x7
 1353 00ed B9040000 		.4byte	.LASF20
 1354 00f1 03       		.byte	0x3
ARM GAS  C:\DOCUME~1\Chuck\LOCALS~1\Temp\ccjhbcm5.s 			page 54


 1355 00f2 19       		.byte	0x19
 1356 00f3 F9000000 		.4byte	0xf9
 1357 00f7 05       		.byte	0x5
 1358 00f8 00       		.byte	0
 1359 00f9 08       		.uleb128 0x8
 1360 00fa 6B000000 		.4byte	0x6b
 1361 00fe 09010000 		.4byte	0x109
 1362 0102 09       		.uleb128 0x9
 1363 0103 09010000 		.4byte	0x109
 1364 0107 02       		.byte	0x2
 1365 0108 00       		.byte	0
 1366 0109 02       		.uleb128 0x2
 1367 010a 04       		.byte	0x4
 1368 010b 07       		.byte	0x7
 1369 010c 62030000 		.4byte	.LASF21
 1370 0110 04       		.uleb128 0x4
 1371 0111 7D030000 		.4byte	.LASF22
 1372 0115 03       		.byte	0x3
 1373 0116 1B       		.byte	0x1b
 1374 0117 CC000000 		.4byte	0xcc
 1375 011b 0A       		.uleb128 0xa
 1376 011c 04       		.byte	0x4
 1377 011d 0B       		.uleb128 0xb
 1378 011e 04       		.byte	0x4
 1379 011f 6B000000 		.4byte	0x6b
 1380 0123 0C       		.uleb128 0xc
 1381 0124 47020000 		.4byte	.LASF28
 1382 0128 01       		.byte	0x1
 1383 0129 5E05     		.2byte	0x55e
 1384 012b 81000000 		.4byte	0x81
 1385 012f 01       		.byte	0x1
 1386 0130 71010000 		.4byte	0x171
 1387 0134 0D       		.uleb128 0xd
 1388 0135 5F040000 		.4byte	.LASF23
 1389 0139 01       		.byte	0x1
 1390 013a 5E05     		.2byte	0x55e
 1391 013c 6B000000 		.4byte	0x6b
 1392 0140 0D       		.uleb128 0xd
 1393 0141 B7030000 		.4byte	.LASF24
 1394 0145 01       		.byte	0x1
 1395 0146 5E05     		.2byte	0x55e
 1396 0148 6B000000 		.4byte	0x6b
 1397 014c 0E       		.uleb128 0xe
 1398 014d 8E030000 		.4byte	.LASF25
 1399 0151 01       		.byte	0x1
 1400 0152 6005     		.2byte	0x560
 1401 0154 81000000 		.4byte	0x81
 1402 0158 0E       		.uleb128 0xe
 1403 0159 6B030000 		.4byte	.LASF26
 1404 015d 01       		.byte	0x1
 1405 015e 6105     		.2byte	0x561
 1406 0160 6B000000 		.4byte	0x6b
 1407 0164 0E       		.uleb128 0xe
 1408 0165 42050000 		.4byte	.LASF27
 1409 0169 01       		.byte	0x1
 1410 016a 6205     		.2byte	0x562
 1411 016c 81000000 		.4byte	0x81
ARM GAS  C:\DOCUME~1\Chuck\LOCALS~1\Temp\ccjhbcm5.s 			page 55


 1412 0170 00       		.byte	0
 1413 0171 0C       		.uleb128 0xc
 1414 0172 0C040000 		.4byte	.LASF29
 1415 0176 01       		.byte	0x1
 1416 0177 F501     		.2byte	0x1f5
 1417 0179 A1000000 		.4byte	0xa1
 1418 017d 01       		.byte	0x1
 1419 017e CD010000 		.4byte	0x1cd
 1420 0182 0D       		.uleb128 0xd
 1421 0183 B7030000 		.4byte	.LASF24
 1422 0187 01       		.byte	0x1
 1423 0188 F501     		.2byte	0x1f5
 1424 018a 6B000000 		.4byte	0x6b
 1425 018e 0F       		.uleb128 0xf
 1426 018f 69647800 		.ascii	"idx\000"
 1427 0193 01       		.byte	0x1
 1428 0194 F801     		.2byte	0x1f8
 1429 0196 81000000 		.4byte	0x81
 1430 019a 0F       		.uleb128 0xf
 1431 019b 656E6400 		.ascii	"end\000"
 1432 019f 01       		.byte	0x1
 1433 01a0 FA01     		.2byte	0x1fa
 1434 01a2 81000000 		.4byte	0x81
 1435 01a6 0E       		.uleb128 0xe
 1436 01a7 06040000 		.4byte	.LASF30
 1437 01ab 01       		.byte	0x1
 1438 01ac FE01     		.2byte	0x1fe
 1439 01ae 6B000000 		.4byte	0x6b
 1440 01b2 0E       		.uleb128 0xe
 1441 01b3 0A010000 		.4byte	.LASF31
 1442 01b7 01       		.byte	0x1
 1443 01b8 FF01     		.2byte	0x1ff
 1444 01ba 6B000000 		.4byte	0x6b
 1445 01be 10       		.uleb128 0x10
 1446 01bf 0E       		.uleb128 0xe
 1447 01c0 0B000000 		.4byte	.LASF32
 1448 01c4 01       		.byte	0x1
 1449 01c5 1902     		.2byte	0x219
 1450 01c7 6B000000 		.4byte	0x6b
 1451 01cb 00       		.byte	0
 1452 01cc 00       		.byte	0
 1453 01cd 11       		.uleb128 0x11
 1454 01ce 5E020000 		.4byte	.LASF86
 1455 01d2 01       		.byte	0x1
 1456 01d3 6202     		.2byte	0x262
 1457 01d5 01       		.byte	0x1
 1458 01d6 E1020000 		.4byte	0x2e1
 1459 01da 0D       		.uleb128 0xd
 1460 01db 2A030000 		.4byte	.LASF33
 1461 01df 01       		.byte	0x1
 1462 01e0 6202     		.2byte	0x262
 1463 01e2 6B000000 		.4byte	0x6b
 1464 01e6 0E       		.uleb128 0xe
 1465 01e7 A7010000 		.4byte	.LASF34
 1466 01eb 01       		.byte	0x1
 1467 01ec 6402     		.2byte	0x264
 1468 01ee 76000000 		.4byte	0x76
ARM GAS  C:\DOCUME~1\Chuck\LOCALS~1\Temp\ccjhbcm5.s 			page 56


 1469 01f2 0E       		.uleb128 0xe
 1470 01f3 BB000000 		.4byte	.LASF35
 1471 01f7 01       		.byte	0x1
 1472 01f8 6502     		.2byte	0x265
 1473 01fa 76000000 		.4byte	0x76
 1474 01fe 0E       		.uleb128 0xe
 1475 01ff 94010000 		.4byte	.LASF36
 1476 0203 01       		.byte	0x1
 1477 0204 6602     		.2byte	0x266
 1478 0206 6B000000 		.4byte	0x6b
 1479 020a 0E       		.uleb128 0xe
 1480 020b 4C040000 		.4byte	.LASF37
 1481 020f 01       		.byte	0x1
 1482 0210 6702     		.2byte	0x267
 1483 0212 76000000 		.4byte	0x76
 1484 0216 0E       		.uleb128 0xe
 1485 0217 37020000 		.4byte	.LASF38
 1486 021b 01       		.byte	0x1
 1487 021c 6802     		.2byte	0x268
 1488 021e A1000000 		.4byte	0xa1
 1489 0222 0E       		.uleb128 0xe
 1490 0223 EF040000 		.4byte	.LASF39
 1491 0227 01       		.byte	0x1
 1492 0228 6902     		.2byte	0x269
 1493 022a 76000000 		.4byte	0x76
 1494 022e 0E       		.uleb128 0xe
 1495 022f 91020000 		.4byte	.LASF40
 1496 0233 01       		.byte	0x1
 1497 0234 6A02     		.2byte	0x26a
 1498 0236 76000000 		.4byte	0x76
 1499 023a 0E       		.uleb128 0xe
 1500 023b 00000000 		.4byte	.LASF41
 1501 023f 01       		.byte	0x1
 1502 0240 6B02     		.2byte	0x26b
 1503 0242 6B000000 		.4byte	0x6b
 1504 0246 0E       		.uleb128 0xe
 1505 0247 FF040000 		.4byte	.LASF42
 1506 024b 01       		.byte	0x1
 1507 024c 6E02     		.2byte	0x26e
 1508 024e 6B000000 		.4byte	0x6b
 1509 0252 0E       		.uleb128 0xe
 1510 0253 CC000000 		.4byte	.LASF43
 1511 0257 01       		.byte	0x1
 1512 0258 7102     		.2byte	0x271
 1513 025a 6B000000 		.4byte	0x6b
 1514 025e 0E       		.uleb128 0xe
 1515 025f DF000000 		.4byte	.LASF44
 1516 0263 01       		.byte	0x1
 1517 0264 7302     		.2byte	0x273
 1518 0266 E1020000 		.4byte	0x2e1
 1519 026a 0E       		.uleb128 0xe
 1520 026b 86020000 		.4byte	.LASF45
 1521 026f 01       		.byte	0x1
 1522 0270 7402     		.2byte	0x274
 1523 0272 E1020000 		.4byte	0x2e1
 1524 0276 10       		.uleb128 0x10
 1525 0277 0E       		.uleb128 0xe
ARM GAS  C:\DOCUME~1\Chuck\LOCALS~1\Temp\ccjhbcm5.s 			page 57


 1526 0278 B1000000 		.4byte	.LASF46
 1527 027c 01       		.byte	0x1
 1528 027d B702     		.2byte	0x2b7
 1529 027f 6B000000 		.4byte	0x6b
 1530 0283 12       		.uleb128 0x12
 1531 0284 95020000 		.4byte	0x295
 1532 0288 0E       		.uleb128 0xe
 1533 0289 6A010000 		.4byte	.LASF47
 1534 028d 01       		.byte	0x1
 1535 028e FF02     		.2byte	0x2ff
 1536 0290 76000000 		.4byte	0x76
 1537 0294 00       		.byte	0
 1538 0295 12       		.uleb128 0x12
 1539 0296 A7020000 		.4byte	0x2a7
 1540 029a 0E       		.uleb128 0xe
 1541 029b A1010000 		.4byte	.LASF48
 1542 029f 01       		.byte	0x1
 1543 02a0 9403     		.2byte	0x394
 1544 02a2 F2020000 		.4byte	0x2f2
 1545 02a6 00       		.byte	0
 1546 02a7 12       		.uleb128 0x12
 1547 02a8 B9020000 		.4byte	0x2b9
 1548 02ac 0E       		.uleb128 0xe
 1549 02ad 32030000 		.4byte	.LASF49
 1550 02b1 01       		.byte	0x1
 1551 02b2 6104     		.2byte	0x461
 1552 02b4 10010000 		.4byte	0x110
 1553 02b8 00       		.byte	0
 1554 02b9 10       		.uleb128 0x10
 1555 02ba 0E       		.uleb128 0xe
 1556 02bb EC000000 		.4byte	.LASF50
 1557 02bf 01       		.byte	0x1
 1558 02c0 8104     		.2byte	0x481
 1559 02c2 76000000 		.4byte	0x76
 1560 02c6 0E       		.uleb128 0xe
 1561 02c7 E3030000 		.4byte	.LASF51
 1562 02cb 01       		.byte	0x1
 1563 02cc 9D04     		.2byte	0x49d
 1564 02ce 81000000 		.4byte	0x81
 1565 02d2 0E       		.uleb128 0xe
 1566 02d3 C3000000 		.4byte	.LASF52
 1567 02d7 01       		.byte	0x1
 1568 02d8 A004     		.2byte	0x4a0
 1569 02da 6B000000 		.4byte	0x6b
 1570 02de 00       		.byte	0
 1571 02df 00       		.byte	0
 1572 02e0 00       		.byte	0
 1573 02e1 08       		.uleb128 0x8
 1574 02e2 6B000000 		.4byte	0x6b
 1575 02e6 F2020000 		.4byte	0x2f2
 1576 02ea 13       		.uleb128 0x13
 1577 02eb 09010000 		.4byte	0x109
 1578 02ef 2B01     		.2byte	0x12b
 1579 02f1 00       		.byte	0
 1580 02f2 08       		.uleb128 0x8
 1581 02f3 6B000000 		.4byte	0x6b
 1582 02f7 02030000 		.4byte	0x302
ARM GAS  C:\DOCUME~1\Chuck\LOCALS~1\Temp\ccjhbcm5.s 			page 58


 1583 02fb 09       		.uleb128 0x9
 1584 02fc 09010000 		.4byte	0x109
 1585 0300 7F       		.byte	0x7f
 1586 0301 00       		.byte	0
 1587 0302 14       		.uleb128 0x14
 1588 0303 F9020000 		.4byte	.LASF87
 1589 0307 01       		.byte	0x1
 1590 0308 D601     		.2byte	0x1d6
 1591 030a 00000000 		.4byte	.LFB38
 1592 030e 02000000 		.4byte	.LFE38-.LFB38
 1593 0312 01       		.uleb128 0x1
 1594 0313 9C       		.byte	0x9c
 1595 0314 27030000 		.4byte	0x327
 1596 0318 15       		.uleb128 0x15
 1597 0319 A9020000 		.4byte	.LASF64
 1598 031d 01       		.byte	0x1
 1599 031e D601     		.2byte	0x1d6
 1600 0320 81000000 		.4byte	0x81
 1601 0324 01       		.uleb128 0x1
 1602 0325 50       		.byte	0x50
 1603 0326 00       		.byte	0
 1604 0327 16       		.uleb128 0x16
 1605 0328 23010000 		.4byte	0x123
 1606 032c 00000000 		.4byte	.LFB44
 1607 0330 8C000000 		.4byte	.LFE44-.LFB44
 1608 0334 01       		.uleb128 0x1
 1609 0335 9C       		.byte	0x9c
 1610 0336 74030000 		.4byte	0x374
 1611 033a 17       		.uleb128 0x17
 1612 033b 34010000 		.4byte	0x134
 1613 033f 00000000 		.4byte	.LLST0
 1614 0343 18       		.uleb128 0x18
 1615 0344 4C010000 		.4byte	0x14c
 1616 0348 21000000 		.4byte	.LLST1
 1617 034c 18       		.uleb128 0x18
 1618 034d 58010000 		.4byte	0x158
 1619 0351 59000000 		.4byte	.LLST2
 1620 0355 18       		.uleb128 0x18
 1621 0356 64010000 		.4byte	0x164
 1622 035a 79000000 		.4byte	.LLST3
 1623 035e 19       		.uleb128 0x19
 1624 035f 40010000 		.4byte	0x140
 1625 0363 00       		.byte	0
 1626 0364 1A       		.uleb128 0x1a
 1627 0365 28000000 		.4byte	.LVL5
 1628 0369 9E090000 		.4byte	0x99e
 1629 036d 1B       		.uleb128 0x1b
 1630 036e 01       		.uleb128 0x1
 1631 036f 50       		.byte	0x50
 1632 0370 01       		.uleb128 0x1
 1633 0371 30       		.byte	0x30
 1634 0372 00       		.byte	0
 1635 0373 00       		.byte	0
 1636 0374 16       		.uleb128 0x16
 1637 0375 71010000 		.4byte	0x171
 1638 0379 00000000 		.4byte	.LFB45
 1639 037d 58000000 		.4byte	.LFE45-.LFB45
ARM GAS  C:\DOCUME~1\Chuck\LOCALS~1\Temp\ccjhbcm5.s 			page 59


 1640 0381 01       		.uleb128 0x1
 1641 0382 9C       		.byte	0x9c
 1642 0383 FE030000 		.4byte	0x3fe
 1643 0387 18       		.uleb128 0x18
 1644 0388 8E010000 		.4byte	0x18e
 1645 038c D6000000 		.4byte	.LLST4
 1646 0390 18       		.uleb128 0x18
 1647 0391 9A010000 		.4byte	0x19a
 1648 0395 E9000000 		.4byte	.LLST5
 1649 0399 18       		.uleb128 0x18
 1650 039a A6010000 		.4byte	0x1a6
 1651 039e FC000000 		.4byte	.LLST6
 1652 03a2 18       		.uleb128 0x18
 1653 03a3 B2010000 		.4byte	0x1b2
 1654 03a7 1B010000 		.4byte	.LLST7
 1655 03ab 19       		.uleb128 0x19
 1656 03ac 82010000 		.4byte	0x182
 1657 03b0 00       		.byte	0
 1658 03b1 1C       		.uleb128 0x1c
 1659 03b2 28000000 		.4byte	.LBB8
 1660 03b6 10000000 		.4byte	.LBE8-.LBB8
 1661 03ba C8030000 		.4byte	0x3c8
 1662 03be 18       		.uleb128 0x18
 1663 03bf BF010000 		.4byte	0x1bf
 1664 03c3 53010000 		.4byte	.LLST8
 1665 03c7 00       		.byte	0
 1666 03c8 1D       		.uleb128 0x1d
 1667 03c9 08000000 		.4byte	.LVL21
 1668 03cd 27030000 		.4byte	0x327
 1669 03d1 DB030000 		.4byte	0x3db
 1670 03d5 1B       		.uleb128 0x1b
 1671 03d6 01       		.uleb128 0x1
 1672 03d7 50       		.byte	0x50
 1673 03d8 01       		.uleb128 0x1
 1674 03d9 32       		.byte	0x32
 1675 03da 00       		.byte	0
 1676 03db 1D       		.uleb128 0x1d
 1677 03dc 10000000 		.4byte	.LVL22
 1678 03e0 27030000 		.4byte	0x327
 1679 03e4 EE030000 		.4byte	0x3ee
 1680 03e8 1B       		.uleb128 0x1b
 1681 03e9 01       		.uleb128 0x1
 1682 03ea 50       		.byte	0x50
 1683 03eb 01       		.uleb128 0x1
 1684 03ec 33       		.byte	0x33
 1685 03ed 00       		.byte	0
 1686 03ee 1A       		.uleb128 0x1a
 1687 03ef 1C000000 		.4byte	.LVL24
 1688 03f3 27030000 		.4byte	0x327
 1689 03f7 1B       		.uleb128 0x1b
 1690 03f8 01       		.uleb128 0x1
 1691 03f9 50       		.byte	0x50
 1692 03fa 01       		.uleb128 0x1
 1693 03fb 32       		.byte	0x32
 1694 03fc 00       		.byte	0
 1695 03fd 00       		.byte	0
 1696 03fe 1E       		.uleb128 0x1e
ARM GAS  C:\DOCUME~1\Chuck\LOCALS~1\Temp\ccjhbcm5.s 			page 60


 1697 03ff DB020000 		.4byte	.LASF53
 1698 0403 01       		.byte	0x1
 1699 0404 6E       		.byte	0x6e
 1700 0405 76000000 		.4byte	0x76
 1701 0409 01       		.byte	0x1
 1702 040a 30040000 		.4byte	0x430
 1703 040e 1F       		.uleb128 0x1f
 1704 040f 58040000 		.4byte	.LASF54
 1705 0413 01       		.byte	0x1
 1706 0414 6E       		.byte	0x6e
 1707 0415 30040000 		.4byte	0x430
 1708 0419 1F       		.uleb128 0x1f
 1709 041a 9C010000 		.4byte	.LASF55
 1710 041e 01       		.byte	0x1
 1711 041f 6E       		.byte	0x6e
 1712 0420 76000000 		.4byte	0x76
 1713 0424 20       		.uleb128 0x20
 1714 0425 73756D00 		.ascii	"sum\000"
 1715 0429 01       		.byte	0x1
 1716 042a 9D       		.byte	0x9d
 1717 042b 76000000 		.4byte	0x76
 1718 042f 00       		.byte	0
 1719 0430 0B       		.uleb128 0xb
 1720 0431 04       		.byte	0x4
 1721 0432 36040000 		.4byte	0x436
 1722 0436 21       		.uleb128 0x21
 1723 0437 6B000000 		.4byte	0x6b
 1724 043b 1E       		.uleb128 0x1e
 1725 043c 9D040000 		.4byte	.LASF56
 1726 0440 01       		.byte	0x1
 1727 0441 BD       		.byte	0xbd
 1728 0442 6B000000 		.4byte	0x6b
 1729 0446 01       		.byte	0x1
 1730 0447 6D040000 		.4byte	0x46d
 1731 044b 1F       		.uleb128 0x1f
 1732 044c 0F050000 		.4byte	.LASF57
 1733 0450 01       		.byte	0x1
 1734 0451 BD       		.byte	0xbd
 1735 0452 81000000 		.4byte	0x81
 1736 0456 1F       		.uleb128 0x1f
 1737 0457 9C010000 		.4byte	.LASF55
 1738 045b 01       		.byte	0x1
 1739 045c BD       		.byte	0xbd
 1740 045d 81000000 		.4byte	0x81
 1741 0461 20       		.uleb128 0x20
 1742 0462 73756D00 		.ascii	"sum\000"
 1743 0466 01       		.byte	0x1
 1744 0467 C0       		.byte	0xc0
 1745 0468 6B000000 		.4byte	0x6b
 1746 046c 00       		.byte	0
 1747 046d 0C       		.uleb128 0xc
 1748 046e 53010000 		.4byte	.LASF58
 1749 0472 01       		.byte	0x1
 1750 0473 0005     		.2byte	0x500
 1751 0475 A1000000 		.4byte	0xa1
 1752 0479 01       		.byte	0x1
 1753 047a AF040000 		.4byte	0x4af
ARM GAS  C:\DOCUME~1\Chuck\LOCALS~1\Temp\ccjhbcm5.s 			page 61


 1754 047e 0D       		.uleb128 0xd
 1755 047f 8D010000 		.4byte	.LASF59
 1756 0483 01       		.byte	0x1
 1757 0484 0005     		.2byte	0x500
 1758 0486 6B000000 		.4byte	0x6b
 1759 048a 0D       		.uleb128 0xd
 1760 048b 58040000 		.4byte	.LASF54
 1761 048f 01       		.byte	0x1
 1762 0490 0005     		.2byte	0x500
 1763 0492 1D010000 		.4byte	0x11d
 1764 0496 0D       		.uleb128 0xd
 1765 0497 9C010000 		.4byte	.LASF55
 1766 049b 01       		.byte	0x1
 1767 049c 0005     		.2byte	0x500
 1768 049e 76000000 		.4byte	0x76
 1769 04a2 0E       		.uleb128 0xe
 1770 04a3 C3000000 		.4byte	.LASF52
 1771 04a7 01       		.byte	0x1
 1772 04a8 0305     		.2byte	0x503
 1773 04aa 76000000 		.4byte	0x76
 1774 04ae 00       		.byte	0
 1775 04af 16       		.uleb128 0x16
 1776 04b0 CD010000 		.4byte	0x1cd
 1777 04b4 00000000 		.4byte	.LFB46
 1778 04b8 B8020000 		.4byte	.LFE46-.LFB46
 1779 04bc 01       		.uleb128 0x1
 1780 04bd 9C       		.byte	0x9c
 1781 04be AA070000 		.4byte	0x7aa
 1782 04c2 22       		.uleb128 0x22
 1783 04c3 E6010000 		.4byte	0x1e6
 1784 04c7 03       		.uleb128 0x3
 1785 04c8 91       		.byte	0x91
 1786 04c9 8C7A     		.sleb128 -756
 1787 04cb 18       		.uleb128 0x18
 1788 04cc F2010000 		.4byte	0x1f2
 1789 04d0 66010000 		.4byte	.LLST9
 1790 04d4 18       		.uleb128 0x18
 1791 04d5 FE010000 		.4byte	0x1fe
 1792 04d9 09020000 		.4byte	.LLST10
 1793 04dd 18       		.uleb128 0x18
 1794 04de 0A020000 		.4byte	0x20a
 1795 04e2 CF020000 		.4byte	.LLST11
 1796 04e6 18       		.uleb128 0x18
 1797 04e7 16020000 		.4byte	0x216
 1798 04eb 69040000 		.4byte	.LLST12
 1799 04ef 18       		.uleb128 0x18
 1800 04f0 22020000 		.4byte	0x222
 1801 04f4 B0040000 		.4byte	.LLST13
 1802 04f8 18       		.uleb128 0x18
 1803 04f9 2E020000 		.4byte	0x22e
 1804 04fd 1B050000 		.4byte	.LLST14
 1805 0501 23       		.uleb128 0x23
 1806 0502 3A020000 		.4byte	0x23a
 1807 0506 0A       		.byte	0xa
 1808 0507 18       		.uleb128 0x18
 1809 0508 46020000 		.4byte	0x246
 1810 050c 73050000 		.4byte	.LLST15
ARM GAS  C:\DOCUME~1\Chuck\LOCALS~1\Temp\ccjhbcm5.s 			page 62


 1811 0510 18       		.uleb128 0x18
 1812 0511 52020000 		.4byte	0x252
 1813 0515 BA050000 		.4byte	.LLST16
 1814 0519 22       		.uleb128 0x22
 1815 051a 5E020000 		.4byte	0x25e
 1816 051e 03       		.uleb128 0x3
 1817 051f 91       		.byte	0x91
 1818 0520 907B     		.sleb128 -624
 1819 0522 22       		.uleb128 0x22
 1820 0523 6A020000 		.4byte	0x26a
 1821 0527 03       		.uleb128 0x3
 1822 0528 91       		.byte	0x91
 1823 0529 BC7D     		.sleb128 -324
 1824 052b 19       		.uleb128 0x19
 1825 052c DA010000 		.4byte	0x1da
 1826 0530 00       		.byte	0
 1827 0531 24       		.uleb128 0x24
 1828 0532 00000000 		.4byte	.Ldebug_ranges0+0
 1829 0536 B5060000 		.4byte	0x6b5
 1830 053a 18       		.uleb128 0x18
 1831 053b 77020000 		.4byte	0x277
 1832 053f E5050000 		.4byte	.LLST17
 1833 0543 1C       		.uleb128 0x1c
 1834 0544 D4000000 		.4byte	.LBB23
 1835 0548 16000000 		.4byte	.LBE23-.LBB23
 1836 054c 94050000 		.4byte	0x594
 1837 0550 22       		.uleb128 0x22
 1838 0551 9A020000 		.4byte	0x29a
 1839 0555 03       		.uleb128 0x3
 1840 0556 91       		.byte	0x91
 1841 0557 907A     		.sleb128 -752
 1842 0559 1D       		.uleb128 0x1d
 1843 055a DE000000 		.4byte	.LVL58
 1844 055e AF090000 		.4byte	0x9af
 1845 0562 7C050000 		.4byte	0x57c
 1846 0566 1B       		.uleb128 0x1b
 1847 0567 01       		.uleb128 0x1
 1848 0568 52       		.byte	0x52
 1849 0569 02       		.uleb128 0x2
 1850 056a 08       		.byte	0x8
 1851 056b 80       		.byte	0x80
 1852 056c 1B       		.uleb128 0x1b
 1853 056d 01       		.uleb128 0x1
 1854 056e 51       		.byte	0x51
 1855 056f 04       		.uleb128 0x4
 1856 0570 91       		.byte	0x91
 1857 0571 FC79     		.sleb128 -772
 1858 0573 06       		.byte	0x6
 1859 0574 1B       		.uleb128 0x1b
 1860 0575 01       		.uleb128 0x1
 1861 0576 50       		.byte	0x50
 1862 0577 03       		.uleb128 0x3
 1863 0578 91       		.byte	0x91
 1864 0579 907A     		.sleb128 -752
 1865 057b 00       		.byte	0
 1866 057c 1A       		.uleb128 0x1a
 1867 057d E6000000 		.4byte	.LVL59
ARM GAS  C:\DOCUME~1\Chuck\LOCALS~1\Temp\ccjhbcm5.s 			page 63


 1868 0581 CC090000 		.4byte	0x9cc
 1869 0585 1B       		.uleb128 0x1b
 1870 0586 01       		.uleb128 0x1
 1871 0587 51       		.byte	0x51
 1872 0588 03       		.uleb128 0x3
 1873 0589 91       		.byte	0x91
 1874 058a 907A     		.sleb128 -752
 1875 058c 1B       		.uleb128 0x1b
 1876 058d 01       		.uleb128 0x1
 1877 058e 50       		.byte	0x50
 1878 058f 02       		.uleb128 0x2
 1879 0590 08       		.byte	0x8
 1880 0591 FF       		.byte	0xff
 1881 0592 00       		.byte	0
 1882 0593 00       		.byte	0
 1883 0594 1C       		.uleb128 0x1c
 1884 0595 AC010000 		.4byte	.LBB24
 1885 0599 1A000000 		.4byte	.LBE24-.LBB24
 1886 059d AB050000 		.4byte	0x5ab
 1887 05a1 18       		.uleb128 0x18
 1888 05a2 88020000 		.4byte	0x288
 1889 05a6 61060000 		.4byte	.LLST18
 1890 05aa 00       		.byte	0
 1891 05ab 1C       		.uleb128 0x1c
 1892 05ac FE010000 		.4byte	.LBB25
 1893 05b0 18000000 		.4byte	.LBE25-.LBB25
 1894 05b4 C2050000 		.4byte	0x5c2
 1895 05b8 22       		.uleb128 0x22
 1896 05b9 AC020000 		.4byte	0x2ac
 1897 05bd 03       		.uleb128 0x3
 1898 05be 91       		.byte	0x91
 1899 05bf 907A     		.sleb128 -752
 1900 05c1 00       		.byte	0
 1901 05c2 1C       		.uleb128 0x1c
 1902 05c3 1E020000 		.4byte	.LBB26
 1903 05c7 4A000000 		.4byte	.LBE26-.LBB26
 1904 05cb 21060000 		.4byte	0x621
 1905 05cf 18       		.uleb128 0x18
 1906 05d0 BA020000 		.4byte	0x2ba
 1907 05d4 74060000 		.4byte	.LLST19
 1908 05d8 18       		.uleb128 0x18
 1909 05d9 C6020000 		.4byte	0x2c6
 1910 05dd 87060000 		.4byte	.LLST20
 1911 05e1 18       		.uleb128 0x18
 1912 05e2 D2020000 		.4byte	0x2d2
 1913 05e6 C4060000 		.4byte	.LLST21
 1914 05ea 25       		.uleb128 0x25
 1915 05eb 3B040000 		.4byte	0x43b
 1916 05ef 2E020000 		.4byte	.LBB27
 1917 05f3 18000000 		.4byte	.LBE27-.LBB27
 1918 05f7 01       		.byte	0x1
 1919 05f8 A004     		.2byte	0x4a0
 1920 05fa 17       		.uleb128 0x17
 1921 05fb 56040000 		.4byte	0x456
 1922 05ff E2060000 		.4byte	.LLST22
 1923 0603 17       		.uleb128 0x17
 1924 0604 4B040000 		.4byte	0x44b
ARM GAS  C:\DOCUME~1\Chuck\LOCALS~1\Temp\ccjhbcm5.s 			page 64


 1925 0608 87060000 		.4byte	.LLST20
 1926 060c 26       		.uleb128 0x26
 1927 060d 2E020000 		.4byte	.LBB28
 1928 0611 18000000 		.4byte	.LBE28-.LBB28
 1929 0615 18       		.uleb128 0x18
 1930 0616 61040000 		.4byte	0x461
 1931 061a 1C070000 		.4byte	.LLST24
 1932 061e 00       		.byte	0
 1933 061f 00       		.byte	0
 1934 0620 00       		.byte	0
 1935 0621 1D       		.uleb128 0x1d
 1936 0622 AA000000 		.4byte	.LVL53
 1937 0626 AF090000 		.4byte	0x9af
 1938 062a 3B060000 		.4byte	0x63b
 1939 062e 1B       		.uleb128 0x1b
 1940 062f 01       		.uleb128 0x1
 1941 0630 51       		.byte	0x51
 1942 0631 01       		.uleb128 0x1
 1943 0632 30       		.byte	0x30
 1944 0633 1B       		.uleb128 0x1b
 1945 0634 01       		.uleb128 0x1
 1946 0635 50       		.byte	0x50
 1947 0636 03       		.uleb128 0x3
 1948 0637 91       		.byte	0x91
 1949 0638 BC7D     		.sleb128 -324
 1950 063a 00       		.byte	0
 1951 063b 1D       		.uleb128 0x1d
 1952 063c C0000000 		.4byte	.LVL56
 1953 0640 E6090000 		.4byte	0x9e6
 1954 0644 56060000 		.4byte	0x656
 1955 0648 1B       		.uleb128 0x1b
 1956 0649 01       		.uleb128 0x1
 1957 064a 52       		.byte	0x52
 1958 064b 02       		.uleb128 0x2
 1959 064c 75       		.byte	0x75
 1960 064d 7D       		.sleb128 -3
 1961 064e 1B       		.uleb128 0x1b
 1962 064f 01       		.uleb128 0x1
 1963 0650 51       		.byte	0x51
 1964 0651 03       		.uleb128 0x3
 1965 0652 91       		.byte	0x91
 1966 0653 977B     		.sleb128 -617
 1967 0655 00       		.byte	0
 1968 0656 1D       		.uleb128 0x1d
 1969 0657 F2000000 		.4byte	.LVL61
 1970 065b CC090000 		.4byte	0x9cc
 1971 065f 71060000 		.4byte	0x671
 1972 0663 1B       		.uleb128 0x1b
 1973 0664 01       		.uleb128 0x1
 1974 0665 51       		.byte	0x51
 1975 0666 03       		.uleb128 0x3
 1976 0667 91       		.byte	0x91
 1977 0668 BC7D     		.sleb128 -324
 1978 066a 1B       		.uleb128 0x1b
 1979 066b 01       		.uleb128 0x1
 1980 066c 50       		.byte	0x50
 1981 066d 02       		.uleb128 0x2
ARM GAS  C:\DOCUME~1\Chuck\LOCALS~1\Temp\ccjhbcm5.s 			page 65


 1982 066e 74       		.byte	0x74
 1983 066f 00       		.sleb128 0
 1984 0670 00       		.byte	0
 1985 0671 27       		.uleb128 0x27
 1986 0672 92010000 		.4byte	.LVL84
 1987 0676 74030000 		.4byte	0x374
 1988 067a 1D       		.uleb128 0x1d
 1989 067b F4010000 		.4byte	.LVL95
 1990 067f E6090000 		.4byte	0x9e6
 1991 0683 A2060000 		.4byte	0x6a2
 1992 0687 1B       		.uleb128 0x1b
 1993 0688 01       		.uleb128 0x1
 1994 0689 52       		.byte	0x52
 1995 068a 02       		.uleb128 0x2
 1996 068b 75       		.byte	0x75
 1997 068c 00       		.sleb128 0
 1998 068d 1B       		.uleb128 0x1b
 1999 068e 01       		.uleb128 0x1
 2000 068f 51       		.byte	0x51
 2001 0690 03       		.uleb128 0x3
 2002 0691 91       		.byte	0x91
 2003 0692 947B     		.sleb128 -620
 2004 0694 1B       		.uleb128 0x1b
 2005 0695 01       		.uleb128 0x1
 2006 0696 50       		.byte	0x50
 2007 0697 09       		.uleb128 0x9
 2008 0698 91       		.byte	0x91
 2009 0699 00       		.sleb128 0
 2010 069a 74       		.byte	0x74
 2011 069b 00       		.sleb128 0
 2012 069c 22       		.byte	0x22
 2013 069d 0A       		.byte	0xa
 2014 069e 4401     		.2byte	0x144
 2015 06a0 1C       		.byte	0x1c
 2016 06a1 00       		.byte	0
 2017 06a2 27       		.uleb128 0x27
 2018 06a3 6C020000 		.4byte	.LVL117
 2019 06a7 74030000 		.4byte	0x374
 2020 06ab 27       		.uleb128 0x27
 2021 06ac 7A020000 		.4byte	.LVL118
 2022 06b0 0A0A0000 		.4byte	0xa0a
 2023 06b4 00       		.byte	0
 2024 06b5 28       		.uleb128 0x28
 2025 06b6 FE030000 		.4byte	0x3fe
 2026 06ba 5E000000 		.4byte	.LBB29
 2027 06be 20000000 		.4byte	.Ldebug_ranges0+0x20
 2028 06c2 01       		.byte	0x1
 2029 06c3 A902     		.2byte	0x2a9
 2030 06c5 EB060000 		.4byte	0x6eb
 2031 06c9 17       		.uleb128 0x17
 2032 06ca 19040000 		.4byte	0x419
 2033 06ce 46070000 		.4byte	.LLST25
 2034 06d2 17       		.uleb128 0x17
 2035 06d3 0E040000 		.4byte	0x40e
 2036 06d7 64070000 		.4byte	.LLST26
 2037 06db 29       		.uleb128 0x29
 2038 06dc 20000000 		.4byte	.Ldebug_ranges0+0x20
ARM GAS  C:\DOCUME~1\Chuck\LOCALS~1\Temp\ccjhbcm5.s 			page 66


 2039 06e0 18       		.uleb128 0x18
 2040 06e1 24040000 		.4byte	0x424
 2041 06e5 82070000 		.4byte	.LLST27
 2042 06e9 00       		.byte	0
 2043 06ea 00       		.byte	0
 2044 06eb 2A       		.uleb128 0x2a
 2045 06ec 6D040000 		.4byte	0x46d
 2046 06f0 00010000 		.4byte	.LBB36
 2047 06f4 5A000000 		.4byte	.LBE36-.LBB36
 2048 06f8 01       		.byte	0x1
 2049 06f9 E504     		.2byte	0x4e5
 2050 06fb 7D070000 		.4byte	0x77d
 2051 06ff 17       		.uleb128 0x17
 2052 0700 96040000 		.4byte	0x496
 2053 0704 A0070000 		.4byte	.LLST28
 2054 0708 17       		.uleb128 0x17
 2055 0709 8A040000 		.4byte	0x48a
 2056 070d B5070000 		.4byte	.LLST29
 2057 0711 17       		.uleb128 0x17
 2058 0712 7E040000 		.4byte	0x47e
 2059 0716 C8070000 		.4byte	.LLST30
 2060 071a 26       		.uleb128 0x26
 2061 071b 00010000 		.4byte	.LBB37
 2062 071f 5A000000 		.4byte	.LBE37-.LBB37
 2063 0723 2B       		.uleb128 0x2b
 2064 0724 A2040000 		.4byte	0x4a2
 2065 0728 28       		.uleb128 0x28
 2066 0729 FE030000 		.4byte	0x3fe
 2067 072d 16010000 		.4byte	.LBB38
 2068 0731 40000000 		.4byte	.Ldebug_ranges0+0x40
 2069 0735 01       		.byte	0x1
 2070 0736 0C05     		.2byte	0x50c
 2071 0738 5E070000 		.4byte	0x75e
 2072 073c 17       		.uleb128 0x17
 2073 073d 19040000 		.4byte	0x419
 2074 0741 E7070000 		.4byte	.LLST31
 2075 0745 17       		.uleb128 0x17
 2076 0746 0E040000 		.4byte	0x40e
 2077 074a 05080000 		.4byte	.LLST32
 2078 074e 29       		.uleb128 0x29
 2079 074f 40000000 		.4byte	.Ldebug_ranges0+0x40
 2080 0753 18       		.uleb128 0x18
 2081 0754 24040000 		.4byte	0x424
 2082 0758 18080000 		.4byte	.LLST33
 2083 075c 00       		.byte	0
 2084 075d 00       		.byte	0
 2085 075e 1A       		.uleb128 0x1a
 2086 075f 58010000 		.4byte	.LVL77
 2087 0763 110A0000 		.4byte	0xa11
 2088 0767 1B       		.uleb128 0x1b
 2089 0768 01       		.uleb128 0x1
 2090 0769 53       		.byte	0x53
 2091 076a 02       		.uleb128 0x2
 2092 076b 09       		.byte	0x9
 2093 076c 96       		.byte	0x96
 2094 076d 1B       		.uleb128 0x1b
 2095 076e 01       		.uleb128 0x1
ARM GAS  C:\DOCUME~1\Chuck\LOCALS~1\Temp\ccjhbcm5.s 			page 67


 2096 076f 52       		.byte	0x52
 2097 0770 03       		.uleb128 0x3
 2098 0771 91       		.byte	0x91
 2099 0772 8E7A     		.sleb128 -754
 2100 0774 1B       		.uleb128 0x1b
 2101 0775 01       		.uleb128 0x1
 2102 0776 50       		.byte	0x50
 2103 0777 02       		.uleb128 0x2
 2104 0778 76       		.byte	0x76
 2105 0779 00       		.sleb128 0
 2106 077a 00       		.byte	0
 2107 077b 00       		.byte	0
 2108 077c 00       		.byte	0
 2109 077d 27       		.uleb128 0x27
 2110 077e 0A000000 		.4byte	.LVL37
 2111 0782 3B0A0000 		.4byte	0xa3b
 2112 0786 1A       		.uleb128 0x1a
 2113 0787 24000000 		.4byte	.LVL39
 2114 078b 420A0000 		.4byte	0xa42
 2115 078f 1B       		.uleb128 0x1b
 2116 0790 01       		.uleb128 0x1
 2117 0791 53       		.byte	0x53
 2118 0792 02       		.uleb128 0x2
 2119 0793 09       		.byte	0x9
 2120 0794 FF       		.byte	0xff
 2121 0795 1B       		.uleb128 0x1b
 2122 0796 01       		.uleb128 0x1
 2123 0797 52       		.byte	0x52
 2124 0798 02       		.uleb128 0x2
 2125 0799 75       		.byte	0x75
 2126 079a 00       		.sleb128 0
 2127 079b 1B       		.uleb128 0x1b
 2128 079c 01       		.uleb128 0x1
 2129 079d 51       		.byte	0x51
 2130 079e 03       		.uleb128 0x3
 2131 079f 0A       		.byte	0xa
 2132 07a0 2C01     		.2byte	0x12c
 2133 07a2 1B       		.uleb128 0x1b
 2134 07a3 01       		.uleb128 0x1
 2135 07a4 50       		.byte	0x50
 2136 07a5 02       		.uleb128 0x2
 2137 07a6 76       		.byte	0x76
 2138 07a7 00       		.sleb128 0
 2139 07a8 00       		.byte	0
 2140 07a9 00       		.byte	0
 2141 07aa 2C       		.uleb128 0x2c
 2142 07ab 3F030000 		.4byte	.LASF88
 2143 07af 01       		.byte	0x1
 2144 07b0 8901     		.2byte	0x189
 2145 07b2 01       		.byte	0x1
 2146 07b3 2D       		.uleb128 0x2d
 2147 07b4 32010000 		.4byte	.LASF61
 2148 07b8 01       		.byte	0x1
 2149 07b9 1001     		.2byte	0x110
 2150 07bb 00000000 		.4byte	.LFB35
 2151 07bf 5C000000 		.4byte	.LFE35-.LFB35
 2152 07c3 01       		.uleb128 0x1
ARM GAS  C:\DOCUME~1\Chuck\LOCALS~1\Temp\ccjhbcm5.s 			page 68


 2153 07c4 9C       		.byte	0x9c
 2154 07c5 60080000 		.4byte	0x860
 2155 07c9 2E       		.uleb128 0x2e
 2156 07ca 0A010000 		.4byte	.LASF31
 2157 07ce 01       		.byte	0x1
 2158 07cf 1301     		.2byte	0x113
 2159 07d1 6B000000 		.4byte	0x6b
 2160 07d5 44080000 		.4byte	.LLST34
 2161 07d9 2E       		.uleb128 0x2e
 2162 07da 19010000 		.4byte	.LASF60
 2163 07de 01       		.byte	0x1
 2164 07df 1A01     		.2byte	0x11a
 2165 07e1 A1000000 		.4byte	0xa1
 2166 07e5 5D080000 		.4byte	.LLST35
 2167 07e9 28       		.uleb128 0x28
 2168 07ea 3B040000 		.4byte	0x43b
 2169 07ee 08000000 		.4byte	.LBB49
 2170 07f2 60000000 		.4byte	.Ldebug_ranges0+0x60
 2171 07f6 01       		.byte	0x1
 2172 07f7 4901     		.2byte	0x149
 2173 07f9 1C080000 		.4byte	0x81c
 2174 07fd 17       		.uleb128 0x17
 2175 07fe 56040000 		.4byte	0x456
 2176 0802 7B080000 		.4byte	.LLST36
 2177 0806 19       		.uleb128 0x19
 2178 0807 4B040000 		.4byte	0x44b
 2179 080b C0       		.byte	0xc0
 2180 080c 29       		.uleb128 0x29
 2181 080d 60000000 		.4byte	.Ldebug_ranges0+0x60
 2182 0811 18       		.uleb128 0x18
 2183 0812 61040000 		.4byte	0x461
 2184 0816 C9080000 		.4byte	.LLST37
 2185 081a 00       		.byte	0
 2186 081b 00       		.byte	0
 2187 081c 28       		.uleb128 0x28
 2188 081d AA070000 		.4byte	0x7aa
 2189 0821 4A000000 		.4byte	.LBB53
 2190 0825 78000000 		.4byte	.Ldebug_ranges0+0x78
 2191 0829 01       		.byte	0x1
 2192 082a 7701     		.2byte	0x177
 2193 082c 3A080000 		.4byte	0x83a
 2194 0830 27       		.uleb128 0x27
 2195 0831 52000000 		.4byte	.LVL136
 2196 0835 0A0A0000 		.4byte	0xa0a
 2197 0839 00       		.byte	0
 2198 083a 1D       		.uleb128 0x1d
 2199 083b 30000000 		.4byte	.LVL133
 2200 083f 9E090000 		.4byte	0x99e
 2201 0843 4D080000 		.4byte	0x84d
 2202 0847 1B       		.uleb128 0x1b
 2203 0848 01       		.uleb128 0x1
 2204 0849 50       		.byte	0x50
 2205 084a 01       		.uleb128 0x1
 2206 084b 30       		.byte	0x30
 2207 084c 00       		.byte	0
 2208 084d 27       		.uleb128 0x27
 2209 084e 34000000 		.4byte	.LVL134
ARM GAS  C:\DOCUME~1\Chuck\LOCALS~1\Temp\ccjhbcm5.s 			page 69


 2210 0852 74030000 		.4byte	0x374
 2211 0856 27       		.uleb128 0x27
 2212 0857 4A000000 		.4byte	.LVL135
 2213 085b AF040000 		.4byte	0x4af
 2214 085f 00       		.byte	0
 2215 0860 2D       		.uleb128 0x2d
 2216 0861 72020000 		.4byte	.LASF62
 2217 0865 01       		.byte	0x1
 2218 0866 A301     		.2byte	0x1a3
 2219 0868 00000000 		.4byte	.LFB37
 2220 086c 38000000 		.4byte	.LFE37-.LFB37
 2221 0870 01       		.uleb128 0x1
 2222 0871 9C       		.byte	0x9c
 2223 0872 A6080000 		.4byte	0x8a6
 2224 0876 1D       		.uleb128 0x1d
 2225 0877 20000000 		.4byte	.LVL137
 2226 087b 27030000 		.4byte	0x327
 2227 087f 89080000 		.4byte	0x889
 2228 0883 1B       		.uleb128 0x1b
 2229 0884 01       		.uleb128 0x1
 2230 0885 50       		.byte	0x50
 2231 0886 01       		.uleb128 0x1
 2232 0887 31       		.byte	0x31
 2233 0888 00       		.byte	0
 2234 0889 1D       		.uleb128 0x1d
 2235 088a 2A000000 		.4byte	.LVL138
 2236 088e 27030000 		.4byte	0x327
 2237 0892 9C080000 		.4byte	0x89c
 2238 0896 1B       		.uleb128 0x1b
 2239 0897 01       		.uleb128 0x1
 2240 0898 50       		.byte	0x50
 2241 0899 01       		.uleb128 0x1
 2242 089a 31       		.byte	0x31
 2243 089b 00       		.byte	0
 2244 089c 27       		.uleb128 0x27
 2245 089d 2E000000 		.4byte	.LVL139
 2246 08a1 02030000 		.4byte	0x302
 2247 08a5 00       		.byte	0
 2248 08a6 2D       		.uleb128 0x2d
 2249 08a7 B1020000 		.4byte	.LASF63
 2250 08ab 01       		.byte	0x1
 2251 08ac 2905     		.2byte	0x529
 2252 08ae 00000000 		.4byte	.LFB42
 2253 08b2 3E000000 		.4byte	.LFE42-.LFB42
 2254 08b6 01       		.uleb128 0x1
 2255 08b7 9C       		.byte	0x9c
 2256 08b8 44090000 		.4byte	0x944
 2257 08bc 2F       		.uleb128 0x2f
 2258 08bd 75030000 		.4byte	.LASF65
 2259 08c1 01       		.byte	0x1
 2260 08c2 2905     		.2byte	0x529
 2261 08c4 81000000 		.4byte	0x81
 2262 08c8 F3080000 		.4byte	.LLST38
 2263 08cc 2F       		.uleb128 0x2f
 2264 08cd DB030000 		.4byte	.LASF66
 2265 08d1 01       		.byte	0x1
 2266 08d2 2905     		.2byte	0x529
ARM GAS  C:\DOCUME~1\Chuck\LOCALS~1\Temp\ccjhbcm5.s 			page 70


 2267 08d4 6B000000 		.4byte	0x6b
 2268 08d8 14090000 		.4byte	.LLST39
 2269 08dc 2E       		.uleb128 0x2e
 2270 08dd DE040000 		.4byte	.LASF67
 2271 08e1 01       		.byte	0x1
 2272 08e2 2B05     		.2byte	0x52b
 2273 08e4 81000000 		.4byte	0x81
 2274 08e8 F3080000 		.4byte	.LLST38
 2275 08ec 30       		.uleb128 0x30
 2276 08ed F7040000 		.4byte	.LASF68
 2277 08f1 01       		.byte	0x1
 2278 08f2 2C05     		.2byte	0x52c
 2279 08f4 F2020000 		.4byte	0x2f2
 2280 08f8 03       		.uleb128 0x3
 2281 08f9 91       		.byte	0x91
 2282 08fa E87E     		.sleb128 -152
 2283 08fc 2E       		.uleb128 0x2e
 2284 08fd EC000000 		.4byte	.LASF50
 2285 0901 01       		.byte	0x1
 2286 0902 3205     		.2byte	0x532
 2287 0904 76000000 		.4byte	0x76
 2288 0908 35090000 		.4byte	.LLST41
 2289 090c 2E       		.uleb128 0x2e
 2290 090d A8000000 		.4byte	.LASF69
 2291 0911 01       		.byte	0x1
 2292 0912 3305     		.2byte	0x533
 2293 0914 81000000 		.4byte	0x81
 2294 0918 5A090000 		.4byte	.LLST42
 2295 091c 31       		.uleb128 0x31
 2296 091d 69647800 		.ascii	"idx\000"
 2297 0921 01       		.byte	0x1
 2298 0922 3405     		.2byte	0x534
 2299 0924 76000000 		.4byte	0x76
 2300 0928 97090000 		.4byte	.LLST43
 2301 092c 1A       		.uleb128 0x1a
 2302 092d 3A000000 		.4byte	.LVL146
 2303 0931 CC090000 		.4byte	0x9cc
 2304 0935 1B       		.uleb128 0x1b
 2305 0936 01       		.uleb128 0x1
 2306 0937 51       		.byte	0x51
 2307 0938 03       		.uleb128 0x3
 2308 0939 91       		.byte	0x91
 2309 093a E87E     		.sleb128 -152
 2310 093c 1B       		.uleb128 0x1b
 2311 093d 01       		.uleb128 0x1
 2312 093e 50       		.byte	0x50
 2313 093f 02       		.uleb128 0x2
 2314 0940 74       		.byte	0x74
 2315 0941 00       		.sleb128 0
 2316 0942 00       		.byte	0
 2317 0943 00       		.byte	0
 2318 0944 32       		.uleb128 0x32
 2319 0945 49050000 		.4byte	.LASF70
 2320 0949 01       		.byte	0x1
 2321 094a 26       		.byte	0x26
 2322 094b 36040000 		.4byte	0x436
 2323 094f 05       		.uleb128 0x5
ARM GAS  C:\DOCUME~1\Chuck\LOCALS~1\Temp\ccjhbcm5.s 			page 71


 2324 0950 03       		.byte	0x3
 2325 0951 00000000 		.4byte	Bootloader_Checksum
 2326 0955 32       		.uleb128 0x32
 2327 0956 72040000 		.4byte	.LASF71
 2328 095a 01       		.byte	0x1
 2329 095b 27       		.byte	0x27
 2330 095c 30040000 		.4byte	0x430
 2331 0960 05       		.uleb128 0x5
 2332 0961 03       		.byte	0x3
 2333 0962 00000000 		.4byte	Bootloader_ChecksumAccess
 2334 0966 32       		.uleb128 0x32
 2335 0967 9D030000 		.4byte	.LASF72
 2336 096b 01       		.byte	0x1
 2337 096c 2F       		.byte	0x2f
 2338 096d 77090000 		.4byte	0x977
 2339 0971 05       		.uleb128 0x5
 2340 0972 03       		.byte	0x3
 2341 0973 00000000 		.4byte	Bootloader_SizeBytes
 2342 0977 21       		.uleb128 0x21
 2343 0978 81000000 		.4byte	0x81
 2344 097c 32       		.uleb128 0x32
 2345 097d 2C040000 		.4byte	.LASF73
 2346 0981 01       		.byte	0x1
 2347 0982 30       		.byte	0x30
 2348 0983 8D090000 		.4byte	0x98d
 2349 0987 05       		.uleb128 0x5
 2350 0988 03       		.byte	0x3
 2351 0989 00000000 		.4byte	Bootloader_SizeBytesAccess
 2352 098d 0B       		.uleb128 0xb
 2353 098e 04       		.byte	0x4
 2354 098f 77090000 		.4byte	0x977
 2355 0993 33       		.uleb128 0x33
 2356 0994 23010000 		.4byte	.LASF74
 2357 0998 04       		.byte	0x4
 2358 0999 60       		.byte	0x60
 2359 099a C7000000 		.4byte	0xc7
 2360 099e 34       		.uleb128 0x34
 2361 099f 3B050000 		.4byte	.LASF75
 2362 09a3 06       		.byte	0x6
 2363 09a4 75       		.byte	0x75
 2364 09a5 AF090000 		.4byte	0x9af
 2365 09a9 35       		.uleb128 0x35
 2366 09aa 6B000000 		.4byte	0x6b
 2367 09ae 00       		.byte	0
 2368 09af 36       		.uleb128 0x36
 2369 09b0 96040000 		.4byte	.LASF76
 2370 09b4 1B010000 		.4byte	0x11b
 2371 09b8 CC090000 		.4byte	0x9cc
 2372 09bc 35       		.uleb128 0x35
 2373 09bd 1B010000 		.4byte	0x11b
 2374 09c1 35       		.uleb128 0x35
 2375 09c2 5D000000 		.4byte	0x5d
 2376 09c6 35       		.uleb128 0x35
 2377 09c7 09010000 		.4byte	0x109
 2378 09cb 00       		.byte	0
 2379 09cc 37       		.uleb128 0x37
 2380 09cd CB040000 		.4byte	.LASF78
ARM GAS  C:\DOCUME~1\Chuck\LOCALS~1\Temp\ccjhbcm5.s 			page 72


 2381 09d1 05       		.byte	0x5
 2382 09d2 1C       		.byte	0x1c
 2383 09d3 A1000000 		.4byte	0xa1
 2384 09d7 E6090000 		.4byte	0x9e6
 2385 09db 35       		.uleb128 0x35
 2386 09dc 81000000 		.4byte	0x81
 2387 09e0 35       		.uleb128 0x35
 2388 09e1 30040000 		.4byte	0x430
 2389 09e5 00       		.byte	0
 2390 09e6 36       		.uleb128 0x36
 2391 09e7 23020000 		.4byte	.LASF77
 2392 09eb 1B010000 		.4byte	0x11b
 2393 09ef 030A0000 		.4byte	0xa03
 2394 09f3 35       		.uleb128 0x35
 2395 09f4 1B010000 		.4byte	0x11b
 2396 09f8 35       		.uleb128 0x35
 2397 09f9 030A0000 		.4byte	0xa03
 2398 09fd 35       		.uleb128 0x35
 2399 09fe 09010000 		.4byte	0x109
 2400 0a02 00       		.byte	0
 2401 0a03 0B       		.uleb128 0xb
 2402 0a04 04       		.byte	0x4
 2403 0a05 090A0000 		.4byte	0xa09
 2404 0a09 38       		.uleb128 0x38
 2405 0a0a 39       		.uleb128 0x39
 2406 0a0b 43010000 		.4byte	.LASF80
 2407 0a0f 06       		.byte	0x6
 2408 0a10 72       		.byte	0x72
 2409 0a11 37       		.uleb128 0x37
 2410 0a12 12020000 		.4byte	.LASF79
 2411 0a16 04       		.byte	0x4
 2412 0a17 A0       		.byte	0xa0
 2413 0a18 A1000000 		.4byte	0xa1
 2414 0a1c 350A0000 		.4byte	0xa35
 2415 0a20 35       		.uleb128 0x35
 2416 0a21 1D010000 		.4byte	0x11d
 2417 0a25 35       		.uleb128 0x35
 2418 0a26 76000000 		.4byte	0x76
 2419 0a2a 35       		.uleb128 0x35
 2420 0a2b 350A0000 		.4byte	0xa35
 2421 0a2f 35       		.uleb128 0x35
 2422 0a30 6B000000 		.4byte	0x6b
 2423 0a34 00       		.byte	0
 2424 0a35 0B       		.uleb128 0xb
 2425 0a36 04       		.byte	0x4
 2426 0a37 76000000 		.4byte	0x76
 2427 0a3b 39       		.uleb128 0x39
 2428 0a3c F5030000 		.4byte	.LASF81
 2429 0a40 04       		.byte	0x4
 2430 0a41 9D       		.byte	0x9d
 2431 0a42 3A       		.uleb128 0x3a
 2432 0a43 CB030000 		.4byte	.LASF82
 2433 0a47 04       		.byte	0x4
 2434 0a48 A1       		.byte	0xa1
 2435 0a49 A1000000 		.4byte	0xa1
 2436 0a4d 35       		.uleb128 0x35
 2437 0a4e 1D010000 		.4byte	0x11d
ARM GAS  C:\DOCUME~1\Chuck\LOCALS~1\Temp\ccjhbcm5.s 			page 73


 2438 0a52 35       		.uleb128 0x35
 2439 0a53 76000000 		.4byte	0x76
 2440 0a57 35       		.uleb128 0x35
 2441 0a58 350A0000 		.4byte	0xa35
 2442 0a5c 35       		.uleb128 0x35
 2443 0a5d 6B000000 		.4byte	0x6b
 2444 0a61 00       		.byte	0
 2445 0a62 00       		.byte	0
 2446              		.section	.debug_abbrev,"",%progbits
 2447              	.Ldebug_abbrev0:
 2448 0000 01       		.uleb128 0x1
 2449 0001 11       		.uleb128 0x11
 2450 0002 01       		.byte	0x1
 2451 0003 25       		.uleb128 0x25
 2452 0004 0E       		.uleb128 0xe
 2453 0005 13       		.uleb128 0x13
 2454 0006 0B       		.uleb128 0xb
 2455 0007 03       		.uleb128 0x3
 2456 0008 0E       		.uleb128 0xe
 2457 0009 1B       		.uleb128 0x1b
 2458 000a 0E       		.uleb128 0xe
 2459 000b 55       		.uleb128 0x55
 2460 000c 17       		.uleb128 0x17
 2461 000d 11       		.uleb128 0x11
 2462 000e 01       		.uleb128 0x1
 2463 000f 10       		.uleb128 0x10
 2464 0010 17       		.uleb128 0x17
 2465 0011 00       		.byte	0
 2466 0012 00       		.byte	0
 2467 0013 02       		.uleb128 0x2
 2468 0014 24       		.uleb128 0x24
 2469 0015 00       		.byte	0
 2470 0016 0B       		.uleb128 0xb
 2471 0017 0B       		.uleb128 0xb
 2472 0018 3E       		.uleb128 0x3e
 2473 0019 0B       		.uleb128 0xb
 2474 001a 03       		.uleb128 0x3
 2475 001b 0E       		.uleb128 0xe
 2476 001c 00       		.byte	0
 2477 001d 00       		.byte	0
 2478 001e 03       		.uleb128 0x3
 2479 001f 24       		.uleb128 0x24
 2480 0020 00       		.byte	0
 2481 0021 0B       		.uleb128 0xb
 2482 0022 0B       		.uleb128 0xb
 2483 0023 3E       		.uleb128 0x3e
 2484 0024 0B       		.uleb128 0xb
 2485 0025 03       		.uleb128 0x3
 2486 0026 08       		.uleb128 0x8
 2487 0027 00       		.byte	0
 2488 0028 00       		.byte	0
 2489 0029 04       		.uleb128 0x4
 2490 002a 16       		.uleb128 0x16
 2491 002b 00       		.byte	0
 2492 002c 03       		.uleb128 0x3
 2493 002d 0E       		.uleb128 0xe
 2494 002e 3A       		.uleb128 0x3a
ARM GAS  C:\DOCUME~1\Chuck\LOCALS~1\Temp\ccjhbcm5.s 			page 74


 2495 002f 0B       		.uleb128 0xb
 2496 0030 3B       		.uleb128 0x3b
 2497 0031 0B       		.uleb128 0xb
 2498 0032 49       		.uleb128 0x49
 2499 0033 13       		.uleb128 0x13
 2500 0034 00       		.byte	0
 2501 0035 00       		.byte	0
 2502 0036 05       		.uleb128 0x5
 2503 0037 35       		.uleb128 0x35
 2504 0038 00       		.byte	0
 2505 0039 49       		.uleb128 0x49
 2506 003a 13       		.uleb128 0x13
 2507 003b 00       		.byte	0
 2508 003c 00       		.byte	0
 2509 003d 06       		.uleb128 0x6
 2510 003e 13       		.uleb128 0x13
 2511 003f 01       		.byte	0x1
 2512 0040 0B       		.uleb128 0xb
 2513 0041 0B       		.uleb128 0xb
 2514 0042 3A       		.uleb128 0x3a
 2515 0043 0B       		.uleb128 0xb
 2516 0044 3B       		.uleb128 0x3b
 2517 0045 0B       		.uleb128 0xb
 2518 0046 01       		.uleb128 0x1
 2519 0047 13       		.uleb128 0x13
 2520 0048 00       		.byte	0
 2521 0049 00       		.byte	0
 2522 004a 07       		.uleb128 0x7
 2523 004b 0D       		.uleb128 0xd
 2524 004c 00       		.byte	0
 2525 004d 03       		.uleb128 0x3
 2526 004e 0E       		.uleb128 0xe
 2527 004f 3A       		.uleb128 0x3a
 2528 0050 0B       		.uleb128 0xb
 2529 0051 3B       		.uleb128 0x3b
 2530 0052 0B       		.uleb128 0xb
 2531 0053 49       		.uleb128 0x49
 2532 0054 13       		.uleb128 0x13
 2533 0055 38       		.uleb128 0x38
 2534 0056 0B       		.uleb128 0xb
 2535 0057 00       		.byte	0
 2536 0058 00       		.byte	0
 2537 0059 08       		.uleb128 0x8
 2538 005a 01       		.uleb128 0x1
 2539 005b 01       		.byte	0x1
 2540 005c 49       		.uleb128 0x49
 2541 005d 13       		.uleb128 0x13
 2542 005e 01       		.uleb128 0x1
 2543 005f 13       		.uleb128 0x13
 2544 0060 00       		.byte	0
 2545 0061 00       		.byte	0
 2546 0062 09       		.uleb128 0x9
 2547 0063 21       		.uleb128 0x21
 2548 0064 00       		.byte	0
 2549 0065 49       		.uleb128 0x49
 2550 0066 13       		.uleb128 0x13
 2551 0067 2F       		.uleb128 0x2f
ARM GAS  C:\DOCUME~1\Chuck\LOCALS~1\Temp\ccjhbcm5.s 			page 75


 2552 0068 0B       		.uleb128 0xb
 2553 0069 00       		.byte	0
 2554 006a 00       		.byte	0
 2555 006b 0A       		.uleb128 0xa
 2556 006c 0F       		.uleb128 0xf
 2557 006d 00       		.byte	0
 2558 006e 0B       		.uleb128 0xb
 2559 006f 0B       		.uleb128 0xb
 2560 0070 00       		.byte	0
 2561 0071 00       		.byte	0
 2562 0072 0B       		.uleb128 0xb
 2563 0073 0F       		.uleb128 0xf
 2564 0074 00       		.byte	0
 2565 0075 0B       		.uleb128 0xb
 2566 0076 0B       		.uleb128 0xb
 2567 0077 49       		.uleb128 0x49
 2568 0078 13       		.uleb128 0x13
 2569 0079 00       		.byte	0
 2570 007a 00       		.byte	0
 2571 007b 0C       		.uleb128 0xc
 2572 007c 2E       		.uleb128 0x2e
 2573 007d 01       		.byte	0x1
 2574 007e 03       		.uleb128 0x3
 2575 007f 0E       		.uleb128 0xe
 2576 0080 3A       		.uleb128 0x3a
 2577 0081 0B       		.uleb128 0xb
 2578 0082 3B       		.uleb128 0x3b
 2579 0083 05       		.uleb128 0x5
 2580 0084 27       		.uleb128 0x27
 2581 0085 19       		.uleb128 0x19
 2582 0086 49       		.uleb128 0x49
 2583 0087 13       		.uleb128 0x13
 2584 0088 20       		.uleb128 0x20
 2585 0089 0B       		.uleb128 0xb
 2586 008a 01       		.uleb128 0x1
 2587 008b 13       		.uleb128 0x13
 2588 008c 00       		.byte	0
 2589 008d 00       		.byte	0
 2590 008e 0D       		.uleb128 0xd
 2591 008f 05       		.uleb128 0x5
 2592 0090 00       		.byte	0
 2593 0091 03       		.uleb128 0x3
 2594 0092 0E       		.uleb128 0xe
 2595 0093 3A       		.uleb128 0x3a
 2596 0094 0B       		.uleb128 0xb
 2597 0095 3B       		.uleb128 0x3b
 2598 0096 05       		.uleb128 0x5
 2599 0097 49       		.uleb128 0x49
 2600 0098 13       		.uleb128 0x13
 2601 0099 00       		.byte	0
 2602 009a 00       		.byte	0
 2603 009b 0E       		.uleb128 0xe
 2604 009c 34       		.uleb128 0x34
 2605 009d 00       		.byte	0
 2606 009e 03       		.uleb128 0x3
 2607 009f 0E       		.uleb128 0xe
 2608 00a0 3A       		.uleb128 0x3a
ARM GAS  C:\DOCUME~1\Chuck\LOCALS~1\Temp\ccjhbcm5.s 			page 76


 2609 00a1 0B       		.uleb128 0xb
 2610 00a2 3B       		.uleb128 0x3b
 2611 00a3 05       		.uleb128 0x5
 2612 00a4 49       		.uleb128 0x49
 2613 00a5 13       		.uleb128 0x13
 2614 00a6 00       		.byte	0
 2615 00a7 00       		.byte	0
 2616 00a8 0F       		.uleb128 0xf
 2617 00a9 34       		.uleb128 0x34
 2618 00aa 00       		.byte	0
 2619 00ab 03       		.uleb128 0x3
 2620 00ac 08       		.uleb128 0x8
 2621 00ad 3A       		.uleb128 0x3a
 2622 00ae 0B       		.uleb128 0xb
 2623 00af 3B       		.uleb128 0x3b
 2624 00b0 05       		.uleb128 0x5
 2625 00b1 49       		.uleb128 0x49
 2626 00b2 13       		.uleb128 0x13
 2627 00b3 00       		.byte	0
 2628 00b4 00       		.byte	0
 2629 00b5 10       		.uleb128 0x10
 2630 00b6 0B       		.uleb128 0xb
 2631 00b7 01       		.byte	0x1
 2632 00b8 00       		.byte	0
 2633 00b9 00       		.byte	0
 2634 00ba 11       		.uleb128 0x11
 2635 00bb 2E       		.uleb128 0x2e
 2636 00bc 01       		.byte	0x1
 2637 00bd 03       		.uleb128 0x3
 2638 00be 0E       		.uleb128 0xe
 2639 00bf 3A       		.uleb128 0x3a
 2640 00c0 0B       		.uleb128 0xb
 2641 00c1 3B       		.uleb128 0x3b
 2642 00c2 05       		.uleb128 0x5
 2643 00c3 27       		.uleb128 0x27
 2644 00c4 19       		.uleb128 0x19
 2645 00c5 20       		.uleb128 0x20
 2646 00c6 0B       		.uleb128 0xb
 2647 00c7 01       		.uleb128 0x1
 2648 00c8 13       		.uleb128 0x13
 2649 00c9 00       		.byte	0
 2650 00ca 00       		.byte	0
 2651 00cb 12       		.uleb128 0x12
 2652 00cc 0B       		.uleb128 0xb
 2653 00cd 01       		.byte	0x1
 2654 00ce 01       		.uleb128 0x1
 2655 00cf 13       		.uleb128 0x13
 2656 00d0 00       		.byte	0
 2657 00d1 00       		.byte	0
 2658 00d2 13       		.uleb128 0x13
 2659 00d3 21       		.uleb128 0x21
 2660 00d4 00       		.byte	0
 2661 00d5 49       		.uleb128 0x49
 2662 00d6 13       		.uleb128 0x13
 2663 00d7 2F       		.uleb128 0x2f
 2664 00d8 05       		.uleb128 0x5
 2665 00d9 00       		.byte	0
ARM GAS  C:\DOCUME~1\Chuck\LOCALS~1\Temp\ccjhbcm5.s 			page 77


 2666 00da 00       		.byte	0
 2667 00db 14       		.uleb128 0x14
 2668 00dc 2E       		.uleb128 0x2e
 2669 00dd 01       		.byte	0x1
 2670 00de 03       		.uleb128 0x3
 2671 00df 0E       		.uleb128 0xe
 2672 00e0 3A       		.uleb128 0x3a
 2673 00e1 0B       		.uleb128 0xb
 2674 00e2 3B       		.uleb128 0x3b
 2675 00e3 05       		.uleb128 0x5
 2676 00e4 27       		.uleb128 0x27
 2677 00e5 19       		.uleb128 0x19
 2678 00e6 11       		.uleb128 0x11
 2679 00e7 01       		.uleb128 0x1
 2680 00e8 12       		.uleb128 0x12
 2681 00e9 06       		.uleb128 0x6
 2682 00ea 40       		.uleb128 0x40
 2683 00eb 18       		.uleb128 0x18
 2684 00ec 9742     		.uleb128 0x2117
 2685 00ee 19       		.uleb128 0x19
 2686 00ef 01       		.uleb128 0x1
 2687 00f0 13       		.uleb128 0x13
 2688 00f1 00       		.byte	0
 2689 00f2 00       		.byte	0
 2690 00f3 15       		.uleb128 0x15
 2691 00f4 05       		.uleb128 0x5
 2692 00f5 00       		.byte	0
 2693 00f6 03       		.uleb128 0x3
 2694 00f7 0E       		.uleb128 0xe
 2695 00f8 3A       		.uleb128 0x3a
 2696 00f9 0B       		.uleb128 0xb
 2697 00fa 3B       		.uleb128 0x3b
 2698 00fb 05       		.uleb128 0x5
 2699 00fc 49       		.uleb128 0x49
 2700 00fd 13       		.uleb128 0x13
 2701 00fe 02       		.uleb128 0x2
 2702 00ff 18       		.uleb128 0x18
 2703 0100 00       		.byte	0
 2704 0101 00       		.byte	0
 2705 0102 16       		.uleb128 0x16
 2706 0103 2E       		.uleb128 0x2e
 2707 0104 01       		.byte	0x1
 2708 0105 31       		.uleb128 0x31
 2709 0106 13       		.uleb128 0x13
 2710 0107 11       		.uleb128 0x11
 2711 0108 01       		.uleb128 0x1
 2712 0109 12       		.uleb128 0x12
 2713 010a 06       		.uleb128 0x6
 2714 010b 40       		.uleb128 0x40
 2715 010c 18       		.uleb128 0x18
 2716 010d 9742     		.uleb128 0x2117
 2717 010f 19       		.uleb128 0x19
 2718 0110 01       		.uleb128 0x1
 2719 0111 13       		.uleb128 0x13
 2720 0112 00       		.byte	0
 2721 0113 00       		.byte	0
 2722 0114 17       		.uleb128 0x17
ARM GAS  C:\DOCUME~1\Chuck\LOCALS~1\Temp\ccjhbcm5.s 			page 78


 2723 0115 05       		.uleb128 0x5
 2724 0116 00       		.byte	0
 2725 0117 31       		.uleb128 0x31
 2726 0118 13       		.uleb128 0x13
 2727 0119 02       		.uleb128 0x2
 2728 011a 17       		.uleb128 0x17
 2729 011b 00       		.byte	0
 2730 011c 00       		.byte	0
 2731 011d 18       		.uleb128 0x18
 2732 011e 34       		.uleb128 0x34
 2733 011f 00       		.byte	0
 2734 0120 31       		.uleb128 0x31
 2735 0121 13       		.uleb128 0x13
 2736 0122 02       		.uleb128 0x2
 2737 0123 17       		.uleb128 0x17
 2738 0124 00       		.byte	0
 2739 0125 00       		.byte	0
 2740 0126 19       		.uleb128 0x19
 2741 0127 05       		.uleb128 0x5
 2742 0128 00       		.byte	0
 2743 0129 31       		.uleb128 0x31
 2744 012a 13       		.uleb128 0x13
 2745 012b 1C       		.uleb128 0x1c
 2746 012c 0B       		.uleb128 0xb
 2747 012d 00       		.byte	0
 2748 012e 00       		.byte	0
 2749 012f 1A       		.uleb128 0x1a
 2750 0130 898201   		.uleb128 0x4109
 2751 0133 01       		.byte	0x1
 2752 0134 11       		.uleb128 0x11
 2753 0135 01       		.uleb128 0x1
 2754 0136 31       		.uleb128 0x31
 2755 0137 13       		.uleb128 0x13
 2756 0138 00       		.byte	0
 2757 0139 00       		.byte	0
 2758 013a 1B       		.uleb128 0x1b
 2759 013b 8A8201   		.uleb128 0x410a
 2760 013e 00       		.byte	0
 2761 013f 02       		.uleb128 0x2
 2762 0140 18       		.uleb128 0x18
 2763 0141 9142     		.uleb128 0x2111
 2764 0143 18       		.uleb128 0x18
 2765 0144 00       		.byte	0
 2766 0145 00       		.byte	0
 2767 0146 1C       		.uleb128 0x1c
 2768 0147 0B       		.uleb128 0xb
 2769 0148 01       		.byte	0x1
 2770 0149 11       		.uleb128 0x11
 2771 014a 01       		.uleb128 0x1
 2772 014b 12       		.uleb128 0x12
 2773 014c 06       		.uleb128 0x6
 2774 014d 01       		.uleb128 0x1
 2775 014e 13       		.uleb128 0x13
 2776 014f 00       		.byte	0
 2777 0150 00       		.byte	0
 2778 0151 1D       		.uleb128 0x1d
 2779 0152 898201   		.uleb128 0x4109
ARM GAS  C:\DOCUME~1\Chuck\LOCALS~1\Temp\ccjhbcm5.s 			page 79


 2780 0155 01       		.byte	0x1
 2781 0156 11       		.uleb128 0x11
 2782 0157 01       		.uleb128 0x1
 2783 0158 31       		.uleb128 0x31
 2784 0159 13       		.uleb128 0x13
 2785 015a 01       		.uleb128 0x1
 2786 015b 13       		.uleb128 0x13
 2787 015c 00       		.byte	0
 2788 015d 00       		.byte	0
 2789 015e 1E       		.uleb128 0x1e
 2790 015f 2E       		.uleb128 0x2e
 2791 0160 01       		.byte	0x1
 2792 0161 03       		.uleb128 0x3
 2793 0162 0E       		.uleb128 0xe
 2794 0163 3A       		.uleb128 0x3a
 2795 0164 0B       		.uleb128 0xb
 2796 0165 3B       		.uleb128 0x3b
 2797 0166 0B       		.uleb128 0xb
 2798 0167 27       		.uleb128 0x27
 2799 0168 19       		.uleb128 0x19
 2800 0169 49       		.uleb128 0x49
 2801 016a 13       		.uleb128 0x13
 2802 016b 20       		.uleb128 0x20
 2803 016c 0B       		.uleb128 0xb
 2804 016d 01       		.uleb128 0x1
 2805 016e 13       		.uleb128 0x13
 2806 016f 00       		.byte	0
 2807 0170 00       		.byte	0
 2808 0171 1F       		.uleb128 0x1f
 2809 0172 05       		.uleb128 0x5
 2810 0173 00       		.byte	0
 2811 0174 03       		.uleb128 0x3
 2812 0175 0E       		.uleb128 0xe
 2813 0176 3A       		.uleb128 0x3a
 2814 0177 0B       		.uleb128 0xb
 2815 0178 3B       		.uleb128 0x3b
 2816 0179 0B       		.uleb128 0xb
 2817 017a 49       		.uleb128 0x49
 2818 017b 13       		.uleb128 0x13
 2819 017c 00       		.byte	0
 2820 017d 00       		.byte	0
 2821 017e 20       		.uleb128 0x20
 2822 017f 34       		.uleb128 0x34
 2823 0180 00       		.byte	0
 2824 0181 03       		.uleb128 0x3
 2825 0182 08       		.uleb128 0x8
 2826 0183 3A       		.uleb128 0x3a
 2827 0184 0B       		.uleb128 0xb
 2828 0185 3B       		.uleb128 0x3b
 2829 0186 0B       		.uleb128 0xb
 2830 0187 49       		.uleb128 0x49
 2831 0188 13       		.uleb128 0x13
 2832 0189 00       		.byte	0
 2833 018a 00       		.byte	0
 2834 018b 21       		.uleb128 0x21
 2835 018c 26       		.uleb128 0x26
 2836 018d 00       		.byte	0
ARM GAS  C:\DOCUME~1\Chuck\LOCALS~1\Temp\ccjhbcm5.s 			page 80


 2837 018e 49       		.uleb128 0x49
 2838 018f 13       		.uleb128 0x13
 2839 0190 00       		.byte	0
 2840 0191 00       		.byte	0
 2841 0192 22       		.uleb128 0x22
 2842 0193 34       		.uleb128 0x34
 2843 0194 00       		.byte	0
 2844 0195 31       		.uleb128 0x31
 2845 0196 13       		.uleb128 0x13
 2846 0197 02       		.uleb128 0x2
 2847 0198 18       		.uleb128 0x18
 2848 0199 00       		.byte	0
 2849 019a 00       		.byte	0
 2850 019b 23       		.uleb128 0x23
 2851 019c 34       		.uleb128 0x34
 2852 019d 00       		.byte	0
 2853 019e 31       		.uleb128 0x31
 2854 019f 13       		.uleb128 0x13
 2855 01a0 1C       		.uleb128 0x1c
 2856 01a1 0B       		.uleb128 0xb
 2857 01a2 00       		.byte	0
 2858 01a3 00       		.byte	0
 2859 01a4 24       		.uleb128 0x24
 2860 01a5 0B       		.uleb128 0xb
 2861 01a6 01       		.byte	0x1
 2862 01a7 55       		.uleb128 0x55
 2863 01a8 17       		.uleb128 0x17
 2864 01a9 01       		.uleb128 0x1
 2865 01aa 13       		.uleb128 0x13
 2866 01ab 00       		.byte	0
 2867 01ac 00       		.byte	0
 2868 01ad 25       		.uleb128 0x25
 2869 01ae 1D       		.uleb128 0x1d
 2870 01af 01       		.byte	0x1
 2871 01b0 31       		.uleb128 0x31
 2872 01b1 13       		.uleb128 0x13
 2873 01b2 11       		.uleb128 0x11
 2874 01b3 01       		.uleb128 0x1
 2875 01b4 12       		.uleb128 0x12
 2876 01b5 06       		.uleb128 0x6
 2877 01b6 58       		.uleb128 0x58
 2878 01b7 0B       		.uleb128 0xb
 2879 01b8 59       		.uleb128 0x59
 2880 01b9 05       		.uleb128 0x5
 2881 01ba 00       		.byte	0
 2882 01bb 00       		.byte	0
 2883 01bc 26       		.uleb128 0x26
 2884 01bd 0B       		.uleb128 0xb
 2885 01be 01       		.byte	0x1
 2886 01bf 11       		.uleb128 0x11
 2887 01c0 01       		.uleb128 0x1
 2888 01c1 12       		.uleb128 0x12
 2889 01c2 06       		.uleb128 0x6
 2890 01c3 00       		.byte	0
 2891 01c4 00       		.byte	0
 2892 01c5 27       		.uleb128 0x27
 2893 01c6 898201   		.uleb128 0x4109
ARM GAS  C:\DOCUME~1\Chuck\LOCALS~1\Temp\ccjhbcm5.s 			page 81


 2894 01c9 00       		.byte	0
 2895 01ca 11       		.uleb128 0x11
 2896 01cb 01       		.uleb128 0x1
 2897 01cc 31       		.uleb128 0x31
 2898 01cd 13       		.uleb128 0x13
 2899 01ce 00       		.byte	0
 2900 01cf 00       		.byte	0
 2901 01d0 28       		.uleb128 0x28
 2902 01d1 1D       		.uleb128 0x1d
 2903 01d2 01       		.byte	0x1
 2904 01d3 31       		.uleb128 0x31
 2905 01d4 13       		.uleb128 0x13
 2906 01d5 52       		.uleb128 0x52
 2907 01d6 01       		.uleb128 0x1
 2908 01d7 55       		.uleb128 0x55
 2909 01d8 17       		.uleb128 0x17
 2910 01d9 58       		.uleb128 0x58
 2911 01da 0B       		.uleb128 0xb
 2912 01db 59       		.uleb128 0x59
 2913 01dc 05       		.uleb128 0x5
 2914 01dd 01       		.uleb128 0x1
 2915 01de 13       		.uleb128 0x13
 2916 01df 00       		.byte	0
 2917 01e0 00       		.byte	0
 2918 01e1 29       		.uleb128 0x29
 2919 01e2 0B       		.uleb128 0xb
 2920 01e3 01       		.byte	0x1
 2921 01e4 55       		.uleb128 0x55
 2922 01e5 17       		.uleb128 0x17
 2923 01e6 00       		.byte	0
 2924 01e7 00       		.byte	0
 2925 01e8 2A       		.uleb128 0x2a
 2926 01e9 1D       		.uleb128 0x1d
 2927 01ea 01       		.byte	0x1
 2928 01eb 31       		.uleb128 0x31
 2929 01ec 13       		.uleb128 0x13
 2930 01ed 11       		.uleb128 0x11
 2931 01ee 01       		.uleb128 0x1
 2932 01ef 12       		.uleb128 0x12
 2933 01f0 06       		.uleb128 0x6
 2934 01f1 58       		.uleb128 0x58
 2935 01f2 0B       		.uleb128 0xb
 2936 01f3 59       		.uleb128 0x59
 2937 01f4 05       		.uleb128 0x5
 2938 01f5 01       		.uleb128 0x1
 2939 01f6 13       		.uleb128 0x13
 2940 01f7 00       		.byte	0
 2941 01f8 00       		.byte	0
 2942 01f9 2B       		.uleb128 0x2b
 2943 01fa 34       		.uleb128 0x34
 2944 01fb 00       		.byte	0
 2945 01fc 31       		.uleb128 0x31
 2946 01fd 13       		.uleb128 0x13
 2947 01fe 00       		.byte	0
 2948 01ff 00       		.byte	0
 2949 0200 2C       		.uleb128 0x2c
 2950 0201 2E       		.uleb128 0x2e
ARM GAS  C:\DOCUME~1\Chuck\LOCALS~1\Temp\ccjhbcm5.s 			page 82


 2951 0202 00       		.byte	0
 2952 0203 03       		.uleb128 0x3
 2953 0204 0E       		.uleb128 0xe
 2954 0205 3A       		.uleb128 0x3a
 2955 0206 0B       		.uleb128 0xb
 2956 0207 3B       		.uleb128 0x3b
 2957 0208 05       		.uleb128 0x5
 2958 0209 27       		.uleb128 0x27
 2959 020a 19       		.uleb128 0x19
 2960 020b 20       		.uleb128 0x20
 2961 020c 0B       		.uleb128 0xb
 2962 020d 00       		.byte	0
 2963 020e 00       		.byte	0
 2964 020f 2D       		.uleb128 0x2d
 2965 0210 2E       		.uleb128 0x2e
 2966 0211 01       		.byte	0x1
 2967 0212 3F       		.uleb128 0x3f
 2968 0213 19       		.uleb128 0x19
 2969 0214 03       		.uleb128 0x3
 2970 0215 0E       		.uleb128 0xe
 2971 0216 3A       		.uleb128 0x3a
 2972 0217 0B       		.uleb128 0xb
 2973 0218 3B       		.uleb128 0x3b
 2974 0219 05       		.uleb128 0x5
 2975 021a 27       		.uleb128 0x27
 2976 021b 19       		.uleb128 0x19
 2977 021c 11       		.uleb128 0x11
 2978 021d 01       		.uleb128 0x1
 2979 021e 12       		.uleb128 0x12
 2980 021f 06       		.uleb128 0x6
 2981 0220 40       		.uleb128 0x40
 2982 0221 18       		.uleb128 0x18
 2983 0222 9742     		.uleb128 0x2117
 2984 0224 19       		.uleb128 0x19
 2985 0225 01       		.uleb128 0x1
 2986 0226 13       		.uleb128 0x13
 2987 0227 00       		.byte	0
 2988 0228 00       		.byte	0
 2989 0229 2E       		.uleb128 0x2e
 2990 022a 34       		.uleb128 0x34
 2991 022b 00       		.byte	0
 2992 022c 03       		.uleb128 0x3
 2993 022d 0E       		.uleb128 0xe
 2994 022e 3A       		.uleb128 0x3a
 2995 022f 0B       		.uleb128 0xb
 2996 0230 3B       		.uleb128 0x3b
 2997 0231 05       		.uleb128 0x5
 2998 0232 49       		.uleb128 0x49
 2999 0233 13       		.uleb128 0x13
 3000 0234 02       		.uleb128 0x2
 3001 0235 17       		.uleb128 0x17
 3002 0236 00       		.byte	0
 3003 0237 00       		.byte	0
 3004 0238 2F       		.uleb128 0x2f
 3005 0239 05       		.uleb128 0x5
 3006 023a 00       		.byte	0
 3007 023b 03       		.uleb128 0x3
ARM GAS  C:\DOCUME~1\Chuck\LOCALS~1\Temp\ccjhbcm5.s 			page 83


 3008 023c 0E       		.uleb128 0xe
 3009 023d 3A       		.uleb128 0x3a
 3010 023e 0B       		.uleb128 0xb
 3011 023f 3B       		.uleb128 0x3b
 3012 0240 05       		.uleb128 0x5
 3013 0241 49       		.uleb128 0x49
 3014 0242 13       		.uleb128 0x13
 3015 0243 02       		.uleb128 0x2
 3016 0244 17       		.uleb128 0x17
 3017 0245 00       		.byte	0
 3018 0246 00       		.byte	0
 3019 0247 30       		.uleb128 0x30
 3020 0248 34       		.uleb128 0x34
 3021 0249 00       		.byte	0
 3022 024a 03       		.uleb128 0x3
 3023 024b 0E       		.uleb128 0xe
 3024 024c 3A       		.uleb128 0x3a
 3025 024d 0B       		.uleb128 0xb
 3026 024e 3B       		.uleb128 0x3b
 3027 024f 05       		.uleb128 0x5
 3028 0250 49       		.uleb128 0x49
 3029 0251 13       		.uleb128 0x13
 3030 0252 02       		.uleb128 0x2
 3031 0253 18       		.uleb128 0x18
 3032 0254 00       		.byte	0
 3033 0255 00       		.byte	0
 3034 0256 31       		.uleb128 0x31
 3035 0257 34       		.uleb128 0x34
 3036 0258 00       		.byte	0
 3037 0259 03       		.uleb128 0x3
 3038 025a 08       		.uleb128 0x8
 3039 025b 3A       		.uleb128 0x3a
 3040 025c 0B       		.uleb128 0xb
 3041 025d 3B       		.uleb128 0x3b
 3042 025e 05       		.uleb128 0x5
 3043 025f 49       		.uleb128 0x49
 3044 0260 13       		.uleb128 0x13
 3045 0261 02       		.uleb128 0x2
 3046 0262 17       		.uleb128 0x17
 3047 0263 00       		.byte	0
 3048 0264 00       		.byte	0
 3049 0265 32       		.uleb128 0x32
 3050 0266 34       		.uleb128 0x34
 3051 0267 00       		.byte	0
 3052 0268 03       		.uleb128 0x3
 3053 0269 0E       		.uleb128 0xe
 3054 026a 3A       		.uleb128 0x3a
 3055 026b 0B       		.uleb128 0xb
 3056 026c 3B       		.uleb128 0x3b
 3057 026d 0B       		.uleb128 0xb
 3058 026e 49       		.uleb128 0x49
 3059 026f 13       		.uleb128 0x13
 3060 0270 3F       		.uleb128 0x3f
 3061 0271 19       		.uleb128 0x19
 3062 0272 02       		.uleb128 0x2
 3063 0273 18       		.uleb128 0x18
 3064 0274 00       		.byte	0
ARM GAS  C:\DOCUME~1\Chuck\LOCALS~1\Temp\ccjhbcm5.s 			page 84


 3065 0275 00       		.byte	0
 3066 0276 33       		.uleb128 0x33
 3067 0277 34       		.uleb128 0x34
 3068 0278 00       		.byte	0
 3069 0279 03       		.uleb128 0x3
 3070 027a 0E       		.uleb128 0xe
 3071 027b 3A       		.uleb128 0x3a
 3072 027c 0B       		.uleb128 0xb
 3073 027d 3B       		.uleb128 0x3b
 3074 027e 0B       		.uleb128 0xb
 3075 027f 49       		.uleb128 0x49
 3076 0280 13       		.uleb128 0x13
 3077 0281 3F       		.uleb128 0x3f
 3078 0282 19       		.uleb128 0x19
 3079 0283 3C       		.uleb128 0x3c
 3080 0284 19       		.uleb128 0x19
 3081 0285 00       		.byte	0
 3082 0286 00       		.byte	0
 3083 0287 34       		.uleb128 0x34
 3084 0288 2E       		.uleb128 0x2e
 3085 0289 01       		.byte	0x1
 3086 028a 3F       		.uleb128 0x3f
 3087 028b 19       		.uleb128 0x19
 3088 028c 03       		.uleb128 0x3
 3089 028d 0E       		.uleb128 0xe
 3090 028e 3A       		.uleb128 0x3a
 3091 028f 0B       		.uleb128 0xb
 3092 0290 3B       		.uleb128 0x3b
 3093 0291 0B       		.uleb128 0xb
 3094 0292 27       		.uleb128 0x27
 3095 0293 19       		.uleb128 0x19
 3096 0294 3C       		.uleb128 0x3c
 3097 0295 19       		.uleb128 0x19
 3098 0296 01       		.uleb128 0x1
 3099 0297 13       		.uleb128 0x13
 3100 0298 00       		.byte	0
 3101 0299 00       		.byte	0
 3102 029a 35       		.uleb128 0x35
 3103 029b 05       		.uleb128 0x5
 3104 029c 00       		.byte	0
 3105 029d 49       		.uleb128 0x49
 3106 029e 13       		.uleb128 0x13
 3107 029f 00       		.byte	0
 3108 02a0 00       		.byte	0
 3109 02a1 36       		.uleb128 0x36
 3110 02a2 2E       		.uleb128 0x2e
 3111 02a3 01       		.byte	0x1
 3112 02a4 3F       		.uleb128 0x3f
 3113 02a5 19       		.uleb128 0x19
 3114 02a6 03       		.uleb128 0x3
 3115 02a7 0E       		.uleb128 0xe
 3116 02a8 27       		.uleb128 0x27
 3117 02a9 19       		.uleb128 0x19
 3118 02aa 49       		.uleb128 0x49
 3119 02ab 13       		.uleb128 0x13
 3120 02ac 34       		.uleb128 0x34
 3121 02ad 19       		.uleb128 0x19
ARM GAS  C:\DOCUME~1\Chuck\LOCALS~1\Temp\ccjhbcm5.s 			page 85


 3122 02ae 3C       		.uleb128 0x3c
 3123 02af 19       		.uleb128 0x19
 3124 02b0 01       		.uleb128 0x1
 3125 02b1 13       		.uleb128 0x13
 3126 02b2 00       		.byte	0
 3127 02b3 00       		.byte	0
 3128 02b4 37       		.uleb128 0x37
 3129 02b5 2E       		.uleb128 0x2e
 3130 02b6 01       		.byte	0x1
 3131 02b7 3F       		.uleb128 0x3f
 3132 02b8 19       		.uleb128 0x19
 3133 02b9 03       		.uleb128 0x3
 3134 02ba 0E       		.uleb128 0xe
 3135 02bb 3A       		.uleb128 0x3a
 3136 02bc 0B       		.uleb128 0xb
 3137 02bd 3B       		.uleb128 0x3b
 3138 02be 0B       		.uleb128 0xb
 3139 02bf 27       		.uleb128 0x27
 3140 02c0 19       		.uleb128 0x19
 3141 02c1 49       		.uleb128 0x49
 3142 02c2 13       		.uleb128 0x13
 3143 02c3 3C       		.uleb128 0x3c
 3144 02c4 19       		.uleb128 0x19
 3145 02c5 01       		.uleb128 0x1
 3146 02c6 13       		.uleb128 0x13
 3147 02c7 00       		.byte	0
 3148 02c8 00       		.byte	0
 3149 02c9 38       		.uleb128 0x38
 3150 02ca 26       		.uleb128 0x26
 3151 02cb 00       		.byte	0
 3152 02cc 00       		.byte	0
 3153 02cd 00       		.byte	0
 3154 02ce 39       		.uleb128 0x39
 3155 02cf 2E       		.uleb128 0x2e
 3156 02d0 00       		.byte	0
 3157 02d1 3F       		.uleb128 0x3f
 3158 02d2 19       		.uleb128 0x19
 3159 02d3 03       		.uleb128 0x3
 3160 02d4 0E       		.uleb128 0xe
 3161 02d5 3A       		.uleb128 0x3a
 3162 02d6 0B       		.uleb128 0xb
 3163 02d7 3B       		.uleb128 0x3b
 3164 02d8 0B       		.uleb128 0xb
 3165 02d9 27       		.uleb128 0x27
 3166 02da 19       		.uleb128 0x19
 3167 02db 3C       		.uleb128 0x3c
 3168 02dc 19       		.uleb128 0x19
 3169 02dd 00       		.byte	0
 3170 02de 00       		.byte	0
 3171 02df 3A       		.uleb128 0x3a
 3172 02e0 2E       		.uleb128 0x2e
 3173 02e1 01       		.byte	0x1
 3174 02e2 3F       		.uleb128 0x3f
 3175 02e3 19       		.uleb128 0x19
 3176 02e4 03       		.uleb128 0x3
 3177 02e5 0E       		.uleb128 0xe
 3178 02e6 3A       		.uleb128 0x3a
ARM GAS  C:\DOCUME~1\Chuck\LOCALS~1\Temp\ccjhbcm5.s 			page 86


 3179 02e7 0B       		.uleb128 0xb
 3180 02e8 3B       		.uleb128 0x3b
 3181 02e9 0B       		.uleb128 0xb
 3182 02ea 27       		.uleb128 0x27
 3183 02eb 19       		.uleb128 0x19
 3184 02ec 49       		.uleb128 0x49
 3185 02ed 13       		.uleb128 0x13
 3186 02ee 3C       		.uleb128 0x3c
 3187 02ef 19       		.uleb128 0x19
 3188 02f0 00       		.byte	0
 3189 02f1 00       		.byte	0
 3190 02f2 00       		.byte	0
 3191              		.section	.debug_loc,"",%progbits
 3192              	.Ldebug_loc0:
 3193              	.LLST0:
 3194 0000 00000000 		.4byte	.LVL1
 3195 0004 06000000 		.4byte	.LVL2
 3196 0008 0100     		.2byte	0x1
 3197 000a 50       		.byte	0x50
 3198 000b 06000000 		.4byte	.LVL2
 3199 000f 8C000000 		.4byte	.LFE44
 3200 0013 0400     		.2byte	0x4
 3201 0015 F3       		.byte	0xf3
 3202 0016 01       		.uleb128 0x1
 3203 0017 50       		.byte	0x50
 3204 0018 9F       		.byte	0x9f
 3205 0019 00000000 		.4byte	0
 3206 001d 00000000 		.4byte	0
 3207              	.LLST1:
 3208 0021 1E000000 		.4byte	.LVL3
 3209 0025 22000000 		.4byte	.LVL4
 3210 0029 0400     		.2byte	0x4
 3211 002b 0A       		.byte	0xa
 3212 002c D47F     		.2byte	0x7fd4
 3213 002e 9F       		.byte	0x9f
 3214 002f 28000000 		.4byte	.LVL5
 3215 0033 2C000000 		.4byte	.LVL6
 3216 0037 0200     		.2byte	0x2
 3217 0039 30       		.byte	0x30
 3218 003a 9F       		.byte	0x9f
 3219 003b 32000000 		.4byte	.LVL7
 3220 003f 3A000000 		.4byte	.LVL9
 3221 0043 0100     		.2byte	0x1
 3222 0045 52       		.byte	0x52
 3223 0046 40000000 		.4byte	.LVL10
 3224 004a 4A000000 		.4byte	.LVL14
 3225 004e 0100     		.2byte	0x1
 3226 0050 52       		.byte	0x52
 3227 0051 00000000 		.4byte	0
 3228 0055 00000000 		.4byte	0
 3229              	.LLST2:
 3230 0059 00000000 		.4byte	.LVL1
 3231 005d 40000000 		.4byte	.LVL10
 3232 0061 0200     		.2byte	0x2
 3233 0063 32       		.byte	0x32
 3234 0064 9F       		.byte	0x9f
 3235 0065 40000000 		.4byte	.LVL10
ARM GAS  C:\DOCUME~1\Chuck\LOCALS~1\Temp\ccjhbcm5.s 			page 87


 3236 0069 52000000 		.4byte	.LVL15
 3237 006d 0200     		.2byte	0x2
 3238 006f 34       		.byte	0x34
 3239 0070 9F       		.byte	0x9f
 3240 0071 00000000 		.4byte	0
 3241 0075 00000000 		.4byte	0
 3242              	.LLST3:
 3243 0079 34000000 		.4byte	.LVL8
 3244 007d 3A000000 		.4byte	.LVL9
 3245 0081 0100     		.2byte	0x1
 3246 0083 53       		.byte	0x53
 3247 0084 42000000 		.4byte	.LVL11
 3248 0088 44000000 		.4byte	.LVL12
 3249 008c 0100     		.2byte	0x1
 3250 008e 55       		.byte	0x55
 3251 008f 44000000 		.4byte	.LVL12
 3252 0093 46000000 		.4byte	.LVL13
 3253 0097 0800     		.2byte	0x8
 3254 0099 71       		.byte	0x71
 3255 009a 00       		.sleb128 0
 3256 009b 38       		.byte	0x38
 3257 009c 24       		.byte	0x24
 3258 009d 75       		.byte	0x75
 3259 009e 00       		.sleb128 0
 3260 009f 21       		.byte	0x21
 3261 00a0 9F       		.byte	0x9f
 3262 00a1 46000000 		.4byte	.LVL13
 3263 00a5 52000000 		.4byte	.LVL15
 3264 00a9 0D00     		.2byte	0xd
 3265 00ab 71       		.byte	0x71
 3266 00ac 00       		.sleb128 0
 3267 00ad 38       		.byte	0x38
 3268 00ae 24       		.byte	0x24
 3269 00af 73       		.byte	0x73
 3270 00b0 00       		.sleb128 0
 3271 00b1 40       		.byte	0x40
 3272 00b2 24       		.byte	0x24
 3273 00b3 21       		.byte	0x21
 3274 00b4 75       		.byte	0x75
 3275 00b5 00       		.sleb128 0
 3276 00b6 21       		.byte	0x21
 3277 00b7 9F       		.byte	0x9f
 3278 00b8 54000000 		.4byte	.LVL16
 3279 00bc 66000000 		.4byte	.LVL17
 3280 00c0 0100     		.2byte	0x1
 3281 00c2 50       		.byte	0x50
 3282 00c3 6A000000 		.4byte	.LVL18
 3283 00c7 8C000000 		.4byte	.LFE44
 3284 00cb 0100     		.2byte	0x1
 3285 00cd 50       		.byte	0x50
 3286 00ce 00000000 		.4byte	0
 3287 00d2 00000000 		.4byte	0
 3288              	.LLST4:
 3289 00d6 24000000 		.4byte	.LVL25
 3290 00da 46000000 		.4byte	.LVL33
 3291 00de 0100     		.2byte	0x1
 3292 00e0 50       		.byte	0x50
ARM GAS  C:\DOCUME~1\Chuck\LOCALS~1\Temp\ccjhbcm5.s 			page 88


 3293 00e1 00000000 		.4byte	0
 3294 00e5 00000000 		.4byte	0
 3295              	.LLST5:
 3296 00e9 16000000 		.4byte	.LVL23
 3297 00ed 52000000 		.4byte	.LVL35
 3298 00f1 0100     		.2byte	0x1
 3299 00f3 54       		.byte	0x54
 3300 00f4 00000000 		.4byte	0
 3301 00f8 00000000 		.4byte	0
 3302              	.LLST6:
 3303 00fc 16000000 		.4byte	.LVL23
 3304 0100 24000000 		.4byte	.LVL25
 3305 0104 0200     		.2byte	0x2
 3306 0106 30       		.byte	0x30
 3307 0107 9F       		.byte	0x9f
 3308 0108 24000000 		.4byte	.LVL25
 3309 010c 4E000000 		.4byte	.LVL34
 3310 0110 0100     		.2byte	0x1
 3311 0112 52       		.byte	0x52
 3312 0113 00000000 		.4byte	0
 3313 0117 00000000 		.4byte	0
 3314              	.LLST7:
 3315 011b 16000000 		.4byte	.LVL23
 3316 011f 24000000 		.4byte	.LVL25
 3317 0123 0200     		.2byte	0x2
 3318 0125 30       		.byte	0x30
 3319 0126 9F       		.byte	0x9f
 3320 0127 24000000 		.4byte	.LVL25
 3321 012b 36000000 		.4byte	.LVL28
 3322 012f 0100     		.2byte	0x1
 3323 0131 53       		.byte	0x53
 3324 0132 38000000 		.4byte	.LVL29
 3325 0136 3C000000 		.4byte	.LVL31
 3326 013a 0100     		.2byte	0x1
 3327 013c 53       		.byte	0x53
 3328 013d 3C000000 		.4byte	.LVL31
 3329 0141 40000000 		.4byte	.LVL32
 3330 0145 0400     		.2byte	0x4
 3331 0147 73       		.byte	0x73
 3332 0148 00       		.sleb128 0
 3333 0149 1F       		.byte	0x1f
 3334 014a 9F       		.byte	0x9f
 3335 014b 00000000 		.4byte	0
 3336 014f 00000000 		.4byte	0
 3337              	.LLST8:
 3338 0153 2A000000 		.4byte	.LVL26
 3339 0157 3C000000 		.4byte	.LVL31
 3340 015b 0100     		.2byte	0x1
 3341 015d 55       		.byte	0x55
 3342 015e 00000000 		.4byte	0
 3343 0162 00000000 		.4byte	0
 3344              	.LLST9:
 3345 0166 8E000000 		.4byte	.LVL51
 3346 016a FC000000 		.4byte	.LVL64
 3347 016e 0200     		.2byte	0x2
 3348 0170 30       		.byte	0x30
 3349 0171 9F       		.byte	0x9f
ARM GAS  C:\DOCUME~1\Chuck\LOCALS~1\Temp\ccjhbcm5.s 			page 89


 3350 0172 FE000000 		.4byte	.LVL65
 3351 0176 46010000 		.4byte	.LVL76
 3352 017a 0100     		.2byte	0x1
 3353 017c 51       		.byte	0x51
 3354 017d 46010000 		.4byte	.LVL76
 3355 0181 57010000 		.4byte	.LVL77-1
 3356 0185 0200     		.2byte	0x2
 3357 0187 7C       		.byte	0x7c
 3358 0188 00       		.sleb128 0
 3359 0189 5A010000 		.4byte	.LVL78
 3360 018d 9E010000 		.4byte	.LVL85
 3361 0191 0200     		.2byte	0x2
 3362 0193 30       		.byte	0x30
 3363 0194 9F       		.byte	0x9f
 3364 0195 9E010000 		.4byte	.LVL85
 3365 0199 A0010000 		.4byte	.LVL86
 3366 019d 0200     		.2byte	0x2
 3367 019f 31       		.byte	0x31
 3368 01a0 9F       		.byte	0x9f
 3369 01a1 A0010000 		.4byte	.LVL86
 3370 01a5 BA010000 		.4byte	.LVL88
 3371 01a9 0200     		.2byte	0x2
 3372 01ab 30       		.byte	0x30
 3373 01ac 9F       		.byte	0x9f
 3374 01ad BA010000 		.4byte	.LVL88
 3375 01b1 C6010000 		.4byte	.LVL90
 3376 01b5 0200     		.2byte	0x2
 3377 01b7 34       		.byte	0x34
 3378 01b8 9F       		.byte	0x9f
 3379 01b9 C6010000 		.4byte	.LVL90
 3380 01bd 08020000 		.4byte	.LVL98
 3381 01c1 0200     		.2byte	0x2
 3382 01c3 30       		.byte	0x30
 3383 01c4 9F       		.byte	0x9f
 3384 01c5 08020000 		.4byte	.LVL98
 3385 01c9 16020000 		.4byte	.LVL100
 3386 01cd 0200     		.2byte	0x2
 3387 01cf 38       		.byte	0x38
 3388 01d0 9F       		.byte	0x9f
 3389 01d1 16020000 		.4byte	.LVL100
 3390 01d5 62020000 		.4byte	.LVL115
 3391 01d9 0200     		.2byte	0x2
 3392 01db 30       		.byte	0x30
 3393 01dc 9F       		.byte	0x9f
 3394 01dd 62020000 		.4byte	.LVL115
 3395 01e1 68020000 		.4byte	.LVL116
 3396 01e5 0200     		.2byte	0x2
 3397 01e7 31       		.byte	0x31
 3398 01e8 9F       		.byte	0x9f
 3399 01e9 68020000 		.4byte	.LVL116
 3400 01ed 88020000 		.4byte	.LVL121
 3401 01f1 0200     		.2byte	0x2
 3402 01f3 30       		.byte	0x30
 3403 01f4 9F       		.byte	0x9f
 3404 01f5 8E020000 		.4byte	.LVL123
 3405 01f9 B8020000 		.4byte	.LFE46
 3406 01fd 0200     		.2byte	0x2
ARM GAS  C:\DOCUME~1\Chuck\LOCALS~1\Temp\ccjhbcm5.s 			page 90


 3407 01ff 30       		.byte	0x30
 3408 0200 9F       		.byte	0x9f
 3409 0201 00000000 		.4byte	0
 3410 0205 00000000 		.4byte	0
 3411              	.LLST10:
 3412 0209 8E000000 		.4byte	.LVL51
 3413 020d FA000000 		.4byte	.LVL63
 3414 0211 0200     		.2byte	0x2
 3415 0213 34       		.byte	0x34
 3416 0214 9F       		.byte	0x9f
 3417 0215 FE000000 		.4byte	.LVL65
 3418 0219 08010000 		.4byte	.LVL66
 3419 021d 0100     		.2byte	0x1
 3420 021f 53       		.byte	0x53
 3421 0220 08010000 		.4byte	.LVL66
 3422 0224 3C010000 		.4byte	.LVL75
 3423 0228 0200     		.2byte	0x2
 3424 022a 76       		.byte	0x76
 3425 022b 01       		.sleb128 1
 3426 022c 5A010000 		.4byte	.LVL78
 3427 0230 6A010000 		.4byte	.LVL79
 3428 0234 0200     		.2byte	0x2
 3429 0236 30       		.byte	0x30
 3430 0237 9F       		.byte	0x9f
 3431 0238 6A010000 		.4byte	.LVL79
 3432 023c 9E010000 		.4byte	.LVL85
 3433 0240 0200     		.2byte	0x2
 3434 0242 34       		.byte	0x34
 3435 0243 9F       		.byte	0x9f
 3436 0244 9E010000 		.4byte	.LVL85
 3437 0248 A0010000 		.4byte	.LVL86
 3438 024c 0200     		.2byte	0x2
 3439 024e 30       		.byte	0x30
 3440 024f 9F       		.byte	0x9f
 3441 0250 A0010000 		.4byte	.LVL86
 3442 0254 BA010000 		.4byte	.LVL88
 3443 0258 0200     		.2byte	0x2
 3444 025a 34       		.byte	0x34
 3445 025b 9F       		.byte	0x9f
 3446 025c BA010000 		.4byte	.LVL88
 3447 0260 C6010000 		.4byte	.LVL90
 3448 0264 0200     		.2byte	0x2
 3449 0266 30       		.byte	0x30
 3450 0267 9F       		.byte	0x9f
 3451 0268 C6010000 		.4byte	.LVL90
 3452 026c E8010000 		.4byte	.LVL94
 3453 0270 0200     		.2byte	0x2
 3454 0272 34       		.byte	0x34
 3455 0273 9F       		.byte	0x9f
 3456 0274 E8010000 		.4byte	.LVL94
 3457 0278 FA010000 		.4byte	.LVL96
 3458 027c 0200     		.2byte	0x2
 3459 027e 30       		.byte	0x30
 3460 027f 9F       		.byte	0x9f
 3461 0280 FA010000 		.4byte	.LVL96
 3462 0284 0E020000 		.4byte	.LVL99
 3463 0288 0200     		.2byte	0x2
ARM GAS  C:\DOCUME~1\Chuck\LOCALS~1\Temp\ccjhbcm5.s 			page 91


 3464 028a 34       		.byte	0x34
 3465 028b 9F       		.byte	0x9f
 3466 028c 0E020000 		.4byte	.LVL99
 3467 0290 16020000 		.4byte	.LVL100
 3468 0294 0200     		.2byte	0x2
 3469 0296 30       		.byte	0x30
 3470 0297 9F       		.byte	0x9f
 3471 0298 16020000 		.4byte	.LVL100
 3472 029c 62020000 		.4byte	.LVL115
 3473 02a0 0200     		.2byte	0x2
 3474 02a2 34       		.byte	0x34
 3475 02a3 9F       		.byte	0x9f
 3476 02a4 62020000 		.4byte	.LVL115
 3477 02a8 68020000 		.4byte	.LVL116
 3478 02ac 0200     		.2byte	0x2
 3479 02ae 30       		.byte	0x30
 3480 02af 9F       		.byte	0x9f
 3481 02b0 68020000 		.4byte	.LVL116
 3482 02b4 88020000 		.4byte	.LVL121
 3483 02b8 0200     		.2byte	0x2
 3484 02ba 34       		.byte	0x34
 3485 02bb 9F       		.byte	0x9f
 3486 02bc 8E020000 		.4byte	.LVL123
 3487 02c0 B8020000 		.4byte	.LFE46
 3488 02c4 0100     		.2byte	0x1
 3489 02c6 53       		.byte	0x53
 3490 02c7 00000000 		.4byte	0
 3491 02cb 00000000 		.4byte	0
 3492              	.LLST11:
 3493 02cf 4E000000 		.4byte	.LVL43
 3494 02d3 8E000000 		.4byte	.LVL51
 3495 02d7 1100     		.2byte	0x11
 3496 02d9 91       		.byte	0x91
 3497 02da 847A     		.sleb128 -764
 3498 02dc 94       		.byte	0x94
 3499 02dd 01       		.byte	0x1
 3500 02de 08       		.byte	0x8
 3501 02df FF       		.byte	0xff
 3502 02e0 1A       		.byte	0x1a
 3503 02e1 38       		.byte	0x38
 3504 02e2 24       		.byte	0x24
 3505 02e3 7C       		.byte	0x7c
 3506 02e4 00       		.sleb128 0
 3507 02e5 08       		.byte	0x8
 3508 02e6 FF       		.byte	0xff
 3509 02e7 1A       		.byte	0x1a
 3510 02e8 21       		.byte	0x21
 3511 02e9 9F       		.byte	0x9f
 3512 02ea 8E000000 		.4byte	.LVL51
 3513 02ee A9000000 		.4byte	.LVL53-1
 3514 02f2 1800     		.2byte	0x18
 3515 02f4 91       		.byte	0x91
 3516 02f5 847A     		.sleb128 -764
 3517 02f7 94       		.byte	0x94
 3518 02f8 01       		.byte	0x1
 3519 02f9 08       		.byte	0x8
 3520 02fa FF       		.byte	0xff
ARM GAS  C:\DOCUME~1\Chuck\LOCALS~1\Temp\ccjhbcm5.s 			page 92


 3521 02fb 1A       		.byte	0x1a
 3522 02fc 38       		.byte	0x38
 3523 02fd 24       		.byte	0x24
 3524 02fe 76       		.byte	0x76
 3525 02ff 00       		.sleb128 0
 3526 0300 75       		.byte	0x75
 3527 0301 00       		.sleb128 0
 3528 0302 22       		.byte	0x22
 3529 0303 23       		.byte	0x23
 3530 0304 04       		.uleb128 0x4
 3531 0305 94       		.byte	0x94
 3532 0306 01       		.byte	0x1
 3533 0307 08       		.byte	0x8
 3534 0308 FF       		.byte	0xff
 3535 0309 1A       		.byte	0x1a
 3536 030a 21       		.byte	0x21
 3537 030b 9F       		.byte	0x9f
 3538 030c 5A010000 		.4byte	.LVL78
 3539 0310 72010000 		.4byte	.LVL80
 3540 0314 1100     		.2byte	0x11
 3541 0316 91       		.byte	0x91
 3542 0317 847A     		.sleb128 -764
 3543 0319 94       		.byte	0x94
 3544 031a 01       		.byte	0x1
 3545 031b 08       		.byte	0x8
 3546 031c FF       		.byte	0xff
 3547 031d 1A       		.byte	0x1a
 3548 031e 38       		.byte	0x38
 3549 031f 24       		.byte	0x24
 3550 0320 7C       		.byte	0x7c
 3551 0321 00       		.sleb128 0
 3552 0322 08       		.byte	0x8
 3553 0323 FF       		.byte	0xff
 3554 0324 1A       		.byte	0x1a
 3555 0325 21       		.byte	0x21
 3556 0326 9F       		.byte	0x9f
 3557 0327 72010000 		.4byte	.LVL80
 3558 032b 76010000 		.4byte	.LVL82
 3559 032f 1800     		.2byte	0x18
 3560 0331 91       		.byte	0x91
 3561 0332 847A     		.sleb128 -764
 3562 0334 94       		.byte	0x94
 3563 0335 01       		.byte	0x1
 3564 0336 08       		.byte	0x8
 3565 0337 FF       		.byte	0xff
 3566 0338 1A       		.byte	0x1a
 3567 0339 38       		.byte	0x38
 3568 033a 24       		.byte	0x24
 3569 033b 76       		.byte	0x76
 3570 033c 00       		.sleb128 0
 3571 033d 75       		.byte	0x75
 3572 033e 00       		.sleb128 0
 3573 033f 22       		.byte	0x22
 3574 0340 23       		.byte	0x23
 3575 0341 04       		.uleb128 0x4
 3576 0342 94       		.byte	0x94
 3577 0343 01       		.byte	0x1
ARM GAS  C:\DOCUME~1\Chuck\LOCALS~1\Temp\ccjhbcm5.s 			page 93


 3578 0344 08       		.byte	0x8
 3579 0345 FF       		.byte	0xff
 3580 0346 1A       		.byte	0x1a
 3581 0347 21       		.byte	0x21
 3582 0348 9F       		.byte	0x9f
 3583 0349 76010000 		.4byte	.LVL82
 3584 034d 7A010000 		.4byte	.LVL83
 3585 0351 1100     		.2byte	0x11
 3586 0353 91       		.byte	0x91
 3587 0354 847A     		.sleb128 -764
 3588 0356 94       		.byte	0x94
 3589 0357 01       		.byte	0x1
 3590 0358 08       		.byte	0x8
 3591 0359 FF       		.byte	0xff
 3592 035a 1A       		.byte	0x1a
 3593 035b 38       		.byte	0x38
 3594 035c 24       		.byte	0x24
 3595 035d 7C       		.byte	0x7c
 3596 035e 00       		.sleb128 0
 3597 035f 08       		.byte	0x8
 3598 0360 FF       		.byte	0xff
 3599 0361 1A       		.byte	0x1a
 3600 0362 21       		.byte	0x21
 3601 0363 9F       		.byte	0x9f
 3602 0364 7A010000 		.4byte	.LVL83
 3603 0368 91010000 		.4byte	.LVL84-1
 3604 036c 1800     		.2byte	0x18
 3605 036e 91       		.byte	0x91
 3606 036f 847A     		.sleb128 -764
 3607 0371 94       		.byte	0x94
 3608 0372 01       		.byte	0x1
 3609 0373 08       		.byte	0x8
 3610 0374 FF       		.byte	0xff
 3611 0375 1A       		.byte	0x1a
 3612 0376 38       		.byte	0x38
 3613 0377 24       		.byte	0x24
 3614 0378 76       		.byte	0x76
 3615 0379 00       		.sleb128 0
 3616 037a 75       		.byte	0x75
 3617 037b 00       		.sleb128 0
 3618 037c 22       		.byte	0x22
 3619 037d 23       		.byte	0x23
 3620 037e 04       		.uleb128 0x4
 3621 037f 94       		.byte	0x94
 3622 0380 01       		.byte	0x1
 3623 0381 08       		.byte	0x8
 3624 0382 FF       		.byte	0xff
 3625 0383 1A       		.byte	0x1a
 3626 0384 21       		.byte	0x21
 3627 0385 9F       		.byte	0x9f
 3628 0386 A0010000 		.4byte	.LVL86
 3629 038a B6010000 		.4byte	.LVL87
 3630 038e 1800     		.2byte	0x18
 3631 0390 91       		.byte	0x91
 3632 0391 847A     		.sleb128 -764
 3633 0393 94       		.byte	0x94
 3634 0394 01       		.byte	0x1
ARM GAS  C:\DOCUME~1\Chuck\LOCALS~1\Temp\ccjhbcm5.s 			page 94


 3635 0395 08       		.byte	0x8
 3636 0396 FF       		.byte	0xff
 3637 0397 1A       		.byte	0x1a
 3638 0398 38       		.byte	0x38
 3639 0399 24       		.byte	0x24
 3640 039a 76       		.byte	0x76
 3641 039b 00       		.sleb128 0
 3642 039c 75       		.byte	0x75
 3643 039d 00       		.sleb128 0
 3644 039e 22       		.byte	0x22
 3645 039f 23       		.byte	0x23
 3646 03a0 04       		.uleb128 0x4
 3647 03a1 94       		.byte	0x94
 3648 03a2 01       		.byte	0x1
 3649 03a3 08       		.byte	0x8
 3650 03a4 FF       		.byte	0xff
 3651 03a5 1A       		.byte	0x1a
 3652 03a6 21       		.byte	0x21
 3653 03a7 9F       		.byte	0x9f
 3654 03a8 C6010000 		.4byte	.LVL90
 3655 03ac F3010000 		.4byte	.LVL95-1
 3656 03b0 1800     		.2byte	0x18
 3657 03b2 91       		.byte	0x91
 3658 03b3 847A     		.sleb128 -764
 3659 03b5 94       		.byte	0x94
 3660 03b6 01       		.byte	0x1
 3661 03b7 08       		.byte	0x8
 3662 03b8 FF       		.byte	0xff
 3663 03b9 1A       		.byte	0x1a
 3664 03ba 38       		.byte	0x38
 3665 03bb 24       		.byte	0x24
 3666 03bc 76       		.byte	0x76
 3667 03bd 00       		.sleb128 0
 3668 03be 75       		.byte	0x75
 3669 03bf 00       		.sleb128 0
 3670 03c0 22       		.byte	0x22
 3671 03c1 23       		.byte	0x23
 3672 03c2 04       		.uleb128 0x4
 3673 03c3 94       		.byte	0x94
 3674 03c4 01       		.byte	0x1
 3675 03c5 08       		.byte	0x8
 3676 03c6 FF       		.byte	0xff
 3677 03c7 1A       		.byte	0x1a
 3678 03c8 21       		.byte	0x21
 3679 03c9 9F       		.byte	0x9f
 3680 03ca FA010000 		.4byte	.LVL96
 3681 03ce 08020000 		.4byte	.LVL98
 3682 03d2 1800     		.2byte	0x18
 3683 03d4 91       		.byte	0x91
 3684 03d5 847A     		.sleb128 -764
 3685 03d7 94       		.byte	0x94
 3686 03d8 01       		.byte	0x1
 3687 03d9 08       		.byte	0x8
 3688 03da FF       		.byte	0xff
 3689 03db 1A       		.byte	0x1a
 3690 03dc 38       		.byte	0x38
 3691 03dd 24       		.byte	0x24
ARM GAS  C:\DOCUME~1\Chuck\LOCALS~1\Temp\ccjhbcm5.s 			page 95


 3692 03de 76       		.byte	0x76
 3693 03df 00       		.sleb128 0
 3694 03e0 75       		.byte	0x75
 3695 03e1 00       		.sleb128 0
 3696 03e2 22       		.byte	0x22
 3697 03e3 23       		.byte	0x23
 3698 03e4 04       		.uleb128 0x4
 3699 03e5 94       		.byte	0x94
 3700 03e6 01       		.byte	0x1
 3701 03e7 08       		.byte	0x8
 3702 03e8 FF       		.byte	0xff
 3703 03e9 1A       		.byte	0x1a
 3704 03ea 21       		.byte	0x21
 3705 03eb 9F       		.byte	0x9f
 3706 03ec 16020000 		.4byte	.LVL100
 3707 03f0 2E020000 		.4byte	.LVL103
 3708 03f4 1800     		.2byte	0x18
 3709 03f6 91       		.byte	0x91
 3710 03f7 847A     		.sleb128 -764
 3711 03f9 94       		.byte	0x94
 3712 03fa 01       		.byte	0x1
 3713 03fb 08       		.byte	0x8
 3714 03fc FF       		.byte	0xff
 3715 03fd 1A       		.byte	0x1a
 3716 03fe 38       		.byte	0x38
 3717 03ff 24       		.byte	0x24
 3718 0400 76       		.byte	0x76
 3719 0401 00       		.sleb128 0
 3720 0402 75       		.byte	0x75
 3721 0403 00       		.sleb128 0
 3722 0404 22       		.byte	0x22
 3723 0405 23       		.byte	0x23
 3724 0406 04       		.uleb128 0x4
 3725 0407 94       		.byte	0x94
 3726 0408 01       		.byte	0x1
 3727 0409 08       		.byte	0x8
 3728 040a FF       		.byte	0xff
 3729 040b 1A       		.byte	0x1a
 3730 040c 21       		.byte	0x21
 3731 040d 9F       		.byte	0x9f
 3732 040e 2E020000 		.4byte	.LVL103
 3733 0412 62020000 		.4byte	.LVL115
 3734 0416 2700     		.2byte	0x27
 3735 0418 91       		.byte	0x91
 3736 0419 847A     		.sleb128 -764
 3737 041b 94       		.byte	0x94
 3738 041c 01       		.byte	0x1
 3739 041d 08       		.byte	0x8
 3740 041e FF       		.byte	0xff
 3741 041f 1A       		.byte	0x1a
 3742 0420 38       		.byte	0x38
 3743 0421 24       		.byte	0x24
 3744 0422 76       		.byte	0x76
 3745 0423 03       		.sleb128 3
 3746 0424 94       		.byte	0x94
 3747 0425 01       		.byte	0x1
 3748 0426 08       		.byte	0x8
ARM GAS  C:\DOCUME~1\Chuck\LOCALS~1\Temp\ccjhbcm5.s 			page 96


 3749 0427 FF       		.byte	0xff
 3750 0428 1A       		.byte	0x1a
 3751 0429 38       		.byte	0x38
 3752 042a 24       		.byte	0x24
 3753 042b 76       		.byte	0x76
 3754 042c 02       		.sleb128 2
 3755 042d 94       		.byte	0x94
 3756 042e 01       		.byte	0x1
 3757 042f 08       		.byte	0x8
 3758 0430 FF       		.byte	0xff
 3759 0431 1A       		.byte	0x1a
 3760 0432 21       		.byte	0x21
 3761 0433 76       		.byte	0x76
 3762 0434 00       		.sleb128 0
 3763 0435 22       		.byte	0x22
 3764 0436 23       		.byte	0x23
 3765 0437 04       		.uleb128 0x4
 3766 0438 94       		.byte	0x94
 3767 0439 01       		.byte	0x1
 3768 043a 08       		.byte	0x8
 3769 043b FF       		.byte	0xff
 3770 043c 1A       		.byte	0x1a
 3771 043d 21       		.byte	0x21
 3772 043e 9F       		.byte	0x9f
 3773 043f 68020000 		.4byte	.LVL116
 3774 0443 6B020000 		.4byte	.LVL117-1
 3775 0447 1800     		.2byte	0x18
 3776 0449 91       		.byte	0x91
 3777 044a 847A     		.sleb128 -764
 3778 044c 94       		.byte	0x94
 3779 044d 01       		.byte	0x1
 3780 044e 08       		.byte	0x8
 3781 044f FF       		.byte	0xff
 3782 0450 1A       		.byte	0x1a
 3783 0451 38       		.byte	0x38
 3784 0452 24       		.byte	0x24
 3785 0453 76       		.byte	0x76
 3786 0454 00       		.sleb128 0
 3787 0455 75       		.byte	0x75
 3788 0456 00       		.sleb128 0
 3789 0457 22       		.byte	0x22
 3790 0458 23       		.byte	0x23
 3791 0459 04       		.uleb128 0x4
 3792 045a 94       		.byte	0x94
 3793 045b 01       		.byte	0x1
 3794 045c 08       		.byte	0x8
 3795 045d FF       		.byte	0xff
 3796 045e 1A       		.byte	0x1a
 3797 045f 21       		.byte	0x21
 3798 0460 9F       		.byte	0x9f
 3799 0461 00000000 		.4byte	0
 3800 0465 00000000 		.4byte	0
 3801              	.LLST12:
 3802 0469 26000000 		.4byte	.LVL40
 3803 046d 2E000000 		.4byte	.LVL41
 3804 0471 0100     		.2byte	0x1
 3805 0473 50       		.byte	0x50
ARM GAS  C:\DOCUME~1\Chuck\LOCALS~1\Temp\ccjhbcm5.s 			page 97


 3806 0474 2E000000 		.4byte	.LVL41
 3807 0478 FA000000 		.4byte	.LVL63
 3808 047c 0300     		.2byte	0x3
 3809 047e 91       		.byte	0x91
 3810 047f 807A     		.sleb128 -768
 3811 0481 5A010000 		.4byte	.LVL78
 3812 0485 DE010000 		.4byte	.LVL93
 3813 0489 0300     		.2byte	0x3
 3814 048b 91       		.byte	0x91
 3815 048c 807A     		.sleb128 -768
 3816 048e FA010000 		.4byte	.LVL96
 3817 0492 36020000 		.4byte	.LVL106
 3818 0496 0300     		.2byte	0x3
 3819 0498 91       		.byte	0x91
 3820 0499 807A     		.sleb128 -768
 3821 049b 68020000 		.4byte	.LVL116
 3822 049f 8C020000 		.4byte	.LVL122
 3823 04a3 0300     		.2byte	0x3
 3824 04a5 91       		.byte	0x91
 3825 04a6 807A     		.sleb128 -768
 3826 04a8 00000000 		.4byte	0
 3827 04ac 00000000 		.4byte	0
 3828              	.LLST13:
 3829 04b0 00000000 		.4byte	.LVL36
 3830 04b4 10000000 		.4byte	.LVL38
 3831 04b8 0200     		.2byte	0x2
 3832 04ba 30       		.byte	0x30
 3833 04bb 9F       		.byte	0x9f
 3834 04bc 44000000 		.4byte	.LVL42
 3835 04c0 C0000000 		.4byte	.LVL56
 3836 04c4 0100     		.2byte	0x1
 3837 04c6 55       		.byte	0x55
 3838 04c7 C0000000 		.4byte	.LVL56
 3839 04cb FA000000 		.4byte	.LVL63
 3840 04cf 0300     		.2byte	0x3
 3841 04d1 08       		.byte	0x8
 3842 04d2 80       		.byte	0x80
 3843 04d3 9F       		.byte	0x9f
 3844 04d4 5A010000 		.4byte	.LVL78
 3845 04d8 2E020000 		.4byte	.LVL103
 3846 04dc 0100     		.2byte	0x1
 3847 04de 55       		.byte	0x55
 3848 04df 2E020000 		.4byte	.LVL103
 3849 04e3 62020000 		.4byte	.LVL115
 3850 04e7 1200     		.2byte	0x12
 3851 04e9 76       		.byte	0x76
 3852 04ea 03       		.sleb128 3
 3853 04eb 94       		.byte	0x94
 3854 04ec 01       		.byte	0x1
 3855 04ed 08       		.byte	0x8
 3856 04ee FF       		.byte	0xff
 3857 04ef 1A       		.byte	0x1a
 3858 04f0 38       		.byte	0x38
 3859 04f1 24       		.byte	0x24
 3860 04f2 76       		.byte	0x76
 3861 04f3 02       		.sleb128 2
 3862 04f4 94       		.byte	0x94
ARM GAS  C:\DOCUME~1\Chuck\LOCALS~1\Temp\ccjhbcm5.s 			page 98


 3863 04f5 01       		.byte	0x1
 3864 04f6 08       		.byte	0x8
 3865 04f7 FF       		.byte	0xff
 3866 04f8 1A       		.byte	0x1a
 3867 04f9 21       		.byte	0x21
 3868 04fa 9F       		.byte	0x9f
 3869 04fb 68020000 		.4byte	.LVL116
 3870 04ff 7C020000 		.4byte	.LVL119
 3871 0503 0100     		.2byte	0x1
 3872 0505 55       		.byte	0x55
 3873 0506 7C020000 		.4byte	.LVL119
 3874 050a 88020000 		.4byte	.LVL121
 3875 050e 0300     		.2byte	0x3
 3876 0510 08       		.byte	0x8
 3877 0511 80       		.byte	0x80
 3878 0512 9F       		.byte	0x9f
 3879 0513 00000000 		.4byte	0
 3880 0517 00000000 		.4byte	0
 3881              	.LLST14:
 3882 051b 00000000 		.4byte	.LVL36
 3883 051f 10000000 		.4byte	.LVL38
 3884 0523 0200     		.2byte	0x2
 3885 0525 30       		.byte	0x30
 3886 0526 9F       		.byte	0x9f
 3887 0527 A0000000 		.4byte	.LVL52
 3888 052b AC000000 		.4byte	.LVL54
 3889 052f 0300     		.2byte	0x3
 3890 0531 08       		.byte	0x8
 3891 0532 80       		.byte	0x80
 3892 0533 9F       		.byte	0x9f
 3893 0534 AC000000 		.4byte	.LVL54
 3894 0538 B6000000 		.4byte	.LVL55
 3895 053c 0100     		.2byte	0x1
 3896 053e 54       		.byte	0x54
 3897 053f CE000000 		.4byte	.LVL57
 3898 0543 F6000000 		.4byte	.LVL62
 3899 0547 0100     		.2byte	0x1
 3900 0549 54       		.byte	0x54
 3901 054a FA000000 		.4byte	.LVL63
 3902 054e FC000000 		.4byte	.LVL64
 3903 0552 0100     		.2byte	0x1
 3904 0554 54       		.byte	0x54
 3905 0555 FE000000 		.4byte	.LVL65
 3906 0559 5A010000 		.4byte	.LVL78
 3907 055d 0100     		.2byte	0x1
 3908 055f 54       		.byte	0x54
 3909 0560 C6010000 		.4byte	.LVL90
 3910 0564 D0010000 		.4byte	.LVL91
 3911 0568 0100     		.2byte	0x1
 3912 056a 54       		.byte	0x54
 3913 056b 00000000 		.4byte	0
 3914 056f 00000000 		.4byte	0
 3915              	.LLST15:
 3916 0573 00000000 		.4byte	.LVL36
 3917 0577 10000000 		.4byte	.LVL38
 3918 057b 0200     		.2byte	0x2
 3919 057d 30       		.byte	0x30
ARM GAS  C:\DOCUME~1\Chuck\LOCALS~1\Temp\ccjhbcm5.s 			page 99


 3920 057e 9F       		.byte	0x9f
 3921 057f E6000000 		.4byte	.LVL59
 3922 0583 EA000000 		.4byte	.LVL60
 3923 0587 0200     		.2byte	0x2
 3924 0589 31       		.byte	0x31
 3925 058a 9F       		.byte	0x9f
 3926 058b EA000000 		.4byte	.LVL60
 3927 058f FA000000 		.4byte	.LVL63
 3928 0593 0300     		.2byte	0x3
 3929 0595 91       		.byte	0x91
 3930 0596 FC79     		.sleb128 -772
 3931 0598 FE000000 		.4byte	.LVL65
 3932 059c 5A010000 		.4byte	.LVL78
 3933 05a0 0300     		.2byte	0x3
 3934 05a2 91       		.byte	0x91
 3935 05a3 FC79     		.sleb128 -772
 3936 05a5 82020000 		.4byte	.LVL120
 3937 05a9 88020000 		.4byte	.LVL121
 3938 05ad 0300     		.2byte	0x3
 3939 05af 91       		.byte	0x91
 3940 05b0 FC79     		.sleb128 -772
 3941 05b2 00000000 		.4byte	0
 3942 05b6 00000000 		.4byte	0
 3943              	.LLST16:
 3944 05ba 00000000 		.4byte	.LVL36
 3945 05be 10000000 		.4byte	.LVL38
 3946 05c2 0200     		.2byte	0x2
 3947 05c4 30       		.byte	0x30
 3948 05c5 9F       		.byte	0x9f
 3949 05c6 FE000000 		.4byte	.LVL65
 3950 05ca 5A010000 		.4byte	.LVL78
 3951 05ce 0100     		.2byte	0x1
 3952 05d0 57       		.byte	0x57
 3953 05d1 08020000 		.4byte	.LVL98
 3954 05d5 16020000 		.4byte	.LVL100
 3955 05d9 0200     		.2byte	0x2
 3956 05db 31       		.byte	0x31
 3957 05dc 9F       		.byte	0x9f
 3958 05dd 00000000 		.4byte	0
 3959 05e1 00000000 		.4byte	0
 3960              	.LLST17:
 3961 05e5 8E000000 		.4byte	.LVL51
 3962 05e9 A9000000 		.4byte	.LVL53-1
 3963 05ed 0100     		.2byte	0x1
 3964 05ef 53       		.byte	0x53
 3965 05f0 6A010000 		.4byte	.LVL79
 3966 05f4 74010000 		.4byte	.LVL81
 3967 05f8 0100     		.2byte	0x1
 3968 05fa 53       		.byte	0x53
 3969 05fb 74010000 		.4byte	.LVL81
 3970 05ff 76010000 		.4byte	.LVL82
 3971 0603 0300     		.2byte	0x3
 3972 0605 91       		.byte	0x91
 3973 0606 947B     		.sleb128 -620
 3974 0608 76010000 		.4byte	.LVL82
 3975 060c 91010000 		.4byte	.LVL84-1
 3976 0610 0100     		.2byte	0x1
ARM GAS  C:\DOCUME~1\Chuck\LOCALS~1\Temp\ccjhbcm5.s 			page 100


 3977 0612 53       		.byte	0x53
 3978 0613 A0010000 		.4byte	.LVL86
 3979 0617 DC010000 		.4byte	.LVL92
 3980 061b 0100     		.2byte	0x1
 3981 061d 53       		.byte	0x53
 3982 061e DC010000 		.4byte	.LVL92
 3983 0622 DE010000 		.4byte	.LVL93
 3984 0626 0300     		.2byte	0x3
 3985 0628 91       		.byte	0x91
 3986 0629 947B     		.sleb128 -620
 3987 062b FA010000 		.4byte	.LVL96
 3988 062f 00020000 		.4byte	.LVL97
 3989 0633 0100     		.2byte	0x1
 3990 0635 53       		.byte	0x53
 3991 0636 00020000 		.4byte	.LVL97
 3992 063a 08020000 		.4byte	.LVL98
 3993 063e 0300     		.2byte	0x3
 3994 0640 91       		.byte	0x91
 3995 0641 947B     		.sleb128 -620
 3996 0643 16020000 		.4byte	.LVL100
 3997 0647 50020000 		.4byte	.LVL110
 3998 064b 0100     		.2byte	0x1
 3999 064d 53       		.byte	0x53
 4000 064e 68020000 		.4byte	.LVL116
 4001 0652 6B020000 		.4byte	.LVL117-1
 4002 0656 0100     		.2byte	0x1
 4003 0658 53       		.byte	0x53
 4004 0659 00000000 		.4byte	0
 4005 065d 00000000 		.4byte	0
 4006              	.LLST18:
 4007 0661 BA010000 		.4byte	.LVL88
 4008 0665 BE010000 		.4byte	.LVL89
 4009 0669 0100     		.2byte	0x1
 4010 066b 52       		.byte	0x52
 4011 066c 00000000 		.4byte	0
 4012 0670 00000000 		.4byte	0
 4013              	.LLST19:
 4014 0674 26020000 		.4byte	.LVL101
 4015 0678 62020000 		.4byte	.LVL115
 4016 067c 0100     		.2byte	0x1
 4017 067e 50       		.byte	0x50
 4018 067f 00000000 		.4byte	0
 4019 0683 00000000 		.4byte	0
 4020              	.LLST20:
 4021 0687 2C020000 		.4byte	.LVL102
 4022 068b 32020000 		.4byte	.LVL104
 4023 068f 0100     		.2byte	0x1
 4024 0691 52       		.byte	0x52
 4025 0692 32020000 		.4byte	.LVL104
 4026 0696 34020000 		.4byte	.LVL105
 4027 069a 0100     		.2byte	0x1
 4028 069c 55       		.byte	0x55
 4029 069d 34020000 		.4byte	.LVL105
 4030 06a1 36020000 		.4byte	.LVL106
 4031 06a5 0400     		.2byte	0x4
 4032 06a7 75       		.byte	0x75
 4033 06a8 817F     		.sleb128 -127
ARM GAS  C:\DOCUME~1\Chuck\LOCALS~1\Temp\ccjhbcm5.s 			page 101


 4034 06aa 9F       		.byte	0x9f
 4035 06ab 36020000 		.4byte	.LVL106
 4036 06af 62020000 		.4byte	.LVL115
 4037 06b3 0700     		.2byte	0x7
 4038 06b5 91       		.byte	0x91
 4039 06b6 807A     		.sleb128 -768
 4040 06b8 06       		.byte	0x6
 4041 06b9 23       		.byte	0x23
 4042 06ba 01       		.uleb128 0x1
 4043 06bb 9F       		.byte	0x9f
 4044 06bc 00000000 		.4byte	0
 4045 06c0 00000000 		.4byte	0
 4046              	.LLST21:
 4047 06c4 54020000 		.4byte	.LVL111
 4048 06c8 5A020000 		.4byte	.LVL112
 4049 06cc 0100     		.2byte	0x1
 4050 06ce 51       		.byte	0x51
 4051 06cf 5C020000 		.4byte	.LVL113
 4052 06d3 5E020000 		.4byte	.LVL114
 4053 06d7 0100     		.2byte	0x1
 4054 06d9 51       		.byte	0x51
 4055 06da 00000000 		.4byte	0
 4056 06de 00000000 		.4byte	0
 4057              	.LLST22:
 4058 06e2 2C020000 		.4byte	.LVL102
 4059 06e6 36020000 		.4byte	.LVL106
 4060 06ea 0300     		.2byte	0x3
 4061 06ec 08       		.byte	0x8
 4062 06ed 80       		.byte	0x80
 4063 06ee 9F       		.byte	0x9f
 4064 06ef 36020000 		.4byte	.LVL106
 4065 06f3 3A020000 		.4byte	.LVL107
 4066 06f7 0900     		.2byte	0x9
 4067 06f9 91       		.byte	0x91
 4068 06fa 807A     		.sleb128 -768
 4069 06fc 06       		.byte	0x6
 4070 06fd 20       		.byte	0x20
 4071 06fe 75       		.byte	0x75
 4072 06ff 00       		.sleb128 0
 4073 0700 22       		.byte	0x22
 4074 0701 9F       		.byte	0x9f
 4075 0702 3A020000 		.4byte	.LVL107
 4076 0706 62020000 		.4byte	.LVL115
 4077 070a 0800     		.2byte	0x8
 4078 070c 75       		.byte	0x75
 4079 070d 00       		.sleb128 0
 4080 070e 91       		.byte	0x91
 4081 070f 807A     		.sleb128 -768
 4082 0711 06       		.byte	0x6
 4083 0712 1C       		.byte	0x1c
 4084 0713 9F       		.byte	0x9f
 4085 0714 00000000 		.4byte	0
 4086 0718 00000000 		.4byte	0
 4087              	.LLST24:
 4088 071c 2C020000 		.4byte	.LVL102
 4089 0720 36020000 		.4byte	.LVL106
 4090 0724 0200     		.2byte	0x2
ARM GAS  C:\DOCUME~1\Chuck\LOCALS~1\Temp\ccjhbcm5.s 			page 102


 4091 0726 30       		.byte	0x30
 4092 0727 9F       		.byte	0x9f
 4093 0728 36020000 		.4byte	.LVL106
 4094 072c 40020000 		.4byte	.LVL108
 4095 0730 0100     		.2byte	0x1
 4096 0732 51       		.byte	0x51
 4097 0733 42020000 		.4byte	.LVL109
 4098 0737 54020000 		.4byte	.LVL111
 4099 073b 0100     		.2byte	0x1
 4100 073d 51       		.byte	0x51
 4101 073e 00000000 		.4byte	0
 4102 0742 00000000 		.4byte	0
 4103              	.LLST25:
 4104 0746 62000000 		.4byte	.LVL44
 4105 074a 72000000 		.4byte	.LVL45
 4106 074e 0100     		.2byte	0x1
 4107 0750 53       		.byte	0x53
 4108 0751 78000000 		.4byte	.LVL48
 4109 0755 7C000000 		.4byte	.LVL49
 4110 0759 0100     		.2byte	0x1
 4111 075b 53       		.byte	0x53
 4112 075c 00000000 		.4byte	0
 4113 0760 00000000 		.4byte	0
 4114              	.LLST26:
 4115 0764 62000000 		.4byte	.LVL44
 4116 0768 FC000000 		.4byte	.LVL64
 4117 076c 0100     		.2byte	0x1
 4118 076e 56       		.byte	0x56
 4119 076f 5A010000 		.4byte	.LVL78
 4120 0773 88020000 		.4byte	.LVL121
 4121 0777 0100     		.2byte	0x1
 4122 0779 56       		.byte	0x56
 4123 077a 00000000 		.4byte	0
 4124 077e 00000000 		.4byte	0
 4125              	.LLST27:
 4126 0782 62000000 		.4byte	.LVL44
 4127 0786 74000000 		.4byte	.LVL46
 4128 078a 0100     		.2byte	0x1
 4129 078c 50       		.byte	0x50
 4130 078d 76000000 		.4byte	.LVL47
 4131 0791 7E000000 		.4byte	.LVL50
 4132 0795 0100     		.2byte	0x1
 4133 0797 50       		.byte	0x50
 4134 0798 00000000 		.4byte	0
 4135 079c 00000000 		.4byte	0
 4136              	.LLST28:
 4137 07a0 10010000 		.4byte	.LVL67
 4138 07a4 5A010000 		.4byte	.LVL78
 4139 07a8 0300     		.2byte	0x3
 4140 07aa 91       		.byte	0x91
 4141 07ab 8E7A     		.sleb128 -754
 4142 07ad 00000000 		.4byte	0
 4143 07b1 00000000 		.4byte	0
 4144              	.LLST29:
 4145 07b5 FE000000 		.4byte	.LVL65
 4146 07b9 5A010000 		.4byte	.LVL78
 4147 07bd 0100     		.2byte	0x1
ARM GAS  C:\DOCUME~1\Chuck\LOCALS~1\Temp\ccjhbcm5.s 			page 103


 4148 07bf 56       		.byte	0x56
 4149 07c0 00000000 		.4byte	0
 4150 07c4 00000000 		.4byte	0
 4151              	.LLST30:
 4152 07c8 FE000000 		.4byte	.LVL65
 4153 07cc 08010000 		.4byte	.LVL66
 4154 07d0 0100     		.2byte	0x1
 4155 07d2 53       		.byte	0x53
 4156 07d3 08010000 		.4byte	.LVL66
 4157 07d7 3C010000 		.4byte	.LVL75
 4158 07db 0200     		.2byte	0x2
 4159 07dd 76       		.byte	0x76
 4160 07de 01       		.sleb128 1
 4161 07df 00000000 		.4byte	0
 4162 07e3 00000000 		.4byte	0
 4163              	.LLST31:
 4164 07e7 16010000 		.4byte	.LVL68
 4165 07eb 22010000 		.4byte	.LVL69
 4166 07ef 0100     		.2byte	0x1
 4167 07f1 50       		.byte	0x50
 4168 07f2 28010000 		.4byte	.LVL71
 4169 07f6 30010000 		.4byte	.LVL72
 4170 07fa 0100     		.2byte	0x1
 4171 07fc 50       		.byte	0x50
 4172 07fd 00000000 		.4byte	0
 4173 0801 00000000 		.4byte	0
 4174              	.LLST32:
 4175 0805 16010000 		.4byte	.LVL68
 4176 0809 5A010000 		.4byte	.LVL78
 4177 080d 0100     		.2byte	0x1
 4178 080f 56       		.byte	0x56
 4179 0810 00000000 		.4byte	0
 4180 0814 00000000 		.4byte	0
 4181              	.LLST33:
 4182 0818 16010000 		.4byte	.LVL68
 4183 081c 24010000 		.4byte	.LVL70
 4184 0820 0100     		.2byte	0x1
 4185 0822 53       		.byte	0x53
 4186 0823 28010000 		.4byte	.LVL71
 4187 0827 34010000 		.4byte	.LVL73
 4188 082b 0100     		.2byte	0x1
 4189 082d 53       		.byte	0x53
 4190 082e 34010000 		.4byte	.LVL73
 4191 0832 3A010000 		.4byte	.LVL74
 4192 0836 0400     		.2byte	0x4
 4193 0838 73       		.byte	0x73
 4194 0839 00       		.sleb128 0
 4195 083a 1F       		.byte	0x1f
 4196 083b 9F       		.byte	0x9f
 4197 083c 00000000 		.4byte	0
 4198 0840 00000000 		.4byte	0
 4199              	.LLST34:
 4200 0844 1E000000 		.4byte	.LVL131
 4201 0848 20000000 		.4byte	.LVL132
 4202 084c 0700     		.2byte	0x7
 4203 084e 73       		.byte	0x73
 4204 084f 00       		.sleb128 0
ARM GAS  C:\DOCUME~1\Chuck\LOCALS~1\Temp\ccjhbcm5.s 			page 104


 4205 0850 72       		.byte	0x72
 4206 0851 00       		.sleb128 0
 4207 0852 1C       		.byte	0x1c
 4208 0853 1F       		.byte	0x1f
 4209 0854 9F       		.byte	0x9f
 4210 0855 00000000 		.4byte	0
 4211 0859 00000000 		.4byte	0
 4212              	.LLST35:
 4213 085d 34000000 		.4byte	.LVL134
 4214 0861 49000000 		.4byte	.LVL135-1
 4215 0865 0100     		.2byte	0x1
 4216 0867 50       		.byte	0x50
 4217 0868 4A000000 		.4byte	.LVL135
 4218 086c 51000000 		.4byte	.LVL136-1
 4219 0870 0100     		.2byte	0x1
 4220 0872 50       		.byte	0x50
 4221 0873 00000000 		.4byte	0
 4222 0877 00000000 		.4byte	0
 4223              	.LLST36:
 4224 087b 08000000 		.4byte	.LVL124
 4225 087f 0C000000 		.4byte	.LVL125
 4226 0883 0400     		.2byte	0x4
 4227 0885 70       		.byte	0x70
 4228 0886 C07E     		.sleb128 -192
 4229 0888 9F       		.byte	0x9f
 4230 0889 0C000000 		.4byte	.LVL125
 4231 088d 0E000000 		.4byte	.LVL126
 4232 0891 0400     		.2byte	0x4
 4233 0893 71       		.byte	0x71
 4234 0894 C07E     		.sleb128 -192
 4235 0896 9F       		.byte	0x9f
 4236 0897 0E000000 		.4byte	.LVL126
 4237 089b 12000000 		.4byte	.LVL127
 4238 089f 0400     		.2byte	0x4
 4239 08a1 71       		.byte	0x71
 4240 08a2 C17E     		.sleb128 -191
 4241 08a4 9F       		.byte	0x9f
 4242 08a5 12000000 		.4byte	.LVL127
 4243 08a9 1A000000 		.4byte	.LVL130
 4244 08ad 0400     		.2byte	0x4
 4245 08af 71       		.byte	0x71
 4246 08b0 C07E     		.sleb128 -192
 4247 08b2 9F       		.byte	0x9f
 4248 08b3 1A000000 		.4byte	.LVL130
 4249 08b7 2F000000 		.4byte	.LVL133-1
 4250 08bb 0400     		.2byte	0x4
 4251 08bd 71       		.byte	0x71
 4252 08be C17E     		.sleb128 -191
 4253 08c0 9F       		.byte	0x9f
 4254 08c1 00000000 		.4byte	0
 4255 08c5 00000000 		.4byte	0
 4256              	.LLST37:
 4257 08c9 08000000 		.4byte	.LVL124
 4258 08cd 0C000000 		.4byte	.LVL125
 4259 08d1 0200     		.2byte	0x2
 4260 08d3 30       		.byte	0x30
 4261 08d4 9F       		.byte	0x9f
ARM GAS  C:\DOCUME~1\Chuck\LOCALS~1\Temp\ccjhbcm5.s 			page 105


 4262 08d5 0C000000 		.4byte	.LVL125
 4263 08d9 16000000 		.4byte	.LVL128
 4264 08dd 0100     		.2byte	0x1
 4265 08df 53       		.byte	0x53
 4266 08e0 18000000 		.4byte	.LVL129
 4267 08e4 20000000 		.4byte	.LVL132
 4268 08e8 0100     		.2byte	0x1
 4269 08ea 53       		.byte	0x53
 4270 08eb 00000000 		.4byte	0
 4271 08ef 00000000 		.4byte	0
 4272              	.LLST38:
 4273 08f3 00000000 		.4byte	.LVL140
 4274 08f7 2C000000 		.4byte	.LVL145
 4275 08fb 0100     		.2byte	0x1
 4276 08fd 50       		.byte	0x50
 4277 08fe 2C000000 		.4byte	.LVL145
 4278 0902 3E000000 		.4byte	.LFE42
 4279 0906 0400     		.2byte	0x4
 4280 0908 F3       		.byte	0xf3
 4281 0909 01       		.uleb128 0x1
 4282 090a 50       		.byte	0x50
 4283 090b 9F       		.byte	0x9f
 4284 090c 00000000 		.4byte	0
 4285 0910 00000000 		.4byte	0
 4286              	.LLST39:
 4287 0914 00000000 		.4byte	.LVL140
 4288 0918 16000000 		.4byte	.LVL142
 4289 091c 0100     		.2byte	0x1
 4290 091e 51       		.byte	0x51
 4291 091f 16000000 		.4byte	.LVL142
 4292 0923 3E000000 		.4byte	.LFE42
 4293 0927 0400     		.2byte	0x4
 4294 0929 F3       		.byte	0xf3
 4295 092a 01       		.uleb128 0x1
 4296 092b 51       		.byte	0x51
 4297 092c 9F       		.byte	0x9f
 4298 092d 00000000 		.4byte	0
 4299 0931 00000000 		.4byte	0
 4300              	.LLST41:
 4301 0935 14000000 		.4byte	.LVL141
 4302 0939 3C000000 		.4byte	.LVL147
 4303 093d 0100     		.2byte	0x1
 4304 093f 54       		.byte	0x54
 4305 0940 3C000000 		.4byte	.LVL147
 4306 0944 3E000000 		.4byte	.LFE42
 4307 0948 0800     		.2byte	0x8
 4308 094a F3       		.byte	0xf3
 4309 094b 01       		.uleb128 0x1
 4310 094c 50       		.byte	0x50
 4311 094d 41       		.byte	0x41
 4312 094e 24       		.byte	0x24
 4313 094f 48       		.byte	0x48
 4314 0950 25       		.byte	0x25
 4315 0951 9F       		.byte	0x9f
 4316 0952 00000000 		.4byte	0
 4317 0956 00000000 		.4byte	0
 4318              	.LLST42:
ARM GAS  C:\DOCUME~1\Chuck\LOCALS~1\Temp\ccjhbcm5.s 			page 106


 4319 095a 14000000 		.4byte	.LVL141
 4320 095e 16000000 		.4byte	.LVL142
 4321 0962 0100     		.2byte	0x1
 4322 0964 53       		.byte	0x53
 4323 0965 16000000 		.4byte	.LVL142
 4324 0969 3C000000 		.4byte	.LVL148
 4325 096d 0100     		.2byte	0x1
 4326 096f 55       		.byte	0x55
 4327 0970 3C000000 		.4byte	.LVL148
 4328 0974 3C000000 		.4byte	.LVL149
 4329 0978 0400     		.2byte	0x4
 4330 097a 76       		.byte	0x76
 4331 097b 807F     		.sleb128 -128
 4332 097d 9F       		.byte	0x9f
 4333 097e 3C000000 		.4byte	.LVL149
 4334 0982 3E000000 		.4byte	.LFE42
 4335 0986 0700     		.2byte	0x7
 4336 0988 F3       		.byte	0xf3
 4337 0989 01       		.uleb128 0x1
 4338 098a 50       		.byte	0x50
 4339 098b 09       		.byte	0x9
 4340 098c 80       		.byte	0x80
 4341 098d 1A       		.byte	0x1a
 4342 098e 9F       		.byte	0x9f
 4343 098f 00000000 		.4byte	0
 4344 0993 00000000 		.4byte	0
 4345              	.LLST43:
 4346 0997 14000000 		.4byte	.LVL141
 4347 099b 16000000 		.4byte	.LVL142
 4348 099f 0200     		.2byte	0x2
 4349 09a1 30       		.byte	0x30
 4350 09a2 9F       		.byte	0x9f
 4351 09a3 16000000 		.4byte	.LVL142
 4352 09a7 22000000 		.4byte	.LVL143
 4353 09ab 0600     		.2byte	0x6
 4354 09ad 73       		.byte	0x73
 4355 09ae 00       		.sleb128 0
 4356 09af 75       		.byte	0x75
 4357 09b0 00       		.sleb128 0
 4358 09b1 1C       		.byte	0x1c
 4359 09b2 9F       		.byte	0x9f
 4360 09b3 22000000 		.4byte	.LVL143
 4361 09b7 24000000 		.4byte	.LVL144
 4362 09bb 0800     		.2byte	0x8
 4363 09bd 73       		.byte	0x73
 4364 09be 00       		.sleb128 0
 4365 09bf 75       		.byte	0x75
 4366 09c0 00       		.sleb128 0
 4367 09c1 1C       		.byte	0x1c
 4368 09c2 23       		.byte	0x23
 4369 09c3 01       		.uleb128 0x1
 4370 09c4 9F       		.byte	0x9f
 4371 09c5 00000000 		.4byte	0
 4372 09c9 00000000 		.4byte	0
 4373              		.section	.debug_aranges,"",%progbits
 4374 0000 4C000000 		.4byte	0x4c
 4375 0004 0200     		.2byte	0x2
ARM GAS  C:\DOCUME~1\Chuck\LOCALS~1\Temp\ccjhbcm5.s 			page 107


 4376 0006 00000000 		.4byte	.Ldebug_info0
 4377 000a 04       		.byte	0x4
 4378 000b 00       		.byte	0
 4379 000c 0000     		.2byte	0
 4380 000e 0000     		.2byte	0
 4381 0010 00000000 		.4byte	.LFB38
 4382 0014 02000000 		.4byte	.LFE38-.LFB38
 4383 0018 00000000 		.4byte	.LFB44
 4384 001c 8C000000 		.4byte	.LFE44-.LFB44
 4385 0020 00000000 		.4byte	.LFB45
 4386 0024 58000000 		.4byte	.LFE45-.LFB45
 4387 0028 00000000 		.4byte	.LFB46
 4388 002c B8020000 		.4byte	.LFE46-.LFB46
 4389 0030 00000000 		.4byte	.LFB35
 4390 0034 5C000000 		.4byte	.LFE35-.LFB35
 4391 0038 00000000 		.4byte	.LFB37
 4392 003c 38000000 		.4byte	.LFE37-.LFB37
 4393 0040 00000000 		.4byte	.LFB42
 4394 0044 3E000000 		.4byte	.LFE42-.LFB42
 4395 0048 00000000 		.4byte	0
 4396 004c 00000000 		.4byte	0
 4397              		.section	.debug_ranges,"",%progbits
 4398              	.Ldebug_ranges0:
 4399 0000 10000000 		.4byte	.LBB22
 4400 0004 12000000 		.4byte	.LBE22
 4401 0008 8E000000 		.4byte	.LBB35
 4402 000c FC000000 		.4byte	.LBE35
 4403 0010 5A010000 		.4byte	.LBB44
 4404 0014 88020000 		.4byte	.LBE44
 4405 0018 00000000 		.4byte	0
 4406 001c 00000000 		.4byte	0
 4407 0020 5E000000 		.4byte	.LBB29
 4408 0024 60000000 		.4byte	.LBE29
 4409 0028 62000000 		.4byte	.LBB33
 4410 002c 7A000000 		.4byte	.LBE33
 4411 0030 7C000000 		.4byte	.LBB34
 4412 0034 7E000000 		.4byte	.LBE34
 4413 0038 00000000 		.4byte	0
 4414 003c 00000000 		.4byte	0
 4415 0040 16010000 		.4byte	.LBB38
 4416 0044 2C010000 		.4byte	.LBE38
 4417 0048 32010000 		.4byte	.LBB42
 4418 004c 34010000 		.4byte	.LBE42
 4419 0050 38010000 		.4byte	.LBB43
 4420 0054 3A010000 		.4byte	.LBE43
 4421 0058 00000000 		.4byte	0
 4422 005c 00000000 		.4byte	0
 4423 0060 08000000 		.4byte	.LBB49
 4424 0064 0A000000 		.4byte	.LBE49
 4425 0068 0E000000 		.4byte	.LBB52
 4426 006c 1A000000 		.4byte	.LBE52
 4427 0070 00000000 		.4byte	0
 4428 0074 00000000 		.4byte	0
 4429 0078 4A000000 		.4byte	.LBB53
 4430 007c 4C000000 		.4byte	.LBE53
 4431 0080 4C000000 		.4byte	.LBB56
 4432 0084 52000000 		.4byte	.LBE56
ARM GAS  C:\DOCUME~1\Chuck\LOCALS~1\Temp\ccjhbcm5.s 			page 108


 4433 0088 00000000 		.4byte	0
 4434 008c 00000000 		.4byte	0
 4435 0090 00000000 		.4byte	.LFB38
 4436 0094 02000000 		.4byte	.LFE38
 4437 0098 00000000 		.4byte	.LFB44
 4438 009c 8C000000 		.4byte	.LFE44
 4439 00a0 00000000 		.4byte	.LFB45
 4440 00a4 58000000 		.4byte	.LFE45
 4441 00a8 00000000 		.4byte	.LFB46
 4442 00ac B8020000 		.4byte	.LFE46
 4443 00b0 00000000 		.4byte	.LFB35
 4444 00b4 5C000000 		.4byte	.LFE35
 4445 00b8 00000000 		.4byte	.LFB37
 4446 00bc 38000000 		.4byte	.LFE37
 4447 00c0 00000000 		.4byte	.LFB42
 4448 00c4 3E000000 		.4byte	.LFE42
 4449 00c8 00000000 		.4byte	0
 4450 00cc 00000000 		.4byte	0
 4451              		.section	.debug_line,"",%progbits
 4452              	.Ldebug_line0:
 4453 0000 E5020000 		.section	.debug_str,"MS",%progbits,1
 4453      02009C00 
 4453      00000201 
 4453      FB0E0D00 
 4453      01010101 
 4454              	.LASF41:
 4455 0000 74696D65 		.ascii	"timeOutCnt\000"
 4455      4F757443 
 4455      6E7400
 4456              	.LASF32:
 4457 000b 63757242 		.ascii	"curByte\000"
 4457      79746500 
 4458              	.LASF10:
 4459 0013 75696E74 		.ascii	"uint16\000"
 4459      313600
 4460              	.LASF83:
 4461 001a 474E5520 		.ascii	"GNU C 4.9.3 20150303 (release) [ARM/embedded-4_9-br"
 4461      4320342E 
 4461      392E3320 
 4461      32303135 
 4461      30333033 
 4462 004d 616E6368 		.ascii	"anch revision 221220] -mcpu=cortex-m0 -mthumb -g -O"
 4462      20726576 
 4462      6973696F 
 4462      6E203232 
 4462      31323230 
 4463 0080 73202D66 		.ascii	"s -ffunction-sections -ffat-lto-objects\000"
 4463      66756E63 
 4463      74696F6E 
 4463      2D736563 
 4463      74696F6E 
 4464              	.LASF69:
 4465 00a8 62617365 		.ascii	"baseAddr\000"
 4465      41646472 
 4465      00
 4466              	.LASF46:
 4467 00b1 62746C64 		.ascii	"btldrData\000"
ARM GAS  C:\DOCUME~1\Chuck\LOCALS~1\Temp\ccjhbcm5.s 			page 109


 4467      72446174 
 4467      6100
 4468              	.LASF35:
 4469 00bb 72737053 		.ascii	"rspSize\000"
 4469      697A6500 
 4470              	.LASF52:
 4471 00c3 63686563 		.ascii	"checksum\000"
 4471      6B73756D 
 4471      00
 4472              	.LASF43:
 4473 00cc 636F6D6D 		.ascii	"communicationState\000"
 4473      756E6963 
 4473      6174696F 
 4473      6E537461 
 4473      746500
 4474              	.LASF44:
 4475 00df 7061636B 		.ascii	"packetBuffer\000"
 4475      65744275 
 4475      66666572 
 4475      00
 4476              	.LASF50:
 4477 00ec 726F774E 		.ascii	"rowNum\000"
 4477      756D00
 4478              	.LASF7:
 4479 00f3 6C6F6E67 		.ascii	"long long unsigned int\000"
 4479      206C6F6E 
 4479      6720756E 
 4479      7369676E 
 4479      65642069 
 4480              	.LASF31:
 4481 010a 63616C63 		.ascii	"calcedChecksum\000"
 4481      65644368 
 4481      65636B73 
 4481      756D00
 4482              	.LASF60:
 4483 0119 746D7053 		.ascii	"tmpStatus\000"
 4483      74617475 
 4483      7300
 4484              	.LASF74:
 4485 0123 63794274 		.ascii	"cyBtldrRunType\000"
 4485      6C647252 
 4485      756E5479 
 4485      706500
 4486              	.LASF61:
 4487 0132 426F6F74 		.ascii	"Bootloader_Start\000"
 4487      6C6F6164 
 4487      65725F53 
 4487      74617274 
 4487      00
 4488              	.LASF80:
 4489 0143 4379536F 		.ascii	"CySoftwareReset\000"
 4489      66747761 
 4489      72655265 
 4489      73657400 
 4490              	.LASF58:
 4491 0153 426F6F74 		.ascii	"Bootloader_WritePacket\000"
 4491      6C6F6164 
ARM GAS  C:\DOCUME~1\Chuck\LOCALS~1\Temp\ccjhbcm5.s 			page 110


 4491      65725F57 
 4491      72697465 
 4491      5061636B 
 4492              	.LASF47:
 4493 016a 73746172 		.ascii	"startRow\000"
 4493      74526F77 
 4493      00
 4494              	.LASF6:
 4495 0173 6C6F6E67 		.ascii	"long long int\000"
 4495      206C6F6E 
 4495      6720696E 
 4495      7400
 4496              	.LASF0:
 4497 0181 7369676E 		.ascii	"signed char\000"
 4497      65642063 
 4497      68617200 
 4498              	.LASF59:
 4499 018d 73746174 		.ascii	"status\000"
 4499      757300
 4500              	.LASF36:
 4501 0194 61636B43 		.ascii	"ackCode\000"
 4501      6F646500 
 4502              	.LASF55:
 4503 019c 73697A65 		.ascii	"size\000"
 4503      00
 4504              	.LASF48:
 4505 01a1 65726173 		.ascii	"erase\000"
 4505      6500
 4506              	.LASF34:
 4507 01a7 6E756D62 		.ascii	"numberRead\000"
 4507      65725265 
 4507      616400
 4508              	.LASF85:
 4509 01b2 433A5C44 		.ascii	"C:\\Documents and Settings\\Chuck\\My Documents\\PS"
 4509      6F63756D 
 4509      656E7473 
 4509      20616E64 
 4509      20536574 
 4510 01e1 6F432043 		.ascii	"oC Creator\\RosOnAStick\\Bootloader.cydsn\000"
 4510      72656174 
 4510      6F725C52 
 4510      6F734F6E 
 4510      41537469 
 4511              	.LASF4:
 4512 0209 6C6F6E67 		.ascii	"long int\000"
 4512      20696E74 
 4512      00
 4513              	.LASF79:
 4514 0212 43794274 		.ascii	"CyBtldrCommWrite\000"
 4514      6C647243 
 4514      6F6D6D57 
 4514      72697465 
 4514      00
 4515              	.LASF77:
 4516 0223 6D656D63 		.ascii	"memcpy\000"
 4516      707900
 4517              	.LASF9:
ARM GAS  C:\DOCUME~1\Chuck\LOCALS~1\Temp\ccjhbcm5.s 			page 111


 4518 022a 75696E74 		.ascii	"uint8\000"
 4518      3800
 4519              	.LASF13:
 4520 0230 646F7562 		.ascii	"double\000"
 4520      6C6500
 4521              	.LASF38:
 4522 0237 72656164 		.ascii	"readStat\000"
 4522      53746174 
 4522      00
 4523              	.LASF11:
 4524 0240 75696E74 		.ascii	"uint32\000"
 4524      333200
 4525              	.LASF28:
 4526 0247 426F6F74 		.ascii	"Bootloader_GetMetadata\000"
 4526      6C6F6164 
 4526      65725F47 
 4526      65744D65 
 4526      74616461 
 4527              	.LASF86:
 4528 025e 426F6F74 		.ascii	"Bootloader_HostLink\000"
 4528      6C6F6164 
 4528      65725F48 
 4528      6F73744C 
 4528      696E6B00 
 4529              	.LASF62:
 4530 0272 43794274 		.ascii	"CyBtldr_CheckLaunch\000"
 4530      6C64725F 
 4530      43686563 
 4530      6B4C6175 
 4530      6E636800 
 4531              	.LASF45:
 4532 0286 64617461 		.ascii	"dataBuffer\000"
 4532      42756666 
 4532      657200
 4533              	.LASF40:
 4534 0291 64617461 		.ascii	"dataOffset\000"
 4534      4F666673 
 4534      657400
 4535              	.LASF8:
 4536 029c 756E7369 		.ascii	"unsigned int\000"
 4536      676E6564 
 4536      20696E74 
 4536      00
 4537              	.LASF64:
 4538 02a9 61707041 		.ascii	"appAddr\000"
 4538      64647200 
 4539              	.LASF63:
 4540 02b1 426F6F74 		.ascii	"Bootloader_SetFlashByte\000"
 4540      6C6F6164 
 4540      65725F53 
 4540      6574466C 
 4540      61736842 
 4541              	.LASF5:
 4542 02c9 6C6F6E67 		.ascii	"long unsigned int\000"
 4542      20756E73 
 4542      69676E65 
 4542      6420696E 
ARM GAS  C:\DOCUME~1\Chuck\LOCALS~1\Temp\ccjhbcm5.s 			page 112


 4542      7400
 4543              	.LASF53:
 4544 02db 426F6F74 		.ascii	"Bootloader_CalcPacketChecksum\000"
 4544      6C6F6164 
 4544      65725F43 
 4544      616C6350 
 4544      61636B65 
 4545              	.LASF87:
 4546 02f9 426F6F74 		.ascii	"Bootloader_LaunchBootloadable\000"
 4546      6C6F6164 
 4546      65725F4C 
 4546      61756E63 
 4546      68426F6F 
 4547              	.LASF3:
 4548 0317 73686F72 		.ascii	"short unsigned int\000"
 4548      7420756E 
 4548      7369676E 
 4548      65642069 
 4548      6E7400
 4549              	.LASF33:
 4550 032a 74696D65 		.ascii	"timeOut\000"
 4550      4F757400 
 4551              	.LASF49:
 4552 0332 42746C64 		.ascii	"BtldrVersion\000"
 4552      72566572 
 4552      73696F6E 
 4552      00
 4553              	.LASF88:
 4554 033f 426F6F74 		.ascii	"Bootloader_LaunchApplication\000"
 4554      6C6F6164 
 4554      65725F4C 
 4554      61756E63 
 4554      68417070 
 4555              	.LASF17:
 4556 035c 72656733 		.ascii	"reg32\000"
 4556      3200
 4557              	.LASF21:
 4558 0362 73697A65 		.ascii	"sizetype\000"
 4558      74797065 
 4558      00
 4559              	.LASF26:
 4560 036b 6669656C 		.ascii	"fieldSize\000"
 4560      6453697A 
 4560      6500
 4561              	.LASF65:
 4562 0375 61646472 		.ascii	"address\000"
 4562      65737300 
 4563              	.LASF22:
 4564 037d 426F6F74 		.ascii	"Bootloader_ENTER\000"
 4564      6C6F6164 
 4564      65725F45 
 4564      4E544552 
 4564      00
 4565              	.LASF25:
 4566 038e 6669656C 		.ascii	"fieldPtr\000"
 4566      64507472 
 4566      00
ARM GAS  C:\DOCUME~1\Chuck\LOCALS~1\Temp\ccjhbcm5.s 			page 113


 4567              	.LASF12:
 4568 0397 666C6F61 		.ascii	"float\000"
 4568      7400
 4569              	.LASF72:
 4570 039d 426F6F74 		.ascii	"Bootloader_SizeBytes\000"
 4570      6C6F6164 
 4570      65725F53 
 4570      697A6542 
 4570      79746573 
 4571              	.LASF16:
 4572 03b2 72656738 		.ascii	"reg8\000"
 4572      00
 4573              	.LASF24:
 4574 03b7 61707049 		.ascii	"appId\000"
 4574      6400
 4575              	.LASF1:
 4576 03bd 756E7369 		.ascii	"unsigned char\000"
 4576      676E6564 
 4576      20636861 
 4576      7200
 4577              	.LASF82:
 4578 03cb 43794274 		.ascii	"CyBtldrCommRead\000"
 4578      6C647243 
 4578      6F6D6D52 
 4578      65616400 
 4579              	.LASF66:
 4580 03db 72756E54 		.ascii	"runType\000"
 4580      79706500 
 4581              	.LASF51:
 4582 03e3 726F7741 		.ascii	"rowAddr\000"
 4582      64647200 
 4583              	.LASF2:
 4584 03eb 73686F72 		.ascii	"short int\000"
 4584      7420696E 
 4584      7400
 4585              	.LASF81:
 4586 03f5 43794274 		.ascii	"CyBtldrCommStart\000"
 4586      6C647243 
 4586      6F6D6D53 
 4586      74617274 
 4586      00
 4587              	.LASF30:
 4588 0406 76616C69 		.ascii	"valid\000"
 4588      6400
 4589              	.LASF29:
 4590 040c 426F6F74 		.ascii	"Bootloader_ValidateBootloadable\000"
 4590      6C6F6164 
 4590      65725F56 
 4590      616C6964 
 4590      61746542 
 4591              	.LASF73:
 4592 042c 426F6F74 		.ascii	"Bootloader_SizeBytesAccess\000"
 4592      6C6F6164 
 4592      65725F53 
 4592      697A6542 
 4592      79746573 
 4593              	.LASF14:
ARM GAS  C:\DOCUME~1\Chuck\LOCALS~1\Temp\ccjhbcm5.s 			page 114


 4594 0447 63686172 		.ascii	"char\000"
 4594      00
 4595              	.LASF37:
 4596 044c 706B7443 		.ascii	"pktChecksum\000"
 4596      6865636B 
 4596      73756D00 
 4597              	.LASF54:
 4598 0458 62756666 		.ascii	"buffer\000"
 4598      657200
 4599              	.LASF23:
 4600 045f 6669656C 		.ascii	"fieldName\000"
 4600      644E616D 
 4600      6500
 4601              	.LASF19:
 4602 0469 52657669 		.ascii	"Revision\000"
 4602      73696F6E 
 4602      00
 4603              	.LASF71:
 4604 0472 426F6F74 		.ascii	"Bootloader_ChecksumAccess\000"
 4604      6C6F6164 
 4604      65725F43 
 4604      6865636B 
 4604      73756D41 
 4605              	.LASF18:
 4606 048c 53696C69 		.ascii	"SiliconId\000"
 4606      636F6E49 
 4606      6400
 4607              	.LASF76:
 4608 0496 6D656D73 		.ascii	"memset\000"
 4608      657400
 4609              	.LASF56:
 4610 049d 426F6F74 		.ascii	"Bootloader_Calc8BitFlashSum\000"
 4610      6C6F6164 
 4610      65725F43 
 4610      616C6338 
 4610      42697446 
 4611              	.LASF20:
 4612 04b9 426F6F74 		.ascii	"BootLoaderVersion\000"
 4612      4C6F6164 
 4612      65725665 
 4612      7273696F 
 4612      6E00
 4613              	.LASF78:
 4614 04cb 43795379 		.ascii	"CySysFlashWriteRow\000"
 4614      73466C61 
 4614      73685772 
 4614      69746552 
 4614      6F7700
 4615              	.LASF67:
 4616 04de 666C7341 		.ascii	"flsAddr\000"
 4616      64647200 
 4617              	.LASF15:
 4618 04e6 63797374 		.ascii	"cystatus\000"
 4618      61747573 
 4618      00
 4619              	.LASF39:
 4620 04ef 706B7453 		.ascii	"pktSize\000"
ARM GAS  C:\DOCUME~1\Chuck\LOCALS~1\Temp\ccjhbcm5.s 			page 115


 4620      697A6500 
 4621              	.LASF68:
 4622 04f7 726F7744 		.ascii	"rowData\000"
 4622      61746100 
 4623              	.LASF42:
 4624 04ff 636C6561 		.ascii	"clearedMetaData\000"
 4624      7265644D 
 4624      65746144 
 4624      61746100 
 4625              	.LASF57:
 4626 050f 73746172 		.ascii	"start\000"
 4626      7400
 4627              	.LASF84:
 4628 0515 2E5C4765 		.ascii	".\\Generated_Source\\PSoC4\\Bootloader.c\000"
 4628      6E657261 
 4628      7465645F 
 4628      536F7572 
 4628      63655C50 
 4629              	.LASF75:
 4630 053b 43794861 		.ascii	"CyHalt\000"
 4630      6C7400
 4631              	.LASF27:
 4632 0542 72657375 		.ascii	"result\000"
 4632      6C7400
 4633              	.LASF70:
 4634 0549 426F6F74 		.ascii	"Bootloader_Checksum\000"
 4634      6C6F6164 
 4634      65725F43 
 4634      6865636B 
 4634      73756D00 
 4635              		.ident	"GCC: (GNU Tools for ARM Embedded Processors) 4.9.3 20150303 (release) [ARM/embedded-4_9-br
