ARM GAS  C:\DOCUME~1\Chuck\LOCALS~1\Temp\ccsSGTn9.s 			page 1


   1              		.cpu cortex-m0
   2              		.fpu softvfp
   3              		.eabi_attribute 20, 1
   4              		.eabi_attribute 21, 1
   5              		.eabi_attribute 23, 3
   6              		.eabi_attribute 24, 1
   7              		.eabi_attribute 25, 1
   8              		.eabi_attribute 26, 1
   9              		.eabi_attribute 30, 4
  10              		.eabi_attribute 34, 0
  11              		.eabi_attribute 18, 4
  12              		.code	16
  13              		.file	"CyFlash.c"
  14              		.text
  15              	.Ltext0:
  16              		.cfi_sections	.debug_frame
  17              		.section	.text.CySysFlashWriteRow,"ax",%progbits
  18              		.align	1
  19              		.global	CySysFlashWriteRow
  20              		.code	16
  21              		.thumb_func
  22              		.type	CySysFlashWriteRow, %function
  23              	CySysFlashWriteRow:
  24              	.LFB0:
  25              		.file 1 ".\\Generated_Source\\PSoC4\\CyFlash.c"
   1:.\Generated_Source\PSoC4/CyFlash.c **** /*******************************************************************************
   2:.\Generated_Source\PSoC4/CyFlash.c **** * File Name: CyFlash.c
   3:.\Generated_Source\PSoC4/CyFlash.c **** * Version 4.10
   4:.\Generated_Source\PSoC4/CyFlash.c **** *
   5:.\Generated_Source\PSoC4/CyFlash.c **** *  Description:
   6:.\Generated_Source\PSoC4/CyFlash.c **** *   Provides an API for the FLASH.
   7:.\Generated_Source\PSoC4/CyFlash.c **** *
   8:.\Generated_Source\PSoC4/CyFlash.c **** *  Note:
   9:.\Generated_Source\PSoC4/CyFlash.c **** *   This code is endian agnostic.
  10:.\Generated_Source\PSoC4/CyFlash.c **** *
  11:.\Generated_Source\PSoC4/CyFlash.c **** *  Note:
  12:.\Generated_Source\PSoC4/CyFlash.c **** *   Documentation of the API's in this file is located in the
  13:.\Generated_Source\PSoC4/CyFlash.c **** *   System Reference Guide provided with PSoC Creator.
  14:.\Generated_Source\PSoC4/CyFlash.c **** *
  15:.\Generated_Source\PSoC4/CyFlash.c **** ********************************************************************************
  16:.\Generated_Source\PSoC4/CyFlash.c **** * Copyright 2010-2014, Cypress Semiconductor Corporation.  All rights reserved.
  17:.\Generated_Source\PSoC4/CyFlash.c **** * You may use this file only in accordance with the license, terms, conditions,
  18:.\Generated_Source\PSoC4/CyFlash.c **** * disclaimers, and limitations in the end user license agreement accompanying
  19:.\Generated_Source\PSoC4/CyFlash.c **** * the software package with which this file was provided.
  20:.\Generated_Source\PSoC4/CyFlash.c **** *******************************************************************************/
  21:.\Generated_Source\PSoC4/CyFlash.c **** 
  22:.\Generated_Source\PSoC4/CyFlash.c **** #include "CyFlash.h"
  23:.\Generated_Source\PSoC4/CyFlash.c **** 
  24:.\Generated_Source\PSoC4/CyFlash.c **** 
  25:.\Generated_Source\PSoC4/CyFlash.c **** /*******************************************************************************
  26:.\Generated_Source\PSoC4/CyFlash.c **** * Function Name: CySysFlashWriteRow
  27:.\Generated_Source\PSoC4/CyFlash.c **** ********************************************************************************
  28:.\Generated_Source\PSoC4/CyFlash.c **** *
  29:.\Generated_Source\PSoC4/CyFlash.c **** * Summary:
  30:.\Generated_Source\PSoC4/CyFlash.c **** *  Writes a row of Flash.
  31:.\Generated_Source\PSoC4/CyFlash.c **** *
  32:.\Generated_Source\PSoC4/CyFlash.c **** * Parameters:
ARM GAS  C:\DOCUME~1\Chuck\LOCALS~1\Temp\ccsSGTn9.s 			page 2


  33:.\Generated_Source\PSoC4/CyFlash.c **** *  uint16 rowNum:
  34:.\Generated_Source\PSoC4/CyFlash.c **** *   Row number. Each row is 128 bytes so a 32KB flash memory will have a valid
  35:.\Generated_Source\PSoC4/CyFlash.c **** *   range of [0-255].
  36:.\Generated_Source\PSoC4/CyFlash.c **** *
  37:.\Generated_Source\PSoC4/CyFlash.c **** *  uint8* rowData:
  38:.\Generated_Source\PSoC4/CyFlash.c **** *   Array of bytes to write.
  39:.\Generated_Source\PSoC4/CyFlash.c **** *
  40:.\Generated_Source\PSoC4/CyFlash.c **** * Return:
  41:.\Generated_Source\PSoC4/CyFlash.c **** *  Status
  42:.\Generated_Source\PSoC4/CyFlash.c **** *     Value             Description
  43:.\Generated_Source\PSoC4/CyFlash.c **** *    CYRET_SUCCESS     Successful
  44:.\Generated_Source\PSoC4/CyFlash.c **** *    CYRET_LOCKED      Flash writing already in use
  45:.\Generated_Source\PSoC4/CyFlash.c **** *    CYRET_CANCELED    Command not accepted
  46:.\Generated_Source\PSoC4/CyFlash.c **** *    CYRET_BAD_PARAM   One or more invalid parameters
  47:.\Generated_Source\PSoC4/CyFlash.c **** *    Other non-zero    Failure
  48:.\Generated_Source\PSoC4/CyFlash.c **** *
  49:.\Generated_Source\PSoC4/CyFlash.c **** *******************************************************************************/
  50:.\Generated_Source\PSoC4/CyFlash.c **** cystatus CySysFlashWriteRow(uint32 rowNum, const uint8 rowData[])
  51:.\Generated_Source\PSoC4/CyFlash.c **** {
  26              		.loc 1 51 0
  27              		.cfi_startproc
  28              	.LVL0:
  52:.\Generated_Source\PSoC4/CyFlash.c ****     volatile cystatus retValue = CYRET_SUCCESS;
  29              		.loc 1 52 0
  30 0000 0023     		mov	r3, #0
  51:.\Generated_Source\PSoC4/CyFlash.c ****     volatile cystatus retValue = CYRET_SUCCESS;
  31              		.loc 1 51 0
  32 0002 F0B5     		push	{r4, r5, r6, r7, lr}
  33              		.cfi_def_cfa_offset 20
  34              		.cfi_offset 4, -20
  35              		.cfi_offset 5, -16
  36              		.cfi_offset 6, -12
  37              		.cfi_offset 7, -8
  38              		.cfi_offset 14, -4
  39 0004 A7B0     		sub	sp, sp, #156
  40              		.cfi_def_cfa_offset 176
  41              		.loc 1 52 0
  42 0006 0193     		str	r3, [sp, #4]
  53:.\Generated_Source\PSoC4/CyFlash.c ****     volatile uint32   *ptr;
  54:.\Generated_Source\PSoC4/CyFlash.c ****     volatile uint32   cpuValue;
  55:.\Generated_Source\PSoC4/CyFlash.c ****     volatile uint32   localData[(CY_FLASH_SIZEOF_ROW + CY_FLASH_SRAM_ROM_DATA)/4u];
  56:.\Generated_Source\PSoC4/CyFlash.c ****     uint8  interruptState;
  57:.\Generated_Source\PSoC4/CyFlash.c **** 
  58:.\Generated_Source\PSoC4/CyFlash.c ****     #if(CY_PSOC4A)
  59:.\Generated_Source\PSoC4/CyFlash.c ****         volatile uint32   imoConfigReg;
  60:.\Generated_Source\PSoC4/CyFlash.c ****     #else
  61:.\Generated_Source\PSoC4/CyFlash.c ****         uint32 clkSelectReg;
  62:.\Generated_Source\PSoC4/CyFlash.c ****         uint32 clkImoEna;
  63:.\Generated_Source\PSoC4/CyFlash.c ****         uint32 clkImoFreq;
  64:.\Generated_Source\PSoC4/CyFlash.c ****     #endif
  65:.\Generated_Source\PSoC4/CyFlash.c **** 
  66:.\Generated_Source\PSoC4/CyFlash.c ****     #if(!CY_PSOC4A)
  67:.\Generated_Source\PSoC4/CyFlash.c ****         clkSelectReg = CY_SYS_CLK_SELECT_REG;
  68:.\Generated_Source\PSoC4/CyFlash.c ****         clkImoEna    = CY_SYS_CLK_IMO_CONFIG_REG & CY_SYS_CLK_IMO_CONFIG_ENABLE;
  69:.\Generated_Source\PSoC4/CyFlash.c ****         clkImoFreq   = CY_SYS_CLK_IMO_MIN_FREQ_MHZ + (CY_SYS_CLK_IMO_SELECT_REG << 2);
  70:.\Generated_Source\PSoC4/CyFlash.c ****     #endif
  71:.\Generated_Source\PSoC4/CyFlash.c **** 
ARM GAS  C:\DOCUME~1\Chuck\LOCALS~1\Temp\ccsSGTn9.s 			page 3


  72:.\Generated_Source\PSoC4/CyFlash.c ****     if ((rowNum < CY_FLASH_NUMBER_ROWS) && (rowData != 0u))
  43              		.loc 1 72 0
  44 0008 FF28     		cmp	r0, #255
  45 000a 46D8     		bhi	.L2
  46              		.loc 1 72 0 is_stmt 0 discriminator 1
  47 000c 9942     		cmp	r1, r3
  48 000e 44D0     		beq	.L2
  73:.\Generated_Source\PSoC4/CyFlash.c ****     {
  74:.\Generated_Source\PSoC4/CyFlash.c ****         /* First load data. Then invoke Write row command. */
  75:.\Generated_Source\PSoC4/CyFlash.c ****         ptr = &localData[CY_FLASH_SRAM_ROM_KEY1];
  76:.\Generated_Source\PSoC4/CyFlash.c **** 
  77:.\Generated_Source\PSoC4/CyFlash.c ****         CY_FLASH_CPUSS_SYSARG_REG = (uint32)ptr;
  78:.\Generated_Source\PSoC4/CyFlash.c **** 
  79:.\Generated_Source\PSoC4/CyFlash.c ****         #if(CY_FLASH_NUMBER_ROWS > 255u)
  80:.\Generated_Source\PSoC4/CyFlash.c ****             localData[CY_FLASH_SRAM_ROM_KEY1] = CY_FLASH_SROM_LOAD_CMD | (uint32)((rowNum & 0x100u)
  49              		.loc 1 80 0 is_stmt 1
  50 0010 244B     		ldr	r3, .L17
  77:.\Generated_Source\PSoC4/CyFlash.c **** 
  51              		.loc 1 77 0
  52 0012 254D     		ldr	r5, .L17+4
  53 0014 04AF     		add	r7, sp, #16
  54 0016 2F60     		str	r7, [r5]
  55              		.loc 1 80 0
  56 0018 0493     		str	r3, [sp, #16]
  81:.\Generated_Source\PSoC4/CyFlash.c ****         #else
  82:.\Generated_Source\PSoC4/CyFlash.c ****             localData[CY_FLASH_SRAM_ROM_KEY1] = CY_FLASH_SROM_LOAD_CMD;
  83:.\Generated_Source\PSoC4/CyFlash.c ****         #endif /* (CY_FLASH_SIZEOF_ROW > 255) */
  84:.\Generated_Source\PSoC4/CyFlash.c **** 
  85:.\Generated_Source\PSoC4/CyFlash.c ****         localData[CY_FLASH_SRAM_ROM_PARAM2/4u] = ((uint32)(CYDEV_FLS_ROW_SIZE - 1u));
  57              		.loc 1 85 0
  58 001a 7F23     		mov	r3, #127
  59 001c 041C     		mov	r4, r0
  60              	.LVL1:
  86:.\Generated_Source\PSoC4/CyFlash.c **** 
  87:.\Generated_Source\PSoC4/CyFlash.c ****         /* Copy row data from 8bit to 32bit array with shift for CPUSS commands */
  88:.\Generated_Source\PSoC4/CyFlash.c ****         (void)memcpy((void *)&localData[CY_FLASH_SRAM_ROM_DATA/4u], rowData, CYDEV_FLS_ROW_SIZE);
  61              		.loc 1 88 0
  62 001e 8022     		mov	r2, #128
  63 0020 06A8     		add	r0, sp, #24
  64              	.LVL2:
  85:.\Generated_Source\PSoC4/CyFlash.c **** 
  65              		.loc 1 85 0
  66 0022 7B60     		str	r3, [r7, #4]
  89:.\Generated_Source\PSoC4/CyFlash.c **** 
  90:.\Generated_Source\PSoC4/CyFlash.c ****         /* Perform sysreq load data, opcode 0x80000004h */
  91:.\Generated_Source\PSoC4/CyFlash.c ****         CY_FLASH_CPUSS_SYSREQ_REG = CY_FLASH_LOAD_BYTE_OPCODE | CY_FLASH_CPUSS_REQ_START;
  67              		.loc 1 91 0
  68 0024 214E     		ldr	r6, .L17+8
  88:.\Generated_Source\PSoC4/CyFlash.c **** 
  69              		.loc 1 88 0
  70 0026 FFF7FEFF 		bl	memcpy
  71              	.LVL3:
  72              		.loc 1 91 0
  73 002a 214B     		ldr	r3, .L17+12
  74 002c 3360     		str	r3, [r6]
  75              	.L3:
  92:.\Generated_Source\PSoC4/CyFlash.c **** 
ARM GAS  C:\DOCUME~1\Chuck\LOCALS~1\Temp\ccsSGTn9.s 			page 4


  93:.\Generated_Source\PSoC4/CyFlash.c ****         while((CY_FLASH_CPUSS_SYSREQ_REG & CY_FLASH_CPUSS_REQ_START) == CY_FLASH_CPUSS_REQ_START)
  76              		.loc 1 93 0 discriminator 1
  77 002e 3368     		ldr	r3, [r6]
  78 0030 002B     		cmp	r3, #0
  79 0032 FCDB     		blt	.L3
  94:.\Generated_Source\PSoC4/CyFlash.c ****         {
  95:.\Generated_Source\PSoC4/CyFlash.c ****             /* Wait till CY_FLASH_CPUSS_REQ_START bit goes low */
  96:.\Generated_Source\PSoC4/CyFlash.c ****         }
  97:.\Generated_Source\PSoC4/CyFlash.c **** 
  98:.\Generated_Source\PSoC4/CyFlash.c ****         /* Check if value is written to SRAM_BASE */
  99:.\Generated_Source\PSoC4/CyFlash.c ****         cpuValue = CY_FLASH_CPUSS_SYSARG_REG;
  80              		.loc 1 99 0
  81 0034 2B68     		ldr	r3, [r5]
  82 0036 0293     		str	r3, [sp, #8]
 100:.\Generated_Source\PSoC4/CyFlash.c ****         if (cpuValue == CY_FLASH_SROM_CMD_RETURN_SUCC)
  83              		.loc 1 100 0
  84 0038 A023     		mov	r3, #160
  85 003a 029A     		ldr	r2, [sp, #8]
  86 003c 1B06     		lsl	r3, r3, #24
  87 003e 9A42     		cmp	r2, r3
  88 0040 01D1     		bne	.L4
 101:.\Generated_Source\PSoC4/CyFlash.c ****         {
 102:.\Generated_Source\PSoC4/CyFlash.c ****             retValue = CYRET_SUCCESS;
  89              		.loc 1 102 0
  90 0042 0023     		mov	r3, #0
  91 0044 04E0     		b	.L14
  92              	.L4:
 103:.\Generated_Source\PSoC4/CyFlash.c ****         }
 104:.\Generated_Source\PSoC4/CyFlash.c ****         else if((cpuValue & CY_FLASH_SROM_CMD_RETURN_MASK) == CY_FLASH_SROM_CMD_RETURN_MASK)
  93              		.loc 1 104 0
  94 0046 029B     		ldr	r3, [sp, #8]
  95 0048 1B0F     		lsr	r3, r3, #28
  96 004a 0F2B     		cmp	r3, #15
  97 004c 02D1     		bne	.L6
 105:.\Generated_Source\PSoC4/CyFlash.c ****         {
 106:.\Generated_Source\PSoC4/CyFlash.c ****             /* Error value, cant proceed */
 107:.\Generated_Source\PSoC4/CyFlash.c ****             retValue = CYRET_CANCELED;
  98              		.loc 1 107 0
  99 004e 063B     		sub	r3, r3, #6
 100              	.L14:
 101 0050 0193     		str	r3, [sp, #4]
 102 0052 03E0     		b	.L5
 103              	.L6:
 108:.\Generated_Source\PSoC4/CyFlash.c ****         }
 109:.\Generated_Source\PSoC4/CyFlash.c ****         else
 110:.\Generated_Source\PSoC4/CyFlash.c ****         {
 111:.\Generated_Source\PSoC4/CyFlash.c ****             while((CY_FLASH_CPUSS_SYSARG_REG & CY_FLASH_SROM_CMD_RETURN_MASK) != CY_FLASH_SROM_CMD_
 104              		.loc 1 111 0 discriminator 1
 105 0054 2B68     		ldr	r3, [r5]
 106 0056 1B0F     		lsr	r3, r3, #28
 107 0058 0A2B     		cmp	r3, #10
 108 005a FBD1     		bne	.L6
 109              	.L5:
 112:.\Generated_Source\PSoC4/CyFlash.c ****             {
 113:.\Generated_Source\PSoC4/CyFlash.c ****                 /* Wait till request is completed */
 114:.\Generated_Source\PSoC4/CyFlash.c ****             }
 115:.\Generated_Source\PSoC4/CyFlash.c ****         }
ARM GAS  C:\DOCUME~1\Chuck\LOCALS~1\Temp\ccsSGTn9.s 			page 5


 116:.\Generated_Source\PSoC4/CyFlash.c **** 
 117:.\Generated_Source\PSoC4/CyFlash.c ****         if(retValue == CYRET_SUCCESS)
 110              		.loc 1 117 0
 111 005c 019B     		ldr	r3, [sp, #4]
 112 005e 002B     		cmp	r3, #0
 113 0060 1DD1     		bne	.L8
 118:.\Generated_Source\PSoC4/CyFlash.c ****         {
 119:.\Generated_Source\PSoC4/CyFlash.c ****             #if(!CY_PSOC4A)
 120:.\Generated_Source\PSoC4/CyFlash.c ****                 /* Mask all exceptions to guarantee that IMO configuration will be changed
 121:.\Generated_Source\PSoC4/CyFlash.c ****                 * in the atomic way. It will not affect the syscall execution (flash row write)
 122:.\Generated_Source\PSoC4/CyFlash.c ****                 * since it is executed in the NMI context.
 123:.\Generated_Source\PSoC4/CyFlash.c ****                 */
 124:.\Generated_Source\PSoC4/CyFlash.c ****                 interruptState = CyEnterCriticalSection();
 125:.\Generated_Source\PSoC4/CyFlash.c **** 
 126:.\Generated_Source\PSoC4/CyFlash.c ****                 /* The FM-Lite IP (s8fmlt) uses the IMO at 48MHz for the pump clock and SPC timer c
 127:.\Generated_Source\PSoC4/CyFlash.c ****                  * The PUMP_SEL and HF clock must be set to IMO before calling Flash write or erase
 128:.\Generated_Source\PSoC4/CyFlash.c ****                  */
 129:.\Generated_Source\PSoC4/CyFlash.c ****                 if ((clkImoFreq != 48u) ||
 130:.\Generated_Source\PSoC4/CyFlash.c ****                     ((clkSelectReg & CY_SYS_CLK_SELECT_DIRECT_SEL_MASK) != CY_SYS_CLK_HFCLK_IMO) ||
 131:.\Generated_Source\PSoC4/CyFlash.c ****                     (((clkSelectReg >> CY_SYS_CLK_SELECT_PUMP_SEL_SHIFT) & CY_SYS_CLK_SELECT_PUMP_S
 132:.\Generated_Source\PSoC4/CyFlash.c **** 					    CY_SYS_CLK_SELECT_PUMP_SEL_IMO))
 133:.\Generated_Source\PSoC4/CyFlash.c ****                 {
 134:.\Generated_Source\PSoC4/CyFlash.c ****                     CySysClkWriteHfclkDiv(CY_SYS_CLK_HFCLK_DIV_4);
 135:.\Generated_Source\PSoC4/CyFlash.c ****                     if (clkImoFreq != 48u)
 136:.\Generated_Source\PSoC4/CyFlash.c ****                     {
 137:.\Generated_Source\PSoC4/CyFlash.c ****                         CySysClkWriteImoFreq(48u);
 138:.\Generated_Source\PSoC4/CyFlash.c ****                     }
 139:.\Generated_Source\PSoC4/CyFlash.c ****                     CySysClkImoStart();
 140:.\Generated_Source\PSoC4/CyFlash.c ****                     CySysClkWriteHfclkDirect(CY_SYS_CLK_HFCLK_IMO);
 141:.\Generated_Source\PSoC4/CyFlash.c ****                     /* Set IMO output as clock source for charge pump clock */
 142:.\Generated_Source\PSoC4/CyFlash.c ****                     CY_SYS_CLK_SELECT_REG &= ((uint32)~(uint32)(CY_SYS_CLK_SELECT_PUMP_SEL_MASK << 
 143:.\Generated_Source\PSoC4/CyFlash.c ****                     CY_SYS_CLK_SELECT_REG |= (uint32)((uint32)1u << CY_SYS_CLK_SELECT_PUMP_SEL_SHIF
 144:.\Generated_Source\PSoC4/CyFlash.c ****                 }
 145:.\Generated_Source\PSoC4/CyFlash.c ****             #endif
 146:.\Generated_Source\PSoC4/CyFlash.c **** 
 147:.\Generated_Source\PSoC4/CyFlash.c ****             ptr = &localData[CY_FLASH_SRAM_ROM_KEY1/4u];
 148:.\Generated_Source\PSoC4/CyFlash.c ****             CY_FLASH_CPUSS_SYSARG_REG = (uint32)ptr;
 149:.\Generated_Source\PSoC4/CyFlash.c **** 
 150:.\Generated_Source\PSoC4/CyFlash.c ****             /* Write row command to SROM */
 151:.\Generated_Source\PSoC4/CyFlash.c ****             localData[CY_FLASH_SRAM_ROM_KEY1/4u] =  (uint32)(rowNum << 16u) |
 152:.\Generated_Source\PSoC4/CyFlash.c ****                                                     (uint32)(CY_FLASH_SROM_KEY2_WRITE << 8u) |
 114              		.loc 1 152 0
 115 0062 1448     		ldr	r0, .L17+16
 151:.\Generated_Source\PSoC4/CyFlash.c ****                                                     (uint32)(CY_FLASH_SROM_KEY2_WRITE << 8u) |
 116              		.loc 1 151 0
 117 0064 2404     		lsl	r4, r4, #16
 118              	.LVL4:
 148:.\Generated_Source\PSoC4/CyFlash.c **** 
 119              		.loc 1 148 0
 120 0066 2F60     		str	r7, [r5]
 121              		.loc 1 152 0
 122 0068 0443     		orr	r4, r0
 151:.\Generated_Source\PSoC4/CyFlash.c ****                                                     (uint32)(CY_FLASH_SROM_KEY2_WRITE << 8u) |
 123              		.loc 1 151 0
 124 006a 0494     		str	r4, [sp, #16]
 153:.\Generated_Source\PSoC4/CyFlash.c ****                                                     CY_FLASH_SROM_KEY1;
 154:.\Generated_Source\PSoC4/CyFlash.c **** 
ARM GAS  C:\DOCUME~1\Chuck\LOCALS~1\Temp\ccsSGTn9.s 			page 6


 155:.\Generated_Source\PSoC4/CyFlash.c ****             #if(CY_PSOC4A)
 156:.\Generated_Source\PSoC4/CyFlash.c ****                 /* Mask all the exceptions to guarantee that IMO configuration will be changed
 157:.\Generated_Source\PSoC4/CyFlash.c ****                 * in the atomic way. It will not affect the syscall execution (flash row write)
 158:.\Generated_Source\PSoC4/CyFlash.c ****                 * since it is executed in the NMI context.
 159:.\Generated_Source\PSoC4/CyFlash.c ****                 */
 160:.\Generated_Source\PSoC4/CyFlash.c ****                 interruptState = CyEnterCriticalSection();
 125              		.loc 1 160 0
 126 006c FFF7FEFF 		bl	CyEnterCriticalSection
 127              	.LVL5:
 161:.\Generated_Source\PSoC4/CyFlash.c **** 
 162:.\Generated_Source\PSoC4/CyFlash.c ****                 /* Preserve IMO configuration that could be changed
 163:.\Generated_Source\PSoC4/CyFlash.c ****                 * during syscall execution (Cypress ID #150448).
 164:.\Generated_Source\PSoC4/CyFlash.c ****                 */
 165:.\Generated_Source\PSoC4/CyFlash.c ****                 imoConfigReg = CY_SYS_CLK_IMO_CONFIG_REG;
 128              		.loc 1 165 0
 129 0070 114B     		ldr	r3, .L17+20
 130 0072 1A68     		ldr	r2, [r3]
 131 0074 0392     		str	r2, [sp, #12]
 166:.\Generated_Source\PSoC4/CyFlash.c ****             #endif
 167:.\Generated_Source\PSoC4/CyFlash.c **** 
 168:.\Generated_Source\PSoC4/CyFlash.c ****             /* Perform sysreq for Write row, opcode 0x80000005 */
 169:.\Generated_Source\PSoC4/CyFlash.c ****             CY_FLASH_CPUSS_SYSREQ_REG = CY_FLASH_WRITE_ROW_OPCODE | CY_FLASH_CPUSS_REQ_START;
 132              		.loc 1 169 0
 133 0076 114A     		ldr	r2, .L17+24
 134 0078 3260     		str	r2, [r6]
 135              	.L9:
 170:.\Generated_Source\PSoC4/CyFlash.c **** 
 171:.\Generated_Source\PSoC4/CyFlash.c ****             while((CY_FLASH_CPUSS_SYSREQ_REG & CY_FLASH_CPUSS_REQ_START) == CY_FLASH_CPUSS_REQ_STAR
 136              		.loc 1 171 0 discriminator 1
 137 007a 3268     		ldr	r2, [r6]
 138 007c 002A     		cmp	r2, #0
 139 007e FCDB     		blt	.L9
 172:.\Generated_Source\PSoC4/CyFlash.c ****             {
 173:.\Generated_Source\PSoC4/CyFlash.c ****                 /* Wait till CY_FLASH_CPUSS_REQ_START bit goes low */
 174:.\Generated_Source\PSoC4/CyFlash.c ****             }
 175:.\Generated_Source\PSoC4/CyFlash.c **** 
 176:.\Generated_Source\PSoC4/CyFlash.c ****             #if(CY_PSOC4A)
 177:.\Generated_Source\PSoC4/CyFlash.c ****                 /* Restore IMO configuration */
 178:.\Generated_Source\PSoC4/CyFlash.c ****                 CY_SYS_CLK_IMO_CONFIG_REG = imoConfigReg;
 140              		.loc 1 178 0
 141 0080 039A     		ldr	r2, [sp, #12]
 142 0082 1A60     		str	r2, [r3]
 179:.\Generated_Source\PSoC4/CyFlash.c **** 
 180:.\Generated_Source\PSoC4/CyFlash.c ****                 CyExitCriticalSection(interruptState);
 143              		.loc 1 180 0
 144 0084 FFF7FEFF 		bl	CyExitCriticalSection
 145              	.LVL6:
 181:.\Generated_Source\PSoC4/CyFlash.c ****             #else
 182:.\Generated_Source\PSoC4/CyFlash.c ****                 /* Restore clock settings */
 183:.\Generated_Source\PSoC4/CyFlash.c ****                 if ((clkImoFreq != 48u) ||
 184:.\Generated_Source\PSoC4/CyFlash.c ****                     ((clkSelectReg & CY_SYS_CLK_SELECT_DIRECT_SEL_MASK) != CY_SYS_CLK_HFCLK_IMO) ||
 185:.\Generated_Source\PSoC4/CyFlash.c ****                     (((clkSelectReg >> CY_SYS_CLK_SELECT_PUMP_SEL_SHIFT) & CY_SYS_CLK_SELECT_PUMP_S
 186:.\Generated_Source\PSoC4/CyFlash.c ****                         CY_SYS_CLK_SELECT_PUMP_SEL_IMO))
 187:.\Generated_Source\PSoC4/CyFlash.c ****                 {
 188:.\Generated_Source\PSoC4/CyFlash.c ****                     if (clkImoFreq != 48u)
 189:.\Generated_Source\PSoC4/CyFlash.c ****                     {
 190:.\Generated_Source\PSoC4/CyFlash.c ****                         CySysClkWriteImoFreq(clkImoFreq);
ARM GAS  C:\DOCUME~1\Chuck\LOCALS~1\Temp\ccsSGTn9.s 			page 7


 191:.\Generated_Source\PSoC4/CyFlash.c ****                     }
 192:.\Generated_Source\PSoC4/CyFlash.c ****                     CySysClkWriteHfclkDiv(CY_SYS_CLK_HFCLK_DIV_8);
 193:.\Generated_Source\PSoC4/CyFlash.c ****                     CySysClkWriteHfclkDirect(clkSelectReg & CY_SYS_CLK_SELECT_DIRECT_SEL_MASK);
 194:.\Generated_Source\PSoC4/CyFlash.c ****                     CY_SYS_CLK_SELECT_REG = clkSelectReg;
 195:.\Generated_Source\PSoC4/CyFlash.c ****                     if (0u == clkImoEna)
 196:.\Generated_Source\PSoC4/CyFlash.c ****                     {
 197:.\Generated_Source\PSoC4/CyFlash.c ****                         CySysClkImoStop();
 198:.\Generated_Source\PSoC4/CyFlash.c ****                     }
 199:.\Generated_Source\PSoC4/CyFlash.c ****                 }
 200:.\Generated_Source\PSoC4/CyFlash.c ****                 CyExitCriticalSection(interruptState);
 201:.\Generated_Source\PSoC4/CyFlash.c ****             #endif
 202:.\Generated_Source\PSoC4/CyFlash.c **** 
 203:.\Generated_Source\PSoC4/CyFlash.c ****             cpuValue = CY_FLASH_CPUSS_SYSARG_REG;
 146              		.loc 1 203 0
 147 0088 2B68     		ldr	r3, [r5]
 148 008a 0293     		str	r3, [sp, #8]
 204:.\Generated_Source\PSoC4/CyFlash.c ****             if (cpuValue != CY_FLASH_SROM_CMD_RETURN_SUCC)
 149              		.loc 1 204 0
 150 008c A023     		mov	r3, #160
 151 008e 029A     		ldr	r2, [sp, #8]
 152 0090 1B06     		lsl	r3, r3, #24
 153 0092 9A42     		cmp	r2, r3
 154 0094 03D0     		beq	.L8
 205:.\Generated_Source\PSoC4/CyFlash.c ****             {
 206:.\Generated_Source\PSoC4/CyFlash.c ****                 retValue = cpuValue;
 155              		.loc 1 206 0
 156 0096 029B     		ldr	r3, [sp, #8]
 157 0098 00E0     		b	.L15
 158              	.LVL7:
 159              	.L2:
 207:.\Generated_Source\PSoC4/CyFlash.c ****             }
 208:.\Generated_Source\PSoC4/CyFlash.c ****         }
 209:.\Generated_Source\PSoC4/CyFlash.c ****     }
 210:.\Generated_Source\PSoC4/CyFlash.c ****     else
 211:.\Generated_Source\PSoC4/CyFlash.c ****     {
 212:.\Generated_Source\PSoC4/CyFlash.c ****         retValue = CYRET_BAD_PARAM;
 160              		.loc 1 212 0
 161 009a 0123     		mov	r3, #1
 162              	.LVL8:
 163              	.L15:
 164 009c 0193     		str	r3, [sp, #4]
 165              	.L8:
 213:.\Generated_Source\PSoC4/CyFlash.c ****     }
 214:.\Generated_Source\PSoC4/CyFlash.c **** 
 215:.\Generated_Source\PSoC4/CyFlash.c ****     return (retValue);
 166              		.loc 1 215 0
 167 009e 0198     		ldr	r0, [sp, #4]
 216:.\Generated_Source\PSoC4/CyFlash.c **** }
 168              		.loc 1 216 0
 169 00a0 27B0     		add	sp, sp, #156
 170              		@ sp needed
 171 00a2 F0BD     		pop	{r4, r5, r6, r7, pc}
 172              	.L18:
 173              		.align	2
 174              	.L17:
 175 00a4 B6D70000 		.word	55222
 176 00a8 08000040 		.word	1073741832
ARM GAS  C:\DOCUME~1\Chuck\LOCALS~1\Temp\ccsSGTn9.s 			page 8


 177 00ac 04000040 		.word	1073741828
 178 00b0 04000080 		.word	-2147483644
 179 00b4 B6D80000 		.word	55478
 180 00b8 08010B40 		.word	1074462984
 181 00bc 05000080 		.word	-2147483643
 182              		.cfi_endproc
 183              	.LFE0:
 184              		.size	CySysFlashWriteRow, .-CySysFlashWriteRow
 185              		.section	.text.CySysFlashSetWaitCycles,"ax",%progbits
 186              		.align	1
 187              		.global	CySysFlashSetWaitCycles
 188              		.code	16
 189              		.thumb_func
 190              		.type	CySysFlashSetWaitCycles, %function
 191              	CySysFlashSetWaitCycles:
 192              	.LFB1:
 217:.\Generated_Source\PSoC4/CyFlash.c **** 
 218:.\Generated_Source\PSoC4/CyFlash.c **** #if(CY_PSOC4A)
 219:.\Generated_Source\PSoC4/CyFlash.c **** 
 220:.\Generated_Source\PSoC4/CyFlash.c ****     /*******************************************************************************
 221:.\Generated_Source\PSoC4/CyFlash.c ****     * Function Name: CySysFlashSetWaitCycles
 222:.\Generated_Source\PSoC4/CyFlash.c ****     ********************************************************************************
 223:.\Generated_Source\PSoC4/CyFlash.c ****     *
 224:.\Generated_Source\PSoC4/CyFlash.c ****     * Summary:
 225:.\Generated_Source\PSoC4/CyFlash.c ****     *  Sets the number of clock cycles the cache will wait before it samples data
 226:.\Generated_Source\PSoC4/CyFlash.c ****     *  coming back from Flash. This function must be called before increasing the
 227:.\Generated_Source\PSoC4/CyFlash.c ****     *  SYSCLK clock frequency. It can optionally be called after lowering SYSCLK
 228:.\Generated_Source\PSoC4/CyFlash.c ****     *  clock frequency in order to improve the CPU performance.
 229:.\Generated_Source\PSoC4/CyFlash.c ****     *
 230:.\Generated_Source\PSoC4/CyFlash.c ****     * Parameters:
 231:.\Generated_Source\PSoC4/CyFlash.c ****     *  freq: Valid range [3-48].  Frequency for operation of the IMO.
 232:.\Generated_Source\PSoC4/CyFlash.c ****     *  Note: Invalid frequency will be ignored.
 233:.\Generated_Source\PSoC4/CyFlash.c ****     *
 234:.\Generated_Source\PSoC4/CyFlash.c ****     * Return:
 235:.\Generated_Source\PSoC4/CyFlash.c ****     *  None
 236:.\Generated_Source\PSoC4/CyFlash.c ****     *
 237:.\Generated_Source\PSoC4/CyFlash.c ****     *******************************************************************************/
 238:.\Generated_Source\PSoC4/CyFlash.c ****     void CySysFlashSetWaitCycles(uint32 freq)
 239:.\Generated_Source\PSoC4/CyFlash.c ****     {
 193              		.loc 1 239 0
 194              		.cfi_startproc
 195              	.LVL9:
 196 0000 08B5     		push	{r3, lr}
 197              		.cfi_def_cfa_offset 8
 198              		.cfi_offset 3, -8
 199              		.cfi_offset 14, -4
 240:.\Generated_Source\PSoC4/CyFlash.c ****         if ((freq >= CY_SYS_CLK_IMO_MIN_FREQ_MHZ) && (freq <= CY_SYS_CLK_IMO_MAX_FREQ_MHZ))
 200              		.loc 1 240 0
 201 0002 C31E     		sub	r3, r0, #3
 202 0004 2D2B     		cmp	r3, #45
 203 0006 0CD8     		bhi	.L20
 204 0008 084B     		ldr	r3, .L24
 241:.\Generated_Source\PSoC4/CyFlash.c ****         {
 242:.\Generated_Source\PSoC4/CyFlash.c ****             if ( freq <= CY_FLASH_SYSCLK_BOUNDARY_MHZ )
 205              		.loc 1 242 0
 206 000a 1828     		cmp	r0, #24
 207 000c 03D8     		bhi	.L21
ARM GAS  C:\DOCUME~1\Chuck\LOCALS~1\Temp\ccsSGTn9.s 			page 9


 243:.\Generated_Source\PSoC4/CyFlash.c ****             {
 244:.\Generated_Source\PSoC4/CyFlash.c ****                 CY_SYS_CLK_SELECT_REG &= (uint32)(~CY_FLASH_WAIT_STATE_EN);
 208              		.loc 1 244 0
 209 000e 1968     		ldr	r1, [r3]
 210 0010 074A     		ldr	r2, .L24+4
 211 0012 0A40     		and	r2, r1
 212 0014 03E0     		b	.L23
 213              	.L21:
 245:.\Generated_Source\PSoC4/CyFlash.c ****             }
 246:.\Generated_Source\PSoC4/CyFlash.c ****             else
 247:.\Generated_Source\PSoC4/CyFlash.c ****             {
 248:.\Generated_Source\PSoC4/CyFlash.c ****                 CY_SYS_CLK_SELECT_REG |= CY_FLASH_WAIT_STATE_EN;
 214              		.loc 1 248 0
 215 0016 8021     		mov	r1, #128
 216 0018 1A68     		ldr	r2, [r3]
 217 001a C902     		lsl	r1, r1, #11
 218 001c 0A43     		orr	r2, r1
 219              	.L23:
 220 001e 1A60     		str	r2, [r3]
 221 0020 02E0     		b	.L19
 222              	.L20:
 249:.\Generated_Source\PSoC4/CyFlash.c ****             }
 250:.\Generated_Source\PSoC4/CyFlash.c ****         }
 251:.\Generated_Source\PSoC4/CyFlash.c ****         else
 252:.\Generated_Source\PSoC4/CyFlash.c ****         {
 253:.\Generated_Source\PSoC4/CyFlash.c ****             /* Halt CPU in debug mode if frequency is invalid */
 254:.\Generated_Source\PSoC4/CyFlash.c ****             CYASSERT(0u != 0u);
 223              		.loc 1 254 0 discriminator 1
 224 0022 0020     		mov	r0, #0
 225              	.LVL10:
 226 0024 FFF7FEFF 		bl	CyHalt
 227              	.LVL11:
 228              	.L19:
 255:.\Generated_Source\PSoC4/CyFlash.c ****         }
 256:.\Generated_Source\PSoC4/CyFlash.c ****     }
 229              		.loc 1 256 0
 230              		@ sp needed
 231 0028 08BD     		pop	{r3, pc}
 232              	.L25:
 233 002a C046     		.align	2
 234              	.L24:
 235 002c 00010B40 		.word	1074462976
 236 0030 FFFFFBFF 		.word	-262145
 237              		.cfi_endproc
 238              	.LFE1:
 239              		.size	CySysFlashSetWaitCycles, .-CySysFlashSetWaitCycles
 240              		.text
 241              	.Letext0:
 242              		.file 2 ".\\Generated_Source\\PSoC4\\cytypes.h"
 243              		.file 3 ".\\Generated_Source\\PSoC4\\CyLib.h"