ARM GAS  C:\DOCUME~1\Chuck\LOCALS~1\Temp\ccVSU8Ya.s 			page 1


   1              		.cpu cortex-m0
   2              		.fpu softvfp
   3              		.eabi_attribute 20, 1
   4              		.eabi_attribute 21, 1
   5              		.eabi_attribute 23, 3
   6              		.eabi_attribute 24, 1
   7              		.eabi_attribute 25, 1
   8              		.eabi_attribute 26, 1
   9              		.eabi_attribute 30, 4
  10              		.eabi_attribute 34, 0
  11              		.eabi_attribute 18, 4
  12              		.code	16
  13              		.file	"CyLib.c"
  14              		.text
  15              	.Ltext0:
  16              		.cfi_sections	.debug_frame
  17              		.section	.text.CySysClkImoStart,"ax",%progbits
  18              		.align	1
  19              		.global	CySysClkImoStart
  20              		.code	16
  21              		.thumb_func
  22              		.type	CySysClkImoStart, %function
  23              	CySysClkImoStart:
  24              	.LFB0:
  25              		.file 1 ".\\Generated_Source\\PSoC4\\CyLib.c"
   1:.\Generated_Source\PSoC4/CyLib.c **** /*******************************************************************************
   2:.\Generated_Source\PSoC4/CyLib.c **** * File Name: CyLib.c
   3:.\Generated_Source\PSoC4/CyLib.c **** * Version 4.10
   4:.\Generated_Source\PSoC4/CyLib.c **** *
   5:.\Generated_Source\PSoC4/CyLib.c **** *  Description:
   6:.\Generated_Source\PSoC4/CyLib.c **** *   Provides a system API for the clocking, interrupts, and watchdog timer.
   7:.\Generated_Source\PSoC4/CyLib.c **** *
   8:.\Generated_Source\PSoC4/CyLib.c **** *  Note:
   9:.\Generated_Source\PSoC4/CyLib.c **** *   Documentation of the API's in this file is located in the
  10:.\Generated_Source\PSoC4/CyLib.c **** *   System Reference Guide provided with PSoC Creator.
  11:.\Generated_Source\PSoC4/CyLib.c **** *
  12:.\Generated_Source\PSoC4/CyLib.c **** ********************************************************************************
  13:.\Generated_Source\PSoC4/CyLib.c **** * Copyright 2010-2014, Cypress Semiconductor Corporation.  All rights reserved.
  14:.\Generated_Source\PSoC4/CyLib.c **** * You may use this file only in accordance with the license, terms, conditions,
  15:.\Generated_Source\PSoC4/CyLib.c **** * disclaimers, and limitations in the end user license agreement accompanying
  16:.\Generated_Source\PSoC4/CyLib.c **** * the software package with which this file was provided.
  17:.\Generated_Source\PSoC4/CyLib.c **** *******************************************************************************/
  18:.\Generated_Source\PSoC4/CyLib.c **** 
  19:.\Generated_Source\PSoC4/CyLib.c **** #include "CyLib.h"
  20:.\Generated_Source\PSoC4/CyLib.c **** 
  21:.\Generated_Source\PSoC4/CyLib.c **** 
  22:.\Generated_Source\PSoC4/CyLib.c **** /* Do not use these definitions directly in your application */
  23:.\Generated_Source\PSoC4/CyLib.c **** uint32 cydelayFreqHz  = CYDEV_BCLK__SYSCLK__HZ;
  24:.\Generated_Source\PSoC4/CyLib.c **** uint32 cydelayFreqKhz = (CYDEV_BCLK__SYSCLK__HZ + CY_DELAY_1K_MINUS_1_THRESHOLD) / CY_DELAY_1K_THRE
  25:.\Generated_Source\PSoC4/CyLib.c **** uint8  cydelayFreqMhz = (uint8)((CYDEV_BCLK__SYSCLK__HZ + CY_DELAY_1M_MINUS_1_THRESHOLD) / CY_DELAY
  26:.\Generated_Source\PSoC4/CyLib.c **** uint32 cydelay32kMs   = CY_DELAY_MS_OVERFLOW * ((CYDEV_BCLK__SYSCLK__HZ + CY_DELAY_1K_MINUS_1_THRES
  27:.\Generated_Source\PSoC4/CyLib.c ****                         CY_DELAY_1K_THRESHOLD);
  28:.\Generated_Source\PSoC4/CyLib.c **** 
  29:.\Generated_Source\PSoC4/CyLib.c **** 
  30:.\Generated_Source\PSoC4/CyLib.c **** /*******************************************************************************
  31:.\Generated_Source\PSoC4/CyLib.c **** * Function Name: CySysClkImoStart
  32:.\Generated_Source\PSoC4/CyLib.c **** ********************************************************************************
ARM GAS  C:\DOCUME~1\Chuck\LOCALS~1\Temp\ccVSU8Ya.s 			page 2


  33:.\Generated_Source\PSoC4/CyLib.c **** *
  34:.\Generated_Source\PSoC4/CyLib.c **** * Summary:
  35:.\Generated_Source\PSoC4/CyLib.c **** *  Enables the IMO.
  36:.\Generated_Source\PSoC4/CyLib.c **** *
  37:.\Generated_Source\PSoC4/CyLib.c **** * Parameters:
  38:.\Generated_Source\PSoC4/CyLib.c **** *  None
  39:.\Generated_Source\PSoC4/CyLib.c **** *
  40:.\Generated_Source\PSoC4/CyLib.c **** * Return:
  41:.\Generated_Source\PSoC4/CyLib.c **** *  None
  42:.\Generated_Source\PSoC4/CyLib.c **** *
  43:.\Generated_Source\PSoC4/CyLib.c **** *******************************************************************************/
  44:.\Generated_Source\PSoC4/CyLib.c **** void CySysClkImoStart(void)
  45:.\Generated_Source\PSoC4/CyLib.c **** {
  26              		.loc 1 45 0
  27              		.cfi_startproc
  46:.\Generated_Source\PSoC4/CyLib.c ****     CY_SYS_CLK_IMO_CONFIG_REG |= CY_SYS_CLK_IMO_CONFIG_ENABLE;
  28              		.loc 1 46 0
  29 0000 8021     		mov	r1, #128
  30 0002 034A     		ldr	r2, .L2
  31 0004 0906     		lsl	r1, r1, #24
  32 0006 1368     		ldr	r3, [r2]
  47:.\Generated_Source\PSoC4/CyLib.c **** }
  33              		.loc 1 47 0
  34              		@ sp needed
  46:.\Generated_Source\PSoC4/CyLib.c ****     CY_SYS_CLK_IMO_CONFIG_REG |= CY_SYS_CLK_IMO_CONFIG_ENABLE;
  35              		.loc 1 46 0
  36 0008 0B43     		orr	r3, r1
  37 000a 1360     		str	r3, [r2]
  38              		.loc 1 47 0
  39 000c 7047     		bx	lr
  40              	.L3:
  41 000e C046     		.align	2
  42              	.L2:
  43 0010 08010B40 		.word	1074462984
  44              		.cfi_endproc
  45              	.LFE0:
  46              		.size	CySysClkImoStart, .-CySysClkImoStart
  47              		.section	.text.CySysClkImoStop,"ax",%progbits
  48              		.align	1
  49              		.global	CySysClkImoStop
  50              		.code	16
  51              		.thumb_func
  52              		.type	CySysClkImoStop, %function
  53              	CySysClkImoStop:
  54              	.LFB1:
  48:.\Generated_Source\PSoC4/CyLib.c **** 
  49:.\Generated_Source\PSoC4/CyLib.c **** 
  50:.\Generated_Source\PSoC4/CyLib.c **** /*******************************************************************************
  51:.\Generated_Source\PSoC4/CyLib.c **** * Function Name: CySysClkImoStop
  52:.\Generated_Source\PSoC4/CyLib.c **** ********************************************************************************
  53:.\Generated_Source\PSoC4/CyLib.c **** *
  54:.\Generated_Source\PSoC4/CyLib.c **** * Summary:
  55:.\Generated_Source\PSoC4/CyLib.c **** *  Disables the IMO.
  56:.\Generated_Source\PSoC4/CyLib.c **** *
  57:.\Generated_Source\PSoC4/CyLib.c **** * Parameters:
  58:.\Generated_Source\PSoC4/CyLib.c **** *  None
  59:.\Generated_Source\PSoC4/CyLib.c **** *
ARM GAS  C:\DOCUME~1\Chuck\LOCALS~1\Temp\ccVSU8Ya.s 			page 3


  60:.\Generated_Source\PSoC4/CyLib.c **** * Return:
  61:.\Generated_Source\PSoC4/CyLib.c **** *  None
  62:.\Generated_Source\PSoC4/CyLib.c **** *
  63:.\Generated_Source\PSoC4/CyLib.c **** *******************************************************************************/
  64:.\Generated_Source\PSoC4/CyLib.c **** void CySysClkImoStop(void)
  65:.\Generated_Source\PSoC4/CyLib.c **** {
  55              		.loc 1 65 0
  56              		.cfi_startproc
  66:.\Generated_Source\PSoC4/CyLib.c ****     CY_SYS_CLK_IMO_CONFIG_REG &= ( uint32 ) ( ~( uint32 )CY_SYS_CLK_IMO_CONFIG_ENABLE);
  57              		.loc 1 66 0
  58 0000 024A     		ldr	r2, .L5
  67:.\Generated_Source\PSoC4/CyLib.c **** }
  59              		.loc 1 67 0
  60              		@ sp needed
  66:.\Generated_Source\PSoC4/CyLib.c ****     CY_SYS_CLK_IMO_CONFIG_REG &= ( uint32 ) ( ~( uint32 )CY_SYS_CLK_IMO_CONFIG_ENABLE);
  61              		.loc 1 66 0
  62 0002 1368     		ldr	r3, [r2]
  63 0004 5B00     		lsl	r3, r3, #1
  64 0006 5B08     		lsr	r3, r3, #1
  65 0008 1360     		str	r3, [r2]
  66              		.loc 1 67 0
  67 000a 7047     		bx	lr
  68              	.L6:
  69              		.align	2
  70              	.L5:
  71 000c 08010B40 		.word	1074462984
  72              		.cfi_endproc
  73              	.LFE1:
  74              		.size	CySysClkImoStop, .-CySysClkImoStop
  75              		.section	.text.CySysClkIloStart,"ax",%progbits
  76              		.align	1
  77              		.global	CySysClkIloStart
  78              		.code	16
  79              		.thumb_func
  80              		.type	CySysClkIloStart, %function
  81              	CySysClkIloStart:
  82              	.LFB2:
  68:.\Generated_Source\PSoC4/CyLib.c **** 
  69:.\Generated_Source\PSoC4/CyLib.c **** 
  70:.\Generated_Source\PSoC4/CyLib.c **** /*******************************************************************************
  71:.\Generated_Source\PSoC4/CyLib.c **** * Function Name: CySysClkIloStart
  72:.\Generated_Source\PSoC4/CyLib.c **** ********************************************************************************
  73:.\Generated_Source\PSoC4/CyLib.c **** *
  74:.\Generated_Source\PSoC4/CyLib.c **** * Summary:
  75:.\Generated_Source\PSoC4/CyLib.c **** *  Enables the ILO.
  76:.\Generated_Source\PSoC4/CyLib.c **** *
  77:.\Generated_Source\PSoC4/CyLib.c **** * Parameters:
  78:.\Generated_Source\PSoC4/CyLib.c **** *  None
  79:.\Generated_Source\PSoC4/CyLib.c **** *
  80:.\Generated_Source\PSoC4/CyLib.c **** * Return:
  81:.\Generated_Source\PSoC4/CyLib.c **** *  None
  82:.\Generated_Source\PSoC4/CyLib.c **** *
  83:.\Generated_Source\PSoC4/CyLib.c **** *******************************************************************************/
  84:.\Generated_Source\PSoC4/CyLib.c **** void CySysClkIloStart(void)
  85:.\Generated_Source\PSoC4/CyLib.c **** {
  83              		.loc 1 85 0
  84              		.cfi_startproc
ARM GAS  C:\DOCUME~1\Chuck\LOCALS~1\Temp\ccVSU8Ya.s 			page 4


  86:.\Generated_Source\PSoC4/CyLib.c ****     CY_SYS_CLK_ILO_CONFIG_REG |= CY_SYS_CLK_ILO_CONFIG_ENABLE;
  85              		.loc 1 86 0
  86 0000 8021     		mov	r1, #128
  87 0002 034A     		ldr	r2, .L8
  88 0004 0906     		lsl	r1, r1, #24
  89 0006 1368     		ldr	r3, [r2]
  87:.\Generated_Source\PSoC4/CyLib.c **** }
  90              		.loc 1 87 0
  91              		@ sp needed
  86:.\Generated_Source\PSoC4/CyLib.c ****     CY_SYS_CLK_ILO_CONFIG_REG |= CY_SYS_CLK_ILO_CONFIG_ENABLE;
  92              		.loc 1 86 0
  93 0008 0B43     		orr	r3, r1
  94 000a 1360     		str	r3, [r2]
  95              		.loc 1 87 0
  96 000c 7047     		bx	lr
  97              	.L9:
  98 000e C046     		.align	2
  99              	.L8:
 100 0010 04010B40 		.word	1074462980
 101              		.cfi_endproc
 102              	.LFE2:
 103              		.size	CySysClkIloStart, .-CySysClkIloStart
 104              		.section	.text.CySysClkIloStop,"ax",%progbits
 105              		.align	1
 106              		.global	CySysClkIloStop
 107              		.code	16
 108              		.thumb_func
 109              		.type	CySysClkIloStop, %function
 110              	CySysClkIloStop:
 111              	.LFB3:
  88:.\Generated_Source\PSoC4/CyLib.c **** 
  89:.\Generated_Source\PSoC4/CyLib.c **** 
  90:.\Generated_Source\PSoC4/CyLib.c **** /*******************************************************************************
  91:.\Generated_Source\PSoC4/CyLib.c **** * Function Name: CySysClkIloStop
  92:.\Generated_Source\PSoC4/CyLib.c **** ********************************************************************************
  93:.\Generated_Source\PSoC4/CyLib.c **** *
  94:.\Generated_Source\PSoC4/CyLib.c **** * Summary:
  95:.\Generated_Source\PSoC4/CyLib.c **** *  Disables the ILO.
  96:.\Generated_Source\PSoC4/CyLib.c **** *
  97:.\Generated_Source\PSoC4/CyLib.c **** * Parameters:
  98:.\Generated_Source\PSoC4/CyLib.c **** *  None
  99:.\Generated_Source\PSoC4/CyLib.c **** *
 100:.\Generated_Source\PSoC4/CyLib.c **** * Return:
 101:.\Generated_Source\PSoC4/CyLib.c **** *  None
 102:.\Generated_Source\PSoC4/CyLib.c **** *
 103:.\Generated_Source\PSoC4/CyLib.c **** * Side Effects:
 104:.\Generated_Source\PSoC4/CyLib.c **** *  This function will have no effect if the WDT is locked (CySysWdtLock() is
 105:.\Generated_Source\PSoC4/CyLib.c **** *  called). Call CySysWdtUnlock() to unlock the WDT and be able to stop ILO.
 106:.\Generated_Source\PSoC4/CyLib.c **** *  Note that ILO is required for the WDT's operation.
 107:.\Generated_Source\PSoC4/CyLib.c **** *
 108:.\Generated_Source\PSoC4/CyLib.c **** *******************************************************************************/
 109:.\Generated_Source\PSoC4/CyLib.c **** void CySysClkIloStop(void)
 110:.\Generated_Source\PSoC4/CyLib.c **** {
 112              		.loc 1 110 0
 113              		.cfi_startproc
 111:.\Generated_Source\PSoC4/CyLib.c ****     CY_SYS_CLK_ILO_CONFIG_REG &= ( uint32 ) ( ~( uint32 )CY_SYS_CLK_ILO_CONFIG_ENABLE);
 114              		.loc 1 111 0
ARM GAS  C:\DOCUME~1\Chuck\LOCALS~1\Temp\ccVSU8Ya.s 			page 5


 115 0000 024A     		ldr	r2, .L11
 112:.\Generated_Source\PSoC4/CyLib.c **** }
 116              		.loc 1 112 0
 117              		@ sp needed
 111:.\Generated_Source\PSoC4/CyLib.c ****     CY_SYS_CLK_ILO_CONFIG_REG &= ( uint32 ) ( ~( uint32 )CY_SYS_CLK_ILO_CONFIG_ENABLE);
 118              		.loc 1 111 0
 119 0002 1368     		ldr	r3, [r2]
 120 0004 5B00     		lsl	r3, r3, #1
 121 0006 5B08     		lsr	r3, r3, #1
 122 0008 1360     		str	r3, [r2]
 123              		.loc 1 112 0
 124 000a 7047     		bx	lr
 125              	.L12:
 126              		.align	2
 127              	.L11:
 128 000c 04010B40 		.word	1074462980
 129              		.cfi_endproc
 130              	.LFE3:
 131              		.size	CySysClkIloStop, .-CySysClkIloStop
 132              		.section	.text.CySysClkWriteHfclkDirect,"ax",%progbits
 133              		.align	1
 134              		.global	CySysClkWriteHfclkDirect
 135              		.code	16
 136              		.thumb_func
 137              		.type	CySysClkWriteHfclkDirect, %function
 138              	CySysClkWriteHfclkDirect:
 139              	.LFB4:
 113:.\Generated_Source\PSoC4/CyLib.c **** 
 114:.\Generated_Source\PSoC4/CyLib.c **** 
 115:.\Generated_Source\PSoC4/CyLib.c **** /*******************************************************************************
 116:.\Generated_Source\PSoC4/CyLib.c **** * Function Name: CySysClkWriteHfclkDirect
 117:.\Generated_Source\PSoC4/CyLib.c **** ********************************************************************************
 118:.\Generated_Source\PSoC4/CyLib.c **** *
 119:.\Generated_Source\PSoC4/CyLib.c **** * Summary:
 120:.\Generated_Source\PSoC4/CyLib.c **** *  Selects the direct source for the HFCLK.
 121:.\Generated_Source\PSoC4/CyLib.c **** *
 122:.\Generated_Source\PSoC4/CyLib.c **** * Parameters:
 123:.\Generated_Source\PSoC4/CyLib.c **** *  clkSelect: One of the available HFCLK direct sources:
 124:.\Generated_Source\PSoC4/CyLib.c **** *   Value        Define                    Source
 125:.\Generated_Source\PSoC4/CyLib.c **** *    0            CY_SYS_CLK_HFCLK_IMO      IMO
 126:.\Generated_Source\PSoC4/CyLib.c **** *    1            CY_SYS_CLK_HFCLK_EXTCLK   External clock pin
 127:.\Generated_Source\PSoC4/CyLib.c **** *
 128:.\Generated_Source\PSoC4/CyLib.c **** * Return:
 129:.\Generated_Source\PSoC4/CyLib.c **** *  None
 130:.\Generated_Source\PSoC4/CyLib.c **** *
 131:.\Generated_Source\PSoC4/CyLib.c **** * Side Effects:
 132:.\Generated_Source\PSoC4/CyLib.c **** *  The new source must be running and stable before calling this function.
 133:.\Generated_Source\PSoC4/CyLib.c **** *  Direct source is a default option for HFCLK.
 134:.\Generated_Source\PSoC4/CyLib.c **** *
 135:.\Generated_Source\PSoC4/CyLib.c **** *  If the SYSCLK clock frequency increases during device operation, call
 136:.\Generated_Source\PSoC4/CyLib.c **** *  CySysFlashSetWaitCycles() with the appropriate parameter to adjust the number
 137:.\Generated_Source\PSoC4/CyLib.c **** *  of clock cycles the cache will wait before sampling data comes back from Flash.
 138:.\Generated_Source\PSoC4/CyLib.c **** *  If the SYSCLK clock frequency decreases, you can call
 139:.\Generated_Source\PSoC4/CyLib.c **** *  CySysFlashSetWaitCycles() to improve the CPU performance. See
 140:.\Generated_Source\PSoC4/CyLib.c **** *  CySysFlashSetWaitCycles() description for more information.
 141:.\Generated_Source\PSoC4/CyLib.c **** *
 142:.\Generated_Source\PSoC4/CyLib.c **** *******************************************************************************/
ARM GAS  C:\DOCUME~1\Chuck\LOCALS~1\Temp\ccVSU8Ya.s 			page 6


 143:.\Generated_Source\PSoC4/CyLib.c **** void CySysClkWriteHfclkDirect(uint32 clkSelect)
 144:.\Generated_Source\PSoC4/CyLib.c **** {
 140              		.loc 1 144 0
 141              		.cfi_startproc
 142              	.LVL0:
 143 0000 10B5     		push	{r4, lr}
 144              		.cfi_def_cfa_offset 8
 145              		.cfi_offset 4, -8
 146              		.cfi_offset 14, -4
 147              		.loc 1 144 0
 148 0002 041C     		mov	r4, r0
 145:.\Generated_Source\PSoC4/CyLib.c ****     uint8  interruptState;
 146:.\Generated_Source\PSoC4/CyLib.c **** 
 147:.\Generated_Source\PSoC4/CyLib.c ****     interruptState = CyEnterCriticalSection();
 149              		.loc 1 147 0
 150 0004 FFF7FEFF 		bl	CyEnterCriticalSection
 151              	.LVL1:
 148:.\Generated_Source\PSoC4/CyLib.c **** 
 149:.\Generated_Source\PSoC4/CyLib.c ****     CY_SYS_CLK_SELECT_REG = ((CY_SYS_CLK_SELECT_REG & (( uint32 ) ~(( uint32 )CY_SYS_CLK_SELECT_DIR
 150:.\Generated_Source\PSoC4/CyLib.c ****                         (( uint32 ) (clkSelect & ( uint32 )CY_SYS_CLK_SELECT_DIRECT_SEL_PARAM_MASK)
 152              		.loc 1 150 0
 153 0008 0123     		mov	r3, #1
 154 000a 2340     		and	r3, r4
 149:.\Generated_Source\PSoC4/CyLib.c ****                         (( uint32 ) (clkSelect & ( uint32 )CY_SYS_CLK_SELECT_DIRECT_SEL_PARAM_MASK)
 155              		.loc 1 149 0
 156 000c 0724     		mov	r4, #7
 157              	.LVL2:
 158 000e 0449     		ldr	r1, .L14
 151:.\Generated_Source\PSoC4/CyLib.c **** 
 152:.\Generated_Source\PSoC4/CyLib.c ****     CyExitCriticalSection(interruptState);
 153:.\Generated_Source\PSoC4/CyLib.c **** }
 159              		.loc 1 153 0
 160              		@ sp needed
 149:.\Generated_Source\PSoC4/CyLib.c ****                         (( uint32 ) (clkSelect & ( uint32 )CY_SYS_CLK_SELECT_DIRECT_SEL_PARAM_MASK)
 161              		.loc 1 149 0
 162 0010 0A68     		ldr	r2, [r1]
 163 0012 A243     		bic	r2, r4
 164 0014 1343     		orr	r3, r2
 165 0016 0B60     		str	r3, [r1]
 152:.\Generated_Source\PSoC4/CyLib.c **** }
 166              		.loc 1 152 0
 167 0018 FFF7FEFF 		bl	CyExitCriticalSection
 168              	.LVL3:
 169              		.loc 1 153 0
 170 001c 10BD     		pop	{r4, pc}
 171              	.L15:
 172 001e C046     		.align	2
 173              	.L14:
 174 0020 00010B40 		.word	1074462976
 175              		.cfi_endproc
 176              	.LFE4:
 177              		.size	CySysClkWriteHfclkDirect, .-CySysClkWriteHfclkDirect
 178              		.section	.text.CySysClkWriteSysclkDiv,"ax",%progbits
 179              		.align	1
 180              		.global	CySysClkWriteSysclkDiv
 181              		.code	16
 182              		.thumb_func
ARM GAS  C:\DOCUME~1\Chuck\LOCALS~1\Temp\ccVSU8Ya.s 			page 7


 183              		.type	CySysClkWriteSysclkDiv, %function
 184              	CySysClkWriteSysclkDiv:
 185              	.LFB5:
 154:.\Generated_Source\PSoC4/CyLib.c **** 
 155:.\Generated_Source\PSoC4/CyLib.c **** 
 156:.\Generated_Source\PSoC4/CyLib.c **** /*******************************************************************************
 157:.\Generated_Source\PSoC4/CyLib.c **** * Function Name: CySysClkWriteSysclkDiv
 158:.\Generated_Source\PSoC4/CyLib.c **** ********************************************************************************
 159:.\Generated_Source\PSoC4/CyLib.c **** *
 160:.\Generated_Source\PSoC4/CyLib.c **** * Summary:
 161:.\Generated_Source\PSoC4/CyLib.c **** *  Selects SYSCLK from HFCLK pre-scaler value.
 162:.\Generated_Source\PSoC4/CyLib.c **** *
 163:.\Generated_Source\PSoC4/CyLib.c **** * Parameters:
 164:.\Generated_Source\PSoC4/CyLib.c **** *  divider: Power of 2 prescaler selection
 165:.\Generated_Source\PSoC4/CyLib.c **** *
 166:.\Generated_Source\PSoC4/CyLib.c **** *   Define                        Description
 167:.\Generated_Source\PSoC4/CyLib.c **** *   CY_SYS_CLK_SYSCLK_DIV1        SYSCLK = HFCLK / 1
 168:.\Generated_Source\PSoC4/CyLib.c **** *   CY_SYS_CLK_SYSCLK_DIV2        SYSCLK = HFCLK / 2
 169:.\Generated_Source\PSoC4/CyLib.c **** *   CY_SYS_CLK_SYSCLK_DIV4        SYSCLK = HFCLK / 4
 170:.\Generated_Source\PSoC4/CyLib.c **** *   CY_SYS_CLK_SYSCLK_DIV8        SYSCLK = HFCLK / 8
 171:.\Generated_Source\PSoC4/CyLib.c **** *   CY_SYS_CLK_SYSCLK_DIV16       SYSCLK = HFCLK / 16  (N/A for 4000 Family)
 172:.\Generated_Source\PSoC4/CyLib.c **** *   CY_SYS_CLK_SYSCLK_DIV32       SYSCLK = HFCLK / 32  (N/A for 4000 Family)
 173:.\Generated_Source\PSoC4/CyLib.c **** *   CY_SYS_CLK_SYSCLK_DIV64       SYSCLK = HFCLK / 64  (N/A for 4000 Family)
 174:.\Generated_Source\PSoC4/CyLib.c **** *   CY_SYS_CLK_SYSCLK_DIV128      SYSCLK = HFCLK / 128 (N/A for 4000 Family)
 175:.\Generated_Source\PSoC4/CyLib.c **** *
 176:.\Generated_Source\PSoC4/CyLib.c **** * Return:
 177:.\Generated_Source\PSoC4/CyLib.c **** *  None
 178:.\Generated_Source\PSoC4/CyLib.c **** *
 179:.\Generated_Source\PSoC4/CyLib.c **** * Side Effects:
 180:.\Generated_Source\PSoC4/CyLib.c **** *  4000 Family:
 181:.\Generated_Source\PSoC4/CyLib.c **** *  The SYS_CLK has the speed of 16 MHz, so dividers HF_CLK and SYS_CLK
 182:.\Generated_Source\PSoC4/CyLib.c **** *  dividers should be selected in a way, not to exceed 16 MHz for SYS_CLK.
 183:.\Generated_Source\PSoC4/CyLib.c **** *
 184:.\Generated_Source\PSoC4/CyLib.c **** *  If the SYSCLK clock frequency increases during the device operation, call
 185:.\Generated_Source\PSoC4/CyLib.c **** *  CySysFlashSetWaitCycles() with the appropriate parameter to adjust the number
 186:.\Generated_Source\PSoC4/CyLib.c **** *  of clock cycles the cache will wait before sampling data comes?? back from Flash.
 187:.\Generated_Source\PSoC4/CyLib.c **** *  If the SYSCLK clock frequency decreases, you can call
 188:.\Generated_Source\PSoC4/CyLib.c **** *  CySysFlashSetWaitCycles() to improve the CPU performance. See
 189:.\Generated_Source\PSoC4/CyLib.c **** *  CySysFlashSetWaitCycles() description for more information.
 190:.\Generated_Source\PSoC4/CyLib.c **** *
 191:.\Generated_Source\PSoC4/CyLib.c **** *******************************************************************************/
 192:.\Generated_Source\PSoC4/CyLib.c **** void CySysClkWriteSysclkDiv(uint32 divider)
 193:.\Generated_Source\PSoC4/CyLib.c **** {
 186              		.loc 1 193 0
 187              		.cfi_startproc
 188              	.LVL4:
 189 0000 38B5     		push	{r3, r4, r5, lr}
 190              		.cfi_def_cfa_offset 16
 191              		.cfi_offset 3, -16
 192              		.cfi_offset 4, -12
 193              		.cfi_offset 5, -8
 194              		.cfi_offset 14, -4
 195              		.loc 1 193 0
 196 0002 051C     		mov	r5, r0
 194:.\Generated_Source\PSoC4/CyLib.c ****     uint8  interruptState;
 195:.\Generated_Source\PSoC4/CyLib.c **** 
 196:.\Generated_Source\PSoC4/CyLib.c ****     interruptState = CyEnterCriticalSection();
ARM GAS  C:\DOCUME~1\Chuck\LOCALS~1\Temp\ccVSU8Ya.s 			page 8


 197              		.loc 1 196 0
 198 0004 FFF7FEFF 		bl	CyEnterCriticalSection
 199              	.LVL5:
 197:.\Generated_Source\PSoC4/CyLib.c **** 
 198:.\Generated_Source\PSoC4/CyLib.c ****     CY_SYS_CLK_SELECT_REG = ((uint32)(((uint32)divider & CY_SYS_CLK_SELECT_SYSCLK_DIV_MASK) <<
 200              		.loc 1 198 0
 201 0008 0721     		mov	r1, #7
 199:.\Generated_Source\PSoC4/CyLib.c ****                                     CY_SYS_CLK_SELECT_SYSCLK_DIV_SHIFT)) |
 200:.\Generated_Source\PSoC4/CyLib.c ****                             (CY_SYS_CLK_SELECT_REG & ((uint32)(~(uint32)(CY_SYS_CLK_SELECT_SYSCLK_D
 202              		.loc 1 200 0
 203 000a 054C     		ldr	r4, .L17
 204 000c 054A     		ldr	r2, .L17+4
 205 000e 2368     		ldr	r3, [r4]
 198:.\Generated_Source\PSoC4/CyLib.c ****                                     CY_SYS_CLK_SELECT_SYSCLK_DIV_SHIFT)) |
 206              		.loc 1 198 0
 207 0010 2940     		and	r1, r5
 208 0012 C904     		lsl	r1, r1, #19
 209              		.loc 1 200 0
 210 0014 1340     		and	r3, r2
 199:.\Generated_Source\PSoC4/CyLib.c ****                                     CY_SYS_CLK_SELECT_SYSCLK_DIV_SHIFT)) |
 211              		.loc 1 199 0
 212 0016 0B43     		orr	r3, r1
 198:.\Generated_Source\PSoC4/CyLib.c ****                                     CY_SYS_CLK_SELECT_SYSCLK_DIV_SHIFT)) |
 213              		.loc 1 198 0
 214 0018 2360     		str	r3, [r4]
 201:.\Generated_Source\PSoC4/CyLib.c ****                                     CY_SYS_CLK_SELECT_SYSCLK_DIV_SHIFT))));
 202:.\Generated_Source\PSoC4/CyLib.c **** 
 203:.\Generated_Source\PSoC4/CyLib.c ****     CyExitCriticalSection(interruptState);
 215              		.loc 1 203 0
 216 001a FFF7FEFF 		bl	CyExitCriticalSection
 217              	.LVL6:
 204:.\Generated_Source\PSoC4/CyLib.c **** }
 218              		.loc 1 204 0
 219              		@ sp needed
 220              	.LVL7:
 221 001e 38BD     		pop	{r3, r4, r5, pc}
 222              	.L18:
 223              		.align	2
 224              	.L17:
 225 0020 00010B40 		.word	1074462976
 226 0024 FFFFC7FF 		.word	-3670017
 227              		.cfi_endproc
 228              	.LFE5:
 229              		.size	CySysClkWriteSysclkDiv, .-CySysClkWriteSysclkDiv
 230              		.section	.text.CySysWdtLock,"ax",%progbits
 231              		.align	1
 232              		.global	CySysWdtLock
 233              		.code	16
 234              		.thumb_func
 235              		.type	CySysWdtLock, %function
 236              	CySysWdtLock:
 237              	.LFB7:
 205:.\Generated_Source\PSoC4/CyLib.c **** 
 206:.\Generated_Source\PSoC4/CyLib.c **** 
 207:.\Generated_Source\PSoC4/CyLib.c **** #if(CY_PSOC4A)
 208:.\Generated_Source\PSoC4/CyLib.c **** 
 209:.\Generated_Source\PSoC4/CyLib.c ****     /*******************************************************************************
ARM GAS  C:\DOCUME~1\Chuck\LOCALS~1\Temp\ccVSU8Ya.s 			page 9


 210:.\Generated_Source\PSoC4/CyLib.c ****     * Function Name: CySysClkWriteImoFreq
 211:.\Generated_Source\PSoC4/CyLib.c ****     ********************************************************************************
 212:.\Generated_Source\PSoC4/CyLib.c ****     *
 213:.\Generated_Source\PSoC4/CyLib.c ****     * Summary:
 214:.\Generated_Source\PSoC4/CyLib.c ****     *  Sets the frequency of the IMO.
 215:.\Generated_Source\PSoC4/CyLib.c ****     *
 216:.\Generated_Source\PSoC4/CyLib.c ****     * Parameters:
 217:.\Generated_Source\PSoC4/CyLib.c ****     *  freq: Valid range [3-48].  Frequency for operation of the IMO.
 218:.\Generated_Source\PSoC4/CyLib.c ****     *  Note: Invalid frequency will be ignored.
 219:.\Generated_Source\PSoC4/CyLib.c ****     *
 220:.\Generated_Source\PSoC4/CyLib.c ****     * Return:
 221:.\Generated_Source\PSoC4/CyLib.c ****     *  None
 222:.\Generated_Source\PSoC4/CyLib.c ****     *
 223:.\Generated_Source\PSoC4/CyLib.c ****     * Side Effects:
 224:.\Generated_Source\PSoC4/CyLib.c ****     *  If the SYSCLK clock frequency increases during the device operation, call
 225:.\Generated_Source\PSoC4/CyLib.c ****     *  CySysFlashSetWaitCycles() with the appropriate parameter to adjust the number
 226:.\Generated_Source\PSoC4/CyLib.c ****     *  of clock cycles the cache will wait before sampling data comes back from Flash.
 227:.\Generated_Source\PSoC4/CyLib.c ****     *  If the SYSCLK clock frequency decreases, you can call
 228:.\Generated_Source\PSoC4/CyLib.c ****     *  CySysFlashSetWaitCycles() to improve the CPU performance.
 229:.\Generated_Source\PSoC4/CyLib.c ****     *  See CySysFlashSetWaitCycles() description for more information.
 230:.\Generated_Source\PSoC4/CyLib.c ****     *
 231:.\Generated_Source\PSoC4/CyLib.c ****     *******************************************************************************/
 232:.\Generated_Source\PSoC4/CyLib.c ****     void CySysClkWriteImoFreq(uint32 freq)
 233:.\Generated_Source\PSoC4/CyLib.c ****     {
 234:.\Generated_Source\PSoC4/CyLib.c ****         uint8  bgTrim4;
 235:.\Generated_Source\PSoC4/CyLib.c ****         uint8  bgTrim5;
 236:.\Generated_Source\PSoC4/CyLib.c ****         uint32 currentFreq = CY_SYS_CLK_IMO_MAX_FREQ_MHZ;
 237:.\Generated_Source\PSoC4/CyLib.c ****         uint8  interruptState;
 238:.\Generated_Source\PSoC4/CyLib.c ****         uint32 i;
 239:.\Generated_Source\PSoC4/CyLib.c **** 
 240:.\Generated_Source\PSoC4/CyLib.c ****         /* Convertion between CySysClkWriteImoFreq() parameter and register's value */
 241:.\Generated_Source\PSoC4/CyLib.c ****         static const uint8 cyImoFreqMhz2Reg[CY_SYS_CLK_IMO_FREQ_TABLE_SIZE] = {
 242:.\Generated_Source\PSoC4/CyLib.c ****             /*  3 MHz */ 0x03u,  /*  4 MHz */ 0x04u,  /*  5 MHz */ 0x05u,  /*  6 MHz */ 0x06u,
 243:.\Generated_Source\PSoC4/CyLib.c ****             /*  7 MHz */ 0x07u,  /*  8 MHz */ 0x08u,  /*  9 MHz */ 0x09u,  /* 10 MHz */ 0x0Au,
 244:.\Generated_Source\PSoC4/CyLib.c ****             /* 11 MHz */ 0x0Bu,  /* 12 MHz */ 0x0Cu,  /* 13 MHz */ 0x0Eu,  /* 14 MHz */ 0x0Fu,
 245:.\Generated_Source\PSoC4/CyLib.c ****             /* 15 MHz */ 0x10u,  /* 16 MHz */ 0x11u,  /* 17 MHz */ 0x12u,  /* 18 MHz */ 0x13u,
 246:.\Generated_Source\PSoC4/CyLib.c ****             /* 19 MHz */ 0x14u,  /* 20 MHz */ 0x15u,  /* 21 MHz */ 0x16u,  /* 22 MHz */ 0x17u,
 247:.\Generated_Source\PSoC4/CyLib.c ****             /* 23 MHz */ 0x18u,  /* 24 MHz */ 0x19u,  /* 25 MHz */ 0x1Bu,  /* 26 MHz */ 0x1Cu,
 248:.\Generated_Source\PSoC4/CyLib.c ****             /* 27 MHz */ 0x1Du,  /* 28 MHz */ 0x1Eu,  /* 29 MHz */ 0x1Fu,  /* 30 MHz */ 0x20u,
 249:.\Generated_Source\PSoC4/CyLib.c ****             /* 31 MHz */ 0x21u,  /* 32 MHz */ 0x22u,  /* 33 MHz */ 0x23u,  /* 34 MHz */ 0x25u,
 250:.\Generated_Source\PSoC4/CyLib.c ****             /* 35 MHz */ 0x26u,  /* 36 MHz */ 0x27u,  /* 37 MHz */ 0x28u,  /* 38 MHz */ 0x29u,
 251:.\Generated_Source\PSoC4/CyLib.c ****             /* 39 MHz */ 0x2Au,  /* 40 MHz */ 0x2Bu,  /* 41 MHz */ 0x2Eu,  /* 42 MHz */ 0x2Fu,
 252:.\Generated_Source\PSoC4/CyLib.c ****             /* 43 MHz */ 0x30u,  /* 44 MHz */ 0x31u,  /* 45 MHz */ 0x32u,  /* 46 MHz */ 0x33u,
 253:.\Generated_Source\PSoC4/CyLib.c ****             /* 47 MHz */ 0x34u,  /* 48 MHz */ 0x35u };
 254:.\Generated_Source\PSoC4/CyLib.c **** 
 255:.\Generated_Source\PSoC4/CyLib.c **** 
 256:.\Generated_Source\PSoC4/CyLib.c ****         if ((freq >= CY_SYS_CLK_IMO_MIN_FREQ_MHZ) && (freq <= CY_SYS_CLK_IMO_MAX_FREQ_MHZ))
 257:.\Generated_Source\PSoC4/CyLib.c ****         {
 258:.\Generated_Source\PSoC4/CyLib.c ****             interruptState = CyEnterCriticalSection();
 259:.\Generated_Source\PSoC4/CyLib.c **** 
 260:.\Generated_Source\PSoC4/CyLib.c ****             /* Get current IMO frequency */
 261:.\Generated_Source\PSoC4/CyLib.c ****             for (i = 0u; i < CY_SYS_CLK_IMO_FREQ_TABLE_SIZE; i++)
 262:.\Generated_Source\PSoC4/CyLib.c ****             {
 263:.\Generated_Source\PSoC4/CyLib.c ****                 if (cyImoFreqMhz2Reg[i] == (CY_SYS_CLK_IMO_TRIM2_REG & CY_SYS_CLK_IMO_FREQ_BITS_MAS
 264:.\Generated_Source\PSoC4/CyLib.c ****                 {
 265:.\Generated_Source\PSoC4/CyLib.c ****                     currentFreq = i + CY_SYS_CLK_IMO_FREQ_TABLE_OFFSET;
 266:.\Generated_Source\PSoC4/CyLib.c ****                     break;
ARM GAS  C:\DOCUME~1\Chuck\LOCALS~1\Temp\ccVSU8Ya.s 			page 10


 267:.\Generated_Source\PSoC4/CyLib.c ****                 }
 268:.\Generated_Source\PSoC4/CyLib.c ****             }
 269:.\Generated_Source\PSoC4/CyLib.c **** 
 270:.\Generated_Source\PSoC4/CyLib.c ****             if(freq <= CY_SFLASH_IMO_MAXF0_REG)
 271:.\Generated_Source\PSoC4/CyLib.c ****             {
 272:.\Generated_Source\PSoC4/CyLib.c ****                 bgTrim4 = CY_SFLASH_IMO_ABS0_REG;
 273:.\Generated_Source\PSoC4/CyLib.c ****                 bgTrim5 = CY_SFLASH_IMO_TMPCO0_REG;
 274:.\Generated_Source\PSoC4/CyLib.c ****             }
 275:.\Generated_Source\PSoC4/CyLib.c ****             else if(freq <= CY_SFLASH_IMO_MAXF1_REG)
 276:.\Generated_Source\PSoC4/CyLib.c ****             {
 277:.\Generated_Source\PSoC4/CyLib.c ****                 bgTrim4 = CY_SFLASH_IMO_ABS1_REG;
 278:.\Generated_Source\PSoC4/CyLib.c ****                 bgTrim5 = CY_SFLASH_IMO_TMPCO1_REG;
 279:.\Generated_Source\PSoC4/CyLib.c ****             }
 280:.\Generated_Source\PSoC4/CyLib.c ****             else if(freq <= CY_SFLASH_IMO_MAXF2_REG)
 281:.\Generated_Source\PSoC4/CyLib.c ****             {
 282:.\Generated_Source\PSoC4/CyLib.c ****                 bgTrim4 = CY_SFLASH_IMO_ABS2_REG;
 283:.\Generated_Source\PSoC4/CyLib.c ****                 bgTrim5 = CY_SFLASH_IMO_TMPCO2_REG;
 284:.\Generated_Source\PSoC4/CyLib.c ****             }
 285:.\Generated_Source\PSoC4/CyLib.c ****             else if(freq <= CY_SFLASH_IMO_MAXF3_REG)
 286:.\Generated_Source\PSoC4/CyLib.c ****             {
 287:.\Generated_Source\PSoC4/CyLib.c ****                 bgTrim4 = CY_SFLASH_IMO_ABS3_REG;
 288:.\Generated_Source\PSoC4/CyLib.c ****                 bgTrim5 = CY_SFLASH_IMO_TMPCO3_REG;
 289:.\Generated_Source\PSoC4/CyLib.c ****             }
 290:.\Generated_Source\PSoC4/CyLib.c ****             else
 291:.\Generated_Source\PSoC4/CyLib.c ****             {
 292:.\Generated_Source\PSoC4/CyLib.c ****                 bgTrim4 = CY_SFLASH_IMO_ABS4_REG;
 293:.\Generated_Source\PSoC4/CyLib.c ****                 bgTrim5 = CY_SFLASH_IMO_TMPCO4_REG;
 294:.\Generated_Source\PSoC4/CyLib.c ****             }
 295:.\Generated_Source\PSoC4/CyLib.c **** 
 296:.\Generated_Source\PSoC4/CyLib.c **** 
 297:.\Generated_Source\PSoC4/CyLib.c ****             /***************************************************************************
 298:.\Generated_Source\PSoC4/CyLib.c ****             * The IMO can have a different trim per frequency. To avoid possible corner
 299:.\Generated_Source\PSoC4/CyLib.c ****             * cases where a trim change can exceed the maximum frequency, the trim must
 300:.\Generated_Source\PSoC4/CyLib.c ****             * be applied at a frequency that is low enough.
 301:.\Generated_Source\PSoC4/CyLib.c ****             ***************************************************************************/
 302:.\Generated_Source\PSoC4/CyLib.c ****             if ((currentFreq >= CY_SYS_CLK_IMO_BOUNDARY_FREQ_MHZ) && (freq >= CY_SYS_CLK_IMO_BOUNDA
 303:.\Generated_Source\PSoC4/CyLib.c ****             {
 304:.\Generated_Source\PSoC4/CyLib.c ****                 /* Set boundary IMO frequency: safe for IMO above 48 MHZ trimming */
 305:.\Generated_Source\PSoC4/CyLib.c ****                 CY_SYS_CLK_IMO_TRIM2_REG = (uint32) cyImoFreqMhz2Reg[CY_SYS_CLK_IMO_TEMP_FREQ_MHZ -
 306:.\Generated_Source\PSoC4/CyLib.c ****                                                                      CY_SYS_CLK_IMO_FREQ_TABLE_OFFS
 307:.\Generated_Source\PSoC4/CyLib.c **** 
 308:.\Generated_Source\PSoC4/CyLib.c ****                 CyDelayCycles(CY_SYS_CLK_IMO_FREQ_TIMEOUT_CYCLES);
 309:.\Generated_Source\PSoC4/CyLib.c **** 
 310:.\Generated_Source\PSoC4/CyLib.c ****                 currentFreq = CY_SYS_CLK_IMO_TEMP_FREQ_MHZ;
 311:.\Generated_Source\PSoC4/CyLib.c ****             }
 312:.\Generated_Source\PSoC4/CyLib.c **** 
 313:.\Generated_Source\PSoC4/CyLib.c **** 
 314:.\Generated_Source\PSoC4/CyLib.c ****             /***************************************************************************
 315:.\Generated_Source\PSoC4/CyLib.c ****             * A trim change needs to be allowed to settle (within 5us) before the Freq can be
 316:.\Generated_Source\PSoC4/CyLib.c ****             * changed to a new frequency.
 317:.\Generated_Source\PSoC4/CyLib.c ****             ***************************************************************************/
 318:.\Generated_Source\PSoC4/CyLib.c ****             if (freq > currentFreq)
 319:.\Generated_Source\PSoC4/CyLib.c ****             {
 320:.\Generated_Source\PSoC4/CyLib.c ****                 /* Set trims for the new IMO frequency */
 321:.\Generated_Source\PSoC4/CyLib.c ****                 CY_SYS_CLK_IMO_TRIM1_REG = (uint32) CY_SFLASH_IMO_TRIM_REG(freq - CY_SYS_CLK_IMO_FR
 322:.\Generated_Source\PSoC4/CyLib.c ****                 CY_PWR_BG_TRIM4_REG  = bgTrim4;
 323:.\Generated_Source\PSoC4/CyLib.c ****                 CY_PWR_BG_TRIM5_REG  = bgTrim5;
ARM GAS  C:\DOCUME~1\Chuck\LOCALS~1\Temp\ccVSU8Ya.s 			page 11


 324:.\Generated_Source\PSoC4/CyLib.c ****                 CyDelayUs(CY_SYS_CLK_IMO_TRIM_TIMEOUT_US);
 325:.\Generated_Source\PSoC4/CyLib.c **** 
 326:.\Generated_Source\PSoC4/CyLib.c ****                 /* Set new IMO frequency */
 327:.\Generated_Source\PSoC4/CyLib.c ****                 CY_SYS_CLK_IMO_TRIM2_REG = cyImoFreqMhz2Reg[freq - CY_SYS_CLK_IMO_FREQ_TABLE_OFFSET
 328:.\Generated_Source\PSoC4/CyLib.c ****                 CyDelayCycles(CY_SYS_CLK_IMO_FREQ_TIMEOUT_CYCLES);
 329:.\Generated_Source\PSoC4/CyLib.c ****             }
 330:.\Generated_Source\PSoC4/CyLib.c ****             else
 331:.\Generated_Source\PSoC4/CyLib.c ****             {
 332:.\Generated_Source\PSoC4/CyLib.c ****                 /* Set new IMO frequency */
 333:.\Generated_Source\PSoC4/CyLib.c ****                 CY_SYS_CLK_IMO_TRIM2_REG = cyImoFreqMhz2Reg[freq - CY_SYS_CLK_IMO_FREQ_TABLE_OFFSET
 334:.\Generated_Source\PSoC4/CyLib.c ****                 CyDelayCycles(CY_SYS_CLK_IMO_FREQ_TIMEOUT_CYCLES);
 335:.\Generated_Source\PSoC4/CyLib.c **** 
 336:.\Generated_Source\PSoC4/CyLib.c ****                 /* Set trims for the new IMO frequency */
 337:.\Generated_Source\PSoC4/CyLib.c ****                 CY_SYS_CLK_IMO_TRIM1_REG = CY_SFLASH_IMO_TRIM_REG(freq - CY_SYS_CLK_IMO_FREQ_TABLE_
 338:.\Generated_Source\PSoC4/CyLib.c ****                 CY_PWR_BG_TRIM4_REG  = bgTrim4;
 339:.\Generated_Source\PSoC4/CyLib.c ****                 CY_PWR_BG_TRIM5_REG  = bgTrim5;
 340:.\Generated_Source\PSoC4/CyLib.c ****                 CyDelayUs(CY_SYS_CLK_IMO_TRIM_TIMEOUT_US);
 341:.\Generated_Source\PSoC4/CyLib.c ****             }
 342:.\Generated_Source\PSoC4/CyLib.c **** 
 343:.\Generated_Source\PSoC4/CyLib.c ****             CyExitCriticalSection(interruptState);
 344:.\Generated_Source\PSoC4/CyLib.c ****         }
 345:.\Generated_Source\PSoC4/CyLib.c ****         else
 346:.\Generated_Source\PSoC4/CyLib.c ****         {
 347:.\Generated_Source\PSoC4/CyLib.c ****             /* Halt CPU in debug mode if new frequency is invalid */
 348:.\Generated_Source\PSoC4/CyLib.c ****             CYASSERT(0u != 0u);
 349:.\Generated_Source\PSoC4/CyLib.c ****         }
 350:.\Generated_Source\PSoC4/CyLib.c ****     }
 351:.\Generated_Source\PSoC4/CyLib.c **** 
 352:.\Generated_Source\PSoC4/CyLib.c **** 
 353:.\Generated_Source\PSoC4/CyLib.c **** #else
 354:.\Generated_Source\PSoC4/CyLib.c **** 
 355:.\Generated_Source\PSoC4/CyLib.c **** 
 356:.\Generated_Source\PSoC4/CyLib.c ****     /*******************************************************************************
 357:.\Generated_Source\PSoC4/CyLib.c ****     * Function Name: CySysClkWriteHfclkDiv
 358:.\Generated_Source\PSoC4/CyLib.c ****     ********************************************************************************
 359:.\Generated_Source\PSoC4/CyLib.c ****     *
 360:.\Generated_Source\PSoC4/CyLib.c ****     * Summary:
 361:.\Generated_Source\PSoC4/CyLib.c ****     *  Selects HF clk predivider value.
 362:.\Generated_Source\PSoC4/CyLib.c ****     *
 363:.\Generated_Source\PSoC4/CyLib.c ****     * Parameters:
 364:.\Generated_Source\PSoC4/CyLib.c ****     *  divider: HF clock divider value
 365:.\Generated_Source\PSoC4/CyLib.c ****     *   Define                        Description
 366:.\Generated_Source\PSoC4/CyLib.c ****     *   CY_SYS_CLK_HFCLK_DIV_NODIV    Transparent mode (w/o dividing)
 367:.\Generated_Source\PSoC4/CyLib.c ****     *   CY_SYS_CLK_HFCLK_DIV_2        Divide selected clock source by 2
 368:.\Generated_Source\PSoC4/CyLib.c ****     *   CY_SYS_CLK_HFCLK_DIV_4        Divide selected clock source by 4
 369:.\Generated_Source\PSoC4/CyLib.c ****     *   CY_SYS_CLK_HFCLK_DIV_8        Divide selected clock source by 8
 370:.\Generated_Source\PSoC4/CyLib.c ****     *
 371:.\Generated_Source\PSoC4/CyLib.c ****     * Return:
 372:.\Generated_Source\PSoC4/CyLib.c ****     *  None
 373:.\Generated_Source\PSoC4/CyLib.c ****     *
 374:.\Generated_Source\PSoC4/CyLib.c ****     * Side Effects:
 375:.\Generated_Source\PSoC4/CyLib.c ****     *  If the SYSCLK clock frequency increases during the device operation, call
 376:.\Generated_Source\PSoC4/CyLib.c ****     *  CySysFlashSetWaitCycles() with the appropriate parameter to adjust the number
 377:.\Generated_Source\PSoC4/CyLib.c ****     *  of clock cycles the cache will wait before sampling data comes back from Flash.
 378:.\Generated_Source\PSoC4/CyLib.c ****     *  If the SYSCLK clock frequency decreases, you can call
 379:.\Generated_Source\PSoC4/CyLib.c ****     *  CySysFlashSetWaitCycles() to improve the CPU performance. See
 380:.\Generated_Source\PSoC4/CyLib.c ****     *  CySysFlashSetWaitCycles() description for more information.
ARM GAS  C:\DOCUME~1\Chuck\LOCALS~1\Temp\ccVSU8Ya.s 			page 12


 381:.\Generated_Source\PSoC4/CyLib.c ****     *
 382:.\Generated_Source\PSoC4/CyLib.c **** 
 383:.\Generated_Source\PSoC4/CyLib.c ****     *
 384:.\Generated_Source\PSoC4/CyLib.c ****     *******************************************************************************/
 385:.\Generated_Source\PSoC4/CyLib.c ****     void CySysClkWriteHfclkDiv(uint32 divider)
 386:.\Generated_Source\PSoC4/CyLib.c ****     {
 387:.\Generated_Source\PSoC4/CyLib.c ****         uint8  interruptState;
 388:.\Generated_Source\PSoC4/CyLib.c **** 
 389:.\Generated_Source\PSoC4/CyLib.c ****         interruptState = CyEnterCriticalSection();
 390:.\Generated_Source\PSoC4/CyLib.c **** 
 391:.\Generated_Source\PSoC4/CyLib.c ****         CY_SYS_CLK_SELECT_REG = ((CY_SYS_CLK_SELECT_REG & ((uint32) (~(CY_SYS_CLK_SELECT_HFCLK_DIV_
 392:.\Generated_Source\PSoC4/CyLib.c ****                                         CY_SYS_CLK_SELECT_HFCLK_DIV_SHIFT)))) |
 393:.\Generated_Source\PSoC4/CyLib.c ****                     ((uint32)((divider & CY_SYS_CLK_SELECT_HFCLK_DIV_MASK) << CY_SYS_CLK_SELECT_HFC
 394:.\Generated_Source\PSoC4/CyLib.c **** 
 395:.\Generated_Source\PSoC4/CyLib.c ****         CyExitCriticalSection(interruptState);
 396:.\Generated_Source\PSoC4/CyLib.c ****     }
 397:.\Generated_Source\PSoC4/CyLib.c **** 
 398:.\Generated_Source\PSoC4/CyLib.c **** 
 399:.\Generated_Source\PSoC4/CyLib.c ****     /*******************************************************************************
 400:.\Generated_Source\PSoC4/CyLib.c ****     * Function Name: CySysClkWriteImoFreq
 401:.\Generated_Source\PSoC4/CyLib.c ****     ********************************************************************************
 402:.\Generated_Source\PSoC4/CyLib.c ****     *
 403:.\Generated_Source\PSoC4/CyLib.c ****     * Summary:
 404:.\Generated_Source\PSoC4/CyLib.c ****     *  Sets the frequency of the IMO.
 405:.\Generated_Source\PSoC4/CyLib.c ****     *
 406:.\Generated_Source\PSoC4/CyLib.c ****     * Parameters:
 407:.\Generated_Source\PSoC4/CyLib.c ****     *  freq: Valid values are 24, 32 and 48 MHz.
 408:.\Generated_Source\PSoC4/CyLib.c ****     *
 409:.\Generated_Source\PSoC4/CyLib.c ****     *  Note: The CPU is halted if new frequency is invalid and project is
 410:.\Generated_Source\PSoC4/CyLib.c ****     *  compiled in debug mode.
 411:.\Generated_Source\PSoC4/CyLib.c ****     *
 412:.\Generated_Source\PSoC4/CyLib.c ****     * Return:
 413:.\Generated_Source\PSoC4/CyLib.c ****     *  None
 414:.\Generated_Source\PSoC4/CyLib.c ****     *
 415:.\Generated_Source\PSoC4/CyLib.c ****     * Side Effects:
 416:.\Generated_Source\PSoC4/CyLib.c ****     *  If the SYSCLK clock frequency increases during the device operation, call
 417:.\Generated_Source\PSoC4/CyLib.c ****     *  CySysFlashSetWaitCycles() with the appropriate parameter to adjust the number
 418:.\Generated_Source\PSoC4/CyLib.c ****     *  of clock cycles the cache will wait before sampling data comes back from Flash.
 419:.\Generated_Source\PSoC4/CyLib.c ****     *  If the SYSCLK clock frequency decreases, you can call
 420:.\Generated_Source\PSoC4/CyLib.c ****     *  CySysFlashSetWaitCycles() to improve the CPU performance. See
 421:.\Generated_Source\PSoC4/CyLib.c ****     *  CySysFlashSetWaitCycles() description for more information.
 422:.\Generated_Source\PSoC4/CyLib.c ****     *
 423:.\Generated_Source\PSoC4/CyLib.c ****     *  The System Clock (SYSCLK) has maximum speed of 16 MHz, so HFCLK and SYSCLK
 424:.\Generated_Source\PSoC4/CyLib.c ****     *  dividers should be selected in a way, to not to exceed 16 MHz for the System
 425:.\Generated_Source\PSoC4/CyLib.c ****     *  clock.
 426:.\Generated_Source\PSoC4/CyLib.c ****     *
 427:.\Generated_Source\PSoC4/CyLib.c ****     *******************************************************************************/
 428:.\Generated_Source\PSoC4/CyLib.c ****     void CySysClkWriteImoFreq(uint32 freq)
 429:.\Generated_Source\PSoC4/CyLib.c ****     {
 430:.\Generated_Source\PSoC4/CyLib.c ****         uint8  interruptState;
 431:.\Generated_Source\PSoC4/CyLib.c **** 
 432:.\Generated_Source\PSoC4/CyLib.c ****         if ((freq == 24u) || (freq == 32u) || (freq == 48u))
 433:.\Generated_Source\PSoC4/CyLib.c ****         {
 434:.\Generated_Source\PSoC4/CyLib.c ****             interruptState = CyEnterCriticalSection();
 435:.\Generated_Source\PSoC4/CyLib.c **** 
 436:.\Generated_Source\PSoC4/CyLib.c ****             /* Set IMO to 24 MHz - CLK_IMO_SELECT.FREQ = 0 */
 437:.\Generated_Source\PSoC4/CyLib.c ****             CY_SYS_CLK_IMO_SELECT_REG &= ((uint32) ~CY_SYS_CLK_IMO_SELECT_FREQ_MASK);
ARM GAS  C:\DOCUME~1\Chuck\LOCALS~1\Temp\ccVSU8Ya.s 			page 13


 438:.\Generated_Source\PSoC4/CyLib.c **** 
 439:.\Generated_Source\PSoC4/CyLib.c ****             /* Apply coarse trim */
 440:.\Generated_Source\PSoC4/CyLib.c ****             CY_SYS_CLK_IMO_TRIM1_REG = (CY_SYS_CLK_IMO_TRIM1_REG & ((uint32) ~CY_SYS_CLK_IMO_TRIM1_
 441:.\Generated_Source\PSoC4/CyLib.c ****                 (CY_SFLASH_IMO_TRIM_REG(freq - CY_SYS_CLK_IMO_MIN_FREQ_MHZ) & CY_SYS_CLK_IMO_TRIM1_
 442:.\Generated_Source\PSoC4/CyLib.c **** 
 443:.\Generated_Source\PSoC4/CyLib.c ****             /* Zero out fine trim */
 444:.\Generated_Source\PSoC4/CyLib.c ****             CY_SYS_CLK_IMO_TRIM2_REG = CY_SYS_CLK_IMO_TRIM2_REG & ((uint32) ~CY_SYS_CLK_IMO_TRIM2_F
 445:.\Generated_Source\PSoC4/CyLib.c **** 
 446:.\Generated_Source\PSoC4/CyLib.c ****             /* Apply TC trim */
 447:.\Generated_Source\PSoC4/CyLib.c ****             CY_SYS_CLK_IMO_TRIM3_REG = (CY_SYS_CLK_IMO_TRIM3_REG & ((uint32) ~CY_SYS_CLK_IMO_TRIM3_
 448:.\Generated_Source\PSoC4/CyLib.c ****                 (CY_SFLASH_IMO_TCTRIM_REG(freq - CY_SYS_CLK_IMO_MIN_FREQ_MHZ) & CY_SYS_CLK_IMO_TRIM
 449:.\Generated_Source\PSoC4/CyLib.c **** 
 450:.\Generated_Source\PSoC4/CyLib.c ****             CyDelayCycles(50u);
 451:.\Generated_Source\PSoC4/CyLib.c **** 
 452:.\Generated_Source\PSoC4/CyLib.c ****             if (freq > CY_SYS_CLK_IMO_MIN_FREQ_MHZ)
 453:.\Generated_Source\PSoC4/CyLib.c ****             {
 454:.\Generated_Source\PSoC4/CyLib.c ****                 /* Select nearby intermediate frequency */
 455:.\Generated_Source\PSoC4/CyLib.c ****                 CY_SYS_CLK_IMO_SELECT_REG = (CY_SYS_CLK_IMO_SELECT_REG & ((uint32) ~CY_SYS_CLK_IMO_
 456:.\Generated_Source\PSoC4/CyLib.c ****                     (((freq - 4u - CY_SYS_CLK_IMO_MIN_FREQ_MHZ) >> 2u) & CY_SYS_CLK_IMO_SELECT_FREQ
 457:.\Generated_Source\PSoC4/CyLib.c **** 
 458:.\Generated_Source\PSoC4/CyLib.c ****                 CyDelayCycles(50u);
 459:.\Generated_Source\PSoC4/CyLib.c **** 
 460:.\Generated_Source\PSoC4/CyLib.c ****                 /* Make small step to final frequency */
 461:.\Generated_Source\PSoC4/CyLib.c ****                 /* Select nearby intermediate frequency */
 462:.\Generated_Source\PSoC4/CyLib.c ****                 CY_SYS_CLK_IMO_SELECT_REG = (CY_SYS_CLK_IMO_SELECT_REG & ((uint32) ~CY_SYS_CLK_IMO_
 463:.\Generated_Source\PSoC4/CyLib.c ****                     (((freq - CY_SYS_CLK_IMO_MIN_FREQ_MHZ) >> 2u) & CY_SYS_CLK_IMO_SELECT_FREQ_MASK
 464:.\Generated_Source\PSoC4/CyLib.c ****             }
 465:.\Generated_Source\PSoC4/CyLib.c **** 
 466:.\Generated_Source\PSoC4/CyLib.c ****             CyExitCriticalSection(interruptState);
 467:.\Generated_Source\PSoC4/CyLib.c ****         }
 468:.\Generated_Source\PSoC4/CyLib.c ****         else
 469:.\Generated_Source\PSoC4/CyLib.c ****         {
 470:.\Generated_Source\PSoC4/CyLib.c ****             /* Halt CPU in debug mode if new frequency is invalid */
 471:.\Generated_Source\PSoC4/CyLib.c ****             CYASSERT(0u != 0u);
 472:.\Generated_Source\PSoC4/CyLib.c ****         }
 473:.\Generated_Source\PSoC4/CyLib.c ****     }
 474:.\Generated_Source\PSoC4/CyLib.c **** 
 475:.\Generated_Source\PSoC4/CyLib.c **** #endif /* (CY_PSOC4A) */
 476:.\Generated_Source\PSoC4/CyLib.c **** 
 477:.\Generated_Source\PSoC4/CyLib.c **** 
 478:.\Generated_Source\PSoC4/CyLib.c **** #if(CY_PSOC4A)
 479:.\Generated_Source\PSoC4/CyLib.c **** 
 480:.\Generated_Source\PSoC4/CyLib.c ****     /*******************************************************************************
 481:.\Generated_Source\PSoC4/CyLib.c ****     * Function Name: CySysWdtLock
 482:.\Generated_Source\PSoC4/CyLib.c ****     ********************************************************************************
 483:.\Generated_Source\PSoC4/CyLib.c ****     *
 484:.\Generated_Source\PSoC4/CyLib.c ****     * Summary:
 485:.\Generated_Source\PSoC4/CyLib.c ****     *  Locks out configuration changes to the Watchdog timer registers and ILO
 486:.\Generated_Source\PSoC4/CyLib.c ****     *  config register.
 487:.\Generated_Source\PSoC4/CyLib.c ****     *
 488:.\Generated_Source\PSoC4/CyLib.c ****     * Parameters:
 489:.\Generated_Source\PSoC4/CyLib.c ****     *  None
 490:.\Generated_Source\PSoC4/CyLib.c ****     *
 491:.\Generated_Source\PSoC4/CyLib.c ****     * Return:
 492:.\Generated_Source\PSoC4/CyLib.c ****     *  None
 493:.\Generated_Source\PSoC4/CyLib.c ****     *
 494:.\Generated_Source\PSoC4/CyLib.c ****     * Side effects:
ARM GAS  C:\DOCUME~1\Chuck\LOCALS~1\Temp\ccVSU8Ya.s 			page 14


 495:.\Generated_Source\PSoC4/CyLib.c ****     *  This API enables ILO, if it was disabled.
 496:.\Generated_Source\PSoC4/CyLib.c ****     *  After this API was called, ILO clock can't be disabled until
 497:.\Generated_Source\PSoC4/CyLib.c ****     *  CySysWdtUnlock() is called.
 498:.\Generated_Source\PSoC4/CyLib.c ****     *
 499:.\Generated_Source\PSoC4/CyLib.c ****     *******************************************************************************/
 500:.\Generated_Source\PSoC4/CyLib.c ****     void CySysWdtLock(void)
 501:.\Generated_Source\PSoC4/CyLib.c ****     {
 238              		.loc 1 501 0
 239              		.cfi_startproc
 240 0000 10B5     		push	{r4, lr}
 241              		.cfi_def_cfa_offset 8
 242              		.cfi_offset 4, -8
 243              		.cfi_offset 14, -4
 502:.\Generated_Source\PSoC4/CyLib.c ****         uint8 interruptState;
 503:.\Generated_Source\PSoC4/CyLib.c ****         interruptState = CyEnterCriticalSection();
 244              		.loc 1 503 0
 245 0002 FFF7FEFF 		bl	CyEnterCriticalSection
 246              	.LVL8:
 504:.\Generated_Source\PSoC4/CyLib.c **** 
 505:.\Generated_Source\PSoC4/CyLib.c ****         /* Configuring WDT involves passing control signals between clock domains,
 506:.\Generated_Source\PSoC4/CyLib.c ****         * which requires ILO to be enabled.
 507:.\Generated_Source\PSoC4/CyLib.c ****         */
 508:.\Generated_Source\PSoC4/CyLib.c ****         if (0u == (CY_SYS_CLK_ILO_CONFIG_REG & CY_SYS_CLK_ILO_CONFIG_ENABLE))
 247              		.loc 1 508 0
 248 0006 084B     		ldr	r3, .L22
 503:.\Generated_Source\PSoC4/CyLib.c **** 
 249              		.loc 1 503 0
 250 0008 041C     		mov	r4, r0
 251              	.LVL9:
 252              		.loc 1 508 0
 253 000a 1B68     		ldr	r3, [r3]
 254 000c 002B     		cmp	r3, #0
 255 000e 01DB     		blt	.L20
 509:.\Generated_Source\PSoC4/CyLib.c ****         {
 510:.\Generated_Source\PSoC4/CyLib.c ****             CySysClkIloStart();
 256              		.loc 1 510 0
 257 0010 FFF7FEFF 		bl	CySysClkIloStart
 258              	.LVL10:
 259              	.L20:
 511:.\Generated_Source\PSoC4/CyLib.c ****         }
 512:.\Generated_Source\PSoC4/CyLib.c **** 
 513:.\Generated_Source\PSoC4/CyLib.c ****         /* CLK_SELECT register's bits 15:14 are WDT_LOCK */
 514:.\Generated_Source\PSoC4/CyLib.c ****         CY_SYS_CLK_SELECT_REG = (CY_SYS_CLK_SELECT_REG & (uint32)(~CY_SYS_WDT_CLK_LOCK_BITS_MASK)) 
 260              		.loc 1 514 0
 261 0014 C021     		mov	r1, #192
 262 0016 054A     		ldr	r2, .L22+4
 263 0018 0902     		lsl	r1, r1, #8
 264 001a 1368     		ldr	r3, [r2]
 515:.\Generated_Source\PSoC4/CyLib.c ****                  CY_SYS_WDT_CLK_LOCK_BITS_MASK;
 516:.\Generated_Source\PSoC4/CyLib.c **** 
 517:.\Generated_Source\PSoC4/CyLib.c ****         CyExitCriticalSection(interruptState);
 265              		.loc 1 517 0
 266 001c 201C     		mov	r0, r4
 514:.\Generated_Source\PSoC4/CyLib.c ****                  CY_SYS_WDT_CLK_LOCK_BITS_MASK;
 267              		.loc 1 514 0
 268 001e 0B43     		orr	r3, r1
 269 0020 1360     		str	r3, [r2]
ARM GAS  C:\DOCUME~1\Chuck\LOCALS~1\Temp\ccVSU8Ya.s 			page 15


 270              		.loc 1 517 0
 271 0022 FFF7FEFF 		bl	CyExitCriticalSection
 272              	.LVL11:
 518:.\Generated_Source\PSoC4/CyLib.c ****     }
 273              		.loc 1 518 0
 274              		@ sp needed
 275              	.LVL12:
 276 0026 10BD     		pop	{r4, pc}
 277              	.L23:
 278              		.align	2
 279              	.L22:
 280 0028 04010B40 		.word	1074462980
 281 002c 00010B40 		.word	1074462976
 282              		.cfi_endproc
 283              	.LFE7:
 284              		.size	CySysWdtLock, .-CySysWdtLock
 285              		.section	.text.CySysWdtUnlock,"ax",%progbits
 286              		.align	1
 287              		.global	CySysWdtUnlock
 288              		.code	16
 289              		.thumb_func
 290              		.type	CySysWdtUnlock, %function
 291              	CySysWdtUnlock:
 292              	.LFB8:
 519:.\Generated_Source\PSoC4/CyLib.c **** 
 520:.\Generated_Source\PSoC4/CyLib.c **** 
 521:.\Generated_Source\PSoC4/CyLib.c ****     /*******************************************************************************
 522:.\Generated_Source\PSoC4/CyLib.c ****     * Function Name: CySysWdtUnlock
 523:.\Generated_Source\PSoC4/CyLib.c ****     ********************************************************************************
 524:.\Generated_Source\PSoC4/CyLib.c ****     *
 525:.\Generated_Source\PSoC4/CyLib.c ****     * Summary:
 526:.\Generated_Source\PSoC4/CyLib.c ****     *  Unlocks the Watchdog Timer configuration register.
 527:.\Generated_Source\PSoC4/CyLib.c ****     *
 528:.\Generated_Source\PSoC4/CyLib.c ****     * Parameters:
 529:.\Generated_Source\PSoC4/CyLib.c ****     *  None
 530:.\Generated_Source\PSoC4/CyLib.c ****     *
 531:.\Generated_Source\PSoC4/CyLib.c ****     * Return:
 532:.\Generated_Source\PSoC4/CyLib.c ****     *  None
 533:.\Generated_Source\PSoC4/CyLib.c ****     *
 534:.\Generated_Source\PSoC4/CyLib.c ****     * Side effects:
 535:.\Generated_Source\PSoC4/CyLib.c ****     *  This API enables ILO, if it was disabled.
 536:.\Generated_Source\PSoC4/CyLib.c ****     *
 537:.\Generated_Source\PSoC4/CyLib.c ****     *******************************************************************************/
 538:.\Generated_Source\PSoC4/CyLib.c ****     void CySysWdtUnlock(void)
 539:.\Generated_Source\PSoC4/CyLib.c ****     {
 293              		.loc 1 539 0
 294              		.cfi_startproc
 295 0000 10B5     		push	{r4, lr}
 296              		.cfi_def_cfa_offset 8
 297              		.cfi_offset 4, -8
 298              		.cfi_offset 14, -4
 540:.\Generated_Source\PSoC4/CyLib.c ****         uint8 interruptState;
 541:.\Generated_Source\PSoC4/CyLib.c ****         interruptState = CyEnterCriticalSection();
 299              		.loc 1 541 0
 300 0002 FFF7FEFF 		bl	CyEnterCriticalSection
 301              	.LVL13:
 542:.\Generated_Source\PSoC4/CyLib.c **** 
ARM GAS  C:\DOCUME~1\Chuck\LOCALS~1\Temp\ccVSU8Ya.s 			page 16


 543:.\Generated_Source\PSoC4/CyLib.c ****         /* Configuring WDT involves passing control signals between clock domains,
 544:.\Generated_Source\PSoC4/CyLib.c ****         * which requires ILO to be enabled.
 545:.\Generated_Source\PSoC4/CyLib.c ****         */
 546:.\Generated_Source\PSoC4/CyLib.c ****         if (0u == (CY_SYS_CLK_ILO_CONFIG_REG & CY_SYS_CLK_ILO_CONFIG_ENABLE))
 302              		.loc 1 546 0
 303 0006 0C4B     		ldr	r3, .L26
 541:.\Generated_Source\PSoC4/CyLib.c **** 
 304              		.loc 1 541 0
 305 0008 041C     		mov	r4, r0
 306              	.LVL14:
 307              		.loc 1 546 0
 308 000a 1B68     		ldr	r3, [r3]
 309 000c 002B     		cmp	r3, #0
 310 000e 01DB     		blt	.L25
 547:.\Generated_Source\PSoC4/CyLib.c ****         {
 548:.\Generated_Source\PSoC4/CyLib.c ****             CySysClkIloStart();
 311              		.loc 1 548 0
 312 0010 FFF7FEFF 		bl	CySysClkIloStart
 313              	.LVL15:
 314              	.L25:
 549:.\Generated_Source\PSoC4/CyLib.c ****         }
 550:.\Generated_Source\PSoC4/CyLib.c **** 
 551:.\Generated_Source\PSoC4/CyLib.c ****         /* Removing WDT lock requires two writes */
 552:.\Generated_Source\PSoC4/CyLib.c ****         CY_SYS_CLK_SELECT_REG = ((CY_SYS_CLK_SELECT_REG & (uint32)(~CY_SYS_WDT_CLK_LOCK_BITS_MASK))
 315              		.loc 1 552 0
 316 0014 8020     		mov	r0, #128
 317 0016 0949     		ldr	r1, .L26+4
 318 0018 094B     		ldr	r3, .L26+8
 319 001a 0A68     		ldr	r2, [r1]
 320 001c C001     		lsl	r0, r0, #7
 321 001e 1A40     		and	r2, r3
 322 0020 0243     		orr	r2, r0
 323 0022 0A60     		str	r2, [r1]
 553:.\Generated_Source\PSoC4/CyLib.c ****                 CY_SYS_WDT_CLK_LOCK_BIT0);
 554:.\Generated_Source\PSoC4/CyLib.c **** 
 555:.\Generated_Source\PSoC4/CyLib.c ****         CY_SYS_CLK_SELECT_REG = ((CY_SYS_CLK_SELECT_REG & (uint32)(~CY_SYS_WDT_CLK_LOCK_BITS_MASK))
 324              		.loc 1 555 0
 325 0024 0A68     		ldr	r2, [r1]
 556:.\Generated_Source\PSoC4/CyLib.c ****                 CY_SYS_WDT_CLK_LOCK_BIT1);
 557:.\Generated_Source\PSoC4/CyLib.c **** 
 558:.\Generated_Source\PSoC4/CyLib.c ****         CyExitCriticalSection(interruptState);
 326              		.loc 1 558 0
 327 0026 201C     		mov	r0, r4
 555:.\Generated_Source\PSoC4/CyLib.c ****                 CY_SYS_WDT_CLK_LOCK_BIT1);
 328              		.loc 1 555 0
 329 0028 1340     		and	r3, r2
 330 002a 8022     		mov	r2, #128
 331 002c 1202     		lsl	r2, r2, #8
 332 002e 1343     		orr	r3, r2
 333 0030 0B60     		str	r3, [r1]
 334              		.loc 1 558 0
 335 0032 FFF7FEFF 		bl	CyExitCriticalSection
 336              	.LVL16:
 559:.\Generated_Source\PSoC4/CyLib.c ****     }
 337              		.loc 1 559 0
 338              		@ sp needed
 339              	.LVL17:
ARM GAS  C:\DOCUME~1\Chuck\LOCALS~1\Temp\ccVSU8Ya.s 			page 17


 340 0036 10BD     		pop	{r4, pc}
 341              	.L27:
 342              		.align	2
 343              	.L26:
 344 0038 04010B40 		.word	1074462980
 345 003c 00010B40 		.word	1074462976
 346 0040 FF3FFFFF 		.word	-49153
 347              		.cfi_endproc
 348              	.LFE8:
 349              		.size	CySysWdtUnlock, .-CySysWdtUnlock
 350              		.section	.text.CySysWdtReadEnabledStatus,"ax",%progbits
 351              		.align	1
 352              		.global	CySysWdtReadEnabledStatus
 353              		.code	16
 354              		.thumb_func
 355              		.type	CySysWdtReadEnabledStatus, %function
 356              	CySysWdtReadEnabledStatus:
 357              	.LFB9:
 560:.\Generated_Source\PSoC4/CyLib.c **** 
 561:.\Generated_Source\PSoC4/CyLib.c **** 
 562:.\Generated_Source\PSoC4/CyLib.c ****     /*******************************************************************************
 563:.\Generated_Source\PSoC4/CyLib.c ****     * Function Name: CySysWdtReadEnabledStatus
 564:.\Generated_Source\PSoC4/CyLib.c ****     ********************************************************************************
 565:.\Generated_Source\PSoC4/CyLib.c ****     *
 566:.\Generated_Source\PSoC4/CyLib.c ****     * Summary:
 567:.\Generated_Source\PSoC4/CyLib.c ****     *  Reads the enabled status of one of the three WDT counters.
 568:.\Generated_Source\PSoC4/CyLib.c ****     *
 569:.\Generated_Source\PSoC4/CyLib.c ****     * Parameters:
 570:.\Generated_Source\PSoC4/CyLib.c ****     *  counterNum: Valid range [0-2].  Number of the WDT counter.
 571:.\Generated_Source\PSoC4/CyLib.c ****     *
 572:.\Generated_Source\PSoC4/CyLib.c ****     * Return:
 573:.\Generated_Source\PSoC4/CyLib.c ****     *  Status of WDT counter:
 574:.\Generated_Source\PSoC4/CyLib.c ****     *   0 - counter is disabled
 575:.\Generated_Source\PSoC4/CyLib.c ****     *   1 - counter is enabled
 576:.\Generated_Source\PSoC4/CyLib.c ****     *
 577:.\Generated_Source\PSoC4/CyLib.c ****     * Side Effects:
 578:.\Generated_Source\PSoC4/CyLib.c ****     *  This API returns the actual WDT counter status from the status register.
 579:.\Generated_Source\PSoC4/CyLib.c ****     *  It may take up to 3 LFCLK cycles since the WDT counter was enabled for the WDT status
 580:.\Generated_Source\PSoC4/CyLib.c ****     *  register to contain actual data.
 581:.\Generated_Source\PSoC4/CyLib.c ****     *
 582:.\Generated_Source\PSoC4/CyLib.c ****     *******************************************************************************/
 583:.\Generated_Source\PSoC4/CyLib.c ****     uint32 CySysWdtReadEnabledStatus(uint32 counterNum)
 584:.\Generated_Source\PSoC4/CyLib.c ****     {
 358              		.loc 1 584 0
 359              		.cfi_startproc
 360              	.LVL18:
 585:.\Generated_Source\PSoC4/CyLib.c ****         CYASSERT(counterNum < CY_SYS_WDT_COUNTERS_MAX);
 361              		.loc 1 585 0
 362 0000 0228     		cmp	r0, #2
 363 0002 00D9     		bls	.L29
 364              	.LVL19:
 365              	.LBB34:
 366              	.LBB35:
 586:.\Generated_Source\PSoC4/CyLib.c ****         return ((CY_SYS_WDT_CONTROL_REG >> ((CY_SYS_WDT_CNT_SHIFT * counterNum) + CY_SYS_WDT_CNT_ST
 587:.\Generated_Source\PSoC4/CyLib.c ****     }
 588:.\Generated_Source\PSoC4/CyLib.c **** 
 589:.\Generated_Source\PSoC4/CyLib.c **** 
ARM GAS  C:\DOCUME~1\Chuck\LOCALS~1\Temp\ccVSU8Ya.s 			page 18


 590:.\Generated_Source\PSoC4/CyLib.c ****     /*******************************************************************************
 591:.\Generated_Source\PSoC4/CyLib.c ****     * Function Name: CySysWdtWriteMode
 592:.\Generated_Source\PSoC4/CyLib.c ****     ********************************************************************************
 593:.\Generated_Source\PSoC4/CyLib.c ****     *
 594:.\Generated_Source\PSoC4/CyLib.c ****     * Summary:
 595:.\Generated_Source\PSoC4/CyLib.c ****     *   Writes the mode of one of the three WDT counters.
 596:.\Generated_Source\PSoC4/CyLib.c ****     *
 597:.\Generated_Source\PSoC4/CyLib.c ****     * Parameters:
 598:.\Generated_Source\PSoC4/CyLib.c ****     *   counterNum: Valid range [0-2].  Number of the WDT counter.
 599:.\Generated_Source\PSoC4/CyLib.c ****     *   mode:       Mode of operation for the counter
 600:.\Generated_Source\PSoC4/CyLib.c ****     *       Define                   Mode
 601:.\Generated_Source\PSoC4/CyLib.c ****     *    CY_SYS_WDT_MODE_NONE       Free running
 602:.\Generated_Source\PSoC4/CyLib.c ****     *    CY_SYS_WDT_MODE_INT        Interrupt generated on match for counter 0
 603:.\Generated_Source\PSoC4/CyLib.c ****     *                               and 1, and on bit toggle for counter 2.
 604:.\Generated_Source\PSoC4/CyLib.c ****     *    CY_SYS_WDT_MODE_RESET      Reset on match (valid for counter 0 and 1
 605:.\Generated_Source\PSoC4/CyLib.c ****     *                               only)
 606:.\Generated_Source\PSoC4/CyLib.c ****     *    CY_SYS_WDT_MODE_INT_RESET  Generate an interrupt.  Generate a reset on
 607:.\Generated_Source\PSoC4/CyLib.c ****     *                                    the 3rd unhandled interrupt.
 608:.\Generated_Source\PSoC4/CyLib.c ****     *                                    (valid for counter 0 and 1 only)
 609:.\Generated_Source\PSoC4/CyLib.c ****     * Return:
 610:.\Generated_Source\PSoC4/CyLib.c ****     *   None
 611:.\Generated_Source\PSoC4/CyLib.c ****     *
 612:.\Generated_Source\PSoC4/CyLib.c ****     * Side Effects:
 613:.\Generated_Source\PSoC4/CyLib.c ****     *   The WDT counter counterNum should be disabled to the set mode. Otherwise
 614:.\Generated_Source\PSoC4/CyLib.c ****     *   the function call will have no effect.
 615:.\Generated_Source\PSoC4/CyLib.c ****     *   This API enables the ILO, if it was disabled.
 616:.\Generated_Source\PSoC4/CyLib.c ****     *
 617:.\Generated_Source\PSoC4/CyLib.c ****     *******************************************************************************/
 618:.\Generated_Source\PSoC4/CyLib.c ****     void CySysWdtWriteMode(uint32 counterNum, uint32 mode)
 619:.\Generated_Source\PSoC4/CyLib.c ****     {
 620:.\Generated_Source\PSoC4/CyLib.c ****         uint32 configRegValue;
 621:.\Generated_Source\PSoC4/CyLib.c **** 
 622:.\Generated_Source\PSoC4/CyLib.c ****         CYASSERT(counterNum < CY_SYS_WDT_COUNTERS_MAX);
 623:.\Generated_Source\PSoC4/CyLib.c **** 
 624:.\Generated_Source\PSoC4/CyLib.c ****         /* Configuring WDT involves passing control signals between clock domains,
 625:.\Generated_Source\PSoC4/CyLib.c ****         * which requires ILO to be enabled.
 626:.\Generated_Source\PSoC4/CyLib.c ****         */
 627:.\Generated_Source\PSoC4/CyLib.c ****         if (0u == (CY_SYS_CLK_ILO_CONFIG_REG & CY_SYS_CLK_ILO_CONFIG_ENABLE))
 628:.\Generated_Source\PSoC4/CyLib.c ****         {
 629:.\Generated_Source\PSoC4/CyLib.c ****             CySysClkIloStart();
 630:.\Generated_Source\PSoC4/CyLib.c ****         }
 631:.\Generated_Source\PSoC4/CyLib.c **** 
 632:.\Generated_Source\PSoC4/CyLib.c ****         if(0u == CySysWdtReadEnabledStatus(counterNum))
 633:.\Generated_Source\PSoC4/CyLib.c ****         {
 634:.\Generated_Source\PSoC4/CyLib.c ****             configRegValue = CY_SYS_WDT_CONFIG_REG &
 635:.\Generated_Source\PSoC4/CyLib.c ****                                 (uint32)~((uint32)(CY_SYS_WDT_MODE_MASK << (counterNum * CY_SYS_WDT
 636:.\Generated_Source\PSoC4/CyLib.c ****             configRegValue |= (uint32)((mode & CY_SYS_WDT_MODE_MASK) << (counterNum * CY_SYS_WDT_CN
 637:.\Generated_Source\PSoC4/CyLib.c ****             CY_SYS_WDT_CONFIG_REG = configRegValue;
 638:.\Generated_Source\PSoC4/CyLib.c ****         }
 639:.\Generated_Source\PSoC4/CyLib.c ****     }
 640:.\Generated_Source\PSoC4/CyLib.c **** 
 641:.\Generated_Source\PSoC4/CyLib.c **** 
 642:.\Generated_Source\PSoC4/CyLib.c ****     /*******************************************************************************
 643:.\Generated_Source\PSoC4/CyLib.c ****     * Function Name: CySysWdtReadMode
 644:.\Generated_Source\PSoC4/CyLib.c ****     ********************************************************************************
 645:.\Generated_Source\PSoC4/CyLib.c ****     *
 646:.\Generated_Source\PSoC4/CyLib.c ****     * Summary:
ARM GAS  C:\DOCUME~1\Chuck\LOCALS~1\Temp\ccVSU8Ya.s 			page 19


 647:.\Generated_Source\PSoC4/CyLib.c ****     *  Reads the mode of one of the three WDT counters.
 648:.\Generated_Source\PSoC4/CyLib.c ****     *
 649:.\Generated_Source\PSoC4/CyLib.c ****     * Parameters:
 650:.\Generated_Source\PSoC4/CyLib.c ****     *  counterNum: Valid range [0-2].  Number of the WDT counter.
 651:.\Generated_Source\PSoC4/CyLib.c ****     *
 652:.\Generated_Source\PSoC4/CyLib.c ****     * Return:
 653:.\Generated_Source\PSoC4/CyLib.c ****     *  Mode of the counter.  Same enumerated values as mode parameter used in
 654:.\Generated_Source\PSoC4/CyLib.c ****     *  CySysWdtWriteMode().
 655:.\Generated_Source\PSoC4/CyLib.c ****     *
 656:.\Generated_Source\PSoC4/CyLib.c ****     *******************************************************************************/
 657:.\Generated_Source\PSoC4/CyLib.c ****     uint32 CySysWdtReadMode(uint32 counterNum)
 658:.\Generated_Source\PSoC4/CyLib.c ****     {
 659:.\Generated_Source\PSoC4/CyLib.c ****         return ((CY_SYS_WDT_CONFIG_REG >> (counterNum * CY_SYS_WDT_CNT_SHIFT)) & CY_SYS_WDT_MODE_MA
 660:.\Generated_Source\PSoC4/CyLib.c ****     }
 661:.\Generated_Source\PSoC4/CyLib.c **** 
 662:.\Generated_Source\PSoC4/CyLib.c **** 
 663:.\Generated_Source\PSoC4/CyLib.c ****     /*******************************************************************************
 664:.\Generated_Source\PSoC4/CyLib.c ****     * Function Name: CySysWdtWriteClearOnMatch
 665:.\Generated_Source\PSoC4/CyLib.c ****     ********************************************************************************
 666:.\Generated_Source\PSoC4/CyLib.c ****     *
 667:.\Generated_Source\PSoC4/CyLib.c ****     * Summary:
 668:.\Generated_Source\PSoC4/CyLib.c ****     *  Configures the WDT counter clear on a match setting.  If configured to clear
 669:.\Generated_Source\PSoC4/CyLib.c ****     *  on match, the counter will count from 0 to the MatchValue giving it a
 670:.\Generated_Source\PSoC4/CyLib.c ****     *  period of (MatchValue + 1).
 671:.\Generated_Source\PSoC4/CyLib.c ****     *
 672:.\Generated_Source\PSoC4/CyLib.c ****     * Parameters:
 673:.\Generated_Source\PSoC4/CyLib.c ****     *  counterNum:
 674:.\Generated_Source\PSoC4/CyLib.c ****     *   Valid range [0-1].  Number of the WDT counter.  Match values are not
 675:.\Generated_Source\PSoC4/CyLib.c ****     *   supported by counter 2.
 676:.\Generated_Source\PSoC4/CyLib.c ****     *
 677:.\Generated_Source\PSoC4/CyLib.c ****     * enable:
 678:.\Generated_Source\PSoC4/CyLib.c ****     *   0 to disable, 1 to enable
 679:.\Generated_Source\PSoC4/CyLib.c ****     *
 680:.\Generated_Source\PSoC4/CyLib.c ****     * Return:
 681:.\Generated_Source\PSoC4/CyLib.c ****     *   None
 682:.\Generated_Source\PSoC4/CyLib.c ****     *
 683:.\Generated_Source\PSoC4/CyLib.c ****     * Side Effects:
 684:.\Generated_Source\PSoC4/CyLib.c ****     *   The WDT counter counterNum should be disabled. Otherwise the function
 685:.\Generated_Source\PSoC4/CyLib.c ****     *   call will have no effect.
 686:.\Generated_Source\PSoC4/CyLib.c ****     *   This API enables the ILO, if it was disabled.
 687:.\Generated_Source\PSoC4/CyLib.c ****     *
 688:.\Generated_Source\PSoC4/CyLib.c ****     *
 689:.\Generated_Source\PSoC4/CyLib.c ****     *******************************************************************************/
 690:.\Generated_Source\PSoC4/CyLib.c ****     void CySysWdtWriteClearOnMatch(uint32 counterNum, uint32 enable)
 691:.\Generated_Source\PSoC4/CyLib.c ****     {
 692:.\Generated_Source\PSoC4/CyLib.c ****         CYASSERT((counterNum == CY_SYS_WDT_COUNTER0) ||
 693:.\Generated_Source\PSoC4/CyLib.c ****                                              (counterNum == CY_SYS_WDT_COUNTER1));
 694:.\Generated_Source\PSoC4/CyLib.c **** 
 695:.\Generated_Source\PSoC4/CyLib.c ****         /* Configuring WDT involves passing control signals between clock domains,
 696:.\Generated_Source\PSoC4/CyLib.c ****         * which requires ILO to be enabled.
 697:.\Generated_Source\PSoC4/CyLib.c ****         */
 698:.\Generated_Source\PSoC4/CyLib.c ****         if (0u == (CY_SYS_CLK_ILO_CONFIG_REG & CY_SYS_CLK_ILO_CONFIG_ENABLE))
 699:.\Generated_Source\PSoC4/CyLib.c ****         {
 700:.\Generated_Source\PSoC4/CyLib.c ****             CySysClkIloStart();
 701:.\Generated_Source\PSoC4/CyLib.c ****         }
 702:.\Generated_Source\PSoC4/CyLib.c **** 
 703:.\Generated_Source\PSoC4/CyLib.c ****         if(0u == CySysWdtReadEnabledStatus(counterNum))
ARM GAS  C:\DOCUME~1\Chuck\LOCALS~1\Temp\ccVSU8Ya.s 			page 20


 704:.\Generated_Source\PSoC4/CyLib.c ****         {
 705:.\Generated_Source\PSoC4/CyLib.c ****             CY_SYS_WDT_CONFIG_REG |= (uint32)(enable << ((counterNum * CY_SYS_WDT_CNT_SHIFT) +
 706:.\Generated_Source\PSoC4/CyLib.c ****                                                             CY_SYS_WDT_CNT_MATCH_CLR_SHIFT));
 707:.\Generated_Source\PSoC4/CyLib.c ****         }
 708:.\Generated_Source\PSoC4/CyLib.c ****     }
 709:.\Generated_Source\PSoC4/CyLib.c **** 
 710:.\Generated_Source\PSoC4/CyLib.c **** 
 711:.\Generated_Source\PSoC4/CyLib.c ****     /*******************************************************************************
 712:.\Generated_Source\PSoC4/CyLib.c ****     * Function Name: CySysWdtReadClearOnMatch
 713:.\Generated_Source\PSoC4/CyLib.c ****     ********************************************************************************
 714:.\Generated_Source\PSoC4/CyLib.c ****     *
 715:.\Generated_Source\PSoC4/CyLib.c ****     * Summary:
 716:.\Generated_Source\PSoC4/CyLib.c ****     *  Reads the clear on match setting for the specified counter.
 717:.\Generated_Source\PSoC4/CyLib.c ****     *
 718:.\Generated_Source\PSoC4/CyLib.c ****     * Parameters:
 719:.\Generated_Source\PSoC4/CyLib.c ****     *   counterNum: Valid range [0-1].  Number of the WDT counter.  Match values are
 720:.\Generated_Source\PSoC4/CyLib.c ****     *               not supported by counter 2.
 721:.\Generated_Source\PSoC4/CyLib.c ****     *
 722:.\Generated_Source\PSoC4/CyLib.c ****     * Return:
 723:.\Generated_Source\PSoC4/CyLib.c ****     *   Clear on Match status: 1 if enabled, 0 if disabled
 724:.\Generated_Source\PSoC4/CyLib.c ****     *
 725:.\Generated_Source\PSoC4/CyLib.c ****     *******************************************************************************/
 726:.\Generated_Source\PSoC4/CyLib.c ****     uint32 CySysWdtReadClearOnMatch(uint32 counterNum)
 727:.\Generated_Source\PSoC4/CyLib.c ****     {
 728:.\Generated_Source\PSoC4/CyLib.c ****         CYASSERT((counterNum == CY_SYS_WDT_COUNTER0) ||
 729:.\Generated_Source\PSoC4/CyLib.c ****                                              (counterNum == CY_SYS_WDT_COUNTER1));
 730:.\Generated_Source\PSoC4/CyLib.c **** 
 731:.\Generated_Source\PSoC4/CyLib.c ****         return (uint32)((CY_SYS_WDT_CONFIG_REG >>
 732:.\Generated_Source\PSoC4/CyLib.c ****                             ((counterNum * CY_SYS_WDT_CNT_SHIFT) + CY_SYS_WDT_CNT_MATCH_CLR_SHIFT))
 733:.\Generated_Source\PSoC4/CyLib.c ****     }
 734:.\Generated_Source\PSoC4/CyLib.c **** 
 735:.\Generated_Source\PSoC4/CyLib.c **** 
 736:.\Generated_Source\PSoC4/CyLib.c ****     /*******************************************************************************
 737:.\Generated_Source\PSoC4/CyLib.c ****     * Function Name: CySysWdtEnable
 738:.\Generated_Source\PSoC4/CyLib.c ****     ********************************************************************************
 739:.\Generated_Source\PSoC4/CyLib.c ****     *
 740:.\Generated_Source\PSoC4/CyLib.c ****     * Summary:
 741:.\Generated_Source\PSoC4/CyLib.c ****     *  Enables the specified WDT counters.  All the counters specified in the mask are
 742:.\Generated_Source\PSoC4/CyLib.c ****     *  enabled.
 743:.\Generated_Source\PSoC4/CyLib.c ****     *
 744:.\Generated_Source\PSoC4/CyLib.c ****     * Parameters:
 745:.\Generated_Source\PSoC4/CyLib.c ****     *  counterMask: Mask of all counters to enable
 746:.\Generated_Source\PSoC4/CyLib.c ****     *       Define                       Counter
 747:.\Generated_Source\PSoC4/CyLib.c ****     *      CY_SYS_WDT_COUNTER0_MASK      0
 748:.\Generated_Source\PSoC4/CyLib.c ****     *      CY_SYS_WDT_COUNTER1_MASK      1
 749:.\Generated_Source\PSoC4/CyLib.c ****     *      CY_SYS_WDT_COUNTER2_MASK      2
 750:.\Generated_Source\PSoC4/CyLib.c ****     *
 751:.\Generated_Source\PSoC4/CyLib.c ****     * Return:
 752:.\Generated_Source\PSoC4/CyLib.c ****     *  None
 753:.\Generated_Source\PSoC4/CyLib.c ****     *
 754:.\Generated_Source\PSoC4/CyLib.c ****     * Side Effects:
 755:.\Generated_Source\PSoC4/CyLib.c ****     *  Enabling or disabling the WDT requires 3 LF Clock cycles to come into effect.
 756:.\Generated_Source\PSoC4/CyLib.c ****     *  This API enables the ILO, if it was disabled.
 757:.\Generated_Source\PSoC4/CyLib.c ****     *
 758:.\Generated_Source\PSoC4/CyLib.c ****     *******************************************************************************/
 759:.\Generated_Source\PSoC4/CyLib.c ****     void CySysWdtEnable(uint32 counterMask)
 760:.\Generated_Source\PSoC4/CyLib.c ****     {
ARM GAS  C:\DOCUME~1\Chuck\LOCALS~1\Temp\ccVSU8Ya.s 			page 21


 761:.\Generated_Source\PSoC4/CyLib.c ****         /* Configuring WDT involves passing control signals between clock domains,
 762:.\Generated_Source\PSoC4/CyLib.c ****         * which requires ILO to be enabled.
 763:.\Generated_Source\PSoC4/CyLib.c ****         */
 764:.\Generated_Source\PSoC4/CyLib.c ****         if (0u == (CY_SYS_CLK_ILO_CONFIG_REG & CY_SYS_CLK_ILO_CONFIG_ENABLE))
 765:.\Generated_Source\PSoC4/CyLib.c ****         {
 766:.\Generated_Source\PSoC4/CyLib.c ****             CySysClkIloStart();
 767:.\Generated_Source\PSoC4/CyLib.c ****         }
 768:.\Generated_Source\PSoC4/CyLib.c **** 
 769:.\Generated_Source\PSoC4/CyLib.c ****         CY_SYS_WDT_CONTROL_REG |= counterMask;
 770:.\Generated_Source\PSoC4/CyLib.c ****     }
 771:.\Generated_Source\PSoC4/CyLib.c **** 
 772:.\Generated_Source\PSoC4/CyLib.c **** 
 773:.\Generated_Source\PSoC4/CyLib.c ****     /*******************************************************************************
 774:.\Generated_Source\PSoC4/CyLib.c ****     * Function Name: CySysWdtDisable
 775:.\Generated_Source\PSoC4/CyLib.c ****     ********************************************************************************
 776:.\Generated_Source\PSoC4/CyLib.c ****     *
 777:.\Generated_Source\PSoC4/CyLib.c ****     * Summary:
 778:.\Generated_Source\PSoC4/CyLib.c ****     *  Disables the specified WDT counters.  All the counters specified in the mask are
 779:.\Generated_Source\PSoC4/CyLib.c ****     *  disabled.
 780:.\Generated_Source\PSoC4/CyLib.c ****     *
 781:.\Generated_Source\PSoC4/CyLib.c ****     * Parameters:
 782:.\Generated_Source\PSoC4/CyLib.c ****     *  uint32 counterMask: Mask of all counters to disable
 783:.\Generated_Source\PSoC4/CyLib.c ****     *    Define                       Counter
 784:.\Generated_Source\PSoC4/CyLib.c ****     *   CY_SYS_WDT_COUNTER0_MASK      0
 785:.\Generated_Source\PSoC4/CyLib.c ****     *   CY_SYS_WDT_COUNTER1_MASK      1
 786:.\Generated_Source\PSoC4/CyLib.c ****     *   CY_SYS_WDT_COUNTER2_MASK      2
 787:.\Generated_Source\PSoC4/CyLib.c ****     *
 788:.\Generated_Source\PSoC4/CyLib.c ****     * Return:
 789:.\Generated_Source\PSoC4/CyLib.c ****     *   None
 790:.\Generated_Source\PSoC4/CyLib.c ****     *
 791:.\Generated_Source\PSoC4/CyLib.c ****     * Side Effects:
 792:.\Generated_Source\PSoC4/CyLib.c ****     *  Enabling or disabling the  WDT requires 3 LF Clock cycles to come into effect.
 793:.\Generated_Source\PSoC4/CyLib.c ****     *  This API enables the ILO, if it was disabled.
 794:.\Generated_Source\PSoC4/CyLib.c ****     *
 795:.\Generated_Source\PSoC4/CyLib.c ****     *******************************************************************************/
 796:.\Generated_Source\PSoC4/CyLib.c ****     void CySysWdtDisable(uint32 counterMask)
 797:.\Generated_Source\PSoC4/CyLib.c ****     {
 798:.\Generated_Source\PSoC4/CyLib.c ****         /* Configuring WDT involves passing control signals between clock domains,
 799:.\Generated_Source\PSoC4/CyLib.c ****         * which requires ILO to be enabled.
 800:.\Generated_Source\PSoC4/CyLib.c ****         */
 801:.\Generated_Source\PSoC4/CyLib.c ****         if (0u == (CY_SYS_CLK_ILO_CONFIG_REG & CY_SYS_CLK_ILO_CONFIG_ENABLE))
 802:.\Generated_Source\PSoC4/CyLib.c ****         {
 803:.\Generated_Source\PSoC4/CyLib.c ****             CySysClkIloStart();
 804:.\Generated_Source\PSoC4/CyLib.c ****         }
 805:.\Generated_Source\PSoC4/CyLib.c **** 
 806:.\Generated_Source\PSoC4/CyLib.c ****         CY_SYS_WDT_CONTROL_REG &= ~counterMask;
 807:.\Generated_Source\PSoC4/CyLib.c ****     }
 808:.\Generated_Source\PSoC4/CyLib.c **** 
 809:.\Generated_Source\PSoC4/CyLib.c **** 
 810:.\Generated_Source\PSoC4/CyLib.c ****     /*******************************************************************************
 811:.\Generated_Source\PSoC4/CyLib.c ****     * Function Name: CySysWdtWriteCascade
 812:.\Generated_Source\PSoC4/CyLib.c ****     ********************************************************************************
 813:.\Generated_Source\PSoC4/CyLib.c ****     *
 814:.\Generated_Source\PSoC4/CyLib.c ****     * Summary:
 815:.\Generated_Source\PSoC4/CyLib.c ****     *   Writes the two WDT cascade values based on the combination of mask values
 816:.\Generated_Source\PSoC4/CyLib.c ****     *   specified.
 817:.\Generated_Source\PSoC4/CyLib.c ****     *
ARM GAS  C:\DOCUME~1\Chuck\LOCALS~1\Temp\ccVSU8Ya.s 			page 22


 818:.\Generated_Source\PSoC4/CyLib.c ****     * Parameters:
 819:.\Generated_Source\PSoC4/CyLib.c ****     *   cascadeMask: Mask value used to set or clear the cascade values.
 820:.\Generated_Source\PSoC4/CyLib.c ****     *   Define                     Cascade
 821:.\Generated_Source\PSoC4/CyLib.c ****     *   CY_SYS_WDT_CASCADE_NONE    Neither
 822:.\Generated_Source\PSoC4/CyLib.c ****     *   CY_SYS_WDT_CASCADE_01      Cascade 01
 823:.\Generated_Source\PSoC4/CyLib.c ****     *   CY_SYS_WDT_CASCADE_12      Cascade 12
 824:.\Generated_Source\PSoC4/CyLib.c ****     *
 825:.\Generated_Source\PSoC4/CyLib.c ****     * Return:
 826:.\Generated_Source\PSoC4/CyLib.c ****     *   None
 827:.\Generated_Source\PSoC4/CyLib.c ****     *
 828:.\Generated_Source\PSoC4/CyLib.c ****     * Side effects:
 829:.\Generated_Source\PSoC4/CyLib.c ****     *   If only one cascade mask is specified, the second cascade is disabled.
 830:.\Generated_Source\PSoC4/CyLib.c ****     *   To set both cascade modes two defines should be ORed:
 831:.\Generated_Source\PSoC4/CyLib.c ****     *    (CY_SYS_WDT_CASCADE_01 | CY_SYS_WDT_CASCADE_12)
 832:.\Generated_Source\PSoC4/CyLib.c ****     *   This API enables ILO, if it was disabled.
 833:.\Generated_Source\PSoC4/CyLib.c ****     *
 834:.\Generated_Source\PSoC4/CyLib.c ****     *******************************************************************************/
 835:.\Generated_Source\PSoC4/CyLib.c ****     void CySysWdtWriteCascade(uint32 cascadeMask)
 836:.\Generated_Source\PSoC4/CyLib.c ****     {
 837:.\Generated_Source\PSoC4/CyLib.c ****         uint32 configRegValue;
 838:.\Generated_Source\PSoC4/CyLib.c ****         uint32 countersEnableStatus;
 839:.\Generated_Source\PSoC4/CyLib.c **** 
 840:.\Generated_Source\PSoC4/CyLib.c ****         countersEnableStatus = CySysWdtReadEnabledStatus(CY_SYS_WDT_COUNTER0) |
 841:.\Generated_Source\PSoC4/CyLib.c ****                             CySysWdtReadEnabledStatus(CY_SYS_WDT_COUNTER1) |
 842:.\Generated_Source\PSoC4/CyLib.c ****                             CySysWdtReadEnabledStatus(CY_SYS_WDT_COUNTER2);
 843:.\Generated_Source\PSoC4/CyLib.c **** 
 844:.\Generated_Source\PSoC4/CyLib.c ****         if (0u == countersEnableStatus)
 845:.\Generated_Source\PSoC4/CyLib.c ****         {
 846:.\Generated_Source\PSoC4/CyLib.c ****             /* Configuring WDT involves passing control signals between clock domains,
 847:.\Generated_Source\PSoC4/CyLib.c ****             * which requires ILO to be enabled.
 848:.\Generated_Source\PSoC4/CyLib.c ****             */
 849:.\Generated_Source\PSoC4/CyLib.c ****             if (0u == (CY_SYS_CLK_ILO_CONFIG_REG & CY_SYS_CLK_ILO_CONFIG_ENABLE))
 850:.\Generated_Source\PSoC4/CyLib.c ****             {
 851:.\Generated_Source\PSoC4/CyLib.c ****                 CySysClkIloStart();
 852:.\Generated_Source\PSoC4/CyLib.c ****             }
 853:.\Generated_Source\PSoC4/CyLib.c **** 
 854:.\Generated_Source\PSoC4/CyLib.c ****             configRegValue = CY_SYS_WDT_CONFIG_REG;
 855:.\Generated_Source\PSoC4/CyLib.c ****             configRegValue &= ((uint32)(~(CY_SYS_WDT_CASCADE_01|CY_SYS_WDT_CASCADE_12)));
 856:.\Generated_Source\PSoC4/CyLib.c ****             configRegValue |= cascadeMask;
 857:.\Generated_Source\PSoC4/CyLib.c ****             CY_SYS_WDT_CONFIG_REG = configRegValue;
 858:.\Generated_Source\PSoC4/CyLib.c ****         }
 859:.\Generated_Source\PSoC4/CyLib.c ****     }
 860:.\Generated_Source\PSoC4/CyLib.c **** 
 861:.\Generated_Source\PSoC4/CyLib.c **** 
 862:.\Generated_Source\PSoC4/CyLib.c ****     /*******************************************************************************
 863:.\Generated_Source\PSoC4/CyLib.c ****     * Function Name: CySysWdtReadCascade
 864:.\Generated_Source\PSoC4/CyLib.c ****     ********************************************************************************
 865:.\Generated_Source\PSoC4/CyLib.c ****     *
 866:.\Generated_Source\PSoC4/CyLib.c ****     * Summary:
 867:.\Generated_Source\PSoC4/CyLib.c ****     *   Reads the two WDT cascade values returning a mask of the bits set.
 868:.\Generated_Source\PSoC4/CyLib.c ****     *
 869:.\Generated_Source\PSoC4/CyLib.c ****     * Parameters:
 870:.\Generated_Source\PSoC4/CyLib.c ****     *   None
 871:.\Generated_Source\PSoC4/CyLib.c ****     *
 872:.\Generated_Source\PSoC4/CyLib.c ****     * Return:
 873:.\Generated_Source\PSoC4/CyLib.c ****     *   Mask of cascade values set.
 874:.\Generated_Source\PSoC4/CyLib.c ****     *   Define                     Cascade
ARM GAS  C:\DOCUME~1\Chuck\LOCALS~1\Temp\ccVSU8Ya.s 			page 23


 875:.\Generated_Source\PSoC4/CyLib.c ****     *   CY_SYS_WDT_CASCADE_NONE    Neither
 876:.\Generated_Source\PSoC4/CyLib.c ****     *   CY_SYS_WDT_CASCADE_01      Cascade 01
 877:.\Generated_Source\PSoC4/CyLib.c ****     *   CY_SYS_WDT_CASCADE_12      Cascade 12
 878:.\Generated_Source\PSoC4/CyLib.c ****     *
 879:.\Generated_Source\PSoC4/CyLib.c ****     *******************************************************************************/
 880:.\Generated_Source\PSoC4/CyLib.c ****     uint32 CySysWdtReadCascade(void)
 881:.\Generated_Source\PSoC4/CyLib.c ****     {
 882:.\Generated_Source\PSoC4/CyLib.c ****         return (CY_SYS_WDT_CONFIG_REG & (CY_SYS_WDT_CASCADE_01 | CY_SYS_WDT_CASCADE_12));
 883:.\Generated_Source\PSoC4/CyLib.c ****     }
 884:.\Generated_Source\PSoC4/CyLib.c **** 
 885:.\Generated_Source\PSoC4/CyLib.c **** 
 886:.\Generated_Source\PSoC4/CyLib.c ****     /*******************************************************************************
 887:.\Generated_Source\PSoC4/CyLib.c ****     * Function Name: CySysWdtWriteMatch
 888:.\Generated_Source\PSoC4/CyLib.c ****     ********************************************************************************
 889:.\Generated_Source\PSoC4/CyLib.c ****     *
 890:.\Generated_Source\PSoC4/CyLib.c ****     * Summary:
 891:.\Generated_Source\PSoC4/CyLib.c ****     *  Configures the WDT counter match comparison value.
 892:.\Generated_Source\PSoC4/CyLib.c ****     *
 893:.\Generated_Source\PSoC4/CyLib.c ****     * Parameters:
 894:.\Generated_Source\PSoC4/CyLib.c ****     *  counterNum:
 895:.\Generated_Source\PSoC4/CyLib.c ****     *   Valid range [0-1]. Number of the WDT counter. Match values are not
 896:.\Generated_Source\PSoC4/CyLib.c ****     *   supported by counter 2.
 897:.\Generated_Source\PSoC4/CyLib.c ****     *
 898:.\Generated_Source\PSoC4/CyLib.c ****     *  match:
 899:.\Generated_Source\PSoC4/CyLib.c ****     *   Valid range [0-65535]. Value to be used to match against the counter.
 900:.\Generated_Source\PSoC4/CyLib.c ****     *
 901:.\Generated_Source\PSoC4/CyLib.c ****     * Return:
 902:.\Generated_Source\PSoC4/CyLib.c ****     *   None
 903:.\Generated_Source\PSoC4/CyLib.c ****     *
 904:.\Generated_Source\PSoC4/CyLib.c ****     * Side effects:
 905:.\Generated_Source\PSoC4/CyLib.c ****     *   This API enables ILO, if it was disabled.
 906:.\Generated_Source\PSoC4/CyLib.c ****     *
 907:.\Generated_Source\PSoC4/CyLib.c ****     *******************************************************************************/
 908:.\Generated_Source\PSoC4/CyLib.c ****     void CySysWdtWriteMatch(uint32 counterNum, uint32 match)
 909:.\Generated_Source\PSoC4/CyLib.c ****     {
 910:.\Generated_Source\PSoC4/CyLib.c ****         uint32 regValue;
 911:.\Generated_Source\PSoC4/CyLib.c **** 
 912:.\Generated_Source\PSoC4/CyLib.c ****         CYASSERT((counterNum == CY_SYS_WDT_COUNTER0) ||
 913:.\Generated_Source\PSoC4/CyLib.c ****                                              (counterNum == CY_SYS_WDT_COUNTER1));
 914:.\Generated_Source\PSoC4/CyLib.c **** 
 915:.\Generated_Source\PSoC4/CyLib.c ****         /* Configuring WDT involves passing control signals between clock domains,
 916:.\Generated_Source\PSoC4/CyLib.c ****         * which requires ILO to be enabled.
 917:.\Generated_Source\PSoC4/CyLib.c ****         */
 918:.\Generated_Source\PSoC4/CyLib.c ****         if (0u == (CY_SYS_CLK_ILO_CONFIG_REG & CY_SYS_CLK_ILO_CONFIG_ENABLE))
 919:.\Generated_Source\PSoC4/CyLib.c ****         {
 920:.\Generated_Source\PSoC4/CyLib.c ****             CySysClkIloStart();
 921:.\Generated_Source\PSoC4/CyLib.c ****         }
 922:.\Generated_Source\PSoC4/CyLib.c **** 
 923:.\Generated_Source\PSoC4/CyLib.c ****         /* Delay ~ 3LFCK in order to make sure previous changes are applied */
 924:.\Generated_Source\PSoC4/CyLib.c ****         CyDelayUs(CY_SYS_WDT_3LFCLK_DELAY_US);
 925:.\Generated_Source\PSoC4/CyLib.c **** 
 926:.\Generated_Source\PSoC4/CyLib.c ****         regValue = CY_SYS_WDT_MATCH_REG;
 927:.\Generated_Source\PSoC4/CyLib.c ****         regValue &= (uint32)~((uint32)(CY_SYS_WDT_LOWER_16BITS_MASK << (counterNum * CY_SYS_WDT_CNT
 928:.\Generated_Source\PSoC4/CyLib.c ****         CY_SYS_WDT_MATCH_REG = (regValue | (match << (counterNum * CY_SYS_WDT_CNT_MATCH_SHIFT)));
 929:.\Generated_Source\PSoC4/CyLib.c ****     }
 930:.\Generated_Source\PSoC4/CyLib.c **** 
 931:.\Generated_Source\PSoC4/CyLib.c **** 
ARM GAS  C:\DOCUME~1\Chuck\LOCALS~1\Temp\ccVSU8Ya.s 			page 24


 932:.\Generated_Source\PSoC4/CyLib.c ****     /*******************************************************************************
 933:.\Generated_Source\PSoC4/CyLib.c ****     * Function Name: CySysWdtWriteToggleBit
 934:.\Generated_Source\PSoC4/CyLib.c ****     ********************************************************************************
 935:.\Generated_Source\PSoC4/CyLib.c ****     *
 936:.\Generated_Source\PSoC4/CyLib.c ****     * Summary:
 937:.\Generated_Source\PSoC4/CyLib.c ****     *  Configures which bit in the WDT counter 2 to monitor for a toggle.  When that
 938:.\Generated_Source\PSoC4/CyLib.c ****     *  bit toggles, an interrupt is generated if the mode for counter 2 has
 939:.\Generated_Source\PSoC4/CyLib.c ****     *  interrupts enabled.
 940:.\Generated_Source\PSoC4/CyLib.c ****     *
 941:.\Generated_Source\PSoC4/CyLib.c ****     * Parameters:
 942:.\Generated_Source\PSoC4/CyLib.c ****     *  bit:
 943:.\Generated_Source\PSoC4/CyLib.c ****     *   Valid range [0-31].  Counter 2 bit to monitor for a toggle.
 944:.\Generated_Source\PSoC4/CyLib.c ****     *
 945:.\Generated_Source\PSoC4/CyLib.c ****     * Return:
 946:.\Generated_Source\PSoC4/CyLib.c ****     *   None
 947:.\Generated_Source\PSoC4/CyLib.c ****     *
 948:.\Generated_Source\PSoC4/CyLib.c ****     * Side effects:
 949:.\Generated_Source\PSoC4/CyLib.c ****     *   The WDT counter 2 should be disabled. Otherwise the function
 950:.\Generated_Source\PSoC4/CyLib.c ****     *   call will have no effect.
 951:.\Generated_Source\PSoC4/CyLib.c ****     *   This API enables the ILO, if it was disabled.
 952:.\Generated_Source\PSoC4/CyLib.c ****     *
 953:.\Generated_Source\PSoC4/CyLib.c ****     *******************************************************************************/
 954:.\Generated_Source\PSoC4/CyLib.c ****     void CySysWdtWriteToggleBit(uint32 bits)
 955:.\Generated_Source\PSoC4/CyLib.c ****     {
 956:.\Generated_Source\PSoC4/CyLib.c ****         uint32 configRegValue;
 957:.\Generated_Source\PSoC4/CyLib.c **** 
 958:.\Generated_Source\PSoC4/CyLib.c ****         if (0u == CySysWdtReadEnabledStatus(CY_SYS_WDT_COUNTER2))
 959:.\Generated_Source\PSoC4/CyLib.c ****         {
 960:.\Generated_Source\PSoC4/CyLib.c ****             /* Configuring WDT involves passing control signals between clock domains,
 961:.\Generated_Source\PSoC4/CyLib.c ****             * which requires ILO to be enabled.
 962:.\Generated_Source\PSoC4/CyLib.c ****             */
 963:.\Generated_Source\PSoC4/CyLib.c ****             if (0u == (CY_SYS_CLK_ILO_CONFIG_REG & CY_SYS_CLK_ILO_CONFIG_ENABLE))
 964:.\Generated_Source\PSoC4/CyLib.c ****             {
 965:.\Generated_Source\PSoC4/CyLib.c ****                 CySysClkIloStart();
 966:.\Generated_Source\PSoC4/CyLib.c ****             }
 967:.\Generated_Source\PSoC4/CyLib.c **** 
 968:.\Generated_Source\PSoC4/CyLib.c ****             configRegValue = CY_SYS_WDT_CONFIG_REG;
 969:.\Generated_Source\PSoC4/CyLib.c ****             configRegValue &= (uint32)(~((uint32)(CY_SYS_WDT_CONFIG_BITS2_MASK << CY_SYS_WDT_CONFIG
 970:.\Generated_Source\PSoC4/CyLib.c ****             configRegValue |= ((bits & CY_SYS_WDT_CONFIG_BITS2_MASK) << CY_SYS_WDT_CONFIG_BITS2_POS
 971:.\Generated_Source\PSoC4/CyLib.c ****             CY_SYS_WDT_CONFIG_REG = configRegValue;
 972:.\Generated_Source\PSoC4/CyLib.c ****         }
 973:.\Generated_Source\PSoC4/CyLib.c ****     }
 974:.\Generated_Source\PSoC4/CyLib.c **** 
 975:.\Generated_Source\PSoC4/CyLib.c **** 
 976:.\Generated_Source\PSoC4/CyLib.c ****     /*******************************************************************************
 977:.\Generated_Source\PSoC4/CyLib.c ****     * Function Name: CySysWdtReadToggleBit
 978:.\Generated_Source\PSoC4/CyLib.c ****     ********************************************************************************
 979:.\Generated_Source\PSoC4/CyLib.c ****     *
 980:.\Generated_Source\PSoC4/CyLib.c ****     * Summary:
 981:.\Generated_Source\PSoC4/CyLib.c ****     *  Reads which bit in the WDT counter 2 is monitored for a toggle.
 982:.\Generated_Source\PSoC4/CyLib.c ****     *
 983:.\Generated_Source\PSoC4/CyLib.c ****     * Parameters:
 984:.\Generated_Source\PSoC4/CyLib.c ****     *  None
 985:.\Generated_Source\PSoC4/CyLib.c ****     *
 986:.\Generated_Source\PSoC4/CyLib.c ****     * Return:
 987:.\Generated_Source\PSoC4/CyLib.c ****     *  The bit that is monitored (range of 0 to 31)
 988:.\Generated_Source\PSoC4/CyLib.c ****     *
ARM GAS  C:\DOCUME~1\Chuck\LOCALS~1\Temp\ccVSU8Ya.s 			page 25


 989:.\Generated_Source\PSoC4/CyLib.c ****     *******************************************************************************/
 990:.\Generated_Source\PSoC4/CyLib.c ****     uint32 CySysWdtReadToggleBit(void)
 991:.\Generated_Source\PSoC4/CyLib.c ****     {
 992:.\Generated_Source\PSoC4/CyLib.c ****         return ((CY_SYS_WDT_CONFIG_REG >> CY_SYS_WDT_CONFIG_BITS2_POS) & CY_SYS_WDT_CONFIG_BITS2_MA
 993:.\Generated_Source\PSoC4/CyLib.c ****     }
 994:.\Generated_Source\PSoC4/CyLib.c **** 
 995:.\Generated_Source\PSoC4/CyLib.c **** 
 996:.\Generated_Source\PSoC4/CyLib.c ****     /*******************************************************************************
 997:.\Generated_Source\PSoC4/CyLib.c ****     * Function Name: CySysWdtReadMatch
 998:.\Generated_Source\PSoC4/CyLib.c ****     ********************************************************************************
 999:.\Generated_Source\PSoC4/CyLib.c ****     *
1000:.\Generated_Source\PSoC4/CyLib.c ****     * Summary:
1001:.\Generated_Source\PSoC4/CyLib.c ****     *  Reads the WDT counter match comparison value.
1002:.\Generated_Source\PSoC4/CyLib.c ****     *
1003:.\Generated_Source\PSoC4/CyLib.c ****     * Parameters:
1004:.\Generated_Source\PSoC4/CyLib.c ****     *  counterNum: Valid range [0-1].  Number of the WDT counter.  Match values
1005:.\Generated_Source\PSoC4/CyLib.c ****     *               are not supported by counter 2.
1006:.\Generated_Source\PSoC4/CyLib.c ****     *
1007:.\Generated_Source\PSoC4/CyLib.c ****     * Return:
1008:.\Generated_Source\PSoC4/CyLib.c ****     *  Counter match value
1009:.\Generated_Source\PSoC4/CyLib.c ****     *
1010:.\Generated_Source\PSoC4/CyLib.c ****     *******************************************************************************/
1011:.\Generated_Source\PSoC4/CyLib.c ****     uint32 CySysWdtReadMatch(uint32 counterNum)
1012:.\Generated_Source\PSoC4/CyLib.c ****     {
1013:.\Generated_Source\PSoC4/CyLib.c ****         CYASSERT((counterNum == CY_SYS_WDT_COUNTER0) ||
1014:.\Generated_Source\PSoC4/CyLib.c ****                                              (counterNum == CY_SYS_WDT_COUNTER1));
1015:.\Generated_Source\PSoC4/CyLib.c ****         return ((uint32)(CY_SYS_WDT_MATCH_REG >> (counterNum * CY_SYS_WDT_CNT_MATCH_SHIFT)) & CY_SY
1016:.\Generated_Source\PSoC4/CyLib.c ****     }
1017:.\Generated_Source\PSoC4/CyLib.c **** 
1018:.\Generated_Source\PSoC4/CyLib.c **** 
1019:.\Generated_Source\PSoC4/CyLib.c ****     /*******************************************************************************
1020:.\Generated_Source\PSoC4/CyLib.c ****     * Function Name: CySysWdtReadCount
1021:.\Generated_Source\PSoC4/CyLib.c ****     ********************************************************************************
1022:.\Generated_Source\PSoC4/CyLib.c ****     *
1023:.\Generated_Source\PSoC4/CyLib.c ****     * Summary:
1024:.\Generated_Source\PSoC4/CyLib.c ****     *  Reads the current WDT counter value.
1025:.\Generated_Source\PSoC4/CyLib.c ****     *
1026:.\Generated_Source\PSoC4/CyLib.c ****     * Parameters:
1027:.\Generated_Source\PSoC4/CyLib.c ****     *  counterNum: Valid range [0-2].  Number of the WDT counter.
1028:.\Generated_Source\PSoC4/CyLib.c ****     *
1029:.\Generated_Source\PSoC4/CyLib.c ****     * Return:
1030:.\Generated_Source\PSoC4/CyLib.c ****     *  Live counter value.  Counter 0 and 1 are 16 bit counters and counter
1031:.\Generated_Source\PSoC4/CyLib.c ****     *  2 is a 32 bit counter.
1032:.\Generated_Source\PSoC4/CyLib.c ****     *
1033:.\Generated_Source\PSoC4/CyLib.c ****     *******************************************************************************/
1034:.\Generated_Source\PSoC4/CyLib.c ****     uint32 CySysWdtReadCount(uint32 counterNum)
1035:.\Generated_Source\PSoC4/CyLib.c ****     {
1036:.\Generated_Source\PSoC4/CyLib.c ****         uint32 regValue = 0u;
1037:.\Generated_Source\PSoC4/CyLib.c **** 
1038:.\Generated_Source\PSoC4/CyLib.c ****         switch(counterNum)
1039:.\Generated_Source\PSoC4/CyLib.c ****         {
1040:.\Generated_Source\PSoC4/CyLib.c ****             /* WDT Counter 0 */
1041:.\Generated_Source\PSoC4/CyLib.c ****             case 0u:
1042:.\Generated_Source\PSoC4/CyLib.c ****                 regValue = CY_SYS_WDT_CTRLOW_REG & CY_SYS_WDT_LOWER_16BITS_MASK;
1043:.\Generated_Source\PSoC4/CyLib.c ****             break;
1044:.\Generated_Source\PSoC4/CyLib.c **** 
1045:.\Generated_Source\PSoC4/CyLib.c ****             /* WDT Counter 1 */
ARM GAS  C:\DOCUME~1\Chuck\LOCALS~1\Temp\ccVSU8Ya.s 			page 26


1046:.\Generated_Source\PSoC4/CyLib.c ****             case 1u:
1047:.\Generated_Source\PSoC4/CyLib.c ****                 regValue = (CY_SYS_WDT_CTRLOW_REG >> CY_SYS_WDT_CNT_MATCH_SHIFT) & CY_SYS_WDT_LOWER
1048:.\Generated_Source\PSoC4/CyLib.c ****             break;
1049:.\Generated_Source\PSoC4/CyLib.c **** 
1050:.\Generated_Source\PSoC4/CyLib.c ****             /* WDT Counter 2 */
1051:.\Generated_Source\PSoC4/CyLib.c ****             case 2u:
1052:.\Generated_Source\PSoC4/CyLib.c ****                 regValue = CY_SYS_WDT_CTRHIGH_REG;
1053:.\Generated_Source\PSoC4/CyLib.c ****             break;
1054:.\Generated_Source\PSoC4/CyLib.c **** 
1055:.\Generated_Source\PSoC4/CyLib.c ****             default:
1056:.\Generated_Source\PSoC4/CyLib.c ****                 CYASSERT(0u != 0u);
1057:.\Generated_Source\PSoC4/CyLib.c ****             break;
1058:.\Generated_Source\PSoC4/CyLib.c ****         }
1059:.\Generated_Source\PSoC4/CyLib.c **** 
1060:.\Generated_Source\PSoC4/CyLib.c ****         return (regValue);
1061:.\Generated_Source\PSoC4/CyLib.c ****     }
1062:.\Generated_Source\PSoC4/CyLib.c **** 
1063:.\Generated_Source\PSoC4/CyLib.c **** 
1064:.\Generated_Source\PSoC4/CyLib.c ****     /*******************************************************************************
1065:.\Generated_Source\PSoC4/CyLib.c ****     * Function Name: CySysWdtGetInterruptSource
1066:.\Generated_Source\PSoC4/CyLib.c ****     ********************************************************************************
1067:.\Generated_Source\PSoC4/CyLib.c ****     *
1068:.\Generated_Source\PSoC4/CyLib.c ****     * Summary:
1069:.\Generated_Source\PSoC4/CyLib.c ****     *   Reads a mask containing all the WDT counters interrupts that are currently
1070:.\Generated_Source\PSoC4/CyLib.c ****     *   set by the hardware, if a corresponding mode is selected.
1071:.\Generated_Source\PSoC4/CyLib.c ****     *
1072:.\Generated_Source\PSoC4/CyLib.c ****     * Parameters:
1073:.\Generated_Source\PSoC4/CyLib.c ****     *   None
1074:.\Generated_Source\PSoC4/CyLib.c ****     *
1075:.\Generated_Source\PSoC4/CyLib.c ****     * Return:
1076:.\Generated_Source\PSoC4/CyLib.c ****     *   Mask of interrupts set.
1077:.\Generated_Source\PSoC4/CyLib.c ****     *   Define                    Counter
1078:.\Generated_Source\PSoC4/CyLib.c ****     *   CY_SYS_WDT_COUNTER0_INT    0
1079:.\Generated_Source\PSoC4/CyLib.c ****     *   CY_SYS_WDT_COUNTER1_INT    1
1080:.\Generated_Source\PSoC4/CyLib.c ****     *   CY_SYS_WDT_COUNTER2_INT    2
1081:.\Generated_Source\PSoC4/CyLib.c ****     *
1082:.\Generated_Source\PSoC4/CyLib.c ****     *******************************************************************************/
1083:.\Generated_Source\PSoC4/CyLib.c ****     uint32 CySysWdtGetInterruptSource(void)
1084:.\Generated_Source\PSoC4/CyLib.c ****     {
1085:.\Generated_Source\PSoC4/CyLib.c ****         return (CY_SYS_WDT_CONTROL_REG & (CY_SYS_WDT_COUNTER0_INT | CY_SYS_WDT_COUNTER1_INT | CY_SY
1086:.\Generated_Source\PSoC4/CyLib.c ****     }
1087:.\Generated_Source\PSoC4/CyLib.c **** 
1088:.\Generated_Source\PSoC4/CyLib.c **** 
1089:.\Generated_Source\PSoC4/CyLib.c ****     /*******************************************************************************
1090:.\Generated_Source\PSoC4/CyLib.c ****     * Function Name: CySysWdtClearInterrupt
1091:.\Generated_Source\PSoC4/CyLib.c ****     ********************************************************************************
1092:.\Generated_Source\PSoC4/CyLib.c ****     *
1093:.\Generated_Source\PSoC4/CyLib.c ****     * Summary:
1094:.\Generated_Source\PSoC4/CyLib.c ****     *   Clears all the WDT counter interrupts set in the mask. Calling this API also
1095:.\Generated_Source\PSoC4/CyLib.c ****     *   prevents Reset from happening when the counter mode is set to generate
1096:.\Generated_Source\PSoC4/CyLib.c ****     *   3 interrupts and then reset the device.
1097:.\Generated_Source\PSoC4/CyLib.c ****     *   All the WDT interrupts are to be cleared by the firmware, otherwise interrupts
1098:.\Generated_Source\PSoC4/CyLib.c ****     *   will be generated continuously.
1099:.\Generated_Source\PSoC4/CyLib.c ****     *
1100:.\Generated_Source\PSoC4/CyLib.c ****     * Parameters:
1101:.\Generated_Source\PSoC4/CyLib.c ****     *   counterMask: Mask of all counters to enable
1102:.\Generated_Source\PSoC4/CyLib.c ****     *   Define                    Counter
ARM GAS  C:\DOCUME~1\Chuck\LOCALS~1\Temp\ccVSU8Ya.s 			page 27


1103:.\Generated_Source\PSoC4/CyLib.c ****     *   CY_SYS_WDT_COUNTER0_INT    0
1104:.\Generated_Source\PSoC4/CyLib.c ****     *   CY_SYS_WDT_COUNTER1_INT    1
1105:.\Generated_Source\PSoC4/CyLib.c ****     *   CY_SYS_WDT_COUNTER2_INT    2
1106:.\Generated_Source\PSoC4/CyLib.c ****     *
1107:.\Generated_Source\PSoC4/CyLib.c ****     * Return:
1108:.\Generated_Source\PSoC4/CyLib.c ****     *   None
1109:.\Generated_Source\PSoC4/CyLib.c ****     *
1110:.\Generated_Source\PSoC4/CyLib.c ****     * Side effects:
1111:.\Generated_Source\PSoC4/CyLib.c ****     *   This API enables the ILO, if it was disabled and temporary removes Watchdog
1112:.\Generated_Source\PSoC4/CyLib.c ****     *   lock, if it was set, and restores the lock state, after cleaning the WDT
1113:.\Generated_Source\PSoC4/CyLib.c ****     *   interrupts, that are set in a mask.
1114:.\Generated_Source\PSoC4/CyLib.c ****     *
1115:.\Generated_Source\PSoC4/CyLib.c ****     *******************************************************************************/
1116:.\Generated_Source\PSoC4/CyLib.c ****     void CySysWdtClearInterrupt(uint32 counterMask)
1117:.\Generated_Source\PSoC4/CyLib.c ****     {
1118:.\Generated_Source\PSoC4/CyLib.c ****         uint8 interruptState;
1119:.\Generated_Source\PSoC4/CyLib.c ****         uint32 wdtLockState;
1120:.\Generated_Source\PSoC4/CyLib.c **** 
1121:.\Generated_Source\PSoC4/CyLib.c ****         interruptState = CyEnterCriticalSection();
1122:.\Generated_Source\PSoC4/CyLib.c **** 
1123:.\Generated_Source\PSoC4/CyLib.c ****         /* Configuring WDT involves passing control signals between clock domains,
1124:.\Generated_Source\PSoC4/CyLib.c ****         * which requires ILO to be enabled.
1125:.\Generated_Source\PSoC4/CyLib.c ****         */
1126:.\Generated_Source\PSoC4/CyLib.c ****         if (0u == (CY_SYS_CLK_ILO_CONFIG_REG & CY_SYS_CLK_ILO_CONFIG_ENABLE))
1127:.\Generated_Source\PSoC4/CyLib.c ****         {
1128:.\Generated_Source\PSoC4/CyLib.c ****             CySysClkIloStart();
1129:.\Generated_Source\PSoC4/CyLib.c ****         }
1130:.\Generated_Source\PSoC4/CyLib.c **** 
1131:.\Generated_Source\PSoC4/CyLib.c ****         if ((CY_SYS_CLK_SELECT_REG & (uint32)(CY_SYS_WDT_CLK_LOCK_BITS_MASK)) == CY_SYS_WDT_CLK_LOC
1132:.\Generated_Source\PSoC4/CyLib.c ****         {
1133:.\Generated_Source\PSoC4/CyLib.c ****             wdtLockState = 1u;
1134:.\Generated_Source\PSoC4/CyLib.c **** 
1135:.\Generated_Source\PSoC4/CyLib.c ****             /* Removing WDT lock requires two writes */
1136:.\Generated_Source\PSoC4/CyLib.c ****             CY_SYS_CLK_SELECT_REG = ((CY_SYS_CLK_SELECT_REG & (uint32)(~CY_SYS_WDT_CLK_LOCK_BITS_MA
1137:.\Generated_Source\PSoC4/CyLib.c ****                     CY_SYS_WDT_CLK_LOCK_BIT0);
1138:.\Generated_Source\PSoC4/CyLib.c **** 
1139:.\Generated_Source\PSoC4/CyLib.c ****             CY_SYS_CLK_SELECT_REG = ((CY_SYS_CLK_SELECT_REG & (uint32)(~CY_SYS_WDT_CLK_LOCK_BITS_MA
1140:.\Generated_Source\PSoC4/CyLib.c ****                     CY_SYS_WDT_CLK_LOCK_BIT1);
1141:.\Generated_Source\PSoC4/CyLib.c ****         }
1142:.\Generated_Source\PSoC4/CyLib.c ****         else
1143:.\Generated_Source\PSoC4/CyLib.c ****         {
1144:.\Generated_Source\PSoC4/CyLib.c ****             wdtLockState = 0u;
1145:.\Generated_Source\PSoC4/CyLib.c ****         }
1146:.\Generated_Source\PSoC4/CyLib.c **** 
1147:.\Generated_Source\PSoC4/CyLib.c ****         /* Set new WDT control register value */
1148:.\Generated_Source\PSoC4/CyLib.c ****         counterMask &= (CY_SYS_WDT_COUNTER0_INT |
1149:.\Generated_Source\PSoC4/CyLib.c ****                         CY_SYS_WDT_COUNTER1_INT |
1150:.\Generated_Source\PSoC4/CyLib.c ****                         CY_SYS_WDT_COUNTER2_INT);
1151:.\Generated_Source\PSoC4/CyLib.c **** 
1152:.\Generated_Source\PSoC4/CyLib.c ****         CY_SYS_WDT_CONTROL_REG = counterMask | (CY_SYS_WDT_CONTROL_REG & ~(CY_SYS_WDT_COUNTER0_INT 
1153:.\Generated_Source\PSoC4/CyLib.c ****                                                                            CY_SYS_WDT_COUNTER1_INT 
1154:.\Generated_Source\PSoC4/CyLib.c ****                                                                            CY_SYS_WDT_COUNTER2_INT)
1155:.\Generated_Source\PSoC4/CyLib.c **** 
1156:.\Generated_Source\PSoC4/CyLib.c ****         if (1u == wdtLockState)
1157:.\Generated_Source\PSoC4/CyLib.c ****         {
1158:.\Generated_Source\PSoC4/CyLib.c ****             /* CLK_SELECT register's bits 15:14 are WDT_LOCK */
1159:.\Generated_Source\PSoC4/CyLib.c ****             CY_SYS_CLK_SELECT_REG = (CY_SYS_CLK_SELECT_REG & (uint32)(~CY_SYS_WDT_CLK_LOCK_BITS_MAS
ARM GAS  C:\DOCUME~1\Chuck\LOCALS~1\Temp\ccVSU8Ya.s 			page 28


1160:.\Generated_Source\PSoC4/CyLib.c ****                      CY_SYS_WDT_CLK_LOCK_BITS_MASK;
1161:.\Generated_Source\PSoC4/CyLib.c ****         }
1162:.\Generated_Source\PSoC4/CyLib.c **** 
1163:.\Generated_Source\PSoC4/CyLib.c ****         CyExitCriticalSection(interruptState);
1164:.\Generated_Source\PSoC4/CyLib.c ****     }
1165:.\Generated_Source\PSoC4/CyLib.c **** 
1166:.\Generated_Source\PSoC4/CyLib.c **** 
1167:.\Generated_Source\PSoC4/CyLib.c ****     /*******************************************************************************
1168:.\Generated_Source\PSoC4/CyLib.c ****     * Function Name: CySysWdtResetCounters
1169:.\Generated_Source\PSoC4/CyLib.c ****     ********************************************************************************
1170:.\Generated_Source\PSoC4/CyLib.c ****     *
1171:.\Generated_Source\PSoC4/CyLib.c ****     * Summary:
1172:.\Generated_Source\PSoC4/CyLib.c ****     *  Resets all WDT counters set in the mask.
1173:.\Generated_Source\PSoC4/CyLib.c ****     *
1174:.\Generated_Source\PSoC4/CyLib.c ****     * Parameters:
1175:.\Generated_Source\PSoC4/CyLib.c ****     *  counterMask: Mask of all counters to reset.
1176:.\Generated_Source\PSoC4/CyLib.c ****     *   Define                       Counter
1177:.\Generated_Source\PSoC4/CyLib.c ****     *   CY_SYS_WDT_COUNTER0_RESET    0
1178:.\Generated_Source\PSoC4/CyLib.c ****     *   CY_SYS_WDT_COUNTER1_RESET    1
1179:.\Generated_Source\PSoC4/CyLib.c ****     *   CY_SYS_WDT_COUNTER2_RESET    2
1180:.\Generated_Source\PSoC4/CyLib.c ****     *
1181:.\Generated_Source\PSoC4/CyLib.c ****     * Return:
1182:.\Generated_Source\PSoC4/CyLib.c ****     *   None
1183:.\Generated_Source\PSoC4/CyLib.c ****     *
1184:.\Generated_Source\PSoC4/CyLib.c ****     * Side effects:
1185:.\Generated_Source\PSoC4/CyLib.c ****     *   This API enables the ILO, if it was disabled, this API call will not reset
1186:.\Generated_Source\PSoC4/CyLib.c ****     *   the counter values, if the Watchdog is locked.
1187:.\Generated_Source\PSoC4/CyLib.c ****     *
1188:.\Generated_Source\PSoC4/CyLib.c ****     *******************************************************************************/
1189:.\Generated_Source\PSoC4/CyLib.c ****     void CySysWdtResetCounters(uint32 countersMask)
1190:.\Generated_Source\PSoC4/CyLib.c ****     {
1191:.\Generated_Source\PSoC4/CyLib.c ****         /* Configuring WDT involves passing control signals between clock domains,
1192:.\Generated_Source\PSoC4/CyLib.c ****         * which requires ILO to be enabled.
1193:.\Generated_Source\PSoC4/CyLib.c ****         */
1194:.\Generated_Source\PSoC4/CyLib.c ****         if (0u == (CY_SYS_CLK_ILO_CONFIG_REG & CY_SYS_CLK_ILO_CONFIG_ENABLE))
1195:.\Generated_Source\PSoC4/CyLib.c ****         {
1196:.\Generated_Source\PSoC4/CyLib.c ****             CySysClkIloStart();
1197:.\Generated_Source\PSoC4/CyLib.c ****         }
1198:.\Generated_Source\PSoC4/CyLib.c **** 
1199:.\Generated_Source\PSoC4/CyLib.c ****         /* Set new WDT reset value */
1200:.\Generated_Source\PSoC4/CyLib.c ****         CY_SYS_WDT_CONTROL_REG |= (countersMask & (CY_SYS_WDT_COUNTER0_RESET |
1201:.\Generated_Source\PSoC4/CyLib.c ****             CY_SYS_WDT_COUNTER1_RESET | CY_SYS_WDT_COUNTER2_RESET));
1202:.\Generated_Source\PSoC4/CyLib.c ****     }
1203:.\Generated_Source\PSoC4/CyLib.c **** 
1204:.\Generated_Source\PSoC4/CyLib.c **** #else
1205:.\Generated_Source\PSoC4/CyLib.c **** 
1206:.\Generated_Source\PSoC4/CyLib.c ****     /*******************************************************************************
1207:.\Generated_Source\PSoC4/CyLib.c ****     * Function Name: CySysWdtReadEnabledStatus
1208:.\Generated_Source\PSoC4/CyLib.c ****     ********************************************************************************
1209:.\Generated_Source\PSoC4/CyLib.c ****     *
1210:.\Generated_Source\PSoC4/CyLib.c ****     * Summary:
1211:.\Generated_Source\PSoC4/CyLib.c ****     *  Reads the enabled status WDT counter.
1212:.\Generated_Source\PSoC4/CyLib.c ****     *
1213:.\Generated_Source\PSoC4/CyLib.c ****     * Parameters:
1214:.\Generated_Source\PSoC4/CyLib.c ****     *  None
1215:.\Generated_Source\PSoC4/CyLib.c ****     *
1216:.\Generated_Source\PSoC4/CyLib.c ****     * Return:
ARM GAS  C:\DOCUME~1\Chuck\LOCALS~1\Temp\ccVSU8Ya.s 			page 29


1217:.\Generated_Source\PSoC4/CyLib.c ****     *  Status of WDT counter:
1218:.\Generated_Source\PSoC4/CyLib.c ****     *   0 - counter is disabled
1219:.\Generated_Source\PSoC4/CyLib.c ****     *   1 - counter is enabled
1220:.\Generated_Source\PSoC4/CyLib.c ****     *
1221:.\Generated_Source\PSoC4/CyLib.c ****     * Side Effects:
1222:.\Generated_Source\PSoC4/CyLib.c ****     *  None
1223:.\Generated_Source\PSoC4/CyLib.c ****     *
1224:.\Generated_Source\PSoC4/CyLib.c ****     *******************************************************************************/
1225:.\Generated_Source\PSoC4/CyLib.c ****     uint32 CySysWdtReadEnabledStatus(void)
1226:.\Generated_Source\PSoC4/CyLib.c ****     {
1227:.\Generated_Source\PSoC4/CyLib.c ****         return ((CY_SYS_WDT_DISABLE_KEY_REG == CY_SYS_WDT_KEY) ? 0u : 1u);
1228:.\Generated_Source\PSoC4/CyLib.c ****     }
1229:.\Generated_Source\PSoC4/CyLib.c **** 
1230:.\Generated_Source\PSoC4/CyLib.c **** 
1231:.\Generated_Source\PSoC4/CyLib.c ****     /*******************************************************************************
1232:.\Generated_Source\PSoC4/CyLib.c ****     * Function Name: CySysWdtEnable
1233:.\Generated_Source\PSoC4/CyLib.c ****     ********************************************************************************
1234:.\Generated_Source\PSoC4/CyLib.c ****     *
1235:.\Generated_Source\PSoC4/CyLib.c ****     * Summary:
1236:.\Generated_Source\PSoC4/CyLib.c ****     *  Enables the WDT counter.
1237:.\Generated_Source\PSoC4/CyLib.c ****     *
1238:.\Generated_Source\PSoC4/CyLib.c ****     * Parameters:
1239:.\Generated_Source\PSoC4/CyLib.c ****     *  None
1240:.\Generated_Source\PSoC4/CyLib.c ****     *
1241:.\Generated_Source\PSoC4/CyLib.c ****     * Return:
1242:.\Generated_Source\PSoC4/CyLib.c ****     *  None
1243:.\Generated_Source\PSoC4/CyLib.c ****     *
1244:.\Generated_Source\PSoC4/CyLib.c ****     * Side Effects:
1245:.\Generated_Source\PSoC4/CyLib.c ****     *  This API enables ILO, if it was disabled.
1246:.\Generated_Source\PSoC4/CyLib.c ****     *
1247:.\Generated_Source\PSoC4/CyLib.c ****     *******************************************************************************/
1248:.\Generated_Source\PSoC4/CyLib.c ****     void CySysWdtEnable(void)
1249:.\Generated_Source\PSoC4/CyLib.c ****     {
1250:.\Generated_Source\PSoC4/CyLib.c ****         /* Configuring WDT involves passing control signals between clock domains,
1251:.\Generated_Source\PSoC4/CyLib.c ****         * which requires ILO to be enabled.
1252:.\Generated_Source\PSoC4/CyLib.c ****         */
1253:.\Generated_Source\PSoC4/CyLib.c ****         if (0u == (CY_SYS_CLK_ILO_CONFIG_REG & CY_SYS_CLK_ILO_CONFIG_ENABLE))
1254:.\Generated_Source\PSoC4/CyLib.c ****         {
1255:.\Generated_Source\PSoC4/CyLib.c ****             CySysClkIloStart();
1256:.\Generated_Source\PSoC4/CyLib.c ****         }
1257:.\Generated_Source\PSoC4/CyLib.c **** 
1258:.\Generated_Source\PSoC4/CyLib.c ****         CY_SYS_WDT_DISABLE_KEY_REG = 0u;
1259:.\Generated_Source\PSoC4/CyLib.c ****     }
1260:.\Generated_Source\PSoC4/CyLib.c **** 
1261:.\Generated_Source\PSoC4/CyLib.c **** 
1262:.\Generated_Source\PSoC4/CyLib.c ****     /*******************************************************************************
1263:.\Generated_Source\PSoC4/CyLib.c ****     * Function Name: CySysWdtDisable
1264:.\Generated_Source\PSoC4/CyLib.c ****     ********************************************************************************
1265:.\Generated_Source\PSoC4/CyLib.c ****     *
1266:.\Generated_Source\PSoC4/CyLib.c ****     * Summary:
1267:.\Generated_Source\PSoC4/CyLib.c ****     *  Disables the WDT counter.
1268:.\Generated_Source\PSoC4/CyLib.c ****     *
1269:.\Generated_Source\PSoC4/CyLib.c ****     * Parameters:
1270:.\Generated_Source\PSoC4/CyLib.c ****     *  None
1271:.\Generated_Source\PSoC4/CyLib.c ****     *
1272:.\Generated_Source\PSoC4/CyLib.c ****     * Return:
1273:.\Generated_Source\PSoC4/CyLib.c ****     *  None
ARM GAS  C:\DOCUME~1\Chuck\LOCALS~1\Temp\ccVSU8Ya.s 			page 30


1274:.\Generated_Source\PSoC4/CyLib.c ****     *
1275:.\Generated_Source\PSoC4/CyLib.c ****     * Side Effects:
1276:.\Generated_Source\PSoC4/CyLib.c ****     *  In order to disable the ILO clock the WDT counter should be disabled.
1277:.\Generated_Source\PSoC4/CyLib.c ****     *
1278:.\Generated_Source\PSoC4/CyLib.c ****     *******************************************************************************/
1279:.\Generated_Source\PSoC4/CyLib.c ****     void CySysWdtDisable(void)
1280:.\Generated_Source\PSoC4/CyLib.c ****     {
1281:.\Generated_Source\PSoC4/CyLib.c ****         CY_SYS_WDT_DISABLE_KEY_REG = CY_SYS_WDT_KEY;
1282:.\Generated_Source\PSoC4/CyLib.c ****     }
1283:.\Generated_Source\PSoC4/CyLib.c **** 
1284:.\Generated_Source\PSoC4/CyLib.c **** 
1285:.\Generated_Source\PSoC4/CyLib.c ****     /*******************************************************************************
1286:.\Generated_Source\PSoC4/CyLib.c ****     * Function Name: CySysWdtWriteMatch
1287:.\Generated_Source\PSoC4/CyLib.c ****     ********************************************************************************
1288:.\Generated_Source\PSoC4/CyLib.c ****     *
1289:.\Generated_Source\PSoC4/CyLib.c ****     * Summary:
1290:.\Generated_Source\PSoC4/CyLib.c ****     *  Configures the WDT counter match comparison value.
1291:.\Generated_Source\PSoC4/CyLib.c ****     *
1292:.\Generated_Source\PSoC4/CyLib.c ****     * Parameters:
1293:.\Generated_Source\PSoC4/CyLib.c ****     *  match:
1294:.\Generated_Source\PSoC4/CyLib.c ****     *   Valid range [0-65535]. Value to be used to match against the counter.
1295:.\Generated_Source\PSoC4/CyLib.c ****     *
1296:.\Generated_Source\PSoC4/CyLib.c ****     * Return:
1297:.\Generated_Source\PSoC4/CyLib.c ****     *  None
1298:.\Generated_Source\PSoC4/CyLib.c ****     *
1299:.\Generated_Source\PSoC4/CyLib.c ****     * Side Effects:
1300:.\Generated_Source\PSoC4/CyLib.c ****     *  This API enables ILO, if it was disabled.
1301:.\Generated_Source\PSoC4/CyLib.c ****     *
1302:.\Generated_Source\PSoC4/CyLib.c ****     *******************************************************************************/
1303:.\Generated_Source\PSoC4/CyLib.c ****     void CySysWdtWriteMatch(uint32 match)
1304:.\Generated_Source\PSoC4/CyLib.c ****     {
1305:.\Generated_Source\PSoC4/CyLib.c ****         /* Configuring WDT involves passing control signals between clock domains,
1306:.\Generated_Source\PSoC4/CyLib.c ****         * which requires ILO to be enabled.
1307:.\Generated_Source\PSoC4/CyLib.c ****         */
1308:.\Generated_Source\PSoC4/CyLib.c ****         if (0u == (CY_SYS_CLK_ILO_CONFIG_REG & CY_SYS_CLK_ILO_CONFIG_ENABLE))
1309:.\Generated_Source\PSoC4/CyLib.c ****         {
1310:.\Generated_Source\PSoC4/CyLib.c ****             CySysClkIloStart();
1311:.\Generated_Source\PSoC4/CyLib.c ****         }
1312:.\Generated_Source\PSoC4/CyLib.c **** 
1313:.\Generated_Source\PSoC4/CyLib.c ****         CY_SYS_WDT_MATCH_REG = (CY_SYS_WDT_MATCH_REG & (uint32)(~ (uint32)CY_SYS_WDT_MATCH_MASK)) |
1314:.\Generated_Source\PSoC4/CyLib.c ****     }
1315:.\Generated_Source\PSoC4/CyLib.c **** 
1316:.\Generated_Source\PSoC4/CyLib.c **** 
1317:.\Generated_Source\PSoC4/CyLib.c ****     /*******************************************************************************
1318:.\Generated_Source\PSoC4/CyLib.c ****     * Function Name: CySysWdtReadMatch
1319:.\Generated_Source\PSoC4/CyLib.c ****     ********************************************************************************
1320:.\Generated_Source\PSoC4/CyLib.c ****     *
1321:.\Generated_Source\PSoC4/CyLib.c ****     * Summary:
1322:.\Generated_Source\PSoC4/CyLib.c ****     *  Reads the WDT counter match comparison value.
1323:.\Generated_Source\PSoC4/CyLib.c ****     *
1324:.\Generated_Source\PSoC4/CyLib.c ****     * Parameters:
1325:.\Generated_Source\PSoC4/CyLib.c ****     *  None
1326:.\Generated_Source\PSoC4/CyLib.c ****     *
1327:.\Generated_Source\PSoC4/CyLib.c ****     * Return:
1328:.\Generated_Source\PSoC4/CyLib.c ****     *  Counter match value
1329:.\Generated_Source\PSoC4/CyLib.c ****     *
1330:.\Generated_Source\PSoC4/CyLib.c ****     * Side Effects:
ARM GAS  C:\DOCUME~1\Chuck\LOCALS~1\Temp\ccVSU8Ya.s 			page 31


1331:.\Generated_Source\PSoC4/CyLib.c ****     *  None
1332:.\Generated_Source\PSoC4/CyLib.c ****     *
1333:.\Generated_Source\PSoC4/CyLib.c ****     *******************************************************************************/
1334:.\Generated_Source\PSoC4/CyLib.c ****     uint32 CySysWdtReadMatch(void)
1335:.\Generated_Source\PSoC4/CyLib.c ****     {
1336:.\Generated_Source\PSoC4/CyLib.c ****         return (CY_SYS_WDT_MATCH_REG & CY_SYS_WDT_MATCH_MASK);
1337:.\Generated_Source\PSoC4/CyLib.c ****     }
1338:.\Generated_Source\PSoC4/CyLib.c **** 
1339:.\Generated_Source\PSoC4/CyLib.c **** 
1340:.\Generated_Source\PSoC4/CyLib.c ****     /*******************************************************************************
1341:.\Generated_Source\PSoC4/CyLib.c ****     * Function Name: CySysWdtReadCount
1342:.\Generated_Source\PSoC4/CyLib.c ****     ********************************************************************************
1343:.\Generated_Source\PSoC4/CyLib.c ****     *
1344:.\Generated_Source\PSoC4/CyLib.c ****     * Summary:
1345:.\Generated_Source\PSoC4/CyLib.c ****     *  Reads the current WDT counter value.
1346:.\Generated_Source\PSoC4/CyLib.c ****     *
1347:.\Generated_Source\PSoC4/CyLib.c ****     * Parameters:
1348:.\Generated_Source\PSoC4/CyLib.c ****     *  None
1349:.\Generated_Source\PSoC4/CyLib.c ****     *
1350:.\Generated_Source\PSoC4/CyLib.c ****     * Return:
1351:.\Generated_Source\PSoC4/CyLib.c ****     *  Live counter value
1352:.\Generated_Source\PSoC4/CyLib.c ****     *
1353:.\Generated_Source\PSoC4/CyLib.c ****     * Side Effects:
1354:.\Generated_Source\PSoC4/CyLib.c ****     *  None
1355:.\Generated_Source\PSoC4/CyLib.c ****     *
1356:.\Generated_Source\PSoC4/CyLib.c ****     *******************************************************************************/
1357:.\Generated_Source\PSoC4/CyLib.c ****     uint32 CySysWdtReadCount(void)
1358:.\Generated_Source\PSoC4/CyLib.c ****     {
1359:.\Generated_Source\PSoC4/CyLib.c ****         return ((uint32)CY_SYS_WDT_COUNTER_REG);
1360:.\Generated_Source\PSoC4/CyLib.c ****     }
1361:.\Generated_Source\PSoC4/CyLib.c **** 
1362:.\Generated_Source\PSoC4/CyLib.c **** 
1363:.\Generated_Source\PSoC4/CyLib.c ****     /*******************************************************************************
1364:.\Generated_Source\PSoC4/CyLib.c ****     * Function Name: CySysWdtWriteIgnoreBits
1365:.\Generated_Source\PSoC4/CyLib.c ****     ********************************************************************************
1366:.\Generated_Source\PSoC4/CyLib.c ****     *
1367:.\Generated_Source\PSoC4/CyLib.c ****     * Summary:
1368:.\Generated_Source\PSoC4/CyLib.c ****     *  Configures the number of the MSB bits of the watchdog timer that are not
1369:.\Generated_Source\PSoC4/CyLib.c ****     *  checked against the match.
1370:.\Generated_Source\PSoC4/CyLib.c ****     *
1371:.\Generated_Source\PSoC4/CyLib.c ****     * Parameters:
1372:.\Generated_Source\PSoC4/CyLib.c ****     *  bitsNum:
1373:.\Generated_Source\PSoC4/CyLib.c ****     *   Valid range [0-15]. Number of MSB bits.
1374:.\Generated_Source\PSoC4/CyLib.c ****     *
1375:.\Generated_Source\PSoC4/CyLib.c ****     * Return:
1376:.\Generated_Source\PSoC4/CyLib.c ****     *  None
1377:.\Generated_Source\PSoC4/CyLib.c ****     *
1378:.\Generated_Source\PSoC4/CyLib.c ****     * Side Effects:
1379:.\Generated_Source\PSoC4/CyLib.c ****     *  The value of bitsNum provides control over the time-to-reset of the watchdog
1380:.\Generated_Source\PSoC4/CyLib.c ****     *  (which happens after 3 successive matches).
1381:.\Generated_Source\PSoC4/CyLib.c ****     *
1382:.\Generated_Source\PSoC4/CyLib.c ****     *******************************************************************************/
1383:.\Generated_Source\PSoC4/CyLib.c ****     void CySysWdtWriteIgnoreBits(uint32 bitsNum)
1384:.\Generated_Source\PSoC4/CyLib.c ****     {
1385:.\Generated_Source\PSoC4/CyLib.c ****         bitsNum = ((uint32)(bitsNum << 16u) & CY_SYS_WDT_IGNORE_BITS_MASK);
1386:.\Generated_Source\PSoC4/CyLib.c ****         CY_SYS_WDT_MATCH_REG = (CY_SYS_WDT_MATCH_REG & (uint32)(~CY_SYS_WDT_IGNORE_BITS_MASK)) | bi
1387:.\Generated_Source\PSoC4/CyLib.c ****     }
ARM GAS  C:\DOCUME~1\Chuck\LOCALS~1\Temp\ccVSU8Ya.s 			page 32


1388:.\Generated_Source\PSoC4/CyLib.c **** 
1389:.\Generated_Source\PSoC4/CyLib.c **** 
1390:.\Generated_Source\PSoC4/CyLib.c ****     /*******************************************************************************
1391:.\Generated_Source\PSoC4/CyLib.c ****     * Function Name: CySysWdtReadIgnoreBits
1392:.\Generated_Source\PSoC4/CyLib.c ****     ********************************************************************************
1393:.\Generated_Source\PSoC4/CyLib.c ****     *
1394:.\Generated_Source\PSoC4/CyLib.c ****     * Summary:
1395:.\Generated_Source\PSoC4/CyLib.c ****     *  Reads the number of the  MSB bits of the watchdog timer that are not
1396:.\Generated_Source\PSoC4/CyLib.c ****     *  checked against the match.
1397:.\Generated_Source\PSoC4/CyLib.c ****     *
1398:.\Generated_Source\PSoC4/CyLib.c ****     * Parameters:
1399:.\Generated_Source\PSoC4/CyLib.c ****     *  None
1400:.\Generated_Source\PSoC4/CyLib.c ****     *
1401:.\Generated_Source\PSoC4/CyLib.c ****     * Return:
1402:.\Generated_Source\PSoC4/CyLib.c ****     *  Number of MSB bits.
1403:.\Generated_Source\PSoC4/CyLib.c ****     *
1404:.\Generated_Source\PSoC4/CyLib.c ****     * Side Effects:
1405:.\Generated_Source\PSoC4/CyLib.c ****     *  None
1406:.\Generated_Source\PSoC4/CyLib.c ****     *
1407:.\Generated_Source\PSoC4/CyLib.c ****     *******************************************************************************/
1408:.\Generated_Source\PSoC4/CyLib.c ****     uint32 CySysWdtReadIgnoreBits(void)
1409:.\Generated_Source\PSoC4/CyLib.c ****     {
1410:.\Generated_Source\PSoC4/CyLib.c ****         return((uint32)(CY_SYS_WDT_MATCH_REG  >> 16u) & CY_SYS_WDT_IGNORE_BITS_MASK);
1411:.\Generated_Source\PSoC4/CyLib.c ****     }
1412:.\Generated_Source\PSoC4/CyLib.c **** 
1413:.\Generated_Source\PSoC4/CyLib.c **** 
1414:.\Generated_Source\PSoC4/CyLib.c ****     /*******************************************************************************
1415:.\Generated_Source\PSoC4/CyLib.c ****     * Function Name: CySysWdtClearInterrupt
1416:.\Generated_Source\PSoC4/CyLib.c ****     ********************************************************************************
1417:.\Generated_Source\PSoC4/CyLib.c ****     *
1418:.\Generated_Source\PSoC4/CyLib.c ****     * Summary:
1419:.\Generated_Source\PSoC4/CyLib.c ****     *  Cleans the WDT match flag, which is set every time the WDT counter reaches a
1420:.\Generated_Source\PSoC4/CyLib.c ****     *  WDT match value.
1421:.\Generated_Source\PSoC4/CyLib.c ****     *
1422:.\Generated_Source\PSoC4/CyLib.c ****     * Parameters:
1423:.\Generated_Source\PSoC4/CyLib.c ****     *  None
1424:.\Generated_Source\PSoC4/CyLib.c ****     *
1425:.\Generated_Source\PSoC4/CyLib.c ****     * Return:
1426:.\Generated_Source\PSoC4/CyLib.c ****     *  None
1427:.\Generated_Source\PSoC4/CyLib.c ****     *
1428:.\Generated_Source\PSoC4/CyLib.c ****     * Side Effects:
1429:.\Generated_Source\PSoC4/CyLib.c ****     *  Clearing this bit also feeds the watch dog.  Missing 2 interrupts in a row
1430:.\Generated_Source\PSoC4/CyLib.c ****     *  will generate a brown-out reset.
1431:.\Generated_Source\PSoC4/CyLib.c ****     *
1432:.\Generated_Source\PSoC4/CyLib.c ****     *******************************************************************************/
1433:.\Generated_Source\PSoC4/CyLib.c ****     void CySysWdtClearInterrupt(void)
1434:.\Generated_Source\PSoC4/CyLib.c ****     {
1435:.\Generated_Source\PSoC4/CyLib.c ****         CY_SYS_SRSS_INTR_REG |= CY_SYS_WDT_LOWER_BIT_MASK;
1436:.\Generated_Source\PSoC4/CyLib.c ****     }
1437:.\Generated_Source\PSoC4/CyLib.c **** 
1438:.\Generated_Source\PSoC4/CyLib.c **** 
1439:.\Generated_Source\PSoC4/CyLib.c ****     /*******************************************************************************
1440:.\Generated_Source\PSoC4/CyLib.c ****     * Function Name: CySysWdtMaskInterrupt
1441:.\Generated_Source\PSoC4/CyLib.c ****     ********************************************************************************
1442:.\Generated_Source\PSoC4/CyLib.c ****     *
1443:.\Generated_Source\PSoC4/CyLib.c ****     * Summary:
1444:.\Generated_Source\PSoC4/CyLib.c ****     *  After masking interrupts from the WDT, they are not passed to the CPU.
ARM GAS  C:\DOCUME~1\Chuck\LOCALS~1\Temp\ccVSU8Ya.s 			page 33


1445:.\Generated_Source\PSoC4/CyLib.c ****     *
1446:.\Generated_Source\PSoC4/CyLib.c ****     * Parameters:
1447:.\Generated_Source\PSoC4/CyLib.c ****     *  None
1448:.\Generated_Source\PSoC4/CyLib.c ****     *
1449:.\Generated_Source\PSoC4/CyLib.c ****     * Return:
1450:.\Generated_Source\PSoC4/CyLib.c ****     *  None
1451:.\Generated_Source\PSoC4/CyLib.c ****     *
1452:.\Generated_Source\PSoC4/CyLib.c ****     * Side Effects:
1453:.\Generated_Source\PSoC4/CyLib.c ****     *  This API does not disable the WDT reset generation on 2 missed interrupts.
1454:.\Generated_Source\PSoC4/CyLib.c ****     *
1455:.\Generated_Source\PSoC4/CyLib.c ****     *******************************************************************************/
1456:.\Generated_Source\PSoC4/CyLib.c ****     void CySysWdtMaskInterrupt(void)
1457:.\Generated_Source\PSoC4/CyLib.c ****     {
1458:.\Generated_Source\PSoC4/CyLib.c ****         CY_SYS_SRSS_INTR_MASK_REG &= (uint32)(~ (uint32)CY_SYS_WDT_LOWER_BIT_MASK);
1459:.\Generated_Source\PSoC4/CyLib.c ****     }
1460:.\Generated_Source\PSoC4/CyLib.c **** 
1461:.\Generated_Source\PSoC4/CyLib.c **** 
1462:.\Generated_Source\PSoC4/CyLib.c ****     /*******************************************************************************
1463:.\Generated_Source\PSoC4/CyLib.c ****     * Function Name: CySysWdtUnmaskInterrupt
1464:.\Generated_Source\PSoC4/CyLib.c ****     ********************************************************************************
1465:.\Generated_Source\PSoC4/CyLib.c ****     *
1466:.\Generated_Source\PSoC4/CyLib.c ****     * Summary:
1467:.\Generated_Source\PSoC4/CyLib.c ****     *  Unmasks WDT interrupts.
1468:.\Generated_Source\PSoC4/CyLib.c ****     *
1469:.\Generated_Source\PSoC4/CyLib.c ****     * Parameters:
1470:.\Generated_Source\PSoC4/CyLib.c ****     *  None
1471:.\Generated_Source\PSoC4/CyLib.c ****     *
1472:.\Generated_Source\PSoC4/CyLib.c ****     * Return:
1473:.\Generated_Source\PSoC4/CyLib.c ****     *  None
1474:.\Generated_Source\PSoC4/CyLib.c ****     *
1475:.\Generated_Source\PSoC4/CyLib.c ****     * Side Effects:
1476:.\Generated_Source\PSoC4/CyLib.c ****     *  None
1477:.\Generated_Source\PSoC4/CyLib.c ****     *
1478:.\Generated_Source\PSoC4/CyLib.c ****     *******************************************************************************/
1479:.\Generated_Source\PSoC4/CyLib.c ****     void CySysWdtUnmaskInterrupt(void)
1480:.\Generated_Source\PSoC4/CyLib.c ****     {
1481:.\Generated_Source\PSoC4/CyLib.c ****         CY_SYS_SRSS_INTR_MASK_REG |= CY_SYS_WDT_LOWER_BIT_MASK;
1482:.\Generated_Source\PSoC4/CyLib.c ****     }
1483:.\Generated_Source\PSoC4/CyLib.c **** 
1484:.\Generated_Source\PSoC4/CyLib.c **** #endif /* (CY_PSOC4A) */
1485:.\Generated_Source\PSoC4/CyLib.c **** 
1486:.\Generated_Source\PSoC4/CyLib.c **** 
1487:.\Generated_Source\PSoC4/CyLib.c **** #if(CY_PSOC4A)
1488:.\Generated_Source\PSoC4/CyLib.c **** 
1489:.\Generated_Source\PSoC4/CyLib.c ****     /*******************************************************************************
1490:.\Generated_Source\PSoC4/CyLib.c ****     * Function Name: CySysLvdEnable
1491:.\Generated_Source\PSoC4/CyLib.c ****     ********************************************************************************
1492:.\Generated_Source\PSoC4/CyLib.c ****     *
1493:.\Generated_Source\PSoC4/CyLib.c ****     * Summary:
1494:.\Generated_Source\PSoC4/CyLib.c ****     *  Enables the output of the low-voltage monitor when Vddd is at or below the
1495:.\Generated_Source\PSoC4/CyLib.c ****     *  trip point, configures the device to generate an interrupt, and sets the voltage
1496:.\Generated_Source\PSoC4/CyLib.c ****     *  trip level.
1497:.\Generated_Source\PSoC4/CyLib.c ****     *
1498:.\Generated_Source\PSoC4/CyLib.c ****     * Parameters:
1499:.\Generated_Source\PSoC4/CyLib.c ****     *  threshold: Threshold selection for Low Voltage Detect circuit.
1500:.\Generated_Source\PSoC4/CyLib.c ****     *  Threshold variation is +/- 2.5% from these typical voltage choices.
1501:.\Generated_Source\PSoC4/CyLib.c ****     *         Define                     Voltage threshold
ARM GAS  C:\DOCUME~1\Chuck\LOCALS~1\Temp\ccVSU8Ya.s 			page 34


1502:.\Generated_Source\PSoC4/CyLib.c ****     *    CY_LVD_THRESHOLD_1_75_V       1.7500 V
1503:.\Generated_Source\PSoC4/CyLib.c ****     *    CY_LVD_THRESHOLD_1_80_V       1.8000 V
1504:.\Generated_Source\PSoC4/CyLib.c ****     *    CY_LVD_THRESHOLD_1_90_V       1.9000 V
1505:.\Generated_Source\PSoC4/CyLib.c ****     *    CY_LVD_THRESHOLD_2_00_V       2.0000 V
1506:.\Generated_Source\PSoC4/CyLib.c ****     *    CY_LVD_THRESHOLD_2_10_V       2.1000 V
1507:.\Generated_Source\PSoC4/CyLib.c ****     *    CY_LVD_THRESHOLD_2_20_V       2.2000 V
1508:.\Generated_Source\PSoC4/CyLib.c ****     *    CY_LVD_THRESHOLD_2_30_V       2.3000 V
1509:.\Generated_Source\PSoC4/CyLib.c ****     *    CY_LVD_THRESHOLD_2_40_V       2.4000 V
1510:.\Generated_Source\PSoC4/CyLib.c ****     *    CY_LVD_THRESHOLD_2_50_V       2.5000 V
1511:.\Generated_Source\PSoC4/CyLib.c ****     *    CY_LVD_THRESHOLD_2_60_V       2.6000 V
1512:.\Generated_Source\PSoC4/CyLib.c ****     *    CY_LVD_THRESHOLD_2_70_V       2.7000 V
1513:.\Generated_Source\PSoC4/CyLib.c ****     *    CY_LVD_THRESHOLD_2_80_V       2.8000 V
1514:.\Generated_Source\PSoC4/CyLib.c ****     *    CY_LVD_THRESHOLD_2_90_V       2.9000 V
1515:.\Generated_Source\PSoC4/CyLib.c ****     *    CY_LVD_THRESHOLD_3_00_V       3.0000 V
1516:.\Generated_Source\PSoC4/CyLib.c ****     *    CY_LVD_THRESHOLD_3_20_V       3.2000 V
1517:.\Generated_Source\PSoC4/CyLib.c ****     *    CY_LVD_THRESHOLD_4_50_V       4.5000 V
1518:.\Generated_Source\PSoC4/CyLib.c ****     *
1519:.\Generated_Source\PSoC4/CyLib.c ****     * Return:
1520:.\Generated_Source\PSoC4/CyLib.c ****     *  None
1521:.\Generated_Source\PSoC4/CyLib.c ****     *
1522:.\Generated_Source\PSoC4/CyLib.c ****     *******************************************************************************/
1523:.\Generated_Source\PSoC4/CyLib.c ****     void CySysLvdEnable(uint32 threshold)
1524:.\Generated_Source\PSoC4/CyLib.c ****     {
1525:.\Generated_Source\PSoC4/CyLib.c ****         /* Set threshold */
1526:.\Generated_Source\PSoC4/CyLib.c ****         CY_LVD_PWR_VMON_CONFIG_REG = (CY_LVD_PWR_VMON_CONFIG_REG & ~CY_LVD_PWR_VMON_CONFIG_LVD_SEL_
1527:.\Generated_Source\PSoC4/CyLib.c ****                 ((threshold << CY_LVD_PWR_VMON_CONFIG_LVD_SEL_SHIFT) & CY_LVD_PWR_VMON_CONFIG_LVD_S
1528:.\Generated_Source\PSoC4/CyLib.c **** 
1529:.\Generated_Source\PSoC4/CyLib.c ****         CY_LVD_PWR_VMON_CONFIG_REG |= CY_LVD_PWR_VMON_CONFIG_LVD_EN;
1530:.\Generated_Source\PSoC4/CyLib.c ****         CY_LVD_PWR_INTR_MASK_REG   |= CY_LVD_PROPAGATE_INT_TO_CPU;
1531:.\Generated_Source\PSoC4/CyLib.c ****     }
1532:.\Generated_Source\PSoC4/CyLib.c **** 
1533:.\Generated_Source\PSoC4/CyLib.c **** 
1534:.\Generated_Source\PSoC4/CyLib.c ****     /*******************************************************************************
1535:.\Generated_Source\PSoC4/CyLib.c ****     * Function Name: CySysLvdDisable
1536:.\Generated_Source\PSoC4/CyLib.c ****     ********************************************************************************
1537:.\Generated_Source\PSoC4/CyLib.c ****     *
1538:.\Generated_Source\PSoC4/CyLib.c ****     * Summary:
1539:.\Generated_Source\PSoC4/CyLib.c ****     *  Disables the low voltage detection. A low voltage interrupt is disabled.
1540:.\Generated_Source\PSoC4/CyLib.c ****     *
1541:.\Generated_Source\PSoC4/CyLib.c ****     * Parameters:
1542:.\Generated_Source\PSoC4/CyLib.c ****     *  None
1543:.\Generated_Source\PSoC4/CyLib.c ****     *
1544:.\Generated_Source\PSoC4/CyLib.c ****     * Return:
1545:.\Generated_Source\PSoC4/CyLib.c ****     *  None
1546:.\Generated_Source\PSoC4/CyLib.c ****     *
1547:.\Generated_Source\PSoC4/CyLib.c ****     *******************************************************************************/
1548:.\Generated_Source\PSoC4/CyLib.c ****     void CySysLvdDisable(void)
1549:.\Generated_Source\PSoC4/CyLib.c ****     {
1550:.\Generated_Source\PSoC4/CyLib.c ****         CY_LVD_PWR_INTR_MASK_REG   &= ~CY_LVD_PROPAGATE_INT_TO_CPU;
1551:.\Generated_Source\PSoC4/CyLib.c ****         CY_LVD_PWR_VMON_CONFIG_REG &= ~CY_LVD_PWR_VMON_CONFIG_LVD_EN;
1552:.\Generated_Source\PSoC4/CyLib.c ****     }
1553:.\Generated_Source\PSoC4/CyLib.c **** 
1554:.\Generated_Source\PSoC4/CyLib.c **** 
1555:.\Generated_Source\PSoC4/CyLib.c ****     /*******************************************************************************
1556:.\Generated_Source\PSoC4/CyLib.c ****     * Function Name: CySysLvdGetInterruptSource
1557:.\Generated_Source\PSoC4/CyLib.c ****     ********************************************************************************
1558:.\Generated_Source\PSoC4/CyLib.c ****     *
ARM GAS  C:\DOCUME~1\Chuck\LOCALS~1\Temp\ccVSU8Ya.s 			page 35


1559:.\Generated_Source\PSoC4/CyLib.c ****     * Summary:
1560:.\Generated_Source\PSoC4/CyLib.c ****     *  Gets the low voltage detection interrupt status (without clearing).
1561:.\Generated_Source\PSoC4/CyLib.c ****     *
1562:.\Generated_Source\PSoC4/CyLib.c ****     * Parameters:
1563:.\Generated_Source\PSoC4/CyLib.c ****     *  None
1564:.\Generated_Source\PSoC4/CyLib.c ****     *
1565:.\Generated_Source\PSoC4/CyLib.c ****     * Return:
1566:.\Generated_Source\PSoC4/CyLib.c ****     *  Interrupt request value:
1567:.\Generated_Source\PSoC4/CyLib.c ****     *    CY_SYS_LVD_INT - Indicates an Low Voltage Detect interrupt
1568:.\Generated_Source\PSoC4/CyLib.c ****     *
1569:.\Generated_Source\PSoC4/CyLib.c ****     *******************************************************************************/
1570:.\Generated_Source\PSoC4/CyLib.c ****     uint32 CySysLvdGetInterruptSource(void)
1571:.\Generated_Source\PSoC4/CyLib.c ****     {
1572:.\Generated_Source\PSoC4/CyLib.c ****         return (CY_LVD_PWR_INTR_REG & CY_SYS_LVD_INT);
1573:.\Generated_Source\PSoC4/CyLib.c ****     }
1574:.\Generated_Source\PSoC4/CyLib.c **** 
1575:.\Generated_Source\PSoC4/CyLib.c **** 
1576:.\Generated_Source\PSoC4/CyLib.c ****     /*******************************************************************************
1577:.\Generated_Source\PSoC4/CyLib.c ****     * Function Name: CySysLvdClearInterrupt
1578:.\Generated_Source\PSoC4/CyLib.c ****     ********************************************************************************
1579:.\Generated_Source\PSoC4/CyLib.c ****     *
1580:.\Generated_Source\PSoC4/CyLib.c ****     * Summary:
1581:.\Generated_Source\PSoC4/CyLib.c ****     *  Clears the low voltage detection interrupt status.
1582:.\Generated_Source\PSoC4/CyLib.c ****     *
1583:.\Generated_Source\PSoC4/CyLib.c ****     * Parameters:
1584:.\Generated_Source\PSoC4/CyLib.c ****     *  None
1585:.\Generated_Source\PSoC4/CyLib.c ****     *
1586:.\Generated_Source\PSoC4/CyLib.c ****     * Return:
1587:.\Generated_Source\PSoC4/CyLib.c ****     *  None
1588:.\Generated_Source\PSoC4/CyLib.c ****     *
1589:.\Generated_Source\PSoC4/CyLib.c ****     *******************************************************************************/
1590:.\Generated_Source\PSoC4/CyLib.c ****     void CySysLvdClearInterrupt(void)
1591:.\Generated_Source\PSoC4/CyLib.c ****     {
1592:.\Generated_Source\PSoC4/CyLib.c ****         CY_LVD_PWR_INTR_REG = CY_SYS_LVD_INT;
1593:.\Generated_Source\PSoC4/CyLib.c ****     }
1594:.\Generated_Source\PSoC4/CyLib.c **** 
1595:.\Generated_Source\PSoC4/CyLib.c **** #endif /* (CY_PSOC4A) */
1596:.\Generated_Source\PSoC4/CyLib.c **** 
1597:.\Generated_Source\PSoC4/CyLib.c **** 
1598:.\Generated_Source\PSoC4/CyLib.c **** /*******************************************************************************
1599:.\Generated_Source\PSoC4/CyLib.c **** * Function Name: CySysGetResetReason
1600:.\Generated_Source\PSoC4/CyLib.c **** ********************************************************************************
1601:.\Generated_Source\PSoC4/CyLib.c **** *
1602:.\Generated_Source\PSoC4/CyLib.c **** * Summary:
1603:.\Generated_Source\PSoC4/CyLib.c **** *  Reports the cause for the latest reset(s) that occurred in the system. All the
1604:.\Generated_Source\PSoC4/CyLib.c **** *  bits in the RES_CAUSE register assert when the corresponding reset cause
1605:.\Generated_Source\PSoC4/CyLib.c **** *  occurs and must be cleared by the firmware. These bits are cleared by the hardware
1606:.\Generated_Source\PSoC4/CyLib.c **** *  only during XRES, POR, or a detected brown-out.
1607:.\Generated_Source\PSoC4/CyLib.c **** *
1608:.\Generated_Source\PSoC4/CyLib.c **** * Parameters:
1609:.\Generated_Source\PSoC4/CyLib.c **** *  reason: bits in the RES_CAUSE register to clear.
1610:.\Generated_Source\PSoC4/CyLib.c **** *   CY_SYS_RESET_WDT       - WDT caused a reset
1611:.\Generated_Source\PSoC4/CyLib.c **** *   CY_SYS_RESET_PROTFAULT - A protection violation occurred that requires a RESET
1612:.\Generated_Source\PSoC4/CyLib.c **** *   CY_SYS_RESET_SW        - Cortex-M0 requested a system reset.
1613:.\Generated_Source\PSoC4/CyLib.c **** *
1614:.\Generated_Source\PSoC4/CyLib.c **** * Return:
1615:.\Generated_Source\PSoC4/CyLib.c **** *  Status. Same enumerated bit values as used for the reason parameter.
ARM GAS  C:\DOCUME~1\Chuck\LOCALS~1\Temp\ccVSU8Ya.s 			page 36


1616:.\Generated_Source\PSoC4/CyLib.c **** *
1617:.\Generated_Source\PSoC4/CyLib.c **** *******************************************************************************/
1618:.\Generated_Source\PSoC4/CyLib.c **** uint32 CySysGetResetReason(uint32 reason)
1619:.\Generated_Source\PSoC4/CyLib.c **** {
1620:.\Generated_Source\PSoC4/CyLib.c ****     uint32 status;
1621:.\Generated_Source\PSoC4/CyLib.c **** 
1622:.\Generated_Source\PSoC4/CyLib.c ****     reason &= (CY_SYS_RESET_WDT | CY_SYS_RESET_PROTFAULT | CY_SYS_RESET_SW);
1623:.\Generated_Source\PSoC4/CyLib.c ****     status = CY_SYS_RES_CAUSE_REG &
1624:.\Generated_Source\PSoC4/CyLib.c ****              (CY_SYS_RESET_WDT | CY_SYS_RESET_PROTFAULT | CY_SYS_RESET_SW);
1625:.\Generated_Source\PSoC4/CyLib.c ****     CY_SYS_RES_CAUSE_REG = reason;
1626:.\Generated_Source\PSoC4/CyLib.c **** 
1627:.\Generated_Source\PSoC4/CyLib.c ****     return (status);
1628:.\Generated_Source\PSoC4/CyLib.c **** }
1629:.\Generated_Source\PSoC4/CyLib.c **** 
1630:.\Generated_Source\PSoC4/CyLib.c **** 
1631:.\Generated_Source\PSoC4/CyLib.c **** /*******************************************************************************
1632:.\Generated_Source\PSoC4/CyLib.c **** * Function Name: CyDisableInts
1633:.\Generated_Source\PSoC4/CyLib.c **** ********************************************************************************
1634:.\Generated_Source\PSoC4/CyLib.c **** *
1635:.\Generated_Source\PSoC4/CyLib.c **** * Summary:
1636:.\Generated_Source\PSoC4/CyLib.c **** *  Disables all interrupts.
1637:.\Generated_Source\PSoC4/CyLib.c **** *
1638:.\Generated_Source\PSoC4/CyLib.c **** * Parameters:
1639:.\Generated_Source\PSoC4/CyLib.c **** *  None
1640:.\Generated_Source\PSoC4/CyLib.c **** *
1641:.\Generated_Source\PSoC4/CyLib.c **** * Return:
1642:.\Generated_Source\PSoC4/CyLib.c **** *  32 bit mask of previously enabled interrupts.
1643:.\Generated_Source\PSoC4/CyLib.c **** *
1644:.\Generated_Source\PSoC4/CyLib.c **** *******************************************************************************/
1645:.\Generated_Source\PSoC4/CyLib.c **** uint32 CyDisableInts(void)
1646:.\Generated_Source\PSoC4/CyLib.c **** {
1647:.\Generated_Source\PSoC4/CyLib.c ****     uint32 intState;
1648:.\Generated_Source\PSoC4/CyLib.c **** 
1649:.\Generated_Source\PSoC4/CyLib.c ****     /* Get current interrupt state. */
1650:.\Generated_Source\PSoC4/CyLib.c ****     intState = CY_INT_CLEAR_REG;
1651:.\Generated_Source\PSoC4/CyLib.c **** 
1652:.\Generated_Source\PSoC4/CyLib.c ****     /* Disable all interrupts. */
1653:.\Generated_Source\PSoC4/CyLib.c ****     CY_INT_CLEAR_REG = CY_INT_CLEAR_DISABLE_ALL;
1654:.\Generated_Source\PSoC4/CyLib.c **** 
1655:.\Generated_Source\PSoC4/CyLib.c ****     return (intState);
1656:.\Generated_Source\PSoC4/CyLib.c **** }
1657:.\Generated_Source\PSoC4/CyLib.c **** 
1658:.\Generated_Source\PSoC4/CyLib.c **** 
1659:.\Generated_Source\PSoC4/CyLib.c **** /*******************************************************************************
1660:.\Generated_Source\PSoC4/CyLib.c **** * Function Name: CyEnableInts
1661:.\Generated_Source\PSoC4/CyLib.c **** ********************************************************************************
1662:.\Generated_Source\PSoC4/CyLib.c **** *
1663:.\Generated_Source\PSoC4/CyLib.c **** * Summary:
1664:.\Generated_Source\PSoC4/CyLib.c **** *  Enables interrupts to a given state.
1665:.\Generated_Source\PSoC4/CyLib.c **** *
1666:.\Generated_Source\PSoC4/CyLib.c **** * Parameters:
1667:.\Generated_Source\PSoC4/CyLib.c **** *   mask, 32 bit mask of interrupts to enable.
1668:.\Generated_Source\PSoC4/CyLib.c **** *
1669:.\Generated_Source\PSoC4/CyLib.c **** * Return:
1670:.\Generated_Source\PSoC4/CyLib.c **** *  None
1671:.\Generated_Source\PSoC4/CyLib.c **** *
1672:.\Generated_Source\PSoC4/CyLib.c **** *******************************************************************************/
ARM GAS  C:\DOCUME~1\Chuck\LOCALS~1\Temp\ccVSU8Ya.s 			page 37


1673:.\Generated_Source\PSoC4/CyLib.c **** void CyEnableInts(uint32 mask)
1674:.\Generated_Source\PSoC4/CyLib.c **** {
1675:.\Generated_Source\PSoC4/CyLib.c ****     CY_INT_ENABLE_REG = mask;
1676:.\Generated_Source\PSoC4/CyLib.c **** }
1677:.\Generated_Source\PSoC4/CyLib.c **** 
1678:.\Generated_Source\PSoC4/CyLib.c **** 
1679:.\Generated_Source\PSoC4/CyLib.c **** /*******************************************************************************
1680:.\Generated_Source\PSoC4/CyLib.c **** * Function Name: CyIntSetSysVector
1681:.\Generated_Source\PSoC4/CyLib.c **** ********************************************************************************
1682:.\Generated_Source\PSoC4/CyLib.c **** *
1683:.\Generated_Source\PSoC4/CyLib.c **** * Summary:
1684:.\Generated_Source\PSoC4/CyLib.c **** *  Sets the interrupt vector of the specified system interrupt number. These
1685:.\Generated_Source\PSoC4/CyLib.c **** *  interrupts are for SysTick, PendSV and others.
1686:.\Generated_Source\PSoC4/CyLib.c **** *
1687:.\Generated_Source\PSoC4/CyLib.c **** * Parameters:
1688:.\Generated_Source\PSoC4/CyLib.c **** *  number: Interrupt number, valid range [0-15].
1689:.\Generated_Source\PSoC4/CyLib.c **** *  address: Pointer to an interrupt service routine.
1690:.\Generated_Source\PSoC4/CyLib.c **** *
1691:.\Generated_Source\PSoC4/CyLib.c **** * Return:
1692:.\Generated_Source\PSoC4/CyLib.c **** *  The old ISR vector at this location.
1693:.\Generated_Source\PSoC4/CyLib.c **** *
1694:.\Generated_Source\PSoC4/CyLib.c **** *******************************************************************************/
1695:.\Generated_Source\PSoC4/CyLib.c **** cyisraddress CyIntSetSysVector(uint8 number, cyisraddress address)
1696:.\Generated_Source\PSoC4/CyLib.c **** {
1697:.\Generated_Source\PSoC4/CyLib.c ****     cyisraddress oldIsr;
1698:.\Generated_Source\PSoC4/CyLib.c ****     cyisraddress *ramVectorTable = (cyisraddress *) CY_INT_VECT_TABLE;
1699:.\Generated_Source\PSoC4/CyLib.c **** 
1700:.\Generated_Source\PSoC4/CyLib.c ****     CYASSERT(number < CY_INT_IRQ_BASE);
1701:.\Generated_Source\PSoC4/CyLib.c **** 
1702:.\Generated_Source\PSoC4/CyLib.c ****     /* Save old Interrupt service routine. */
1703:.\Generated_Source\PSoC4/CyLib.c ****     oldIsr = ramVectorTable[number];
1704:.\Generated_Source\PSoC4/CyLib.c **** 
1705:.\Generated_Source\PSoC4/CyLib.c ****     /* Set new Interrupt service routine. */
1706:.\Generated_Source\PSoC4/CyLib.c ****     ramVectorTable[number] = address;
1707:.\Generated_Source\PSoC4/CyLib.c **** 
1708:.\Generated_Source\PSoC4/CyLib.c ****     return(oldIsr);
1709:.\Generated_Source\PSoC4/CyLib.c **** }
1710:.\Generated_Source\PSoC4/CyLib.c **** 
1711:.\Generated_Source\PSoC4/CyLib.c **** 
1712:.\Generated_Source\PSoC4/CyLib.c **** /*******************************************************************************
1713:.\Generated_Source\PSoC4/CyLib.c **** * Function Name: CyIntGetSysVector
1714:.\Generated_Source\PSoC4/CyLib.c **** ********************************************************************************
1715:.\Generated_Source\PSoC4/CyLib.c **** *
1716:.\Generated_Source\PSoC4/CyLib.c **** * Summary:
1717:.\Generated_Source\PSoC4/CyLib.c **** *   Gets the interrupt vector of the specified system interrupt number. These
1718:.\Generated_Source\PSoC4/CyLib.c **** *   interrupts are for SysTick, PendSV and others.
1719:.\Generated_Source\PSoC4/CyLib.c **** *
1720:.\Generated_Source\PSoC4/CyLib.c **** * Parameters:
1721:.\Generated_Source\PSoC4/CyLib.c **** *   number: The interrupt number, valid range [0-15].
1722:.\Generated_Source\PSoC4/CyLib.c **** *
1723:.\Generated_Source\PSoC4/CyLib.c **** * Return:
1724:.\Generated_Source\PSoC4/CyLib.c **** *   Address of the ISR in the interrupt vector table.
1725:.\Generated_Source\PSoC4/CyLib.c **** *
1726:.\Generated_Source\PSoC4/CyLib.c **** *******************************************************************************/
1727:.\Generated_Source\PSoC4/CyLib.c **** cyisraddress CyIntGetSysVector(uint8 number)
1728:.\Generated_Source\PSoC4/CyLib.c **** {
1729:.\Generated_Source\PSoC4/CyLib.c ****     cyisraddress *ramVectorTable = (cyisraddress *) CY_INT_VECT_TABLE;
ARM GAS  C:\DOCUME~1\Chuck\LOCALS~1\Temp\ccVSU8Ya.s 			page 38


1730:.\Generated_Source\PSoC4/CyLib.c **** 
1731:.\Generated_Source\PSoC4/CyLib.c ****     CYASSERT(number < CY_INT_IRQ_BASE);
1732:.\Generated_Source\PSoC4/CyLib.c **** 
1733:.\Generated_Source\PSoC4/CyLib.c ****     return(ramVectorTable[number]);
1734:.\Generated_Source\PSoC4/CyLib.c **** }
1735:.\Generated_Source\PSoC4/CyLib.c **** 
1736:.\Generated_Source\PSoC4/CyLib.c **** 
1737:.\Generated_Source\PSoC4/CyLib.c **** /*******************************************************************************
1738:.\Generated_Source\PSoC4/CyLib.c **** * Function Name: CyIntSetVector
1739:.\Generated_Source\PSoC4/CyLib.c **** ********************************************************************************
1740:.\Generated_Source\PSoC4/CyLib.c **** *
1741:.\Generated_Source\PSoC4/CyLib.c **** * Summary:
1742:.\Generated_Source\PSoC4/CyLib.c **** *  Sets the interrupt vector of the specified interrupt number.
1743:.\Generated_Source\PSoC4/CyLib.c **** *
1744:.\Generated_Source\PSoC4/CyLib.c **** * Parameters:
1745:.\Generated_Source\PSoC4/CyLib.c **** *  number: Valid range [0-31].  Interrupt number
1746:.\Generated_Source\PSoC4/CyLib.c **** *  address: Pointer to an interrupt service routine
1747:.\Generated_Source\PSoC4/CyLib.c **** *
1748:.\Generated_Source\PSoC4/CyLib.c **** * Return:
1749:.\Generated_Source\PSoC4/CyLib.c **** *   Previous interrupt vector value.
1750:.\Generated_Source\PSoC4/CyLib.c **** *
1751:.\Generated_Source\PSoC4/CyLib.c **** *******************************************************************************/
1752:.\Generated_Source\PSoC4/CyLib.c **** cyisraddress CyIntSetVector(uint8 number, cyisraddress address)
1753:.\Generated_Source\PSoC4/CyLib.c **** {
1754:.\Generated_Source\PSoC4/CyLib.c ****     cyisraddress oldIsr;
1755:.\Generated_Source\PSoC4/CyLib.c ****     cyisraddress *ramVectorTable = (cyisraddress *) CY_INT_VECT_TABLE;
1756:.\Generated_Source\PSoC4/CyLib.c **** 
1757:.\Generated_Source\PSoC4/CyLib.c ****     CYASSERT(number < CY_NUM_INTERRUPTS);
1758:.\Generated_Source\PSoC4/CyLib.c **** 
1759:.\Generated_Source\PSoC4/CyLib.c ****     /* Save old Interrupt service routine. */
1760:.\Generated_Source\PSoC4/CyLib.c ****     oldIsr = ramVectorTable[CY_INT_IRQ_BASE + number];
1761:.\Generated_Source\PSoC4/CyLib.c **** 
1762:.\Generated_Source\PSoC4/CyLib.c ****     /* Set new Interrupt service routine. */
1763:.\Generated_Source\PSoC4/CyLib.c ****     ramVectorTable[CY_INT_IRQ_BASE + number] = address;
1764:.\Generated_Source\PSoC4/CyLib.c **** 
1765:.\Generated_Source\PSoC4/CyLib.c ****     return(oldIsr);
1766:.\Generated_Source\PSoC4/CyLib.c **** }
1767:.\Generated_Source\PSoC4/CyLib.c **** 
1768:.\Generated_Source\PSoC4/CyLib.c **** 
1769:.\Generated_Source\PSoC4/CyLib.c **** /*******************************************************************************
1770:.\Generated_Source\PSoC4/CyLib.c **** * Function Name: CyIntGetVector
1771:.\Generated_Source\PSoC4/CyLib.c **** ********************************************************************************
1772:.\Generated_Source\PSoC4/CyLib.c **** *
1773:.\Generated_Source\PSoC4/CyLib.c **** * Summary:
1774:.\Generated_Source\PSoC4/CyLib.c **** *  Gets the interrupt vector of the specified interrupt number.
1775:.\Generated_Source\PSoC4/CyLib.c **** *
1776:.\Generated_Source\PSoC4/CyLib.c **** * Parameters:
1777:.\Generated_Source\PSoC4/CyLib.c **** *  number: Valid range [0-31].  Interrupt number
1778:.\Generated_Source\PSoC4/CyLib.c **** *
1779:.\Generated_Source\PSoC4/CyLib.c **** * Return:
1780:.\Generated_Source\PSoC4/CyLib.c **** *  Address of the ISR in the interrupt vector table.
1781:.\Generated_Source\PSoC4/CyLib.c **** *
1782:.\Generated_Source\PSoC4/CyLib.c **** *******************************************************************************/
1783:.\Generated_Source\PSoC4/CyLib.c **** cyisraddress CyIntGetVector(uint8 number)
1784:.\Generated_Source\PSoC4/CyLib.c **** {
1785:.\Generated_Source\PSoC4/CyLib.c ****     cyisraddress *ramVectorTable = (cyisraddress *) CY_INT_VECT_TABLE;
1786:.\Generated_Source\PSoC4/CyLib.c **** 
ARM GAS  C:\DOCUME~1\Chuck\LOCALS~1\Temp\ccVSU8Ya.s 			page 39


1787:.\Generated_Source\PSoC4/CyLib.c ****     CYASSERT(number < CY_NUM_INTERRUPTS);
1788:.\Generated_Source\PSoC4/CyLib.c **** 
1789:.\Generated_Source\PSoC4/CyLib.c ****     return (ramVectorTable[CY_INT_IRQ_BASE + number]);
1790:.\Generated_Source\PSoC4/CyLib.c **** }
1791:.\Generated_Source\PSoC4/CyLib.c **** 
1792:.\Generated_Source\PSoC4/CyLib.c **** /*******************************************************************************
1793:.\Generated_Source\PSoC4/CyLib.c **** * Function Name: CyIntSetPriority
1794:.\Generated_Source\PSoC4/CyLib.c **** ********************************************************************************
1795:.\Generated_Source\PSoC4/CyLib.c **** *
1796:.\Generated_Source\PSoC4/CyLib.c **** * Summary:
1797:.\Generated_Source\PSoC4/CyLib.c **** *  Sets the priority of the interrupt.
1798:.\Generated_Source\PSoC4/CyLib.c **** *
1799:.\Generated_Source\PSoC4/CyLib.c **** * Parameters:
1800:.\Generated_Source\PSoC4/CyLib.c **** *  priority: Priority of the interrupt. 0 - 3, 0 being the highest.
1801:.\Generated_Source\PSoC4/CyLib.c **** *  number: The number of the interrupt, 0 - 31.
1802:.\Generated_Source\PSoC4/CyLib.c **** *
1803:.\Generated_Source\PSoC4/CyLib.c **** * Return:
1804:.\Generated_Source\PSoC4/CyLib.c **** *  None
1805:.\Generated_Source\PSoC4/CyLib.c **** *
1806:.\Generated_Source\PSoC4/CyLib.c **** *******************************************************************************/
1807:.\Generated_Source\PSoC4/CyLib.c **** void CyIntSetPriority(uint8 number, uint8 priority)
1808:.\Generated_Source\PSoC4/CyLib.c **** {
1809:.\Generated_Source\PSoC4/CyLib.c ****     uint8 interruptState;
1810:.\Generated_Source\PSoC4/CyLib.c ****     uint32 shift;
1811:.\Generated_Source\PSoC4/CyLib.c ****     uint32 value;
1812:.\Generated_Source\PSoC4/CyLib.c **** 
1813:.\Generated_Source\PSoC4/CyLib.c ****     CYASSERT(priority <= CY_MIN_PRIORITY);
1814:.\Generated_Source\PSoC4/CyLib.c ****     CYASSERT(number < CY_NUM_INTERRUPTS);
1815:.\Generated_Source\PSoC4/CyLib.c **** 
1816:.\Generated_Source\PSoC4/CyLib.c ****     shift = CY_INT_PRIORITY_SHIFT(number);
1817:.\Generated_Source\PSoC4/CyLib.c **** 
1818:.\Generated_Source\PSoC4/CyLib.c ****     interruptState = CyEnterCriticalSection();
1819:.\Generated_Source\PSoC4/CyLib.c **** 
1820:.\Generated_Source\PSoC4/CyLib.c ****     value = CY_INT_PRIORITY_REG(number);
1821:.\Generated_Source\PSoC4/CyLib.c ****     value &= (uint32)(~((uint32)(CY_INT_PRIORITY_MASK << shift)));
1822:.\Generated_Source\PSoC4/CyLib.c ****     value |= ((uint32)priority << shift);
1823:.\Generated_Source\PSoC4/CyLib.c ****     CY_INT_PRIORITY_REG(number) = value;
1824:.\Generated_Source\PSoC4/CyLib.c **** 
1825:.\Generated_Source\PSoC4/CyLib.c ****     CyExitCriticalSection(interruptState);
1826:.\Generated_Source\PSoC4/CyLib.c **** }
1827:.\Generated_Source\PSoC4/CyLib.c **** 
1828:.\Generated_Source\PSoC4/CyLib.c **** 
1829:.\Generated_Source\PSoC4/CyLib.c **** /*******************************************************************************
1830:.\Generated_Source\PSoC4/CyLib.c **** * Function Name: CyIntGetPriority
1831:.\Generated_Source\PSoC4/CyLib.c **** ********************************************************************************
1832:.\Generated_Source\PSoC4/CyLib.c **** *
1833:.\Generated_Source\PSoC4/CyLib.c **** * Summary:
1834:.\Generated_Source\PSoC4/CyLib.c **** *  Gets the priority of the interrupt.
1835:.\Generated_Source\PSoC4/CyLib.c **** *
1836:.\Generated_Source\PSoC4/CyLib.c **** * Parameters:
1837:.\Generated_Source\PSoC4/CyLib.c **** *  number: The number of the interrupt, 0 - 31.
1838:.\Generated_Source\PSoC4/CyLib.c **** *
1839:.\Generated_Source\PSoC4/CyLib.c **** * Return:
1840:.\Generated_Source\PSoC4/CyLib.c **** *  Priority of the interrupt. 0 - 3, 0 being the highest.
1841:.\Generated_Source\PSoC4/CyLib.c **** *
1842:.\Generated_Source\PSoC4/CyLib.c **** *******************************************************************************/
1843:.\Generated_Source\PSoC4/CyLib.c **** uint8 CyIntGetPriority(uint8 number)
ARM GAS  C:\DOCUME~1\Chuck\LOCALS~1\Temp\ccVSU8Ya.s 			page 40


1844:.\Generated_Source\PSoC4/CyLib.c **** {
1845:.\Generated_Source\PSoC4/CyLib.c ****     uint8 priority;
1846:.\Generated_Source\PSoC4/CyLib.c **** 
1847:.\Generated_Source\PSoC4/CyLib.c ****     CYASSERT(number < CY_NUM_INTERRUPTS);
1848:.\Generated_Source\PSoC4/CyLib.c **** 
1849:.\Generated_Source\PSoC4/CyLib.c ****     priority = (uint8) (CY_INT_PRIORITY_REG(number) >> CY_INT_PRIORITY_SHIFT(number));
1850:.\Generated_Source\PSoC4/CyLib.c **** 
1851:.\Generated_Source\PSoC4/CyLib.c ****     return (priority & (uint8) CY_INT_PRIORITY_MASK);
1852:.\Generated_Source\PSoC4/CyLib.c **** }
1853:.\Generated_Source\PSoC4/CyLib.c **** 
1854:.\Generated_Source\PSoC4/CyLib.c **** 
1855:.\Generated_Source\PSoC4/CyLib.c **** /*******************************************************************************
1856:.\Generated_Source\PSoC4/CyLib.c **** * Function Name: CyIntEnable
1857:.\Generated_Source\PSoC4/CyLib.c **** ********************************************************************************
1858:.\Generated_Source\PSoC4/CyLib.c **** *
1859:.\Generated_Source\PSoC4/CyLib.c **** * Summary:
1860:.\Generated_Source\PSoC4/CyLib.c **** *  Enables the specified interrupt number.
1861:.\Generated_Source\PSoC4/CyLib.c **** *
1862:.\Generated_Source\PSoC4/CyLib.c **** * Parameters:
1863:.\Generated_Source\PSoC4/CyLib.c **** *  number: Valid range [0-31].  Interrupt number
1864:.\Generated_Source\PSoC4/CyLib.c **** *
1865:.\Generated_Source\PSoC4/CyLib.c **** * Return:
1866:.\Generated_Source\PSoC4/CyLib.c **** *  None
1867:.\Generated_Source\PSoC4/CyLib.c **** *
1868:.\Generated_Source\PSoC4/CyLib.c **** *******************************************************************************/
1869:.\Generated_Source\PSoC4/CyLib.c **** void CyIntEnable(uint8 number)
1870:.\Generated_Source\PSoC4/CyLib.c **** {
1871:.\Generated_Source\PSoC4/CyLib.c ****     CY_INT_ENABLE_REG = ((uint32) 0x01u << (CY_INT_ENABLE_RANGE_MASK & number));
1872:.\Generated_Source\PSoC4/CyLib.c **** }
1873:.\Generated_Source\PSoC4/CyLib.c **** 
1874:.\Generated_Source\PSoC4/CyLib.c **** 
1875:.\Generated_Source\PSoC4/CyLib.c **** /*******************************************************************************
1876:.\Generated_Source\PSoC4/CyLib.c **** * Function Name: CyIntGetState
1877:.\Generated_Source\PSoC4/CyLib.c **** ********************************************************************************
1878:.\Generated_Source\PSoC4/CyLib.c **** *
1879:.\Generated_Source\PSoC4/CyLib.c **** * Summary:
1880:.\Generated_Source\PSoC4/CyLib.c **** *  Gets the enable state of the specified interrupt number.
1881:.\Generated_Source\PSoC4/CyLib.c **** *
1882:.\Generated_Source\PSoC4/CyLib.c **** * Parameters:
1883:.\Generated_Source\PSoC4/CyLib.c **** *  number: Valid range [0-31].  Interrupt number.
1884:.\Generated_Source\PSoC4/CyLib.c **** *
1885:.\Generated_Source\PSoC4/CyLib.c **** * Return:
1886:.\Generated_Source\PSoC4/CyLib.c **** *  Enable status: 1 if enabled, 0 if disabled
1887:.\Generated_Source\PSoC4/CyLib.c **** *
1888:.\Generated_Source\PSoC4/CyLib.c **** *******************************************************************************/
1889:.\Generated_Source\PSoC4/CyLib.c **** uint8 CyIntGetState(uint8 number)
1890:.\Generated_Source\PSoC4/CyLib.c **** {
1891:.\Generated_Source\PSoC4/CyLib.c ****     /* Get state of interrupt. */
1892:.\Generated_Source\PSoC4/CyLib.c ****     return ((0u != (CY_INT_ENABLE_REG & ((uint32) 0x01u << (CY_INT_ENABLE_RANGE_MASK & number)))) ?
1893:.\Generated_Source\PSoC4/CyLib.c **** }
1894:.\Generated_Source\PSoC4/CyLib.c **** 
1895:.\Generated_Source\PSoC4/CyLib.c **** 
1896:.\Generated_Source\PSoC4/CyLib.c **** /*******************************************************************************
1897:.\Generated_Source\PSoC4/CyLib.c **** * Function Name: CyIntDisable
1898:.\Generated_Source\PSoC4/CyLib.c **** ********************************************************************************
1899:.\Generated_Source\PSoC4/CyLib.c **** *
1900:.\Generated_Source\PSoC4/CyLib.c **** * Summary:
ARM GAS  C:\DOCUME~1\Chuck\LOCALS~1\Temp\ccVSU8Ya.s 			page 41


1901:.\Generated_Source\PSoC4/CyLib.c **** *   Disables the specified interrupt number.
1902:.\Generated_Source\PSoC4/CyLib.c **** *
1903:.\Generated_Source\PSoC4/CyLib.c **** * Parameters:
1904:.\Generated_Source\PSoC4/CyLib.c **** *   number: Valid range [0-31].  Interrupt number.
1905:.\Generated_Source\PSoC4/CyLib.c **** *
1906:.\Generated_Source\PSoC4/CyLib.c **** * Return:
1907:.\Generated_Source\PSoC4/CyLib.c **** *  None
1908:.\Generated_Source\PSoC4/CyLib.c **** *
1909:.\Generated_Source\PSoC4/CyLib.c **** *******************************************************************************/
1910:.\Generated_Source\PSoC4/CyLib.c **** void CyIntDisable(uint8 number)
1911:.\Generated_Source\PSoC4/CyLib.c **** {
1912:.\Generated_Source\PSoC4/CyLib.c ****     CY_INT_CLEAR_REG = ((uint32) 0x01u << (CY_INT_ENABLE_RANGE_MASK & number));
1913:.\Generated_Source\PSoC4/CyLib.c **** }
1914:.\Generated_Source\PSoC4/CyLib.c **** 
1915:.\Generated_Source\PSoC4/CyLib.c **** /*******************************************************************************
1916:.\Generated_Source\PSoC4/CyLib.c **** * Function Name: CyIntSetPending
1917:.\Generated_Source\PSoC4/CyLib.c **** ********************************************************************************
1918:.\Generated_Source\PSoC4/CyLib.c **** *
1919:.\Generated_Source\PSoC4/CyLib.c **** * Summary:
1920:.\Generated_Source\PSoC4/CyLib.c **** *  Forces the specified interrupt number to be pending.
1921:.\Generated_Source\PSoC4/CyLib.c **** *
1922:.\Generated_Source\PSoC4/CyLib.c **** * Parameters:
1923:.\Generated_Source\PSoC4/CyLib.c **** *  number: Valid range [0-31].  Interrupt number.
1924:.\Generated_Source\PSoC4/CyLib.c **** *
1925:.\Generated_Source\PSoC4/CyLib.c **** * Return:
1926:.\Generated_Source\PSoC4/CyLib.c **** *  None
1927:.\Generated_Source\PSoC4/CyLib.c **** *
1928:.\Generated_Source\PSoC4/CyLib.c **** *******************************************************************************/
1929:.\Generated_Source\PSoC4/CyLib.c **** void CyIntSetPending(uint8 number)
1930:.\Generated_Source\PSoC4/CyLib.c **** {
1931:.\Generated_Source\PSoC4/CyLib.c ****     CY_INT_SET_PEND_REG = ((uint32) 0x01u << (CY_INT_ENABLE_RANGE_MASK & number));
1932:.\Generated_Source\PSoC4/CyLib.c **** }
1933:.\Generated_Source\PSoC4/CyLib.c **** 
1934:.\Generated_Source\PSoC4/CyLib.c **** 
1935:.\Generated_Source\PSoC4/CyLib.c **** /*******************************************************************************
1936:.\Generated_Source\PSoC4/CyLib.c **** * Function Name: CyIntClearPending
1937:.\Generated_Source\PSoC4/CyLib.c **** ********************************************************************************
1938:.\Generated_Source\PSoC4/CyLib.c **** *
1939:.\Generated_Source\PSoC4/CyLib.c **** * Summary:
1940:.\Generated_Source\PSoC4/CyLib.c **** *  Clears any pending interrupt for the specified interrupt number.
1941:.\Generated_Source\PSoC4/CyLib.c **** *
1942:.\Generated_Source\PSoC4/CyLib.c **** * Parameters:
1943:.\Generated_Source\PSoC4/CyLib.c **** *  number: Valid range [0-31].  Interrupt number.
1944:.\Generated_Source\PSoC4/CyLib.c **** *
1945:.\Generated_Source\PSoC4/CyLib.c **** * Return:
1946:.\Generated_Source\PSoC4/CyLib.c **** *  None
1947:.\Generated_Source\PSoC4/CyLib.c **** *
1948:.\Generated_Source\PSoC4/CyLib.c **** *******************************************************************************/
1949:.\Generated_Source\PSoC4/CyLib.c **** void CyIntClearPending(uint8 number)
1950:.\Generated_Source\PSoC4/CyLib.c **** {
1951:.\Generated_Source\PSoC4/CyLib.c ****     CY_INT_CLR_PEND_REG = ((uint32) 0x01u << (CY_INT_ENABLE_RANGE_MASK & number));
1952:.\Generated_Source\PSoC4/CyLib.c **** }
1953:.\Generated_Source\PSoC4/CyLib.c **** 
1954:.\Generated_Source\PSoC4/CyLib.c **** 
1955:.\Generated_Source\PSoC4/CyLib.c **** /*******************************************************************************
1956:.\Generated_Source\PSoC4/CyLib.c **** * Function Name: CyHalt
1957:.\Generated_Source\PSoC4/CyLib.c **** ********************************************************************************
ARM GAS  C:\DOCUME~1\Chuck\LOCALS~1\Temp\ccVSU8Ya.s 			page 42


1958:.\Generated_Source\PSoC4/CyLib.c **** *
1959:.\Generated_Source\PSoC4/CyLib.c **** * Summary:
1960:.\Generated_Source\PSoC4/CyLib.c **** *  Halts the CPU.
1961:.\Generated_Source\PSoC4/CyLib.c **** *
1962:.\Generated_Source\PSoC4/CyLib.c **** * Parameters:
1963:.\Generated_Source\PSoC4/CyLib.c **** *  reason: Value to be used during debugging.
1964:.\Generated_Source\PSoC4/CyLib.c **** *
1965:.\Generated_Source\PSoC4/CyLib.c **** * Return:
1966:.\Generated_Source\PSoC4/CyLib.c **** *  None
1967:.\Generated_Source\PSoC4/CyLib.c **** *
1968:.\Generated_Source\PSoC4/CyLib.c **** *******************************************************************************/
1969:.\Generated_Source\PSoC4/CyLib.c **** void CyHalt(uint8 reason)
1970:.\Generated_Source\PSoC4/CyLib.c **** {
1971:.\Generated_Source\PSoC4/CyLib.c ****     if(0u != reason)
1972:.\Generated_Source\PSoC4/CyLib.c ****     {
1973:.\Generated_Source\PSoC4/CyLib.c ****         /* To remove unreferenced local variable warning */
1974:.\Generated_Source\PSoC4/CyLib.c ****     }
1975:.\Generated_Source\PSoC4/CyLib.c **** 
1976:.\Generated_Source\PSoC4/CyLib.c ****     #if defined (__ARMCC_VERSION)
1977:.\Generated_Source\PSoC4/CyLib.c ****         __breakpoint(0x0);
1978:.\Generated_Source\PSoC4/CyLib.c ****     #elif defined(__GNUC__) || defined (__ICCARM__)
1979:.\Generated_Source\PSoC4/CyLib.c ****         __asm("    bkpt    1");
 367              		.loc 1 1979 0
 368              	@ 1979 ".\Generated_Source\PSoC4\CyLib.c" 1
 369 0004 01BE     		    bkpt    1
 370              	@ 0 "" 2
 371              	.LVL20:
 372              		.code	16
 373              	.L29:
 374              	.LBE35:
 375              	.LBE34:
 586:.\Generated_Source\PSoC4/CyLib.c ****         return ((CY_SYS_WDT_CONTROL_REG >> ((CY_SYS_WDT_CNT_SHIFT * counterNum) + CY_SYS_WDT_CNT_ST
 376              		.loc 1 586 0
 377 0006 044B     		ldr	r3, .L30
 378 0008 C000     		lsl	r0, r0, #3
 379              	.LVL21:
 380 000a 1B68     		ldr	r3, [r3]
 381 000c 0130     		add	r0, r0, #1
 382 000e C340     		lsr	r3, r3, r0
 383 0010 181C     		mov	r0, r3
 384 0012 0123     		mov	r3, #1
 587:.\Generated_Source\PSoC4/CyLib.c **** 
 385              		.loc 1 587 0
 386              		@ sp needed
 586:.\Generated_Source\PSoC4/CyLib.c ****         return ((CY_SYS_WDT_CONTROL_REG >> ((CY_SYS_WDT_CNT_SHIFT * counterNum) + CY_SYS_WDT_CNT_ST
 387              		.loc 1 586 0
 388 0014 1840     		and	r0, r3
 587:.\Generated_Source\PSoC4/CyLib.c **** 
 389              		.loc 1 587 0
 390 0016 7047     		bx	lr
 391              	.L31:
 392              		.align	2
 393              	.L30:
 394 0018 10020B40 		.word	1074463248
 395              		.cfi_endproc
 396              	.LFE9:
 397              		.size	CySysWdtReadEnabledStatus, .-CySysWdtReadEnabledStatus
ARM GAS  C:\DOCUME~1\Chuck\LOCALS~1\Temp\ccVSU8Ya.s 			page 43


 398              		.section	.text.CySysWdtWriteMode,"ax",%progbits
 399              		.align	1
 400              		.global	CySysWdtWriteMode
 401              		.code	16
 402              		.thumb_func
 403              		.type	CySysWdtWriteMode, %function
 404              	CySysWdtWriteMode:
 405              	.LFB10:
 619:.\Generated_Source\PSoC4/CyLib.c ****         uint32 configRegValue;
 406              		.loc 1 619 0
 407              		.cfi_startproc
 408              	.LVL22:
 409 0000 38B5     		push	{r3, r4, r5, lr}
 410              		.cfi_def_cfa_offset 16
 411              		.cfi_offset 3, -16
 412              		.cfi_offset 4, -12
 413              		.cfi_offset 5, -8
 414              		.cfi_offset 14, -4
 619:.\Generated_Source\PSoC4/CyLib.c ****         uint32 configRegValue;
 415              		.loc 1 619 0
 416 0002 041C     		mov	r4, r0
 417 0004 0D1C     		mov	r5, r1
 622:.\Generated_Source\PSoC4/CyLib.c **** 
 418              		.loc 1 622 0
 419 0006 0228     		cmp	r0, #2
 420 0008 00D9     		bls	.L33
 421              	.LVL23:
 422              	.LBB36:
 423              	.LBB37:
 424              		.loc 1 1979 0
 425              	@ 1979 ".\Generated_Source\PSoC4\CyLib.c" 1
 426 000a 01BE     		    bkpt    1
 427              	@ 0 "" 2
 428              	.LVL24:
 429              		.code	16
 430              	.L33:
 431              	.LBE37:
 432              	.LBE36:
 627:.\Generated_Source\PSoC4/CyLib.c ****         {
 433              		.loc 1 627 0
 434 000c 0B4B     		ldr	r3, .L36
 435 000e 1B68     		ldr	r3, [r3]
 436 0010 002B     		cmp	r3, #0
 437 0012 01DB     		blt	.L34
 629:.\Generated_Source\PSoC4/CyLib.c ****         }
 438              		.loc 1 629 0
 439 0014 FFF7FEFF 		bl	CySysClkIloStart
 440              	.LVL25:
 441              	.L34:
 632:.\Generated_Source\PSoC4/CyLib.c ****         {
 442              		.loc 1 632 0
 443 0018 201C     		mov	r0, r4
 444 001a FFF7FEFF 		bl	CySysWdtReadEnabledStatus
 445              	.LVL26:
 446 001e 0028     		cmp	r0, #0
 447 0020 0AD1     		bne	.L32
 635:.\Generated_Source\PSoC4/CyLib.c ****             configRegValue |= (uint32)((mode & CY_SYS_WDT_MODE_MASK) << (counterNum * CY_SYS_WDT_CN
ARM GAS  C:\DOCUME~1\Chuck\LOCALS~1\Temp\ccVSU8Ya.s 			page 44


 448              		.loc 1 635 0
 449 0022 0321     		mov	r1, #3
 450 0024 081C     		mov	r0, r1
 451 0026 E400     		lsl	r4, r4, #3
 452              	.LVL27:
 453 0028 A040     		lsl	r0, r0, r4
 636:.\Generated_Source\PSoC4/CyLib.c ****             CY_SYS_WDT_CONFIG_REG = configRegValue;
 454              		.loc 1 636 0
 455 002a 2940     		and	r1, r5
 456 002c A140     		lsl	r1, r1, r4
 634:.\Generated_Source\PSoC4/CyLib.c ****                                 (uint32)~((uint32)(CY_SYS_WDT_MODE_MASK << (counterNum * CY_SYS_WDT
 457              		.loc 1 634 0
 458 002e 044A     		ldr	r2, .L36+4
 459 0030 1368     		ldr	r3, [r2]
 460 0032 8343     		bic	r3, r0
 461              	.LVL28:
 636:.\Generated_Source\PSoC4/CyLib.c ****             CY_SYS_WDT_CONFIG_REG = configRegValue;
 462              		.loc 1 636 0
 463 0034 1943     		orr	r1, r3
 464              	.LVL29:
 637:.\Generated_Source\PSoC4/CyLib.c ****         }
 465              		.loc 1 637 0
 466 0036 1160     		str	r1, [r2]
 467              	.LVL30:
 468              	.L32:
 639:.\Generated_Source\PSoC4/CyLib.c **** 
 469              		.loc 1 639 0
 470              		@ sp needed
 471              	.LVL31:
 472 0038 38BD     		pop	{r3, r4, r5, pc}
 473              	.L37:
 474 003a C046     		.align	2
 475              	.L36:
 476 003c 04010B40 		.word	1074462980
 477 0040 0C020B40 		.word	1074463244
 478              		.cfi_endproc
 479              	.LFE10:
 480              		.size	CySysWdtWriteMode, .-CySysWdtWriteMode
 481              		.section	.text.CySysWdtReadMode,"ax",%progbits
 482              		.align	1
 483              		.global	CySysWdtReadMode
 484              		.code	16
 485              		.thumb_func
 486              		.type	CySysWdtReadMode, %function
 487              	CySysWdtReadMode:
 488              	.LFB11:
 658:.\Generated_Source\PSoC4/CyLib.c ****         return ((CY_SYS_WDT_CONFIG_REG >> (counterNum * CY_SYS_WDT_CNT_SHIFT)) & CY_SYS_WDT_MODE_MA
 489              		.loc 1 658 0
 490              		.cfi_startproc
 491              	.LVL32:
 659:.\Generated_Source\PSoC4/CyLib.c ****     }
 492              		.loc 1 659 0
 493 0000 034B     		ldr	r3, .L39
 494 0002 C000     		lsl	r0, r0, #3
 495              	.LVL33:
 496 0004 1B68     		ldr	r3, [r3]
 660:.\Generated_Source\PSoC4/CyLib.c **** 
ARM GAS  C:\DOCUME~1\Chuck\LOCALS~1\Temp\ccVSU8Ya.s 			page 45


 497              		.loc 1 660 0
 498              		@ sp needed
 659:.\Generated_Source\PSoC4/CyLib.c ****     }
 499              		.loc 1 659 0
 500 0006 C340     		lsr	r3, r3, r0
 501 0008 181C     		mov	r0, r3
 502 000a 0323     		mov	r3, #3
 503 000c 1840     		and	r0, r3
 660:.\Generated_Source\PSoC4/CyLib.c **** 
 504              		.loc 1 660 0
 505 000e 7047     		bx	lr
 506              	.L40:
 507              		.align	2
 508              	.L39:
 509 0010 0C020B40 		.word	1074463244
 510              		.cfi_endproc
 511              	.LFE11:
 512              		.size	CySysWdtReadMode, .-CySysWdtReadMode
 513              		.section	.text.CySysWdtWriteClearOnMatch,"ax",%progbits
 514              		.align	1
 515              		.global	CySysWdtWriteClearOnMatch
 516              		.code	16
 517              		.thumb_func
 518              		.type	CySysWdtWriteClearOnMatch, %function
 519              	CySysWdtWriteClearOnMatch:
 520              	.LFB12:
 691:.\Generated_Source\PSoC4/CyLib.c ****         CYASSERT((counterNum == CY_SYS_WDT_COUNTER0) ||
 521              		.loc 1 691 0
 522              		.cfi_startproc
 523              	.LVL34:
 524 0000 38B5     		push	{r3, r4, r5, lr}
 525              		.cfi_def_cfa_offset 16
 526              		.cfi_offset 3, -16
 527              		.cfi_offset 4, -12
 528              		.cfi_offset 5, -8
 529              		.cfi_offset 14, -4
 691:.\Generated_Source\PSoC4/CyLib.c ****         CYASSERT((counterNum == CY_SYS_WDT_COUNTER0) ||
 530              		.loc 1 691 0
 531 0002 041C     		mov	r4, r0
 532 0004 0D1C     		mov	r5, r1
 692:.\Generated_Source\PSoC4/CyLib.c ****                                              (counterNum == CY_SYS_WDT_COUNTER1));
 533              		.loc 1 692 0
 534 0006 0128     		cmp	r0, #1
 535 0008 00D9     		bls	.L42
 536              	.LVL35:
 537              	.LBB38:
 538              	.LBB39:
 539              		.loc 1 1979 0
 540              	@ 1979 ".\Generated_Source\PSoC4\CyLib.c" 1
 541 000a 01BE     		    bkpt    1
 542              	@ 0 "" 2
 543              	.LVL36:
 544              		.code	16
 545              	.L42:
 546              	.LBE39:
 547              	.LBE38:
 698:.\Generated_Source\PSoC4/CyLib.c ****         {
ARM GAS  C:\DOCUME~1\Chuck\LOCALS~1\Temp\ccVSU8Ya.s 			page 46


 548              		.loc 1 698 0
 549 000c 094B     		ldr	r3, .L45
 550 000e 1B68     		ldr	r3, [r3]
 551 0010 002B     		cmp	r3, #0
 552 0012 01DB     		blt	.L43
 700:.\Generated_Source\PSoC4/CyLib.c ****         }
 553              		.loc 1 700 0
 554 0014 FFF7FEFF 		bl	CySysClkIloStart
 555              	.LVL37:
 556              	.L43:
 703:.\Generated_Source\PSoC4/CyLib.c ****         {
 557              		.loc 1 703 0
 558 0018 201C     		mov	r0, r4
 559 001a FFF7FEFF 		bl	CySysWdtReadEnabledStatus
 560              	.LVL38:
 561 001e 0028     		cmp	r0, #0
 562 0020 07D1     		bne	.L41
 705:.\Generated_Source\PSoC4/CyLib.c ****                                                             CY_SYS_WDT_CNT_MATCH_CLR_SHIFT));
 563              		.loc 1 705 0
 564 0022 E400     		lsl	r4, r4, #3
 565              	.LVL39:
 566 0024 0234     		add	r4, r4, #2
 567 0026 A540     		lsl	r5, r5, r4
 568              	.LVL40:
 569 0028 2C1C     		mov	r4, r5
 570 002a 034A     		ldr	r2, .L45+4
 571 002c 1368     		ldr	r3, [r2]
 572 002e 1C43     		orr	r4, r3
 573 0030 1460     		str	r4, [r2]
 574              	.L41:
 708:.\Generated_Source\PSoC4/CyLib.c **** 
 575              		.loc 1 708 0
 576              		@ sp needed
 577 0032 38BD     		pop	{r3, r4, r5, pc}
 578              	.L46:
 579              		.align	2
 580              	.L45:
 581 0034 04010B40 		.word	1074462980
 582 0038 0C020B40 		.word	1074463244
 583              		.cfi_endproc
 584              	.LFE12:
 585              		.size	CySysWdtWriteClearOnMatch, .-CySysWdtWriteClearOnMatch
 586              		.section	.text.CySysWdtReadClearOnMatch,"ax",%progbits
 587              		.align	1
 588              		.global	CySysWdtReadClearOnMatch
 589              		.code	16
 590              		.thumb_func
 591              		.type	CySysWdtReadClearOnMatch, %function
 592              	CySysWdtReadClearOnMatch:
 593              	.LFB13:
 727:.\Generated_Source\PSoC4/CyLib.c ****         CYASSERT((counterNum == CY_SYS_WDT_COUNTER0) ||
 594              		.loc 1 727 0
 595              		.cfi_startproc
 596              	.LVL41:
 728:.\Generated_Source\PSoC4/CyLib.c ****                                              (counterNum == CY_SYS_WDT_COUNTER1));
 597              		.loc 1 728 0
 598 0000 0128     		cmp	r0, #1
ARM GAS  C:\DOCUME~1\Chuck\LOCALS~1\Temp\ccVSU8Ya.s 			page 47


 599 0002 00D9     		bls	.L48
 600              	.LVL42:
 601              	.LBB40:
 602              	.LBB41:
 603              		.loc 1 1979 0
 604              	@ 1979 ".\Generated_Source\PSoC4\CyLib.c" 1
 605 0004 01BE     		    bkpt    1
 606              	@ 0 "" 2
 607              	.LVL43:
 608              		.code	16
 609              	.L48:
 610              	.LBE41:
 611              	.LBE40:
 731:.\Generated_Source\PSoC4/CyLib.c ****                             ((counterNum * CY_SYS_WDT_CNT_SHIFT) + CY_SYS_WDT_CNT_MATCH_CLR_SHIFT))
 612              		.loc 1 731 0
 613 0006 044B     		ldr	r3, .L49
 732:.\Generated_Source\PSoC4/CyLib.c ****     }
 614              		.loc 1 732 0
 615 0008 C000     		lsl	r0, r0, #3
 616              	.LVL44:
 731:.\Generated_Source\PSoC4/CyLib.c ****                             ((counterNum * CY_SYS_WDT_CNT_SHIFT) + CY_SYS_WDT_CNT_MATCH_CLR_SHIFT))
 617              		.loc 1 731 0
 618 000a 1B68     		ldr	r3, [r3]
 732:.\Generated_Source\PSoC4/CyLib.c ****     }
 619              		.loc 1 732 0
 620 000c 0230     		add	r0, r0, #2
 731:.\Generated_Source\PSoC4/CyLib.c ****                             ((counterNum * CY_SYS_WDT_CNT_SHIFT) + CY_SYS_WDT_CNT_MATCH_CLR_SHIFT))
 621              		.loc 1 731 0
 622 000e C340     		lsr	r3, r3, r0
 623 0010 181C     		mov	r0, r3
 624 0012 0123     		mov	r3, #1
 733:.\Generated_Source\PSoC4/CyLib.c **** 
 625              		.loc 1 733 0
 626              		@ sp needed
 731:.\Generated_Source\PSoC4/CyLib.c ****                             ((counterNum * CY_SYS_WDT_CNT_SHIFT) + CY_SYS_WDT_CNT_MATCH_CLR_SHIFT))
 627              		.loc 1 731 0
 628 0014 1840     		and	r0, r3
 733:.\Generated_Source\PSoC4/CyLib.c **** 
 629              		.loc 1 733 0
 630 0016 7047     		bx	lr
 631              	.L50:
 632              		.align	2
 633              	.L49:
 634 0018 0C020B40 		.word	1074463244
 635              		.cfi_endproc
 636              	.LFE13:
 637              		.size	CySysWdtReadClearOnMatch, .-CySysWdtReadClearOnMatch
 638              		.section	.text.CySysWdtEnable,"ax",%progbits
 639              		.align	1
 640              		.global	CySysWdtEnable
 641              		.code	16
 642              		.thumb_func
 643              		.type	CySysWdtEnable, %function
 644              	CySysWdtEnable:
 645              	.LFB14:
 760:.\Generated_Source\PSoC4/CyLib.c ****         /* Configuring WDT involves passing control signals between clock domains,
 646              		.loc 1 760 0
ARM GAS  C:\DOCUME~1\Chuck\LOCALS~1\Temp\ccVSU8Ya.s 			page 48


 647              		.cfi_startproc
 648              	.LVL45:
 764:.\Generated_Source\PSoC4/CyLib.c ****         {
 649              		.loc 1 764 0
 650 0000 064B     		ldr	r3, .L53
 760:.\Generated_Source\PSoC4/CyLib.c ****         /* Configuring WDT involves passing control signals between clock domains,
 651              		.loc 1 760 0
 652 0002 10B5     		push	{r4, lr}
 653              		.cfi_def_cfa_offset 8
 654              		.cfi_offset 4, -8
 655              		.cfi_offset 14, -4
 764:.\Generated_Source\PSoC4/CyLib.c ****         {
 656              		.loc 1 764 0
 657 0004 1B68     		ldr	r3, [r3]
 760:.\Generated_Source\PSoC4/CyLib.c ****         /* Configuring WDT involves passing control signals between clock domains,
 658              		.loc 1 760 0
 659 0006 041C     		mov	r4, r0
 764:.\Generated_Source\PSoC4/CyLib.c ****         {
 660              		.loc 1 764 0
 661 0008 002B     		cmp	r3, #0
 662 000a 01DB     		blt	.L52
 766:.\Generated_Source\PSoC4/CyLib.c ****         }
 663              		.loc 1 766 0
 664 000c FFF7FEFF 		bl	CySysClkIloStart
 665              	.LVL46:
 666              	.L52:
 769:.\Generated_Source\PSoC4/CyLib.c ****     }
 667              		.loc 1 769 0
 668 0010 034B     		ldr	r3, .L53+4
 770:.\Generated_Source\PSoC4/CyLib.c **** 
 669              		.loc 1 770 0
 670              		@ sp needed
 769:.\Generated_Source\PSoC4/CyLib.c ****     }
 671              		.loc 1 769 0
 672 0012 1868     		ldr	r0, [r3]
 673 0014 2043     		orr	r0, r4
 674 0016 1860     		str	r0, [r3]
 675              	.LVL47:
 770:.\Generated_Source\PSoC4/CyLib.c **** 
 676              		.loc 1 770 0
 677 0018 10BD     		pop	{r4, pc}
 678              	.L54:
 679 001a C046     		.align	2
 680              	.L53:
 681 001c 04010B40 		.word	1074462980
 682 0020 10020B40 		.word	1074463248
 683              		.cfi_endproc
 684              	.LFE14:
 685              		.size	CySysWdtEnable, .-CySysWdtEnable
 686              		.section	.text.CySysWdtDisable,"ax",%progbits
 687              		.align	1
 688              		.global	CySysWdtDisable
 689              		.code	16
 690              		.thumb_func
 691              		.type	CySysWdtDisable, %function
 692              	CySysWdtDisable:
 693              	.LFB15:
ARM GAS  C:\DOCUME~1\Chuck\LOCALS~1\Temp\ccVSU8Ya.s 			page 49


 797:.\Generated_Source\PSoC4/CyLib.c ****         /* Configuring WDT involves passing control signals between clock domains,
 694              		.loc 1 797 0
 695              		.cfi_startproc
 696              	.LVL48:
 801:.\Generated_Source\PSoC4/CyLib.c ****         {
 697              		.loc 1 801 0
 698 0000 064B     		ldr	r3, .L57
 797:.\Generated_Source\PSoC4/CyLib.c ****         /* Configuring WDT involves passing control signals between clock domains,
 699              		.loc 1 797 0
 700 0002 10B5     		push	{r4, lr}
 701              		.cfi_def_cfa_offset 8
 702              		.cfi_offset 4, -8
 703              		.cfi_offset 14, -4
 801:.\Generated_Source\PSoC4/CyLib.c ****         {
 704              		.loc 1 801 0
 705 0004 1B68     		ldr	r3, [r3]
 797:.\Generated_Source\PSoC4/CyLib.c ****         /* Configuring WDT involves passing control signals between clock domains,
 706              		.loc 1 797 0
 707 0006 041C     		mov	r4, r0
 801:.\Generated_Source\PSoC4/CyLib.c ****         {
 708              		.loc 1 801 0
 709 0008 002B     		cmp	r3, #0
 710 000a 01DB     		blt	.L56
 803:.\Generated_Source\PSoC4/CyLib.c ****         }
 711              		.loc 1 803 0
 712 000c FFF7FEFF 		bl	CySysClkIloStart
 713              	.LVL49:
 714              	.L56:
 806:.\Generated_Source\PSoC4/CyLib.c ****     }
 715              		.loc 1 806 0
 716 0010 034A     		ldr	r2, .L57+4
 807:.\Generated_Source\PSoC4/CyLib.c **** 
 717              		.loc 1 807 0
 718              		@ sp needed
 806:.\Generated_Source\PSoC4/CyLib.c ****     }
 719              		.loc 1 806 0
 720 0012 1368     		ldr	r3, [r2]
 721 0014 A343     		bic	r3, r4
 722 0016 1360     		str	r3, [r2]
 723              	.LVL50:
 807:.\Generated_Source\PSoC4/CyLib.c **** 
 724              		.loc 1 807 0
 725 0018 10BD     		pop	{r4, pc}
 726              	.L58:
 727 001a C046     		.align	2
 728              	.L57:
 729 001c 04010B40 		.word	1074462980
 730 0020 10020B40 		.word	1074463248
 731              		.cfi_endproc
 732              	.LFE15:
 733              		.size	CySysWdtDisable, .-CySysWdtDisable
 734              		.section	.text.CySysWdtWriteCascade,"ax",%progbits
 735              		.align	1
 736              		.global	CySysWdtWriteCascade
 737              		.code	16
 738              		.thumb_func
 739              		.type	CySysWdtWriteCascade, %function
ARM GAS  C:\DOCUME~1\Chuck\LOCALS~1\Temp\ccVSU8Ya.s 			page 50


 740              	CySysWdtWriteCascade:
 741              	.LFB16:
 836:.\Generated_Source\PSoC4/CyLib.c ****         uint32 configRegValue;
 742              		.loc 1 836 0
 743              		.cfi_startproc
 744              	.LVL51:
 745              	.LBB54:
 746              	.LBB55:
 586:.\Generated_Source\PSoC4/CyLib.c ****     }
 747              		.loc 1 586 0
 748 0000 0C4A     		ldr	r2, .L62
 749              	.LBE55:
 750              	.LBE54:
 836:.\Generated_Source\PSoC4/CyLib.c ****         uint32 configRegValue;
 751              		.loc 1 836 0
 752 0002 10B5     		push	{r4, lr}
 753              		.cfi_def_cfa_offset 8
 754              		.cfi_offset 4, -8
 755              		.cfi_offset 14, -4
 756              	.LBB58:
 757              	.LBB56:
 586:.\Generated_Source\PSoC4/CyLib.c ****     }
 758              		.loc 1 586 0
 759 0004 1168     		ldr	r1, [r2]
 760              	.LVL52:
 761              	.LBE56:
 762              	.LBE58:
 763              	.LBB59:
 764              	.LBB60:
 765 0006 1368     		ldr	r3, [r2]
 766              	.LVL53:
 767              	.LBE60:
 768              	.LBE59:
 769              	.LBB62:
 770              	.LBB63:
 771 0008 1268     		ldr	r2, [r2]
 772              	.LVL54:
 773              	.LBE63:
 774              	.LBE62:
 775              	.LBB65:
 776              	.LBB61:
 777 000a 5C0A     		lsr	r4, r3, #9
 778              	.LBE61:
 779              	.LBE65:
 780              	.LBB66:
 781              	.LBB57:
 782 000c 4B08     		lsr	r3, r1, #1
 783              	.LVL55:
 784              	.LBE57:
 785              	.LBE66:
 840:.\Generated_Source\PSoC4/CyLib.c ****                             CySysWdtReadEnabledStatus(CY_SYS_WDT_COUNTER1) |
 786              		.loc 1 840 0
 787 000e 2343     		orr	r3, r4
 788              	.LBB67:
 789              	.LBB64:
 586:.\Generated_Source\PSoC4/CyLib.c ****     }
 790              		.loc 1 586 0
ARM GAS  C:\DOCUME~1\Chuck\LOCALS~1\Temp\ccVSU8Ya.s 			page 51


 791 0010 520C     		lsr	r2, r2, #17
 792              	.LBE64:
 793              	.LBE67:
 840:.\Generated_Source\PSoC4/CyLib.c ****                             CySysWdtReadEnabledStatus(CY_SYS_WDT_COUNTER1) |
 794              		.loc 1 840 0
 795 0012 1343     		orr	r3, r2
 844:.\Generated_Source\PSoC4/CyLib.c ****         {
 796              		.loc 1 844 0
 797 0014 DB07     		lsl	r3, r3, #31
 798 0016 0CD4     		bmi	.L59
 849:.\Generated_Source\PSoC4/CyLib.c ****             {
 799              		.loc 1 849 0
 800 0018 074B     		ldr	r3, .L62+4
 801 001a 041C     		mov	r4, r0
 802 001c 1B68     		ldr	r3, [r3]
 803 001e 002B     		cmp	r3, #0
 804 0020 01DB     		blt	.L61
 851:.\Generated_Source\PSoC4/CyLib.c ****             }
 805              		.loc 1 851 0
 806 0022 FFF7FEFF 		bl	CySysClkIloStart
 807              	.LVL56:
 808              	.L61:
 854:.\Generated_Source\PSoC4/CyLib.c ****             configRegValue &= ((uint32)(~(CY_SYS_WDT_CASCADE_01|CY_SYS_WDT_CASCADE_12)));
 809              		.loc 1 854 0
 810 0026 054A     		ldr	r2, .L62+8
 855:.\Generated_Source\PSoC4/CyLib.c ****             configRegValue |= cascadeMask;
 811              		.loc 1 855 0
 812 0028 054B     		ldr	r3, .L62+12
 854:.\Generated_Source\PSoC4/CyLib.c ****             configRegValue &= ((uint32)(~(CY_SYS_WDT_CASCADE_01|CY_SYS_WDT_CASCADE_12)));
 813              		.loc 1 854 0
 814 002a 1068     		ldr	r0, [r2]
 815              	.LVL57:
 855:.\Generated_Source\PSoC4/CyLib.c ****             configRegValue |= cascadeMask;
 816              		.loc 1 855 0
 817 002c 1840     		and	r0, r3
 818              	.LVL58:
 856:.\Generated_Source\PSoC4/CyLib.c ****             CY_SYS_WDT_CONFIG_REG = configRegValue;
 819              		.loc 1 856 0
 820 002e 2043     		orr	r0, r4
 821              	.LVL59:
 857:.\Generated_Source\PSoC4/CyLib.c ****         }
 822              		.loc 1 857 0
 823 0030 1060     		str	r0, [r2]
 824              	.LVL60:
 825              	.L59:
 859:.\Generated_Source\PSoC4/CyLib.c **** 
 826              		.loc 1 859 0
 827              		@ sp needed
 828 0032 10BD     		pop	{r4, pc}
 829              	.L63:
 830              		.align	2
 831              	.L62:
 832 0034 10020B40 		.word	1074463248
 833 0038 04010B40 		.word	1074462980
 834 003c 0C020B40 		.word	1074463244
 835 0040 F7F7FFFF 		.word	-2057
 836              		.cfi_endproc
ARM GAS  C:\DOCUME~1\Chuck\LOCALS~1\Temp\ccVSU8Ya.s 			page 52


 837              	.LFE16:
 838              		.size	CySysWdtWriteCascade, .-CySysWdtWriteCascade
 839              		.section	.text.CySysWdtReadCascade,"ax",%progbits
 840              		.align	1
 841              		.global	CySysWdtReadCascade
 842              		.code	16
 843              		.thumb_func
 844              		.type	CySysWdtReadCascade, %function
 845              	CySysWdtReadCascade:
 846              	.LFB17:
 881:.\Generated_Source\PSoC4/CyLib.c ****         return (CY_SYS_WDT_CONFIG_REG & (CY_SYS_WDT_CASCADE_01 | CY_SYS_WDT_CASCADE_12));
 847              		.loc 1 881 0
 848              		.cfi_startproc
 882:.\Generated_Source\PSoC4/CyLib.c ****     }
 849              		.loc 1 882 0
 850 0000 024B     		ldr	r3, .L65
 883:.\Generated_Source\PSoC4/CyLib.c **** 
 851              		.loc 1 883 0
 852              		@ sp needed
 882:.\Generated_Source\PSoC4/CyLib.c ****     }
 853              		.loc 1 882 0
 854 0002 1868     		ldr	r0, [r3]
 855 0004 024B     		ldr	r3, .L65+4
 856 0006 1840     		and	r0, r3
 883:.\Generated_Source\PSoC4/CyLib.c **** 
 857              		.loc 1 883 0
 858 0008 7047     		bx	lr
 859              	.L66:
 860 000a C046     		.align	2
 861              	.L65:
 862 000c 0C020B40 		.word	1074463244
 863 0010 08080000 		.word	2056
 864              		.cfi_endproc
 865              	.LFE17:
 866              		.size	CySysWdtReadCascade, .-CySysWdtReadCascade
 867              		.section	.text.CySysWdtWriteToggleBit,"ax",%progbits
 868              		.align	1
 869              		.global	CySysWdtWriteToggleBit
 870              		.code	16
 871              		.thumb_func
 872              		.type	CySysWdtWriteToggleBit, %function
 873              	CySysWdtWriteToggleBit:
 874              	.LFB19:
 955:.\Generated_Source\PSoC4/CyLib.c ****         uint32 configRegValue;
 875              		.loc 1 955 0
 876              		.cfi_startproc
 877              	.LVL61:
 878              	.LBB72:
 879              	.LBB73:
 586:.\Generated_Source\PSoC4/CyLib.c ****     }
 880              		.loc 1 586 0
 881 0000 0A4B     		ldr	r3, .L70
 882              	.LBE73:
 883              	.LBE72:
 955:.\Generated_Source\PSoC4/CyLib.c ****         uint32 configRegValue;
 884              		.loc 1 955 0
 885 0002 10B5     		push	{r4, lr}
ARM GAS  C:\DOCUME~1\Chuck\LOCALS~1\Temp\ccVSU8Ya.s 			page 53


 886              		.cfi_def_cfa_offset 8
 887              		.cfi_offset 4, -8
 888              		.cfi_offset 14, -4
 889              	.LBB75:
 890              	.LBB74:
 586:.\Generated_Source\PSoC4/CyLib.c ****     }
 891              		.loc 1 586 0
 892 0004 1B68     		ldr	r3, [r3]
 893              	.LBE74:
 894              	.LBE75:
 958:.\Generated_Source\PSoC4/CyLib.c ****         {
 895              		.loc 1 958 0
 896 0006 9B03     		lsl	r3, r3, #14
 897 0008 0FD4     		bmi	.L67
 963:.\Generated_Source\PSoC4/CyLib.c ****             {
 898              		.loc 1 963 0
 899 000a 094B     		ldr	r3, .L70+4
 900 000c 041C     		mov	r4, r0
 901 000e 1B68     		ldr	r3, [r3]
 902 0010 002B     		cmp	r3, #0
 903 0012 01DB     		blt	.L69
 965:.\Generated_Source\PSoC4/CyLib.c ****             }
 904              		.loc 1 965 0
 905 0014 FFF7FEFF 		bl	CySysClkIloStart
 906              	.LVL62:
 907              	.L69:
 968:.\Generated_Source\PSoC4/CyLib.c ****             configRegValue &= (uint32)(~((uint32)(CY_SYS_WDT_CONFIG_BITS2_MASK << CY_SYS_WDT_CONFIG
 908              		.loc 1 968 0
 909 0018 064A     		ldr	r2, .L70+8
 969:.\Generated_Source\PSoC4/CyLib.c ****             configRegValue |= ((bits & CY_SYS_WDT_CONFIG_BITS2_MASK) << CY_SYS_WDT_CONFIG_BITS2_POS
 910              		.loc 1 969 0
 911 001a 074B     		ldr	r3, .L70+12
 968:.\Generated_Source\PSoC4/CyLib.c ****             configRegValue &= (uint32)(~((uint32)(CY_SYS_WDT_CONFIG_BITS2_MASK << CY_SYS_WDT_CONFIG
 912              		.loc 1 968 0
 913 001c 1068     		ldr	r0, [r2]
 914              	.LVL63:
 969:.\Generated_Source\PSoC4/CyLib.c ****             configRegValue |= ((bits & CY_SYS_WDT_CONFIG_BITS2_MASK) << CY_SYS_WDT_CONFIG_BITS2_POS
 915              		.loc 1 969 0
 916 001e 0340     		and	r3, r0
 917              	.LVL64:
 970:.\Generated_Source\PSoC4/CyLib.c ****             CY_SYS_WDT_CONFIG_REG = configRegValue;
 918              		.loc 1 970 0
 919 0020 1F20     		mov	r0, #31
 920 0022 2040     		and	r0, r4
 921 0024 0006     		lsl	r0, r0, #24
 922 0026 1843     		orr	r0, r3
 923              	.LVL65:
 971:.\Generated_Source\PSoC4/CyLib.c ****         }
 924              		.loc 1 971 0
 925 0028 1060     		str	r0, [r2]
 926              	.LVL66:
 927              	.L67:
 973:.\Generated_Source\PSoC4/CyLib.c **** 
 928              		.loc 1 973 0
 929              		@ sp needed
 930 002a 10BD     		pop	{r4, pc}
 931              	.L71:
ARM GAS  C:\DOCUME~1\Chuck\LOCALS~1\Temp\ccVSU8Ya.s 			page 54


 932              		.align	2
 933              	.L70:
 934 002c 10020B40 		.word	1074463248
 935 0030 04010B40 		.word	1074462980
 936 0034 0C020B40 		.word	1074463244
 937 0038 FFFFFFE0 		.word	-520093697
 938              		.cfi_endproc
 939              	.LFE19:
 940              		.size	CySysWdtWriteToggleBit, .-CySysWdtWriteToggleBit
 941              		.section	.text.CySysWdtReadToggleBit,"ax",%progbits
 942              		.align	1
 943              		.global	CySysWdtReadToggleBit
 944              		.code	16
 945              		.thumb_func
 946              		.type	CySysWdtReadToggleBit, %function
 947              	CySysWdtReadToggleBit:
 948              	.LFB20:
 991:.\Generated_Source\PSoC4/CyLib.c ****         return ((CY_SYS_WDT_CONFIG_REG >> CY_SYS_WDT_CONFIG_BITS2_POS) & CY_SYS_WDT_CONFIG_BITS2_MA
 949              		.loc 1 991 0
 950              		.cfi_startproc
 992:.\Generated_Source\PSoC4/CyLib.c ****     }
 951              		.loc 1 992 0
 952 0000 024B     		ldr	r3, .L73
 993:.\Generated_Source\PSoC4/CyLib.c **** 
 953              		.loc 1 993 0
 954              		@ sp needed
 992:.\Generated_Source\PSoC4/CyLib.c ****     }
 955              		.loc 1 992 0
 956 0002 1868     		ldr	r0, [r3]
 957 0004 C000     		lsl	r0, r0, #3
 958 0006 C00E     		lsr	r0, r0, #27
 993:.\Generated_Source\PSoC4/CyLib.c **** 
 959              		.loc 1 993 0
 960 0008 7047     		bx	lr
 961              	.L74:
 962 000a C046     		.align	2
 963              	.L73:
 964 000c 0C020B40 		.word	1074463244
 965              		.cfi_endproc
 966              	.LFE20:
 967              		.size	CySysWdtReadToggleBit, .-CySysWdtReadToggleBit
 968              		.section	.text.CySysWdtReadMatch,"ax",%progbits
 969              		.align	1
 970              		.global	CySysWdtReadMatch
 971              		.code	16
 972              		.thumb_func
 973              		.type	CySysWdtReadMatch, %function
 974              	CySysWdtReadMatch:
 975              	.LFB21:
1012:.\Generated_Source\PSoC4/CyLib.c ****         CYASSERT((counterNum == CY_SYS_WDT_COUNTER0) ||
 976              		.loc 1 1012 0
 977              		.cfi_startproc
 978              	.LVL67:
1013:.\Generated_Source\PSoC4/CyLib.c ****                                              (counterNum == CY_SYS_WDT_COUNTER1));
 979              		.loc 1 1013 0
 980 0000 0128     		cmp	r0, #1
 981 0002 00D9     		bls	.L76
ARM GAS  C:\DOCUME~1\Chuck\LOCALS~1\Temp\ccVSU8Ya.s 			page 55


 982              	.LVL68:
 983              	.LBB76:
 984              	.LBB77:
 985              		.loc 1 1979 0
 986              	@ 1979 ".\Generated_Source\PSoC4\CyLib.c" 1
 987 0004 01BE     		    bkpt    1
 988              	@ 0 "" 2
 989              	.LVL69:
 990              		.code	16
 991              	.L76:
 992              	.LBE77:
 993              	.LBE76:
1015:.\Generated_Source\PSoC4/CyLib.c ****     }
 994              		.loc 1 1015 0
 995 0006 034B     		ldr	r3, .L77
 996 0008 0001     		lsl	r0, r0, #4
 997              	.LVL70:
 998 000a 1B68     		ldr	r3, [r3]
1016:.\Generated_Source\PSoC4/CyLib.c **** 
 999              		.loc 1 1016 0
 1000              		@ sp needed
1015:.\Generated_Source\PSoC4/CyLib.c ****     }
 1001              		.loc 1 1015 0
 1002 000c C340     		lsr	r3, r3, r0
 1003 000e 98B2     		uxth	r0, r3
1016:.\Generated_Source\PSoC4/CyLib.c **** 
 1004              		.loc 1 1016 0
 1005 0010 7047     		bx	lr
 1006              	.L78:
 1007 0012 C046     		.align	2
 1008              	.L77:
 1009 0014 08020B40 		.word	1074463240
 1010              		.cfi_endproc
 1011              	.LFE21:
 1012              		.size	CySysWdtReadMatch, .-CySysWdtReadMatch
 1013              		.section	.text.CySysWdtReadCount,"ax",%progbits
 1014              		.align	1
 1015              		.global	CySysWdtReadCount
 1016              		.code	16
 1017              		.thumb_func
 1018              		.type	CySysWdtReadCount, %function
 1019              	CySysWdtReadCount:
 1020              	.LFB22:
1035:.\Generated_Source\PSoC4/CyLib.c ****         uint32 regValue = 0u;
 1021              		.loc 1 1035 0
 1022              		.cfi_startproc
 1023              	.LVL71:
1038:.\Generated_Source\PSoC4/CyLib.c ****         {
 1024              		.loc 1 1038 0
 1025 0000 0128     		cmp	r0, #1
 1026 0002 0AD0     		beq	.L81
 1027 0004 0028     		cmp	r0, #0
 1028 0006 04D0     		beq	.L82
 1029 0008 0228     		cmp	r0, #2
 1030 000a 0AD1     		bne	.L86
1052:.\Generated_Source\PSoC4/CyLib.c ****             break;
 1031              		.loc 1 1052 0
ARM GAS  C:\DOCUME~1\Chuck\LOCALS~1\Temp\ccVSU8Ya.s 			page 56


 1032 000c 064B     		ldr	r3, .L87
 1033 000e 1868     		ldr	r0, [r3]
 1034              	.LVL72:
1053:.\Generated_Source\PSoC4/CyLib.c **** 
 1035              		.loc 1 1053 0
 1036 0010 09E0     		b	.L84
 1037              	.LVL73:
 1038              	.L82:
1042:.\Generated_Source\PSoC4/CyLib.c ****             break;
 1039              		.loc 1 1042 0
 1040 0012 064B     		ldr	r3, .L87+4
 1041 0014 1868     		ldr	r0, [r3]
 1042              	.LVL74:
 1043 0016 80B2     		uxth	r0, r0
 1044              	.LVL75:
1043:.\Generated_Source\PSoC4/CyLib.c **** 
 1045              		.loc 1 1043 0
 1046 0018 05E0     		b	.L84
 1047              	.LVL76:
 1048              	.L81:
1047:.\Generated_Source\PSoC4/CyLib.c ****             break;
 1049              		.loc 1 1047 0
 1050 001a 044B     		ldr	r3, .L87+4
 1051 001c 1868     		ldr	r0, [r3]
 1052              	.LVL77:
 1053 001e 000C     		lsr	r0, r0, #16
 1054              	.LVL78:
1048:.\Generated_Source\PSoC4/CyLib.c **** 
 1055              		.loc 1 1048 0
 1056 0020 01E0     		b	.L84
 1057              	.LVL79:
 1058              	.L86:
 1059              	.LBB78:
 1060              	.LBB79:
 1061              		.loc 1 1979 0
 1062              	@ 1979 ".\Generated_Source\PSoC4\CyLib.c" 1
 1063 0022 01BE     		    bkpt    1
 1064              	@ 0 "" 2
 1065              		.code	16
 1066              	.LBE79:
 1067              	.LBE78:
1036:.\Generated_Source\PSoC4/CyLib.c **** 
 1068              		.loc 1 1036 0
 1069 0024 0020     		mov	r0, #0
 1070              	.LVL80:
 1071              	.L84:
1061:.\Generated_Source\PSoC4/CyLib.c **** 
 1072              		.loc 1 1061 0
 1073              		@ sp needed
 1074 0026 7047     		bx	lr
 1075              	.L88:
 1076              		.align	2
 1077              	.L87:
 1078 0028 04020B40 		.word	1074463236
 1079 002c 00020B40 		.word	1074463232
 1080              		.cfi_endproc
 1081              	.LFE22:
ARM GAS  C:\DOCUME~1\Chuck\LOCALS~1\Temp\ccVSU8Ya.s 			page 57


 1082              		.size	CySysWdtReadCount, .-CySysWdtReadCount
 1083              		.section	.text.CySysWdtGetInterruptSource,"ax",%progbits
 1084              		.align	1
 1085              		.global	CySysWdtGetInterruptSource
 1086              		.code	16
 1087              		.thumb_func
 1088              		.type	CySysWdtGetInterruptSource, %function
 1089              	CySysWdtGetInterruptSource:
 1090              	.LFB23:
1084:.\Generated_Source\PSoC4/CyLib.c ****         return (CY_SYS_WDT_CONTROL_REG & (CY_SYS_WDT_COUNTER0_INT | CY_SYS_WDT_COUNTER1_INT | CY_SY
 1091              		.loc 1 1084 0
 1092              		.cfi_startproc
1085:.\Generated_Source\PSoC4/CyLib.c ****     }
 1093              		.loc 1 1085 0
 1094 0000 024B     		ldr	r3, .L90
1086:.\Generated_Source\PSoC4/CyLib.c **** 
 1095              		.loc 1 1086 0
 1096              		@ sp needed
1085:.\Generated_Source\PSoC4/CyLib.c ****     }
 1097              		.loc 1 1085 0
 1098 0002 1868     		ldr	r0, [r3]
 1099 0004 024B     		ldr	r3, .L90+4
 1100 0006 1840     		and	r0, r3
1086:.\Generated_Source\PSoC4/CyLib.c **** 
 1101              		.loc 1 1086 0
 1102 0008 7047     		bx	lr
 1103              	.L91:
 1104 000a C046     		.align	2
 1105              	.L90:
 1106 000c 10020B40 		.word	1074463248
 1107 0010 04040400 		.word	263172
 1108              		.cfi_endproc
 1109              	.LFE23:
 1110              		.size	CySysWdtGetInterruptSource, .-CySysWdtGetInterruptSource
 1111              		.section	.text.CySysWdtClearInterrupt,"ax",%progbits
 1112              		.align	1
 1113              		.global	CySysWdtClearInterrupt
 1114              		.code	16
 1115              		.thumb_func
 1116              		.type	CySysWdtClearInterrupt, %function
 1117              	CySysWdtClearInterrupt:
 1118              	.LFB24:
1117:.\Generated_Source\PSoC4/CyLib.c ****         uint8 interruptState;
 1119              		.loc 1 1117 0
 1120              		.cfi_startproc
 1121              	.LVL81:
 1122 0000 F8B5     		push	{r3, r4, r5, r6, r7, lr}
 1123              		.cfi_def_cfa_offset 24
 1124              		.cfi_offset 3, -24
 1125              		.cfi_offset 4, -20
 1126              		.cfi_offset 5, -16
 1127              		.cfi_offset 6, -12
 1128              		.cfi_offset 7, -8
 1129              		.cfi_offset 14, -4
1117:.\Generated_Source\PSoC4/CyLib.c ****         uint8 interruptState;
 1130              		.loc 1 1117 0
 1131 0002 051C     		mov	r5, r0
ARM GAS  C:\DOCUME~1\Chuck\LOCALS~1\Temp\ccVSU8Ya.s 			page 58


1121:.\Generated_Source\PSoC4/CyLib.c **** 
 1132              		.loc 1 1121 0
 1133 0004 FFF7FEFF 		bl	CyEnterCriticalSection
 1134              	.LVL82:
1126:.\Generated_Source\PSoC4/CyLib.c ****         {
 1135              		.loc 1 1126 0
 1136 0008 174B     		ldr	r3, .L97
1121:.\Generated_Source\PSoC4/CyLib.c **** 
 1137              		.loc 1 1121 0
 1138 000a 041C     		mov	r4, r0
 1139              	.LVL83:
1126:.\Generated_Source\PSoC4/CyLib.c ****         {
 1140              		.loc 1 1126 0
 1141 000c 1B68     		ldr	r3, [r3]
 1142 000e 002B     		cmp	r3, #0
 1143 0010 01DB     		blt	.L93
1128:.\Generated_Source\PSoC4/CyLib.c ****         }
 1144              		.loc 1 1128 0
 1145 0012 FFF7FEFF 		bl	CySysClkIloStart
 1146              	.LVL84:
 1147              	.L93:
1131:.\Generated_Source\PSoC4/CyLib.c ****         {
 1148              		.loc 1 1131 0
 1149 0016 C020     		mov	r0, #192
 1150 0018 144B     		ldr	r3, .L97+4
 1151 001a 0002     		lsl	r0, r0, #8
 1152 001c 1A68     		ldr	r2, [r3]
1144:.\Generated_Source\PSoC4/CyLib.c ****         }
 1153              		.loc 1 1144 0
 1154 001e 0021     		mov	r1, #0
1131:.\Generated_Source\PSoC4/CyLib.c ****         {
 1155              		.loc 1 1131 0
 1156 0020 0240     		and	r2, r0
 1157 0022 8242     		cmp	r2, r0
 1158 0024 0DD1     		bne	.L94
 1159              	.LVL85:
1136:.\Generated_Source\PSoC4/CyLib.c ****                     CY_SYS_WDT_CLK_LOCK_BIT0);
 1160              		.loc 1 1136 0
 1161 0026 8020     		mov	r0, #128
 1162 0028 1968     		ldr	r1, [r3]
 1163 002a 114A     		ldr	r2, .L97+8
 1164 002c C001     		lsl	r0, r0, #7
 1165 002e 1140     		and	r1, r2
 1166 0030 0143     		orr	r1, r0
 1167 0032 1960     		str	r1, [r3]
1139:.\Generated_Source\PSoC4/CyLib.c ****                     CY_SYS_WDT_CLK_LOCK_BIT1);
 1168              		.loc 1 1139 0
 1169 0034 1968     		ldr	r1, [r3]
 1170 0036 0A40     		and	r2, r1
 1171 0038 8021     		mov	r1, #128
 1172 003a 0902     		lsl	r1, r1, #8
 1173 003c 0A43     		orr	r2, r1
1133:.\Generated_Source\PSoC4/CyLib.c **** 
 1174              		.loc 1 1133 0
 1175 003e 0121     		mov	r1, #1
1139:.\Generated_Source\PSoC4/CyLib.c ****                     CY_SYS_WDT_CLK_LOCK_BIT1);
 1176              		.loc 1 1139 0
ARM GAS  C:\DOCUME~1\Chuck\LOCALS~1\Temp\ccVSU8Ya.s 			page 59


 1177 0040 1A60     		str	r2, [r3]
 1178              	.LVL86:
 1179              	.L94:
1152:.\Generated_Source\PSoC4/CyLib.c ****                                                                            CY_SYS_WDT_COUNTER1_INT 
 1180              		.loc 1 1152 0
 1181 0042 0C48     		ldr	r0, .L97+12
1148:.\Generated_Source\PSoC4/CyLib.c ****                         CY_SYS_WDT_COUNTER1_INT |
 1182              		.loc 1 1148 0
 1183 0044 0C4E     		ldr	r6, .L97+16
1152:.\Generated_Source\PSoC4/CyLib.c ****                                                                            CY_SYS_WDT_COUNTER1_INT 
 1184              		.loc 1 1152 0
 1185 0046 0768     		ldr	r7, [r0]
 1186 0048 0C4A     		ldr	r2, .L97+20
1148:.\Generated_Source\PSoC4/CyLib.c ****                         CY_SYS_WDT_COUNTER1_INT |
 1187              		.loc 1 1148 0
 1188 004a 3540     		and	r5, r6
 1189              	.LVL87:
1152:.\Generated_Source\PSoC4/CyLib.c ****                                                                            CY_SYS_WDT_COUNTER1_INT 
 1190              		.loc 1 1152 0
 1191 004c 3A40     		and	r2, r7
 1192 004e 1543     		orr	r5, r2
 1193              	.LVL88:
 1194 0050 0560     		str	r5, [r0]
1156:.\Generated_Source\PSoC4/CyLib.c ****         {
 1195              		.loc 1 1156 0
 1196 0052 0129     		cmp	r1, #1
 1197 0054 04D1     		bne	.L95
 1198              	.LVL89:
1159:.\Generated_Source\PSoC4/CyLib.c ****                      CY_SYS_WDT_CLK_LOCK_BITS_MASK;
 1199              		.loc 1 1159 0
 1200 0056 C021     		mov	r1, #192
 1201 0058 1A68     		ldr	r2, [r3]
 1202 005a 0902     		lsl	r1, r1, #8
 1203 005c 0A43     		orr	r2, r1
 1204 005e 1A60     		str	r2, [r3]
 1205              	.LVL90:
 1206              	.L95:
1163:.\Generated_Source\PSoC4/CyLib.c ****     }
 1207              		.loc 1 1163 0
 1208 0060 201C     		mov	r0, r4
 1209 0062 FFF7FEFF 		bl	CyExitCriticalSection
 1210              	.LVL91:
1164:.\Generated_Source\PSoC4/CyLib.c **** 
 1211              		.loc 1 1164 0
 1212              		@ sp needed
 1213              	.LVL92:
 1214 0066 F8BD     		pop	{r3, r4, r5, r6, r7, pc}
 1215              	.L98:
 1216              		.align	2
 1217              	.L97:
 1218 0068 04010B40 		.word	1074462980
 1219 006c 00010B40 		.word	1074462976
 1220 0070 FF3FFFFF 		.word	-49153
 1221 0074 10020B40 		.word	1074463248
 1222 0078 04040400 		.word	263172
 1223 007c FBFBFBFF 		.word	-263173
 1224              		.cfi_endproc
ARM GAS  C:\DOCUME~1\Chuck\LOCALS~1\Temp\ccVSU8Ya.s 			page 60


 1225              	.LFE24:
 1226              		.size	CySysWdtClearInterrupt, .-CySysWdtClearInterrupt
 1227              		.section	.text.CySysWdtResetCounters,"ax",%progbits
 1228              		.align	1
 1229              		.global	CySysWdtResetCounters
 1230              		.code	16
 1231              		.thumb_func
 1232              		.type	CySysWdtResetCounters, %function
 1233              	CySysWdtResetCounters:
 1234              	.LFB25:
1190:.\Generated_Source\PSoC4/CyLib.c ****         /* Configuring WDT involves passing control signals between clock domains,
 1235              		.loc 1 1190 0
 1236              		.cfi_startproc
 1237              	.LVL93:
1194:.\Generated_Source\PSoC4/CyLib.c ****         {
 1238              		.loc 1 1194 0
 1239 0000 074B     		ldr	r3, .L101
1190:.\Generated_Source\PSoC4/CyLib.c ****         /* Configuring WDT involves passing control signals between clock domains,
 1240              		.loc 1 1190 0
 1241 0002 10B5     		push	{r4, lr}
 1242              		.cfi_def_cfa_offset 8
 1243              		.cfi_offset 4, -8
 1244              		.cfi_offset 14, -4
1194:.\Generated_Source\PSoC4/CyLib.c ****         {
 1245              		.loc 1 1194 0
 1246 0004 1B68     		ldr	r3, [r3]
1190:.\Generated_Source\PSoC4/CyLib.c ****         /* Configuring WDT involves passing control signals between clock domains,
 1247              		.loc 1 1190 0
 1248 0006 041C     		mov	r4, r0
1194:.\Generated_Source\PSoC4/CyLib.c ****         {
 1249              		.loc 1 1194 0
 1250 0008 002B     		cmp	r3, #0
 1251 000a 01DB     		blt	.L100
1196:.\Generated_Source\PSoC4/CyLib.c ****         }
 1252              		.loc 1 1196 0
 1253 000c FFF7FEFF 		bl	CySysClkIloStart
 1254              	.LVL94:
 1255              	.L100:
1200:.\Generated_Source\PSoC4/CyLib.c ****             CY_SYS_WDT_COUNTER1_RESET | CY_SYS_WDT_COUNTER2_RESET));
 1256              		.loc 1 1200 0
 1257 0010 044A     		ldr	r2, .L101+4
 1258 0012 0548     		ldr	r0, .L101+8
 1259 0014 1368     		ldr	r3, [r2]
 1260 0016 2040     		and	r0, r4
 1261 0018 1843     		orr	r0, r3
 1262 001a 1060     		str	r0, [r2]
1202:.\Generated_Source\PSoC4/CyLib.c **** 
 1263              		.loc 1 1202 0
 1264              		@ sp needed
 1265              	.LVL95:
 1266 001c 10BD     		pop	{r4, pc}
 1267              	.L102:
 1268 001e C046     		.align	2
 1269              	.L101:
 1270 0020 04010B40 		.word	1074462980
 1271 0024 10020B40 		.word	1074463248
 1272 0028 08080800 		.word	526344
ARM GAS  C:\DOCUME~1\Chuck\LOCALS~1\Temp\ccVSU8Ya.s 			page 61


 1273              		.cfi_endproc
 1274              	.LFE25:
 1275              		.size	CySysWdtResetCounters, .-CySysWdtResetCounters
 1276              		.section	.text.CySysLvdEnable,"ax",%progbits
 1277              		.align	1
 1278              		.global	CySysLvdEnable
 1279              		.code	16
 1280              		.thumb_func
 1281              		.type	CySysLvdEnable, %function
 1282              	CySysLvdEnable:
 1283              	.LFB26:
1524:.\Generated_Source\PSoC4/CyLib.c ****         /* Set threshold */
 1284              		.loc 1 1524 0
 1285              		.cfi_startproc
 1286              	.LVL96:
1527:.\Generated_Source\PSoC4/CyLib.c **** 
 1287              		.loc 1 1527 0
 1288 0000 1E21     		mov	r1, #30
1526:.\Generated_Source\PSoC4/CyLib.c ****                 ((threshold << CY_LVD_PWR_VMON_CONFIG_LVD_SEL_SHIFT) & CY_LVD_PWR_VMON_CONFIG_LVD_S
 1289              		.loc 1 1526 0
 1290 0002 084A     		ldr	r2, .L104
1527:.\Generated_Source\PSoC4/CyLib.c **** 
 1291              		.loc 1 1527 0
 1292 0004 4000     		lsl	r0, r0, #1
 1293              	.LVL97:
1526:.\Generated_Source\PSoC4/CyLib.c ****                 ((threshold << CY_LVD_PWR_VMON_CONFIG_LVD_SEL_SHIFT) & CY_LVD_PWR_VMON_CONFIG_LVD_S
 1294              		.loc 1 1526 0
 1295 0006 1368     		ldr	r3, [r2]
1527:.\Generated_Source\PSoC4/CyLib.c **** 
 1296              		.loc 1 1527 0
 1297 0008 0840     		and	r0, r1
1526:.\Generated_Source\PSoC4/CyLib.c ****                 ((threshold << CY_LVD_PWR_VMON_CONFIG_LVD_SEL_SHIFT) & CY_LVD_PWR_VMON_CONFIG_LVD_S
 1298              		.loc 1 1526 0
 1299 000a 8B43     		bic	r3, r1
 1300 000c 1843     		orr	r0, r3
 1301 000e 1060     		str	r0, [r2]
1529:.\Generated_Source\PSoC4/CyLib.c ****         CY_LVD_PWR_INTR_MASK_REG   |= CY_LVD_PROPAGATE_INT_TO_CPU;
 1302              		.loc 1 1529 0
 1303 0010 1368     		ldr	r3, [r2]
 1304 0012 1D39     		sub	r1, r1, #29
 1305 0014 0B43     		orr	r3, r1
 1306 0016 1360     		str	r3, [r2]
1530:.\Generated_Source\PSoC4/CyLib.c ****     }
 1307              		.loc 1 1530 0
 1308 0018 034A     		ldr	r2, .L104+4
 1309 001a 0131     		add	r1, r1, #1
 1310 001c 1368     		ldr	r3, [r2]
1531:.\Generated_Source\PSoC4/CyLib.c **** 
 1311              		.loc 1 1531 0
 1312              		@ sp needed
1530:.\Generated_Source\PSoC4/CyLib.c ****     }
 1313              		.loc 1 1530 0
 1314 001e 0B43     		orr	r3, r1
 1315 0020 1360     		str	r3, [r2]
1531:.\Generated_Source\PSoC4/CyLib.c **** 
 1316              		.loc 1 1531 0
 1317 0022 7047     		bx	lr
ARM GAS  C:\DOCUME~1\Chuck\LOCALS~1\Temp\ccVSU8Ya.s 			page 62


 1318              	.L105:
 1319              		.align	2
 1320              	.L104:
 1321 0024 18000B40 		.word	1074462744
 1322 0028 08000B40 		.word	1074462728
 1323              		.cfi_endproc
 1324              	.LFE26:
 1325              		.size	CySysLvdEnable, .-CySysLvdEnable
 1326              		.section	.text.CySysLvdDisable,"ax",%progbits
 1327              		.align	1
 1328              		.global	CySysLvdDisable
 1329              		.code	16
 1330              		.thumb_func
 1331              		.type	CySysLvdDisable, %function
 1332              	CySysLvdDisable:
 1333              	.LFB27:
1549:.\Generated_Source\PSoC4/CyLib.c ****         CY_LVD_PWR_INTR_MASK_REG   &= ~CY_LVD_PROPAGATE_INT_TO_CPU;
 1334              		.loc 1 1549 0
 1335              		.cfi_startproc
1550:.\Generated_Source\PSoC4/CyLib.c ****         CY_LVD_PWR_VMON_CONFIG_REG &= ~CY_LVD_PWR_VMON_CONFIG_LVD_EN;
 1336              		.loc 1 1550 0
 1337 0000 0221     		mov	r1, #2
 1338 0002 054A     		ldr	r2, .L107
1552:.\Generated_Source\PSoC4/CyLib.c **** 
 1339              		.loc 1 1552 0
 1340              		@ sp needed
1550:.\Generated_Source\PSoC4/CyLib.c ****         CY_LVD_PWR_VMON_CONFIG_REG &= ~CY_LVD_PWR_VMON_CONFIG_LVD_EN;
 1341              		.loc 1 1550 0
 1342 0004 1368     		ldr	r3, [r2]
 1343 0006 8B43     		bic	r3, r1
 1344 0008 1360     		str	r3, [r2]
1551:.\Generated_Source\PSoC4/CyLib.c ****     }
 1345              		.loc 1 1551 0
 1346 000a 044A     		ldr	r2, .L107+4
 1347 000c 0139     		sub	r1, r1, #1
 1348 000e 1368     		ldr	r3, [r2]
 1349 0010 8B43     		bic	r3, r1
 1350 0012 1360     		str	r3, [r2]
1552:.\Generated_Source\PSoC4/CyLib.c **** 
 1351              		.loc 1 1552 0
 1352 0014 7047     		bx	lr
 1353              	.L108:
 1354 0016 C046     		.align	2
 1355              	.L107:
 1356 0018 08000B40 		.word	1074462728
 1357 001c 18000B40 		.word	1074462744
 1358              		.cfi_endproc
 1359              	.LFE27:
 1360              		.size	CySysLvdDisable, .-CySysLvdDisable
 1361              		.section	.text.CySysLvdGetInterruptSource,"ax",%progbits
 1362              		.align	1
 1363              		.global	CySysLvdGetInterruptSource
 1364              		.code	16
 1365              		.thumb_func
 1366              		.type	CySysLvdGetInterruptSource, %function
 1367              	CySysLvdGetInterruptSource:
 1368              	.LFB28:
ARM GAS  C:\DOCUME~1\Chuck\LOCALS~1\Temp\ccVSU8Ya.s 			page 63


1571:.\Generated_Source\PSoC4/CyLib.c ****         return (CY_LVD_PWR_INTR_REG & CY_SYS_LVD_INT);
 1369              		.loc 1 1571 0
 1370              		.cfi_startproc
1572:.\Generated_Source\PSoC4/CyLib.c ****     }
 1371              		.loc 1 1572 0
 1372 0000 024B     		ldr	r3, .L110
1573:.\Generated_Source\PSoC4/CyLib.c **** 
 1373              		.loc 1 1573 0
 1374              		@ sp needed
1572:.\Generated_Source\PSoC4/CyLib.c ****     }
 1375              		.loc 1 1572 0
 1376 0002 1868     		ldr	r0, [r3]
 1377 0004 0223     		mov	r3, #2
 1378 0006 1840     		and	r0, r3
1573:.\Generated_Source\PSoC4/CyLib.c **** 
 1379              		.loc 1 1573 0
 1380 0008 7047     		bx	lr
 1381              	.L111:
 1382 000a C046     		.align	2
 1383              	.L110:
 1384 000c 04000B40 		.word	1074462724
 1385              		.cfi_endproc
 1386              	.LFE28:
 1387              		.size	CySysLvdGetInterruptSource, .-CySysLvdGetInterruptSource
 1388              		.section	.text.CySysLvdClearInterrupt,"ax",%progbits
 1389              		.align	1
 1390              		.global	CySysLvdClearInterrupt
 1391              		.code	16
 1392              		.thumb_func
 1393              		.type	CySysLvdClearInterrupt, %function
 1394              	CySysLvdClearInterrupt:
 1395              	.LFB29:
1591:.\Generated_Source\PSoC4/CyLib.c ****         CY_LVD_PWR_INTR_REG = CY_SYS_LVD_INT;
 1396              		.loc 1 1591 0
 1397              		.cfi_startproc
1592:.\Generated_Source\PSoC4/CyLib.c ****     }
 1398              		.loc 1 1592 0
 1399 0000 0222     		mov	r2, #2
 1400 0002 014B     		ldr	r3, .L113
1593:.\Generated_Source\PSoC4/CyLib.c **** 
 1401              		.loc 1 1593 0
 1402              		@ sp needed
1592:.\Generated_Source\PSoC4/CyLib.c ****     }
 1403              		.loc 1 1592 0
 1404 0004 1A60     		str	r2, [r3]
1593:.\Generated_Source\PSoC4/CyLib.c **** 
 1405              		.loc 1 1593 0
 1406 0006 7047     		bx	lr
 1407              	.L114:
 1408              		.align	2
 1409              	.L113:
 1410 0008 04000B40 		.word	1074462724
 1411              		.cfi_endproc
 1412              	.LFE29:
 1413              		.size	CySysLvdClearInterrupt, .-CySysLvdClearInterrupt
 1414              		.section	.text.CySysGetResetReason,"ax",%progbits
 1415              		.align	1
ARM GAS  C:\DOCUME~1\Chuck\LOCALS~1\Temp\ccVSU8Ya.s 			page 64


 1416              		.global	CySysGetResetReason
 1417              		.code	16
 1418              		.thumb_func
 1419              		.type	CySysGetResetReason, %function
 1420              	CySysGetResetReason:
 1421              	.LFB30:
1619:.\Generated_Source\PSoC4/CyLib.c ****     uint32 status;
 1422              		.loc 1 1619 0
 1423              		.cfi_startproc
 1424              	.LVL98:
1622:.\Generated_Source\PSoC4/CyLib.c ****     status = CY_SYS_RES_CAUSE_REG &
 1425              		.loc 1 1622 0
 1426 0000 1923     		mov	r3, #25
 1427 0002 021C     		mov	r2, r0
1623:.\Generated_Source\PSoC4/CyLib.c ****              (CY_SYS_RESET_WDT | CY_SYS_RESET_PROTFAULT | CY_SYS_RESET_SW);
 1428              		.loc 1 1623 0
 1429 0004 0249     		ldr	r1, .L116
1622:.\Generated_Source\PSoC4/CyLib.c ****     status = CY_SYS_RES_CAUSE_REG &
 1430              		.loc 1 1622 0
 1431 0006 1A40     		and	r2, r3
 1432              	.LVL99:
1623:.\Generated_Source\PSoC4/CyLib.c ****              (CY_SYS_RESET_WDT | CY_SYS_RESET_PROTFAULT | CY_SYS_RESET_SW);
 1433              		.loc 1 1623 0
 1434 0008 0868     		ldr	r0, [r1]
 1435              	.LVL100:
1628:.\Generated_Source\PSoC4/CyLib.c **** 
 1436              		.loc 1 1628 0
 1437              		@ sp needed
1623:.\Generated_Source\PSoC4/CyLib.c ****              (CY_SYS_RESET_WDT | CY_SYS_RESET_PROTFAULT | CY_SYS_RESET_SW);
 1438              		.loc 1 1623 0
 1439 000a 1840     		and	r0, r3
 1440              	.LVL101:
1625:.\Generated_Source\PSoC4/CyLib.c **** 
 1441              		.loc 1 1625 0
 1442 000c 0A60     		str	r2, [r1]
1628:.\Generated_Source\PSoC4/CyLib.c **** 
 1443              		.loc 1 1628 0
 1444 000e 7047     		bx	lr
 1445              	.L117:
 1446              		.align	2
 1447              	.L116:
 1448 0010 00030B40 		.word	1074463488
 1449              		.cfi_endproc
 1450              	.LFE30:
 1451              		.size	CySysGetResetReason, .-CySysGetResetReason
 1452              		.section	.text.CyDisableInts,"ax",%progbits
 1453              		.align	1
 1454              		.global	CyDisableInts
 1455              		.code	16
 1456              		.thumb_func
 1457              		.type	CyDisableInts, %function
 1458              	CyDisableInts:
 1459              	.LFB31:
1646:.\Generated_Source\PSoC4/CyLib.c ****     uint32 intState;
 1460              		.loc 1 1646 0
 1461              		.cfi_startproc
1653:.\Generated_Source\PSoC4/CyLib.c **** 
ARM GAS  C:\DOCUME~1\Chuck\LOCALS~1\Temp\ccVSU8Ya.s 			page 65


 1462              		.loc 1 1653 0
 1463 0000 0122     		mov	r2, #1
1650:.\Generated_Source\PSoC4/CyLib.c **** 
 1464              		.loc 1 1650 0
 1465 0002 024B     		ldr	r3, .L119
1653:.\Generated_Source\PSoC4/CyLib.c **** 
 1466              		.loc 1 1653 0
 1467 0004 5242     		neg	r2, r2
1650:.\Generated_Source\PSoC4/CyLib.c **** 
 1468              		.loc 1 1650 0
 1469 0006 1868     		ldr	r0, [r3]
 1470              	.LVL102:
1656:.\Generated_Source\PSoC4/CyLib.c **** 
 1471              		.loc 1 1656 0
 1472              		@ sp needed
1653:.\Generated_Source\PSoC4/CyLib.c **** 
 1473              		.loc 1 1653 0
 1474 0008 1A60     		str	r2, [r3]
1656:.\Generated_Source\PSoC4/CyLib.c **** 
 1475              		.loc 1 1656 0
 1476 000a 7047     		bx	lr
 1477              	.L120:
 1478              		.align	2
 1479              	.L119:
 1480 000c 80E100E0 		.word	-536813184
 1481              		.cfi_endproc
 1482              	.LFE31:
 1483              		.size	CyDisableInts, .-CyDisableInts
 1484              		.section	.text.CyEnableInts,"ax",%progbits
 1485              		.align	1
 1486              		.global	CyEnableInts
 1487              		.code	16
 1488              		.thumb_func
 1489              		.type	CyEnableInts, %function
 1490              	CyEnableInts:
 1491              	.LFB32:
1674:.\Generated_Source\PSoC4/CyLib.c ****     CY_INT_ENABLE_REG = mask;
 1492              		.loc 1 1674 0
 1493              		.cfi_startproc
 1494              	.LVL103:
1675:.\Generated_Source\PSoC4/CyLib.c **** }
 1495              		.loc 1 1675 0
 1496 0000 014B     		ldr	r3, .L122
1676:.\Generated_Source\PSoC4/CyLib.c **** 
 1497              		.loc 1 1676 0
 1498              		@ sp needed
1675:.\Generated_Source\PSoC4/CyLib.c **** }
 1499              		.loc 1 1675 0
 1500 0002 1860     		str	r0, [r3]
1676:.\Generated_Source\PSoC4/CyLib.c **** 
 1501              		.loc 1 1676 0
 1502 0004 7047     		bx	lr
 1503              	.L123:
 1504 0006 C046     		.align	2
 1505              	.L122:
 1506 0008 00E100E0 		.word	-536813312
 1507              		.cfi_endproc
ARM GAS  C:\DOCUME~1\Chuck\LOCALS~1\Temp\ccVSU8Ya.s 			page 66


 1508              	.LFE32:
 1509              		.size	CyEnableInts, .-CyEnableInts
 1510              		.section	.text.CyIntSetSysVector,"ax",%progbits
 1511              		.align	1
 1512              		.global	CyIntSetSysVector
 1513              		.code	16
 1514              		.thumb_func
 1515              		.type	CyIntSetSysVector, %function
 1516              	CyIntSetSysVector:
 1517              	.LFB33:
1696:.\Generated_Source\PSoC4/CyLib.c ****     cyisraddress oldIsr;
 1518              		.loc 1 1696 0
 1519              		.cfi_startproc
 1520              	.LVL104:
1700:.\Generated_Source\PSoC4/CyLib.c **** 
 1521              		.loc 1 1700 0
 1522 0000 0F28     		cmp	r0, #15
 1523 0002 00D9     		bls	.L125
 1524              	.LVL105:
 1525              	.LBB80:
 1526              	.LBB81:
 1527              		.loc 1 1979 0
 1528              	@ 1979 ".\Generated_Source\PSoC4\CyLib.c" 1
 1529 0004 01BE     		    bkpt    1
 1530              	@ 0 "" 2
 1531              	.LVL106:
 1532              		.code	16
 1533              	.L125:
 1534              	.LBE81:
 1535              	.LBE80:
1703:.\Generated_Source\PSoC4/CyLib.c **** 
 1536              		.loc 1 1703 0
 1537 0006 8023     		mov	r3, #128
 1538 0008 8000     		lsl	r0, r0, #2
 1539              	.LVL107:
 1540 000a 9B05     		lsl	r3, r3, #22
 1541 000c C318     		add	r3, r0, r3
 1542 000e 1868     		ldr	r0, [r3]
 1543              	.LVL108:
1709:.\Generated_Source\PSoC4/CyLib.c **** 
 1544              		.loc 1 1709 0
 1545              		@ sp needed
1706:.\Generated_Source\PSoC4/CyLib.c **** 
 1546              		.loc 1 1706 0
 1547 0010 1960     		str	r1, [r3]
1709:.\Generated_Source\PSoC4/CyLib.c **** 
 1548              		.loc 1 1709 0
 1549 0012 7047     		bx	lr
 1550              		.cfi_endproc
 1551              	.LFE33:
 1552              		.size	CyIntSetSysVector, .-CyIntSetSysVector
 1553              		.section	.text.CyIntGetSysVector,"ax",%progbits
 1554              		.align	1
 1555              		.global	CyIntGetSysVector
 1556              		.code	16
 1557              		.thumb_func
 1558              		.type	CyIntGetSysVector, %function
ARM GAS  C:\DOCUME~1\Chuck\LOCALS~1\Temp\ccVSU8Ya.s 			page 67


 1559              	CyIntGetSysVector:
 1560              	.LFB34:
1728:.\Generated_Source\PSoC4/CyLib.c ****     cyisraddress *ramVectorTable = (cyisraddress *) CY_INT_VECT_TABLE;
 1561              		.loc 1 1728 0
 1562              		.cfi_startproc
 1563              	.LVL109:
1731:.\Generated_Source\PSoC4/CyLib.c **** 
 1564              		.loc 1 1731 0
 1565 0000 0F28     		cmp	r0, #15
 1566 0002 00D9     		bls	.L127
 1567              	.LVL110:
 1568              	.LBB82:
 1569              	.LBB83:
 1570              		.loc 1 1979 0
 1571              	@ 1979 ".\Generated_Source\PSoC4\CyLib.c" 1
 1572 0004 01BE     		    bkpt    1
 1573              	@ 0 "" 2
 1574              	.LVL111:
 1575              		.code	16
 1576              	.L127:
 1577              	.LBE83:
 1578              	.LBE82:
1733:.\Generated_Source\PSoC4/CyLib.c **** }
 1579              		.loc 1 1733 0
 1580 0006 8023     		mov	r3, #128
 1581 0008 8000     		lsl	r0, r0, #2
 1582              	.LVL112:
 1583 000a 9B05     		lsl	r3, r3, #22
 1584 000c C018     		add	r0, r0, r3
 1585 000e 0068     		ldr	r0, [r0]
1734:.\Generated_Source\PSoC4/CyLib.c **** 
 1586              		.loc 1 1734 0
 1587              		@ sp needed
 1588 0010 7047     		bx	lr
 1589              		.cfi_endproc
 1590              	.LFE34:
 1591              		.size	CyIntGetSysVector, .-CyIntGetSysVector
 1592              		.section	.text.CyIntSetVector,"ax",%progbits
 1593              		.align	1
 1594              		.global	CyIntSetVector
 1595              		.code	16
 1596              		.thumb_func
 1597              		.type	CyIntSetVector, %function
 1598              	CyIntSetVector:
 1599              	.LFB35:
1753:.\Generated_Source\PSoC4/CyLib.c ****     cyisraddress oldIsr;
 1600              		.loc 1 1753 0
 1601              		.cfi_startproc
 1602              	.LVL113:
1757:.\Generated_Source\PSoC4/CyLib.c **** 
 1603              		.loc 1 1757 0
 1604 0000 1F28     		cmp	r0, #31
 1605 0002 00D9     		bls	.L129
 1606              	.LVL114:
 1607              	.LBB84:
 1608              	.LBB85:
 1609              		.loc 1 1979 0
ARM GAS  C:\DOCUME~1\Chuck\LOCALS~1\Temp\ccVSU8Ya.s 			page 68


 1610              	@ 1979 ".\Generated_Source\PSoC4\CyLib.c" 1
 1611 0004 01BE     		    bkpt    1
 1612              	@ 0 "" 2
 1613              	.LVL115:
 1614              		.code	16
 1615              	.L129:
 1616              	.LBE85:
 1617              	.LBE84:
1760:.\Generated_Source\PSoC4/CyLib.c **** 
 1618              		.loc 1 1760 0
 1619 0006 034B     		ldr	r3, .L130
 1620 0008 8000     		lsl	r0, r0, #2
 1621              	.LVL116:
 1622 000a C318     		add	r3, r0, r3
 1623 000c 1868     		ldr	r0, [r3]
 1624              	.LVL117:
1766:.\Generated_Source\PSoC4/CyLib.c **** 
 1625              		.loc 1 1766 0
 1626              		@ sp needed
1763:.\Generated_Source\PSoC4/CyLib.c **** 
 1627              		.loc 1 1763 0
 1628 000e 1960     		str	r1, [r3]
1766:.\Generated_Source\PSoC4/CyLib.c **** 
 1629              		.loc 1 1766 0
 1630 0010 7047     		bx	lr
 1631              	.L131:
 1632 0012 C046     		.align	2
 1633              	.L130:
 1634 0014 40000020 		.word	536870976
 1635              		.cfi_endproc
 1636              	.LFE35:
 1637              		.size	CyIntSetVector, .-CyIntSetVector
 1638              		.section	.text.CyIntGetVector,"ax",%progbits
 1639              		.align	1
 1640              		.global	CyIntGetVector
 1641              		.code	16
 1642              		.thumb_func
 1643              		.type	CyIntGetVector, %function
 1644              	CyIntGetVector:
 1645              	.LFB36:
1784:.\Generated_Source\PSoC4/CyLib.c ****     cyisraddress *ramVectorTable = (cyisraddress *) CY_INT_VECT_TABLE;
 1646              		.loc 1 1784 0
 1647              		.cfi_startproc
 1648              	.LVL118:
1787:.\Generated_Source\PSoC4/CyLib.c **** 
 1649              		.loc 1 1787 0
 1650 0000 1F28     		cmp	r0, #31
 1651 0002 00D9     		bls	.L133
 1652              	.LVL119:
 1653              	.LBB86:
 1654              	.LBB87:
 1655              		.loc 1 1979 0
 1656              	@ 1979 ".\Generated_Source\PSoC4\CyLib.c" 1
 1657 0004 01BE     		    bkpt    1
 1658              	@ 0 "" 2
 1659              	.LVL120:
 1660              		.code	16
ARM GAS  C:\DOCUME~1\Chuck\LOCALS~1\Temp\ccVSU8Ya.s 			page 69


 1661              	.L133:
 1662              	.LBE87:
 1663              	.LBE86:
1789:.\Generated_Source\PSoC4/CyLib.c **** }
 1664              		.loc 1 1789 0
 1665 0006 024B     		ldr	r3, .L134
 1666 0008 8000     		lsl	r0, r0, #2
 1667              	.LVL121:
 1668 000a C018     		add	r0, r0, r3
 1669 000c 0068     		ldr	r0, [r0]
1790:.\Generated_Source\PSoC4/CyLib.c **** 
 1670              		.loc 1 1790 0
 1671              		@ sp needed
 1672 000e 7047     		bx	lr
 1673              	.L135:
 1674              		.align	2
 1675              	.L134:
 1676 0010 40000020 		.word	536870976
 1677              		.cfi_endproc
 1678              	.LFE36:
 1679              		.size	CyIntGetVector, .-CyIntGetVector
 1680              		.section	.text.CyIntSetPriority,"ax",%progbits
 1681              		.align	1
 1682              		.global	CyIntSetPriority
 1683              		.code	16
 1684              		.thumb_func
 1685              		.type	CyIntSetPriority, %function
 1686              	CyIntSetPriority:
 1687              	.LFB37:
1808:.\Generated_Source\PSoC4/CyLib.c ****     uint8 interruptState;
 1688              		.loc 1 1808 0
 1689              		.cfi_startproc
 1690              	.LVL122:
 1691 0000 38B5     		push	{r3, r4, r5, lr}
 1692              		.cfi_def_cfa_offset 16
 1693              		.cfi_offset 3, -16
 1694              		.cfi_offset 4, -12
 1695              		.cfi_offset 5, -8
 1696              		.cfi_offset 14, -4
1808:.\Generated_Source\PSoC4/CyLib.c ****     uint8 interruptState;
 1697              		.loc 1 1808 0
 1698 0002 041C     		mov	r4, r0
 1699 0004 0D1E     		sub	r5, r1, #0
1813:.\Generated_Source\PSoC4/CyLib.c ****     CYASSERT(number < CY_NUM_INTERRUPTS);
 1700              		.loc 1 1813 0
 1701 0006 032D     		cmp	r5, #3
 1702 0008 00D9     		bls	.L137
 1703              	.LVL123:
 1704              	.LBB88:
 1705              	.LBB89:
 1706              		.loc 1 1979 0
 1707              	@ 1979 ".\Generated_Source\PSoC4\CyLib.c" 1
 1708 000a 01BE     		    bkpt    1
 1709              	@ 0 "" 2
 1710              	.LVL124:
 1711              		.code	16
 1712              	.L137:
ARM GAS  C:\DOCUME~1\Chuck\LOCALS~1\Temp\ccVSU8Ya.s 			page 70


 1713              	.LBE89:
 1714              	.LBE88:
1814:.\Generated_Source\PSoC4/CyLib.c **** 
 1715              		.loc 1 1814 0
 1716 000c 1F2C     		cmp	r4, #31
 1717 000e 00D9     		bls	.L138
 1718              	.LVL125:
 1719              	.LBB90:
 1720              	.LBB91:
 1721              		.loc 1 1979 0
 1722              	@ 1979 ".\Generated_Source\PSoC4\CyLib.c" 1
 1723 0010 01BE     		    bkpt    1
 1724              	@ 0 "" 2
 1725              	.LVL126:
 1726              		.code	16
 1727              	.L138:
 1728              	.LBE91:
 1729              	.LBE90:
1818:.\Generated_Source\PSoC4/CyLib.c **** 
 1730              		.loc 1 1818 0
 1731 0012 FFF7FEFF 		bl	CyEnterCriticalSection
 1732              	.LVL127:
1820:.\Generated_Source\PSoC4/CyLib.c ****     value &= (uint32)(~((uint32)(CY_INT_PRIORITY_MASK << shift)));
 1733              		.loc 1 1820 0
 1734 0016 A308     		lsr	r3, r4, #2
 1735 0018 074A     		ldr	r2, .L139
 1736 001a 9B00     		lsl	r3, r3, #2
 1737 001c 9B18     		add	r3, r3, r2
1816:.\Generated_Source\PSoC4/CyLib.c **** 
 1738              		.loc 1 1816 0
 1739 001e 0322     		mov	r2, #3
 1740 0020 1440     		and	r4, r2
 1741              	.LVL128:
 1742 0022 9440     		lsl	r4, r4, r2
 1743 0024 0634     		add	r4, r4, #6
1821:.\Generated_Source\PSoC4/CyLib.c ****     value |= ((uint32)priority << shift);
 1744              		.loc 1 1821 0
 1745 0026 A240     		lsl	r2, r2, r4
1822:.\Generated_Source\PSoC4/CyLib.c ****     CY_INT_PRIORITY_REG(number) = value;
 1746              		.loc 1 1822 0
 1747 0028 A540     		lsl	r5, r5, r4
1820:.\Generated_Source\PSoC4/CyLib.c ****     value &= (uint32)(~((uint32)(CY_INT_PRIORITY_MASK << shift)));
 1748              		.loc 1 1820 0
 1749 002a 1968     		ldr	r1, [r3]
 1750              	.LVL129:
1826:.\Generated_Source\PSoC4/CyLib.c **** 
 1751              		.loc 1 1826 0
 1752              		@ sp needed
1821:.\Generated_Source\PSoC4/CyLib.c ****     value |= ((uint32)priority << shift);
 1753              		.loc 1 1821 0
 1754 002c 9143     		bic	r1, r2
 1755              	.LVL130:
1822:.\Generated_Source\PSoC4/CyLib.c ****     CY_INT_PRIORITY_REG(number) = value;
 1756              		.loc 1 1822 0
 1757 002e 2943     		orr	r1, r5
 1758              	.LVL131:
1823:.\Generated_Source\PSoC4/CyLib.c **** 
ARM GAS  C:\DOCUME~1\Chuck\LOCALS~1\Temp\ccVSU8Ya.s 			page 71


 1759              		.loc 1 1823 0
 1760 0030 1960     		str	r1, [r3]
1825:.\Generated_Source\PSoC4/CyLib.c **** }
 1761              		.loc 1 1825 0
 1762 0032 FFF7FEFF 		bl	CyExitCriticalSection
 1763              	.LVL132:
1826:.\Generated_Source\PSoC4/CyLib.c **** 
 1764              		.loc 1 1826 0
 1765 0036 38BD     		pop	{r3, r4, r5, pc}
 1766              	.L140:
 1767              		.align	2
 1768              	.L139:
 1769 0038 00E400E0 		.word	-536812544
 1770              		.cfi_endproc
 1771              	.LFE37:
 1772              		.size	CyIntSetPriority, .-CyIntSetPriority
 1773              		.section	.text.CyIntGetPriority,"ax",%progbits
 1774              		.align	1
 1775              		.global	CyIntGetPriority
 1776              		.code	16
 1777              		.thumb_func
 1778              		.type	CyIntGetPriority, %function
 1779              	CyIntGetPriority:
 1780              	.LFB38:
1844:.\Generated_Source\PSoC4/CyLib.c ****     uint8 priority;
 1781              		.loc 1 1844 0
 1782              		.cfi_startproc
 1783              	.LVL133:
1847:.\Generated_Source\PSoC4/CyLib.c **** 
 1784              		.loc 1 1847 0
 1785 0000 1F28     		cmp	r0, #31
 1786 0002 00D9     		bls	.L142
 1787              	.LVL134:
 1788              	.LBB92:
 1789              	.LBB93:
 1790              		.loc 1 1979 0
 1791              	@ 1979 ".\Generated_Source\PSoC4\CyLib.c" 1
 1792 0004 01BE     		    bkpt    1
 1793              	@ 0 "" 2
 1794              	.LVL135:
 1795              		.code	16
 1796              	.L142:
 1797              	.LBE93:
 1798              	.LBE92:
1849:.\Generated_Source\PSoC4/CyLib.c **** 
 1799              		.loc 1 1849 0
 1800 0006 8308     		lsr	r3, r0, #2
 1801 0008 064A     		ldr	r2, .L143
 1802 000a 9B00     		lsl	r3, r3, #2
 1803 000c 9B18     		add	r3, r3, r2
 1804 000e 1968     		ldr	r1, [r3]
 1805              	.LVL136:
 1806 0010 0322     		mov	r2, #3
 1807 0012 031C     		mov	r3, r0
 1808 0014 1340     		and	r3, r2
 1809 0016 9340     		lsl	r3, r3, r2
 1810 0018 0633     		add	r3, r3, #6
ARM GAS  C:\DOCUME~1\Chuck\LOCALS~1\Temp\ccVSU8Ya.s 			page 72


 1811 001a D940     		lsr	r1, r1, r3
 1812              	.LVL137:
 1813 001c 081C     		mov	r0, r1
 1814              	.LVL138:
1852:.\Generated_Source\PSoC4/CyLib.c **** 
 1815              		.loc 1 1852 0
 1816              		@ sp needed
1851:.\Generated_Source\PSoC4/CyLib.c **** }
 1817              		.loc 1 1851 0
 1818 001e 1040     		and	r0, r2
1852:.\Generated_Source\PSoC4/CyLib.c **** 
 1819              		.loc 1 1852 0
 1820 0020 7047     		bx	lr
 1821              	.L144:
 1822 0022 C046     		.align	2
 1823              	.L143:
 1824 0024 00E400E0 		.word	-536812544
 1825              		.cfi_endproc
 1826              	.LFE38:
 1827              		.size	CyIntGetPriority, .-CyIntGetPriority
 1828              		.section	.text.CyIntEnable,"ax",%progbits
 1829              		.align	1
 1830              		.global	CyIntEnable
 1831              		.code	16
 1832              		.thumb_func
 1833              		.type	CyIntEnable, %function
 1834              	CyIntEnable:
 1835              	.LFB39:
1870:.\Generated_Source\PSoC4/CyLib.c ****     CY_INT_ENABLE_REG = ((uint32) 0x01u << (CY_INT_ENABLE_RANGE_MASK & number));
 1836              		.loc 1 1870 0
 1837              		.cfi_startproc
 1838              	.LVL139:
1871:.\Generated_Source\PSoC4/CyLib.c **** }
 1839              		.loc 1 1871 0
 1840 0000 1F23     		mov	r3, #31
 1841 0002 1840     		and	r0, r3
 1842              	.LVL140:
 1843 0004 1E3B     		sub	r3, r3, #30
 1844 0006 8340     		lsl	r3, r3, r0
 1845 0008 181C     		mov	r0, r3
 1846 000a 014B     		ldr	r3, .L146
1872:.\Generated_Source\PSoC4/CyLib.c **** 
 1847              		.loc 1 1872 0
 1848              		@ sp needed
1871:.\Generated_Source\PSoC4/CyLib.c **** }
 1849              		.loc 1 1871 0
 1850 000c 1860     		str	r0, [r3]
1872:.\Generated_Source\PSoC4/CyLib.c **** 
 1851              		.loc 1 1872 0
 1852 000e 7047     		bx	lr
 1853              	.L147:
 1854              		.align	2
 1855              	.L146:
 1856 0010 00E100E0 		.word	-536813312
 1857              		.cfi_endproc
 1858              	.LFE39:
 1859              		.size	CyIntEnable, .-CyIntEnable
ARM GAS  C:\DOCUME~1\Chuck\LOCALS~1\Temp\ccVSU8Ya.s 			page 73


 1860              		.section	.text.CyIntGetState,"ax",%progbits
 1861              		.align	1
 1862              		.global	CyIntGetState
 1863              		.code	16
 1864              		.thumb_func
 1865              		.type	CyIntGetState, %function
 1866              	CyIntGetState:
 1867              	.LFB40:
1890:.\Generated_Source\PSoC4/CyLib.c ****     /* Get state of interrupt. */
 1868              		.loc 1 1890 0
 1869              		.cfi_startproc
 1870              	.LVL141:
1892:.\Generated_Source\PSoC4/CyLib.c **** }
 1871              		.loc 1 1892 0
 1872 0000 1F22     		mov	r2, #31
 1873 0002 044B     		ldr	r3, .L149
 1874 0004 1040     		and	r0, r2
 1875              	.LVL142:
 1876 0006 1B68     		ldr	r3, [r3]
1893:.\Generated_Source\PSoC4/CyLib.c **** 
 1877              		.loc 1 1893 0
 1878              		@ sp needed
1892:.\Generated_Source\PSoC4/CyLib.c **** }
 1879              		.loc 1 1892 0
 1880 0008 C340     		lsr	r3, r3, r0
 1881 000a 181C     		mov	r0, r3
 1882 000c 0123     		mov	r3, #1
 1883 000e 1840     		and	r0, r3
1893:.\Generated_Source\PSoC4/CyLib.c **** 
 1884              		.loc 1 1893 0
 1885 0010 7047     		bx	lr
 1886              	.L150:
 1887 0012 C046     		.align	2
 1888              	.L149:
 1889 0014 00E100E0 		.word	-536813312
 1890              		.cfi_endproc
 1891              	.LFE40:
 1892              		.size	CyIntGetState, .-CyIntGetState
 1893              		.section	.text.CyIntDisable,"ax",%progbits
 1894              		.align	1
 1895              		.global	CyIntDisable
 1896              		.code	16
 1897              		.thumb_func
 1898              		.type	CyIntDisable, %function
 1899              	CyIntDisable:
 1900              	.LFB41:
1911:.\Generated_Source\PSoC4/CyLib.c ****     CY_INT_CLEAR_REG = ((uint32) 0x01u << (CY_INT_ENABLE_RANGE_MASK & number));
 1901              		.loc 1 1911 0
 1902              		.cfi_startproc
 1903              	.LVL143:
1912:.\Generated_Source\PSoC4/CyLib.c **** }
 1904              		.loc 1 1912 0
 1905 0000 1F23     		mov	r3, #31
 1906 0002 1840     		and	r0, r3
 1907              	.LVL144:
 1908 0004 1E3B     		sub	r3, r3, #30
 1909 0006 8340     		lsl	r3, r3, r0
ARM GAS  C:\DOCUME~1\Chuck\LOCALS~1\Temp\ccVSU8Ya.s 			page 74


 1910 0008 181C     		mov	r0, r3
 1911 000a 014B     		ldr	r3, .L152
1913:.\Generated_Source\PSoC4/CyLib.c **** 
 1912              		.loc 1 1913 0
 1913              		@ sp needed
1912:.\Generated_Source\PSoC4/CyLib.c **** }
 1914              		.loc 1 1912 0
 1915 000c 1860     		str	r0, [r3]
1913:.\Generated_Source\PSoC4/CyLib.c **** 
 1916              		.loc 1 1913 0
 1917 000e 7047     		bx	lr
 1918              	.L153:
 1919              		.align	2
 1920              	.L152:
 1921 0010 80E100E0 		.word	-536813184
 1922              		.cfi_endproc
 1923              	.LFE41:
 1924              		.size	CyIntDisable, .-CyIntDisable
 1925              		.section	.text.CyIntSetPending,"ax",%progbits
 1926              		.align	1
 1927              		.global	CyIntSetPending
 1928              		.code	16
 1929              		.thumb_func
 1930              		.type	CyIntSetPending, %function
 1931              	CyIntSetPending:
 1932              	.LFB42:
1930:.\Generated_Source\PSoC4/CyLib.c ****     CY_INT_SET_PEND_REG = ((uint32) 0x01u << (CY_INT_ENABLE_RANGE_MASK & number));
 1933              		.loc 1 1930 0
 1934              		.cfi_startproc
 1935              	.LVL145:
1931:.\Generated_Source\PSoC4/CyLib.c **** }
 1936              		.loc 1 1931 0
 1937 0000 1F23     		mov	r3, #31
 1938 0002 1840     		and	r0, r3
 1939              	.LVL146:
 1940 0004 1E3B     		sub	r3, r3, #30
 1941 0006 8340     		lsl	r3, r3, r0
 1942 0008 181C     		mov	r0, r3
 1943 000a 014B     		ldr	r3, .L155
1932:.\Generated_Source\PSoC4/CyLib.c **** 
 1944              		.loc 1 1932 0
 1945              		@ sp needed
1931:.\Generated_Source\PSoC4/CyLib.c **** }
 1946              		.loc 1 1931 0
 1947 000c 1860     		str	r0, [r3]
1932:.\Generated_Source\PSoC4/CyLib.c **** 
