ARM GAS  C:\DOCUME~1\Chuck\LOCALS~1\Temp\cc2xIxvb.s 			page 1


   1              		.cpu cortex-m0
   2              		.fpu softvfp
   3              		.eabi_attribute 20, 1
   4              		.eabi_attribute 21, 1
   5              		.eabi_attribute 23, 3
   6              		.eabi_attribute 24, 1
   7              		.eabi_attribute 25, 1
   8              		.eabi_attribute 26, 1
   9              		.eabi_attribute 30, 4
  10              		.eabi_attribute 34, 0
  11              		.eabi_attribute 18, 4
  12              		.code	16
  13              		.file	"UART_UART.c"
  14              		.text
  15              	.Ltext0:
  16              		.cfi_sections	.debug_frame
  17              		.section	.text.UART_UartInit,"ax",%progbits
  18              		.align	1
  19              		.global	UART_UartInit
  20              		.code	16
  21              		.thumb_func
  22              		.type	UART_UartInit, %function
  23              	UART_UartInit:
  24              	.LFB0:
  25              		.file 1 ".\\Generated_Source\\PSoC4\\UART_UART.c"
   1:.\Generated_Source\PSoC4/UART_UART.c **** /*******************************************************************************
   2:.\Generated_Source\PSoC4/UART_UART.c **** * File Name: UART_UART.c
   3:.\Generated_Source\PSoC4/UART_UART.c **** * Version 1.20
   4:.\Generated_Source\PSoC4/UART_UART.c **** *
   5:.\Generated_Source\PSoC4/UART_UART.c **** * Description:
   6:.\Generated_Source\PSoC4/UART_UART.c **** *  This file provides the source code to the API for the SCB Component in
   7:.\Generated_Source\PSoC4/UART_UART.c **** *  UART mode.
   8:.\Generated_Source\PSoC4/UART_UART.c **** *
   9:.\Generated_Source\PSoC4/UART_UART.c **** * Note:
  10:.\Generated_Source\PSoC4/UART_UART.c **** *
  11:.\Generated_Source\PSoC4/UART_UART.c **** *******************************************************************************
  12:.\Generated_Source\PSoC4/UART_UART.c **** * Copyright 2013-2014, Cypress Semiconductor Corporation.  All rights reserved.
  13:.\Generated_Source\PSoC4/UART_UART.c **** * You may use this file only in accordance with the license, terms, conditions,
  14:.\Generated_Source\PSoC4/UART_UART.c **** * disclaimers, and limitations in the end user license agreement accompanying
  15:.\Generated_Source\PSoC4/UART_UART.c **** * the software package with which this file was provided.
  16:.\Generated_Source\PSoC4/UART_UART.c **** *******************************************************************************/
  17:.\Generated_Source\PSoC4/UART_UART.c **** 
  18:.\Generated_Source\PSoC4/UART_UART.c **** #include "UART_PVT.h"
  19:.\Generated_Source\PSoC4/UART_UART.c **** #include "UART_SPI_UART_PVT.h"
  20:.\Generated_Source\PSoC4/UART_UART.c **** 
  21:.\Generated_Source\PSoC4/UART_UART.c **** 
  22:.\Generated_Source\PSoC4/UART_UART.c **** #if(UART_SCB_MODE_UNCONFIG_CONST_CFG)
  23:.\Generated_Source\PSoC4/UART_UART.c **** 
  24:.\Generated_Source\PSoC4/UART_UART.c ****     /***************************************
  25:.\Generated_Source\PSoC4/UART_UART.c ****     *  Config Structure Initialization
  26:.\Generated_Source\PSoC4/UART_UART.c ****     ***************************************/
  27:.\Generated_Source\PSoC4/UART_UART.c **** 
  28:.\Generated_Source\PSoC4/UART_UART.c ****     const UART_UART_INIT_STRUCT UART_configUart =
  29:.\Generated_Source\PSoC4/UART_UART.c ****     {
  30:.\Generated_Source\PSoC4/UART_UART.c ****         UART_UART_SUB_MODE,
  31:.\Generated_Source\PSoC4/UART_UART.c ****         UART_UART_DIRECTION,
  32:.\Generated_Source\PSoC4/UART_UART.c ****         UART_UART_DATA_BITS_NUM,
ARM GAS  C:\DOCUME~1\Chuck\LOCALS~1\Temp\cc2xIxvb.s 			page 2


  33:.\Generated_Source\PSoC4/UART_UART.c ****         UART_UART_PARITY_TYPE,
  34:.\Generated_Source\PSoC4/UART_UART.c ****         UART_UART_STOP_BITS_NUM,
  35:.\Generated_Source\PSoC4/UART_UART.c ****         UART_UART_OVS_FACTOR,
  36:.\Generated_Source\PSoC4/UART_UART.c ****         UART_UART_IRDA_LOW_POWER,
  37:.\Generated_Source\PSoC4/UART_UART.c ****         UART_UART_MEDIAN_FILTER_ENABLE,
  38:.\Generated_Source\PSoC4/UART_UART.c ****         UART_UART_RETRY_ON_NACK,
  39:.\Generated_Source\PSoC4/UART_UART.c ****         UART_UART_IRDA_POLARITY,
  40:.\Generated_Source\PSoC4/UART_UART.c ****         UART_UART_DROP_ON_PARITY_ERR,
  41:.\Generated_Source\PSoC4/UART_UART.c ****         UART_UART_DROP_ON_FRAME_ERR,
  42:.\Generated_Source\PSoC4/UART_UART.c ****         UART_UART_WAKE_ENABLE,
  43:.\Generated_Source\PSoC4/UART_UART.c ****         0u,
  44:.\Generated_Source\PSoC4/UART_UART.c ****         NULL,
  45:.\Generated_Source\PSoC4/UART_UART.c ****         0u,
  46:.\Generated_Source\PSoC4/UART_UART.c ****         NULL,
  47:.\Generated_Source\PSoC4/UART_UART.c ****         UART_UART_MP_MODE_ENABLE,
  48:.\Generated_Source\PSoC4/UART_UART.c ****         UART_UART_MP_ACCEPT_ADDRESS,
  49:.\Generated_Source\PSoC4/UART_UART.c ****         UART_UART_MP_RX_ADDRESS,
  50:.\Generated_Source\PSoC4/UART_UART.c ****         UART_UART_MP_RX_ADDRESS_MASK,
  51:.\Generated_Source\PSoC4/UART_UART.c ****         (uint32) UART_SCB_IRQ_INTERNAL,
  52:.\Generated_Source\PSoC4/UART_UART.c ****         UART_UART_INTR_RX_MASK,
  53:.\Generated_Source\PSoC4/UART_UART.c ****         UART_UART_RX_TRIGGER_LEVEL,
  54:.\Generated_Source\PSoC4/UART_UART.c ****         UART_UART_INTR_TX_MASK,
  55:.\Generated_Source\PSoC4/UART_UART.c ****         UART_UART_TX_TRIGGER_LEVEL
  56:.\Generated_Source\PSoC4/UART_UART.c ****     };
  57:.\Generated_Source\PSoC4/UART_UART.c **** 
  58:.\Generated_Source\PSoC4/UART_UART.c **** 
  59:.\Generated_Source\PSoC4/UART_UART.c ****     /*******************************************************************************
  60:.\Generated_Source\PSoC4/UART_UART.c ****     * Function Name: UART_UartInit
  61:.\Generated_Source\PSoC4/UART_UART.c ****     ********************************************************************************
  62:.\Generated_Source\PSoC4/UART_UART.c ****     *
  63:.\Generated_Source\PSoC4/UART_UART.c ****     * Summary:
  64:.\Generated_Source\PSoC4/UART_UART.c ****     *  Configures the SCB for the UART operation.
  65:.\Generated_Source\PSoC4/UART_UART.c ****     *
  66:.\Generated_Source\PSoC4/UART_UART.c ****     * Parameters:
  67:.\Generated_Source\PSoC4/UART_UART.c ****     *  config:  Pointer to a structure that contains the following ordered list of
  68:.\Generated_Source\PSoC4/UART_UART.c ****     *           fields. These fields match the selections available in the
  69:.\Generated_Source\PSoC4/UART_UART.c ****     *           customizer.
  70:.\Generated_Source\PSoC4/UART_UART.c ****     *
  71:.\Generated_Source\PSoC4/UART_UART.c ****     * Return:
  72:.\Generated_Source\PSoC4/UART_UART.c ****     *  None
  73:.\Generated_Source\PSoC4/UART_UART.c ****     *
  74:.\Generated_Source\PSoC4/UART_UART.c ****     *******************************************************************************/
  75:.\Generated_Source\PSoC4/UART_UART.c ****     void UART_UartInit(const UART_UART_INIT_STRUCT *config)
  76:.\Generated_Source\PSoC4/UART_UART.c ****     {
  77:.\Generated_Source\PSoC4/UART_UART.c ****         if(NULL == config)
  78:.\Generated_Source\PSoC4/UART_UART.c ****         {
  79:.\Generated_Source\PSoC4/UART_UART.c ****             CYASSERT(0u != 0u); /* Halt execution due bad function parameter */
  80:.\Generated_Source\PSoC4/UART_UART.c ****         }
  81:.\Generated_Source\PSoC4/UART_UART.c ****         else
  82:.\Generated_Source\PSoC4/UART_UART.c ****         {
  83:.\Generated_Source\PSoC4/UART_UART.c ****             /* Configure pins */
  84:.\Generated_Source\PSoC4/UART_UART.c ****             UART_SetPins(UART_SCB_MODE_UART, config->mode, config->direction);
  85:.\Generated_Source\PSoC4/UART_UART.c **** 
  86:.\Generated_Source\PSoC4/UART_UART.c ****             /* Store internal configuration */
  87:.\Generated_Source\PSoC4/UART_UART.c ****             UART_scbMode       = (uint8) UART_SCB_MODE_UART;
  88:.\Generated_Source\PSoC4/UART_UART.c ****             UART_scbEnableWake = (uint8) config->enableWake;
  89:.\Generated_Source\PSoC4/UART_UART.c ****             UART_scbEnableIntr = (uint8) config->enableInterrupt;
ARM GAS  C:\DOCUME~1\Chuck\LOCALS~1\Temp\cc2xIxvb.s 			page 3


  90:.\Generated_Source\PSoC4/UART_UART.c **** 
  91:.\Generated_Source\PSoC4/UART_UART.c ****             /* Set RX direction internal variables */
  92:.\Generated_Source\PSoC4/UART_UART.c ****             UART_rxBuffer      =         config->rxBuffer;
  93:.\Generated_Source\PSoC4/UART_UART.c ****             UART_rxDataBits    = (uint8) config->dataBits;
  94:.\Generated_Source\PSoC4/UART_UART.c ****             UART_rxBufferSize  = (uint8) config->rxBufferSize;
  95:.\Generated_Source\PSoC4/UART_UART.c **** 
  96:.\Generated_Source\PSoC4/UART_UART.c ****             /* Set TX direction internal variables */
  97:.\Generated_Source\PSoC4/UART_UART.c ****             UART_txBuffer      =         config->txBuffer;
  98:.\Generated_Source\PSoC4/UART_UART.c ****             UART_txDataBits    = (uint8) config->dataBits;
  99:.\Generated_Source\PSoC4/UART_UART.c ****             UART_txBufferSize  = (uint8) config->txBufferSize;
 100:.\Generated_Source\PSoC4/UART_UART.c **** 
 101:.\Generated_Source\PSoC4/UART_UART.c ****             /* Configure UART interface */
 102:.\Generated_Source\PSoC4/UART_UART.c ****             if(UART_UART_MODE_IRDA == config->mode)
 103:.\Generated_Source\PSoC4/UART_UART.c ****             {
 104:.\Generated_Source\PSoC4/UART_UART.c ****                 /* OVS settings: IrDA */
 105:.\Generated_Source\PSoC4/UART_UART.c ****                 UART_CTRL_REG  = ((0u != config->enableIrdaLowPower) ?
 106:.\Generated_Source\PSoC4/UART_UART.c ****                                                 (UART_UART_GET_CTRL_OVS_IRDA_LP(config->oversample)
 107:.\Generated_Source\PSoC4/UART_UART.c ****                                                 (UART_CTRL_OVS_IRDA_OVS16));
 108:.\Generated_Source\PSoC4/UART_UART.c ****             }
 109:.\Generated_Source\PSoC4/UART_UART.c ****             else
 110:.\Generated_Source\PSoC4/UART_UART.c ****             {
 111:.\Generated_Source\PSoC4/UART_UART.c ****                 /* OVS settings: UART and SmartCard */
 112:.\Generated_Source\PSoC4/UART_UART.c ****                 UART_CTRL_REG  = UART_GET_CTRL_OVS(config->oversample);
 113:.\Generated_Source\PSoC4/UART_UART.c ****             }
 114:.\Generated_Source\PSoC4/UART_UART.c **** 
 115:.\Generated_Source\PSoC4/UART_UART.c ****             UART_CTRL_REG     |= UART_GET_CTRL_ADDR_ACCEPT(config->multiprocAcceptAddr) |
 116:.\Generated_Source\PSoC4/UART_UART.c ****                                              UART_CTRL_UART;
 117:.\Generated_Source\PSoC4/UART_UART.c **** 
 118:.\Generated_Source\PSoC4/UART_UART.c ****             /* Configure sub-mode: UART, SmartCard or IrDA */
 119:.\Generated_Source\PSoC4/UART_UART.c ****             UART_UART_CTRL_REG = UART_GET_UART_CTRL_MODE(config->mode);
 120:.\Generated_Source\PSoC4/UART_UART.c **** 
 121:.\Generated_Source\PSoC4/UART_UART.c ****             /* Configure RX direction */
 122:.\Generated_Source\PSoC4/UART_UART.c ****             UART_UART_RX_CTRL_REG = UART_GET_UART_RX_CTRL_MODE(config->stopBits)              |
 123:.\Generated_Source\PSoC4/UART_UART.c ****                                         UART_GET_UART_RX_CTRL_POLARITY(config->enableInvertedRx)   
 124:.\Generated_Source\PSoC4/UART_UART.c ****                                         UART_GET_UART_RX_CTRL_MP_MODE(config->enableMultiproc)     
 125:.\Generated_Source\PSoC4/UART_UART.c ****                                         UART_GET_UART_RX_CTRL_DROP_ON_PARITY_ERR(config->dropOnPari
 126:.\Generated_Source\PSoC4/UART_UART.c ****                                         UART_GET_UART_RX_CTRL_DROP_ON_FRAME_ERR(config->dropOnFrame
 127:.\Generated_Source\PSoC4/UART_UART.c **** 
 128:.\Generated_Source\PSoC4/UART_UART.c ****             if(UART_UART_PARITY_NONE != config->parity)
 129:.\Generated_Source\PSoC4/UART_UART.c ****             {
 130:.\Generated_Source\PSoC4/UART_UART.c ****                UART_UART_RX_CTRL_REG |= UART_GET_UART_RX_CTRL_PARITY(config->parity) |
 131:.\Generated_Source\PSoC4/UART_UART.c ****                                                     UART_UART_RX_CTRL_PARITY_ENABLED;
 132:.\Generated_Source\PSoC4/UART_UART.c ****             }
 133:.\Generated_Source\PSoC4/UART_UART.c **** 
 134:.\Generated_Source\PSoC4/UART_UART.c ****             UART_RX_CTRL_REG      = UART_GET_RX_CTRL_DATA_WIDTH(config->dataBits)       |
 135:.\Generated_Source\PSoC4/UART_UART.c ****                                                 UART_GET_RX_CTRL_MEDIAN(config->enableMedianFilter)
 136:.\Generated_Source\PSoC4/UART_UART.c ****                                                 UART_GET_UART_RX_CTRL_ENABLED(config->direction);
 137:.\Generated_Source\PSoC4/UART_UART.c **** 
 138:.\Generated_Source\PSoC4/UART_UART.c ****             UART_RX_FIFO_CTRL_REG = UART_GET_RX_FIFO_CTRL_TRIGGER_LEVEL(config->rxTriggerLevel);
 139:.\Generated_Source\PSoC4/UART_UART.c **** 
 140:.\Generated_Source\PSoC4/UART_UART.c ****             /* Configure MP address */
 141:.\Generated_Source\PSoC4/UART_UART.c ****             UART_RX_MATCH_REG     = UART_GET_RX_MATCH_ADDR(config->multiprocAddr) |
 142:.\Generated_Source\PSoC4/UART_UART.c ****                                                 UART_GET_RX_MATCH_MASK(config->multiprocAddrMask);
 143:.\Generated_Source\PSoC4/UART_UART.c **** 
 144:.\Generated_Source\PSoC4/UART_UART.c ****             /* Configure RX direction */
 145:.\Generated_Source\PSoC4/UART_UART.c ****             UART_UART_TX_CTRL_REG = UART_GET_UART_TX_CTRL_MODE(config->stopBits) |
 146:.\Generated_Source\PSoC4/UART_UART.c ****                                                 UART_GET_UART_TX_CTRL_RETRY_NACK(config->enableRetr
ARM GAS  C:\DOCUME~1\Chuck\LOCALS~1\Temp\cc2xIxvb.s 			page 4


 147:.\Generated_Source\PSoC4/UART_UART.c **** 
 148:.\Generated_Source\PSoC4/UART_UART.c ****             if(UART_UART_PARITY_NONE != config->parity)
 149:.\Generated_Source\PSoC4/UART_UART.c ****             {
 150:.\Generated_Source\PSoC4/UART_UART.c ****                UART_UART_TX_CTRL_REG |= UART_GET_UART_TX_CTRL_PARITY(config->parity) |
 151:.\Generated_Source\PSoC4/UART_UART.c ****                                                     UART_UART_TX_CTRL_PARITY_ENABLED;
 152:.\Generated_Source\PSoC4/UART_UART.c ****             }
 153:.\Generated_Source\PSoC4/UART_UART.c **** 
 154:.\Generated_Source\PSoC4/UART_UART.c ****             UART_TX_CTRL_REG      = UART_GET_TX_CTRL_DATA_WIDTH(config->dataBits)    |
 155:.\Generated_Source\PSoC4/UART_UART.c ****                                                 UART_GET_UART_TX_CTRL_ENABLED(config->direction);
 156:.\Generated_Source\PSoC4/UART_UART.c **** 
 157:.\Generated_Source\PSoC4/UART_UART.c ****             UART_TX_FIFO_CTRL_REG = UART_GET_TX_FIFO_CTRL_TRIGGER_LEVEL(config->txTriggerLevel);
 158:.\Generated_Source\PSoC4/UART_UART.c **** 
 159:.\Generated_Source\PSoC4/UART_UART.c **** 
 160:.\Generated_Source\PSoC4/UART_UART.c **** 
 161:.\Generated_Source\PSoC4/UART_UART.c ****             /* Configure interrupt with UART handler but do not enable it */
 162:.\Generated_Source\PSoC4/UART_UART.c ****             CyIntDisable    (UART_ISR_NUMBER);
 163:.\Generated_Source\PSoC4/UART_UART.c ****             CyIntSetPriority(UART_ISR_NUMBER, UART_ISR_PRIORITY);
 164:.\Generated_Source\PSoC4/UART_UART.c ****             (void) CyIntSetVector(UART_ISR_NUMBER, &UART_SPI_UART_ISR);
 165:.\Generated_Source\PSoC4/UART_UART.c **** 
 166:.\Generated_Source\PSoC4/UART_UART.c ****             /* Configure WAKE interrupt */
 167:.\Generated_Source\PSoC4/UART_UART.c ****         #if(UART_UART_RX_WAKEUP_IRQ)
 168:.\Generated_Source\PSoC4/UART_UART.c ****             CyIntDisable    (UART_RX_WAKE_ISR_NUMBER);
 169:.\Generated_Source\PSoC4/UART_UART.c ****             CyIntSetPriority(UART_RX_WAKE_ISR_NUMBER, UART_RX_WAKE_ISR_PRIORITY);
 170:.\Generated_Source\PSoC4/UART_UART.c ****             (void) CyIntSetVector(UART_RX_WAKE_ISR_NUMBER, &UART_UART_WAKEUP_ISR);
 171:.\Generated_Source\PSoC4/UART_UART.c ****         #endif /* (UART_UART_RX_WAKEUP_IRQ) */
 172:.\Generated_Source\PSoC4/UART_UART.c **** 
 173:.\Generated_Source\PSoC4/UART_UART.c ****             /* Configure interrupt sources */
 174:.\Generated_Source\PSoC4/UART_UART.c ****             UART_INTR_I2C_EC_MASK_REG = UART_NO_INTR_SOURCES;
 175:.\Generated_Source\PSoC4/UART_UART.c ****             UART_INTR_SPI_EC_MASK_REG = UART_NO_INTR_SOURCES;
 176:.\Generated_Source\PSoC4/UART_UART.c ****             UART_INTR_SLAVE_MASK_REG  = UART_NO_INTR_SOURCES;
 177:.\Generated_Source\PSoC4/UART_UART.c ****             UART_INTR_MASTER_MASK_REG = UART_NO_INTR_SOURCES;
 178:.\Generated_Source\PSoC4/UART_UART.c ****             UART_INTR_RX_MASK_REG     = config->rxInterruptMask;
 179:.\Generated_Source\PSoC4/UART_UART.c ****             UART_INTR_TX_MASK_REG     = config->txInterruptMask;
 180:.\Generated_Source\PSoC4/UART_UART.c **** 
 181:.\Generated_Source\PSoC4/UART_UART.c ****             /* Clear RX buffer indexes */
 182:.\Generated_Source\PSoC4/UART_UART.c ****             UART_rxBufferHead     = 0u;
 183:.\Generated_Source\PSoC4/UART_UART.c ****             UART_rxBufferTail     = 0u;
 184:.\Generated_Source\PSoC4/UART_UART.c ****             UART_rxBufferOverflow = 0u;
 185:.\Generated_Source\PSoC4/UART_UART.c **** 
 186:.\Generated_Source\PSoC4/UART_UART.c ****             /* Clrea TX buffer indexes */
 187:.\Generated_Source\PSoC4/UART_UART.c ****             UART_txBufferHead = 0u;
 188:.\Generated_Source\PSoC4/UART_UART.c ****             UART_txBufferTail = 0u;
 189:.\Generated_Source\PSoC4/UART_UART.c ****         }
 190:.\Generated_Source\PSoC4/UART_UART.c ****     }
 191:.\Generated_Source\PSoC4/UART_UART.c **** 
 192:.\Generated_Source\PSoC4/UART_UART.c **** #else
 193:.\Generated_Source\PSoC4/UART_UART.c **** 
 194:.\Generated_Source\PSoC4/UART_UART.c ****     /*******************************************************************************
 195:.\Generated_Source\PSoC4/UART_UART.c ****     * Function Name: UART_UartInit
 196:.\Generated_Source\PSoC4/UART_UART.c ****     ********************************************************************************
 197:.\Generated_Source\PSoC4/UART_UART.c ****     *
 198:.\Generated_Source\PSoC4/UART_UART.c ****     * Summary:
 199:.\Generated_Source\PSoC4/UART_UART.c ****     *  Configures the SCB for the UART operation.
 200:.\Generated_Source\PSoC4/UART_UART.c ****     *
 201:.\Generated_Source\PSoC4/UART_UART.c ****     * Parameters:
 202:.\Generated_Source\PSoC4/UART_UART.c ****     *  None
 203:.\Generated_Source\PSoC4/UART_UART.c ****     *
ARM GAS  C:\DOCUME~1\Chuck\LOCALS~1\Temp\cc2xIxvb.s 			page 5


 204:.\Generated_Source\PSoC4/UART_UART.c ****     * Return:
 205:.\Generated_Source\PSoC4/UART_UART.c ****     *  None
 206:.\Generated_Source\PSoC4/UART_UART.c ****     *
 207:.\Generated_Source\PSoC4/UART_UART.c ****     *******************************************************************************/
 208:.\Generated_Source\PSoC4/UART_UART.c ****     void UART_UartInit(void)
 209:.\Generated_Source\PSoC4/UART_UART.c ****     {
  26              		.loc 1 209 0
  27              		.cfi_startproc
  28 0000 10B5     		push	{r4, lr}
  29              		.cfi_def_cfa_offset 8
  30              		.cfi_offset 4, -8
  31              		.cfi_offset 14, -4
 210:.\Generated_Source\PSoC4/UART_UART.c ****         /* Configure UART interface */
 211:.\Generated_Source\PSoC4/UART_UART.c ****         UART_CTRL_REG = UART_UART_DEFAULT_CTRL;
  32              		.loc 1 211 0
  33 0002 1D4A     		ldr	r2, .L2
 212:.\Generated_Source\PSoC4/UART_UART.c **** 
 213:.\Generated_Source\PSoC4/UART_UART.c ****         /* Configure sub-mode: UART, SmartCard or IrDA */
 214:.\Generated_Source\PSoC4/UART_UART.c ****         UART_UART_CTRL_REG = UART_UART_DEFAULT_UART_CTRL;
  34              		.loc 1 214 0
  35 0004 0024     		mov	r4, #0
 211:.\Generated_Source\PSoC4/UART_UART.c **** 
  36              		.loc 1 211 0
  37 0006 1D4B     		ldr	r3, .L2+4
 215:.\Generated_Source\PSoC4/UART_UART.c **** 
 216:.\Generated_Source\PSoC4/UART_UART.c ****         /* Configure RX direction */
 217:.\Generated_Source\PSoC4/UART_UART.c ****         UART_UART_RX_CTRL_REG = UART_UART_DEFAULT_UART_RX_CTRL;
 218:.\Generated_Source\PSoC4/UART_UART.c ****         UART_RX_CTRL_REG      = UART_UART_DEFAULT_RX_CTRL;
 219:.\Generated_Source\PSoC4/UART_UART.c ****         UART_RX_FIFO_CTRL_REG = UART_UART_DEFAULT_RX_FIFO_CTRL;
  38              		.loc 1 219 0
  39 0008 0720     		mov	r0, #7
 211:.\Generated_Source\PSoC4/UART_UART.c **** 
  40              		.loc 1 211 0
  41 000a 1A60     		str	r2, [r3]
 217:.\Generated_Source\PSoC4/UART_UART.c ****         UART_RX_CTRL_REG      = UART_UART_DEFAULT_RX_CTRL;
  42              		.loc 1 217 0
  43 000c 0122     		mov	r2, #1
 214:.\Generated_Source\PSoC4/UART_UART.c **** 
  44              		.loc 1 214 0
  45 000e 1C4B     		ldr	r3, .L2+8
 218:.\Generated_Source\PSoC4/UART_UART.c ****         UART_RX_FIFO_CTRL_REG = UART_UART_DEFAULT_RX_FIFO_CTRL;
  46              		.loc 1 218 0
  47 0010 1C49     		ldr	r1, .L2+12
 214:.\Generated_Source\PSoC4/UART_UART.c **** 
  48              		.loc 1 214 0
  49 0012 1C60     		str	r4, [r3]
 217:.\Generated_Source\PSoC4/UART_UART.c ****         UART_RX_CTRL_REG      = UART_UART_DEFAULT_RX_CTRL;
  50              		.loc 1 217 0
  51 0014 1C4B     		ldr	r3, .L2+16
 220:.\Generated_Source\PSoC4/UART_UART.c ****         UART_RX_MATCH_REG     = UART_UART_DEFAULT_RX_MATCH_REG;
 221:.\Generated_Source\PSoC4/UART_UART.c **** 
 222:.\Generated_Source\PSoC4/UART_UART.c ****         /* Configure TX direction */
 223:.\Generated_Source\PSoC4/UART_UART.c ****         UART_UART_TX_CTRL_REG = UART_UART_DEFAULT_UART_TX_CTRL;
 224:.\Generated_Source\PSoC4/UART_UART.c ****         UART_TX_CTRL_REG      = UART_UART_DEFAULT_TX_CTRL;
 225:.\Generated_Source\PSoC4/UART_UART.c ****         UART_TX_FIFO_CTRL_REG = UART_UART_DEFAULT_TX_FIFO_CTRL;
 226:.\Generated_Source\PSoC4/UART_UART.c **** 
 227:.\Generated_Source\PSoC4/UART_UART.c ****         /* Configure interrupt with UART handler but do not enable it */
ARM GAS  C:\DOCUME~1\Chuck\LOCALS~1\Temp\cc2xIxvb.s 			page 6


 228:.\Generated_Source\PSoC4/UART_UART.c ****     #if(UART_SCB_IRQ_INTERNAL)
 229:.\Generated_Source\PSoC4/UART_UART.c ****         CyIntDisable    (UART_ISR_NUMBER);
 230:.\Generated_Source\PSoC4/UART_UART.c ****         CyIntSetPriority(UART_ISR_NUMBER, UART_ISR_PRIORITY);
 231:.\Generated_Source\PSoC4/UART_UART.c ****         (void) CyIntSetVector(UART_ISR_NUMBER, &UART_SPI_UART_ISR);
 232:.\Generated_Source\PSoC4/UART_UART.c ****     #endif /* (UART_SCB_IRQ_INTERNAL) */
 233:.\Generated_Source\PSoC4/UART_UART.c **** 
 234:.\Generated_Source\PSoC4/UART_UART.c ****         /* Configure WAKE interrupt */
 235:.\Generated_Source\PSoC4/UART_UART.c ****     #if(UART_UART_RX_WAKEUP_IRQ)
 236:.\Generated_Source\PSoC4/UART_UART.c ****         CyIntDisable    (UART_RX_WAKE_ISR_NUMBER);
 237:.\Generated_Source\PSoC4/UART_UART.c ****         CyIntSetPriority(UART_RX_WAKE_ISR_NUMBER, UART_RX_WAKE_ISR_PRIORITY);
 238:.\Generated_Source\PSoC4/UART_UART.c ****         (void) CyIntSetVector(UART_RX_WAKE_ISR_NUMBER, &UART_UART_WAKEUP_ISR);
 239:.\Generated_Source\PSoC4/UART_UART.c ****     #endif /* (UART_UART_RX_WAKEUP_IRQ) */
 240:.\Generated_Source\PSoC4/UART_UART.c **** 
 241:.\Generated_Source\PSoC4/UART_UART.c ****         /* Configure interrupt sources */
 242:.\Generated_Source\PSoC4/UART_UART.c ****         UART_INTR_I2C_EC_MASK_REG = UART_UART_DEFAULT_INTR_I2C_EC_MASK;
 243:.\Generated_Source\PSoC4/UART_UART.c ****         UART_INTR_SPI_EC_MASK_REG = UART_UART_DEFAULT_INTR_SPI_EC_MASK;
 244:.\Generated_Source\PSoC4/UART_UART.c ****         UART_INTR_SLAVE_MASK_REG  = UART_UART_DEFAULT_INTR_SLAVE_MASK;
 245:.\Generated_Source\PSoC4/UART_UART.c ****         UART_INTR_MASTER_MASK_REG = UART_UART_DEFAULT_INTR_MASTER_MASK;
 246:.\Generated_Source\PSoC4/UART_UART.c ****         UART_INTR_RX_MASK_REG     = UART_UART_DEFAULT_INTR_RX_MASK;
 247:.\Generated_Source\PSoC4/UART_UART.c ****         UART_INTR_TX_MASK_REG     = UART_UART_DEFAULT_INTR_TX_MASK;
 248:.\Generated_Source\PSoC4/UART_UART.c **** 
 249:.\Generated_Source\PSoC4/UART_UART.c ****     #if(UART_INTERNAL_RX_SW_BUFFER_CONST)
 250:.\Generated_Source\PSoC4/UART_UART.c ****         UART_rxBufferHead     = 0u;
 251:.\Generated_Source\PSoC4/UART_UART.c ****         UART_rxBufferTail     = 0u;
 252:.\Generated_Source\PSoC4/UART_UART.c ****         UART_rxBufferOverflow = 0u;
 253:.\Generated_Source\PSoC4/UART_UART.c ****     #endif /* (UART_INTERNAL_RX_SW_BUFFER_CONST) */
 254:.\Generated_Source\PSoC4/UART_UART.c **** 
 255:.\Generated_Source\PSoC4/UART_UART.c ****     #if(UART_INTERNAL_TX_SW_BUFFER_CONST)
 256:.\Generated_Source\PSoC4/UART_UART.c ****         UART_txBufferHead = 0u;
 257:.\Generated_Source\PSoC4/UART_UART.c ****         UART_txBufferTail = 0u;
 258:.\Generated_Source\PSoC4/UART_UART.c ****     #endif /* (UART_INTERNAL_TX_SW_BUFFER_CONST) */
 259:.\Generated_Source\PSoC4/UART_UART.c ****     }
  52              		.loc 1 259 0
  53              		@ sp needed
 217:.\Generated_Source\PSoC4/UART_UART.c ****         UART_RX_CTRL_REG      = UART_UART_DEFAULT_RX_CTRL;
  54              		.loc 1 217 0
  55 0016 1A60     		str	r2, [r3]
 218:.\Generated_Source\PSoC4/UART_UART.c ****         UART_RX_FIFO_CTRL_REG = UART_UART_DEFAULT_RX_FIFO_CTRL;
  56              		.loc 1 218 0
  57 0018 1C4B     		ldr	r3, .L2+20
  58 001a 0B60     		str	r3, [r1]
 219:.\Generated_Source\PSoC4/UART_UART.c ****         UART_RX_MATCH_REG     = UART_UART_DEFAULT_RX_MATCH_REG;
  59              		.loc 1 219 0
  60 001c 1C49     		ldr	r1, .L2+24
  61 001e 0860     		str	r0, [r1]
 220:.\Generated_Source\PSoC4/UART_UART.c ****         UART_RX_MATCH_REG     = UART_UART_DEFAULT_RX_MATCH_REG;
  62              		.loc 1 220 0
  63 0020 1C49     		ldr	r1, .L2+28
 229:.\Generated_Source\PSoC4/UART_UART.c ****         CyIntSetPriority(UART_ISR_NUMBER, UART_ISR_PRIORITY);
  64              		.loc 1 229 0
  65 0022 0330     		add	r0, r0, #3
 220:.\Generated_Source\PSoC4/UART_UART.c **** 
  66              		.loc 1 220 0
  67 0024 0C60     		str	r4, [r1]
 223:.\Generated_Source\PSoC4/UART_UART.c ****         UART_TX_CTRL_REG      = UART_UART_DEFAULT_TX_CTRL;
  68              		.loc 1 223 0
  69 0026 1C49     		ldr	r1, .L2+32
ARM GAS  C:\DOCUME~1\Chuck\LOCALS~1\Temp\cc2xIxvb.s 			page 7


  70 0028 0A60     		str	r2, [r1]
 224:.\Generated_Source\PSoC4/UART_UART.c ****         UART_TX_FIFO_CTRL_REG = UART_UART_DEFAULT_TX_FIFO_CTRL;
  71              		.loc 1 224 0
  72 002a 1C4A     		ldr	r2, .L2+36
  73 002c 1360     		str	r3, [r2]
 225:.\Generated_Source\PSoC4/UART_UART.c **** 
  74              		.loc 1 225 0
  75 002e 1C4B     		ldr	r3, .L2+40
  76 0030 1C60     		str	r4, [r3]
 229:.\Generated_Source\PSoC4/UART_UART.c ****         CyIntSetPriority(UART_ISR_NUMBER, UART_ISR_PRIORITY);
  77              		.loc 1 229 0
  78 0032 FFF7FEFF 		bl	CyIntDisable
  79              	.LVL0:
 230:.\Generated_Source\PSoC4/UART_UART.c ****         (void) CyIntSetVector(UART_ISR_NUMBER, &UART_SPI_UART_ISR);
  80              		.loc 1 230 0
  81 0036 0A20     		mov	r0, #10
  82 0038 0321     		mov	r1, #3
  83 003a FFF7FEFF 		bl	CyIntSetPriority
  84              	.LVL1:
 231:.\Generated_Source\PSoC4/UART_UART.c ****     #endif /* (UART_SCB_IRQ_INTERNAL) */
  85              		.loc 1 231 0
  86 003e 1949     		ldr	r1, .L2+44
  87 0040 0A20     		mov	r0, #10
  88 0042 FFF7FEFF 		bl	CyIntSetVector
  89              	.LVL2:
 246:.\Generated_Source\PSoC4/UART_UART.c ****         UART_INTR_TX_MASK_REG     = UART_UART_DEFAULT_INTR_TX_MASK;
  90              		.loc 1 246 0
  91 0046 0422     		mov	r2, #4
 242:.\Generated_Source\PSoC4/UART_UART.c ****         UART_INTR_SPI_EC_MASK_REG = UART_UART_DEFAULT_INTR_SPI_EC_MASK;
  92              		.loc 1 242 0
  93 0048 174B     		ldr	r3, .L2+48
  94 004a 1C60     		str	r4, [r3]
 243:.\Generated_Source\PSoC4/UART_UART.c ****         UART_INTR_SLAVE_MASK_REG  = UART_UART_DEFAULT_INTR_SLAVE_MASK;
  95              		.loc 1 243 0
  96 004c 174B     		ldr	r3, .L2+52
  97 004e 1C60     		str	r4, [r3]
 244:.\Generated_Source\PSoC4/UART_UART.c ****         UART_INTR_MASTER_MASK_REG = UART_UART_DEFAULT_INTR_MASTER_MASK;
  98              		.loc 1 244 0
  99 0050 174B     		ldr	r3, .L2+56
 100 0052 1C60     		str	r4, [r3]
 245:.\Generated_Source\PSoC4/UART_UART.c ****         UART_INTR_RX_MASK_REG     = UART_UART_DEFAULT_INTR_RX_MASK;
 101              		.loc 1 245 0
 102 0054 174B     		ldr	r3, .L2+60
 103 0056 1C60     		str	r4, [r3]
 246:.\Generated_Source\PSoC4/UART_UART.c ****         UART_INTR_TX_MASK_REG     = UART_UART_DEFAULT_INTR_TX_MASK;
 104              		.loc 1 246 0
 105 0058 174B     		ldr	r3, .L2+64
 106 005a 1A60     		str	r2, [r3]
 247:.\Generated_Source\PSoC4/UART_UART.c **** 
 107              		.loc 1 247 0
 108 005c 174B     		ldr	r3, .L2+68
 109 005e 1C60     		str	r4, [r3]
 250:.\Generated_Source\PSoC4/UART_UART.c ****         UART_rxBufferTail     = 0u;
 110              		.loc 1 250 0
 111 0060 174B     		ldr	r3, .L2+72
 112 0062 1C60     		str	r4, [r3]
 251:.\Generated_Source\PSoC4/UART_UART.c ****         UART_rxBufferOverflow = 0u;
ARM GAS  C:\DOCUME~1\Chuck\LOCALS~1\Temp\cc2xIxvb.s 			page 8


 113              		.loc 1 251 0
 114 0064 174B     		ldr	r3, .L2+76
 115 0066 1C60     		str	r4, [r3]
 252:.\Generated_Source\PSoC4/UART_UART.c ****     #endif /* (UART_INTERNAL_RX_SW_BUFFER_CONST) */
 116              		.loc 1 252 0
 117 0068 174B     		ldr	r3, .L2+80
 118 006a 1C70     		strb	r4, [r3]
 256:.\Generated_Source\PSoC4/UART_UART.c ****         UART_txBufferTail = 0u;
 119              		.loc 1 256 0
 120 006c 174B     		ldr	r3, .L2+84
 121 006e 1C60     		str	r4, [r3]
 257:.\Generated_Source\PSoC4/UART_UART.c ****     #endif /* (UART_INTERNAL_TX_SW_BUFFER_CONST) */
 122              		.loc 1 257 0
 123 0070 174B     		ldr	r3, .L2+88
 124 0072 1C60     		str	r4, [r3]
 125              		.loc 1 259 0
 126 0074 10BD     		pop	{r4, pc}
 127              	.L3:
 128 0076 C046     		.align	2
 129              	.L2:
 130 0078 0B000002 		.word	33554443
 131 007c 00000640 		.word	1074135040
 132 0080 40000640 		.word	1074135104
 133 0084 00030640 		.word	1074135808
 134 0088 48000640 		.word	1074135112
 135 008c 07000080 		.word	-2147483641
 136 0090 04030640 		.word	1074135812
 137 0094 10030640 		.word	1074135824
 138 0098 44000640 		.word	1074135108
 139 009c 00020640 		.word	1074135552
 140 00a0 04020640 		.word	1074135556
 141 00a4 00000000 		.word	UART_SPI_UART_ISR
 142 00a8 880E0640 		.word	1074138760
 143 00ac C80E0640 		.word	1074138824
 144 00b0 480F0640 		.word	1074138952
 145 00b4 080F0640 		.word	1074138888
 146 00b8 C80F0640 		.word	1074139080
 147 00bc 880F0640 		.word	1074139016
 148 00c0 00000000 		.word	UART_rxBufferHead
 149 00c4 00000000 		.word	UART_rxBufferTail
 150 00c8 00000000 		.word	UART_rxBufferOverflow
 151 00cc 00000000 		.word	UART_txBufferHead
 152 00d0 00000000 		.word	UART_txBufferTail
 153              		.cfi_endproc
 154              	.LFE0:
 155              		.size	UART_UartInit, .-UART_UartInit
 156              		.section	.text.UART_UartSetRxAddress,"ax",%progbits
 157              		.align	1
 158              		.global	UART_UartSetRxAddress
 159              		.code	16
 160              		.thumb_func
 161              		.type	UART_UartSetRxAddress, %function
 162              	UART_UartSetRxAddress:
 163              	.LFB1:
 260:.\Generated_Source\PSoC4/UART_UART.c **** #endif /* (UART_SCB_MODE_UNCONFIG_CONST_CFG) */
 261:.\Generated_Source\PSoC4/UART_UART.c **** 
 262:.\Generated_Source\PSoC4/UART_UART.c **** 
ARM GAS  C:\DOCUME~1\Chuck\LOCALS~1\Temp\cc2xIxvb.s 			page 9


 263:.\Generated_Source\PSoC4/UART_UART.c **** /*******************************************************************************
 264:.\Generated_Source\PSoC4/UART_UART.c **** * Function Name: UART_UartSetRxAddress
 265:.\Generated_Source\PSoC4/UART_UART.c **** ********************************************************************************
 266:.\Generated_Source\PSoC4/UART_UART.c **** *
 267:.\Generated_Source\PSoC4/UART_UART.c **** * Summary:
 268:.\Generated_Source\PSoC4/UART_UART.c **** *  Sets the hardware detectable receiver address for the UART in the Multiprocessor
 269:.\Generated_Source\PSoC4/UART_UART.c **** *  mode.
 270:.\Generated_Source\PSoC4/UART_UART.c **** *
 271:.\Generated_Source\PSoC4/UART_UART.c **** * Parameters:
 272:.\Generated_Source\PSoC4/UART_UART.c **** *  address: Address for hardware address detection.
 273:.\Generated_Source\PSoC4/UART_UART.c **** *
 274:.\Generated_Source\PSoC4/UART_UART.c **** * Return:
 275:.\Generated_Source\PSoC4/UART_UART.c **** *  None
 276:.\Generated_Source\PSoC4/UART_UART.c **** *
 277:.\Generated_Source\PSoC4/UART_UART.c **** *******************************************************************************/
 278:.\Generated_Source\PSoC4/UART_UART.c **** void UART_UartSetRxAddress(uint32 address)
 279:.\Generated_Source\PSoC4/UART_UART.c **** {
 164              		.loc 1 279 0
 165              		.cfi_startproc
 166              	.LVL3:
 280:.\Generated_Source\PSoC4/UART_UART.c ****      uint32 matchReg;
 281:.\Generated_Source\PSoC4/UART_UART.c **** 
 282:.\Generated_Source\PSoC4/UART_UART.c ****     matchReg = UART_RX_MATCH_REG;
 283:.\Generated_Source\PSoC4/UART_UART.c **** 
 284:.\Generated_Source\PSoC4/UART_UART.c ****     matchReg &= ((uint32) ~UART_RX_MATCH_ADDR_MASK); /* Clear address bits */
 167              		.loc 1 284 0
 168 0000 FF22     		mov	r2, #255
 282:.\Generated_Source\PSoC4/UART_UART.c **** 
 169              		.loc 1 282 0
 170 0002 0349     		ldr	r1, .L5
 285:.\Generated_Source\PSoC4/UART_UART.c ****     matchReg |= ((uint32)  (address & UART_RX_MATCH_ADDR_MASK)); /* Set address  */
 171              		.loc 1 285 0
 172 0004 1040     		and	r0, r2
 173              	.LVL4:
 282:.\Generated_Source\PSoC4/UART_UART.c **** 
 174              		.loc 1 282 0
 175 0006 0B68     		ldr	r3, [r1]
 176              	.LVL5:
 286:.\Generated_Source\PSoC4/UART_UART.c **** 
 287:.\Generated_Source\PSoC4/UART_UART.c ****     UART_RX_MATCH_REG = matchReg;
 288:.\Generated_Source\PSoC4/UART_UART.c **** }
 177              		.loc 1 288 0
 178              		@ sp needed
 284:.\Generated_Source\PSoC4/UART_UART.c ****     matchReg |= ((uint32)  (address & UART_RX_MATCH_ADDR_MASK)); /* Set address  */
 179              		.loc 1 284 0
 180 0008 9343     		bic	r3, r2
 181              	.LVL6:
 285:.\Generated_Source\PSoC4/UART_UART.c ****     matchReg |= ((uint32)  (address & UART_RX_MATCH_ADDR_MASK)); /* Set address  */
 182              		.loc 1 285 0
 183 000a 1843     		orr	r0, r3
 184              	.LVL7:
 287:.\Generated_Source\PSoC4/UART_UART.c **** }
 185              		.loc 1 287 0
 186 000c 0860     		str	r0, [r1]
 187              		.loc 1 288 0
 188 000e 7047     		bx	lr
 189              	.L6:
ARM GAS  C:\DOCUME~1\Chuck\LOCALS~1\Temp\cc2xIxvb.s 			page 10


 190              		.align	2
 191              	.L5:
 192 0010 10030640 		.word	1074135824
 193              		.cfi_endproc
 194              	.LFE1:
 195              		.size	UART_UartSetRxAddress, .-UART_UartSetRxAddress
 196              		.section	.text.UART_UartSetRxAddressMask,"ax",%progbits
 197              		.align	1
 198              		.global	UART_UartSetRxAddressMask
 199              		.code	16
 200              		.thumb_func
 201              		.type	UART_UartSetRxAddressMask, %function
 202              	UART_UartSetRxAddressMask:
 203              	.LFB2:
 289:.\Generated_Source\PSoC4/UART_UART.c **** 
 290:.\Generated_Source\PSoC4/UART_UART.c **** 
 291:.\Generated_Source\PSoC4/UART_UART.c **** /*******************************************************************************
 292:.\Generated_Source\PSoC4/UART_UART.c **** * Function Name: UART_UartSetRxAddressMask
 293:.\Generated_Source\PSoC4/UART_UART.c **** ********************************************************************************
 294:.\Generated_Source\PSoC4/UART_UART.c **** *
 295:.\Generated_Source\PSoC4/UART_UART.c **** * Summary:
 296:.\Generated_Source\PSoC4/UART_UART.c **** *  Sets the hardware address mask for the UART in the Multiprocessor mode.
 297:.\Generated_Source\PSoC4/UART_UART.c **** *
 298:.\Generated_Source\PSoC4/UART_UART.c **** * Parameters:
 299:.\Generated_Source\PSoC4/UART_UART.c **** *  addressMask: Address mask.
 300:.\Generated_Source\PSoC4/UART_UART.c **** *   0 - address bit does not care while comparison.
 301:.\Generated_Source\PSoC4/UART_UART.c **** *   1 - address bit is significant while comparison.
 302:.\Generated_Source\PSoC4/UART_UART.c **** *
 303:.\Generated_Source\PSoC4/UART_UART.c **** * Return:
 304:.\Generated_Source\PSoC4/UART_UART.c **** *  None
 305:.\Generated_Source\PSoC4/UART_UART.c **** *
 306:.\Generated_Source\PSoC4/UART_UART.c **** *******************************************************************************/
 307:.\Generated_Source\PSoC4/UART_UART.c **** void UART_UartSetRxAddressMask(uint32 addressMask)
 308:.\Generated_Source\PSoC4/UART_UART.c **** {
 204              		.loc 1 308 0
 205              		.cfi_startproc
 206              	.LVL8:
 309:.\Generated_Source\PSoC4/UART_UART.c ****     uint32 matchReg;
 310:.\Generated_Source\PSoC4/UART_UART.c **** 
 311:.\Generated_Source\PSoC4/UART_UART.c ****     matchReg = UART_RX_MATCH_REG;
 207              		.loc 1 311 0
 208 0000 034A     		ldr	r2, .L8
 312:.\Generated_Source\PSoC4/UART_UART.c **** 
 313:.\Generated_Source\PSoC4/UART_UART.c ****     matchReg &= ((uint32) ~UART_RX_MATCH_MASK_MASK); /* Clear address mask bits */
 209              		.loc 1 313 0
 210 0002 044B     		ldr	r3, .L8+4
 311:.\Generated_Source\PSoC4/UART_UART.c **** 
 211              		.loc 1 311 0
 212 0004 1168     		ldr	r1, [r2]
 213              	.LVL9:
 314:.\Generated_Source\PSoC4/UART_UART.c ****     matchReg |= ((uint32) (addressMask << UART_RX_MATCH_MASK_POS));
 214              		.loc 1 314 0
 215 0006 0004     		lsl	r0, r0, #16
 216              	.LVL10:
 313:.\Generated_Source\PSoC4/UART_UART.c ****     matchReg |= ((uint32) (addressMask << UART_RX_MATCH_MASK_POS));
 217              		.loc 1 313 0
 218 0008 0B40     		and	r3, r1
ARM GAS  C:\DOCUME~1\Chuck\LOCALS~1\Temp\cc2xIxvb.s 			page 11


 219              	.LVL11:
 220              		.loc 1 314 0
 221 000a 1843     		orr	r0, r3
 222              	.LVL12:
 315:.\Generated_Source\PSoC4/UART_UART.c **** 
 316:.\Generated_Source\PSoC4/UART_UART.c ****     UART_RX_MATCH_REG = matchReg;
 223              		.loc 1 316 0
 224 000c 1060     		str	r0, [r2]
 317:.\Generated_Source\PSoC4/UART_UART.c **** }
 225              		.loc 1 317 0
 226              		@ sp needed
 227 000e 7047     		bx	lr
 228              	.L9:
 229              		.align	2
 230              	.L8:
 231 0010 10030640 		.word	1074135824
 232 0014 FFFF00FF 		.word	-16711681
 233              		.cfi_endproc
 234              	.LFE2:
 235              		.size	UART_UartSetRxAddressMask, .-UART_UartSetRxAddressMask
 236              		.section	.text.UART_UartGetChar,"ax",%progbits
 237              		.align	1
 238              		.global	UART_UartGetChar
 239              		.code	16
 240              		.thumb_func
 241              		.type	UART_UartGetChar, %function
 242              	UART_UartGetChar:
 243              	.LFB3:
 318:.\Generated_Source\PSoC4/UART_UART.c **** 
 319:.\Generated_Source\PSoC4/UART_UART.c **** 
 320:.\Generated_Source\PSoC4/UART_UART.c **** #if(UART_UART_RX_DIRECTION)
 321:.\Generated_Source\PSoC4/UART_UART.c ****     /*******************************************************************************
 322:.\Generated_Source\PSoC4/UART_UART.c ****     * Function Name: UART_UartGetChar
 323:.\Generated_Source\PSoC4/UART_UART.c ****     ********************************************************************************
 324:.\Generated_Source\PSoC4/UART_UART.c ****     *
 325:.\Generated_Source\PSoC4/UART_UART.c ****     * Summary:
 326:.\Generated_Source\PSoC4/UART_UART.c ****     *  Retrieves the next data element from the receive buffer.
 327:.\Generated_Source\PSoC4/UART_UART.c ****     *  This function is designed for ASCII characters and returns a char
 328:.\Generated_Source\PSoC4/UART_UART.c ****     *  where 1 to 255 are valid characters and 0 indicates an error occurred or
 329:.\Generated_Source\PSoC4/UART_UART.c ****     *  no data present.
 330:.\Generated_Source\PSoC4/UART_UART.c ****     *  - The RX software buffer is disabled: returns the data element retrieved from the RX FIFO.
 331:.\Generated_Source\PSoC4/UART_UART.c ****     *    Undefined data will be returned if the RX FIFO is empty.
 332:.\Generated_Source\PSoC4/UART_UART.c ****     *  - The RX software buffer is enabled: returns the data element from the software receive
 333:.\Generated_Source\PSoC4/UART_UART.c ****     *    buffer.
 334:.\Generated_Source\PSoC4/UART_UART.c ****     *
 335:.\Generated_Source\PSoC4/UART_UART.c ****     * Parameters:
 336:.\Generated_Source\PSoC4/UART_UART.c ****     *  None
 337:.\Generated_Source\PSoC4/UART_UART.c ****     *
 338:.\Generated_Source\PSoC4/UART_UART.c ****     * Return:
 339:.\Generated_Source\PSoC4/UART_UART.c ****     *  The next data element from the receive buffer.
 340:.\Generated_Source\PSoC4/UART_UART.c ****     *  ASCII character values from 1 to 255 are valid.
 341:.\Generated_Source\PSoC4/UART_UART.c ****     *  A returned zero signifies an error condition or no data available.
 342:.\Generated_Source\PSoC4/UART_UART.c ****     *
 343:.\Generated_Source\PSoC4/UART_UART.c ****     *******************************************************************************/
 344:.\Generated_Source\PSoC4/UART_UART.c ****     uint32 UART_UartGetChar(void)
 345:.\Generated_Source\PSoC4/UART_UART.c ****     {
 244              		.loc 1 345 0
ARM GAS  C:\DOCUME~1\Chuck\LOCALS~1\Temp\cc2xIxvb.s 			page 12


 245              		.cfi_startproc
 246              	.LVL13:
 247 0000 08B5     		push	{r3, lr}
 248              		.cfi_def_cfa_offset 8
 249              		.cfi_offset 3, -8
 250              		.cfi_offset 14, -4
 346:.\Generated_Source\PSoC4/UART_UART.c ****         uint32 rxData = 0u;
 347:.\Generated_Source\PSoC4/UART_UART.c **** 
 348:.\Generated_Source\PSoC4/UART_UART.c ****         /* Read data only if there is data to read */
 349:.\Generated_Source\PSoC4/UART_UART.c ****         if(0u != UART_SpiUartGetRxBufferSize())
 251              		.loc 1 349 0
 252 0002 FFF7FEFF 		bl	UART_SpiUartGetRxBufferSize
 253              	.LVL14:
 254 0006 031C     		mov	r3, r0
 346:.\Generated_Source\PSoC4/UART_UART.c ****         uint32 rxData = 0u;
 255              		.loc 1 346 0
 256 0008 0020     		mov	r0, #0
 257              		.loc 1 349 0
 258 000a 8342     		cmp	r3, r0
 259 000c 01D0     		beq	.L11
 350:.\Generated_Source\PSoC4/UART_UART.c ****         {
 351:.\Generated_Source\PSoC4/UART_UART.c ****             rxData = UART_SpiUartReadRxData();
 260              		.loc 1 351 0
 261 000e FFF7FEFF 		bl	UART_SpiUartReadRxData
 262              	.LVL15:
 263              	.L11:
 352:.\Generated_Source\PSoC4/UART_UART.c ****         }
 353:.\Generated_Source\PSoC4/UART_UART.c **** 
 354:.\Generated_Source\PSoC4/UART_UART.c ****         if(UART_CHECK_INTR_RX(UART_INTR_RX_ERR))
 264              		.loc 1 354 0
 265 0012 D822     		mov	r2, #216
 266 0014 034B     		ldr	r3, .L19
 267 0016 9200     		lsl	r2, r2, #2
 268 0018 1968     		ldr	r1, [r3]
 269 001a 1142     		tst	r1, r2
 270 001c 01D0     		beq	.L12
 271              	.LVL16:
 355:.\Generated_Source\PSoC4/UART_UART.c ****         {
 356:.\Generated_Source\PSoC4/UART_UART.c ****             rxData = 0u; /* Error occurred: return zero */
 272              		.loc 1 356 0
 273 001e 0020     		mov	r0, #0
 357:.\Generated_Source\PSoC4/UART_UART.c ****             UART_ClearRxInterruptSource(UART_INTR_RX_ERR);
 274              		.loc 1 357 0
 275 0020 1A60     		str	r2, [r3]
 276              	.LVL17:
 277              	.L12:
 358:.\Generated_Source\PSoC4/UART_UART.c ****         }
 359:.\Generated_Source\PSoC4/UART_UART.c **** 
 360:.\Generated_Source\PSoC4/UART_UART.c ****         return(rxData);
 361:.\Generated_Source\PSoC4/UART_UART.c ****     }
 278              		.loc 1 361 0
 279              		@ sp needed
 280 0022 08BD     		pop	{r3, pc}
 281              	.L20:
 282              		.align	2
 283              	.L19:
 284 0024 C00F0640 		.word	1074139072
ARM GAS  C:\DOCUME~1\Chuck\LOCALS~1\Temp\cc2xIxvb.s 			page 13


 285              		.cfi_endproc
 286              	.LFE3:
 287              		.size	UART_UartGetChar, .-UART_UartGetChar
 288              		.section	.text.UART_UartGetByte,"ax",%progbits
 289              		.align	1
 290              		.global	UART_UartGetByte
 291              		.code	16
 292              		.thumb_func
 293              		.type	UART_UartGetByte, %function
 294              	UART_UartGetByte:
 295              	.LFB4:
 362:.\Generated_Source\PSoC4/UART_UART.c **** 
 363:.\Generated_Source\PSoC4/UART_UART.c **** 
 364:.\Generated_Source\PSoC4/UART_UART.c ****     /*******************************************************************************
 365:.\Generated_Source\PSoC4/UART_UART.c ****     * Function Name: UART_UartGetByte
 366:.\Generated_Source\PSoC4/UART_UART.c ****     ********************************************************************************
 367:.\Generated_Source\PSoC4/UART_UART.c ****     *
 368:.\Generated_Source\PSoC4/UART_UART.c ****     * Summary:
 369:.\Generated_Source\PSoC4/UART_UART.c ****     *  Retrieves the next data element from the receive buffer, returns the received byte
 370:.\Generated_Source\PSoC4/UART_UART.c ****     *  and error condition.
 371:.\Generated_Source\PSoC4/UART_UART.c ****     *   - The RX software buffer is disabled: returns the data element retrieved from the RX FIFO.
 372:.\Generated_Source\PSoC4/UART_UART.c ****     *     Undefined data will be returned if the RX FIFO is empty.
 373:.\Generated_Source\PSoC4/UART_UART.c ****     *   - The RX software buffer is enabled: returns data element from the software receive
 374:.\Generated_Source\PSoC4/UART_UART.c ****     *     buffer.
 375:.\Generated_Source\PSoC4/UART_UART.c ****     *
 376:.\Generated_Source\PSoC4/UART_UART.c ****     * Parameters:
 377:.\Generated_Source\PSoC4/UART_UART.c ****     *  None
 378:.\Generated_Source\PSoC4/UART_UART.c ****     *
 379:.\Generated_Source\PSoC4/UART_UART.c ****     * Return:
 380:.\Generated_Source\PSoC4/UART_UART.c ****     *  Bits 15-8 contains status and bits 7-0 contains the next data element from
 381:.\Generated_Source\PSoC4/UART_UART.c ****     *  receive buffer. If the bits 15-8 are non-zero, an error has occurred.
 382:.\Generated_Source\PSoC4/UART_UART.c ****     *
 383:.\Generated_Source\PSoC4/UART_UART.c ****     *******************************************************************************/
 384:.\Generated_Source\PSoC4/UART_UART.c ****     uint32 UART_UartGetByte(void)
 385:.\Generated_Source\PSoC4/UART_UART.c ****     {
 296              		.loc 1 385 0
 297              		.cfi_startproc
 298 0000 10B5     		push	{r4, lr}
 299              		.cfi_def_cfa_offset 8
 300              		.cfi_offset 4, -8
 301              		.cfi_offset 14, -4
 386:.\Generated_Source\PSoC4/UART_UART.c ****         uint32 rxData;
 387:.\Generated_Source\PSoC4/UART_UART.c ****         uint32 tmpStatus;
 388:.\Generated_Source\PSoC4/UART_UART.c ****         uint32 intSourceMask;
 389:.\Generated_Source\PSoC4/UART_UART.c **** 
 390:.\Generated_Source\PSoC4/UART_UART.c ****         intSourceMask = UART_SpiUartDisableIntRx();
 302              		.loc 1 390 0
 303 0002 FFF7FEFF 		bl	UART_SpiUartDisableIntRx
 304              	.LVL18:
 305 0006 041C     		mov	r4, r0
 306              	.LVL19:
 391:.\Generated_Source\PSoC4/UART_UART.c **** 
 392:.\Generated_Source\PSoC4/UART_UART.c ****         if(0u != UART_SpiUartGetRxBufferSize())
 307              		.loc 1 392 0
 308 0008 FFF7FEFF 		bl	UART_SpiUartGetRxBufferSize
 309              	.LVL20:
 310 000c 094B     		ldr	r3, .L24
ARM GAS  C:\DOCUME~1\Chuck\LOCALS~1\Temp\cc2xIxvb.s 			page 14


 311 000e 0028     		cmp	r0, #0
 312 0010 03D0     		beq	.L22
 393:.\Generated_Source\PSoC4/UART_UART.c ****         {
 394:.\Generated_Source\PSoC4/UART_UART.c ****              /*
 395:.\Generated_Source\PSoC4/UART_UART.c ****              * Enable interrupt to receive more bytes: at least one byte is in
 396:.\Generated_Source\PSoC4/UART_UART.c ****              * buffer.
 397:.\Generated_Source\PSoC4/UART_UART.c ****              */
 398:.\Generated_Source\PSoC4/UART_UART.c ****             UART_SpiUartEnableIntRx(intSourceMask);
 313              		.loc 1 398 0
 314 0012 1C60     		str	r4, [r3]
 399:.\Generated_Source\PSoC4/UART_UART.c **** 
 400:.\Generated_Source\PSoC4/UART_UART.c ****             /* Get received byte */
 401:.\Generated_Source\PSoC4/UART_UART.c ****             rxData = UART_SpiUartReadRxData();
 315              		.loc 1 401 0
 316 0014 FFF7FEFF 		bl	UART_SpiUartReadRxData
 317              	.LVL21:
 318 0018 02E0     		b	.L23
 319              	.LVL22:
 320              	.L22:
 402:.\Generated_Source\PSoC4/UART_UART.c ****         }
 403:.\Generated_Source\PSoC4/UART_UART.c ****         else
 404:.\Generated_Source\PSoC4/UART_UART.c ****         {
 405:.\Generated_Source\PSoC4/UART_UART.c ****             /*
 406:.\Generated_Source\PSoC4/UART_UART.c ****             * Read byte directly from RX FIFO: the underflow is raised in case
 407:.\Generated_Source\PSoC4/UART_UART.c ****             * of empty. In other case the first received byte will be read.
 408:.\Generated_Source\PSoC4/UART_UART.c ****             */
 409:.\Generated_Source\PSoC4/UART_UART.c ****             rxData = UART_RX_FIFO_RD_REG;
 321              		.loc 1 409 0
 322 001a 074A     		ldr	r2, .L24+4
 323 001c 1068     		ldr	r0, [r2]
 324              	.LVL23:
 410:.\Generated_Source\PSoC4/UART_UART.c **** 
 411:.\Generated_Source\PSoC4/UART_UART.c ****             /*
 412:.\Generated_Source\PSoC4/UART_UART.c ****             * Enable interrupt to receive more bytes.
 413:.\Generated_Source\PSoC4/UART_UART.c ****             * The RX_NOT_EMPTY interrupt is cleared by the interrupt routine in case
 414:.\Generated_Source\PSoC4/UART_UART.c ****             * the byte was received and read above.
 415:.\Generated_Source\PSoC4/UART_UART.c ****             */
 416:.\Generated_Source\PSoC4/UART_UART.c ****             UART_SpiUartEnableIntRx(intSourceMask);
 325              		.loc 1 416 0
 326 001e 1C60     		str	r4, [r3]
 327              	.L23:
 417:.\Generated_Source\PSoC4/UART_UART.c ****         }
 418:.\Generated_Source\PSoC4/UART_UART.c **** 
 419:.\Generated_Source\PSoC4/UART_UART.c ****         /* Get and clear RX error mask */
 420:.\Generated_Source\PSoC4/UART_UART.c ****         tmpStatus = (UART_GetRxInterruptSource() & UART_INTR_RX_ERR);
 421:.\Generated_Source\PSoC4/UART_UART.c ****         UART_ClearRxInterruptSource(UART_INTR_RX_ERR);
 328              		.loc 1 421 0
 329 0020 D823     		mov	r3, #216
 420:.\Generated_Source\PSoC4/UART_UART.c ****         UART_ClearRxInterruptSource(UART_INTR_RX_ERR);
 330              		.loc 1 420 0
 331 0022 064A     		ldr	r2, .L24+8
 332              		.loc 1 421 0
 333 0024 9B00     		lsl	r3, r3, #2
 420:.\Generated_Source\PSoC4/UART_UART.c ****         UART_ClearRxInterruptSource(UART_INTR_RX_ERR);
 334              		.loc 1 420 0
 335 0026 1168     		ldr	r1, [r2]
 336              	.LVL24:
ARM GAS  C:\DOCUME~1\Chuck\LOCALS~1\Temp\cc2xIxvb.s 			page 15


 337              		.loc 1 421 0
 338 0028 1360     		str	r3, [r2]
 339              	.LVL25:
 420:.\Generated_Source\PSoC4/UART_UART.c ****         UART_ClearRxInterruptSource(UART_INTR_RX_ERR);
 340              		.loc 1 420 0
 341 002a 0B40     		and	r3, r1
 422:.\Generated_Source\PSoC4/UART_UART.c **** 
 423:.\Generated_Source\PSoC4/UART_UART.c ****         /*
 424:.\Generated_Source\PSoC4/UART_UART.c ****         * Put together data and error status:
 425:.\Generated_Source\PSoC4/UART_UART.c ****         * MP mode and accept address: the 9th bit is set to notify mark.
 426:.\Generated_Source\PSoC4/UART_UART.c ****         */
 427:.\Generated_Source\PSoC4/UART_UART.c ****         rxData |= ((uint32) (tmpStatus << 8u));
 342              		.loc 1 427 0
 343 002c 1B02     		lsl	r3, r3, #8
 344 002e 1843     		orr	r0, r3
 345              	.LVL26:
 428:.\Generated_Source\PSoC4/UART_UART.c **** 
 429:.\Generated_Source\PSoC4/UART_UART.c ****         return(rxData);
 430:.\Generated_Source\PSoC4/UART_UART.c ****     }
 346              		.loc 1 430 0
 347              		@ sp needed
 348              	.LVL27:
 349 0030 10BD     		pop	{r4, pc}
 350              	.L25:
 351 0032 C046     		.align	2
 352              	.L24:
 353 0034 C80F0640 		.word	1074139080
 354 0038 40030640 		.word	1074135872
 355 003c C00F0640 		.word	1074139072
 356              		.cfi_endproc
 357              	.LFE4:
 358              		.size	UART_UartGetByte, .-UART_UartGetByte
 359              		.section	.text.UART_UartPutString,"ax",%progbits
 360              		.align	1
 361              		.global	UART_UartPutString
 362              		.code	16
 363              		.thumb_func
 364              		.type	UART_UartPutString, %function
 365              	UART_UartPutString:
 366              	.LFB5:
 431:.\Generated_Source\PSoC4/UART_UART.c **** 
 432:.\Generated_Source\PSoC4/UART_UART.c **** #endif /* (UART_UART_RX_DIRECTION) */
 433:.\Generated_Source\PSoC4/UART_UART.c **** 
 434:.\Generated_Source\PSoC4/UART_UART.c **** 
 435:.\Generated_Source\PSoC4/UART_UART.c **** #if(UART_UART_TX_DIRECTION)
 436:.\Generated_Source\PSoC4/UART_UART.c ****     /*******************************************************************************
 437:.\Generated_Source\PSoC4/UART_UART.c ****     * Function Name: UART_UartPutString
 438:.\Generated_Source\PSoC4/UART_UART.c ****     ********************************************************************************
 439:.\Generated_Source\PSoC4/UART_UART.c ****     *
 440:.\Generated_Source\PSoC4/UART_UART.c ****     * Summary:
 441:.\Generated_Source\PSoC4/UART_UART.c ****     *  Places a NULL terminated string in the transmit buffer to be sent at the
 442:.\Generated_Source\PSoC4/UART_UART.c ****     *  next available bus time.
 443:.\Generated_Source\PSoC4/UART_UART.c ****     *  This function is blocking and waits until there is space available to put
 444:.\Generated_Source\PSoC4/UART_UART.c ****     *  all the requested data into the  transmit buffer.
 445:.\Generated_Source\PSoC4/UART_UART.c ****     *
 446:.\Generated_Source\PSoC4/UART_UART.c ****     * Parameters:
 447:.\Generated_Source\PSoC4/UART_UART.c ****     *  string: pointer to the null terminated string array to be placed in the
ARM GAS  C:\DOCUME~1\Chuck\LOCALS~1\Temp\cc2xIxvb.s 			page 16


 448:.\Generated_Source\PSoC4/UART_UART.c ****     *          transmit buffer.
 449:.\Generated_Source\PSoC4/UART_UART.c ****     *
 450:.\Generated_Source\PSoC4/UART_UART.c ****     * Return:
 451:.\Generated_Source\PSoC4/UART_UART.c ****     *  None
 452:.\Generated_Source\PSoC4/UART_UART.c ****     *
 453:.\Generated_Source\PSoC4/UART_UART.c ****     *******************************************************************************/
 454:.\Generated_Source\PSoC4/UART_UART.c ****     void UART_UartPutString(const char8 string[])
 455:.\Generated_Source\PSoC4/UART_UART.c ****     {
 367              		.loc 1 455 0
 368              		.cfi_startproc
 369              	.LVL28:
 370 0000 10B5     		push	{r4, lr}
 371              		.cfi_def_cfa_offset 8
 372              		.cfi_offset 4, -8
 373              		.cfi_offset 14, -4
 374 0002 041C     		mov	r4, r0
 375              	.LVL29:
 376              	.L27:
 377 0004 0134     		add	r4, r4, #1
 378              	.LVL30:
 379 0006 631E     		sub	r3, r4, #1
 456:.\Generated_Source\PSoC4/UART_UART.c ****         uint32 bufIndex;
 457:.\Generated_Source\PSoC4/UART_UART.c **** 
 458:.\Generated_Source\PSoC4/UART_UART.c ****         bufIndex = 0u;
 459:.\Generated_Source\PSoC4/UART_UART.c **** 
 460:.\Generated_Source\PSoC4/UART_UART.c ****         /* Block the control flow until all data has been sent */
 461:.\Generated_Source\PSoC4/UART_UART.c ****         while(string[bufIndex] != ((char8) 0))
 380              		.loc 1 461 0
 381 0008 1878     		ldrb	r0, [r3]
 382 000a 0028     		cmp	r0, #0
 383 000c 02D0     		beq	.L29
 462:.\Generated_Source\PSoC4/UART_UART.c ****         {
 463:.\Generated_Source\PSoC4/UART_UART.c ****             UART_UartPutChar((uint32) string[bufIndex]);
 384              		.loc 1 463 0
 385 000e FFF7FEFF 		bl	UART_SpiUartWriteTxData
 386              	.LVL31:
 387 0012 F7E7     		b	.L27
 388              	.LVL32:
 389              	.L29:
 464:.\Generated_Source\PSoC4/UART_UART.c ****             bufIndex++;
 465:.\Generated_Source\PSoC4/UART_UART.c ****         }
 466:.\Generated_Source\PSoC4/UART_UART.c ****     }
 390              		.loc 1 466 0
 391              		@ sp needed
 392              	.LVL33:
 393 0014 10BD     		pop	{r4, pc}
 394              		.cfi_endproc
 395              	.LFE5:
 396              		.size	UART_UartPutString, .-UART_UartPutString
 397              		.section	.text.UART_UartPutCRLF,"ax",%progbits
 398              		.align	1
 399              		.global	UART_UartPutCRLF
 400              		.code	16
 401              		.thumb_func
 402              		.type	UART_UartPutCRLF, %function
 403              	UART_UartPutCRLF:
 404              	.LFB6:
ARM GAS  C:\DOCUME~1\Chuck\LOCALS~1\Temp\cc2xIxvb.s 			page 17


 467:.\Generated_Source\PSoC4/UART_UART.c **** 
 468:.\Generated_Source\PSoC4/UART_UART.c **** 
 469:.\Generated_Source\PSoC4/UART_UART.c ****     /*******************************************************************************
 470:.\Generated_Source\PSoC4/UART_UART.c ****     * Function Name: UART_UartPutCRLF
 471:.\Generated_Source\PSoC4/UART_UART.c ****     ********************************************************************************
 472:.\Generated_Source\PSoC4/UART_UART.c ****     *
 473:.\Generated_Source\PSoC4/UART_UART.c ****     * Summary:
 474:.\Generated_Source\PSoC4/UART_UART.c ****     *  Places a byte of data followed by a carriage return (0x0D) and line feed (0x0A)
 475:.\Generated_Source\PSoC4/UART_UART.c ****     *  into the transmit buffer.
 476:.\Generated_Source\PSoC4/UART_UART.c ****     *  This function is blocking and waits until there is space available to put
 477:.\Generated_Source\PSoC4/UART_UART.c ****     *  all the requested data into the  transmit buffer.
 478:.\Generated_Source\PSoC4/UART_UART.c ****     *
 479:.\Generated_Source\PSoC4/UART_UART.c ****     * Parameters:
 480:.\Generated_Source\PSoC4/UART_UART.c ****     *  txDataByte : the data to be transmitted.
 481:.\Generated_Source\PSoC4/UART_UART.c ****     *
 482:.\Generated_Source\PSoC4/UART_UART.c ****     * Return:
 483:.\Generated_Source\PSoC4/UART_UART.c ****     *  None
 484:.\Generated_Source\PSoC4/UART_UART.c ****     *
 485:.\Generated_Source\PSoC4/UART_UART.c ****     *******************************************************************************/
 486:.\Generated_Source\PSoC4/UART_UART.c ****     void UART_UartPutCRLF(uint32 txDataByte)
 487:.\Generated_Source\PSoC4/UART_UART.c ****     {
 405              		.loc 1 487 0
 406              		.cfi_startproc
 407              	.LVL34:
 408 0000 08B5     		push	{r3, lr}
 409              		.cfi_def_cfa_offset 8
 410              		.cfi_offset 3, -8
 411              		.cfi_offset 14, -4
 488:.\Generated_Source\PSoC4/UART_UART.c ****         UART_UartPutChar(txDataByte);  /* Blocks control flow until all data has been sent */
 412              		.loc 1 488 0
 413 0002 FFF7FEFF 		bl	UART_SpiUartWriteTxData
 414              	.LVL35:
 489:.\Generated_Source\PSoC4/UART_UART.c ****         UART_UartPutChar(0x0Du);       /* Blocks control flow until all data has been sent */
 415              		.loc 1 489 0
 416 0006 0D20     		mov	r0, #13
 417 0008 FFF7FEFF 		bl	UART_SpiUartWriteTxData
 418              	.LVL36:
 490:.\Generated_Source\PSoC4/UART_UART.c ****         UART_UartPutChar(0x0Au);       /* Blocks control flow until all data has been sent */
 419              		.loc 1 490 0
 420 000c 0A20     		mov	r0, #10
 421 000e FFF7FEFF 		bl	UART_SpiUartWriteTxData
 422              	.LVL37:
 491:.\Generated_Source\PSoC4/UART_UART.c ****     }
 423              		.loc 1 491 0
 424              		@ sp needed
 425 0012 08BD     		pop	{r3, pc}
 426              		.cfi_endproc
 427              	.LFE6:
 428              		.size	UART_UartPutCRLF, .-UART_UartPutCRLF
 429              		.text
 430              	.Letext0:
 431              		.file 2 "Generated_Source\\PSoC4/cytypes.h"
 432              		.file 3 ".\\Generated_Source\\PSoC4\\UART_SPI_UART_PVT.h"
 433              		.file 4 "Generated_Source\\PSoC4/CyLib.h"
 434              		.file 5 ".\\Generated_Source\\PSoC4\\UART_SPI_UART.h"