ARM GAS  C:\DOCUME~1\Chuck\LOCALS~1\Temp\ccvKoZuj.s 			page 1


   1              		.cpu cortex-m0
   2              		.fpu softvfp
   3              		.eabi_attribute 20, 1
   4              		.eabi_attribute 21, 1
   5              		.eabi_attribute 23, 3
   6              		.eabi_attribute 24, 1
   7              		.eabi_attribute 25, 1
   8              		.eabi_attribute 26, 1
   9              		.eabi_attribute 30, 4
  10              		.eabi_attribute 34, 0
  11              		.eabi_attribute 18, 4
  12              		.code	16
  13              		.file	"UART_BOOT.c"
  14              		.text
  15              	.Ltext0:
  16              		.cfi_sections	.debug_frame
  17              		.section	.text.UART_CyBtldrCommStart,"ax",%progbits
  18              		.align	1
  19              		.global	UART_CyBtldrCommStart
  20              		.code	16
  21              		.thumb_func
  22              		.type	UART_CyBtldrCommStart, %function
  23              	UART_CyBtldrCommStart:
  24              	.LFB0:
  25              		.file 1 ".\\Generated_Source\\PSoC4\\UART_BOOT.c"
   1:.\Generated_Source\PSoC4/UART_BOOT.c **** /*******************************************************************************
   2:.\Generated_Source\PSoC4/UART_BOOT.c **** * File Name: UART_BOOT.c
   3:.\Generated_Source\PSoC4/UART_BOOT.c **** * Version 1.20
   4:.\Generated_Source\PSoC4/UART_BOOT.c **** *
   5:.\Generated_Source\PSoC4/UART_BOOT.c **** * Description:
   6:.\Generated_Source\PSoC4/UART_BOOT.c **** *  This file provides the source code to the API for the bootloader
   7:.\Generated_Source\PSoC4/UART_BOOT.c **** *  communication support in SCB Component.
   8:.\Generated_Source\PSoC4/UART_BOOT.c **** *
   9:.\Generated_Source\PSoC4/UART_BOOT.c **** * Note:
  10:.\Generated_Source\PSoC4/UART_BOOT.c **** *
  11:.\Generated_Source\PSoC4/UART_BOOT.c **** ********************************************************************************
  12:.\Generated_Source\PSoC4/UART_BOOT.c **** * Copyright 2013-2013-2014, Cypress Semiconductor Corporation.  All rights reserved.
  13:.\Generated_Source\PSoC4/UART_BOOT.c **** * You may use this file only in accordance with the license, terms, conditions,
  14:.\Generated_Source\PSoC4/UART_BOOT.c **** * disclaimers, and limitations in the end user license agreement accompanying
  15:.\Generated_Source\PSoC4/UART_BOOT.c **** * the software package with which this file was provided.
  16:.\Generated_Source\PSoC4/UART_BOOT.c **** *******************************************************************************/
  17:.\Generated_Source\PSoC4/UART_BOOT.c **** 
  18:.\Generated_Source\PSoC4/UART_BOOT.c **** #include "UART.h"
  19:.\Generated_Source\PSoC4/UART_BOOT.c **** 
  20:.\Generated_Source\PSoC4/UART_BOOT.c **** #if(UART_SCB_MODE_I2C_INC)
  21:.\Generated_Source\PSoC4/UART_BOOT.c ****     #include "UART_I2C.h"
  22:.\Generated_Source\PSoC4/UART_BOOT.c **** #endif /* (UART_SCB_MODE_I2C_INC) */
  23:.\Generated_Source\PSoC4/UART_BOOT.c **** 
  24:.\Generated_Source\PSoC4/UART_BOOT.c **** #if(UART_SCB_MODE_EZI2C_INC)
  25:.\Generated_Source\PSoC4/UART_BOOT.c ****     #include "UART_EZI2C.h"
  26:.\Generated_Source\PSoC4/UART_BOOT.c **** #endif /* (UART_SCB_MODE_EZI2C_INC) */
  27:.\Generated_Source\PSoC4/UART_BOOT.c **** 
  28:.\Generated_Source\PSoC4/UART_BOOT.c **** #if(UART_SCB_MODE_SPI_INC || UART_SCB_MODE_UART_INC)
  29:.\Generated_Source\PSoC4/UART_BOOT.c ****     #include "UART_SPI_UART.h"
  30:.\Generated_Source\PSoC4/UART_BOOT.c **** #endif /* (UART_SCB_MODE_SPI_INC || UART_SCB_MODE_UART_INC) */
  31:.\Generated_Source\PSoC4/UART_BOOT.c **** 
  32:.\Generated_Source\PSoC4/UART_BOOT.c **** 
ARM GAS  C:\DOCUME~1\Chuck\LOCALS~1\Temp\ccvKoZuj.s 			page 2


  33:.\Generated_Source\PSoC4/UART_BOOT.c **** #if defined(CYDEV_BOOTLOADER_IO_COMP) && ((CYDEV_BOOTLOADER_IO_COMP == CyBtldr_UART) || \
  34:.\Generated_Source\PSoC4/UART_BOOT.c ****                                           (CYDEV_BOOTLOADER_IO_COMP == CyBtldr_Custom_Interface))
  35:.\Generated_Source\PSoC4/UART_BOOT.c **** 
  36:.\Generated_Source\PSoC4/UART_BOOT.c **** /*******************************************************************************
  37:.\Generated_Source\PSoC4/UART_BOOT.c **** * Function Name: UART_CyBtldrCommStart
  38:.\Generated_Source\PSoC4/UART_BOOT.c **** ********************************************************************************
  39:.\Generated_Source\PSoC4/UART_BOOT.c **** *
  40:.\Generated_Source\PSoC4/UART_BOOT.c **** * Summary:
  41:.\Generated_Source\PSoC4/UART_BOOT.c **** *  Calls the CyBtldrCommStart function of the bootloader communication
  42:.\Generated_Source\PSoC4/UART_BOOT.c **** *  component for the selected mode.
  43:.\Generated_Source\PSoC4/UART_BOOT.c **** *
  44:.\Generated_Source\PSoC4/UART_BOOT.c **** * Parameters:
  45:.\Generated_Source\PSoC4/UART_BOOT.c **** *  None
  46:.\Generated_Source\PSoC4/UART_BOOT.c **** *
  47:.\Generated_Source\PSoC4/UART_BOOT.c **** * Return:
  48:.\Generated_Source\PSoC4/UART_BOOT.c **** *  None
  49:.\Generated_Source\PSoC4/UART_BOOT.c **** *
  50:.\Generated_Source\PSoC4/UART_BOOT.c **** *******************************************************************************/
  51:.\Generated_Source\PSoC4/UART_BOOT.c **** void UART_CyBtldrCommStart(void)
  52:.\Generated_Source\PSoC4/UART_BOOT.c **** {
  26              		.loc 1 52 0
  27              		.cfi_startproc
  28 0000 08B5     		push	{r3, lr}
  29              		.cfi_def_cfa_offset 8
  30              		.cfi_offset 3, -8
  31              		.cfi_offset 14, -4
  53:.\Generated_Source\PSoC4/UART_BOOT.c ****     #if(UART_SCB_MODE_UNCONFIG_CONST_CFG)
  54:.\Generated_Source\PSoC4/UART_BOOT.c ****         if(UART_SCB_MODE_I2C_RUNTM_CFG)
  55:.\Generated_Source\PSoC4/UART_BOOT.c ****         {
  56:.\Generated_Source\PSoC4/UART_BOOT.c ****             UART_I2CCyBtldrCommStart();
  57:.\Generated_Source\PSoC4/UART_BOOT.c ****         }
  58:.\Generated_Source\PSoC4/UART_BOOT.c ****         else if(UART_SCB_MODE_SPI_RUNTM_CFG)
  59:.\Generated_Source\PSoC4/UART_BOOT.c ****         {
  60:.\Generated_Source\PSoC4/UART_BOOT.c ****             UART_SpiCyBtldrCommStart();
  61:.\Generated_Source\PSoC4/UART_BOOT.c ****         }
  62:.\Generated_Source\PSoC4/UART_BOOT.c ****         else if(UART_SCB_MODE_UART_RUNTM_CFG)
  63:.\Generated_Source\PSoC4/UART_BOOT.c ****         {
  64:.\Generated_Source\PSoC4/UART_BOOT.c ****             UART_UartCyBtldrCommStart();
  65:.\Generated_Source\PSoC4/UART_BOOT.c ****         }
  66:.\Generated_Source\PSoC4/UART_BOOT.c ****         else if(UART_SCB_MODE_EZI2C_RUNTM_CFG)
  67:.\Generated_Source\PSoC4/UART_BOOT.c ****         {
  68:.\Generated_Source\PSoC4/UART_BOOT.c ****              UART_EzI2CCyBtldrCommStart();
  69:.\Generated_Source\PSoC4/UART_BOOT.c ****         }
  70:.\Generated_Source\PSoC4/UART_BOOT.c ****         else
  71:.\Generated_Source\PSoC4/UART_BOOT.c ****         {
  72:.\Generated_Source\PSoC4/UART_BOOT.c ****             /* Unknown mode: do nothing */
  73:.\Generated_Source\PSoC4/UART_BOOT.c ****         }
  74:.\Generated_Source\PSoC4/UART_BOOT.c ****     #elif(UART_SCB_MODE_I2C_CONST_CFG)
  75:.\Generated_Source\PSoC4/UART_BOOT.c ****         UART_I2CCyBtldrCommStart();
  76:.\Generated_Source\PSoC4/UART_BOOT.c **** 
  77:.\Generated_Source\PSoC4/UART_BOOT.c ****     #elif(UART_SCB_MODE_SPI_CONST_CFG)
  78:.\Generated_Source\PSoC4/UART_BOOT.c ****         UART_SpiCyBtldrCommStart();
  79:.\Generated_Source\PSoC4/UART_BOOT.c **** 
  80:.\Generated_Source\PSoC4/UART_BOOT.c ****     #elif(UART_SCB_MODE_UART_CONST_CFG)
  81:.\Generated_Source\PSoC4/UART_BOOT.c ****         UART_UartCyBtldrCommStart();
  32              		.loc 1 81 0
  33 0002 FFF7FEFF 		bl	UART_UartCyBtldrCommStart
ARM GAS  C:\DOCUME~1\Chuck\LOCALS~1\Temp\ccvKoZuj.s 			page 3


  34              	.LVL0:
  82:.\Generated_Source\PSoC4/UART_BOOT.c **** 
  83:.\Generated_Source\PSoC4/UART_BOOT.c ****     #elif(UART_SCB_MODE_EZI2C_CONST_CFG)
  84:.\Generated_Source\PSoC4/UART_BOOT.c ****         UART_EzI2CCyBtldrCommStart();
  85:.\Generated_Source\PSoC4/UART_BOOT.c **** 
  86:.\Generated_Source\PSoC4/UART_BOOT.c ****     #else
  87:.\Generated_Source\PSoC4/UART_BOOT.c ****         /* Do nothing */
  88:.\Generated_Source\PSoC4/UART_BOOT.c **** 
  89:.\Generated_Source\PSoC4/UART_BOOT.c ****     #endif /* (UART_SCB_MODE_UNCONFIG_CONST_CFG) */
  90:.\Generated_Source\PSoC4/UART_BOOT.c **** }
  35              		.loc 1 90 0
  36              		@ sp needed
  37 0006 08BD     		pop	{r3, pc}
  38              		.cfi_endproc
  39              	.LFE0:
  40              		.size	UART_CyBtldrCommStart, .-UART_CyBtldrCommStart
  41              		.section	.text.UART_CyBtldrCommStop,"ax",%progbits
  42              		.align	1
  43              		.global	UART_CyBtldrCommStop
  44              		.code	16
  45              		.thumb_func
  46              		.type	UART_CyBtldrCommStop, %function
  47              	UART_CyBtldrCommStop:
  48              	.LFB1:
  91:.\Generated_Source\PSoC4/UART_BOOT.c **** 
  92:.\Generated_Source\PSoC4/UART_BOOT.c **** 
  93:.\Generated_Source\PSoC4/UART_BOOT.c **** /*******************************************************************************
  94:.\Generated_Source\PSoC4/UART_BOOT.c **** * Function Name: UART_CyBtldrCommStop
  95:.\Generated_Source\PSoC4/UART_BOOT.c **** ********************************************************************************
  96:.\Generated_Source\PSoC4/UART_BOOT.c **** *
  97:.\Generated_Source\PSoC4/UART_BOOT.c **** * Summary:
  98:.\Generated_Source\PSoC4/UART_BOOT.c **** *  Calls CyBtldrCommStop function function of the bootloader communication
  99:.\Generated_Source\PSoC4/UART_BOOT.c **** *  component for selected mode.
 100:.\Generated_Source\PSoC4/UART_BOOT.c **** *
 101:.\Generated_Source\PSoC4/UART_BOOT.c **** * Parameters:
 102:.\Generated_Source\PSoC4/UART_BOOT.c **** *  None
 103:.\Generated_Source\PSoC4/UART_BOOT.c **** *
 104:.\Generated_Source\PSoC4/UART_BOOT.c **** * Return:
 105:.\Generated_Source\PSoC4/UART_BOOT.c **** *  None
 106:.\Generated_Source\PSoC4/UART_BOOT.c **** *
 107:.\Generated_Source\PSoC4/UART_BOOT.c **** *******************************************************************************/
 108:.\Generated_Source\PSoC4/UART_BOOT.c **** void UART_CyBtldrCommStop(void)
 109:.\Generated_Source\PSoC4/UART_BOOT.c **** {
  49              		.loc 1 109 0
  50              		.cfi_startproc
  51 0000 08B5     		push	{r3, lr}
  52              		.cfi_def_cfa_offset 8
  53              		.cfi_offset 3, -8
  54              		.cfi_offset 14, -4
 110:.\Generated_Source\PSoC4/UART_BOOT.c ****     #if(UART_SCB_MODE_UNCONFIG_CONST_CFG)
 111:.\Generated_Source\PSoC4/UART_BOOT.c ****         if(UART_SCB_MODE_I2C_RUNTM_CFG)
 112:.\Generated_Source\PSoC4/UART_BOOT.c ****         {
 113:.\Generated_Source\PSoC4/UART_BOOT.c ****             UART_I2CCyBtldrCommStop();
 114:.\Generated_Source\PSoC4/UART_BOOT.c ****         }
 115:.\Generated_Source\PSoC4/UART_BOOT.c ****         else if(UART_SCB_MODE_SPI_RUNTM_CFG)
 116:.\Generated_Source\PSoC4/UART_BOOT.c ****         {
 117:.\Generated_Source\PSoC4/UART_BOOT.c ****             UART_SpiCyBtldrCommStop();
ARM GAS  C:\DOCUME~1\Chuck\LOCALS~1\Temp\ccvKoZuj.s 			page 4


 118:.\Generated_Source\PSoC4/UART_BOOT.c ****         }
 119:.\Generated_Source\PSoC4/UART_BOOT.c ****         else if(UART_SCB_MODE_UART_RUNTM_CFG)
 120:.\Generated_Source\PSoC4/UART_BOOT.c ****         {
 121:.\Generated_Source\PSoC4/UART_BOOT.c ****             UART_UartCyBtldrCommStop();
 122:.\Generated_Source\PSoC4/UART_BOOT.c ****         }
 123:.\Generated_Source\PSoC4/UART_BOOT.c ****         else if(UART_SCB_MODE_EZI2C_RUNTM_CFG)
 124:.\Generated_Source\PSoC4/UART_BOOT.c ****         {
 125:.\Generated_Source\PSoC4/UART_BOOT.c ****             UART_EzI2CCyBtldrCommStop();
 126:.\Generated_Source\PSoC4/UART_BOOT.c ****         }
 127:.\Generated_Source\PSoC4/UART_BOOT.c ****         else
 128:.\Generated_Source\PSoC4/UART_BOOT.c ****         {
 129:.\Generated_Source\PSoC4/UART_BOOT.c ****             /* Unknown mode: do nothing */
 130:.\Generated_Source\PSoC4/UART_BOOT.c ****         }
 131:.\Generated_Source\PSoC4/UART_BOOT.c ****     #elif(UART_SCB_MODE_I2C_CONST_CFG)
 132:.\Generated_Source\PSoC4/UART_BOOT.c ****         UART_I2CCyBtldrCommStop();
 133:.\Generated_Source\PSoC4/UART_BOOT.c **** 
 134:.\Generated_Source\PSoC4/UART_BOOT.c ****     #elif(UART_SCB_MODE_SPI_CONST_CFG)
 135:.\Generated_Source\PSoC4/UART_BOOT.c ****         UART_SpiCyBtldrCommStop();
 136:.\Generated_Source\PSoC4/UART_BOOT.c **** 
 137:.\Generated_Source\PSoC4/UART_BOOT.c ****     #elif(UART_SCB_MODE_UART_CONST_CFG)
 138:.\Generated_Source\PSoC4/UART_BOOT.c ****         UART_UartCyBtldrCommStop();
  55              		.loc 1 138 0
  56 0002 FFF7FEFF 		bl	UART_UartCyBtldrCommStop
  57              	.LVL1:
 139:.\Generated_Source\PSoC4/UART_BOOT.c **** 
 140:.\Generated_Source\PSoC4/UART_BOOT.c ****     #elif(UART_SCB_MODE_EZI2C_CONST_CFG)
 141:.\Generated_Source\PSoC4/UART_BOOT.c ****         UART_EzI2CCyBtldrCommStop();
 142:.\Generated_Source\PSoC4/UART_BOOT.c **** 
 143:.\Generated_Source\PSoC4/UART_BOOT.c ****     #else
 144:.\Generated_Source\PSoC4/UART_BOOT.c ****         /* Do nothing */
 145:.\Generated_Source\PSoC4/UART_BOOT.c **** 
 146:.\Generated_Source\PSoC4/UART_BOOT.c ****     #endif /* (UART_SCB_MODE_UNCONFIG_CONST_CFG) */
 147:.\Generated_Source\PSoC4/UART_BOOT.c **** }
  58              		.loc 1 147 0
  59              		@ sp needed
  60 0006 08BD     		pop	{r3, pc}
  61              		.cfi_endproc
  62              	.LFE1:
  63              		.size	UART_CyBtldrCommStop, .-UART_CyBtldrCommStop
  64              		.section	.text.UART_CyBtldrCommReset,"ax",%progbits
  65              		.align	1
  66              		.global	UART_CyBtldrCommReset
  67              		.code	16
  68              		.thumb_func
  69              		.type	UART_CyBtldrCommReset, %function
  70              	UART_CyBtldrCommReset:
  71              	.LFB2:
 148:.\Generated_Source\PSoC4/UART_BOOT.c **** 
 149:.\Generated_Source\PSoC4/UART_BOOT.c **** 
 150:.\Generated_Source\PSoC4/UART_BOOT.c **** /*******************************************************************************
 151:.\Generated_Source\PSoC4/UART_BOOT.c **** * Function Name: UART_CyBtldrCommReset
 152:.\Generated_Source\PSoC4/UART_BOOT.c **** ********************************************************************************
 153:.\Generated_Source\PSoC4/UART_BOOT.c **** *
 154:.\Generated_Source\PSoC4/UART_BOOT.c **** * Summary:
 155:.\Generated_Source\PSoC4/UART_BOOT.c **** *  Calls the CyBtldrCommReset function of the bootloader communication
 156:.\Generated_Source\PSoC4/UART_BOOT.c **** *  component for the selected mode.
 157:.\Generated_Source\PSoC4/UART_BOOT.c **** *
ARM GAS  C:\DOCUME~1\Chuck\LOCALS~1\Temp\ccvKoZuj.s 			page 5


 158:.\Generated_Source\PSoC4/UART_BOOT.c **** * Parameters:
 159:.\Generated_Source\PSoC4/UART_BOOT.c **** *  None
 160:.\Generated_Source\PSoC4/UART_BOOT.c **** *
 161:.\Generated_Source\PSoC4/UART_BOOT.c **** * Return:
 162:.\Generated_Source\PSoC4/UART_BOOT.c **** *  None
 163:.\Generated_Source\PSoC4/UART_BOOT.c **** *
 164:.\Generated_Source\PSoC4/UART_BOOT.c **** *******************************************************************************/
 165:.\Generated_Source\PSoC4/UART_BOOT.c **** void UART_CyBtldrCommReset(void)
 166:.\Generated_Source\PSoC4/UART_BOOT.c **** {
  72              		.loc 1 166 0
  73              		.cfi_startproc
  74 0000 08B5     		push	{r3, lr}
  75              		.cfi_def_cfa_offset 8
  76              		.cfi_offset 3, -8
  77              		.cfi_offset 14, -4
 167:.\Generated_Source\PSoC4/UART_BOOT.c ****     #if(UART_SCB_MODE_UNCONFIG_CONST_CFG)
 168:.\Generated_Source\PSoC4/UART_BOOT.c ****         if(UART_SCB_MODE_I2C_RUNTM_CFG)
 169:.\Generated_Source\PSoC4/UART_BOOT.c ****         {
 170:.\Generated_Source\PSoC4/UART_BOOT.c ****             UART_I2CCyBtldrCommReset();
 171:.\Generated_Source\PSoC4/UART_BOOT.c ****         }
 172:.\Generated_Source\PSoC4/UART_BOOT.c ****         else if(UART_SCB_MODE_SPI_RUNTM_CFG)
 173:.\Generated_Source\PSoC4/UART_BOOT.c ****         {
 174:.\Generated_Source\PSoC4/UART_BOOT.c ****             UART_SpiCyBtldrCommReset();
 175:.\Generated_Source\PSoC4/UART_BOOT.c ****         }
 176:.\Generated_Source\PSoC4/UART_BOOT.c ****         else if(UART_SCB_MODE_UART_RUNTM_CFG)
 177:.\Generated_Source\PSoC4/UART_BOOT.c ****         {
 178:.\Generated_Source\PSoC4/UART_BOOT.c ****             UART_UartCyBtldrCommReset();
 179:.\Generated_Source\PSoC4/UART_BOOT.c ****         }
 180:.\Generated_Source\PSoC4/UART_BOOT.c ****         else if(UART_SCB_MODE_EZI2C_RUNTM_CFG)
 181:.\Generated_Source\PSoC4/UART_BOOT.c ****         {
 182:.\Generated_Source\PSoC4/UART_BOOT.c ****             UART_EzI2CCyBtldrCommReset();
 183:.\Generated_Source\PSoC4/UART_BOOT.c ****         }
 184:.\Generated_Source\PSoC4/UART_BOOT.c ****         else
 185:.\Generated_Source\PSoC4/UART_BOOT.c ****         {
 186:.\Generated_Source\PSoC4/UART_BOOT.c ****             /* Unknown mode: do nothing */
 187:.\Generated_Source\PSoC4/UART_BOOT.c ****         }
 188:.\Generated_Source\PSoC4/UART_BOOT.c ****     #elif(UART_SCB_MODE_I2C_CONST_CFG)
 189:.\Generated_Source\PSoC4/UART_BOOT.c ****         UART_I2CCyBtldrCommReset();
 190:.\Generated_Source\PSoC4/UART_BOOT.c **** 
 191:.\Generated_Source\PSoC4/UART_BOOT.c ****     #elif(UART_SCB_MODE_SPI_CONST_CFG)
 192:.\Generated_Source\PSoC4/UART_BOOT.c ****         UART_SpiCyBtldrCommReset();
 193:.\Generated_Source\PSoC4/UART_BOOT.c **** 
 194:.\Generated_Source\PSoC4/UART_BOOT.c ****     #elif(UART_SCB_MODE_UART_CONST_CFG)
 195:.\Generated_Source\PSoC4/UART_BOOT.c ****         UART_UartCyBtldrCommReset();
  78              		.loc 1 195 0
  79 0002 FFF7FEFF 		bl	UART_UartCyBtldrCommReset
  80              	.LVL2:
 196:.\Generated_Source\PSoC4/UART_BOOT.c **** 
 197:.\Generated_Source\PSoC4/UART_BOOT.c ****     #elif(UART_SCB_MODE_EZI2C_CONST_CFG)
 198:.\Generated_Source\PSoC4/UART_BOOT.c ****         UART_EzI2CCyBtldrCommReset();
 199:.\Generated_Source\PSoC4/UART_BOOT.c **** 
 200:.\Generated_Source\PSoC4/UART_BOOT.c ****     #else
 201:.\Generated_Source\PSoC4/UART_BOOT.c ****         /* Do nothing */
 202:.\Generated_Source\PSoC4/UART_BOOT.c **** 
 203:.\Generated_Source\PSoC4/UART_BOOT.c ****     #endif /* (UART_SCB_MODE_UNCONFIG_CONST_CFG) */
 204:.\Generated_Source\PSoC4/UART_BOOT.c **** }
  81              		.loc 1 204 0
ARM GAS  C:\DOCUME~1\Chuck\LOCALS~1\Temp\ccvKoZuj.s 			page 6


  82              		@ sp needed
  83 0006 08BD     		pop	{r3, pc}
  84              		.cfi_endproc
  85              	.LFE2:
  86              		.size	UART_CyBtldrCommReset, .-UART_CyBtldrCommReset
  87              		.section	.text.UART_CyBtldrCommRead,"ax",%progbits
  88              		.align	1
  89              		.global	UART_CyBtldrCommRead
  90              		.code	16
  91              		.thumb_func
  92              		.type	UART_CyBtldrCommRead, %function
  93              	UART_CyBtldrCommRead:
  94              	.LFB3:
 205:.\Generated_Source\PSoC4/UART_BOOT.c **** 
 206:.\Generated_Source\PSoC4/UART_BOOT.c **** 
 207:.\Generated_Source\PSoC4/UART_BOOT.c **** /*******************************************************************************
 208:.\Generated_Source\PSoC4/UART_BOOT.c **** * Function Name: UART_CyBtldrCommRead
 209:.\Generated_Source\PSoC4/UART_BOOT.c **** ********************************************************************************
 210:.\Generated_Source\PSoC4/UART_BOOT.c **** *
 211:.\Generated_Source\PSoC4/UART_BOOT.c **** * Summary:
 212:.\Generated_Source\PSoC4/UART_BOOT.c **** *  Calls the CyBtldrCommRead function of the bootloader communication
 213:.\Generated_Source\PSoC4/UART_BOOT.c **** *  component for the selected mode.
 214:.\Generated_Source\PSoC4/UART_BOOT.c **** *
 215:.\Generated_Source\PSoC4/UART_BOOT.c **** * Parameters:
 216:.\Generated_Source\PSoC4/UART_BOOT.c **** *  pData:    Pointer to storage for the block of data to be read from the
 217:.\Generated_Source\PSoC4/UART_BOOT.c **** *            bootloader host
 218:.\Generated_Source\PSoC4/UART_BOOT.c **** *  size:     Number of bytes to be read.
 219:.\Generated_Source\PSoC4/UART_BOOT.c **** *  count:    Pointer to the variable to write the number of bytes actually
 220:.\Generated_Source\PSoC4/UART_BOOT.c **** *            read.
 221:.\Generated_Source\PSoC4/UART_BOOT.c **** *  timeOut:  Number of units in 10 ms to wait before returning because of a
 222:.\Generated_Source\PSoC4/UART_BOOT.c **** *            timeout.
 223:.\Generated_Source\PSoC4/UART_BOOT.c **** *
 224:.\Generated_Source\PSoC4/UART_BOOT.c **** * Return:
 225:.\Generated_Source\PSoC4/UART_BOOT.c **** *  Returns CYRET_SUCCESS if no problem was encountered or returns the value
 226:.\Generated_Source\PSoC4/UART_BOOT.c **** *  that best describes the problem.
 227:.\Generated_Source\PSoC4/UART_BOOT.c **** *
 228:.\Generated_Source\PSoC4/UART_BOOT.c **** *******************************************************************************/
 229:.\Generated_Source\PSoC4/UART_BOOT.c **** cystatus UART_CyBtldrCommRead(uint8 pData[], uint16 size, uint16 * count, uint8 timeOut)
 230:.\Generated_Source\PSoC4/UART_BOOT.c **** {
  95              		.loc 1 230 0
  96              		.cfi_startproc
  97              	.LVL3:
  98 0000 08B5     		push	{r3, lr}
  99              		.cfi_def_cfa_offset 8
 100              		.cfi_offset 3, -8
 101              		.cfi_offset 14, -4
 231:.\Generated_Source\PSoC4/UART_BOOT.c ****     cystatus status;
 232:.\Generated_Source\PSoC4/UART_BOOT.c **** 
 233:.\Generated_Source\PSoC4/UART_BOOT.c ****     #if(UART_SCB_MODE_UNCONFIG_CONST_CFG)
 234:.\Generated_Source\PSoC4/UART_BOOT.c ****         if(UART_SCB_MODE_I2C_RUNTM_CFG)
 235:.\Generated_Source\PSoC4/UART_BOOT.c ****         {
 236:.\Generated_Source\PSoC4/UART_BOOT.c ****             status = UART_I2CCyBtldrCommRead(pData, size, count, timeOut);
 237:.\Generated_Source\PSoC4/UART_BOOT.c ****         }
 238:.\Generated_Source\PSoC4/UART_BOOT.c ****         else if(UART_SCB_MODE_SPI_RUNTM_CFG)
 239:.\Generated_Source\PSoC4/UART_BOOT.c ****         {
 240:.\Generated_Source\PSoC4/UART_BOOT.c ****             status = UART_SpiCyBtldrCommRead(pData, size, count, timeOut);
 241:.\Generated_Source\PSoC4/UART_BOOT.c ****         }
ARM GAS  C:\DOCUME~1\Chuck\LOCALS~1\Temp\ccvKoZuj.s 			page 7


 242:.\Generated_Source\PSoC4/UART_BOOT.c ****         else if(UART_SCB_MODE_UART_RUNTM_CFG)
 243:.\Generated_Source\PSoC4/UART_BOOT.c ****         {
 244:.\Generated_Source\PSoC4/UART_BOOT.c ****             status = UART_UartCyBtldrCommRead(pData, size, count, timeOut);
 245:.\Generated_Source\PSoC4/UART_BOOT.c ****         }
 246:.\Generated_Source\PSoC4/UART_BOOT.c ****         else if(UART_SCB_MODE_EZI2C_RUNTM_CFG)
 247:.\Generated_Source\PSoC4/UART_BOOT.c ****         {
 248:.\Generated_Source\PSoC4/UART_BOOT.c ****             status = UART_EzI2CCyBtldrCommRead(pData, size, count, timeOut);
 249:.\Generated_Source\PSoC4/UART_BOOT.c ****         }
 250:.\Generated_Source\PSoC4/UART_BOOT.c ****         else
 251:.\Generated_Source\PSoC4/UART_BOOT.c ****         {
 252:.\Generated_Source\PSoC4/UART_BOOT.c ****             status = CYRET_INVALID_STATE; /* Unknown mode: return status */
 253:.\Generated_Source\PSoC4/UART_BOOT.c ****         }
 254:.\Generated_Source\PSoC4/UART_BOOT.c **** 
 255:.\Generated_Source\PSoC4/UART_BOOT.c ****     #elif(UART_SCB_MODE_I2C_CONST_CFG)
 256:.\Generated_Source\PSoC4/UART_BOOT.c ****         status = UART_I2CCyBtldrCommRead(pData, size, count, timeOut);
 257:.\Generated_Source\PSoC4/UART_BOOT.c **** 
 258:.\Generated_Source\PSoC4/UART_BOOT.c ****     #elif(UART_SCB_MODE_SPI_CONST_CFG)
 259:.\Generated_Source\PSoC4/UART_BOOT.c ****         status = UART_SpiCyBtldrCommRead(pData, size, count, timeOut);
 260:.\Generated_Source\PSoC4/UART_BOOT.c **** 
 261:.\Generated_Source\PSoC4/UART_BOOT.c ****     #elif(UART_SCB_MODE_UART_CONST_CFG)
 262:.\Generated_Source\PSoC4/UART_BOOT.c ****         status = UART_UartCyBtldrCommRead(pData, size, count, timeOut);
 102              		.loc 1 262 0
 103 0002 FFF7FEFF 		bl	UART_UartCyBtldrCommRead
 104              	.LVL4:
 263:.\Generated_Source\PSoC4/UART_BOOT.c **** 
 264:.\Generated_Source\PSoC4/UART_BOOT.c ****     #elif(UART_SCB_MODE_EZI2C_CONST_CFG)
 265:.\Generated_Source\PSoC4/UART_BOOT.c ****         status = UART_EzI2CCyBtldrCommRead(pData, size, count, timeOut);
 266:.\Generated_Source\PSoC4/UART_BOOT.c **** 
 267:.\Generated_Source\PSoC4/UART_BOOT.c ****     #else
 268:.\Generated_Source\PSoC4/UART_BOOT.c ****         status = CYRET_INVALID_STATE; /* Unknown mode: return status */
 269:.\Generated_Source\PSoC4/UART_BOOT.c **** 
 270:.\Generated_Source\PSoC4/UART_BOOT.c ****     #endif /* (UART_SCB_MODE_UNCONFIG_CONST_CFG) */
 271:.\Generated_Source\PSoC4/UART_BOOT.c **** 
 272:.\Generated_Source\PSoC4/UART_BOOT.c ****     return(status);
 273:.\Generated_Source\PSoC4/UART_BOOT.c **** }
 105              		.loc 1 273 0
 106              		@ sp needed
 107 0006 08BD     		pop	{r3, pc}
 108              		.cfi_endproc
 109              	.LFE3:
 110              		.size	UART_CyBtldrCommRead, .-UART_CyBtldrCommRead
 111              		.section	.text.UART_CyBtldrCommWrite,"ax",%progbits
 112              		.align	1
 113              		.global	UART_CyBtldrCommWrite
 114              		.code	16
 115              		.thumb_func
 116              		.type	UART_CyBtldrCommWrite, %function
 117              	UART_CyBtldrCommWrite:
 118              	.LFB4:
 274:.\Generated_Source\PSoC4/UART_BOOT.c **** 
 275:.\Generated_Source\PSoC4/UART_BOOT.c **** 
 276:.\Generated_Source\PSoC4/UART_BOOT.c **** /*******************************************************************************
 277:.\Generated_Source\PSoC4/UART_BOOT.c **** * Function Name: UART_CyBtldrCommWrite
 278:.\Generated_Source\PSoC4/UART_BOOT.c **** ********************************************************************************
 279:.\Generated_Source\PSoC4/UART_BOOT.c **** *
 280:.\Generated_Source\PSoC4/UART_BOOT.c **** * Summary:
 281:.\Generated_Source\PSoC4/UART_BOOT.c **** *  Calls the CyBtldrCommWrite  function of the bootloader communication
ARM GAS  C:\DOCUME~1\Chuck\LOCALS~1\Temp\ccvKoZuj.s 			page 8


 282:.\Generated_Source\PSoC4/UART_BOOT.c **** *  component for the selected mode.
 283:.\Generated_Source\PSoC4/UART_BOOT.c **** *
 284:.\Generated_Source\PSoC4/UART_BOOT.c **** * Parameters:
 285:.\Generated_Source\PSoC4/UART_BOOT.c **** *  pData:    Pointer to the block of data to be written to the bootloader host.
 286:.\Generated_Source\PSoC4/UART_BOOT.c **** *  size:     Number of bytes to be written.
 287:.\Generated_Source\PSoC4/UART_BOOT.c **** *  count:    Pointer to the variable to write the number of bytes actually
 288:.\Generated_Source\PSoC4/UART_BOOT.c **** *            written.
 289:.\Generated_Source\PSoC4/UART_BOOT.c **** *  timeOut:  Number of units in 10 ms to wait before returning because of a
 290:.\Generated_Source\PSoC4/UART_BOOT.c **** *            timeout.
 291:.\Generated_Source\PSoC4/UART_BOOT.c **** *
 292:.\Generated_Source\PSoC4/UART_BOOT.c **** * Return:
 293:.\Generated_Source\PSoC4/UART_BOOT.c **** *  Returns CYRET_SUCCESS if no problem was encountered or returns the value
 294:.\Generated_Source\PSoC4/UART_BOOT.c **** *  that best describes the problem.
 295:.\Generated_Source\PSoC4/UART_BOOT.c **** *
 296:.\Generated_Source\PSoC4/UART_BOOT.c **** *******************************************************************************/
 297:.\Generated_Source\PSoC4/UART_BOOT.c **** cystatus UART_CyBtldrCommWrite(const uint8 pData[], uint16 size, uint16 * count, uint8 timeOut)
 298:.\Generated_Source\PSoC4/UART_BOOT.c **** {
 119              		.loc 1 298 0
 120              		.cfi_startproc
 121              	.LVL5:
 122 0000 08B5     		push	{r3, lr}
 123              		.cfi_def_cfa_offset 8
 124              		.cfi_offset 3, -8
 125              		.cfi_offset 14, -4
 299:.\Generated_Source\PSoC4/UART_BOOT.c ****     cystatus status;
 300:.\Generated_Source\PSoC4/UART_BOOT.c **** 
 301:.\Generated_Source\PSoC4/UART_BOOT.c ****     #if(UART_SCB_MODE_UNCONFIG_CONST_CFG)
 302:.\Generated_Source\PSoC4/UART_BOOT.c ****         if(UART_SCB_MODE_I2C_RUNTM_CFG)
 303:.\Generated_Source\PSoC4/UART_BOOT.c ****         {
 304:.\Generated_Source\PSoC4/UART_BOOT.c ****             status = UART_I2CCyBtldrCommWrite(pData, size, count, timeOut);
 305:.\Generated_Source\PSoC4/UART_BOOT.c ****         }
 306:.\Generated_Source\PSoC4/UART_BOOT.c ****         else if(UART_SCB_MODE_SPI_RUNTM_CFG)
 307:.\Generated_Source\PSoC4/UART_BOOT.c ****         {
 308:.\Generated_Source\PSoC4/UART_BOOT.c ****             status = UART_SpiCyBtldrCommWrite(pData, size, count, timeOut);
 309:.\Generated_Source\PSoC4/UART_BOOT.c ****         }
 310:.\Generated_Source\PSoC4/UART_BOOT.c ****         else if(UART_SCB_MODE_UART_RUNTM_CFG)
 311:.\Generated_Source\PSoC4/UART_BOOT.c ****         {
 312:.\Generated_Source\PSoC4/UART_BOOT.c ****             status = UART_UartCyBtldrCommWrite(pData, size, count, timeOut);
 313:.\Generated_Source\PSoC4/UART_BOOT.c ****         }
 314:.\Generated_Source\PSoC4/UART_BOOT.c ****         else if(UART_SCB_MODE_EZI2C_RUNTM_CFG)
 315:.\Generated_Source\PSoC4/UART_BOOT.c ****         {
 316:.\Generated_Source\PSoC4/UART_BOOT.c ****             status = UART_EzI2CCyBtldrCommWrite(pData, size, count, timeOut);
 317:.\Generated_Source\PSoC4/UART_BOOT.c ****         }
 318:.\Generated_Source\PSoC4/UART_BOOT.c ****         else
 319:.\Generated_Source\PSoC4/UART_BOOT.c ****         {
 320:.\Generated_Source\PSoC4/UART_BOOT.c ****             status = CYRET_INVALID_STATE; /* Unknown mode */
 321:.\Generated_Source\PSoC4/UART_BOOT.c ****         }
 322:.\Generated_Source\PSoC4/UART_BOOT.c ****     #elif(UART_SCB_MODE_I2C_CONST_CFG)
 323:.\Generated_Source\PSoC4/UART_BOOT.c ****         status = UART_I2CCyBtldrCommWrite(pData, size, count, timeOut);
 324:.\Generated_Source\PSoC4/UART_BOOT.c **** 
 325:.\Generated_Source\PSoC4/UART_BOOT.c ****     #elif(UART_SCB_MODE_SPI_CONST_CFG)
 326:.\Generated_Source\PSoC4/UART_BOOT.c ****         status = UART_SpiCyBtldrCommWrite(pData, size, count, timeOut);
 327:.\Generated_Source\PSoC4/UART_BOOT.c **** 
 328:.\Generated_Source\PSoC4/UART_BOOT.c ****     #elif(UART_SCB_MODE_UART_CONST_CFG)
 329:.\Generated_Source\PSoC4/UART_BOOT.c ****         status = UART_UartCyBtldrCommWrite(pData, size, count, timeOut);
 126              		.loc 1 329 0
 127 0002 FFF7FEFF 		bl	UART_UartCyBtldrCommWrite
ARM GAS  C:\DOCUME~1\Chuck\LOCALS~1\Temp\ccvKoZuj.s 			page 9


 128              	.LVL6:
 330:.\Generated_Source\PSoC4/UART_BOOT.c **** 
 331:.\Generated_Source\PSoC4/UART_BOOT.c ****     #elif(UART_SCB_MODE_EZI2C_CONST_CFG)
 332:.\Generated_Source\PSoC4/UART_BOOT.c ****         status = UART_EzI2CCyBtldrCommWrite(pData, size, count, timeOut);
 333:.\Generated_Source\PSoC4/UART_BOOT.c **** 
 334:.\Generated_Source\PSoC4/UART_BOOT.c ****     #else
 335:.\Generated_Source\PSoC4/UART_BOOT.c ****         status = CYRET_INVALID_STATE; /* Unknown mode */
 336:.\Generated_Source\PSoC4/UART_BOOT.c **** 
 337:.\Generated_Source\PSoC4/UART_BOOT.c ****     #endif /* (UART_SCB_MODE_UNCONFIG_CONST_CFG) */
 338:.\Generated_Source\PSoC4/UART_BOOT.c **** 
 339:.\Generated_Source\PSoC4/UART_BOOT.c ****     return(status);
 340:.\Generated_Source\PSoC4/UART_BOOT.c **** }
 129              		.loc 1 340 0
 130              		@ sp needed
 131 0006 08BD     		pop	{r3, pc}
 132              		.cfi_endproc
 133              	.LFE4:
 134              		.size	UART_CyBtldrCommWrite, .-UART_CyBtldrCommWrite
 135              		.text
 136              	.Letext0:
 137              		.file 2 "Generated_Source\\PSoC4/cytypes.h"
 138              		.file 3 ".\\Generated_Source\\PSoC4\\UART_SPI_UART.h"