ARM GAS  C:\Users\Chuck\AppData\Local\Temp\ccu1suQS.s 			page 1


   1              		.cpu cortex-m0
   2              		.fpu softvfp
   3              		.eabi_attribute 20, 1
   4              		.eabi_attribute 21, 1
   5              		.eabi_attribute 23, 3
   6              		.eabi_attribute 24, 1
   7              		.eabi_attribute 25, 1
   8              		.eabi_attribute 26, 1
   9              		.eabi_attribute 30, 6
  10              		.eabi_attribute 34, 0
  11              		.eabi_attribute 18, 4
  12              		.code	16
  13              		.file	"cyfitter_cfg.c"
  14              		.text
  15              	.Ltext0:
  16              		.cfi_sections	.debug_frame
  17              		.section	.text.CYMEMZERO,"ax",%progbits
  18              		.align	2
  19              		.code	16
  20              		.thumb_func
  21              		.type	CYMEMZERO, %function
  22              	CYMEMZERO:
  23              	.LFB0:
  24              		.file 1 ".\\Generated_Source\\PSoC4\\cyfitter_cfg.c"
   1:.\Generated_Source\PSoC4/cyfitter_cfg.c **** /*******************************************************************************
   2:.\Generated_Source\PSoC4/cyfitter_cfg.c **** * File Name: cyfitter_cfg.c
   3:.\Generated_Source\PSoC4/cyfitter_cfg.c **** * 
   4:.\Generated_Source\PSoC4/cyfitter_cfg.c **** * PSoC Creator  3.3 CP3
   5:.\Generated_Source\PSoC4/cyfitter_cfg.c **** *
   6:.\Generated_Source\PSoC4/cyfitter_cfg.c **** * Description:
   7:.\Generated_Source\PSoC4/cyfitter_cfg.c **** * This file contains device initialization code.
   8:.\Generated_Source\PSoC4/cyfitter_cfg.c **** * Except for the user defined sections in CyClockStartupError(), this file should not be modified.
   9:.\Generated_Source\PSoC4/cyfitter_cfg.c **** * This file is automatically generated by PSoC Creator.
  10:.\Generated_Source\PSoC4/cyfitter_cfg.c **** *
  11:.\Generated_Source\PSoC4/cyfitter_cfg.c **** ********************************************************************************
  12:.\Generated_Source\PSoC4/cyfitter_cfg.c **** * Copyright (c) 2007-2016 Cypress Semiconductor.  All rights reserved.
  13:.\Generated_Source\PSoC4/cyfitter_cfg.c **** * You may use this file only in accordance with the license, terms, conditions, 
  14:.\Generated_Source\PSoC4/cyfitter_cfg.c **** * disclaimers, and limitations in the end user license agreement accompanying 
  15:.\Generated_Source\PSoC4/cyfitter_cfg.c **** * the software package with which this file was provided.
  16:.\Generated_Source\PSoC4/cyfitter_cfg.c **** ********************************************************************************/
  17:.\Generated_Source\PSoC4/cyfitter_cfg.c **** 
  18:.\Generated_Source\PSoC4/cyfitter_cfg.c **** #include <string.h>
  19:.\Generated_Source\PSoC4/cyfitter_cfg.c **** #include "cytypes.h"
  20:.\Generated_Source\PSoC4/cyfitter_cfg.c **** #include "cydevice_trm.h"
  21:.\Generated_Source\PSoC4/cyfitter_cfg.c **** #include "cyfitter.h"
  22:.\Generated_Source\PSoC4/cyfitter_cfg.c **** #include "CyLib.h"
  23:.\Generated_Source\PSoC4/cyfitter_cfg.c **** #include "cyfitter_cfg.h"
  24:.\Generated_Source\PSoC4/cyfitter_cfg.c **** 
  25:.\Generated_Source\PSoC4/cyfitter_cfg.c **** 
  26:.\Generated_Source\PSoC4/cyfitter_cfg.c **** #if defined(__GNUC__) || defined(__ARMCC_VERSION)
  27:.\Generated_Source\PSoC4/cyfitter_cfg.c ****     #define CYPACKED 
  28:.\Generated_Source\PSoC4/cyfitter_cfg.c ****     #define CYPACKED_ATTR __attribute__ ((packed))
  29:.\Generated_Source\PSoC4/cyfitter_cfg.c ****     #define CYALIGNED __attribute__ ((aligned))
  30:.\Generated_Source\PSoC4/cyfitter_cfg.c ****     #define CY_CFG_UNUSED __attribute__ ((unused))
  31:.\Generated_Source\PSoC4/cyfitter_cfg.c ****     #ifndef CY_CFG_SECTION
  32:.\Generated_Source\PSoC4/cyfitter_cfg.c ****         #define CY_CFG_SECTION __attribute__ ((section(".psocinit")))
  33:.\Generated_Source\PSoC4/cyfitter_cfg.c ****     #endif
ARM GAS  C:\Users\Chuck\AppData\Local\Temp\ccu1suQS.s 			page 2


  34:.\Generated_Source\PSoC4/cyfitter_cfg.c ****     
  35:.\Generated_Source\PSoC4/cyfitter_cfg.c ****     #if defined(__ARMCC_VERSION)
  36:.\Generated_Source\PSoC4/cyfitter_cfg.c ****         #define CY_CFG_MEMORY_BARRIER() __memory_changed()
  37:.\Generated_Source\PSoC4/cyfitter_cfg.c ****     #else
  38:.\Generated_Source\PSoC4/cyfitter_cfg.c ****         #define CY_CFG_MEMORY_BARRIER() __sync_synchronize()
  39:.\Generated_Source\PSoC4/cyfitter_cfg.c ****     #endif
  40:.\Generated_Source\PSoC4/cyfitter_cfg.c ****     
  41:.\Generated_Source\PSoC4/cyfitter_cfg.c **** #elif defined(__ICCARM__)
  42:.\Generated_Source\PSoC4/cyfitter_cfg.c ****     #include <intrinsics.h>
  43:.\Generated_Source\PSoC4/cyfitter_cfg.c **** 
  44:.\Generated_Source\PSoC4/cyfitter_cfg.c ****     #define CYPACKED __packed
  45:.\Generated_Source\PSoC4/cyfitter_cfg.c ****     #define CYPACKED_ATTR 
  46:.\Generated_Source\PSoC4/cyfitter_cfg.c ****     #define CYALIGNED _Pragma("data_alignment=4")
  47:.\Generated_Source\PSoC4/cyfitter_cfg.c ****     #define CY_CFG_UNUSED _Pragma("diag_suppress=Pe177")
  48:.\Generated_Source\PSoC4/cyfitter_cfg.c ****     #define CY_CFG_SECTION _Pragma("location=\".psocinit\"")
  49:.\Generated_Source\PSoC4/cyfitter_cfg.c ****     
  50:.\Generated_Source\PSoC4/cyfitter_cfg.c ****     #define CY_CFG_MEMORY_BARRIER() __DMB()
  51:.\Generated_Source\PSoC4/cyfitter_cfg.c ****     
  52:.\Generated_Source\PSoC4/cyfitter_cfg.c **** #else
  53:.\Generated_Source\PSoC4/cyfitter_cfg.c ****     #error Unsupported toolchain
  54:.\Generated_Source\PSoC4/cyfitter_cfg.c **** #endif
  55:.\Generated_Source\PSoC4/cyfitter_cfg.c **** 
  56:.\Generated_Source\PSoC4/cyfitter_cfg.c **** 
  57:.\Generated_Source\PSoC4/cyfitter_cfg.c **** CY_CFG_UNUSED
  58:.\Generated_Source\PSoC4/cyfitter_cfg.c **** static void CYMEMZERO(void *s, size_t n);
  59:.\Generated_Source\PSoC4/cyfitter_cfg.c **** CY_CFG_UNUSED
  60:.\Generated_Source\PSoC4/cyfitter_cfg.c **** static void CYMEMZERO(void *s, size_t n)
  61:.\Generated_Source\PSoC4/cyfitter_cfg.c **** {
  25              		.loc 1 61 0
  26              		.cfi_startproc
  27 0000 80B5     		push	{r7, lr}
  28              		.cfi_def_cfa_offset 8
  29              		.cfi_offset 7, -8
  30              		.cfi_offset 14, -4
  31 0002 82B0     		sub	sp, sp, #8
  32              		.cfi_def_cfa_offset 16
  33 0004 00AF     		add	r7, sp, #0
  34              		.cfi_def_cfa_register 7
  35 0006 7860     		str	r0, [r7, #4]
  36 0008 3960     		str	r1, [r7]
  62:.\Generated_Source\PSoC4/cyfitter_cfg.c **** 	(void)memset(s, 0, n);
  37              		.loc 1 62 0
  38 000a 7A68     		ldr	r2, [r7, #4]
  39 000c 3B68     		ldr	r3, [r7]
  40 000e 101C     		mov	r0, r2
  41 0010 0021     		mov	r1, #0
  42 0012 1A1C     		mov	r2, r3
  43 0014 FFF7FEFF 		bl	memset
  63:.\Generated_Source\PSoC4/cyfitter_cfg.c **** }
  44              		.loc 1 63 0
  45 0018 BD46     		mov	sp, r7
  46 001a 02B0     		add	sp, sp, #8
  47              		@ sp needed
  48 001c 80BD     		pop	{r7, pc}
  49              		.cfi_endproc
  50              	.LFE0:
  51              		.size	CYMEMZERO, .-CYMEMZERO
ARM GAS  C:\Users\Chuck\AppData\Local\Temp\ccu1suQS.s 			page 3


  52 001e C046     		.section	.text.CYCONFIGCPY,"ax",%progbits
  53              		.align	2
  54              		.code	16
  55              		.thumb_func
  56              		.type	CYCONFIGCPY, %function
  57              	CYCONFIGCPY:
  58              	.LFB1:
  64:.\Generated_Source\PSoC4/cyfitter_cfg.c **** CY_CFG_UNUSED
  65:.\Generated_Source\PSoC4/cyfitter_cfg.c **** static void CYCONFIGCPY(void *dest, const void *src, size_t n);
  66:.\Generated_Source\PSoC4/cyfitter_cfg.c **** CY_CFG_UNUSED
  67:.\Generated_Source\PSoC4/cyfitter_cfg.c **** static void CYCONFIGCPY(void *dest, const void *src, size_t n)
  68:.\Generated_Source\PSoC4/cyfitter_cfg.c **** {
  59              		.loc 1 68 0
  60              		.cfi_startproc
  61 0000 80B5     		push	{r7, lr}
  62              		.cfi_def_cfa_offset 8
  63              		.cfi_offset 7, -8
  64              		.cfi_offset 14, -4
  65 0002 84B0     		sub	sp, sp, #16
  66              		.cfi_def_cfa_offset 24
  67 0004 00AF     		add	r7, sp, #0
  68              		.cfi_def_cfa_register 7
  69 0006 F860     		str	r0, [r7, #12]
  70 0008 B960     		str	r1, [r7, #8]
  71 000a 7A60     		str	r2, [r7, #4]
  69:.\Generated_Source\PSoC4/cyfitter_cfg.c **** 	(void)memcpy(dest, src, n);
  72              		.loc 1 69 0
  73 000c F968     		ldr	r1, [r7, #12]
  74 000e BA68     		ldr	r2, [r7, #8]
  75 0010 7B68     		ldr	r3, [r7, #4]
  76 0012 081C     		mov	r0, r1
  77 0014 111C     		mov	r1, r2
  78 0016 1A1C     		mov	r2, r3
  79 0018 FFF7FEFF 		bl	memcpy
  70:.\Generated_Source\PSoC4/cyfitter_cfg.c **** }
  80              		.loc 1 70 0
  81 001c BD46     		mov	sp, r7
  82 001e 04B0     		add	sp, sp, #16
  83              		@ sp needed
  84 0020 80BD     		pop	{r7, pc}
  85              		.cfi_endproc
  86              	.LFE1:
  87              		.size	CYCONFIGCPY, .-CYCONFIGCPY
  88 0022 C046     		.section	.text.CYCONFIGCPYCODE,"ax",%progbits
  89              		.align	2
  90              		.code	16
  91              		.thumb_func
  92              		.type	CYCONFIGCPYCODE, %function
  93              	CYCONFIGCPYCODE:
  94              	.LFB2:
  71:.\Generated_Source\PSoC4/cyfitter_cfg.c **** CY_CFG_UNUSED
  72:.\Generated_Source\PSoC4/cyfitter_cfg.c **** static void CYCONFIGCPYCODE(void *dest, const void *src, size_t n);
  73:.\Generated_Source\PSoC4/cyfitter_cfg.c **** CY_CFG_UNUSED
  74:.\Generated_Source\PSoC4/cyfitter_cfg.c **** static void CYCONFIGCPYCODE(void *dest, const void *src, size_t n)
  75:.\Generated_Source\PSoC4/cyfitter_cfg.c **** {
  95              		.loc 1 75 0
  96              		.cfi_startproc
ARM GAS  C:\Users\Chuck\AppData\Local\Temp\ccu1suQS.s 			page 4


  97 0000 80B5     		push	{r7, lr}
  98              		.cfi_def_cfa_offset 8
  99              		.cfi_offset 7, -8
 100              		.cfi_offset 14, -4
 101 0002 84B0     		sub	sp, sp, #16
 102              		.cfi_def_cfa_offset 24
 103 0004 00AF     		add	r7, sp, #0
 104              		.cfi_def_cfa_register 7
 105 0006 F860     		str	r0, [r7, #12]
 106 0008 B960     		str	r1, [r7, #8]
 107 000a 7A60     		str	r2, [r7, #4]
  76:.\Generated_Source\PSoC4/cyfitter_cfg.c **** 	(void)memcpy(dest, src, n);
 108              		.loc 1 76 0
 109 000c F968     		ldr	r1, [r7, #12]
 110 000e BA68     		ldr	r2, [r7, #8]
 111 0010 7B68     		ldr	r3, [r7, #4]
 112 0012 081C     		mov	r0, r1
 113 0014 111C     		mov	r1, r2
 114 0016 1A1C     		mov	r2, r3
 115 0018 FFF7FEFF 		bl	memcpy
  77:.\Generated_Source\PSoC4/cyfitter_cfg.c **** }
 116              		.loc 1 77 0
 117 001c BD46     		mov	sp, r7
 118 001e 04B0     		add	sp, sp, #16
 119              		@ sp needed
 120 0020 80BD     		pop	{r7, pc}
 121              		.cfi_endproc
 122              	.LFE2:
 123              		.size	CYCONFIGCPYCODE, .-CYCONFIGCPYCODE
 124 0022 C046     		.section	.text.cfg_write_bytes32,"ax",%progbits
 125              		.align	2
 126              		.code	16
 127              		.thumb_func
 128              		.type	cfg_write_bytes32, %function
 129              	cfg_write_bytes32:
 130              	.LFB3:
  78:.\Generated_Source\PSoC4/cyfitter_cfg.c **** 
  79:.\Generated_Source\PSoC4/cyfitter_cfg.c **** 
  80:.\Generated_Source\PSoC4/cyfitter_cfg.c **** 
  81:.\Generated_Source\PSoC4/cyfitter_cfg.c **** /* Clock startup error codes                                                   */
  82:.\Generated_Source\PSoC4/cyfitter_cfg.c **** #define CYCLOCKSTART_NO_ERROR    0u
  83:.\Generated_Source\PSoC4/cyfitter_cfg.c **** #define CYCLOCKSTART_XTAL_ERROR  1u
  84:.\Generated_Source\PSoC4/cyfitter_cfg.c **** #define CYCLOCKSTART_32KHZ_ERROR 2u
  85:.\Generated_Source\PSoC4/cyfitter_cfg.c **** #define CYCLOCKSTART_PLL_ERROR   3u
  86:.\Generated_Source\PSoC4/cyfitter_cfg.c **** 
  87:.\Generated_Source\PSoC4/cyfitter_cfg.c **** #ifdef CY_NEED_CYCLOCKSTARTUPERROR
  88:.\Generated_Source\PSoC4/cyfitter_cfg.c **** /*******************************************************************************
  89:.\Generated_Source\PSoC4/cyfitter_cfg.c **** * Function Name: CyClockStartupError
  90:.\Generated_Source\PSoC4/cyfitter_cfg.c **** ********************************************************************************
  91:.\Generated_Source\PSoC4/cyfitter_cfg.c **** * Summary:
  92:.\Generated_Source\PSoC4/cyfitter_cfg.c **** *  If an error is encountered during clock configuration (crystal startup error,
  93:.\Generated_Source\PSoC4/cyfitter_cfg.c **** *  PLL lock error, etc.), the system will end up here.  Unless reimplemented by
  94:.\Generated_Source\PSoC4/cyfitter_cfg.c **** *  the customer, this function will stop in an infinite loop.
  95:.\Generated_Source\PSoC4/cyfitter_cfg.c **** *
  96:.\Generated_Source\PSoC4/cyfitter_cfg.c **** * Parameters:
  97:.\Generated_Source\PSoC4/cyfitter_cfg.c **** *   void
  98:.\Generated_Source\PSoC4/cyfitter_cfg.c **** *
ARM GAS  C:\Users\Chuck\AppData\Local\Temp\ccu1suQS.s 			page 5


  99:.\Generated_Source\PSoC4/cyfitter_cfg.c **** * Return:
 100:.\Generated_Source\PSoC4/cyfitter_cfg.c **** *   void
 101:.\Generated_Source\PSoC4/cyfitter_cfg.c **** *
 102:.\Generated_Source\PSoC4/cyfitter_cfg.c **** *******************************************************************************/
 103:.\Generated_Source\PSoC4/cyfitter_cfg.c **** CY_CFG_UNUSED
 104:.\Generated_Source\PSoC4/cyfitter_cfg.c **** static void CyClockStartupError(uint8 errorCode);
 105:.\Generated_Source\PSoC4/cyfitter_cfg.c **** CY_CFG_UNUSED
 106:.\Generated_Source\PSoC4/cyfitter_cfg.c **** static void CyClockStartupError(uint8 errorCode)
 107:.\Generated_Source\PSoC4/cyfitter_cfg.c **** {
 108:.\Generated_Source\PSoC4/cyfitter_cfg.c ****     /* To remove the compiler warning if errorCode not used.                */
 109:.\Generated_Source\PSoC4/cyfitter_cfg.c ****     errorCode = errorCode;
 110:.\Generated_Source\PSoC4/cyfitter_cfg.c **** 
 111:.\Generated_Source\PSoC4/cyfitter_cfg.c ****     /* `#START CyClockStartupError` */
 112:.\Generated_Source\PSoC4/cyfitter_cfg.c **** 
 113:.\Generated_Source\PSoC4/cyfitter_cfg.c ****     /* If we have a clock startup error (bad MHz crystal, PLL lock, etc.),  */
 114:.\Generated_Source\PSoC4/cyfitter_cfg.c ****     /* we will end up here to allow the customer to implement something to  */
 115:.\Generated_Source\PSoC4/cyfitter_cfg.c ****     /* deal with the clock condition.                                       */
 116:.\Generated_Source\PSoC4/cyfitter_cfg.c **** 
 117:.\Generated_Source\PSoC4/cyfitter_cfg.c ****     /* `#END` */
 118:.\Generated_Source\PSoC4/cyfitter_cfg.c **** 
 119:.\Generated_Source\PSoC4/cyfitter_cfg.c ****     /* If nothing else, stop here since the clocks have not started         */
 120:.\Generated_Source\PSoC4/cyfitter_cfg.c ****     /* correctly.                                                           */
 121:.\Generated_Source\PSoC4/cyfitter_cfg.c ****     while(1) {}
 122:.\Generated_Source\PSoC4/cyfitter_cfg.c **** }
 123:.\Generated_Source\PSoC4/cyfitter_cfg.c **** #endif
 124:.\Generated_Source\PSoC4/cyfitter_cfg.c **** 
 125:.\Generated_Source\PSoC4/cyfitter_cfg.c **** #define CY_CFG_BASE_ADDR_COUNT 9u
 126:.\Generated_Source\PSoC4/cyfitter_cfg.c **** CYPACKED typedef struct
 127:.\Generated_Source\PSoC4/cyfitter_cfg.c **** {
 128:.\Generated_Source\PSoC4/cyfitter_cfg.c **** 	uint8 offset;
 129:.\Generated_Source\PSoC4/cyfitter_cfg.c **** 	uint8 value;
 130:.\Generated_Source\PSoC4/cyfitter_cfg.c **** } CYPACKED_ATTR cy_cfg_addrvalue_t;
 131:.\Generated_Source\PSoC4/cyfitter_cfg.c **** 
 132:.\Generated_Source\PSoC4/cyfitter_cfg.c **** 
 133:.\Generated_Source\PSoC4/cyfitter_cfg.c **** 
 134:.\Generated_Source\PSoC4/cyfitter_cfg.c **** /*******************************************************************************
 135:.\Generated_Source\PSoC4/cyfitter_cfg.c **** * Function Name: cfg_write_bytes32
 136:.\Generated_Source\PSoC4/cyfitter_cfg.c **** ********************************************************************************
 137:.\Generated_Source\PSoC4/cyfitter_cfg.c **** * Summary:
 138:.\Generated_Source\PSoC4/cyfitter_cfg.c **** *  This function is used for setting up the chip configuration areas that
 139:.\Generated_Source\PSoC4/cyfitter_cfg.c **** *  contain relatively sparse data.
 140:.\Generated_Source\PSoC4/cyfitter_cfg.c **** *
 141:.\Generated_Source\PSoC4/cyfitter_cfg.c **** * Parameters:
 142:.\Generated_Source\PSoC4/cyfitter_cfg.c **** *   void
 143:.\Generated_Source\PSoC4/cyfitter_cfg.c **** *
 144:.\Generated_Source\PSoC4/cyfitter_cfg.c **** * Return:
 145:.\Generated_Source\PSoC4/cyfitter_cfg.c **** *   void
 146:.\Generated_Source\PSoC4/cyfitter_cfg.c **** *
 147:.\Generated_Source\PSoC4/cyfitter_cfg.c **** *******************************************************************************/
 148:.\Generated_Source\PSoC4/cyfitter_cfg.c **** static void cfg_write_bytes32(const uint32 addr_table[], const cy_cfg_addrvalue_t data_table[]);
 149:.\Generated_Source\PSoC4/cyfitter_cfg.c **** static void cfg_write_bytes32(const uint32 addr_table[], const cy_cfg_addrvalue_t data_table[])
 150:.\Generated_Source\PSoC4/cyfitter_cfg.c **** {
 131              		.loc 1 150 0
 132              		.cfi_startproc
 133 0000 80B5     		push	{r7, lr}
 134              		.cfi_def_cfa_offset 8
 135              		.cfi_offset 7, -8
ARM GAS  C:\Users\Chuck\AppData\Local\Temp\ccu1suQS.s 			page 6


 136              		.cfi_offset 14, -4
 137 0002 86B0     		sub	sp, sp, #24
 138              		.cfi_def_cfa_offset 32
 139 0004 00AF     		add	r7, sp, #0
 140              		.cfi_def_cfa_register 7
 141 0006 7860     		str	r0, [r7, #4]
 142 0008 3960     		str	r1, [r7]
 151:.\Generated_Source\PSoC4/cyfitter_cfg.c **** 	/* For 32-bit little-endian architectures */
 152:.\Generated_Source\PSoC4/cyfitter_cfg.c **** 	uint32 i, j = 0u;
 143              		.loc 1 152 0
 144 000a 0023     		mov	r3, #0
 145 000c 3B61     		str	r3, [r7, #16]
 153:.\Generated_Source\PSoC4/cyfitter_cfg.c **** 	for (i = 0u; i < CY_CFG_BASE_ADDR_COUNT; i++)
 146              		.loc 1 153 0
 147 000e 0023     		mov	r3, #0
 148 0010 7B61     		str	r3, [r7, #20]
 149 0012 2FE0     		b	.L5
 150              	.L8:
 151              	.LBB2:
 154:.\Generated_Source\PSoC4/cyfitter_cfg.c **** 	{
 155:.\Generated_Source\PSoC4/cyfitter_cfg.c **** 		uint32 baseAddr = addr_table[i];
 152              		.loc 1 155 0
 153 0014 7B69     		ldr	r3, [r7, #20]
 154 0016 9B00     		lsl	r3, r3, #2
 155 0018 7A68     		ldr	r2, [r7, #4]
 156 001a D318     		add	r3, r2, r3
 157 001c 1B68     		ldr	r3, [r3]
 158 001e BB60     		str	r3, [r7, #8]
 156:.\Generated_Source\PSoC4/cyfitter_cfg.c **** 		uint8 count = (uint8)baseAddr;
 159              		.loc 1 156 0
 160 0020 0F23     		mov	r3, #15
 161 0022 FB18     		add	r3, r7, r3
 162 0024 BA68     		ldr	r2, [r7, #8]
 163 0026 1A70     		strb	r2, [r3]
 157:.\Generated_Source\PSoC4/cyfitter_cfg.c **** 		baseAddr &= 0xFFFFFF00u;
 164              		.loc 1 157 0
 165 0028 BB68     		ldr	r3, [r7, #8]
 166 002a FF22     		mov	r2, #255
 167 002c 9343     		bic	r3, r2
 168 002e BB60     		str	r3, [r7, #8]
 158:.\Generated_Source\PSoC4/cyfitter_cfg.c **** 		while (count != 0u)
 169              		.loc 1 158 0
 170 0030 18E0     		b	.L6
 171              	.L7:
 159:.\Generated_Source\PSoC4/cyfitter_cfg.c **** 		{
 160:.\Generated_Source\PSoC4/cyfitter_cfg.c **** 			CY_SET_XTND_REG8((void CYFAR *)(baseAddr + data_table[j].offset), data_table[j].value);
 172              		.loc 1 160 0
 173 0032 3B69     		ldr	r3, [r7, #16]
 174 0034 5B00     		lsl	r3, r3, #1
 175 0036 3A68     		ldr	r2, [r7]
 176 0038 D318     		add	r3, r2, r3
 177 003a 1B78     		ldrb	r3, [r3]
 178 003c 1A1C     		mov	r2, r3
 179 003e BB68     		ldr	r3, [r7, #8]
 180 0040 D318     		add	r3, r2, r3
 181 0042 191C     		mov	r1, r3
 182 0044 3B69     		ldr	r3, [r7, #16]
ARM GAS  C:\Users\Chuck\AppData\Local\Temp\ccu1suQS.s 			page 7


 183 0046 5B00     		lsl	r3, r3, #1
 184 0048 3A68     		ldr	r2, [r7]
 185 004a D318     		add	r3, r2, r3
 186 004c 5B78     		ldrb	r3, [r3, #1]
 187 004e 0B70     		strb	r3, [r1]
 161:.\Generated_Source\PSoC4/cyfitter_cfg.c **** 			j++;
 188              		.loc 1 161 0
 189 0050 3B69     		ldr	r3, [r7, #16]
 190 0052 0133     		add	r3, r3, #1
 191 0054 3B61     		str	r3, [r7, #16]
 162:.\Generated_Source\PSoC4/cyfitter_cfg.c **** 			count--;
 192              		.loc 1 162 0
 193 0056 0F23     		mov	r3, #15
 194 0058 FB18     		add	r3, r7, r3
 195 005a 1A78     		ldrb	r2, [r3]
 196 005c 0F23     		mov	r3, #15
 197 005e FB18     		add	r3, r7, r3
 198 0060 013A     		sub	r2, r2, #1
 199 0062 1A70     		strb	r2, [r3]
 200              	.L6:
 158:.\Generated_Source\PSoC4/cyfitter_cfg.c **** 		{
 201              		.loc 1 158 0
 202 0064 0F23     		mov	r3, #15
 203 0066 FB18     		add	r3, r7, r3
 204 0068 1B78     		ldrb	r3, [r3]
 205 006a 002B     		cmp	r3, #0
 206 006c E1D1     		bne	.L7
 207              	.LBE2:
 153:.\Generated_Source\PSoC4/cyfitter_cfg.c **** 	{
 208              		.loc 1 153 0 discriminator 2
 209 006e 7B69     		ldr	r3, [r7, #20]
 210 0070 0133     		add	r3, r3, #1
 211 0072 7B61     		str	r3, [r7, #20]
 212              	.L5:
 153:.\Generated_Source\PSoC4/cyfitter_cfg.c **** 	{
 213              		.loc 1 153 0 is_stmt 0 discriminator 1
 214 0074 7B69     		ldr	r3, [r7, #20]
 215 0076 082B     		cmp	r3, #8
 216 0078 CCD9     		bls	.L8
 163:.\Generated_Source\PSoC4/cyfitter_cfg.c **** 		}
 164:.\Generated_Source\PSoC4/cyfitter_cfg.c **** 	}
 165:.\Generated_Source\PSoC4/cyfitter_cfg.c **** }
 217              		.loc 1 165 0 is_stmt 1
 218 007a BD46     		mov	sp, r7
 219 007c 06B0     		add	sp, sp, #24
 220              		@ sp needed
 221 007e 80BD     		pop	{r7, pc}
 222              		.cfi_endproc
 223              	.LFE3:
 224              		.size	cfg_write_bytes32, .-cfg_write_bytes32
 225              		.section	.psocinit,"ax",%progbits
 226              		.align	2
 227              		.code	16
 228              		.thumb_func
 229              		.type	ClockSetup, %function
 230              	ClockSetup:
 231              	.LFB4:
ARM GAS  C:\Users\Chuck\AppData\Local\Temp\ccu1suQS.s 			page 8


 166:.\Generated_Source\PSoC4/cyfitter_cfg.c **** 
 167:.\Generated_Source\PSoC4/cyfitter_cfg.c **** 
 168:.\Generated_Source\PSoC4/cyfitter_cfg.c **** /*******************************************************************************
 169:.\Generated_Source\PSoC4/cyfitter_cfg.c **** * Function Name: ClockSetup
 170:.\Generated_Source\PSoC4/cyfitter_cfg.c **** ********************************************************************************
 171:.\Generated_Source\PSoC4/cyfitter_cfg.c **** *
 172:.\Generated_Source\PSoC4/cyfitter_cfg.c **** * Summary:
 173:.\Generated_Source\PSoC4/cyfitter_cfg.c **** *   Performs the initialization of all of the clocks in the device based on the
 174:.\Generated_Source\PSoC4/cyfitter_cfg.c **** *   settings in the Clock tab of the DWR.  This includes enabling the requested
 175:.\Generated_Source\PSoC4/cyfitter_cfg.c **** *   clocks and setting the necessary dividers to produce the desired frequency. 
 176:.\Generated_Source\PSoC4/cyfitter_cfg.c **** *
 177:.\Generated_Source\PSoC4/cyfitter_cfg.c **** * Parameters:
 178:.\Generated_Source\PSoC4/cyfitter_cfg.c **** *   void
 179:.\Generated_Source\PSoC4/cyfitter_cfg.c **** *
 180:.\Generated_Source\PSoC4/cyfitter_cfg.c **** * Return:
 181:.\Generated_Source\PSoC4/cyfitter_cfg.c **** *   void
 182:.\Generated_Source\PSoC4/cyfitter_cfg.c **** *
 183:.\Generated_Source\PSoC4/cyfitter_cfg.c **** *******************************************************************************/
 184:.\Generated_Source\PSoC4/cyfitter_cfg.c **** static void ClockSetup(void);
 185:.\Generated_Source\PSoC4/cyfitter_cfg.c **** CY_CFG_SECTION
 186:.\Generated_Source\PSoC4/cyfitter_cfg.c **** static void ClockSetup(void)
 187:.\Generated_Source\PSoC4/cyfitter_cfg.c **** {
 232              		.loc 1 187 0
 233              		.cfi_startproc
 234 0000 80B5     		push	{r7, lr}
 235              		.cfi_def_cfa_offset 8
 236              		.cfi_offset 7, -8
 237              		.cfi_offset 14, -4
 238 0002 00AF     		add	r7, sp, #0
 239              		.cfi_def_cfa_register 7
 188:.\Generated_Source\PSoC4/cyfitter_cfg.c **** 	/* Enable HALF_EN before trimming for the flash accelerator. */
 189:.\Generated_Source\PSoC4/cyfitter_cfg.c **** 	CY_SET_REG32((void CYXDATA *)(CYREG_CLK_SELECT), (CY_GET_REG32((void *)CYREG_CLK_SELECT) | 0x00040
 240              		.loc 1 189 0
 241 0004 244B     		ldr	r3, .L10
 242 0006 244A     		ldr	r2, .L10
 243 0008 1268     		ldr	r2, [r2]
 244 000a 8021     		mov	r1, #128
 245 000c C902     		lsl	r1, r1, #11
 246 000e 0A43     		orr	r2, r1
 247 0010 1A60     		str	r2, [r3]
 190:.\Generated_Source\PSoC4/cyfitter_cfg.c **** 
 191:.\Generated_Source\PSoC4/cyfitter_cfg.c **** 	/* Setup and trim IMO based on desired frequency. */
 192:.\Generated_Source\PSoC4/cyfitter_cfg.c **** 	CySysClkWriteImoFreq(24u);
 248              		.loc 1 192 0
 249 0012 1820     		mov	r0, #24
 250 0014 FFF7FEFF 		bl	CySysClkWriteImoFreq
 193:.\Generated_Source\PSoC4/cyfitter_cfg.c **** 
 194:.\Generated_Source\PSoC4/cyfitter_cfg.c **** 	/* Disable HALF_EN since it is not required at this IMO frequency. */
 195:.\Generated_Source\PSoC4/cyfitter_cfg.c **** 	CY_SET_REG32((void CYXDATA *)(CYREG_CLK_SELECT), (CY_GET_REG32((void *)CYREG_CLK_SELECT) & 0xFFFBF
 251              		.loc 1 195 0
 252 0018 1F4B     		ldr	r3, .L10
 253 001a 1F4A     		ldr	r2, .L10
 254 001c 1268     		ldr	r2, [r2]
 255 001e 1F49     		ldr	r1, .L10+4
 256 0020 0A40     		and	r2, r1
 257 0022 1A60     		str	r2, [r3]
 196:.\Generated_Source\PSoC4/cyfitter_cfg.c **** 	/* CYDEV_CLK_ILO_CONFIG Starting address: CYDEV_CLK_ILO_CONFIG */
ARM GAS  C:\Users\Chuck\AppData\Local\Temp\ccu1suQS.s 			page 9


 197:.\Generated_Source\PSoC4/cyfitter_cfg.c **** 	CY_SET_XTND_REG32((void CYFAR *)(CYREG_CLK_ILO_CONFIG), 0x80000006u);
 258              		.loc 1 197 0
 259 0024 1E4B     		ldr	r3, .L10+8
 260 0026 1F4A     		ldr	r2, .L10+12
 261 0028 1A60     		str	r2, [r3]
 198:.\Generated_Source\PSoC4/cyfitter_cfg.c **** 
 199:.\Generated_Source\PSoC4/cyfitter_cfg.c **** 
 200:.\Generated_Source\PSoC4/cyfitter_cfg.c **** 	/* CYDEV_CLK_SELECT00 Starting address: CYDEV_CLK_SELECT00 */
 201:.\Generated_Source\PSoC4/cyfitter_cfg.c **** 	CY_SET_XTND_REG32((void CYFAR *)(CYREG_CLK_SELECT02), 0x00000021u);
 262              		.loc 1 201 0
 263 002a 1F4B     		ldr	r3, .L10+16
 264 002c 2122     		mov	r2, #33
 265 002e 1A60     		str	r2, [r3]
 202:.\Generated_Source\PSoC4/cyfitter_cfg.c **** 	CY_SET_XTND_REG32((void CYFAR *)(CYREG_CLK_SELECT03), 0x00000031u);
 266              		.loc 1 202 0
 267 0030 1E4B     		ldr	r3, .L10+20
 268 0032 3122     		mov	r2, #49
 269 0034 1A60     		str	r2, [r3]
 203:.\Generated_Source\PSoC4/cyfitter_cfg.c **** 	CY_SET_XTND_REG32((void CYFAR *)(CYREG_CLK_SELECT05), 0x00000020u);
 270              		.loc 1 203 0
 271 0036 1E4B     		ldr	r3, .L10+24
 272 0038 2022     		mov	r2, #32
 273 003a 1A60     		str	r2, [r3]
 204:.\Generated_Source\PSoC4/cyfitter_cfg.c **** 	CY_SET_XTND_REG32((void CYFAR *)(CYREG_CLK_SELECT06), 0x00000010u);
 274              		.loc 1 204 0
 275 003c 1D4B     		ldr	r3, .L10+28
 276 003e 1022     		mov	r2, #16
 277 0040 1A60     		str	r2, [r3]
 205:.\Generated_Source\PSoC4/cyfitter_cfg.c **** 	CY_SET_XTND_REG32((void CYFAR *)(CYREG_CLK_SELECT07), 0x00000011u);
 278              		.loc 1 205 0
 279 0042 1D4B     		ldr	r3, .L10+32
 280 0044 1122     		mov	r2, #17
 281 0046 1A60     		str	r2, [r3]
 206:.\Generated_Source\PSoC4/cyfitter_cfg.c **** 	CY_SET_XTND_REG32((void CYFAR *)(CYREG_CLK_SELECT08), 0x00000030u);
 282              		.loc 1 206 0
 283 0048 1C4B     		ldr	r3, .L10+36
 284 004a 3022     		mov	r2, #48
 285 004c 1A60     		str	r2, [r3]
 207:.\Generated_Source\PSoC4/cyfitter_cfg.c **** 	CY_SET_XTND_REG32((void CYFAR *)(CYREG_CLK_SELECT09), 0x00000012u);
 286              		.loc 1 207 0
 287 004e 1C4B     		ldr	r3, .L10+40
 288 0050 1222     		mov	r2, #18
 289 0052 1A60     		str	r2, [r3]
 208:.\Generated_Source\PSoC4/cyfitter_cfg.c **** 
 209:.\Generated_Source\PSoC4/cyfitter_cfg.c **** 	/* CYDEV_CLK_IMO_CONFIG Starting address: CYDEV_CLK_IMO_CONFIG */
 210:.\Generated_Source\PSoC4/cyfitter_cfg.c **** 	CY_SET_XTND_REG32((void CYFAR *)(CYREG_CLK_IMO_CONFIG), 0x82000000u);
 290              		.loc 1 210 0
 291 0054 1B4B     		ldr	r3, .L10+44
 292 0056 8222     		mov	r2, #130
 293 0058 1206     		lsl	r2, r2, #24
 294 005a 1A60     		str	r2, [r3]
 211:.\Generated_Source\PSoC4/cyfitter_cfg.c **** 
 212:.\Generated_Source\PSoC4/cyfitter_cfg.c **** 	/* CYDEV_CLK_SELECT Starting address: CYDEV_CLK_SELECT */
 213:.\Generated_Source\PSoC4/cyfitter_cfg.c **** 	CY_SET_XTND_REG32((void CYFAR *)(CYREG_CLK_SELECT), 0x00000000u);
 295              		.loc 1 213 0
 296 005c 0E4B     		ldr	r3, .L10
 297 005e 0022     		mov	r2, #0
ARM GAS  C:\Users\Chuck\AppData\Local\Temp\ccu1suQS.s 			page 10


 298 0060 1A60     		str	r2, [r3]
 214:.\Generated_Source\PSoC4/cyfitter_cfg.c **** 
 215:.\Generated_Source\PSoC4/cyfitter_cfg.c **** 	/* CYDEV_CLK_DIVIDER_A00 Starting address: CYDEV_CLK_DIVIDER_A00 */
 216:.\Generated_Source\PSoC4/cyfitter_cfg.c **** 	CY_SET_XTND_REG32((void CYFAR *)(CYREG_CLK_DIVIDER_A00), 0x800000FEu);
 299              		.loc 1 216 0
 300 0062 194B     		ldr	r3, .L10+48
 301 0064 194A     		ldr	r2, .L10+52
 302 0066 1A60     		str	r2, [r3]
 217:.\Generated_Source\PSoC4/cyfitter_cfg.c **** 
 218:.\Generated_Source\PSoC4/cyfitter_cfg.c **** 	/* CYDEV_CLK_DIVIDER_B00 Starting address: CYDEV_CLK_DIVIDER_B00 */
 219:.\Generated_Source\PSoC4/cyfitter_cfg.c **** 	CY_SET_XTND_REG32((void CYFAR *)(CYREG_CLK_DIVIDER_B00), 0xC00000FEu);
 303              		.loc 1 219 0
 304 0068 194B     		ldr	r3, .L10+56
 305 006a 1A4A     		ldr	r2, .L10+60
 306 006c 1A60     		str	r2, [r3]
 220:.\Generated_Source\PSoC4/cyfitter_cfg.c **** 
 221:.\Generated_Source\PSoC4/cyfitter_cfg.c **** 	/* CYDEV_CLK_DIVIDER_C00 Starting address: CYDEV_CLK_DIVIDER_C00 */
 222:.\Generated_Source\PSoC4/cyfitter_cfg.c **** 	CY_SET_XTND_REG32((void CYFAR *)(CYREG_CLK_DIVIDER_C00), 0x80000000u);
 307              		.loc 1 222 0
 308 006e 1A4B     		ldr	r3, .L10+64
 309 0070 8022     		mov	r2, #128
 310 0072 1206     		lsl	r2, r2, #24
 311 0074 1A60     		str	r2, [r3]
 223:.\Generated_Source\PSoC4/cyfitter_cfg.c **** 
 224:.\Generated_Source\PSoC4/cyfitter_cfg.c **** 	/* CYDEV_CLK_DIVIDER_A01 Starting address: CYDEV_CLK_DIVIDER_A01 */
 225:.\Generated_Source\PSoC4/cyfitter_cfg.c **** 	CY_SET_XTND_REG32((void CYFAR *)(CYREG_CLK_DIVIDER_A01), 0x80000002u);
 312              		.loc 1 225 0
 313 0076 194B     		ldr	r3, .L10+68
 314 0078 194A     		ldr	r2, .L10+72
 315 007a 1A60     		str	r2, [r3]
 226:.\Generated_Source\PSoC4/cyfitter_cfg.c **** 
 227:.\Generated_Source\PSoC4/cyfitter_cfg.c **** 	/* CYDEV_CLK_DIVIDER_B01 Starting address: CYDEV_CLK_DIVIDER_B01 */
 228:.\Generated_Source\PSoC4/cyfitter_cfg.c **** 	CY_SET_XTND_REG32((void CYFAR *)(CYREG_CLK_DIVIDER_B01), 0x8000000Cu);
 316              		.loc 1 228 0
 317 007c 194B     		ldr	r3, .L10+76
 318 007e 1A4A     		ldr	r2, .L10+80
 319 0080 1A60     		str	r2, [r3]
 229:.\Generated_Source\PSoC4/cyfitter_cfg.c **** 
 230:.\Generated_Source\PSoC4/cyfitter_cfg.c **** 	/* CYDEV_CLK_DIVIDER_C01 Starting address: CYDEV_CLK_DIVIDER_C01 */
 231:.\Generated_Source\PSoC4/cyfitter_cfg.c **** 	CY_SET_XTND_REG32((void CYFAR *)(CYREG_CLK_DIVIDER_C01), 0x8000000Eu);
 320              		.loc 1 231 0
 321 0082 1A4B     		ldr	r3, .L10+84
 322 0084 1A4A     		ldr	r2, .L10+88
 323 0086 1A60     		str	r2, [r3]
 232:.\Generated_Source\PSoC4/cyfitter_cfg.c **** 
 233:.\Generated_Source\PSoC4/cyfitter_cfg.c **** 	/* CYDEV_CLK_DIVIDER_A02 Starting address: CYDEV_CLK_DIVIDER_A02 */
 234:.\Generated_Source\PSoC4/cyfitter_cfg.c **** 	CY_SET_XTND_REG32((void CYFAR *)(CYREG_CLK_DIVIDER_A02), 0x80000017u);
 324              		.loc 1 234 0
 325 0088 1A4B     		ldr	r3, .L10+92
 326 008a 1B4A     		ldr	r2, .L10+96
 327 008c 1A60     		str	r2, [r3]
 235:.\Generated_Source\PSoC4/cyfitter_cfg.c **** 
 236:.\Generated_Source\PSoC4/cyfitter_cfg.c **** 	CY_SET_XTND_REG32((void CYFAR *)(CYREG_WDT_CONFIG), 0x00000000u);
 328              		.loc 1 236 0
 329 008e 1B4B     		ldr	r3, .L10+100
 330 0090 0022     		mov	r2, #0
 331 0092 1A60     		str	r2, [r3]
ARM GAS  C:\Users\Chuck\AppData\Local\Temp\ccu1suQS.s 			page 11


 237:.\Generated_Source\PSoC4/cyfitter_cfg.c **** }
 332              		.loc 1 237 0
 333 0094 BD46     		mov	sp, r7
 334              		@ sp needed
 335 0096 80BD     		pop	{r7, pc}
 336              	.L11:
 337              		.align	2
 338              	.L10:
 339 0098 00010B40 		.word	1074462976
 340 009c FFFFFBFF 		.word	-262145
 341 00a0 04010B40 		.word	1074462980
 342 00a4 06000080 		.word	-2147483642
 343 00a8 08020240 		.word	1073873416
 344 00ac 0C020240 		.word	1073873420
 345 00b0 14020240 		.word	1073873428
 346 00b4 18020240 		.word	1073873432
 347 00b8 1C020240 		.word	1073873436
 348 00bc 20020240 		.word	1073873440
 349 00c0 24020240 		.word	1073873444
 350 00c4 08010B40 		.word	1074462984
 351 00c8 00000240 		.word	1073872896
 352 00cc FE000080 		.word	-2147483394
 353 00d0 40000240 		.word	1073872960
 354 00d4 FE0000C0 		.word	-1073741570
 355 00d8 80000240 		.word	1073873024
 356 00dc 04000240 		.word	1073872900
 357 00e0 02000080 		.word	-2147483646
 358 00e4 44000240 		.word	1073872964
 359 00e8 0C000080 		.word	-2147483636
 360 00ec 84000240 		.word	1073873028
 361 00f0 0E000080 		.word	-2147483634
 362 00f4 08000240 		.word	1073872904
 363 00f8 17000080 		.word	-2147483625
 364 00fc 0C020B40 		.word	1074463244
 365              		.cfi_endproc
 366              	.LFE4:
 367              		.size	ClockSetup, .-ClockSetup
 368              		.section	.text.AnalogSetDefault,"ax",%progbits
 369              		.align	2
 370              		.code	16
 371              		.thumb_func
 372              		.type	AnalogSetDefault, %function
 373              	AnalogSetDefault:
 374              	.LFB5:
 238:.\Generated_Source\PSoC4/cyfitter_cfg.c **** 
 239:.\Generated_Source\PSoC4/cyfitter_cfg.c **** 
 240:.\Generated_Source\PSoC4/cyfitter_cfg.c **** /* Analog API Functions */
 241:.\Generated_Source\PSoC4/cyfitter_cfg.c **** 
 242:.\Generated_Source\PSoC4/cyfitter_cfg.c **** 
 243:.\Generated_Source\PSoC4/cyfitter_cfg.c **** /*******************************************************************************
 244:.\Generated_Source\PSoC4/cyfitter_cfg.c **** * Function Name: AnalogSetDefault
 245:.\Generated_Source\PSoC4/cyfitter_cfg.c **** ********************************************************************************
 246:.\Generated_Source\PSoC4/cyfitter_cfg.c **** *
 247:.\Generated_Source\PSoC4/cyfitter_cfg.c **** * Summary:
 248:.\Generated_Source\PSoC4/cyfitter_cfg.c **** *  Sets up the analog portions of the chip to default values based on chip
 249:.\Generated_Source\PSoC4/cyfitter_cfg.c **** *  configuration options from the project.
 250:.\Generated_Source\PSoC4/cyfitter_cfg.c **** *
ARM GAS  C:\Users\Chuck\AppData\Local\Temp\ccu1suQS.s 			page 12


 251:.\Generated_Source\PSoC4/cyfitter_cfg.c **** * Parameters:
 252:.\Generated_Source\PSoC4/cyfitter_cfg.c **** *  void
 253:.\Generated_Source\PSoC4/cyfitter_cfg.c **** *
 254:.\Generated_Source\PSoC4/cyfitter_cfg.c **** * Return:
 255:.\Generated_Source\PSoC4/cyfitter_cfg.c **** *  void
 256:.\Generated_Source\PSoC4/cyfitter_cfg.c **** *
 257:.\Generated_Source\PSoC4/cyfitter_cfg.c **** *******************************************************************************/
 258:.\Generated_Source\PSoC4/cyfitter_cfg.c **** static void AnalogSetDefault(void);
 259:.\Generated_Source\PSoC4/cyfitter_cfg.c **** static void AnalogSetDefault(void)
 260:.\Generated_Source\PSoC4/cyfitter_cfg.c **** {
 375              		.loc 1 260 0
 376              		.cfi_startproc
 377 0000 80B5     		push	{r7, lr}
 378              		.cfi_def_cfa_offset 8
 379              		.cfi_offset 7, -8
 380              		.cfi_offset 14, -4
 381 0002 00AF     		add	r7, sp, #0
 382              		.cfi_def_cfa_register 7
 261:.\Generated_Source\PSoC4/cyfitter_cfg.c **** 	CY_SET_XTND_REG32((void CYFAR *)CYREG_CTBM_OA0_SW, 0x00240104u);
 383              		.loc 1 261 0
 384 0004 084B     		ldr	r3, .L13
 385 0006 094A     		ldr	r2, .L13+4
 386 0008 1A60     		str	r2, [r3]
 262:.\Generated_Source\PSoC4/cyfitter_cfg.c **** 	CY_SET_XTND_REG32((void CYFAR *)CYREG_CTBM_CTB_SW_HW_CTRL, 0x00000004u);
 387              		.loc 1 262 0
 388 000a 094B     		ldr	r3, .L13+8
 389 000c 0422     		mov	r2, #4
 390 000e 1A60     		str	r2, [r3]
 263:.\Generated_Source\PSoC4/cyfitter_cfg.c **** 	CY_SET_XTND_REG32((void CYFAR *)CYREG_SAR_MUX_SWITCH0, 0x004000C0u);
 391              		.loc 1 263 0
 392 0010 084B     		ldr	r3, .L13+12
 393 0012 094A     		ldr	r2, .L13+16
 394 0014 1A60     		str	r2, [r3]
 264:.\Generated_Source\PSoC4/cyfitter_cfg.c **** 	CY_SET_XTND_REG32((void CYFAR *)CYREG_SAR_MUX_SWITCH_HW_CTRL, 0x004000C0u);
 395              		.loc 1 264 0
 396 0016 094B     		ldr	r3, .L13+20
 397 0018 074A     		ldr	r2, .L13+16
 398 001a 1A60     		str	r2, [r3]
 265:.\Generated_Source\PSoC4/cyfitter_cfg.c **** 	SetAnalogRoutingPumps(1);
 399              		.loc 1 265 0
 400 001c 0120     		mov	r0, #1
 401 001e FFF7FEFF 		bl	SetAnalogRoutingPumps
 266:.\Generated_Source\PSoC4/cyfitter_cfg.c **** }
 402              		.loc 1 266 0
 403 0022 BD46     		mov	sp, r7
 404              		@ sp needed
 405 0024 80BD     		pop	{r7, pc}
 406              	.L14:
 407 0026 C046     		.align	2
 408              	.L13:
 409 0028 80001040 		.word	1074790528
 410 002c 04012400 		.word	2359556
 411 0030 C0001040 		.word	1074790592
 412 0034 00031A40 		.word	1075446528
 413 0038 C0004000 		.word	4194496
 414 003c 40031A40 		.word	1075446592
 415              		.cfi_endproc
ARM GAS  C:\Users\Chuck\AppData\Local\Temp\ccu1suQS.s 			page 13


 416              	.LFE5:
 417              		.size	AnalogSetDefault, .-AnalogSetDefault
 418              		.section	.text.SetAnalogRoutingPumps,"ax",%progbits
 419              		.align	2
 420              		.global	SetAnalogRoutingPumps
 421              		.code	16
 422              		.thumb_func
 423              		.type	SetAnalogRoutingPumps, %function
 424              	SetAnalogRoutingPumps:
 425              	.LFB6:
 267:.\Generated_Source\PSoC4/cyfitter_cfg.c **** 
 268:.\Generated_Source\PSoC4/cyfitter_cfg.c **** 
 269:.\Generated_Source\PSoC4/cyfitter_cfg.c **** /*******************************************************************************
 270:.\Generated_Source\PSoC4/cyfitter_cfg.c **** * Function Name: SetAnalogRoutingPumps
 271:.\Generated_Source\PSoC4/cyfitter_cfg.c **** ********************************************************************************
 272:.\Generated_Source\PSoC4/cyfitter_cfg.c **** *
 273:.\Generated_Source\PSoC4/cyfitter_cfg.c **** * Summary:
 274:.\Generated_Source\PSoC4/cyfitter_cfg.c **** * Enables or disables the analog pumps feeding analog routing switches.
 275:.\Generated_Source\PSoC4/cyfitter_cfg.c **** * Intended to be called at startup, based on the Vdda system configuration;
 276:.\Generated_Source\PSoC4/cyfitter_cfg.c **** * may be called during operation when the user informs us that the Vdda voltage crossed the pump th
 277:.\Generated_Source\PSoC4/cyfitter_cfg.c **** *
 278:.\Generated_Source\PSoC4/cyfitter_cfg.c **** * Parameters:
 279:.\Generated_Source\PSoC4/cyfitter_cfg.c **** *  enabled - 1 to enable the pumps, 0 to disable the pumps
 280:.\Generated_Source\PSoC4/cyfitter_cfg.c **** *
 281:.\Generated_Source\PSoC4/cyfitter_cfg.c **** * Return:
 282:.\Generated_Source\PSoC4/cyfitter_cfg.c **** *  void
 283:.\Generated_Source\PSoC4/cyfitter_cfg.c **** *
 284:.\Generated_Source\PSoC4/cyfitter_cfg.c **** *******************************************************************************/
 285:.\Generated_Source\PSoC4/cyfitter_cfg.c **** void SetAnalogRoutingPumps(uint8 enabled)
 286:.\Generated_Source\PSoC4/cyfitter_cfg.c **** {
 426              		.loc 1 286 0
 427              		.cfi_startproc
 428 0000 80B5     		push	{r7, lr}
 429              		.cfi_def_cfa_offset 8
 430              		.cfi_offset 7, -8
 431              		.cfi_offset 14, -4
 432 0002 84B0     		sub	sp, sp, #16
 433              		.cfi_def_cfa_offset 24
 434 0004 00AF     		add	r7, sp, #0
 435              		.cfi_def_cfa_register 7
 436 0006 021C     		mov	r2, r0
 437 0008 FB1D     		add	r3, r7, #7
 438 000a 1A70     		strb	r2, [r3]
 287:.\Generated_Source\PSoC4/cyfitter_cfg.c **** 	uint32 regValue = CY_GET_XTND_REG32((void *)(CYREG_SAR_PUMP_CTRL));
 439              		.loc 1 287 0
 440 000c 0B4B     		ldr	r3, .L18
 441 000e 1B68     		ldr	r3, [r3]
 442 0010 FB60     		str	r3, [r7, #12]
 288:.\Generated_Source\PSoC4/cyfitter_cfg.c **** 	if (enabled != 0u)
 443              		.loc 1 288 0
 444 0012 FB1D     		add	r3, r7, #7
 445 0014 1B78     		ldrb	r3, [r3]
 446 0016 002B     		cmp	r3, #0
 447 0018 05D0     		beq	.L16
 289:.\Generated_Source\PSoC4/cyfitter_cfg.c **** 	{
 290:.\Generated_Source\PSoC4/cyfitter_cfg.c **** 		regValue |= 0x80000000u;
 448              		.loc 1 290 0
ARM GAS  C:\Users\Chuck\AppData\Local\Temp\ccu1suQS.s 			page 14


 449 001a FB68     		ldr	r3, [r7, #12]
 450 001c 8022     		mov	r2, #128
 451 001e 1206     		lsl	r2, r2, #24
 452 0020 1343     		orr	r3, r2
 453 0022 FB60     		str	r3, [r7, #12]
 454 0024 03E0     		b	.L17
 455              	.L16:
 291:.\Generated_Source\PSoC4/cyfitter_cfg.c **** 	}
 292:.\Generated_Source\PSoC4/cyfitter_cfg.c **** 	else
 293:.\Generated_Source\PSoC4/cyfitter_cfg.c **** 	{
 294:.\Generated_Source\PSoC4/cyfitter_cfg.c **** 		regValue &= ~0x80000000u;
 456              		.loc 1 294 0
 457 0026 FB68     		ldr	r3, [r7, #12]
 458 0028 5B00     		lsl	r3, r3, #1
 459 002a 5B08     		lsr	r3, r3, #1
 460 002c FB60     		str	r3, [r7, #12]
 461              	.L17:
 295:.\Generated_Source\PSoC4/cyfitter_cfg.c **** 	}
 296:.\Generated_Source\PSoC4/cyfitter_cfg.c **** 	CY_SET_XTND_REG32((void *)(CYREG_SAR_PUMP_CTRL), regValue);
 462              		.loc 1 296 0
 463 002e 034B     		ldr	r3, .L18
 464 0030 FA68     		ldr	r2, [r7, #12]
 465 0032 1A60     		str	r2, [r3]
 297:.\Generated_Source\PSoC4/cyfitter_cfg.c **** }
 466              		.loc 1 297 0
 467 0034 BD46     		mov	sp, r7
 468 0036 04B0     		add	sp, sp, #16
 469              		@ sp needed
 470 0038 80BD     		pop	{r7, pc}
 471              	.L19:
 472 003a C046     		.align	2
 473              	.L18:
 474 003c 80031A40 		.word	1075446656
 475              		.cfi_endproc
 476              	.LFE6:
 477              		.size	SetAnalogRoutingPumps, .-SetAnalogRoutingPumps
 478              		.section	.psocinit
 479              		.align	2
 480              		.global	cyfitter_cfg
 481              		.code	16
 482              		.thumb_func
 483              		.type	cyfitter_cfg, %function
 484              	cyfitter_cfg:
 485              	.LFB7:
 298:.\Generated_Source\PSoC4/cyfitter_cfg.c **** 
 299:.\Generated_Source\PSoC4/cyfitter_cfg.c **** #define CY_AMUX_UNUSED CYREG_CM0_ROM_DWT
 300:.\Generated_Source\PSoC4/cyfitter_cfg.c **** 
 301:.\Generated_Source\PSoC4/cyfitter_cfg.c **** 
 302:.\Generated_Source\PSoC4/cyfitter_cfg.c **** /*******************************************************************************
 303:.\Generated_Source\PSoC4/cyfitter_cfg.c **** * Function Name: cyfitter_cfg
 304:.\Generated_Source\PSoC4/cyfitter_cfg.c **** ********************************************************************************
 305:.\Generated_Source\PSoC4/cyfitter_cfg.c **** * Summary:
 306:.\Generated_Source\PSoC4/cyfitter_cfg.c **** *  This function is called by the start-up code for the selected device. It
 307:.\Generated_Source\PSoC4/cyfitter_cfg.c **** *  performs all of the necessary device configuration based on the design
 308:.\Generated_Source\PSoC4/cyfitter_cfg.c **** *  settings.  This includes settings from the Design Wide Resources (DWR) such
 309:.\Generated_Source\PSoC4/cyfitter_cfg.c **** *  as Clocks and Pins as well as any component configuration that is necessary.
 310:.\Generated_Source\PSoC4/cyfitter_cfg.c **** *
ARM GAS  C:\Users\Chuck\AppData\Local\Temp\ccu1suQS.s 			page 15


 311:.\Generated_Source\PSoC4/cyfitter_cfg.c **** * Parameters:  
 312:.\Generated_Source\PSoC4/cyfitter_cfg.c **** *   void
 313:.\Generated_Source\PSoC4/cyfitter_cfg.c **** *
 314:.\Generated_Source\PSoC4/cyfitter_cfg.c **** * Return:
 315:.\Generated_Source\PSoC4/cyfitter_cfg.c **** *   void
 316:.\Generated_Source\PSoC4/cyfitter_cfg.c **** *
 317:.\Generated_Source\PSoC4/cyfitter_cfg.c **** *******************************************************************************/
 318:.\Generated_Source\PSoC4/cyfitter_cfg.c **** CY_CFG_SECTION
 319:.\Generated_Source\PSoC4/cyfitter_cfg.c **** void cyfitter_cfg(void)
 320:.\Generated_Source\PSoC4/cyfitter_cfg.c **** {
 486              		.loc 1 320 0
 487              		.cfi_startproc
 488 0100 80B5     		push	{r7, lr}
 489              		.cfi_def_cfa_offset 8
 490              		.cfi_offset 7, -8
 491              		.cfi_offset 14, -4
 492 0102 82B0     		sub	sp, sp, #8
 493              		.cfi_def_cfa_offset 16
 494 0104 00AF     		add	r7, sp, #0
 495              		.cfi_def_cfa_register 7
 321:.\Generated_Source\PSoC4/cyfitter_cfg.c **** 	/* Disable interrupts by default. Let user enable if/when they want. */
 322:.\Generated_Source\PSoC4/cyfitter_cfg.c **** 	CyGlobalIntDisable;
 496              		.loc 1 322 0
 497              	@ 322 ".\Generated_Source\PSoC4\cyfitter_cfg.c" 1
 498 0106 72B6     		CPSID   i
 499              	@ 0 "" 2
 500              		.code	16
 501              	.LBB3:
 323:.\Generated_Source\PSoC4/cyfitter_cfg.c **** 
 324:.\Generated_Source\PSoC4/cyfitter_cfg.c **** 	{
 325:.\Generated_Source\PSoC4/cyfitter_cfg.c **** 		static const uint32 CYCODE cy_cfg_addr_table[] = {
 326:.\Generated_Source\PSoC4/cyfitter_cfg.c **** 			0x400F0001u, /* Base address: 0x400F0000 Count: 1 */
 327:.\Generated_Source\PSoC4/cyfitter_cfg.c **** 			0x400F3070u, /* Base address: 0x400F3000 Count: 112 */
 328:.\Generated_Source\PSoC4/cyfitter_cfg.c **** 			0x400F312Cu, /* Base address: 0x400F3100 Count: 44 */
 329:.\Generated_Source\PSoC4/cyfitter_cfg.c **** 			0x400F3261u, /* Base address: 0x400F3200 Count: 97 */
 330:.\Generated_Source\PSoC4/cyfitter_cfg.c **** 			0x400F333Du, /* Base address: 0x400F3300 Count: 61 */
 331:.\Generated_Source\PSoC4/cyfitter_cfg.c **** 			0x400F4106u, /* Base address: 0x400F4100 Count: 6 */
 332:.\Generated_Source\PSoC4/cyfitter_cfg.c **** 			0x400F420Du, /* Base address: 0x400F4200 Count: 13 */
 333:.\Generated_Source\PSoC4/cyfitter_cfg.c **** 			0x400F4314u, /* Base address: 0x400F4300 Count: 20 */
 334:.\Generated_Source\PSoC4/cyfitter_cfg.c **** 			0x400F6002u, /* Base address: 0x400F6000 Count: 2 */
 335:.\Generated_Source\PSoC4/cyfitter_cfg.c **** 		};
 336:.\Generated_Source\PSoC4/cyfitter_cfg.c **** 
 337:.\Generated_Source\PSoC4/cyfitter_cfg.c **** 		static const cy_cfg_addrvalue_t CYCODE cy_cfg_data_table[] = {
 338:.\Generated_Source\PSoC4/cyfitter_cfg.c **** 			{0x83u, 0x6Fu},
 339:.\Generated_Source\PSoC4/cyfitter_cfg.c **** 			{0x01u, 0x05u},
 340:.\Generated_Source\PSoC4/cyfitter_cfg.c **** 			{0x03u, 0x1Au},
 341:.\Generated_Source\PSoC4/cyfitter_cfg.c **** 			{0x04u, 0x54u},
 342:.\Generated_Source\PSoC4/cyfitter_cfg.c **** 			{0x05u, 0x03u},
 343:.\Generated_Source\PSoC4/cyfitter_cfg.c **** 			{0x06u, 0xA8u},
 344:.\Generated_Source\PSoC4/cyfitter_cfg.c **** 			{0x07u, 0x4Cu},
 345:.\Generated_Source\PSoC4/cyfitter_cfg.c **** 			{0x08u, 0xC2u},
 346:.\Generated_Source\PSoC4/cyfitter_cfg.c **** 			{0x09u, 0x03u},
 347:.\Generated_Source\PSoC4/cyfitter_cfg.c **** 			{0x0Au, 0x31u},
 348:.\Generated_Source\PSoC4/cyfitter_cfg.c **** 			{0x0Bu, 0x0Cu},
 349:.\Generated_Source\PSoC4/cyfitter_cfg.c **** 			{0x0Cu, 0x54u},
 350:.\Generated_Source\PSoC4/cyfitter_cfg.c **** 			{0x0Du, 0x50u},
 351:.\Generated_Source\PSoC4/cyfitter_cfg.c **** 			{0x0Eu, 0xA8u},
ARM GAS  C:\Users\Chuck\AppData\Local\Temp\ccu1suQS.s 			page 16


 352:.\Generated_Source\PSoC4/cyfitter_cfg.c **** 			{0x0Fu, 0xA0u},
 353:.\Generated_Source\PSoC4/cyfitter_cfg.c **** 			{0x18u, 0x31u},
 354:.\Generated_Source\PSoC4/cyfitter_cfg.c **** 			{0x19u, 0x0Au},
 355:.\Generated_Source\PSoC4/cyfitter_cfg.c **** 			{0x1Au, 0xC2u},
 356:.\Generated_Source\PSoC4/cyfitter_cfg.c **** 			{0x1Bu, 0x05u},
 357:.\Generated_Source\PSoC4/cyfitter_cfg.c **** 			{0x23u, 0x20u},
 358:.\Generated_Source\PSoC4/cyfitter_cfg.c **** 			{0x28u, 0x0Fu},
 359:.\Generated_Source\PSoC4/cyfitter_cfg.c **** 			{0x2Bu, 0x80u},
 360:.\Generated_Source\PSoC4/cyfitter_cfg.c **** 			{0x2Eu, 0xF0u},
 361:.\Generated_Source\PSoC4/cyfitter_cfg.c **** 			{0x31u, 0x30u},
 362:.\Generated_Source\PSoC4/cyfitter_cfg.c **** 			{0x33u, 0x0Fu},
 363:.\Generated_Source\PSoC4/cyfitter_cfg.c **** 			{0x35u, 0xC0u},
 364:.\Generated_Source\PSoC4/cyfitter_cfg.c **** 			{0x36u, 0xFFu},
 365:.\Generated_Source\PSoC4/cyfitter_cfg.c **** 			{0x38u, 0x80u},
 366:.\Generated_Source\PSoC4/cyfitter_cfg.c **** 			{0x3Au, 0x03u},
 367:.\Generated_Source\PSoC4/cyfitter_cfg.c **** 			{0x3Eu, 0x40u},
 368:.\Generated_Source\PSoC4/cyfitter_cfg.c **** 			{0x40u, 0x40u},
 369:.\Generated_Source\PSoC4/cyfitter_cfg.c **** 			{0x41u, 0x01u},
 370:.\Generated_Source\PSoC4/cyfitter_cfg.c **** 			{0x49u, 0xFFu},
 371:.\Generated_Source\PSoC4/cyfitter_cfg.c **** 			{0x4Au, 0xFFu},
 372:.\Generated_Source\PSoC4/cyfitter_cfg.c **** 			{0x4Bu, 0xFFu},
 373:.\Generated_Source\PSoC4/cyfitter_cfg.c **** 			{0x4Du, 0xA0u},
 374:.\Generated_Source\PSoC4/cyfitter_cfg.c **** 			{0x4Fu, 0x01u},
 375:.\Generated_Source\PSoC4/cyfitter_cfg.c **** 			{0x50u, 0x18u},
 376:.\Generated_Source\PSoC4/cyfitter_cfg.c **** 			{0x58u, 0x04u},
 377:.\Generated_Source\PSoC4/cyfitter_cfg.c **** 			{0x59u, 0x04u},
 378:.\Generated_Source\PSoC4/cyfitter_cfg.c **** 			{0x5Au, 0x04u},
 379:.\Generated_Source\PSoC4/cyfitter_cfg.c **** 			{0x5Cu, 0x99u},
 380:.\Generated_Source\PSoC4/cyfitter_cfg.c **** 			{0x5Du, 0x09u},
 381:.\Generated_Source\PSoC4/cyfitter_cfg.c **** 			{0x5Fu, 0x01u},
 382:.\Generated_Source\PSoC4/cyfitter_cfg.c **** 			{0x60u, 0x40u},
 383:.\Generated_Source\PSoC4/cyfitter_cfg.c **** 			{0x62u, 0x80u},
 384:.\Generated_Source\PSoC4/cyfitter_cfg.c **** 			{0x64u, 0x40u},
 385:.\Generated_Source\PSoC4/cyfitter_cfg.c **** 			{0x65u, 0x40u},
 386:.\Generated_Source\PSoC4/cyfitter_cfg.c **** 			{0x66u, 0x80u},
 387:.\Generated_Source\PSoC4/cyfitter_cfg.c **** 			{0x68u, 0x40u},
 388:.\Generated_Source\PSoC4/cyfitter_cfg.c **** 			{0x6Au, 0x80u},
 389:.\Generated_Source\PSoC4/cyfitter_cfg.c **** 			{0x6Cu, 0x40u},
 390:.\Generated_Source\PSoC4/cyfitter_cfg.c **** 			{0x6Du, 0x20u},
 391:.\Generated_Source\PSoC4/cyfitter_cfg.c **** 			{0x6Eu, 0x80u},
 392:.\Generated_Source\PSoC4/cyfitter_cfg.c **** 			{0x82u, 0x03u},
 393:.\Generated_Source\PSoC4/cyfitter_cfg.c **** 			{0x84u, 0x01u},
 394:.\Generated_Source\PSoC4/cyfitter_cfg.c **** 			{0x85u, 0x5Au},
 395:.\Generated_Source\PSoC4/cyfitter_cfg.c **** 			{0x86u, 0x02u},
 396:.\Generated_Source\PSoC4/cyfitter_cfg.c **** 			{0x87u, 0xA5u},
 397:.\Generated_Source\PSoC4/cyfitter_cfg.c **** 			{0x88u, 0x30u},
 398:.\Generated_Source\PSoC4/cyfitter_cfg.c **** 			{0x89u, 0xC3u},
 399:.\Generated_Source\PSoC4/cyfitter_cfg.c **** 			{0x8Au, 0x0Cu},
 400:.\Generated_Source\PSoC4/cyfitter_cfg.c **** 			{0x8Bu, 0x3Cu},
 401:.\Generated_Source\PSoC4/cyfitter_cfg.c **** 			{0x8Cu, 0x3Cu},
 402:.\Generated_Source\PSoC4/cyfitter_cfg.c **** 			{0x8Du, 0x55u},
 403:.\Generated_Source\PSoC4/cyfitter_cfg.c **** 			{0x8Fu, 0xAAu},
 404:.\Generated_Source\PSoC4/cyfitter_cfg.c **** 			{0x95u, 0x0Fu},
 405:.\Generated_Source\PSoC4/cyfitter_cfg.c **** 			{0x98u, 0x14u},
 406:.\Generated_Source\PSoC4/cyfitter_cfg.c **** 			{0x9Au, 0x28u},
 407:.\Generated_Source\PSoC4/cyfitter_cfg.c **** 			{0x9Cu, 0x02u},
 408:.\Generated_Source\PSoC4/cyfitter_cfg.c **** 			{0x9Eu, 0x01u},
ARM GAS  C:\Users\Chuck\AppData\Local\Temp\ccu1suQS.s 			page 17


 409:.\Generated_Source\PSoC4/cyfitter_cfg.c **** 			{0xA0u, 0x14u},
 410:.\Generated_Source\PSoC4/cyfitter_cfg.c **** 			{0xA2u, 0x68u},
 411:.\Generated_Source\PSoC4/cyfitter_cfg.c **** 			{0xA4u, 0x0Cu},
 412:.\Generated_Source\PSoC4/cyfitter_cfg.c **** 			{0xA6u, 0xB0u},
 413:.\Generated_Source\PSoC4/cyfitter_cfg.c **** 			{0xA9u, 0x33u},
 414:.\Generated_Source\PSoC4/cyfitter_cfg.c **** 			{0xABu, 0xCCu},
 415:.\Generated_Source\PSoC4/cyfitter_cfg.c **** 			{0xB0u, 0x03u},
 416:.\Generated_Source\PSoC4/cyfitter_cfg.c **** 			{0xB2u, 0x80u},
 417:.\Generated_Source\PSoC4/cyfitter_cfg.c **** 			{0xB3u, 0x0Fu},
 418:.\Generated_Source\PSoC4/cyfitter_cfg.c **** 			{0xB4u, 0x40u},
 419:.\Generated_Source\PSoC4/cyfitter_cfg.c **** 			{0xB6u, 0x3Cu},
 420:.\Generated_Source\PSoC4/cyfitter_cfg.c **** 			{0xB7u, 0xF0u},
 421:.\Generated_Source\PSoC4/cyfitter_cfg.c **** 			{0xB9u, 0x20u},
 422:.\Generated_Source\PSoC4/cyfitter_cfg.c **** 			{0xBEu, 0x01u},
 423:.\Generated_Source\PSoC4/cyfitter_cfg.c **** 			{0xBFu, 0x10u},
 424:.\Generated_Source\PSoC4/cyfitter_cfg.c **** 			{0xC0u, 0x40u},
 425:.\Generated_Source\PSoC4/cyfitter_cfg.c **** 			{0xC1u, 0x05u},
 426:.\Generated_Source\PSoC4/cyfitter_cfg.c **** 			{0xC9u, 0xFFu},
 427:.\Generated_Source\PSoC4/cyfitter_cfg.c **** 			{0xCAu, 0xFFu},
 428:.\Generated_Source\PSoC4/cyfitter_cfg.c **** 			{0xCBu, 0xFFu},
 429:.\Generated_Source\PSoC4/cyfitter_cfg.c **** 			{0xCDu, 0xAFu},
 430:.\Generated_Source\PSoC4/cyfitter_cfg.c **** 			{0xCEu, 0x07u},
 431:.\Generated_Source\PSoC4/cyfitter_cfg.c **** 			{0xCFu, 0x01u},
 432:.\Generated_Source\PSoC4/cyfitter_cfg.c **** 			{0xD0u, 0x18u},
 433:.\Generated_Source\PSoC4/cyfitter_cfg.c **** 			{0xD2u, 0x80u},
 434:.\Generated_Source\PSoC4/cyfitter_cfg.c **** 			{0xD8u, 0x04u},
 435:.\Generated_Source\PSoC4/cyfitter_cfg.c **** 			{0xD9u, 0x04u},
 436:.\Generated_Source\PSoC4/cyfitter_cfg.c **** 			{0xDAu, 0x04u},
 437:.\Generated_Source\PSoC4/cyfitter_cfg.c **** 			{0xDBu, 0x04u},
 438:.\Generated_Source\PSoC4/cyfitter_cfg.c **** 			{0xDCu, 0x99u},
 439:.\Generated_Source\PSoC4/cyfitter_cfg.c **** 			{0xDDu, 0x99u},
 440:.\Generated_Source\PSoC4/cyfitter_cfg.c **** 			{0xDFu, 0x01u},
 441:.\Generated_Source\PSoC4/cyfitter_cfg.c **** 			{0xE0u, 0x40u},
 442:.\Generated_Source\PSoC4/cyfitter_cfg.c **** 			{0xE2u, 0x80u},
 443:.\Generated_Source\PSoC4/cyfitter_cfg.c **** 			{0xE4u, 0x40u},
 444:.\Generated_Source\PSoC4/cyfitter_cfg.c **** 			{0xE5u, 0x40u},
 445:.\Generated_Source\PSoC4/cyfitter_cfg.c **** 			{0xE6u, 0x80u},
 446:.\Generated_Source\PSoC4/cyfitter_cfg.c **** 			{0xE8u, 0x40u},
 447:.\Generated_Source\PSoC4/cyfitter_cfg.c **** 			{0xEAu, 0x80u},
 448:.\Generated_Source\PSoC4/cyfitter_cfg.c **** 			{0xECu, 0x40u},
 449:.\Generated_Source\PSoC4/cyfitter_cfg.c **** 			{0xEDu, 0x20u},
 450:.\Generated_Source\PSoC4/cyfitter_cfg.c **** 			{0xEEu, 0x80u},
 451:.\Generated_Source\PSoC4/cyfitter_cfg.c **** 			{0x00u, 0x98u},
 452:.\Generated_Source\PSoC4/cyfitter_cfg.c **** 			{0x04u, 0x10u},
 453:.\Generated_Source\PSoC4/cyfitter_cfg.c **** 			{0x06u, 0x80u},
 454:.\Generated_Source\PSoC4/cyfitter_cfg.c **** 			{0x07u, 0x22u},
 455:.\Generated_Source\PSoC4/cyfitter_cfg.c **** 			{0x09u, 0x20u},
 456:.\Generated_Source\PSoC4/cyfitter_cfg.c **** 			{0x0Bu, 0x08u},
 457:.\Generated_Source\PSoC4/cyfitter_cfg.c **** 			{0x0Eu, 0x0Au},
 458:.\Generated_Source\PSoC4/cyfitter_cfg.c **** 			{0x11u, 0x80u},
 459:.\Generated_Source\PSoC4/cyfitter_cfg.c **** 			{0x12u, 0x08u},
 460:.\Generated_Source\PSoC4/cyfitter_cfg.c **** 			{0x15u, 0x02u},
 461:.\Generated_Source\PSoC4/cyfitter_cfg.c **** 			{0x17u, 0x08u},
 462:.\Generated_Source\PSoC4/cyfitter_cfg.c **** 			{0x18u, 0x81u},
 463:.\Generated_Source\PSoC4/cyfitter_cfg.c **** 			{0x19u, 0x80u},
 464:.\Generated_Source\PSoC4/cyfitter_cfg.c **** 			{0x1Bu, 0x40u},
 465:.\Generated_Source\PSoC4/cyfitter_cfg.c **** 			{0x1Cu, 0x58u},
ARM GAS  C:\Users\Chuck\AppData\Local\Temp\ccu1suQS.s 			page 18


 466:.\Generated_Source\PSoC4/cyfitter_cfg.c **** 			{0x1Du, 0x12u},
 467:.\Generated_Source\PSoC4/cyfitter_cfg.c **** 			{0x1Eu, 0x0Au},
 468:.\Generated_Source\PSoC4/cyfitter_cfg.c **** 			{0x20u, 0x84u},
 469:.\Generated_Source\PSoC4/cyfitter_cfg.c **** 			{0x21u, 0x21u},
 470:.\Generated_Source\PSoC4/cyfitter_cfg.c **** 			{0x22u, 0x08u},
 471:.\Generated_Source\PSoC4/cyfitter_cfg.c **** 			{0x23u, 0x08u},
 472:.\Generated_Source\PSoC4/cyfitter_cfg.c **** 			{0x25u, 0x40u},
 473:.\Generated_Source\PSoC4/cyfitter_cfg.c **** 			{0x26u, 0x10u},
 474:.\Generated_Source\PSoC4/cyfitter_cfg.c **** 			{0x27u, 0x22u},
 475:.\Generated_Source\PSoC4/cyfitter_cfg.c **** 			{0x28u, 0x08u},
 476:.\Generated_Source\PSoC4/cyfitter_cfg.c **** 			{0x29u, 0x01u},
 477:.\Generated_Source\PSoC4/cyfitter_cfg.c **** 			{0x2Fu, 0x04u},
 478:.\Generated_Source\PSoC4/cyfitter_cfg.c **** 			{0x31u, 0x10u},
 479:.\Generated_Source\PSoC4/cyfitter_cfg.c **** 			{0x36u, 0x08u},
 480:.\Generated_Source\PSoC4/cyfitter_cfg.c **** 			{0x38u, 0x94u},
 481:.\Generated_Source\PSoC4/cyfitter_cfg.c **** 			{0x39u, 0x02u},
 482:.\Generated_Source\PSoC4/cyfitter_cfg.c **** 			{0x3Cu, 0x98u},
 483:.\Generated_Source\PSoC4/cyfitter_cfg.c **** 			{0x40u, 0x41u},
 484:.\Generated_Source\PSoC4/cyfitter_cfg.c **** 			{0x45u, 0x02u},
 485:.\Generated_Source\PSoC4/cyfitter_cfg.c **** 			{0x4Fu, 0x80u},
 486:.\Generated_Source\PSoC4/cyfitter_cfg.c **** 			{0x76u, 0x80u},
 487:.\Generated_Source\PSoC4/cyfitter_cfg.c **** 			{0xC0u, 0xF7u},
 488:.\Generated_Source\PSoC4/cyfitter_cfg.c **** 			{0xC2u, 0xC2u},
 489:.\Generated_Source\PSoC4/cyfitter_cfg.c **** 			{0xC4u, 0x33u},
 490:.\Generated_Source\PSoC4/cyfitter_cfg.c **** 			{0xCAu, 0x25u},
 491:.\Generated_Source\PSoC4/cyfitter_cfg.c **** 			{0xCCu, 0x44u},
 492:.\Generated_Source\PSoC4/cyfitter_cfg.c **** 			{0xCEu, 0x7Fu},
 493:.\Generated_Source\PSoC4/cyfitter_cfg.c **** 			{0xD0u, 0x89u},
 494:.\Generated_Source\PSoC4/cyfitter_cfg.c **** 			{0xD2u, 0x10u},
 495:.\Generated_Source\PSoC4/cyfitter_cfg.c **** 			{0x09u, 0x01u},
 496:.\Generated_Source\PSoC4/cyfitter_cfg.c **** 			{0x12u, 0x01u},
 497:.\Generated_Source\PSoC4/cyfitter_cfg.c **** 			{0x14u, 0x01u},
 498:.\Generated_Source\PSoC4/cyfitter_cfg.c **** 			{0x1Au, 0x01u},
 499:.\Generated_Source\PSoC4/cyfitter_cfg.c **** 			{0x1Du, 0x01u},
 500:.\Generated_Source\PSoC4/cyfitter_cfg.c **** 			{0x27u, 0x01u},
 501:.\Generated_Source\PSoC4/cyfitter_cfg.c **** 			{0x30u, 0x01u},
 502:.\Generated_Source\PSoC4/cyfitter_cfg.c **** 			{0x31u, 0x01u},
 503:.\Generated_Source\PSoC4/cyfitter_cfg.c **** 			{0x3Au, 0x02u},
 504:.\Generated_Source\PSoC4/cyfitter_cfg.c **** 			{0x3Bu, 0x02u},
 505:.\Generated_Source\PSoC4/cyfitter_cfg.c **** 			{0x40u, 0x40u},
 506:.\Generated_Source\PSoC4/cyfitter_cfg.c **** 			{0x41u, 0x05u},
 507:.\Generated_Source\PSoC4/cyfitter_cfg.c **** 			{0x49u, 0xFFu},
 508:.\Generated_Source\PSoC4/cyfitter_cfg.c **** 			{0x4Au, 0xFFu},
 509:.\Generated_Source\PSoC4/cyfitter_cfg.c **** 			{0x4Bu, 0xFFu},
 510:.\Generated_Source\PSoC4/cyfitter_cfg.c **** 			{0x4Du, 0xAFu},
 511:.\Generated_Source\PSoC4/cyfitter_cfg.c **** 			{0x4Eu, 0x07u},
 512:.\Generated_Source\PSoC4/cyfitter_cfg.c **** 			{0x4Fu, 0x01u},
 513:.\Generated_Source\PSoC4/cyfitter_cfg.c **** 			{0x50u, 0x18u},
 514:.\Generated_Source\PSoC4/cyfitter_cfg.c **** 			{0x52u, 0x06u},
 515:.\Generated_Source\PSoC4/cyfitter_cfg.c **** 			{0x53u, 0x04u},
 516:.\Generated_Source\PSoC4/cyfitter_cfg.c **** 			{0x56u, 0x10u},
 517:.\Generated_Source\PSoC4/cyfitter_cfg.c **** 			{0x58u, 0x04u},
 518:.\Generated_Source\PSoC4/cyfitter_cfg.c **** 			{0x59u, 0x04u},
 519:.\Generated_Source\PSoC4/cyfitter_cfg.c **** 			{0x5Au, 0x04u},
 520:.\Generated_Source\PSoC4/cyfitter_cfg.c **** 			{0x5Bu, 0x04u},
 521:.\Generated_Source\PSoC4/cyfitter_cfg.c **** 			{0x5Cu, 0x99u},
 522:.\Generated_Source\PSoC4/cyfitter_cfg.c **** 			{0x5Du, 0x99u},
ARM GAS  C:\Users\Chuck\AppData\Local\Temp\ccu1suQS.s 			page 19


 523:.\Generated_Source\PSoC4/cyfitter_cfg.c **** 			{0x5Fu, 0x01u},
 524:.\Generated_Source\PSoC4/cyfitter_cfg.c **** 			{0x60u, 0x40u},
 525:.\Generated_Source\PSoC4/cyfitter_cfg.c **** 			{0x62u, 0x80u},
 526:.\Generated_Source\PSoC4/cyfitter_cfg.c **** 			{0x64u, 0x40u},
 527:.\Generated_Source\PSoC4/cyfitter_cfg.c **** 			{0x65u, 0x40u},
 528:.\Generated_Source\PSoC4/cyfitter_cfg.c **** 			{0x66u, 0x80u},
 529:.\Generated_Source\PSoC4/cyfitter_cfg.c **** 			{0x68u, 0x40u},
 530:.\Generated_Source\PSoC4/cyfitter_cfg.c **** 			{0x6Au, 0x80u},
 531:.\Generated_Source\PSoC4/cyfitter_cfg.c **** 			{0x6Cu, 0x40u},
 532:.\Generated_Source\PSoC4/cyfitter_cfg.c **** 			{0x6Du, 0x20u},
 533:.\Generated_Source\PSoC4/cyfitter_cfg.c **** 			{0x6Eu, 0x80u},
 534:.\Generated_Source\PSoC4/cyfitter_cfg.c **** 			{0x86u, 0x08u},
 535:.\Generated_Source\PSoC4/cyfitter_cfg.c **** 			{0x89u, 0x02u},
 536:.\Generated_Source\PSoC4/cyfitter_cfg.c **** 			{0x8Au, 0x04u},
 537:.\Generated_Source\PSoC4/cyfitter_cfg.c **** 			{0x8Fu, 0x04u},
 538:.\Generated_Source\PSoC4/cyfitter_cfg.c **** 			{0x91u, 0x02u},
 539:.\Generated_Source\PSoC4/cyfitter_cfg.c **** 			{0x94u, 0x01u},
 540:.\Generated_Source\PSoC4/cyfitter_cfg.c **** 			{0x97u, 0x01u},
 541:.\Generated_Source\PSoC4/cyfitter_cfg.c **** 			{0x98u, 0x02u},
 542:.\Generated_Source\PSoC4/cyfitter_cfg.c **** 			{0x9Bu, 0x02u},
 543:.\Generated_Source\PSoC4/cyfitter_cfg.c **** 			{0x9Eu, 0x02u},
 544:.\Generated_Source\PSoC4/cyfitter_cfg.c **** 			{0x9Fu, 0x08u},
 545:.\Generated_Source\PSoC4/cyfitter_cfg.c **** 			{0xA1u, 0x01u},
 546:.\Generated_Source\PSoC4/cyfitter_cfg.c **** 			{0xA2u, 0x01u},
 547:.\Generated_Source\PSoC4/cyfitter_cfg.c **** 			{0xA6u, 0x04u},
 548:.\Generated_Source\PSoC4/cyfitter_cfg.c **** 			{0xA8u, 0x04u},
 549:.\Generated_Source\PSoC4/cyfitter_cfg.c **** 			{0xB0u, 0x08u},
 550:.\Generated_Source\PSoC4/cyfitter_cfg.c **** 			{0xB1u, 0x02u},
 551:.\Generated_Source\PSoC4/cyfitter_cfg.c **** 			{0xB2u, 0x04u},
 552:.\Generated_Source\PSoC4/cyfitter_cfg.c **** 			{0xB3u, 0x08u},
 553:.\Generated_Source\PSoC4/cyfitter_cfg.c **** 			{0xB4u, 0x02u},
 554:.\Generated_Source\PSoC4/cyfitter_cfg.c **** 			{0xB5u, 0x04u},
 555:.\Generated_Source\PSoC4/cyfitter_cfg.c **** 			{0xB6u, 0x01u},
 556:.\Generated_Source\PSoC4/cyfitter_cfg.c **** 			{0xB7u, 0x01u},
 557:.\Generated_Source\PSoC4/cyfitter_cfg.c **** 			{0xBAu, 0x08u},
 558:.\Generated_Source\PSoC4/cyfitter_cfg.c **** 			{0xBBu, 0x02u},
 559:.\Generated_Source\PSoC4/cyfitter_cfg.c **** 			{0xBEu, 0x50u},
 560:.\Generated_Source\PSoC4/cyfitter_cfg.c **** 			{0xBFu, 0x40u},
 561:.\Generated_Source\PSoC4/cyfitter_cfg.c **** 			{0xC0u, 0x40u},
 562:.\Generated_Source\PSoC4/cyfitter_cfg.c **** 			{0xC1u, 0x05u},
 563:.\Generated_Source\PSoC4/cyfitter_cfg.c **** 			{0xC5u, 0x52u},
 564:.\Generated_Source\PSoC4/cyfitter_cfg.c **** 			{0xC6u, 0xC3u},
 565:.\Generated_Source\PSoC4/cyfitter_cfg.c **** 			{0xC7u, 0x0Eu},
 566:.\Generated_Source\PSoC4/cyfitter_cfg.c **** 			{0xC8u, 0x1Fu},
 567:.\Generated_Source\PSoC4/cyfitter_cfg.c **** 			{0xC9u, 0xFFu},
 568:.\Generated_Source\PSoC4/cyfitter_cfg.c **** 			{0xCAu, 0xFFu},
 569:.\Generated_Source\PSoC4/cyfitter_cfg.c **** 			{0xCBu, 0xFFu},
 570:.\Generated_Source\PSoC4/cyfitter_cfg.c **** 			{0xCDu, 0xAFu},
 571:.\Generated_Source\PSoC4/cyfitter_cfg.c **** 			{0xCEu, 0x07u},
 572:.\Generated_Source\PSoC4/cyfitter_cfg.c **** 			{0xCFu, 0x01u},
 573:.\Generated_Source\PSoC4/cyfitter_cfg.c **** 			{0xD0u, 0x18u},
 574:.\Generated_Source\PSoC4/cyfitter_cfg.c **** 			{0xD4u, 0x0Fu},
 575:.\Generated_Source\PSoC4/cyfitter_cfg.c **** 			{0xD8u, 0x04u},
 576:.\Generated_Source\PSoC4/cyfitter_cfg.c **** 			{0xD9u, 0x04u},
 577:.\Generated_Source\PSoC4/cyfitter_cfg.c **** 			{0xDAu, 0x04u},
 578:.\Generated_Source\PSoC4/cyfitter_cfg.c **** 			{0xDBu, 0x04u},
 579:.\Generated_Source\PSoC4/cyfitter_cfg.c **** 			{0xDCu, 0x99u},
ARM GAS  C:\Users\Chuck\AppData\Local\Temp\ccu1suQS.s 			page 20


 580:.\Generated_Source\PSoC4/cyfitter_cfg.c **** 			{0xDDu, 0x99u},
 581:.\Generated_Source\PSoC4/cyfitter_cfg.c **** 			{0xDFu, 0x01u},
 582:.\Generated_Source\PSoC4/cyfitter_cfg.c **** 			{0xE0u, 0x40u},
 583:.\Generated_Source\PSoC4/cyfitter_cfg.c **** 			{0xE2u, 0x80u},
 584:.\Generated_Source\PSoC4/cyfitter_cfg.c **** 			{0xE4u, 0x40u},
 585:.\Generated_Source\PSoC4/cyfitter_cfg.c **** 			{0xE5u, 0x40u},
 586:.\Generated_Source\PSoC4/cyfitter_cfg.c **** 			{0xE6u, 0x80u},
 587:.\Generated_Source\PSoC4/cyfitter_cfg.c **** 			{0xE8u, 0x40u},
 588:.\Generated_Source\PSoC4/cyfitter_cfg.c **** 			{0xEAu, 0x80u},
 589:.\Generated_Source\PSoC4/cyfitter_cfg.c **** 			{0xECu, 0x40u},
 590:.\Generated_Source\PSoC4/cyfitter_cfg.c **** 			{0xEDu, 0x20u},
 591:.\Generated_Source\PSoC4/cyfitter_cfg.c **** 			{0xEEu, 0x80u},
 592:.\Generated_Source\PSoC4/cyfitter_cfg.c **** 			{0x02u, 0x20u},
 593:.\Generated_Source\PSoC4/cyfitter_cfg.c **** 			{0x03u, 0x18u},
 594:.\Generated_Source\PSoC4/cyfitter_cfg.c **** 			{0x09u, 0x80u},
 595:.\Generated_Source\PSoC4/cyfitter_cfg.c **** 			{0x0Bu, 0x14u},
 596:.\Generated_Source\PSoC4/cyfitter_cfg.c **** 			{0x0Cu, 0x28u},
 597:.\Generated_Source\PSoC4/cyfitter_cfg.c **** 			{0x0Eu, 0x80u},
 598:.\Generated_Source\PSoC4/cyfitter_cfg.c **** 			{0x10u, 0xA8u},
 599:.\Generated_Source\PSoC4/cyfitter_cfg.c **** 			{0x19u, 0x41u},
 600:.\Generated_Source\PSoC4/cyfitter_cfg.c **** 			{0x1Au, 0x08u},
 601:.\Generated_Source\PSoC4/cyfitter_cfg.c **** 			{0x1Bu, 0x08u},
 602:.\Generated_Source\PSoC4/cyfitter_cfg.c **** 			{0x1Eu, 0x80u},
 603:.\Generated_Source\PSoC4/cyfitter_cfg.c **** 			{0x22u, 0x01u},
 604:.\Generated_Source\PSoC4/cyfitter_cfg.c **** 			{0x23u, 0x16u},
 605:.\Generated_Source\PSoC4/cyfitter_cfg.c **** 			{0x27u, 0x40u},
 606:.\Generated_Source\PSoC4/cyfitter_cfg.c **** 			{0x29u, 0x01u},
 607:.\Generated_Source\PSoC4/cyfitter_cfg.c **** 			{0x2Cu, 0x20u},
 608:.\Generated_Source\PSoC4/cyfitter_cfg.c **** 			{0x30u, 0xA0u},
 609:.\Generated_Source\PSoC4/cyfitter_cfg.c **** 			{0x31u, 0x04u},
 610:.\Generated_Source\PSoC4/cyfitter_cfg.c **** 			{0x32u, 0x01u},
 611:.\Generated_Source\PSoC4/cyfitter_cfg.c **** 			{0x37u, 0x40u},
 612:.\Generated_Source\PSoC4/cyfitter_cfg.c **** 			{0x38u, 0x80u},
 613:.\Generated_Source\PSoC4/cyfitter_cfg.c **** 			{0x39u, 0x10u},
 614:.\Generated_Source\PSoC4/cyfitter_cfg.c **** 			{0x3Du, 0x10u},
 615:.\Generated_Source\PSoC4/cyfitter_cfg.c **** 			{0x41u, 0x02u},
 616:.\Generated_Source\PSoC4/cyfitter_cfg.c **** 			{0x45u, 0x02u},
 617:.\Generated_Source\PSoC4/cyfitter_cfg.c **** 			{0x48u, 0x80u},
 618:.\Generated_Source\PSoC4/cyfitter_cfg.c **** 			{0x49u, 0x84u},
 619:.\Generated_Source\PSoC4/cyfitter_cfg.c **** 			{0x4Au, 0x20u},
 620:.\Generated_Source\PSoC4/cyfitter_cfg.c **** 			{0x4Fu, 0x80u},
 621:.\Generated_Source\PSoC4/cyfitter_cfg.c **** 			{0x50u, 0x40u},
 622:.\Generated_Source\PSoC4/cyfitter_cfg.c **** 			{0x51u, 0x88u},
 623:.\Generated_Source\PSoC4/cyfitter_cfg.c **** 			{0x52u, 0x10u},
 624:.\Generated_Source\PSoC4/cyfitter_cfg.c **** 			{0x59u, 0x40u},
 625:.\Generated_Source\PSoC4/cyfitter_cfg.c **** 			{0x5Au, 0x08u},
 626:.\Generated_Source\PSoC4/cyfitter_cfg.c **** 			{0x5Bu, 0x12u},
 627:.\Generated_Source\PSoC4/cyfitter_cfg.c **** 			{0x61u, 0x08u},
 628:.\Generated_Source\PSoC4/cyfitter_cfg.c **** 			{0x62u, 0x10u},
 629:.\Generated_Source\PSoC4/cyfitter_cfg.c **** 			{0x6Cu, 0x28u},
 630:.\Generated_Source\PSoC4/cyfitter_cfg.c **** 			{0x6Du, 0x10u},
 631:.\Generated_Source\PSoC4/cyfitter_cfg.c **** 			{0x86u, 0x50u},
 632:.\Generated_Source\PSoC4/cyfitter_cfg.c **** 			{0x8Bu, 0x08u},
 633:.\Generated_Source\PSoC4/cyfitter_cfg.c **** 			{0x8Fu, 0x40u},
 634:.\Generated_Source\PSoC4/cyfitter_cfg.c **** 			{0x96u, 0x02u},
 635:.\Generated_Source\PSoC4/cyfitter_cfg.c **** 			{0x99u, 0x80u},
 636:.\Generated_Source\PSoC4/cyfitter_cfg.c **** 			{0xA1u, 0x02u},
ARM GAS  C:\Users\Chuck\AppData\Local\Temp\ccu1suQS.s 			page 21


 637:.\Generated_Source\PSoC4/cyfitter_cfg.c **** 			{0xA2u, 0x10u},
 638:.\Generated_Source\PSoC4/cyfitter_cfg.c **** 			{0xA3u, 0x40u},
 639:.\Generated_Source\PSoC4/cyfitter_cfg.c **** 			{0xB0u, 0x08u},
 640:.\Generated_Source\PSoC4/cyfitter_cfg.c **** 			{0xB2u, 0x01u},
 641:.\Generated_Source\PSoC4/cyfitter_cfg.c **** 			{0xB5u, 0x01u},
 642:.\Generated_Source\PSoC4/cyfitter_cfg.c **** 			{0xC0u, 0x06u},
 643:.\Generated_Source\PSoC4/cyfitter_cfg.c **** 			{0xC2u, 0x77u},
 644:.\Generated_Source\PSoC4/cyfitter_cfg.c **** 			{0xC4u, 0x0Eu},
 645:.\Generated_Source\PSoC4/cyfitter_cfg.c **** 			{0xCAu, 0x41u},
 646:.\Generated_Source\PSoC4/cyfitter_cfg.c **** 			{0xCCu, 0x1Fu},
 647:.\Generated_Source\PSoC4/cyfitter_cfg.c **** 			{0xCEu, 0x2Cu},
 648:.\Generated_Source\PSoC4/cyfitter_cfg.c **** 			{0xD0u, 0x81u},
 649:.\Generated_Source\PSoC4/cyfitter_cfg.c **** 			{0xD2u, 0x18u},
 650:.\Generated_Source\PSoC4/cyfitter_cfg.c **** 			{0xD6u, 0x0Fu},
 651:.\Generated_Source\PSoC4/cyfitter_cfg.c **** 			{0xD8u, 0x06u},
 652:.\Generated_Source\PSoC4/cyfitter_cfg.c **** 			{0xE4u, 0x0Au},
 653:.\Generated_Source\PSoC4/cyfitter_cfg.c **** 			{0x0Bu, 0x20u},
 654:.\Generated_Source\PSoC4/cyfitter_cfg.c **** 			{0x0Cu, 0x02u},
 655:.\Generated_Source\PSoC4/cyfitter_cfg.c **** 			{0x4Bu, 0x20u},
 656:.\Generated_Source\PSoC4/cyfitter_cfg.c **** 			{0x4Cu, 0x02u},
 657:.\Generated_Source\PSoC4/cyfitter_cfg.c **** 			{0xC2u, 0x30u},
 658:.\Generated_Source\PSoC4/cyfitter_cfg.c **** 			{0xD2u, 0x30u},
 659:.\Generated_Source\PSoC4/cyfitter_cfg.c **** 			{0x09u, 0x04u},
 660:.\Generated_Source\PSoC4/cyfitter_cfg.c **** 			{0x0Eu, 0x20u},
 661:.\Generated_Source\PSoC4/cyfitter_cfg.c **** 			{0x53u, 0x10u},
 662:.\Generated_Source\PSoC4/cyfitter_cfg.c **** 			{0x56u, 0x08u},
 663:.\Generated_Source\PSoC4/cyfitter_cfg.c **** 			{0x58u, 0x10u},
 664:.\Generated_Source\PSoC4/cyfitter_cfg.c **** 			{0x5Eu, 0x80u},
 665:.\Generated_Source\PSoC4/cyfitter_cfg.c **** 			{0x6Eu, 0x02u},
 666:.\Generated_Source\PSoC4/cyfitter_cfg.c **** 			{0x7Au, 0x01u},
 667:.\Generated_Source\PSoC4/cyfitter_cfg.c **** 			{0x7Bu, 0x01u},
 668:.\Generated_Source\PSoC4/cyfitter_cfg.c **** 			{0xC2u, 0x0Cu},
 669:.\Generated_Source\PSoC4/cyfitter_cfg.c **** 			{0xD4u, 0x07u},
 670:.\Generated_Source\PSoC4/cyfitter_cfg.c **** 			{0xD6u, 0x04u},
 671:.\Generated_Source\PSoC4/cyfitter_cfg.c **** 			{0xDCu, 0x03u},
 672:.\Generated_Source\PSoC4/cyfitter_cfg.c **** 			{0x1Cu, 0x20u},
 673:.\Generated_Source\PSoC4/cyfitter_cfg.c **** 			{0x54u, 0x10u},
 674:.\Generated_Source\PSoC4/cyfitter_cfg.c **** 			{0x63u, 0x02u},
 675:.\Generated_Source\PSoC4/cyfitter_cfg.c **** 			{0x84u, 0x10u},
 676:.\Generated_Source\PSoC4/cyfitter_cfg.c **** 			{0x87u, 0x01u},
 677:.\Generated_Source\PSoC4/cyfitter_cfg.c **** 			{0x8Bu, 0x10u},
 678:.\Generated_Source\PSoC4/cyfitter_cfg.c **** 			{0x8Eu, 0x08u},
 679:.\Generated_Source\PSoC4/cyfitter_cfg.c **** 			{0x97u, 0x20u},
 680:.\Generated_Source\PSoC4/cyfitter_cfg.c **** 			{0x9Cu, 0x10u},
 681:.\Generated_Source\PSoC4/cyfitter_cfg.c **** 			{0x9Eu, 0x08u},
 682:.\Generated_Source\PSoC4/cyfitter_cfg.c **** 			{0xA7u, 0x01u},
 683:.\Generated_Source\PSoC4/cyfitter_cfg.c **** 			{0xB2u, 0x50u},
 684:.\Generated_Source\PSoC4/cyfitter_cfg.c **** 			{0xB5u, 0x04u},
 685:.\Generated_Source\PSoC4/cyfitter_cfg.c **** 			{0xC6u, 0x04u},
 686:.\Generated_Source\PSoC4/cyfitter_cfg.c **** 			{0xD4u, 0x02u},
 687:.\Generated_Source\PSoC4/cyfitter_cfg.c **** 			{0xD6u, 0x02u},
 688:.\Generated_Source\PSoC4/cyfitter_cfg.c **** 			{0xE0u, 0x0Cu},
 689:.\Generated_Source\PSoC4/cyfitter_cfg.c **** 			{0xE8u, 0x04u},
 690:.\Generated_Source\PSoC4/cyfitter_cfg.c **** 			{0xEAu, 0x01u},
 691:.\Generated_Source\PSoC4/cyfitter_cfg.c **** 			{0xEEu, 0x02u},
 692:.\Generated_Source\PSoC4/cyfitter_cfg.c **** 			{0x02u, 0x01u},
 693:.\Generated_Source\PSoC4/cyfitter_cfg.c **** 			{0x11u, 0x01u},
ARM GAS  C:\Users\Chuck\AppData\Local\Temp\ccu1suQS.s 			page 22


 694:.\Generated_Source\PSoC4/cyfitter_cfg.c **** 		};
 695:.\Generated_Source\PSoC4/cyfitter_cfg.c **** 
 696:.\Generated_Source\PSoC4/cyfitter_cfg.c **** 
 697:.\Generated_Source\PSoC4/cyfitter_cfg.c **** 
 698:.\Generated_Source\PSoC4/cyfitter_cfg.c **** 		CYPACKED typedef struct {
 699:.\Generated_Source\PSoC4/cyfitter_cfg.c **** 			void CYFAR *address;
 700:.\Generated_Source\PSoC4/cyfitter_cfg.c **** 			uint16 size;
 701:.\Generated_Source\PSoC4/cyfitter_cfg.c **** 		} CYPACKED_ATTR cfg_memset_t;
 702:.\Generated_Source\PSoC4/cyfitter_cfg.c **** 
 703:.\Generated_Source\PSoC4/cyfitter_cfg.c **** 		static const cfg_memset_t CYCODE cfg_memset_list [] = {
 704:.\Generated_Source\PSoC4/cyfitter_cfg.c **** 			/* address, size */
 705:.\Generated_Source\PSoC4/cyfitter_cfg.c **** 			{(void CYFAR *)(CYDEV_UDB_P0_U0_BASE), 1024u},
 706:.\Generated_Source\PSoC4/cyfitter_cfg.c **** 			{(void CYFAR *)(CYDEV_UDB_DSI0_BASE), 1024u},
 707:.\Generated_Source\PSoC4/cyfitter_cfg.c **** 		};
 708:.\Generated_Source\PSoC4/cyfitter_cfg.c **** 
 709:.\Generated_Source\PSoC4/cyfitter_cfg.c **** 		uint8 CYDATA i;
 710:.\Generated_Source\PSoC4/cyfitter_cfg.c **** 
 711:.\Generated_Source\PSoC4/cyfitter_cfg.c **** 		/* Zero out critical memory blocks before beginning configuration */
 712:.\Generated_Source\PSoC4/cyfitter_cfg.c **** 		for (i = 0u; i < (sizeof(cfg_memset_list)/sizeof(cfg_memset_list[0])); i++)
 502              		.loc 1 712 0
 503 0108 FB1D     		add	r3, r7, #7
 504 010a 0022     		mov	r2, #0
 505 010c 1A70     		strb	r2, [r3]
 506 010e 23E0     		b	.L21
 507              	.L22:
 508              	.LBB4:
 713:.\Generated_Source\PSoC4/cyfitter_cfg.c **** 		{
 714:.\Generated_Source\PSoC4/cyfitter_cfg.c **** 			const cfg_memset_t CYCODE * CYDATA ms = &cfg_memset_list[i];
 509              		.loc 1 714 0 discriminator 3
 510 0110 FB1D     		add	r3, r7, #7
 511 0112 1A78     		ldrb	r2, [r3]
 512 0114 131C     		mov	r3, r2
 513 0116 5B00     		lsl	r3, r3, #1
 514 0118 9B18     		add	r3, r3, r2
 515 011a 5B00     		lsl	r3, r3, #1
 516 011c 504A     		ldr	r2, .L23
 517 011e 9B18     		add	r3, r3, r2
 518 0120 3B60     		str	r3, [r7]
 715:.\Generated_Source\PSoC4/cyfitter_cfg.c **** 			CYMEMZERO(ms->address, (size_t)(uint32)(ms->size));
 519              		.loc 1 715 0 discriminator 3
 520 0122 3B68     		ldr	r3, [r7]
 521 0124 1A78     		ldrb	r2, [r3]
 522 0126 5978     		ldrb	r1, [r3, #1]
 523 0128 0902     		lsl	r1, r1, #8
 524 012a 0A43     		orr	r2, r1
 525 012c 9978     		ldrb	r1, [r3, #2]
 526 012e 0904     		lsl	r1, r1, #16
 527 0130 0A43     		orr	r2, r1
 528 0132 DB78     		ldrb	r3, [r3, #3]
 529 0134 1B06     		lsl	r3, r3, #24
 530 0136 1343     		orr	r3, r2
 531 0138 191C     		mov	r1, r3
 532 013a 3B68     		ldr	r3, [r7]
 533 013c 1A79     		ldrb	r2, [r3, #4]
 534 013e 5B79     		ldrb	r3, [r3, #5]
 535 0140 1B02     		lsl	r3, r3, #8
 536 0142 1343     		orr	r3, r2
ARM GAS  C:\Users\Chuck\AppData\Local\Temp\ccu1suQS.s 			page 23


 537 0144 9BB2     		uxth	r3, r3
 538 0146 081C     		mov	r0, r1
 539 0148 191C     		mov	r1, r3
 540 014a FFF7FEFF 		bl	CYMEMZERO
 541              	.LBE4:
 712:.\Generated_Source\PSoC4/cyfitter_cfg.c **** 		{
 542              		.loc 1 712 0 discriminator 3
 543 014e FB1D     		add	r3, r7, #7
 544 0150 1A78     		ldrb	r2, [r3]
 545 0152 FB1D     		add	r3, r7, #7
 546 0154 0132     		add	r2, r2, #1
 547 0156 1A70     		strb	r2, [r3]
 548              	.L21:
 712:.\Generated_Source\PSoC4/cyfitter_cfg.c **** 		{
 549              		.loc 1 712 0 is_stmt 0 discriminator 1
 550 0158 FB1D     		add	r3, r7, #7
 551 015a 1B78     		ldrb	r3, [r3]
 552 015c 012B     		cmp	r3, #1
 553 015e D7D9     		bls	.L22
 716:.\Generated_Source\PSoC4/cyfitter_cfg.c **** 		}
 717:.\Generated_Source\PSoC4/cyfitter_cfg.c **** 
 718:.\Generated_Source\PSoC4/cyfitter_cfg.c **** 		cfg_write_bytes32(cy_cfg_addr_table, cy_cfg_data_table);
 554              		.loc 1 718 0 is_stmt 1
 555 0160 404A     		ldr	r2, .L23+4
 556 0162 414B     		ldr	r3, .L23+8
 557 0164 101C     		mov	r0, r2
 558 0166 191C     		mov	r1, r3
 559 0168 FFF7FEFF 		bl	cfg_write_bytes32
 719:.\Generated_Source\PSoC4/cyfitter_cfg.c **** 
 720:.\Generated_Source\PSoC4/cyfitter_cfg.c **** 		/* HSIOM Starting address: CYDEV_HSIOM_BASE */
 721:.\Generated_Source\PSoC4/cyfitter_cfg.c **** 		CY_SET_XTND_REG32((void CYFAR *)(CYDEV_HSIOM_BASE), 0x00EE0000u);
 560              		.loc 1 721 0
 561 016c 3F4B     		ldr	r3, .L23+12
 562 016e EE22     		mov	r2, #238
 563 0170 1204     		lsl	r2, r2, #16
 564 0172 1A60     		str	r2, [r3]
 722:.\Generated_Source\PSoC4/cyfitter_cfg.c **** 		CY_SET_XTND_REG32((void CYFAR *)(CYREG_HSIOM_PORT_SEL2), 0x00003333u);
 565              		.loc 1 722 0
 566 0174 3E4B     		ldr	r3, .L23+16
 567 0176 3F4A     		ldr	r2, .L23+20
 568 0178 1A60     		str	r2, [r3]
 723:.\Generated_Source\PSoC4/cyfitter_cfg.c **** 		CY_SET_XTND_REG32((void CYFAR *)(CYREG_HSIOM_PORT_SEL3), 0x0000EE03u);
 569              		.loc 1 723 0
 570 017a 3F4B     		ldr	r3, .L23+24
 571 017c 3F4A     		ldr	r2, .L23+28
 572 017e 1A60     		str	r2, [r3]
 724:.\Generated_Source\PSoC4/cyfitter_cfg.c **** 		CY_SET_XTND_REG32((void CYFAR *)(CYREG_HSIOM_PORT_SEL4), 0x00000099u);
 573              		.loc 1 724 0
 574 0180 3F4B     		ldr	r3, .L23+32
 575 0182 9922     		mov	r2, #153
 576 0184 1A60     		str	r2, [r3]
 725:.\Generated_Source\PSoC4/cyfitter_cfg.c **** 
 726:.\Generated_Source\PSoC4/cyfitter_cfg.c **** 		/* UDB_PA_0 Starting address: CYDEV_UDB_PA0_BASE */
 727:.\Generated_Source\PSoC4/cyfitter_cfg.c **** 		CY_SET_XTND_REG32((void CYFAR *)(CYDEV_UDB_PA0_BASE), 0x00990000u);
 577              		.loc 1 727 0
 578 0186 3F4B     		ldr	r3, .L23+36
 579 0188 9922     		mov	r2, #153
ARM GAS  C:\Users\Chuck\AppData\Local\Temp\ccu1suQS.s 			page 24


 580 018a 1204     		lsl	r2, r2, #16
 581 018c 1A60     		str	r2, [r3]
 728:.\Generated_Source\PSoC4/cyfitter_cfg.c **** 
 729:.\Generated_Source\PSoC4/cyfitter_cfg.c **** 		/* UDB_PA_1 Starting address: CYDEV_UDB_PA1_BASE */
 730:.\Generated_Source\PSoC4/cyfitter_cfg.c **** 		CY_SET_XTND_REG32((void CYFAR *)(CYDEV_UDB_PA1_BASE), 0x00990004u);
 582              		.loc 1 730 0
 583 018e 3E4B     		ldr	r3, .L23+40
 584 0190 3E4A     		ldr	r2, .L23+44
 585 0192 1A60     		str	r2, [r3]
 731:.\Generated_Source\PSoC4/cyfitter_cfg.c **** 		CY_SET_XTND_REG32((void CYFAR *)(CYREG_UDB_PA1_CFG4), 0x0A000000u);
 586              		.loc 1 731 0
 587 0194 3E4B     		ldr	r3, .L23+48
 588 0196 A022     		mov	r2, #160
 589 0198 1205     		lsl	r2, r2, #20
 590 019a 1A60     		str	r2, [r3]
 732:.\Generated_Source\PSoC4/cyfitter_cfg.c **** 
 733:.\Generated_Source\PSoC4/cyfitter_cfg.c **** 		/* UDB_PA_2 Starting address: CYDEV_UDB_PA2_BASE */
 734:.\Generated_Source\PSoC4/cyfitter_cfg.c **** 		CY_SET_XTND_REG32((void CYFAR *)(CYDEV_UDB_PA2_BASE), 0x00990004u);
 591              		.loc 1 734 0
 592 019c 3D4B     		ldr	r3, .L23+52
 593 019e 3B4A     		ldr	r2, .L23+44
 594 01a0 1A60     		str	r2, [r3]
 735:.\Generated_Source\PSoC4/cyfitter_cfg.c **** 		CY_SET_XTND_REG32((void CYFAR *)(CYREG_UDB_PA2_CFG4), 0x0A000000u);
 595              		.loc 1 735 0
 596 01a2 3D4B     		ldr	r3, .L23+56
 597 01a4 A022     		mov	r2, #160
 598 01a6 1205     		lsl	r2, r2, #20
 599 01a8 1A60     		str	r2, [r3]
 736:.\Generated_Source\PSoC4/cyfitter_cfg.c **** 		CY_SET_XTND_REG32((void CYFAR *)(CYREG_UDB_PA2_CFG8), 0x00B10000u);
 600              		.loc 1 736 0
 601 01aa 3C4B     		ldr	r3, .L23+60
 602 01ac B122     		mov	r2, #177
 603 01ae 1204     		lsl	r2, r2, #16
 604 01b0 1A60     		str	r2, [r3]
 737:.\Generated_Source\PSoC4/cyfitter_cfg.c **** 
 738:.\Generated_Source\PSoC4/cyfitter_cfg.c **** 		/* UDB_PA_3 Starting address: CYDEV_UDB_PA3_BASE */
 739:.\Generated_Source\PSoC4/cyfitter_cfg.c **** 		CY_SET_XTND_REG32((void CYFAR *)(CYDEV_UDB_PA3_BASE), 0x00990000u);
 605              		.loc 1 739 0
 606 01b2 3B4B     		ldr	r3, .L23+64
 607 01b4 9922     		mov	r2, #153
 608 01b6 1204     		lsl	r2, r2, #16
 609 01b8 1A60     		str	r2, [r3]
 740:.\Generated_Source\PSoC4/cyfitter_cfg.c **** 		CY_SET_XTND_REG32((void CYFAR *)(CYREG_UDB_PA3_CFG8), 0x00010000u);
 610              		.loc 1 740 0
 611 01ba 3A4B     		ldr	r3, .L23+68
 612 01bc 8022     		mov	r2, #128
 613 01be 5202     		lsl	r2, r2, #9
 614 01c0 1A60     		str	r2, [r3]
 741:.\Generated_Source\PSoC4/cyfitter_cfg.c **** 
 742:.\Generated_Source\PSoC4/cyfitter_cfg.c **** 		/* TCPWM_CNT0 Starting address: CYDEV_TCPWM_CNT0_TR_CTRL0 */
 743:.\Generated_Source\PSoC4/cyfitter_cfg.c **** 		CY_SET_XTND_REG32((void CYFAR *)(CYREG_TCPWM_CNT0_TR_CTRL0), 0x000E00F0u);
 615              		.loc 1 743 0
 616 01c2 394B     		ldr	r3, .L23+72
 617 01c4 394A     		ldr	r2, .L23+76
 618 01c6 1A60     		str	r2, [r3]
 744:.\Generated_Source\PSoC4/cyfitter_cfg.c **** 
 745:.\Generated_Source\PSoC4/cyfitter_cfg.c **** 		/* Enable digital routing */
ARM GAS  C:\Users\Chuck\AppData\Local\Temp\ccu1suQS.s 			page 25


 746:.\Generated_Source\PSoC4/cyfitter_cfg.c **** 		CY_SET_XTND_REG8((void *)CYREG_UDB_UDBIF_BANK_CTL, CY_GET_XTND_REG8((void *)CYREG_UDB_UDBIF_BANK_
 619              		.loc 1 746 0
 620 01c8 394A     		ldr	r2, .L23+80
 621 01ca 394B     		ldr	r3, .L23+80
 622 01cc 1B78     		ldrb	r3, [r3]
 623 01ce DBB2     		uxtb	r3, r3
 624 01d0 0221     		mov	r1, #2
 625 01d2 0B43     		orr	r3, r1
 626 01d4 DBB2     		uxtb	r3, r3
 627 01d6 1370     		strb	r3, [r2]
 747:.\Generated_Source\PSoC4/cyfitter_cfg.c **** 
 748:.\Generated_Source\PSoC4/cyfitter_cfg.c **** 		/* Enable UDB array */
 749:.\Generated_Source\PSoC4/cyfitter_cfg.c **** 		CY_SET_XTND_REG8((void *)CYREG_UDB_UDBIF_WAIT_CFG, (uint8)((CY_GET_XTND_REG8((void *)CYREG_UDB_UD
 628              		.loc 1 749 0
 629 01d8 364A     		ldr	r2, .L23+84
 630 01da 364B     		ldr	r3, .L23+84
 631 01dc 1B78     		ldrb	r3, [r3]
 632 01de DBB2     		uxtb	r3, r3
 633 01e0 3C21     		mov	r1, #60
 634 01e2 8B43     		bic	r3, r1
 635 01e4 DBB2     		uxtb	r3, r3
 636 01e6 1421     		mov	r1, #20
 637 01e8 0B43     		orr	r3, r1
 638 01ea DBB2     		uxtb	r3, r3
 639 01ec 1370     		strb	r3, [r2]
 750:.\Generated_Source\PSoC4/cyfitter_cfg.c **** 		CY_SET_XTND_REG8((void *)CYREG_UDB_UDBIF_BANK_CTL, (uint8)(CY_GET_XTND_REG8((void *)CYREG_UDB_UDB
 640              		.loc 1 750 0
 641 01ee 304A     		ldr	r2, .L23+80
 642 01f0 2F4B     		ldr	r3, .L23+80
 643 01f2 1B78     		ldrb	r3, [r3]
 644 01f4 DBB2     		uxtb	r3, r3
 645 01f6 1621     		mov	r1, #22
 646 01f8 0B43     		orr	r3, r1
 647 01fa DBB2     		uxtb	r3, r3
 648 01fc 1370     		strb	r3, [r2]
 649              	.LBE3:
 751:.\Generated_Source\PSoC4/cyfitter_cfg.c **** 	}
 752:.\Generated_Source\PSoC4/cyfitter_cfg.c **** 
 753:.\Generated_Source\PSoC4/cyfitter_cfg.c **** 	/* Perform second pass device configuration. These items must be configured in specific order afte
 754:.\Generated_Source\PSoC4/cyfitter_cfg.c **** 	/* IOPINS0_0 Starting address: CYDEV_PRT0_BASE */
 755:.\Generated_Source\PSoC4/cyfitter_cfg.c **** 	CY_SET_XTND_REG32((void CYFAR *)(CYDEV_PRT0_BASE), 0x000000B0u);
 650              		.loc 1 755 0
 651 01fe 2E4B     		ldr	r3, .L23+88
 652 0200 B022     		mov	r2, #176
 653 0202 1A60     		str	r2, [r3]
 756:.\Generated_Source\PSoC4/cyfitter_cfg.c **** 	CY_SET_XTND_REG32((void CYFAR *)(CYREG_PRT0_PC), 0x00424000u);
 654              		.loc 1 756 0
 655 0204 2D4B     		ldr	r3, .L23+92
 656 0206 2E4A     		ldr	r2, .L23+96
 657 0208 1A60     		str	r2, [r3]
 757:.\Generated_Source\PSoC4/cyfitter_cfg.c **** 
 758:.\Generated_Source\PSoC4/cyfitter_cfg.c **** 	/* IOPINS0_1 Starting address: CYDEV_PRT1_BASE */
 759:.\Generated_Source\PSoC4/cyfitter_cfg.c **** 	CY_SET_XTND_REG32((void CYFAR *)(CYDEV_PRT1_BASE), 0x00000007u);
 658              		.loc 1 759 0
 659 020a 2E4B     		ldr	r3, .L23+100
 660 020c 0722     		mov	r2, #7
 661 020e 1A60     		str	r2, [r3]
ARM GAS  C:\Users\Chuck\AppData\Local\Temp\ccu1suQS.s 			page 26


 760:.\Generated_Source\PSoC4/cyfitter_cfg.c **** 	CY_SET_XTND_REG32((void CYFAR *)(CYREG_PRT1_PC), 0x00189000u);
 662              		.loc 1 760 0
 663 0210 2D4B     		ldr	r3, .L23+104
 664 0212 2E4A     		ldr	r2, .L23+108
 665 0214 1A60     		str	r2, [r3]
 761:.\Generated_Source\PSoC4/cyfitter_cfg.c **** 	CY_SET_XTND_REG32((void CYFAR *)(CYREG_PRT1_PC2), 0x00000087u);
 666              		.loc 1 761 0
 667 0216 2E4B     		ldr	r3, .L23+112
 668 0218 8722     		mov	r2, #135
 669 021a 1A60     		str	r2, [r3]
 762:.\Generated_Source\PSoC4/cyfitter_cfg.c **** 
 763:.\Generated_Source\PSoC4/cyfitter_cfg.c **** 	/* IOPINS0_2 Starting address: CYDEV_PRT2_BASE */
 764:.\Generated_Source\PSoC4/cyfitter_cfg.c **** 	CY_SET_XTND_REG32((void CYFAR *)(CYDEV_PRT2_BASE), 0x000000CFu);
 670              		.loc 1 764 0
 671 021c 2D4B     		ldr	r3, .L23+116
 672 021e CF22     		mov	r2, #207
 673 0220 1A60     		str	r2, [r3]
 765:.\Generated_Source\PSoC4/cyfitter_cfg.c **** 	CY_SET_XTND_REG32((void CYFAR *)(CYREG_PRT2_PC), 0x00009DB6u);
 674              		.loc 1 765 0
 675 0222 2D4B     		ldr	r3, .L23+120
 676 0224 2D4A     		ldr	r2, .L23+124
 677 0226 1A60     		str	r2, [r3]
 766:.\Generated_Source\PSoC4/cyfitter_cfg.c **** 	CY_SET_XTND_REG32((void CYFAR *)(CYREG_PRT2_PC2), 0x000000C0u);
 678              		.loc 1 766 0
 679 0228 2D4B     		ldr	r3, .L23+128
 680 022a C022     		mov	r2, #192
 681 022c 1A60     		str	r2, [r3]
 767:.\Generated_Source\PSoC4/cyfitter_cfg.c **** 
 768:.\Generated_Source\PSoC4/cyfitter_cfg.c **** 	/* IOPINS0_3 Starting address: CYDEV_PRT3_BASE */
 769:.\Generated_Source\PSoC4/cyfitter_cfg.c **** 	CY_SET_XTND_REG32((void CYFAR *)(CYDEV_PRT3_BASE), 0x00000003u);
 682              		.loc 1 769 0
 683 022e 2D4B     		ldr	r3, .L23+132
 684 0230 0322     		mov	r2, #3
 685 0232 1A60     		str	r2, [r3]
 770:.\Generated_Source\PSoC4/cyfitter_cfg.c **** 	CY_SET_XTND_REG32((void CYFAR *)(CYREG_PRT3_PC), 0x00000D86u);
 686              		.loc 1 770 0
 687 0234 2C4B     		ldr	r3, .L23+136
 688 0236 2D4A     		ldr	r2, .L23+140
 689 0238 1A60     		str	r2, [r3]
 771:.\Generated_Source\PSoC4/cyfitter_cfg.c **** 	CY_SET_XTND_REG32((void CYFAR *)(CYREG_PRT3_PC2), 0x00000002u);
 690              		.loc 1 771 0
 691 023a 2D4B     		ldr	r3, .L23+144
 692 023c 0222     		mov	r2, #2
 693 023e 1A60     		str	r2, [r3]
 772:.\Generated_Source\PSoC4/cyfitter_cfg.c **** 
 773:.\Generated_Source\PSoC4/cyfitter_cfg.c **** 	/* IOPINS0_4 Starting address: CYDEV_PRT4_BASE */
 774:.\Generated_Source\PSoC4/cyfitter_cfg.c **** 	CY_SET_XTND_REG32((void CYFAR *)(CYDEV_PRT4_BASE), 0x00000006u);
 694              		.loc 1 774 0
 695 0240 2C4B     		ldr	r3, .L23+148
 696 0242 0622     		mov	r2, #6
 697 0244 1A60     		str	r2, [r3]
 775:.\Generated_Source\PSoC4/cyfitter_cfg.c **** 	CY_SET_XTND_REG32((void CYFAR *)(CYREG_PRT4_PC), 0x00000031u);
 698              		.loc 1 775 0
 699 0246 2C4B     		ldr	r3, .L23+152
 700 0248 3122     		mov	r2, #49
 701 024a 1A60     		str	r2, [r3]
 776:.\Generated_Source\PSoC4/cyfitter_cfg.c **** 	CY_SET_XTND_REG32((void CYFAR *)(CYREG_PRT4_PC2), 0x00000006u);
ARM GAS  C:\Users\Chuck\AppData\Local\Temp\ccu1suQS.s 			page 27


 702              		.loc 1 776 0
 703 024c 2B4B     		ldr	r3, .L23+156
 704 024e 0622     		mov	r2, #6
 705 0250 1A60     		str	r2, [r3]
 777:.\Generated_Source\PSoC4/cyfitter_cfg.c **** 
 778:.\Generated_Source\PSoC4/cyfitter_cfg.c **** 
 779:.\Generated_Source\PSoC4/cyfitter_cfg.c **** 	/* Setup clocks based on selections from Clock DWR */
 780:.\Generated_Source\PSoC4/cyfitter_cfg.c **** 	ClockSetup();
 706              		.loc 1 780 0
 707 0252 FFF7D5FE 		bl	ClockSetup
 781:.\Generated_Source\PSoC4/cyfitter_cfg.c **** 
 782:.\Generated_Source\PSoC4/cyfitter_cfg.c **** 	/* Perform basic analog initialization to defaults */
 783:.\Generated_Source\PSoC4/cyfitter_cfg.c **** 	AnalogSetDefault();
 708              		.loc 1 783 0
 709 0256 FFF7FEFF 		bl	AnalogSetDefault
 784:.\Generated_Source\PSoC4/cyfitter_cfg.c **** 
 785:.\Generated_Source\PSoC4/cyfitter_cfg.c **** }
 710              		.loc 1 785 0
 711 025a BD46     		mov	sp, r7
 712 025c 02B0     		add	sp, sp, #8
 713              		@ sp needed
 714 025e 80BD     		pop	{r7, pc}
 715              	.L24:
 716              		.align	2
 717              	.L23:
 718 0260 00000000 		.word	cfg_memset_list.4681
 719 0264 0C000000 		.word	cy_cfg_addr_table.4675
 720 0268 30000000 		.word	cy_cfg_data_table.4676
 721 026c 00000140 		.word	1073807360
 722 0270 08000140 		.word	1073807368
 723 0274 33330000 		.word	13107
 724 0278 0C000140 		.word	1073807372
 725 027c 03EE0000 		.word	60931
 726 0280 10000140 		.word	1073807376
 727 0284 00500F40 		.word	1074745344
 728 0288 10500F40 		.word	1074745360
 729 028c 04009900 		.word	10027012
 730 0290 14500F40 		.word	1074745364
 731 0294 20500F40 		.word	1074745376
 732 0298 24500F40 		.word	1074745380
 733 029c 28500F40 		.word	1074745384
 734 02a0 30500F40 		.word	1074745392
 735 02a4 38500F40 		.word	1074745400
 736 02a8 20010540 		.word	1074069792
 737 02ac F0000E00 		.word	917744
 738 02b0 00700F40 		.word	1074753536
 739 02b4 01700F40 		.word	1074753537
 740 02b8 00000440 		.word	1074003968
 741 02bc 08000440 		.word	1074003976
 742 02c0 00404200 		.word	4341760
 743 02c4 00010440 		.word	1074004224
 744 02c8 08010440 		.word	1074004232
 745 02cc 00901800 		.word	1609728
 746 02d0 18010440 		.word	1074004248
 747 02d4 00020440 		.word	1074004480
 748 02d8 08020440 		.word	1074004488
 749 02dc B69D0000 		.word	40374
ARM GAS  C:\Users\Chuck\AppData\Local\Temp\ccu1suQS.s 			page 28


 750 02e0 18020440 		.word	1074004504
 751 02e4 00030440 		.word	1074004736
 752 02e8 08030440 		.word	1074004744
 753 02ec 860D0000 		.word	3462
 754 02f0 18030440 		.word	1074004760
 755 02f4 00040440 		.word	1074004992
 756 02f8 08040440 		.word	1074005000
 757 02fc 18040440 		.word	1074005016
 758              		.cfi_endproc
 759              	.LFE7:
 760              		.size	cyfitter_cfg, .-cyfitter_cfg
 761              		.section	.rodata
 762              		.align	2
 763              		.type	cfg_memset_list.4681, %object
 764              		.size	cfg_memset_list.4681, 12
 765              	cfg_memset_list.4681:
 766 0000 00300F40 		.word	1074737152
 767 0004 0004     		.short	1024
 768 0006 00400F40 		.4byte	1074741248
 769 000a 0004     		.short	1024
 770              		.align	2
 771              		.type	cy_cfg_addr_table.4675, %object
 772              		.size	cy_cfg_addr_table.4675, 36
 773              	cy_cfg_addr_table.4675:
 774 000c 01000F40 		.word	1074724865
 775 0010 70300F40 		.word	1074737264
 776 0014 2C310F40 		.word	1074737452
 777 0018 61320F40 		.word	1074737761
 778 001c 3D330F40 		.word	1074737981
 779 0020 06410F40 		.word	1074741510
 780 0024 0D420F40 		.word	1074741773
 781 0028 14430F40 		.word	1074742036
 782 002c 02600F40 		.word	1074749442
 783              		.align	2
 784              		.type	cy_cfg_data_table.4676, %object
 785              		.size	cy_cfg_data_table.4676, 712
 786              	cy_cfg_data_table.4676:
 787 0030 83       		.byte	-125
 788 0031 6F       		.byte	111
 789 0032 01       		.byte	1
 790 0033 05       		.byte	5
 791 0034 03       		.byte	3
 792 0035 1A       		.byte	26
 793 0036 04       		.byte	4
 794 0037 54       		.byte	84
 795 0038 05       		.byte	5
 796 0039 03       		.byte	3
 797 003a 06       		.byte	6
 798 003b A8       		.byte	-88
 799 003c 07       		.byte	7
 800 003d 4C       		.byte	76
 801 003e 08       		.byte	8
 802 003f C2       		.byte	-62
 803 0040 09       		.byte	9
 804 0041 03       		.byte	3
 805 0042 0A       		.byte	10
 806 0043 31       		.byte	49
ARM GAS  C:\Users\Chuck\AppData\Local\Temp\ccu1suQS.s 			page 29


 807 0044 0B       		.byte	11
 808 0045 0C       		.byte	12
 809 0046 0C       		.byte	12
 810 0047 54       		.byte	84
 811 0048 0D       		.byte	13
 812 0049 50       		.byte	80
 813 004a 0E       		.byte	14
 814 004b A8       		.byte	-88
 815 004c 0F       		.byte	15
 816 004d A0       		.byte	-96
 817 004e 18       		.byte	24
 818 004f 31       		.byte	49
 819 0050 19       		.byte	25
 820 0051 0A       		.byte	10
 821 0052 1A       		.byte	26
 822 0053 C2       		.byte	-62
 823 0054 1B       		.byte	27
 824 0055 05       		.byte	5
 825 0056 23       		.byte	35
 826 0057 20       		.byte	32
 827 0058 28       		.byte	40
 828 0059 0F       		.byte	15
 829 005a 2B       		.byte	43
 830 005b 80       		.byte	-128
 831 005c 2E       		.byte	46
 832 005d F0       		.byte	-16
 833 005e 31       		.byte	49
 834 005f 30       		.byte	48
 835 0060 33       		.byte	51
 836 0061 0F       		.byte	15
 837 0062 35       		.byte	53
 838 0063 C0       		.byte	-64
 839 0064 36       		.byte	54
 840 0065 FF       		.byte	-1
 841 0066 38       		.byte	56
 842 0067 80       		.byte	-128
 843 0068 3A       		.byte	58
 844 0069 03       		.byte	3
 845 006a 3E       		.byte	62
 846 006b 40       		.byte	64
 847 006c 40       		.byte	64
 848 006d 40       		.byte	64
 849 006e 41       		.byte	65
 850 006f 01       		.byte	1
 851 0070 49       		.byte	73
 852 0071 FF       		.byte	-1
 853 0072 4A       		.byte	74
 854 0073 FF       		.byte	-1
 855 0074 4B       		.byte	75
 856 0075 FF       		.byte	-1
 857 0076 4D       		.byte	77
 858 0077 A0       		.byte	-96
 859 0078 4F       		.byte	79
 860 0079 01       		.byte	1
 861 007a 50       		.byte	80
 862 007b 18       		.byte	24
 863 007c 58       		.byte	88
ARM GAS  C:\Users\Chuck\AppData\Local\Temp\ccu1suQS.s 			page 30


 864 007d 04       		.byte	4
 865 007e 59       		.byte	89
 866 007f 04       		.byte	4
 867 0080 5A       		.byte	90
 868 0081 04       		.byte	4
 869 0082 5C       		.byte	92
 870 0083 99       		.byte	-103
 871 0084 5D       		.byte	93
 872 0085 09       		.byte	9
 873 0086 5F       		.byte	95
 874 0087 01       		.byte	1
 875 0088 60       		.byte	96
 876 0089 40       		.byte	64
 877 008a 62       		.byte	98
 878 008b 80       		.byte	-128
 879 008c 64       		.byte	100
 880 008d 40       		.byte	64
 881 008e 65       		.byte	101
 882 008f 40       		.byte	64
 883 0090 66       		.byte	102
 884 0091 80       		.byte	-128
 885 0092 68       		.byte	104
 886 0093 40       		.byte	64
 887 0094 6A       		.byte	106
 888 0095 80       		.byte	-128
 889 0096 6C       		.byte	108
 890 0097 40       		.byte	64
 891 0098 6D       		.byte	109
 892 0099 20       		.byte	32
 893 009a 6E       		.byte	110
 894 009b 80       		.byte	-128
 895 009c 82       		.byte	-126
 896 009d 03       		.byte	3
 897 009e 84       		.byte	-124
 898 009f 01       		.byte	1
 899 00a0 85       		.byte	-123
 900 00a1 5A       		.byte	90
 901 00a2 86       		.byte	-122
 902 00a3 02       		.byte	2
 903 00a4 87       		.byte	-121
 904 00a5 A5       		.byte	-91
 905 00a6 88       		.byte	-120
 906 00a7 30       		.byte	48
 907 00a8 89       		.byte	-119
 908 00a9 C3       		.byte	-61
 909 00aa 8A       		.byte	-118
 910 00ab 0C       		.byte	12
 911 00ac 8B       		.byte	-117
 912 00ad 3C       		.byte	60
 913 00ae 8C       		.byte	-116
 914 00af 3C       		.byte	60
 915 00b0 8D       		.byte	-115
 916 00b1 55       		.byte	85
 917 00b2 8F       		.byte	-113
 918 00b3 AA       		.byte	-86
 919 00b4 95       		.byte	-107
 920 00b5 0F       		.byte	15
ARM GAS  C:\Users\Chuck\AppData\Local\Temp\ccu1suQS.s 			page 31


 921 00b6 98       		.byte	-104
 922 00b7 14       		.byte	20
 923 00b8 9A       		.byte	-102
 924 00b9 28       		.byte	40
 925 00ba 9C       		.byte	-100
 926 00bb 02       		.byte	2
 927 00bc 9E       		.byte	-98
 928 00bd 01       		.byte	1
 929 00be A0       		.byte	-96
 930 00bf 14       		.byte	20
 931 00c0 A2       		.byte	-94
 932 00c1 68       		.byte	104
 933 00c2 A4       		.byte	-92
 934 00c3 0C       		.byte	12
 935 00c4 A6       		.byte	-90
 936 00c5 B0       		.byte	-80
 937 00c6 A9       		.byte	-87
 938 00c7 33       		.byte	51
 939 00c8 AB       		.byte	-85
 940 00c9 CC       		.byte	-52
 941 00ca B0       		.byte	-80
 942 00cb 03       		.byte	3
 943 00cc B2       		.byte	-78
 944 00cd 80       		.byte	-128
 945 00ce B3       		.byte	-77
 946 00cf 0F       		.byte	15
 947 00d0 B4       		.byte	-76
 948 00d1 40       		.byte	64
 949 00d2 B6       		.byte	-74
 950 00d3 3C       		.byte	60
 951 00d4 B7       		.byte	-73
 952 00d5 F0       		.byte	-16
 953 00d6 B9       		.byte	-71
 954 00d7 20       		.byte	32
 955 00d8 BE       		.byte	-66
 956 00d9 01       		.byte	1
 957 00da BF       		.byte	-65
 958 00db 10       		.byte	16
 959 00dc C0       		.byte	-64
 960 00dd 40       		.byte	64
 961 00de C1       		.byte	-63
 962 00df 05       		.byte	5
 963 00e0 C9       		.byte	-55
 964 00e1 FF       		.byte	-1
 965 00e2 CA       		.byte	-54
 966 00e3 FF       		.byte	-1
 967 00e4 CB       		.byte	-53
 968 00e5 FF       		.byte	-1
 969 00e6 CD       		.byte	-51
 970 00e7 AF       		.byte	-81
 971 00e8 CE       		.byte	-50
 972 00e9 07       		.byte	7
 973 00ea CF       		.byte	-49
 974 00eb 01       		.byte	1
 975 00ec D0       		.byte	-48
 976 00ed 18       		.byte	24
 977 00ee D2       		.byte	-46
ARM GAS  C:\Users\Chuck\AppData\Local\Temp\ccu1suQS.s 			page 32


 978 00ef 80       		.byte	-128
 979 00f0 D8       		.byte	-40
 980 00f1 04       		.byte	4
 981 00f2 D9       		.byte	-39
 982 00f3 04       		.byte	4
 983 00f4 DA       		.byte	-38
 984 00f5 04       		.byte	4
 985 00f6 DB       		.byte	-37
 986 00f7 04       		.byte	4
 987 00f8 DC       		.byte	-36
 988 00f9 99       		.byte	-103
 989 00fa DD       		.byte	-35
 990 00fb 99       		.byte	-103
 991 00fc DF       		.byte	-33
 992 00fd 01       		.byte	1
 993 00fe E0       		.byte	-32
 994 00ff 40       		.byte	64
 995 0100 E2       		.byte	-30
 996 0101 80       		.byte	-128
 997 0102 E4       		.byte	-28
 998 0103 40       		.byte	64
 999 0104 E5       		.byte	-27
 1000 0105 40       		.byte	64
 1001 0106 E6       		.byte	-26
 1002 0107 80       		.byte	-128
 1003 0108 E8       		.byte	-24
 1004 0109 40       		.byte	64
 1005 010a EA       		.byte	-22
 1006 010b 80       		.byte	-128
 1007 010c EC       		.byte	-20
 1008 010d 40       		.byte	64
 1009 010e ED       		.byte	-19
 1010 010f 20       		.byte	32
 1011 0110 EE       		.byte	-18
 1012 0111 80       		.byte	-128
 1013 0112 00       		.byte	0
 1014 0113 98       		.byte	-104
 1015 0114 04       		.byte	4
 1016 0115 10       		.byte	16
 1017 0116 06       		.byte	6
 1018 0117 80       		.byte	-128
 1019 0118 07       		.byte	7
 1020 0119 22       		.byte	34
 1021 011a 09       		.byte	9
 1022 011b 20       		.byte	32
 1023 011c 0B       		.byte	11
 1024 011d 08       		.byte	8
 1025 011e 0E       		.byte	14
 1026 011f 0A       		.byte	10
 1027 0120 11       		.byte	17
 1028 0121 80       		.byte	-128
 1029 0122 12       		.byte	18
 1030 0123 08       		.byte	8
 1031 0124 15       		.byte	21
 1032 0125 02       		.byte	2
 1033 0126 17       		.byte	23
 1034 0127 08       		.byte	8
ARM GAS  C:\Users\Chuck\AppData\Local\Temp\ccu1suQS.s 			page 33


 1035 0128 18       		.byte	24
 1036 0129 81       		.byte	-127
 1037 012a 19       		.byte	25
 1038 012b 80       		.byte	-128
 1039 012c 1B       		.byte	27
 1040 012d 40       		.byte	64
 1041 012e 1C       		.byte	28
 1042 012f 58       		.byte	88
 1043 0130 1D       		.byte	29
 1044 0131 12       		.byte	18
 1045 0132 1E       		.byte	30
 1046 0133 0A       		.byte	10
 1047 0134 20       		.byte	32
 1048 0135 84       		.byte	-124
 1049 0136 21       		.byte	33
 1050 0137 21       		.byte	33
 1051 0138 22       		.byte	34
 1052 0139 08       		.byte	8
 1053 013a 23       		.byte	35
 1054 013b 08       		.byte	8
 1055 013c 25       		.byte	37
 1056 013d 40       		.byte	64
 1057 013e 26       		.byte	38
 1058 013f 10       		.byte	16
 1059 0140 27       		.byte	39
 1060 0141 22       		.byte	34
 1061 0142 28       		.byte	40
 1062 0143 08       		.byte	8
 1063 0144 29       		.byte	41
 1064 0145 01       		.byte	1
 1065 0146 2F       		.byte	47
 1066 0147 04       		.byte	4
 1067 0148 31       		.byte	49
 1068 0149 10       		.byte	16
 1069 014a 36       		.byte	54
 1070 014b 08       		.byte	8
 1071 014c 38       		.byte	56
 1072 014d 94       		.byte	-108
 1073 014e 39       		.byte	57
 1074 014f 02       		.byte	2
 1075 0150 3C       		.byte	60
 1076 0151 98       		.byte	-104
 1077 0152 40       		.byte	64
 1078 0153 41       		.byte	65
 1079 0154 45       		.byte	69
 1080 0155 02       		.byte	2
 1081 0156 4F       		.byte	79
 1082 0157 80       		.byte	-128
 1083 0158 76       		.byte	118
 1084 0159 80       		.byte	-128
 1085 015a C0       		.byte	-64
 1086 015b F7       		.byte	-9
 1087 015c C2       		.byte	-62
 1088 015d C2       		.byte	-62
 1089 015e C4       		.byte	-60
 1090 015f 33       		.byte	51
 1091 0160 CA       		.byte	-54
ARM GAS  C:\Users\Chuck\AppData\Local\Temp\ccu1suQS.s 			page 34


 1092 0161 25       		.byte	37
 1093 0162 CC       		.byte	-52
 1094 0163 44       		.byte	68
 1095 0164 CE       		.byte	-50
 1096 0165 7F       		.byte	127
 1097 0166 D0       		.byte	-48
 1098 0167 89       		.byte	-119
 1099 0168 D2       		.byte	-46
 1100 0169 10       		.byte	16
 1101 016a 09       		.byte	9
 1102 016b 01       		.byte	1
 1103 016c 12       		.byte	18
 1104 016d 01       		.byte	1
 1105 016e 14       		.byte	20
 1106 016f 01       		.byte	1
 1107 0170 1A       		.byte	26
 1108 0171 01       		.byte	1
 1109 0172 1D       		.byte	29
 1110 0173 01       		.byte	1
 1111 0174 27       		.byte	39
 1112 0175 01       		.byte	1
 1113 0176 30       		.byte	48
 1114 0177 01       		.byte	1
 1115 0178 31       		.byte	49
 1116 0179 01       		.byte	1
 1117 017a 3A       		.byte	58
 1118 017b 02       		.byte	2
 1119 017c 3B       		.byte	59
 1120 017d 02       		.byte	2
 1121 017e 40       		.byte	64
 1122 017f 40       		.byte	64
 1123 0180 41       		.byte	65
 1124 0181 05       		.byte	5
 1125 0182 49       		.byte	73
 1126 0183 FF       		.byte	-1
 1127 0184 4A       		.byte	74
 1128 0185 FF       		.byte	-1
 1129 0186 4B       		.byte	75
 1130 0187 FF       		.byte	-1
 1131 0188 4D       		.byte	77
 1132 0189 AF       		.byte	-81
 1133 018a 4E       		.byte	78
 1134 018b 07       		.byte	7
 1135 018c 4F       		.byte	79
 1136 018d 01       		.byte	1
 1137 018e 50       		.byte	80
 1138 018f 18       		.byte	24
 1139 0190 52       		.byte	82
 1140 0191 06       		.byte	6
 1141 0192 53       		.byte	83
 1142 0193 04       		.byte	4
 1143 0194 56       		.byte	86
 1144 0195 10       		.byte	16
 1145 0196 58       		.byte	88
 1146 0197 04       		.byte	4
 1147 0198 59       		.byte	89
 1148 0199 04       		.byte	4
ARM GAS  C:\Users\Chuck\AppData\Local\Temp\ccu1suQS.s 			page 35


 1149 019a 5A       		.byte	90
 1150 019b 04       		.byte	4
 1151 019c 5B       		.byte	91
 1152 019d 04       		.byte	4
 1153 019e 5C       		.byte	92
 1154 019f 99       		.byte	-103
 1155 01a0 5D       		.byte	93
 1156 01a1 99       		.byte	-103
 1157 01a2 5F       		.byte	95
 1158 01a3 01       		.byte	1
 1159 01a4 60       		.byte	96
 1160 01a5 40       		.byte	64
 1161 01a6 62       		.byte	98
 1162 01a7 80       		.byte	-128
 1163 01a8 64       		.byte	100
 1164 01a9 40       		.byte	64
 1165 01aa 65       		.byte	101
 1166 01ab 40       		.byte	64
 1167 01ac 66       		.byte	102
 1168 01ad 80       		.byte	-128
 1169 01ae 68       		.byte	104
 1170 01af 40       		.byte	64
 1171 01b0 6A       		.byte	106
 1172 01b1 80       		.byte	-128
 1173 01b2 6C       		.byte	108
 1174 01b3 40       		.byte	64
 1175 01b4 6D       		.byte	109
 1176 01b5 20       		.byte	32
 1177 01b6 6E       		.byte	110
 1178 01b7 80       		.byte	-128
 1179 01b8 86       		.byte	-122
 1180 01b9 08       		.byte	8
 1181 01ba 89       		.byte	-119
 1182 01bb 02       		.byte	2
 1183 01bc 8A       		.byte	-118
 1184 01bd 04       		.byte	4
 1185 01be 8F       		.byte	-113
 1186 01bf 04       		.byte	4
 1187 01c0 91       		.byte	-111
 1188 01c1 02       		.byte	2
 1189 01c2 94       		.byte	-108
 1190 01c3 01       		.byte	1
 1191 01c4 97       		.byte	-105
 1192 01c5 01       		.byte	1
 1193 01c6 98       		.byte	-104
 1194 01c7 02       		.byte	2
 1195 01c8 9B       		.byte	-101
 1196 01c9 02       		.byte	2
 1197 01ca 9E       		.byte	-98
 1198 01cb 02       		.byte	2
 1199 01cc 9F       		.byte	-97
 1200 01cd 08       		.byte	8
 1201 01ce A1       		.byte	-95
 1202 01cf 01       		.byte	1
 1203 01d0 A2       		.byte	-94
 1204 01d1 01       		.byte	1
 1205 01d2 A6       		.byte	-90
ARM GAS  C:\Users\Chuck\AppData\Local\Temp\ccu1suQS.s 			page 36


 1206 01d3 04       		.byte	4
 1207 01d4 A8       		.byte	-88
 1208 01d5 04       		.byte	4
 1209 01d6 B0       		.byte	-80
 1210 01d7 08       		.byte	8
 1211 01d8 B1       		.byte	-79
 1212 01d9 02       		.byte	2
 1213 01da B2       		.byte	-78
 1214 01db 04       		.byte	4
 1215 01dc B3       		.byte	-77
 1216 01dd 08       		.byte	8
 1217 01de B4       		.byte	-76
 1218 01df 02       		.byte	2
 1219 01e0 B5       		.byte	-75
 1220 01e1 04       		.byte	4
 1221 01e2 B6       		.byte	-74
 1222 01e3 01       		.byte	1
 1223 01e4 B7       		.byte	-73
 1224 01e5 01       		.byte	1
 1225 01e6 BA       		.byte	-70
 1226 01e7 08       		.byte	8
 1227 01e8 BB       		.byte	-69
 1228 01e9 02       		.byte	2
 1229 01ea BE       		.byte	-66
 1230 01eb 50       		.byte	80
 1231 01ec BF       		.byte	-65
 1232 01ed 40       		.byte	64
 1233 01ee C0       		.byte	-64
 1234 01ef 40       		.byte	64
 1235 01f0 C1       		.byte	-63
 1236 01f1 05       		.byte	5
 1237 01f2 C5       		.byte	-59
 1238 01f3 52       		.byte	82
 1239 01f4 C6       		.byte	-58
 1240 01f5 C3       		.byte	-61
 1241 01f6 C7       		.byte	-57
 1242 01f7 0E       		.byte	14
 1243 01f8 C8       		.byte	-56
 1244 01f9 1F       		.byte	31
 1245 01fa C9       		.byte	-55
 1246 01fb FF       		.byte	-1
 1247 01fc CA       		.byte	-54
 1248 01fd FF       		.byte	-1
 1249 01fe CB       		.byte	-53
 1250 01ff FF       		.byte	-1
 1251 0200 CD       		.byte	-51
 1252 0201 AF       		.byte	-81
 1253 0202 CE       		.byte	-50
 1254 0203 07       		.byte	7
 1255 0204 CF       		.byte	-49
 1256 0205 01       		.byte	1
 1257 0206 D0       		.byte	-48
 1258 0207 18       		.byte	24
 1259 0208 D4       		.byte	-44
 1260 0209 0F       		.byte	15
 1261 020a D8       		.byte	-40
 1262 020b 04       		.byte	4
ARM GAS  C:\Users\Chuck\AppData\Local\Temp\ccu1suQS.s 			page 37


 1263 020c D9       		.byte	-39
 1264 020d 04       		.byte	4
 1265 020e DA       		.byte	-38
 1266 020f 04       		.byte	4
 1267 0210 DB       		.byte	-37
 1268 0211 04       		.byte	4
 1269 0212 DC       		.byte	-36
 1270 0213 99       		.byte	-103
 1271 0214 DD       		.byte	-35
 1272 0215 99       		.byte	-103
 1273 0216 DF       		.byte	-33
 1274 0217 01       		.byte	1
 1275 0218 E0       		.byte	-32
 1276 0219 40       		.byte	64
 1277 021a E2       		.byte	-30
 1278 021b 80       		.byte	-128
 1279 021c E4       		.byte	-28
 1280 021d 40       		.byte	64
 1281 021e E5       		.byte	-27
 1282 021f 40       		.byte	64
 1283 0220 E6       		.byte	-26
 1284 0221 80       		.byte	-128
 1285 0222 E8       		.byte	-24
 1286 0223 40       		.byte	64
 1287 0224 EA       		.byte	-22
 1288 0225 80       		.byte	-128
 1289 0226 EC       		.byte	-20
 1290 0227 40       		.byte	64
 1291 0228 ED       		.byte	-19
 1292 0229 20       		.byte	32
 1293 022a EE       		.byte	-18
 1294 022b 80       		.byte	-128
 1295 022c 02       		.byte	2
 1296 022d 20       		.byte	32
 1297 022e 03       		.byte	3
 1298 022f 18       		.byte	24
 1299 0230 09       		.byte	9
 1300 0231 80       		.byte	-128
 1301 0232 0B       		.byte	11
 1302 0233 14       		.byte	20
 1303 0234 0C       		.byte	12
 1304 0235 28       		.byte	40
 1305 0236 0E       		.byte	14
 1306 0237 80       		.byte	-128
 1307 0238 10       		.byte	16
 1308 0239 A8       		.byte	-88
 1309 023a 19       		.byte	25
 1310 023b 41       		.byte	65
 1311 023c 1A       		.byte	26
 1312 023d 08       		.byte	8
 1313 023e 1B       		.byte	27
 1314 023f 08       		.byte	8
 1315 0240 1E       		.byte	30
 1316 0241 80       		.byte	-128
 1317 0242 22       		.byte	34
 1318 0243 01       		.byte	1
 1319 0244 23       		.byte	35
ARM GAS  C:\Users\Chuck\AppData\Local\Temp\ccu1suQS.s 			page 38


 1320 0245 16       		.byte	22
 1321 0246 27       		.byte	39
 1322 0247 40       		.byte	64
 1323 0248 29       		.byte	41
 1324 0249 01       		.byte	1
 1325 024a 2C       		.byte	44
 1326 024b 20       		.byte	32
 1327 024c 30       		.byte	48
 1328 024d A0       		.byte	-96
 1329 024e 31       		.byte	49
 1330 024f 04       		.byte	4
 1331 0250 32       		.byte	50
 1332 0251 01       		.byte	1
 1333 0252 37       		.byte	55
 1334 0253 40       		.byte	64
 1335 0254 38       		.byte	56
 1336 0255 80       		.byte	-128
 1337 0256 39       		.byte	57
 1338 0257 10       		.byte	16
 1339 0258 3D       		.byte	61
 1340 0259 10       		.byte	16
 1341 025a 41       		.byte	65
 1342 025b 02       		.byte	2
 1343 025c 45       		.byte	69
 1344 025d 02       		.byte	2
 1345 025e 48       		.byte	72
 1346 025f 80       		.byte	-128
 1347 0260 49       		.byte	73
 1348 0261 84       		.byte	-124
 1349 0262 4A       		.byte	74
 1350 0263 20       		.byte	32
 1351 0264 4F       		.byte	79
 1352 0265 80       		.byte	-128
 1353 0266 50       		.byte	80
 1354 0267 40       		.byte	64
 1355 0268 51       		.byte	81
 1356 0269 88       		.byte	-120
 1357 026a 52       		.byte	82
 1358 026b 10       		.byte	16
 1359 026c 59       		.byte	89
 1360 026d 40       		.byte	64
 1361 026e 5A       		.byte	90
 1362 026f 08       		.byte	8
 1363 0270 5B       		.byte	91
 1364 0271 12       		.byte	18
 1365 0272 61       		.byte	97
 1366 0273 08       		.byte	8
 1367 0274 62       		.byte	98
 1368 0275 10       		.byte	16
 1369 0276 6C       		.byte	108
 1370 0277 28       		.byte	40
 1371 0278 6D       		.byte	109
 1372 0279 10       		.byte	16
 1373 027a 86       		.byte	-122
 1374 027b 50       		.byte	80
 1375 027c 8B       		.byte	-117
 1376 027d 08       		.byte	8
ARM GAS  C:\Users\Chuck\AppData\Local\Temp\ccu1suQS.s 			page 39


 1377 027e 8F       		.byte	-113
 1378 027f 40       		.byte	64
 1379 0280 96       		.byte	-106
 1380 0281 02       		.byte	2
 1381 0282 99       		.byte	-103
 1382 0283 80       		.byte	-128
 1383 0284 A1       		.byte	-95
 1384 0285 02       		.byte	2
 1385 0286 A2       		.byte	-94
 1386 0287 10       		.byte	16
 1387 0288 A3       		.byte	-93
 1388 0289 40       		.byte	64
 1389 028a B0       		.byte	-80
 1390 028b 08       		.byte	8
 1391 028c B2       		.byte	-78
 1392 028d 01       		.byte	1
 1393 028e B5       		.byte	-75
 1394 028f 01       		.byte	1
 1395 0290 C0       		.byte	-64
 1396 0291 06       		.byte	6
 1397 0292 C2       		.byte	-62
 1398 0293 77       		.byte	119
 1399 0294 C4       		.byte	-60
 1400 0295 0E       		.byte	14
 1401 0296 CA       		.byte	-54
 1402 0297 41       		.byte	65
 1403 0298 CC       		.byte	-52
 1404 0299 1F       		.byte	31
 1405 029a CE       		.byte	-50
 1406 029b 2C       		.byte	44
 1407 029c D0       		.byte	-48
 1408 029d 81       		.byte	-127
 1409 029e D2       		.byte	-46
 1410 029f 18       		.byte	24
 1411 02a0 D6       		.byte	-42
 1412 02a1 0F       		.byte	15
 1413 02a2 D8       		.byte	-40
 1414 02a3 06       		.byte	6
 1415 02a4 E4       		.byte	-28
 1416 02a5 0A       		.byte	10
 1417 02a6 0B       		.byte	11
 1418 02a7 20       		.byte	32
 1419 02a8 0C       		.byte	12
 1420 02a9 02       		.byte	2
 1421 02aa 4B       		.byte	75
 1422 02ab 20       		.byte	32
 1423 02ac 4C       		.byte	76
 1424 02ad 02       		.byte	2
 1425 02ae C2       		.byte	-62
 1426 02af 30       		.byte	48
 1427 02b0 D2       		.byte	-46
 1428 02b1 30       		.byte	48
 1429 02b2 09       		.byte	9
 1430 02b3 04       		.byte	4
 1431 02b4 0E       		.byte	14
 1432 02b5 20       		.byte	32
 1433 02b6 53       		.byte	83
ARM GAS  C:\Users\Chuck\AppData\Local\Temp\ccu1suQS.s 			page 40


 1434 02b7 10       		.byte	16
 1435 02b8 56       		.byte	86
 1436 02b9 08       		.byte	8
 1437 02ba 58       		.byte	88
 1438 02bb 10       		.byte	16
 1439 02bc 5E       		.byte	94
 1440 02bd 80       		.byte	-128
 1441 02be 6E       		.byte	110
 1442 02bf 02       		.byte	2
 1443 02c0 7A       		.byte	122
 1444 02c1 01       		.byte	1
 1445 02c2 7B       		.byte	123
 1446 02c3 01       		.byte	1
 1447 02c4 C2       		.byte	-62
 1448 02c5 0C       		.byte	12
 1449 02c6 D4       		.byte	-44
 1450 02c7 07       		.byte	7
 1451 02c8 D6       		.byte	-42
 1452 02c9 04       		.byte	4
 1453 02ca DC       		.byte	-36
 1454 02cb 03       		.byte	3
 1455 02cc 1C       		.byte	28
 1456 02cd 20       		.byte	32
 1457 02ce 54       		.byte	84
 1458 02cf 10       		.byte	16
 1459 02d0 63       		.byte	99
 1460 02d1 02       		.byte	2
 1461 02d2 84       		.byte	-124
 1462 02d3 10       		.byte	16
 1463 02d4 87       		.byte	-121
 1464 02d5 01       		.byte	1
 1465 02d6 8B       		.byte	-117
 1466 02d7 10       		.byte	16
 1467 02d8 8E       		.byte	-114
 1468 02d9 08       		.byte	8
 1469 02da 97       		.byte	-105
 1470 02db 20       		.byte	32
 1471 02dc 9C       		.byte	-100
 1472 02dd 10       		.byte	16
 1473 02de 9E       		.byte	-98
 1474 02df 08       		.byte	8
 1475 02e0 A7       		.byte	-89
 1476 02e1 01       		.byte	1
 1477 02e2 B2       		.byte	-78
 1478 02e3 50       		.byte	80
 1479 02e4 B5       		.byte	-75
 1480 02e5 04       		.byte	4
 1481 02e6 C6       		.byte	-58
 1482 02e7 04       		.byte	4
 1483 02e8 D4       		.byte	-44
 1484 02e9 02       		.byte	2
 1485 02ea D6       		.byte	-42
 1486 02eb 02       		.byte	2
 1487 02ec E0       		.byte	-32
 1488 02ed 0C       		.byte	12
 1489 02ee E8       		.byte	-24
 1490 02ef 04       		.byte	4
ARM GAS  C:\Users\Chuck\AppData\Local\Temp\ccu1suQS.s 			page 41


 1491 02f0 EA       		.byte	-22
 1492 02f1 01       		.byte	1
 1493 02f2 EE       		.byte	-18
 1494 02f3 02       		.byte	2
 1495 02f4 02       		.byte	2
 1496 02f5 01       		.byte	1
 1497 02f6 11       		.byte	17
 1498 02f7 01       		.byte	1
 1499              		.text
 1500              	.Letext0:
 1501              		.file 2 "c:\\program files (x86)\\cypress\\psoc creator\\3.3\\psoc creator\\import\\gnu\\arm\\4.9.
 1502              		.file 3 ".\\Generated_Source\\PSoC4\\cytypes.h"