ARM GAS  C:\Users\Chuck\AppData\Local\Temp\ccRFe4cO.s 			page 1


   1              		.cpu cortex-m0
   2              		.fpu softvfp
   3              		.eabi_attribute 20, 1
   4              		.eabi_attribute 21, 1
   5              		.eabi_attribute 23, 3
   6              		.eabi_attribute 24, 1
   7              		.eabi_attribute 25, 1
   8              		.eabi_attribute 26, 1
   9              		.eabi_attribute 30, 6
  10              		.eabi_attribute 34, 0
  11              		.eabi_attribute 18, 4
  12              		.code	16
  13              		.file	"CyLib.c"
  14              		.text
  15              	.Ltext0:
  16              		.cfi_sections	.debug_frame
  17              		.global	cydelayFreqHz
  18              		.data
  19              		.align	2
  20              		.type	cydelayFreqHz, %object
  21              		.size	cydelayFreqHz, 4
  22              	cydelayFreqHz:
  23 0000 00366E01 		.word	24000000
  24              		.global	cydelayFreqKhz
  25              		.align	2
  26              		.type	cydelayFreqKhz, %object
  27              		.size	cydelayFreqKhz, 4
  28              	cydelayFreqKhz:
  29 0004 C05D0000 		.word	24000
  30              		.global	cydelayFreqMhz
  31              		.type	cydelayFreqMhz, %object
  32              		.size	cydelayFreqMhz, 1
  33              	cydelayFreqMhz:
  34 0008 18       		.byte	24
  35              		.global	cydelay32kMs
  36 0009 000000   		.align	2
  37              		.type	cydelay32kMs, %object
  38              		.size	cydelay32kMs, 4
  39              	cydelay32kMs:
  40 000c 0000E02E 		.word	786432000
  41              		.section	.text.CySysClkImoStart,"ax",%progbits
  42              		.align	2
  43              		.global	CySysClkImoStart
  44              		.code	16
  45              		.thumb_func
  46              		.type	CySysClkImoStart, %function
  47              	CySysClkImoStart:
  48              	.LFB0:
  49              		.file 1 ".\\Generated_Source\\PSoC4\\CyLib.c"
   1:.\Generated_Source\PSoC4/CyLib.c **** /*******************************************************************************
   2:.\Generated_Source\PSoC4/CyLib.c **** * File Name: CyLib.c
   3:.\Generated_Source\PSoC4/CyLib.c **** * Version 4.10
   4:.\Generated_Source\PSoC4/CyLib.c **** *
   5:.\Generated_Source\PSoC4/CyLib.c **** *  Description:
   6:.\Generated_Source\PSoC4/CyLib.c **** *   Provides a system API for the clocking, interrupts, and watchdog timer.
   7:.\Generated_Source\PSoC4/CyLib.c **** *
   8:.\Generated_Source\PSoC4/CyLib.c **** *  Note:
ARM GAS  C:\Users\Chuck\AppData\Local\Temp\ccRFe4cO.s 			page 2


   9:.\Generated_Source\PSoC4/CyLib.c **** *   Documentation of the API's in this file is located in the
  10:.\Generated_Source\PSoC4/CyLib.c **** *   System Reference Guide provided with PSoC Creator.
  11:.\Generated_Source\PSoC4/CyLib.c **** *
  12:.\Generated_Source\PSoC4/CyLib.c **** ********************************************************************************
  13:.\Generated_Source\PSoC4/CyLib.c **** * Copyright 2010-2014, Cypress Semiconductor Corporation.  All rights reserved.
  14:.\Generated_Source\PSoC4/CyLib.c **** * You may use this file only in accordance with the license, terms, conditions,
  15:.\Generated_Source\PSoC4/CyLib.c **** * disclaimers, and limitations in the end user license agreement accompanying
  16:.\Generated_Source\PSoC4/CyLib.c **** * the software package with which this file was provided.
  17:.\Generated_Source\PSoC4/CyLib.c **** *******************************************************************************/
  18:.\Generated_Source\PSoC4/CyLib.c **** 
  19:.\Generated_Source\PSoC4/CyLib.c **** #include "CyLib.h"
  20:.\Generated_Source\PSoC4/CyLib.c **** 
  21:.\Generated_Source\PSoC4/CyLib.c **** 
  22:.\Generated_Source\PSoC4/CyLib.c **** /* Do not use these definitions directly in your application */
  23:.\Generated_Source\PSoC4/CyLib.c **** uint32 cydelayFreqHz  = CYDEV_BCLK__SYSCLK__HZ;
  24:.\Generated_Source\PSoC4/CyLib.c **** uint32 cydelayFreqKhz = (CYDEV_BCLK__SYSCLK__HZ + CY_DELAY_1K_MINUS_1_THRESHOLD) / CY_DELAY_1K_THRE
  25:.\Generated_Source\PSoC4/CyLib.c **** uint8  cydelayFreqMhz = (uint8)((CYDEV_BCLK__SYSCLK__HZ + CY_DELAY_1M_MINUS_1_THRESHOLD) / CY_DELAY
  26:.\Generated_Source\PSoC4/CyLib.c **** uint32 cydelay32kMs   = CY_DELAY_MS_OVERFLOW * ((CYDEV_BCLK__SYSCLK__HZ + CY_DELAY_1K_MINUS_1_THRES
  27:.\Generated_Source\PSoC4/CyLib.c ****                         CY_DELAY_1K_THRESHOLD);
  28:.\Generated_Source\PSoC4/CyLib.c **** 
  29:.\Generated_Source\PSoC4/CyLib.c **** 
  30:.\Generated_Source\PSoC4/CyLib.c **** /*******************************************************************************
  31:.\Generated_Source\PSoC4/CyLib.c **** * Function Name: CySysClkImoStart
  32:.\Generated_Source\PSoC4/CyLib.c **** ********************************************************************************
  33:.\Generated_Source\PSoC4/CyLib.c **** *
  34:.\Generated_Source\PSoC4/CyLib.c **** * Summary:
  35:.\Generated_Source\PSoC4/CyLib.c **** *  Enables the IMO.
  36:.\Generated_Source\PSoC4/CyLib.c **** *
  37:.\Generated_Source\PSoC4/CyLib.c **** * Parameters:
  38:.\Generated_Source\PSoC4/CyLib.c **** *  None
  39:.\Generated_Source\PSoC4/CyLib.c **** *
  40:.\Generated_Source\PSoC4/CyLib.c **** * Return:
  41:.\Generated_Source\PSoC4/CyLib.c **** *  None
  42:.\Generated_Source\PSoC4/CyLib.c **** *
  43:.\Generated_Source\PSoC4/CyLib.c **** *******************************************************************************/
  44:.\Generated_Source\PSoC4/CyLib.c **** void CySysClkImoStart(void)
  45:.\Generated_Source\PSoC4/CyLib.c **** {
  50              		.loc 1 45 0
  51              		.cfi_startproc
  52 0000 80B5     		push	{r7, lr}
  53              		.cfi_def_cfa_offset 8
  54              		.cfi_offset 7, -8
  55              		.cfi_offset 14, -4
  56 0002 00AF     		add	r7, sp, #0
  57              		.cfi_def_cfa_register 7
  46:.\Generated_Source\PSoC4/CyLib.c ****     CY_SYS_CLK_IMO_CONFIG_REG |= CY_SYS_CLK_IMO_CONFIG_ENABLE;
  58              		.loc 1 46 0
  59 0004 044B     		ldr	r3, .L2
  60 0006 044A     		ldr	r2, .L2
  61 0008 1268     		ldr	r2, [r2]
  62 000a 8021     		mov	r1, #128
  63 000c 0906     		lsl	r1, r1, #24
  64 000e 0A43     		orr	r2, r1
  65 0010 1A60     		str	r2, [r3]
  47:.\Generated_Source\PSoC4/CyLib.c **** }
  66              		.loc 1 47 0
  67 0012 BD46     		mov	sp, r7
ARM GAS  C:\Users\Chuck\AppData\Local\Temp\ccRFe4cO.s 			page 3


  68              		@ sp needed
  69 0014 80BD     		pop	{r7, pc}
  70              	.L3:
  71 0016 C046     		.align	2
  72              	.L2:
  73 0018 08010B40 		.word	1074462984
  74              		.cfi_endproc
  75              	.LFE0:
  76              		.size	CySysClkImoStart, .-CySysClkImoStart
  77              		.section	.text.CySysClkImoStop,"ax",%progbits
  78              		.align	2
  79              		.global	CySysClkImoStop
  80              		.code	16
  81              		.thumb_func
  82              		.type	CySysClkImoStop, %function
  83              	CySysClkImoStop:
  84              	.LFB1:
  48:.\Generated_Source\PSoC4/CyLib.c **** 
  49:.\Generated_Source\PSoC4/CyLib.c **** 
  50:.\Generated_Source\PSoC4/CyLib.c **** /*******************************************************************************
  51:.\Generated_Source\PSoC4/CyLib.c **** * Function Name: CySysClkImoStop
  52:.\Generated_Source\PSoC4/CyLib.c **** ********************************************************************************
  53:.\Generated_Source\PSoC4/CyLib.c **** *
  54:.\Generated_Source\PSoC4/CyLib.c **** * Summary:
  55:.\Generated_Source\PSoC4/CyLib.c **** *  Disables the IMO.
  56:.\Generated_Source\PSoC4/CyLib.c **** *
  57:.\Generated_Source\PSoC4/CyLib.c **** * Parameters:
  58:.\Generated_Source\PSoC4/CyLib.c **** *  None
  59:.\Generated_Source\PSoC4/CyLib.c **** *
  60:.\Generated_Source\PSoC4/CyLib.c **** * Return:
  61:.\Generated_Source\PSoC4/CyLib.c **** *  None
  62:.\Generated_Source\PSoC4/CyLib.c **** *
  63:.\Generated_Source\PSoC4/CyLib.c **** *******************************************************************************/
  64:.\Generated_Source\PSoC4/CyLib.c **** void CySysClkImoStop(void)
  65:.\Generated_Source\PSoC4/CyLib.c **** {
  85              		.loc 1 65 0
  86              		.cfi_startproc
  87 0000 80B5     		push	{r7, lr}
  88              		.cfi_def_cfa_offset 8
  89              		.cfi_offset 7, -8
  90              		.cfi_offset 14, -4
  91 0002 00AF     		add	r7, sp, #0
  92              		.cfi_def_cfa_register 7
  66:.\Generated_Source\PSoC4/CyLib.c ****     CY_SYS_CLK_IMO_CONFIG_REG &= ( uint32 ) ( ~( uint32 )CY_SYS_CLK_IMO_CONFIG_ENABLE);
  93              		.loc 1 66 0
  94 0004 034B     		ldr	r3, .L5
  95 0006 034A     		ldr	r2, .L5
  96 0008 1268     		ldr	r2, [r2]
  97 000a 5200     		lsl	r2, r2, #1
  98 000c 5208     		lsr	r2, r2, #1
  99 000e 1A60     		str	r2, [r3]
  67:.\Generated_Source\PSoC4/CyLib.c **** }
 100              		.loc 1 67 0
 101 0010 BD46     		mov	sp, r7
 102              		@ sp needed
 103 0012 80BD     		pop	{r7, pc}
 104              	.L6:
ARM GAS  C:\Users\Chuck\AppData\Local\Temp\ccRFe4cO.s 			page 4


 105              		.align	2
 106              	.L5:
 107 0014 08010B40 		.word	1074462984
 108              		.cfi_endproc
 109              	.LFE1:
 110              		.size	CySysClkImoStop, .-CySysClkImoStop
 111              		.section	.text.CySysClkIloStart,"ax",%progbits
 112              		.align	2
 113              		.global	CySysClkIloStart
 114              		.code	16
 115              		.thumb_func
 116              		.type	CySysClkIloStart, %function
 117              	CySysClkIloStart:
 118              	.LFB2:
  68:.\Generated_Source\PSoC4/CyLib.c **** 
  69:.\Generated_Source\PSoC4/CyLib.c **** 
  70:.\Generated_Source\PSoC4/CyLib.c **** /*******************************************************************************
  71:.\Generated_Source\PSoC4/CyLib.c **** * Function Name: CySysClkIloStart
  72:.\Generated_Source\PSoC4/CyLib.c **** ********************************************************************************
  73:.\Generated_Source\PSoC4/CyLib.c **** *
  74:.\Generated_Source\PSoC4/CyLib.c **** * Summary:
  75:.\Generated_Source\PSoC4/CyLib.c **** *  Enables the ILO.
  76:.\Generated_Source\PSoC4/CyLib.c **** *
  77:.\Generated_Source\PSoC4/CyLib.c **** * Parameters:
  78:.\Generated_Source\PSoC4/CyLib.c **** *  None
  79:.\Generated_Source\PSoC4/CyLib.c **** *
  80:.\Generated_Source\PSoC4/CyLib.c **** * Return:
  81:.\Generated_Source\PSoC4/CyLib.c **** *  None
  82:.\Generated_Source\PSoC4/CyLib.c **** *
  83:.\Generated_Source\PSoC4/CyLib.c **** *******************************************************************************/
  84:.\Generated_Source\PSoC4/CyLib.c **** void CySysClkIloStart(void)
  85:.\Generated_Source\PSoC4/CyLib.c **** {
 119              		.loc 1 85 0
 120              		.cfi_startproc
 121 0000 80B5     		push	{r7, lr}
 122              		.cfi_def_cfa_offset 8
 123              		.cfi_offset 7, -8
 124              		.cfi_offset 14, -4
 125 0002 00AF     		add	r7, sp, #0
 126              		.cfi_def_cfa_register 7
  86:.\Generated_Source\PSoC4/CyLib.c ****     CY_SYS_CLK_ILO_CONFIG_REG |= CY_SYS_CLK_ILO_CONFIG_ENABLE;
 127              		.loc 1 86 0
 128 0004 044B     		ldr	r3, .L8
 129 0006 044A     		ldr	r2, .L8
 130 0008 1268     		ldr	r2, [r2]
 131 000a 8021     		mov	r1, #128
 132 000c 0906     		lsl	r1, r1, #24
 133 000e 0A43     		orr	r2, r1
 134 0010 1A60     		str	r2, [r3]
  87:.\Generated_Source\PSoC4/CyLib.c **** }
 135              		.loc 1 87 0
 136 0012 BD46     		mov	sp, r7
 137              		@ sp needed
 138 0014 80BD     		pop	{r7, pc}
 139              	.L9:
 140 0016 C046     		.align	2
 141              	.L8:
ARM GAS  C:\Users\Chuck\AppData\Local\Temp\ccRFe4cO.s 			page 5


 142 0018 04010B40 		.word	1074462980
 143              		.cfi_endproc
 144              	.LFE2:
 145              		.size	CySysClkIloStart, .-CySysClkIloStart
 146              		.section	.text.CySysClkIloStop,"ax",%progbits
 147              		.align	2
 148              		.global	CySysClkIloStop
 149              		.code	16
 150              		.thumb_func
 151              		.type	CySysClkIloStop, %function
 152              	CySysClkIloStop:
 153              	.LFB3:
  88:.\Generated_Source\PSoC4/CyLib.c **** 
  89:.\Generated_Source\PSoC4/CyLib.c **** 
  90:.\Generated_Source\PSoC4/CyLib.c **** /*******************************************************************************
  91:.\Generated_Source\PSoC4/CyLib.c **** * Function Name: CySysClkIloStop
  92:.\Generated_Source\PSoC4/CyLib.c **** ********************************************************************************
  93:.\Generated_Source\PSoC4/CyLib.c **** *
  94:.\Generated_Source\PSoC4/CyLib.c **** * Summary:
  95:.\Generated_Source\PSoC4/CyLib.c **** *  Disables the ILO.
  96:.\Generated_Source\PSoC4/CyLib.c **** *
  97:.\Generated_Source\PSoC4/CyLib.c **** * Parameters:
  98:.\Generated_Source\PSoC4/CyLib.c **** *  None
  99:.\Generated_Source\PSoC4/CyLib.c **** *
 100:.\Generated_Source\PSoC4/CyLib.c **** * Return:
 101:.\Generated_Source\PSoC4/CyLib.c **** *  None
 102:.\Generated_Source\PSoC4/CyLib.c **** *
 103:.\Generated_Source\PSoC4/CyLib.c **** * Side Effects:
 104:.\Generated_Source\PSoC4/CyLib.c **** *  This function will have no effect if the WDT is locked (CySysWdtLock() is
 105:.\Generated_Source\PSoC4/CyLib.c **** *  called). Call CySysWdtUnlock() to unlock the WDT and be able to stop ILO.
 106:.\Generated_Source\PSoC4/CyLib.c **** *  Note that ILO is required for the WDT's operation.
 107:.\Generated_Source\PSoC4/CyLib.c **** *
 108:.\Generated_Source\PSoC4/CyLib.c **** *******************************************************************************/
 109:.\Generated_Source\PSoC4/CyLib.c **** void CySysClkIloStop(void)
 110:.\Generated_Source\PSoC4/CyLib.c **** {
 154              		.loc 1 110 0
 155              		.cfi_startproc
 156 0000 80B5     		push	{r7, lr}
 157              		.cfi_def_cfa_offset 8
 158              		.cfi_offset 7, -8
 159              		.cfi_offset 14, -4
 160 0002 00AF     		add	r7, sp, #0
 161              		.cfi_def_cfa_register 7
 111:.\Generated_Source\PSoC4/CyLib.c ****     CY_SYS_CLK_ILO_CONFIG_REG &= ( uint32 ) ( ~( uint32 )CY_SYS_CLK_ILO_CONFIG_ENABLE);
 162              		.loc 1 111 0
 163 0004 034B     		ldr	r3, .L11
 164 0006 034A     		ldr	r2, .L11
 165 0008 1268     		ldr	r2, [r2]
 166 000a 5200     		lsl	r2, r2, #1
 167 000c 5208     		lsr	r2, r2, #1
 168 000e 1A60     		str	r2, [r3]
 112:.\Generated_Source\PSoC4/CyLib.c **** }
 169              		.loc 1 112 0
 170 0010 BD46     		mov	sp, r7
 171              		@ sp needed
 172 0012 80BD     		pop	{r7, pc}
 173              	.L12:
ARM GAS  C:\Users\Chuck\AppData\Local\Temp\ccRFe4cO.s 			page 6


 174              		.align	2
 175              	.L11:
 176 0014 04010B40 		.word	1074462980
 177              		.cfi_endproc
 178              	.LFE3:
 179              		.size	CySysClkIloStop, .-CySysClkIloStop
 180              		.section	.text.CySysClkWriteHfclkDirect,"ax",%progbits
 181              		.align	2
 182              		.global	CySysClkWriteHfclkDirect
 183              		.code	16
 184              		.thumb_func
 185              		.type	CySysClkWriteHfclkDirect, %function
 186              	CySysClkWriteHfclkDirect:
 187              	.LFB4:
 113:.\Generated_Source\PSoC4/CyLib.c **** 
 114:.\Generated_Source\PSoC4/CyLib.c **** 
 115:.\Generated_Source\PSoC4/CyLib.c **** /*******************************************************************************
 116:.\Generated_Source\PSoC4/CyLib.c **** * Function Name: CySysClkWriteHfclkDirect
 117:.\Generated_Source\PSoC4/CyLib.c **** ********************************************************************************
 118:.\Generated_Source\PSoC4/CyLib.c **** *
 119:.\Generated_Source\PSoC4/CyLib.c **** * Summary:
 120:.\Generated_Source\PSoC4/CyLib.c **** *  Selects the direct source for the HFCLK.
 121:.\Generated_Source\PSoC4/CyLib.c **** *
 122:.\Generated_Source\PSoC4/CyLib.c **** * Parameters:
 123:.\Generated_Source\PSoC4/CyLib.c **** *  clkSelect: One of the available HFCLK direct sources:
 124:.\Generated_Source\PSoC4/CyLib.c **** *   Value        Define                    Source
 125:.\Generated_Source\PSoC4/CyLib.c **** *    0            CY_SYS_CLK_HFCLK_IMO      IMO
 126:.\Generated_Source\PSoC4/CyLib.c **** *    1            CY_SYS_CLK_HFCLK_EXTCLK   External clock pin
 127:.\Generated_Source\PSoC4/CyLib.c **** *
 128:.\Generated_Source\PSoC4/CyLib.c **** * Return:
 129:.\Generated_Source\PSoC4/CyLib.c **** *  None
 130:.\Generated_Source\PSoC4/CyLib.c **** *
 131:.\Generated_Source\PSoC4/CyLib.c **** * Side Effects:
 132:.\Generated_Source\PSoC4/CyLib.c **** *  The new source must be running and stable before calling this function.
 133:.\Generated_Source\PSoC4/CyLib.c **** *  Direct source is a default option for HFCLK.
 134:.\Generated_Source\PSoC4/CyLib.c **** *
 135:.\Generated_Source\PSoC4/CyLib.c **** *  If the SYSCLK clock frequency increases during device operation, call
 136:.\Generated_Source\PSoC4/CyLib.c **** *  CySysFlashSetWaitCycles() with the appropriate parameter to adjust the number
 137:.\Generated_Source\PSoC4/CyLib.c **** *  of clock cycles the cache will wait before sampling data comes back from Flash.
 138:.\Generated_Source\PSoC4/CyLib.c **** *  If the SYSCLK clock frequency decreases, you can call
 139:.\Generated_Source\PSoC4/CyLib.c **** *  CySysFlashSetWaitCycles() to improve the CPU performance. See
 140:.\Generated_Source\PSoC4/CyLib.c **** *  CySysFlashSetWaitCycles() description for more information.
 141:.\Generated_Source\PSoC4/CyLib.c **** *
 142:.\Generated_Source\PSoC4/CyLib.c **** *******************************************************************************/
 143:.\Generated_Source\PSoC4/CyLib.c **** void CySysClkWriteHfclkDirect(uint32 clkSelect)
 144:.\Generated_Source\PSoC4/CyLib.c **** {
 188              		.loc 1 144 0
 189              		.cfi_startproc
 190 0000 90B5     		push	{r4, r7, lr}
 191              		.cfi_def_cfa_offset 12
 192              		.cfi_offset 4, -12
 193              		.cfi_offset 7, -8
 194              		.cfi_offset 14, -4
 195 0002 85B0     		sub	sp, sp, #20
 196              		.cfi_def_cfa_offset 32
 197 0004 00AF     		add	r7, sp, #0
 198              		.cfi_def_cfa_register 7
ARM GAS  C:\Users\Chuck\AppData\Local\Temp\ccRFe4cO.s 			page 7


 199 0006 7860     		str	r0, [r7, #4]
 145:.\Generated_Source\PSoC4/CyLib.c ****     uint8  interruptState;
 146:.\Generated_Source\PSoC4/CyLib.c **** 
 147:.\Generated_Source\PSoC4/CyLib.c ****     interruptState = CyEnterCriticalSection();
 200              		.loc 1 147 0
 201 0008 0F23     		mov	r3, #15
 202 000a FC18     		add	r4, r7, r3
 203 000c FFF7FEFF 		bl	CyEnterCriticalSection
 204 0010 031C     		mov	r3, r0
 205 0012 2370     		strb	r3, [r4]
 148:.\Generated_Source\PSoC4/CyLib.c **** 
 149:.\Generated_Source\PSoC4/CyLib.c ****     CY_SYS_CLK_SELECT_REG = ((CY_SYS_CLK_SELECT_REG & (( uint32 ) ~(( uint32 )CY_SYS_CLK_SELECT_DIR
 206              		.loc 1 149 0
 207 0014 094B     		ldr	r3, .L14
 208 0016 094A     		ldr	r2, .L14
 209 0018 1268     		ldr	r2, [r2]
 210 001a 0721     		mov	r1, #7
 211 001c 8A43     		bic	r2, r1
 212 001e 111C     		mov	r1, r2
 150:.\Generated_Source\PSoC4/CyLib.c ****                         (( uint32 ) (clkSelect & ( uint32 )CY_SYS_CLK_SELECT_DIRECT_SEL_PARAM_MASK)
 213              		.loc 1 150 0
 214 0020 7A68     		ldr	r2, [r7, #4]
 215 0022 0120     		mov	r0, #1
 216 0024 0240     		and	r2, r0
 149:.\Generated_Source\PSoC4/CyLib.c ****                         (( uint32 ) (clkSelect & ( uint32 )CY_SYS_CLK_SELECT_DIRECT_SEL_PARAM_MASK)
 217              		.loc 1 149 0
 218 0026 0A43     		orr	r2, r1
 219 0028 1A60     		str	r2, [r3]
 151:.\Generated_Source\PSoC4/CyLib.c **** 
 152:.\Generated_Source\PSoC4/CyLib.c ****     CyExitCriticalSection(interruptState);
 220              		.loc 1 152 0
 221 002a 0F23     		mov	r3, #15
 222 002c FB18     		add	r3, r7, r3
 223 002e 1B78     		ldrb	r3, [r3]
 224 0030 181C     		mov	r0, r3
 225 0032 FFF7FEFF 		bl	CyExitCriticalSection
 153:.\Generated_Source\PSoC4/CyLib.c **** }
 226              		.loc 1 153 0
 227 0036 BD46     		mov	sp, r7
 228 0038 05B0     		add	sp, sp, #20
 229              		@ sp needed
 230 003a 90BD     		pop	{r4, r7, pc}
 231              	.L15:
 232              		.align	2
 233              	.L14:
 234 003c 00010B40 		.word	1074462976
 235              		.cfi_endproc
 236              	.LFE4:
 237              		.size	CySysClkWriteHfclkDirect, .-CySysClkWriteHfclkDirect
 238              		.section	.text.CySysClkWriteSysclkDiv,"ax",%progbits
 239              		.align	2
 240              		.global	CySysClkWriteSysclkDiv
 241              		.code	16
 242              		.thumb_func
 243              		.type	CySysClkWriteSysclkDiv, %function
 244              	CySysClkWriteSysclkDiv:
 245              	.LFB5:
ARM GAS  C:\Users\Chuck\AppData\Local\Temp\ccRFe4cO.s 			page 8


 154:.\Generated_Source\PSoC4/CyLib.c **** 
 155:.\Generated_Source\PSoC4/CyLib.c **** 
 156:.\Generated_Source\PSoC4/CyLib.c **** /*******************************************************************************
 157:.\Generated_Source\PSoC4/CyLib.c **** * Function Name: CySysClkWriteSysclkDiv
 158:.\Generated_Source\PSoC4/CyLib.c **** ********************************************************************************
 159:.\Generated_Source\PSoC4/CyLib.c **** *
 160:.\Generated_Source\PSoC4/CyLib.c **** * Summary:
 161:.\Generated_Source\PSoC4/CyLib.c **** *  Selects SYSCLK from HFCLK pre-scaler value.
 162:.\Generated_Source\PSoC4/CyLib.c **** *
 163:.\Generated_Source\PSoC4/CyLib.c **** * Parameters:
 164:.\Generated_Source\PSoC4/CyLib.c **** *  divider: Power of 2 prescaler selection
 165:.\Generated_Source\PSoC4/CyLib.c **** *
 166:.\Generated_Source\PSoC4/CyLib.c **** *   Define                        Description
 167:.\Generated_Source\PSoC4/CyLib.c **** *   CY_SYS_CLK_SYSCLK_DIV1        SYSCLK = HFCLK / 1
 168:.\Generated_Source\PSoC4/CyLib.c **** *   CY_SYS_CLK_SYSCLK_DIV2        SYSCLK = HFCLK / 2
 169:.\Generated_Source\PSoC4/CyLib.c **** *   CY_SYS_CLK_SYSCLK_DIV4        SYSCLK = HFCLK / 4
 170:.\Generated_Source\PSoC4/CyLib.c **** *   CY_SYS_CLK_SYSCLK_DIV8        SYSCLK = HFCLK / 8
 171:.\Generated_Source\PSoC4/CyLib.c **** *   CY_SYS_CLK_SYSCLK_DIV16       SYSCLK = HFCLK / 16  (N/A for 4000 Family)
 172:.\Generated_Source\PSoC4/CyLib.c **** *   CY_SYS_CLK_SYSCLK_DIV32       SYSCLK = HFCLK / 32  (N/A for 4000 Family)
 173:.\Generated_Source\PSoC4/CyLib.c **** *   CY_SYS_CLK_SYSCLK_DIV64       SYSCLK = HFCLK / 64  (N/A for 4000 Family)
 174:.\Generated_Source\PSoC4/CyLib.c **** *   CY_SYS_CLK_SYSCLK_DIV128      SYSCLK = HFCLK / 128 (N/A for 4000 Family)
 175:.\Generated_Source\PSoC4/CyLib.c **** *
 176:.\Generated_Source\PSoC4/CyLib.c **** * Return:
 177:.\Generated_Source\PSoC4/CyLib.c **** *  None
 178:.\Generated_Source\PSoC4/CyLib.c **** *
 179:.\Generated_Source\PSoC4/CyLib.c **** * Side Effects:
 180:.\Generated_Source\PSoC4/CyLib.c **** *  4000 Family:
 181:.\Generated_Source\PSoC4/CyLib.c **** *  The SYS_CLK has the speed of 16 MHz, so dividers HF_CLK and SYS_CLK
 182:.\Generated_Source\PSoC4/CyLib.c **** *  dividers should be selected in a way, not to exceed 16 MHz for SYS_CLK.
 183:.\Generated_Source\PSoC4/CyLib.c **** *
 184:.\Generated_Source\PSoC4/CyLib.c **** *  If the SYSCLK clock frequency increases during the device operation, call
 185:.\Generated_Source\PSoC4/CyLib.c **** *  CySysFlashSetWaitCycles() with the appropriate parameter to adjust the number
 186:.\Generated_Source\PSoC4/CyLib.c **** *  of clock cycles the cache will wait before sampling data comes?? back from Flash.
 187:.\Generated_Source\PSoC4/CyLib.c **** *  If the SYSCLK clock frequency decreases, you can call
 188:.\Generated_Source\PSoC4/CyLib.c **** *  CySysFlashSetWaitCycles() to improve the CPU performance. See
 189:.\Generated_Source\PSoC4/CyLib.c **** *  CySysFlashSetWaitCycles() description for more information.
 190:.\Generated_Source\PSoC4/CyLib.c **** *
 191:.\Generated_Source\PSoC4/CyLib.c **** *******************************************************************************/
 192:.\Generated_Source\PSoC4/CyLib.c **** void CySysClkWriteSysclkDiv(uint32 divider)
 193:.\Generated_Source\PSoC4/CyLib.c **** {
 246              		.loc 1 193 0
 247              		.cfi_startproc
 248 0000 90B5     		push	{r4, r7, lr}
 249              		.cfi_def_cfa_offset 12
 250              		.cfi_offset 4, -12
 251              		.cfi_offset 7, -8
 252              		.cfi_offset 14, -4
 253 0002 85B0     		sub	sp, sp, #20
 254              		.cfi_def_cfa_offset 32
 255 0004 00AF     		add	r7, sp, #0
 256              		.cfi_def_cfa_register 7
 257 0006 7860     		str	r0, [r7, #4]
 194:.\Generated_Source\PSoC4/CyLib.c ****     uint8  interruptState;
 195:.\Generated_Source\PSoC4/CyLib.c **** 
 196:.\Generated_Source\PSoC4/CyLib.c ****     interruptState = CyEnterCriticalSection();
 258              		.loc 1 196 0
 259 0008 0F23     		mov	r3, #15
ARM GAS  C:\Users\Chuck\AppData\Local\Temp\ccRFe4cO.s 			page 9


 260 000a FC18     		add	r4, r7, r3
 261 000c FFF7FEFF 		bl	CyEnterCriticalSection
 262 0010 031C     		mov	r3, r0
 263 0012 2370     		strb	r3, [r4]
 197:.\Generated_Source\PSoC4/CyLib.c **** 
 198:.\Generated_Source\PSoC4/CyLib.c ****     CY_SYS_CLK_SELECT_REG = ((uint32)(((uint32)divider & CY_SYS_CLK_SELECT_SYSCLK_DIV_MASK) <<
 264              		.loc 1 198 0
 265 0014 094B     		ldr	r3, .L17
 266 0016 7A68     		ldr	r2, [r7, #4]
 267 0018 0721     		mov	r1, #7
 268 001a 0A40     		and	r2, r1
 269 001c D104     		lsl	r1, r2, #19
 199:.\Generated_Source\PSoC4/CyLib.c ****                                     CY_SYS_CLK_SELECT_SYSCLK_DIV_SHIFT)) |
 200:.\Generated_Source\PSoC4/CyLib.c ****                             (CY_SYS_CLK_SELECT_REG & ((uint32)(~(uint32)(CY_SYS_CLK_SELECT_SYSCLK_D
 270              		.loc 1 200 0
 271 001e 074A     		ldr	r2, .L17
 272 0020 1268     		ldr	r2, [r2]
 273 0022 0748     		ldr	r0, .L17+4
 274 0024 0240     		and	r2, r0
 199:.\Generated_Source\PSoC4/CyLib.c ****                                     CY_SYS_CLK_SELECT_SYSCLK_DIV_SHIFT)) |
 275              		.loc 1 199 0
 276 0026 0A43     		orr	r2, r1
 198:.\Generated_Source\PSoC4/CyLib.c ****                                     CY_SYS_CLK_SELECT_SYSCLK_DIV_SHIFT)) |
 277              		.loc 1 198 0
 278 0028 1A60     		str	r2, [r3]
 201:.\Generated_Source\PSoC4/CyLib.c ****                                     CY_SYS_CLK_SELECT_SYSCLK_DIV_SHIFT))));
 202:.\Generated_Source\PSoC4/CyLib.c **** 
 203:.\Generated_Source\PSoC4/CyLib.c ****     CyExitCriticalSection(interruptState);
 279              		.loc 1 203 0
 280 002a 0F23     		mov	r3, #15
 281 002c FB18     		add	r3, r7, r3
 282 002e 1B78     		ldrb	r3, [r3]
 283 0030 181C     		mov	r0, r3
 284 0032 FFF7FEFF 		bl	CyExitCriticalSection
 204:.\Generated_Source\PSoC4/CyLib.c **** }
 285              		.loc 1 204 0
 286 0036 BD46     		mov	sp, r7
 287 0038 05B0     		add	sp, sp, #20
 288              		@ sp needed
 289 003a 90BD     		pop	{r4, r7, pc}
 290              	.L18:
 291              		.align	2
 292              	.L17:
 293 003c 00010B40 		.word	1074462976
 294 0040 FFFFC7FF 		.word	-3670017
 295              		.cfi_endproc
 296              	.LFE5:
 297              		.size	CySysClkWriteSysclkDiv, .-CySysClkWriteSysclkDiv
 298              		.section	.text.CySysClkWriteImoFreq,"ax",%progbits
 299              		.align	2
 300              		.global	CySysClkWriteImoFreq
 301              		.code	16
 302              		.thumb_func
 303              		.type	CySysClkWriteImoFreq, %function
 304              	CySysClkWriteImoFreq:
 305              	.LFB6:
 205:.\Generated_Source\PSoC4/CyLib.c **** 
ARM GAS  C:\Users\Chuck\AppData\Local\Temp\ccRFe4cO.s 			page 10


 206:.\Generated_Source\PSoC4/CyLib.c **** 
 207:.\Generated_Source\PSoC4/CyLib.c **** #if(CY_PSOC4A)
 208:.\Generated_Source\PSoC4/CyLib.c **** 
 209:.\Generated_Source\PSoC4/CyLib.c ****     /*******************************************************************************
 210:.\Generated_Source\PSoC4/CyLib.c ****     * Function Name: CySysClkWriteImoFreq
 211:.\Generated_Source\PSoC4/CyLib.c ****     ********************************************************************************
 212:.\Generated_Source\PSoC4/CyLib.c ****     *
 213:.\Generated_Source\PSoC4/CyLib.c ****     * Summary:
 214:.\Generated_Source\PSoC4/CyLib.c ****     *  Sets the frequency of the IMO.
 215:.\Generated_Source\PSoC4/CyLib.c ****     *
 216:.\Generated_Source\PSoC4/CyLib.c ****     * Parameters:
 217:.\Generated_Source\PSoC4/CyLib.c ****     *  freq: Valid range [3-48].  Frequency for operation of the IMO.
 218:.\Generated_Source\PSoC4/CyLib.c ****     *  Note: Invalid frequency will be ignored.
 219:.\Generated_Source\PSoC4/CyLib.c ****     *
 220:.\Generated_Source\PSoC4/CyLib.c ****     * Return:
 221:.\Generated_Source\PSoC4/CyLib.c ****     *  None
 222:.\Generated_Source\PSoC4/CyLib.c ****     *
 223:.\Generated_Source\PSoC4/CyLib.c ****     * Side Effects:
 224:.\Generated_Source\PSoC4/CyLib.c ****     *  If the SYSCLK clock frequency increases during the device operation, call
 225:.\Generated_Source\PSoC4/CyLib.c ****     *  CySysFlashSetWaitCycles() with the appropriate parameter to adjust the number
 226:.\Generated_Source\PSoC4/CyLib.c ****     *  of clock cycles the cache will wait before sampling data comes back from Flash.
 227:.\Generated_Source\PSoC4/CyLib.c ****     *  If the SYSCLK clock frequency decreases, you can call
 228:.\Generated_Source\PSoC4/CyLib.c ****     *  CySysFlashSetWaitCycles() to improve the CPU performance.
 229:.\Generated_Source\PSoC4/CyLib.c ****     *  See CySysFlashSetWaitCycles() description for more information.
 230:.\Generated_Source\PSoC4/CyLib.c ****     *
 231:.\Generated_Source\PSoC4/CyLib.c ****     *******************************************************************************/
 232:.\Generated_Source\PSoC4/CyLib.c ****     void CySysClkWriteImoFreq(uint32 freq)
 233:.\Generated_Source\PSoC4/CyLib.c ****     {
 306              		.loc 1 233 0
 307              		.cfi_startproc
 308 0000 90B5     		push	{r4, r7, lr}
 309              		.cfi_def_cfa_offset 12
 310              		.cfi_offset 4, -12
 311              		.cfi_offset 7, -8
 312              		.cfi_offset 14, -4
 313 0002 87B0     		sub	sp, sp, #28
 314              		.cfi_def_cfa_offset 40
 315 0004 00AF     		add	r7, sp, #0
 316              		.cfi_def_cfa_register 7
 317 0006 7860     		str	r0, [r7, #4]
 234:.\Generated_Source\PSoC4/CyLib.c ****         uint8  bgTrim4;
 235:.\Generated_Source\PSoC4/CyLib.c ****         uint8  bgTrim5;
 236:.\Generated_Source\PSoC4/CyLib.c ****         uint32 currentFreq = CY_SYS_CLK_IMO_MAX_FREQ_MHZ;
 318              		.loc 1 236 0
 319 0008 3023     		mov	r3, #48
 320 000a 3B61     		str	r3, [r7, #16]
 237:.\Generated_Source\PSoC4/CyLib.c ****         uint8  interruptState;
 238:.\Generated_Source\PSoC4/CyLib.c ****         uint32 i;
 239:.\Generated_Source\PSoC4/CyLib.c **** 
 240:.\Generated_Source\PSoC4/CyLib.c ****         /* Convertion between CySysClkWriteImoFreq() parameter and register's value */
 241:.\Generated_Source\PSoC4/CyLib.c ****         static const uint8 cyImoFreqMhz2Reg[CY_SYS_CLK_IMO_FREQ_TABLE_SIZE] = {
 242:.\Generated_Source\PSoC4/CyLib.c ****             /*  3 MHz */ 0x03u,  /*  4 MHz */ 0x04u,  /*  5 MHz */ 0x05u,  /*  6 MHz */ 0x06u,
 243:.\Generated_Source\PSoC4/CyLib.c ****             /*  7 MHz */ 0x07u,  /*  8 MHz */ 0x08u,  /*  9 MHz */ 0x09u,  /* 10 MHz */ 0x0Au,
 244:.\Generated_Source\PSoC4/CyLib.c ****             /* 11 MHz */ 0x0Bu,  /* 12 MHz */ 0x0Cu,  /* 13 MHz */ 0x0Eu,  /* 14 MHz */ 0x0Fu,
 245:.\Generated_Source\PSoC4/CyLib.c ****             /* 15 MHz */ 0x10u,  /* 16 MHz */ 0x11u,  /* 17 MHz */ 0x12u,  /* 18 MHz */ 0x13u,
 246:.\Generated_Source\PSoC4/CyLib.c ****             /* 19 MHz */ 0x14u,  /* 20 MHz */ 0x15u,  /* 21 MHz */ 0x16u,  /* 22 MHz */ 0x17u,
 247:.\Generated_Source\PSoC4/CyLib.c ****             /* 23 MHz */ 0x18u,  /* 24 MHz */ 0x19u,  /* 25 MHz */ 0x1Bu,  /* 26 MHz */ 0x1Cu,
ARM GAS  C:\Users\Chuck\AppData\Local\Temp\ccRFe4cO.s 			page 11


 248:.\Generated_Source\PSoC4/CyLib.c ****             /* 27 MHz */ 0x1Du,  /* 28 MHz */ 0x1Eu,  /* 29 MHz */ 0x1Fu,  /* 30 MHz */ 0x20u,
 249:.\Generated_Source\PSoC4/CyLib.c ****             /* 31 MHz */ 0x21u,  /* 32 MHz */ 0x22u,  /* 33 MHz */ 0x23u,  /* 34 MHz */ 0x25u,
 250:.\Generated_Source\PSoC4/CyLib.c ****             /* 35 MHz */ 0x26u,  /* 36 MHz */ 0x27u,  /* 37 MHz */ 0x28u,  /* 38 MHz */ 0x29u,
 251:.\Generated_Source\PSoC4/CyLib.c ****             /* 39 MHz */ 0x2Au,  /* 40 MHz */ 0x2Bu,  /* 41 MHz */ 0x2Eu,  /* 42 MHz */ 0x2Fu,
 252:.\Generated_Source\PSoC4/CyLib.c ****             /* 43 MHz */ 0x30u,  /* 44 MHz */ 0x31u,  /* 45 MHz */ 0x32u,  /* 46 MHz */ 0x33u,
 253:.\Generated_Source\PSoC4/CyLib.c ****             /* 47 MHz */ 0x34u,  /* 48 MHz */ 0x35u };
 254:.\Generated_Source\PSoC4/CyLib.c **** 
 255:.\Generated_Source\PSoC4/CyLib.c **** 
 256:.\Generated_Source\PSoC4/CyLib.c ****         if ((freq >= CY_SYS_CLK_IMO_MIN_FREQ_MHZ) && (freq <= CY_SYS_CLK_IMO_MAX_FREQ_MHZ))
 321              		.loc 1 256 0
 322 000c 7B68     		ldr	r3, [r7, #4]
 323 000e 022B     		cmp	r3, #2
 324 0010 00D8     		bhi	.LCB243
 325 0012 C9E0     		b	.L20	@long jump
 326              	.LCB243:
 327              		.loc 1 256 0 is_stmt 0 discriminator 1
 328 0014 7B68     		ldr	r3, [r7, #4]
 329 0016 302B     		cmp	r3, #48
 330 0018 00D9     		bls	.LCB246
 331 001a C5E0     		b	.L20	@long jump
 332              	.LCB246:
 257:.\Generated_Source\PSoC4/CyLib.c ****         {
 258:.\Generated_Source\PSoC4/CyLib.c ****             interruptState = CyEnterCriticalSection();
 333              		.loc 1 258 0 is_stmt 1
 334 001c 0B23     		mov	r3, #11
 335 001e FC18     		add	r4, r7, r3
 336 0020 FFF7FEFF 		bl	CyEnterCriticalSection
 337 0024 031C     		mov	r3, r0
 338 0026 2370     		strb	r3, [r4]
 259:.\Generated_Source\PSoC4/CyLib.c **** 
 260:.\Generated_Source\PSoC4/CyLib.c ****             /* Get current IMO frequency */
 261:.\Generated_Source\PSoC4/CyLib.c ****             for (i = 0u; i < CY_SYS_CLK_IMO_FREQ_TABLE_SIZE; i++)
 339              		.loc 1 261 0
 340 0028 0023     		mov	r3, #0
 341 002a FB60     		str	r3, [r7, #12]
 342 002c 11E0     		b	.L21
 343              	.L24:
 262:.\Generated_Source\PSoC4/CyLib.c ****             {
 263:.\Generated_Source\PSoC4/CyLib.c ****                 if (cyImoFreqMhz2Reg[i] == (CY_SYS_CLK_IMO_TRIM2_REG & CY_SYS_CLK_IMO_FREQ_BITS_MAS
 344              		.loc 1 263 0
 345 002e 614A     		ldr	r2, .L34
 346 0030 FB68     		ldr	r3, [r7, #12]
 347 0032 D318     		add	r3, r2, r3
 348 0034 1B78     		ldrb	r3, [r3]
 349 0036 191C     		mov	r1, r3
 350 0038 5F4B     		ldr	r3, .L34+4
 351 003a 1B68     		ldr	r3, [r3]
 352 003c 3F22     		mov	r2, #63
 353 003e 1340     		and	r3, r2
 354 0040 9942     		cmp	r1, r3
 355 0042 03D1     		bne	.L22
 264:.\Generated_Source\PSoC4/CyLib.c ****                 {
 265:.\Generated_Source\PSoC4/CyLib.c ****                     currentFreq = i + CY_SYS_CLK_IMO_FREQ_TABLE_OFFSET;
 356              		.loc 1 265 0
 357 0044 FB68     		ldr	r3, [r7, #12]
 358 0046 0333     		add	r3, r3, #3
 359 0048 3B61     		str	r3, [r7, #16]
ARM GAS  C:\Users\Chuck\AppData\Local\Temp\ccRFe4cO.s 			page 12


 266:.\Generated_Source\PSoC4/CyLib.c ****                     break;
 360              		.loc 1 266 0
 361 004a 05E0     		b	.L23
 362              	.L22:
 261:.\Generated_Source\PSoC4/CyLib.c ****             {
 363              		.loc 1 261 0 discriminator 2
 364 004c FB68     		ldr	r3, [r7, #12]
 365 004e 0133     		add	r3, r3, #1
 366 0050 FB60     		str	r3, [r7, #12]
 367              	.L21:
 261:.\Generated_Source\PSoC4/CyLib.c ****             {
 368              		.loc 1 261 0 is_stmt 0 discriminator 1
 369 0052 FB68     		ldr	r3, [r7, #12]
 370 0054 2D2B     		cmp	r3, #45
 371 0056 EAD9     		bls	.L24
 372              	.L23:
 267:.\Generated_Source\PSoC4/CyLib.c ****                 }
 268:.\Generated_Source\PSoC4/CyLib.c ****             }
 269:.\Generated_Source\PSoC4/CyLib.c **** 
 270:.\Generated_Source\PSoC4/CyLib.c ****             if(freq <= CY_SFLASH_IMO_MAXF0_REG)
 373              		.loc 1 270 0 is_stmt 1
 374 0058 584B     		ldr	r3, .L34+8
 375 005a 1B78     		ldrb	r3, [r3]
 376 005c DBB2     		uxtb	r3, r3
 377 005e 1A1E     		sub	r2, r3, #0
 378 0060 7B68     		ldr	r3, [r7, #4]
 379 0062 9A42     		cmp	r2, r3
 380 0064 0AD3     		bcc	.L25
 271:.\Generated_Source\PSoC4/CyLib.c ****             {
 272:.\Generated_Source\PSoC4/CyLib.c ****                 bgTrim4 = CY_SFLASH_IMO_ABS0_REG;
 381              		.loc 1 272 0
 382 0066 564A     		ldr	r2, .L34+12
 383 0068 1723     		mov	r3, #23
 384 006a FB18     		add	r3, r7, r3
 385 006c 1278     		ldrb	r2, [r2]
 386 006e 1A70     		strb	r2, [r3]
 273:.\Generated_Source\PSoC4/CyLib.c ****                 bgTrim5 = CY_SFLASH_IMO_TMPCO0_REG;
 387              		.loc 1 273 0
 388 0070 544A     		ldr	r2, .L34+16
 389 0072 1623     		mov	r3, #22
 390 0074 FB18     		add	r3, r7, r3
 391 0076 1278     		ldrb	r2, [r2]
 392 0078 1A70     		strb	r2, [r3]
 393 007a 3FE0     		b	.L26
 394              	.L25:
 274:.\Generated_Source\PSoC4/CyLib.c ****             }
 275:.\Generated_Source\PSoC4/CyLib.c ****             else if(freq <= CY_SFLASH_IMO_MAXF1_REG)
 395              		.loc 1 275 0
 396 007c 524B     		ldr	r3, .L34+20
 397 007e 1B78     		ldrb	r3, [r3]
 398 0080 DBB2     		uxtb	r3, r3
 399 0082 1A1E     		sub	r2, r3, #0
 400 0084 7B68     		ldr	r3, [r7, #4]
 401 0086 9A42     		cmp	r2, r3
 402 0088 0AD3     		bcc	.L27
 276:.\Generated_Source\PSoC4/CyLib.c ****             {
 277:.\Generated_Source\PSoC4/CyLib.c ****                 bgTrim4 = CY_SFLASH_IMO_ABS1_REG;
ARM GAS  C:\Users\Chuck\AppData\Local\Temp\ccRFe4cO.s 			page 13


 403              		.loc 1 277 0
 404 008a 504A     		ldr	r2, .L34+24
 405 008c 1723     		mov	r3, #23
 406 008e FB18     		add	r3, r7, r3
 407 0090 1278     		ldrb	r2, [r2]
 408 0092 1A70     		strb	r2, [r3]
 278:.\Generated_Source\PSoC4/CyLib.c ****                 bgTrim5 = CY_SFLASH_IMO_TMPCO1_REG;
 409              		.loc 1 278 0
 410 0094 4E4A     		ldr	r2, .L34+28
 411 0096 1623     		mov	r3, #22
 412 0098 FB18     		add	r3, r7, r3
 413 009a 1278     		ldrb	r2, [r2]
 414 009c 1A70     		strb	r2, [r3]
 415 009e 2DE0     		b	.L26
 416              	.L27:
 279:.\Generated_Source\PSoC4/CyLib.c ****             }
 280:.\Generated_Source\PSoC4/CyLib.c ****             else if(freq <= CY_SFLASH_IMO_MAXF2_REG)
 417              		.loc 1 280 0
 418 00a0 4C4B     		ldr	r3, .L34+32
 419 00a2 1B78     		ldrb	r3, [r3]
 420 00a4 DBB2     		uxtb	r3, r3
 421 00a6 1A1E     		sub	r2, r3, #0
 422 00a8 7B68     		ldr	r3, [r7, #4]
 423 00aa 9A42     		cmp	r2, r3
 424 00ac 0AD3     		bcc	.L28
 281:.\Generated_Source\PSoC4/CyLib.c ****             {
 282:.\Generated_Source\PSoC4/CyLib.c ****                 bgTrim4 = CY_SFLASH_IMO_ABS2_REG;
 425              		.loc 1 282 0
 426 00ae 4A4A     		ldr	r2, .L34+36
 427 00b0 1723     		mov	r3, #23
 428 00b2 FB18     		add	r3, r7, r3
 429 00b4 1278     		ldrb	r2, [r2]
 430 00b6 1A70     		strb	r2, [r3]
 283:.\Generated_Source\PSoC4/CyLib.c ****                 bgTrim5 = CY_SFLASH_IMO_TMPCO2_REG;
 431              		.loc 1 283 0
 432 00b8 484A     		ldr	r2, .L34+40
 433 00ba 1623     		mov	r3, #22
 434 00bc FB18     		add	r3, r7, r3
 435 00be 1278     		ldrb	r2, [r2]
 436 00c0 1A70     		strb	r2, [r3]
 437 00c2 1BE0     		b	.L26
 438              	.L28:
 284:.\Generated_Source\PSoC4/CyLib.c ****             }
 285:.\Generated_Source\PSoC4/CyLib.c ****             else if(freq <= CY_SFLASH_IMO_MAXF3_REG)
 439              		.loc 1 285 0
 440 00c4 464B     		ldr	r3, .L34+44
 441 00c6 1B78     		ldrb	r3, [r3]
 442 00c8 DBB2     		uxtb	r3, r3
 443 00ca 1A1E     		sub	r2, r3, #0
 444 00cc 7B68     		ldr	r3, [r7, #4]
 445 00ce 9A42     		cmp	r2, r3
 446 00d0 0AD3     		bcc	.L29
 286:.\Generated_Source\PSoC4/CyLib.c ****             {
 287:.\Generated_Source\PSoC4/CyLib.c ****                 bgTrim4 = CY_SFLASH_IMO_ABS3_REG;
 447              		.loc 1 287 0
 448 00d2 444A     		ldr	r2, .L34+48
 449 00d4 1723     		mov	r3, #23
ARM GAS  C:\Users\Chuck\AppData\Local\Temp\ccRFe4cO.s 			page 14


 450 00d6 FB18     		add	r3, r7, r3
 451 00d8 1278     		ldrb	r2, [r2]
 452 00da 1A70     		strb	r2, [r3]
 288:.\Generated_Source\PSoC4/CyLib.c ****                 bgTrim5 = CY_SFLASH_IMO_TMPCO3_REG;
 453              		.loc 1 288 0
 454 00dc 424A     		ldr	r2, .L34+52
 455 00de 1623     		mov	r3, #22
 456 00e0 FB18     		add	r3, r7, r3
 457 00e2 1278     		ldrb	r2, [r2]
 458 00e4 1A70     		strb	r2, [r3]
 459 00e6 09E0     		b	.L26
 460              	.L29:
 289:.\Generated_Source\PSoC4/CyLib.c ****             }
 290:.\Generated_Source\PSoC4/CyLib.c ****             else
 291:.\Generated_Source\PSoC4/CyLib.c ****             {
 292:.\Generated_Source\PSoC4/CyLib.c ****                 bgTrim4 = CY_SFLASH_IMO_ABS4_REG;
 461              		.loc 1 292 0
 462 00e8 404A     		ldr	r2, .L34+56
 463 00ea 1723     		mov	r3, #23
 464 00ec FB18     		add	r3, r7, r3
 465 00ee 1278     		ldrb	r2, [r2]
 466 00f0 1A70     		strb	r2, [r3]
 293:.\Generated_Source\PSoC4/CyLib.c ****                 bgTrim5 = CY_SFLASH_IMO_TMPCO4_REG;
 467              		.loc 1 293 0
 468 00f2 3F4A     		ldr	r2, .L34+60
 469 00f4 1623     		mov	r3, #22
 470 00f6 FB18     		add	r3, r7, r3
 471 00f8 1278     		ldrb	r2, [r2]
 472 00fa 1A70     		strb	r2, [r3]
 473              	.L26:
 294:.\Generated_Source\PSoC4/CyLib.c ****             }
 295:.\Generated_Source\PSoC4/CyLib.c **** 
 296:.\Generated_Source\PSoC4/CyLib.c **** 
 297:.\Generated_Source\PSoC4/CyLib.c ****             /***************************************************************************
 298:.\Generated_Source\PSoC4/CyLib.c ****             * The IMO can have a different trim per frequency. To avoid possible corner
 299:.\Generated_Source\PSoC4/CyLib.c ****             * cases where a trim change can exceed the maximum frequency, the trim must
 300:.\Generated_Source\PSoC4/CyLib.c ****             * be applied at a frequency that is low enough.
 301:.\Generated_Source\PSoC4/CyLib.c ****             ***************************************************************************/
 302:.\Generated_Source\PSoC4/CyLib.c ****             if ((currentFreq >= CY_SYS_CLK_IMO_BOUNDARY_FREQ_MHZ) && (freq >= CY_SYS_CLK_IMO_BOUNDA
 474              		.loc 1 302 0
 475 00fc 3B69     		ldr	r3, [r7, #16]
 476 00fe 2A2B     		cmp	r3, #42
 477 0100 0AD9     		bls	.L30
 478              		.loc 1 302 0 is_stmt 0 discriminator 1
 479 0102 7B68     		ldr	r3, [r7, #4]
 480 0104 2A2B     		cmp	r3, #42
 481 0106 07D9     		bls	.L30
 303:.\Generated_Source\PSoC4/CyLib.c ****             {
 304:.\Generated_Source\PSoC4/CyLib.c ****                 /* Set boundary IMO frequency: safe for IMO above 48 MHZ trimming */
 305:.\Generated_Source\PSoC4/CyLib.c ****                 CY_SYS_CLK_IMO_TRIM2_REG = (uint32) cyImoFreqMhz2Reg[CY_SYS_CLK_IMO_TEMP_FREQ_MHZ -
 482              		.loc 1 305 0 is_stmt 1
 483 0108 2B4B     		ldr	r3, .L34+4
 484 010a 1922     		mov	r2, #25
 485 010c 1A60     		str	r2, [r3]
 306:.\Generated_Source\PSoC4/CyLib.c ****                                                                      CY_SYS_CLK_IMO_FREQ_TABLE_OFFS
 307:.\Generated_Source\PSoC4/CyLib.c **** 
 308:.\Generated_Source\PSoC4/CyLib.c ****                 CyDelayCycles(CY_SYS_CLK_IMO_FREQ_TIMEOUT_CYCLES);
ARM GAS  C:\Users\Chuck\AppData\Local\Temp\ccRFe4cO.s 			page 15


 486              		.loc 1 308 0
 487 010e 0520     		mov	r0, #5
 488 0110 FFF7FEFF 		bl	CyDelayCycles
 309:.\Generated_Source\PSoC4/CyLib.c **** 
 310:.\Generated_Source\PSoC4/CyLib.c ****                 currentFreq = CY_SYS_CLK_IMO_TEMP_FREQ_MHZ;
 489              		.loc 1 310 0
 490 0114 1823     		mov	r3, #24
 491 0116 3B61     		str	r3, [r7, #16]
 492              	.L30:
 311:.\Generated_Source\PSoC4/CyLib.c ****             }
 312:.\Generated_Source\PSoC4/CyLib.c **** 
 313:.\Generated_Source\PSoC4/CyLib.c **** 
 314:.\Generated_Source\PSoC4/CyLib.c ****             /***************************************************************************
 315:.\Generated_Source\PSoC4/CyLib.c ****             * A trim change needs to be allowed to settle (within 5us) before the Freq can be
 316:.\Generated_Source\PSoC4/CyLib.c ****             * changed to a new frequency.
 317:.\Generated_Source\PSoC4/CyLib.c ****             ***************************************************************************/
 318:.\Generated_Source\PSoC4/CyLib.c ****             if (freq > currentFreq)
 493              		.loc 1 318 0
 494 0118 7A68     		ldr	r2, [r7, #4]
 495 011a 3B69     		ldr	r3, [r7, #16]
 496 011c 9A42     		cmp	r2, r3
 497 011e 1ED9     		bls	.L31
 319:.\Generated_Source\PSoC4/CyLib.c ****             {
 320:.\Generated_Source\PSoC4/CyLib.c ****                 /* Set trims for the new IMO frequency */
 321:.\Generated_Source\PSoC4/CyLib.c ****                 CY_SYS_CLK_IMO_TRIM1_REG = (uint32) CY_SFLASH_IMO_TRIM_REG(freq - CY_SYS_CLK_IMO_FR
 498              		.loc 1 321 0
 499 0120 344B     		ldr	r3, .L34+64
 500 0122 7A68     		ldr	r2, [r7, #4]
 501 0124 3249     		ldr	r1, .L34+60
 502 0126 8C46     		mov	ip, r1
 503 0128 6244     		add	r2, r2, ip
 504 012a 1278     		ldrb	r2, [r2]
 505 012c D2B2     		uxtb	r2, r2
 506 012e 1A60     		str	r2, [r3]
 322:.\Generated_Source\PSoC4/CyLib.c ****                 CY_PWR_BG_TRIM4_REG  = bgTrim4;
 507              		.loc 1 322 0
 508 0130 314B     		ldr	r3, .L34+68
 509 0132 1722     		mov	r2, #23
 510 0134 BA18     		add	r2, r7, r2
 511 0136 1278     		ldrb	r2, [r2]
 512 0138 1A60     		str	r2, [r3]
 323:.\Generated_Source\PSoC4/CyLib.c ****                 CY_PWR_BG_TRIM5_REG  = bgTrim5;
 513              		.loc 1 323 0
 514 013a 304B     		ldr	r3, .L34+72
 515 013c 1622     		mov	r2, #22
 516 013e BA18     		add	r2, r7, r2
 517 0140 1278     		ldrb	r2, [r2]
 518 0142 1A60     		str	r2, [r3]
 324:.\Generated_Source\PSoC4/CyLib.c ****                 CyDelayUs(CY_SYS_CLK_IMO_TRIM_TIMEOUT_US);
 519              		.loc 1 324 0
 520 0144 0520     		mov	r0, #5
 521 0146 FFF7FEFF 		bl	CyDelayUs
 325:.\Generated_Source\PSoC4/CyLib.c **** 
 326:.\Generated_Source\PSoC4/CyLib.c ****                 /* Set new IMO frequency */
 327:.\Generated_Source\PSoC4/CyLib.c ****                 CY_SYS_CLK_IMO_TRIM2_REG = cyImoFreqMhz2Reg[freq - CY_SYS_CLK_IMO_FREQ_TABLE_OFFSET
 522              		.loc 1 327 0
 523 014a 1B4B     		ldr	r3, .L34+4
ARM GAS  C:\Users\Chuck\AppData\Local\Temp\ccRFe4cO.s 			page 16


 524 014c 7A68     		ldr	r2, [r7, #4]
 525 014e 033A     		sub	r2, r2, #3
 526 0150 1849     		ldr	r1, .L34
 527 0152 8A5C     		ldrb	r2, [r1, r2]
 528 0154 1A60     		str	r2, [r3]
 328:.\Generated_Source\PSoC4/CyLib.c ****                 CyDelayCycles(CY_SYS_CLK_IMO_FREQ_TIMEOUT_CYCLES);
 529              		.loc 1 328 0
 530 0156 0520     		mov	r0, #5
 531 0158 FFF7FEFF 		bl	CyDelayCycles
 532 015c 1DE0     		b	.L32
 533              	.L31:
 329:.\Generated_Source\PSoC4/CyLib.c ****             }
 330:.\Generated_Source\PSoC4/CyLib.c ****             else
 331:.\Generated_Source\PSoC4/CyLib.c ****             {
 332:.\Generated_Source\PSoC4/CyLib.c ****                 /* Set new IMO frequency */
 333:.\Generated_Source\PSoC4/CyLib.c ****                 CY_SYS_CLK_IMO_TRIM2_REG = cyImoFreqMhz2Reg[freq - CY_SYS_CLK_IMO_FREQ_TABLE_OFFSET
 534              		.loc 1 333 0
 535 015e 164B     		ldr	r3, .L34+4
 536 0160 7A68     		ldr	r2, [r7, #4]
 537 0162 033A     		sub	r2, r2, #3
 538 0164 1349     		ldr	r1, .L34
 539 0166 8A5C     		ldrb	r2, [r1, r2]
 540 0168 1A60     		str	r2, [r3]
 334:.\Generated_Source\PSoC4/CyLib.c ****                 CyDelayCycles(CY_SYS_CLK_IMO_FREQ_TIMEOUT_CYCLES);
 541              		.loc 1 334 0
 542 016a 0520     		mov	r0, #5
 543 016c FFF7FEFF 		bl	CyDelayCycles
 335:.\Generated_Source\PSoC4/CyLib.c **** 
 336:.\Generated_Source\PSoC4/CyLib.c ****                 /* Set trims for the new IMO frequency */
 337:.\Generated_Source\PSoC4/CyLib.c ****                 CY_SYS_CLK_IMO_TRIM1_REG = CY_SFLASH_IMO_TRIM_REG(freq - CY_SYS_CLK_IMO_FREQ_TABLE_
 544              		.loc 1 337 0
 545 0170 204B     		ldr	r3, .L34+64
 546 0172 7A68     		ldr	r2, [r7, #4]
 547 0174 1E49     		ldr	r1, .L34+60
 548 0176 8C46     		mov	ip, r1
 549 0178 6244     		add	r2, r2, ip
 550 017a 1278     		ldrb	r2, [r2]
 551 017c D2B2     		uxtb	r2, r2
 552 017e 1A60     		str	r2, [r3]
 338:.\Generated_Source\PSoC4/CyLib.c ****                 CY_PWR_BG_TRIM4_REG  = bgTrim4;
 553              		.loc 1 338 0
 554 0180 1D4B     		ldr	r3, .L34+68
 555 0182 1722     		mov	r2, #23
 556 0184 BA18     		add	r2, r7, r2
 557 0186 1278     		ldrb	r2, [r2]
 558 0188 1A60     		str	r2, [r3]
 339:.\Generated_Source\PSoC4/CyLib.c ****                 CY_PWR_BG_TRIM5_REG  = bgTrim5;
 559              		.loc 1 339 0
 560 018a 1C4B     		ldr	r3, .L34+72
 561 018c 1622     		mov	r2, #22
 562 018e BA18     		add	r2, r7, r2
 563 0190 1278     		ldrb	r2, [r2]
 564 0192 1A60     		str	r2, [r3]
 340:.\Generated_Source\PSoC4/CyLib.c ****                 CyDelayUs(CY_SYS_CLK_IMO_TRIM_TIMEOUT_US);
 565              		.loc 1 340 0
 566 0194 0520     		mov	r0, #5
 567 0196 FFF7FEFF 		bl	CyDelayUs
ARM GAS  C:\Users\Chuck\AppData\Local\Temp\ccRFe4cO.s 			page 17


 568              	.L32:
 341:.\Generated_Source\PSoC4/CyLib.c ****             }
 342:.\Generated_Source\PSoC4/CyLib.c **** 
 343:.\Generated_Source\PSoC4/CyLib.c ****             CyExitCriticalSection(interruptState);
 569              		.loc 1 343 0
 570 019a 0B23     		mov	r3, #11
 571 019c FB18     		add	r3, r7, r3
 572 019e 1B78     		ldrb	r3, [r3]
 573 01a0 181C     		mov	r0, r3
 574 01a2 FFF7FEFF 		bl	CyExitCriticalSection
 575 01a6 02E0     		b	.L19
 576              	.L20:
 344:.\Generated_Source\PSoC4/CyLib.c ****         }
 345:.\Generated_Source\PSoC4/CyLib.c ****         else
 346:.\Generated_Source\PSoC4/CyLib.c ****         {
 347:.\Generated_Source\PSoC4/CyLib.c ****             /* Halt CPU in debug mode if new frequency is invalid */
 348:.\Generated_Source\PSoC4/CyLib.c ****             CYASSERT(0u != 0u);
 577              		.loc 1 348 0 discriminator 1
 578 01a8 0020     		mov	r0, #0
 579 01aa FFF7FEFF 		bl	CyHalt
 580              	.L19:
 349:.\Generated_Source\PSoC4/CyLib.c ****         }
 350:.\Generated_Source\PSoC4/CyLib.c ****     }
 581              		.loc 1 350 0
 582 01ae BD46     		mov	sp, r7
 583 01b0 07B0     		add	sp, sp, #28
 584              		@ sp needed
 585 01b2 90BD     		pop	{r4, r7, pc}
 586              	.L35:
 587              		.align	2
 588              	.L34:
 589 01b4 00000000 		.word	cyImoFreqMhz2Reg.4640
 590 01b8 2CFF0B40 		.word	1074528044
 591 01bc C0F1FF0F 		.word	268431808
 592 01c0 C1F1FF0F 		.word	268431809
 593 01c4 C2F1FF0F 		.word	268431810
 594 01c8 C3F1FF0F 		.word	268431811
 595 01cc C4F1FF0F 		.word	268431812
 596 01d0 C5F1FF0F 		.word	268431813
 597 01d4 C6F1FF0F 		.word	268431814
 598 01d8 C7F1FF0F 		.word	268431815
 599 01dc C8F1FF0F 		.word	268431816
 600 01e0 C9F1FF0F 		.word	268431817
 601 01e4 CAF1FF0F 		.word	268431818
 602 01e8 CBF1FF0F 		.word	268431819
 603 01ec CCF1FF0F 		.word	268431820
 604 01f0 CDF1FF0F 		.word	268431821
 605 01f4 28FF0B40 		.word	1074528040
 606 01f8 1CFF0B40 		.word	1074528028
 607 01fc 20FF0B40 		.word	1074528032
 608              		.cfi_endproc
 609              	.LFE6:
 610              		.size	CySysClkWriteImoFreq, .-CySysClkWriteImoFreq
 611              		.section	.text.CySysWdtLock,"ax",%progbits
 612              		.align	2
 613              		.global	CySysWdtLock
 614              		.code	16
ARM GAS  C:\Users\Chuck\AppData\Local\Temp\ccRFe4cO.s 			page 18


 615              		.thumb_func
 616              		.type	CySysWdtLock, %function
 617              	CySysWdtLock:
 618              	.LFB7:
 351:.\Generated_Source\PSoC4/CyLib.c **** 
 352:.\Generated_Source\PSoC4/CyLib.c **** 
 353:.\Generated_Source\PSoC4/CyLib.c **** #else
 354:.\Generated_Source\PSoC4/CyLib.c **** 
 355:.\Generated_Source\PSoC4/CyLib.c **** 
 356:.\Generated_Source\PSoC4/CyLib.c ****     /*******************************************************************************
 357:.\Generated_Source\PSoC4/CyLib.c ****     * Function Name: CySysClkWriteHfclkDiv
 358:.\Generated_Source\PSoC4/CyLib.c ****     ********************************************************************************
 359:.\Generated_Source\PSoC4/CyLib.c ****     *
 360:.\Generated_Source\PSoC4/CyLib.c ****     * Summary:
 361:.\Generated_Source\PSoC4/CyLib.c ****     *  Selects HF clk predivider value.
 362:.\Generated_Source\PSoC4/CyLib.c ****     *
 363:.\Generated_Source\PSoC4/CyLib.c ****     * Parameters:
 364:.\Generated_Source\PSoC4/CyLib.c ****     *  divider: HF clock divider value
 365:.\Generated_Source\PSoC4/CyLib.c ****     *   Define                        Description
 366:.\Generated_Source\PSoC4/CyLib.c ****     *   CY_SYS_CLK_HFCLK_DIV_NODIV    Transparent mode (w/o dividing)
 367:.\Generated_Source\PSoC4/CyLib.c ****     *   CY_SYS_CLK_HFCLK_DIV_2        Divide selected clock source by 2
 368:.\Generated_Source\PSoC4/CyLib.c ****     *   CY_SYS_CLK_HFCLK_DIV_4        Divide selected clock source by 4
 369:.\Generated_Source\PSoC4/CyLib.c ****     *   CY_SYS_CLK_HFCLK_DIV_8        Divide selected clock source by 8
 370:.\Generated_Source\PSoC4/CyLib.c ****     *
 371:.\Generated_Source\PSoC4/CyLib.c ****     * Return:
 372:.\Generated_Source\PSoC4/CyLib.c ****     *  None
 373:.\Generated_Source\PSoC4/CyLib.c ****     *
 374:.\Generated_Source\PSoC4/CyLib.c ****     * Side Effects:
 375:.\Generated_Source\PSoC4/CyLib.c ****     *  If the SYSCLK clock frequency increases during the device operation, call
 376:.\Generated_Source\PSoC4/CyLib.c ****     *  CySysFlashSetWaitCycles() with the appropriate parameter to adjust the number
 377:.\Generated_Source\PSoC4/CyLib.c ****     *  of clock cycles the cache will wait before sampling data comes back from Flash.
 378:.\Generated_Source\PSoC4/CyLib.c ****     *  If the SYSCLK clock frequency decreases, you can call
 379:.\Generated_Source\PSoC4/CyLib.c ****     *  CySysFlashSetWaitCycles() to improve the CPU performance. See
 380:.\Generated_Source\PSoC4/CyLib.c ****     *  CySysFlashSetWaitCycles() description for more information.
 381:.\Generated_Source\PSoC4/CyLib.c ****     *
 382:.\Generated_Source\PSoC4/CyLib.c **** 
 383:.\Generated_Source\PSoC4/CyLib.c ****     *
 384:.\Generated_Source\PSoC4/CyLib.c ****     *******************************************************************************/
 385:.\Generated_Source\PSoC4/CyLib.c ****     void CySysClkWriteHfclkDiv(uint32 divider)
 386:.\Generated_Source\PSoC4/CyLib.c ****     {
 387:.\Generated_Source\PSoC4/CyLib.c ****         uint8  interruptState;
 388:.\Generated_Source\PSoC4/CyLib.c **** 
 389:.\Generated_Source\PSoC4/CyLib.c ****         interruptState = CyEnterCriticalSection();
 390:.\Generated_Source\PSoC4/CyLib.c **** 
 391:.\Generated_Source\PSoC4/CyLib.c ****         CY_SYS_CLK_SELECT_REG = ((CY_SYS_CLK_SELECT_REG & ((uint32) (~(CY_SYS_CLK_SELECT_HFCLK_DIV_
 392:.\Generated_Source\PSoC4/CyLib.c ****                                         CY_SYS_CLK_SELECT_HFCLK_DIV_SHIFT)))) |
 393:.\Generated_Source\PSoC4/CyLib.c ****                     ((uint32)((divider & CY_SYS_CLK_SELECT_HFCLK_DIV_MASK) << CY_SYS_CLK_SELECT_HFC
 394:.\Generated_Source\PSoC4/CyLib.c **** 
 395:.\Generated_Source\PSoC4/CyLib.c ****         CyExitCriticalSection(interruptState);
 396:.\Generated_Source\PSoC4/CyLib.c ****     }
 397:.\Generated_Source\PSoC4/CyLib.c **** 
 398:.\Generated_Source\PSoC4/CyLib.c **** 
 399:.\Generated_Source\PSoC4/CyLib.c ****     /*******************************************************************************
 400:.\Generated_Source\PSoC4/CyLib.c ****     * Function Name: CySysClkWriteImoFreq
 401:.\Generated_Source\PSoC4/CyLib.c ****     ********************************************************************************
 402:.\Generated_Source\PSoC4/CyLib.c ****     *
 403:.\Generated_Source\PSoC4/CyLib.c ****     * Summary:
ARM GAS  C:\Users\Chuck\AppData\Local\Temp\ccRFe4cO.s 			page 19


 404:.\Generated_Source\PSoC4/CyLib.c ****     *  Sets the frequency of the IMO.
 405:.\Generated_Source\PSoC4/CyLib.c ****     *
 406:.\Generated_Source\PSoC4/CyLib.c ****     * Parameters:
 407:.\Generated_Source\PSoC4/CyLib.c ****     *  freq: Valid values are 24, 32 and 48 MHz.
 408:.\Generated_Source\PSoC4/CyLib.c ****     *
 409:.\Generated_Source\PSoC4/CyLib.c ****     *  Note: The CPU is halted if new frequency is invalid and project is
 410:.\Generated_Source\PSoC4/CyLib.c ****     *  compiled in debug mode.
 411:.\Generated_Source\PSoC4/CyLib.c ****     *
 412:.\Generated_Source\PSoC4/CyLib.c ****     * Return:
 413:.\Generated_Source\PSoC4/CyLib.c ****     *  None
 414:.\Generated_Source\PSoC4/CyLib.c ****     *
 415:.\Generated_Source\PSoC4/CyLib.c ****     * Side Effects:
 416:.\Generated_Source\PSoC4/CyLib.c ****     *  If the SYSCLK clock frequency increases during the device operation, call
 417:.\Generated_Source\PSoC4/CyLib.c ****     *  CySysFlashSetWaitCycles() with the appropriate parameter to adjust the number
 418:.\Generated_Source\PSoC4/CyLib.c ****     *  of clock cycles the cache will wait before sampling data comes back from Flash.
 419:.\Generated_Source\PSoC4/CyLib.c ****     *  If the SYSCLK clock frequency decreases, you can call
 420:.\Generated_Source\PSoC4/CyLib.c ****     *  CySysFlashSetWaitCycles() to improve the CPU performance. See
 421:.\Generated_Source\PSoC4/CyLib.c ****     *  CySysFlashSetWaitCycles() description for more information.
 422:.\Generated_Source\PSoC4/CyLib.c ****     *
 423:.\Generated_Source\PSoC4/CyLib.c ****     *  The System Clock (SYSCLK) has maximum speed of 16 MHz, so HFCLK and SYSCLK
 424:.\Generated_Source\PSoC4/CyLib.c ****     *  dividers should be selected in a way, to not to exceed 16 MHz for the System
 425:.\Generated_Source\PSoC4/CyLib.c ****     *  clock.
 426:.\Generated_Source\PSoC4/CyLib.c ****     *
 427:.\Generated_Source\PSoC4/CyLib.c ****     *******************************************************************************/
 428:.\Generated_Source\PSoC4/CyLib.c ****     void CySysClkWriteImoFreq(uint32 freq)
 429:.\Generated_Source\PSoC4/CyLib.c ****     {
 430:.\Generated_Source\PSoC4/CyLib.c ****         uint8  interruptState;
 431:.\Generated_Source\PSoC4/CyLib.c **** 
 432:.\Generated_Source\PSoC4/CyLib.c ****         if ((freq == 24u) || (freq == 32u) || (freq == 48u))
 433:.\Generated_Source\PSoC4/CyLib.c ****         {
 434:.\Generated_Source\PSoC4/CyLib.c ****             interruptState = CyEnterCriticalSection();
 435:.\Generated_Source\PSoC4/CyLib.c **** 
 436:.\Generated_Source\PSoC4/CyLib.c ****             /* Set IMO to 24 MHz - CLK_IMO_SELECT.FREQ = 0 */
 437:.\Generated_Source\PSoC4/CyLib.c ****             CY_SYS_CLK_IMO_SELECT_REG &= ((uint32) ~CY_SYS_CLK_IMO_SELECT_FREQ_MASK);
 438:.\Generated_Source\PSoC4/CyLib.c **** 
 439:.\Generated_Source\PSoC4/CyLib.c ****             /* Apply coarse trim */
 440:.\Generated_Source\PSoC4/CyLib.c ****             CY_SYS_CLK_IMO_TRIM1_REG = (CY_SYS_CLK_IMO_TRIM1_REG & ((uint32) ~CY_SYS_CLK_IMO_TRIM1_
 441:.\Generated_Source\PSoC4/CyLib.c ****                 (CY_SFLASH_IMO_TRIM_REG(freq - CY_SYS_CLK_IMO_MIN_FREQ_MHZ) & CY_SYS_CLK_IMO_TRIM1_
 442:.\Generated_Source\PSoC4/CyLib.c **** 
 443:.\Generated_Source\PSoC4/CyLib.c ****             /* Zero out fine trim */
 444:.\Generated_Source\PSoC4/CyLib.c ****             CY_SYS_CLK_IMO_TRIM2_REG = CY_SYS_CLK_IMO_TRIM2_REG & ((uint32) ~CY_SYS_CLK_IMO_TRIM2_F
 445:.\Generated_Source\PSoC4/CyLib.c **** 
 446:.\Generated_Source\PSoC4/CyLib.c ****             /* Apply TC trim */
 447:.\Generated_Source\PSoC4/CyLib.c ****             CY_SYS_CLK_IMO_TRIM3_REG = (CY_SYS_CLK_IMO_TRIM3_REG & ((uint32) ~CY_SYS_CLK_IMO_TRIM3_
 448:.\Generated_Source\PSoC4/CyLib.c ****                 (CY_SFLASH_IMO_TCTRIM_REG(freq - CY_SYS_CLK_IMO_MIN_FREQ_MHZ) & CY_SYS_CLK_IMO_TRIM
 449:.\Generated_Source\PSoC4/CyLib.c **** 
 450:.\Generated_Source\PSoC4/CyLib.c ****             CyDelayCycles(50u);
 451:.\Generated_Source\PSoC4/CyLib.c **** 
 452:.\Generated_Source\PSoC4/CyLib.c ****             if (freq > CY_SYS_CLK_IMO_MIN_FREQ_MHZ)
 453:.\Generated_Source\PSoC4/CyLib.c ****             {
 454:.\Generated_Source\PSoC4/CyLib.c ****                 /* Select nearby intermediate frequency */
 455:.\Generated_Source\PSoC4/CyLib.c ****                 CY_SYS_CLK_IMO_SELECT_REG = (CY_SYS_CLK_IMO_SELECT_REG & ((uint32) ~CY_SYS_CLK_IMO_
 456:.\Generated_Source\PSoC4/CyLib.c ****                     (((freq - 4u - CY_SYS_CLK_IMO_MIN_FREQ_MHZ) >> 2u) & CY_SYS_CLK_IMO_SELECT_FREQ
 457:.\Generated_Source\PSoC4/CyLib.c **** 
 458:.\Generated_Source\PSoC4/CyLib.c ****                 CyDelayCycles(50u);
 459:.\Generated_Source\PSoC4/CyLib.c **** 
 460:.\Generated_Source\PSoC4/CyLib.c ****                 /* Make small step to final frequency */
ARM GAS  C:\Users\Chuck\AppData\Local\Temp\ccRFe4cO.s 			page 20


 461:.\Generated_Source\PSoC4/CyLib.c ****                 /* Select nearby intermediate frequency */
 462:.\Generated_Source\PSoC4/CyLib.c ****                 CY_SYS_CLK_IMO_SELECT_REG = (CY_SYS_CLK_IMO_SELECT_REG & ((uint32) ~CY_SYS_CLK_IMO_
 463:.\Generated_Source\PSoC4/CyLib.c ****                     (((freq - CY_SYS_CLK_IMO_MIN_FREQ_MHZ) >> 2u) & CY_SYS_CLK_IMO_SELECT_FREQ_MASK
 464:.\Generated_Source\PSoC4/CyLib.c ****             }
 465:.\Generated_Source\PSoC4/CyLib.c **** 
 466:.\Generated_Source\PSoC4/CyLib.c ****             CyExitCriticalSection(interruptState);
 467:.\Generated_Source\PSoC4/CyLib.c ****         }
 468:.\Generated_Source\PSoC4/CyLib.c ****         else
 469:.\Generated_Source\PSoC4/CyLib.c ****         {
 470:.\Generated_Source\PSoC4/CyLib.c ****             /* Halt CPU in debug mode if new frequency is invalid */
 471:.\Generated_Source\PSoC4/CyLib.c ****             CYASSERT(0u != 0u);
 472:.\Generated_Source\PSoC4/CyLib.c ****         }
 473:.\Generated_Source\PSoC4/CyLib.c ****     }
 474:.\Generated_Source\PSoC4/CyLib.c **** 
 475:.\Generated_Source\PSoC4/CyLib.c **** #endif /* (CY_PSOC4A) */
 476:.\Generated_Source\PSoC4/CyLib.c **** 
 477:.\Generated_Source\PSoC4/CyLib.c **** 
 478:.\Generated_Source\PSoC4/CyLib.c **** #if(CY_PSOC4A)
 479:.\Generated_Source\PSoC4/CyLib.c **** 
 480:.\Generated_Source\PSoC4/CyLib.c ****     /*******************************************************************************
 481:.\Generated_Source\PSoC4/CyLib.c ****     * Function Name: CySysWdtLock
 482:.\Generated_Source\PSoC4/CyLib.c ****     ********************************************************************************
 483:.\Generated_Source\PSoC4/CyLib.c ****     *
 484:.\Generated_Source\PSoC4/CyLib.c ****     * Summary:
 485:.\Generated_Source\PSoC4/CyLib.c ****     *  Locks out configuration changes to the Watchdog timer registers and ILO
 486:.\Generated_Source\PSoC4/CyLib.c ****     *  config register.
 487:.\Generated_Source\PSoC4/CyLib.c ****     *
 488:.\Generated_Source\PSoC4/CyLib.c ****     * Parameters:
 489:.\Generated_Source\PSoC4/CyLib.c ****     *  None
 490:.\Generated_Source\PSoC4/CyLib.c ****     *
 491:.\Generated_Source\PSoC4/CyLib.c ****     * Return:
 492:.\Generated_Source\PSoC4/CyLib.c ****     *  None
 493:.\Generated_Source\PSoC4/CyLib.c ****     *
 494:.\Generated_Source\PSoC4/CyLib.c ****     * Side effects:
 495:.\Generated_Source\PSoC4/CyLib.c ****     *  This API enables ILO, if it was disabled.
 496:.\Generated_Source\PSoC4/CyLib.c ****     *  After this API was called, ILO clock can't be disabled until
 497:.\Generated_Source\PSoC4/CyLib.c ****     *  CySysWdtUnlock() is called.
 498:.\Generated_Source\PSoC4/CyLib.c ****     *
 499:.\Generated_Source\PSoC4/CyLib.c ****     *******************************************************************************/
 500:.\Generated_Source\PSoC4/CyLib.c ****     void CySysWdtLock(void)
 501:.\Generated_Source\PSoC4/CyLib.c ****     {
 619              		.loc 1 501 0
 620              		.cfi_startproc
 621 0000 90B5     		push	{r4, r7, lr}
 622              		.cfi_def_cfa_offset 12
 623              		.cfi_offset 4, -12
 624              		.cfi_offset 7, -8
 625              		.cfi_offset 14, -4
 626 0002 83B0     		sub	sp, sp, #12
 627              		.cfi_def_cfa_offset 24
 628 0004 00AF     		add	r7, sp, #0
 629              		.cfi_def_cfa_register 7
 502:.\Generated_Source\PSoC4/CyLib.c ****         uint8 interruptState;
 503:.\Generated_Source\PSoC4/CyLib.c ****         interruptState = CyEnterCriticalSection();
 630              		.loc 1 503 0
 631 0006 FC1D     		add	r4, r7, #7
 632 0008 FFF7FEFF 		bl	CyEnterCriticalSection
ARM GAS  C:\Users\Chuck\AppData\Local\Temp\ccRFe4cO.s 			page 21


 633 000c 031C     		mov	r3, r0
 634 000e 2370     		strb	r3, [r4]
 504:.\Generated_Source\PSoC4/CyLib.c **** 
 505:.\Generated_Source\PSoC4/CyLib.c ****         /* Configuring WDT involves passing control signals between clock domains,
 506:.\Generated_Source\PSoC4/CyLib.c ****         * which requires ILO to be enabled.
 507:.\Generated_Source\PSoC4/CyLib.c ****         */
 508:.\Generated_Source\PSoC4/CyLib.c ****         if (0u == (CY_SYS_CLK_ILO_CONFIG_REG & CY_SYS_CLK_ILO_CONFIG_ENABLE))
 635              		.loc 1 508 0
 636 0010 0A4B     		ldr	r3, .L38
 637 0012 1B68     		ldr	r3, [r3]
 638 0014 002B     		cmp	r3, #0
 639 0016 01DB     		blt	.L37
 509:.\Generated_Source\PSoC4/CyLib.c ****         {
 510:.\Generated_Source\PSoC4/CyLib.c ****             CySysClkIloStart();
 640              		.loc 1 510 0
 641 0018 FFF7FEFF 		bl	CySysClkIloStart
 642              	.L37:
 511:.\Generated_Source\PSoC4/CyLib.c ****         }
 512:.\Generated_Source\PSoC4/CyLib.c **** 
 513:.\Generated_Source\PSoC4/CyLib.c ****         /* CLK_SELECT register's bits 15:14 are WDT_LOCK */
 514:.\Generated_Source\PSoC4/CyLib.c ****         CY_SYS_CLK_SELECT_REG = (CY_SYS_CLK_SELECT_REG & (uint32)(~CY_SYS_WDT_CLK_LOCK_BITS_MASK)) 
 643              		.loc 1 514 0
 644 001c 084B     		ldr	r3, .L38+4
 645 001e 084A     		ldr	r2, .L38+4
 646 0020 1268     		ldr	r2, [r2]
 647 0022 C021     		mov	r1, #192
 648 0024 0902     		lsl	r1, r1, #8
 649 0026 0A43     		orr	r2, r1
 650 0028 1A60     		str	r2, [r3]
 515:.\Generated_Source\PSoC4/CyLib.c ****                  CY_SYS_WDT_CLK_LOCK_BITS_MASK;
 516:.\Generated_Source\PSoC4/CyLib.c **** 
 517:.\Generated_Source\PSoC4/CyLib.c ****         CyExitCriticalSection(interruptState);
 651              		.loc 1 517 0
 652 002a FB1D     		add	r3, r7, #7
 653 002c 1B78     		ldrb	r3, [r3]
 654 002e 181C     		mov	r0, r3
 655 0030 FFF7FEFF 		bl	CyExitCriticalSection
 518:.\Generated_Source\PSoC4/CyLib.c ****     }
 656              		.loc 1 518 0
 657 0034 BD46     		mov	sp, r7
 658 0036 03B0     		add	sp, sp, #12
 659              		@ sp needed
 660 0038 90BD     		pop	{r4, r7, pc}
 661              	.L39:
 662 003a C046     		.align	2
 663              	.L38:
 664 003c 04010B40 		.word	1074462980
 665 0040 00010B40 		.word	1074462976
 666              		.cfi_endproc
 667              	.LFE7:
 668              		.size	CySysWdtLock, .-CySysWdtLock
 669              		.section	.text.CySysWdtUnlock,"ax",%progbits
 670              		.align	2
 671              		.global	CySysWdtUnlock
 672              		.code	16
 673              		.thumb_func
 674              		.type	CySysWdtUnlock, %function
ARM GAS  C:\Users\Chuck\AppData\Local\Temp\ccRFe4cO.s 			page 22


 675              	CySysWdtUnlock:
 676              	.LFB8:
 519:.\Generated_Source\PSoC4/CyLib.c **** 
 520:.\Generated_Source\PSoC4/CyLib.c **** 
 521:.\Generated_Source\PSoC4/CyLib.c ****     /*******************************************************************************
 522:.\Generated_Source\PSoC4/CyLib.c ****     * Function Name: CySysWdtUnlock
 523:.\Generated_Source\PSoC4/CyLib.c ****     ********************************************************************************
 524:.\Generated_Source\PSoC4/CyLib.c ****     *
 525:.\Generated_Source\PSoC4/CyLib.c ****     * Summary:
 526:.\Generated_Source\PSoC4/CyLib.c ****     *  Unlocks the Watchdog Timer configuration register.
 527:.\Generated_Source\PSoC4/CyLib.c ****     *
 528:.\Generated_Source\PSoC4/CyLib.c ****     * Parameters:
 529:.\Generated_Source\PSoC4/CyLib.c ****     *  None
 530:.\Generated_Source\PSoC4/CyLib.c ****     *
 531:.\Generated_Source\PSoC4/CyLib.c ****     * Return:
 532:.\Generated_Source\PSoC4/CyLib.c ****     *  None
 533:.\Generated_Source\PSoC4/CyLib.c ****     *
 534:.\Generated_Source\PSoC4/CyLib.c ****     * Side effects:
 535:.\Generated_Source\PSoC4/CyLib.c ****     *  This API enables ILO, if it was disabled.
 536:.\Generated_Source\PSoC4/CyLib.c ****     *
 537:.\Generated_Source\PSoC4/CyLib.c ****     *******************************************************************************/
 538:.\Generated_Source\PSoC4/CyLib.c ****     void CySysWdtUnlock(void)
 539:.\Generated_Source\PSoC4/CyLib.c ****     {
 677              		.loc 1 539 0
 678              		.cfi_startproc
 679 0000 90B5     		push	{r4, r7, lr}
 680              		.cfi_def_cfa_offset 12
 681              		.cfi_offset 4, -12
 682              		.cfi_offset 7, -8
 683              		.cfi_offset 14, -4
 684 0002 83B0     		sub	sp, sp, #12
 685              		.cfi_def_cfa_offset 24
 686 0004 00AF     		add	r7, sp, #0
 687              		.cfi_def_cfa_register 7
 540:.\Generated_Source\PSoC4/CyLib.c ****         uint8 interruptState;
 541:.\Generated_Source\PSoC4/CyLib.c ****         interruptState = CyEnterCriticalSection();
 688              		.loc 1 541 0
 689 0006 FC1D     		add	r4, r7, #7
 690 0008 FFF7FEFF 		bl	CyEnterCriticalSection
 691 000c 031C     		mov	r3, r0
 692 000e 2370     		strb	r3, [r4]
 542:.\Generated_Source\PSoC4/CyLib.c **** 
 543:.\Generated_Source\PSoC4/CyLib.c ****         /* Configuring WDT involves passing control signals between clock domains,
 544:.\Generated_Source\PSoC4/CyLib.c ****         * which requires ILO to be enabled.
 545:.\Generated_Source\PSoC4/CyLib.c ****         */
 546:.\Generated_Source\PSoC4/CyLib.c ****         if (0u == (CY_SYS_CLK_ILO_CONFIG_REG & CY_SYS_CLK_ILO_CONFIG_ENABLE))
 693              		.loc 1 546 0
 694 0010 0F4B     		ldr	r3, .L42
 695 0012 1B68     		ldr	r3, [r3]
 696 0014 002B     		cmp	r3, #0
 697 0016 01DB     		blt	.L41
 547:.\Generated_Source\PSoC4/CyLib.c ****         {
 548:.\Generated_Source\PSoC4/CyLib.c ****             CySysClkIloStart();
 698              		.loc 1 548 0
 699 0018 FFF7FEFF 		bl	CySysClkIloStart
 700              	.L41:
 549:.\Generated_Source\PSoC4/CyLib.c ****         }
ARM GAS  C:\Users\Chuck\AppData\Local\Temp\ccRFe4cO.s 			page 23


 550:.\Generated_Source\PSoC4/CyLib.c **** 
 551:.\Generated_Source\PSoC4/CyLib.c ****         /* Removing WDT lock requires two writes */
 552:.\Generated_Source\PSoC4/CyLib.c ****         CY_SYS_CLK_SELECT_REG = ((CY_SYS_CLK_SELECT_REG & (uint32)(~CY_SYS_WDT_CLK_LOCK_BITS_MASK))
 701              		.loc 1 552 0
 702 001c 0D4B     		ldr	r3, .L42+4
 703 001e 0D4A     		ldr	r2, .L42+4
 704 0020 1268     		ldr	r2, [r2]
 705 0022 0D49     		ldr	r1, .L42+8
 706 0024 0A40     		and	r2, r1
 707 0026 8021     		mov	r1, #128
 708 0028 C901     		lsl	r1, r1, #7
 709 002a 0A43     		orr	r2, r1
 710 002c 1A60     		str	r2, [r3]
 553:.\Generated_Source\PSoC4/CyLib.c ****                 CY_SYS_WDT_CLK_LOCK_BIT0);
 554:.\Generated_Source\PSoC4/CyLib.c **** 
 555:.\Generated_Source\PSoC4/CyLib.c ****         CY_SYS_CLK_SELECT_REG = ((CY_SYS_CLK_SELECT_REG & (uint32)(~CY_SYS_WDT_CLK_LOCK_BITS_MASK))
 711              		.loc 1 555 0
 712 002e 094B     		ldr	r3, .L42+4
 713 0030 084A     		ldr	r2, .L42+4
 714 0032 1268     		ldr	r2, [r2]
 715 0034 0849     		ldr	r1, .L42+8
 716 0036 0A40     		and	r2, r1
 717 0038 8021     		mov	r1, #128
 718 003a 0902     		lsl	r1, r1, #8
 719 003c 0A43     		orr	r2, r1
 720 003e 1A60     		str	r2, [r3]
 556:.\Generated_Source\PSoC4/CyLib.c ****                 CY_SYS_WDT_CLK_LOCK_BIT1);
 557:.\Generated_Source\PSoC4/CyLib.c **** 
 558:.\Generated_Source\PSoC4/CyLib.c ****         CyExitCriticalSection(interruptState);
 721              		.loc 1 558 0
 722 0040 FB1D     		add	r3, r7, #7
 723 0042 1B78     		ldrb	r3, [r3]
 724 0044 181C     		mov	r0, r3
 725 0046 FFF7FEFF 		bl	CyExitCriticalSection
 559:.\Generated_Source\PSoC4/CyLib.c ****     }
 726              		.loc 1 559 0
 727 004a BD46     		mov	sp, r7
 728 004c 03B0     		add	sp, sp, #12
 729              		@ sp needed
 730 004e 90BD     		pop	{r4, r7, pc}
 731              	.L43:
 732              		.align	2
 733              	.L42:
 734 0050 04010B40 		.word	1074462980
 735 0054 00010B40 		.word	1074462976
 736 0058 FF3FFFFF 		.word	-49153
 737              		.cfi_endproc
 738              	.LFE8:
 739              		.size	CySysWdtUnlock, .-CySysWdtUnlock
 740              		.section	.text.CySysWdtReadEnabledStatus,"ax",%progbits
 741              		.align	2
 742              		.global	CySysWdtReadEnabledStatus
 743              		.code	16
 744              		.thumb_func
 745              		.type	CySysWdtReadEnabledStatus, %function
 746              	CySysWdtReadEnabledStatus:
 747              	.LFB9:
ARM GAS  C:\Users\Chuck\AppData\Local\Temp\ccRFe4cO.s 			page 24


 560:.\Generated_Source\PSoC4/CyLib.c **** 
 561:.\Generated_Source\PSoC4/CyLib.c **** 
 562:.\Generated_Source\PSoC4/CyLib.c ****     /*******************************************************************************
 563:.\Generated_Source\PSoC4/CyLib.c ****     * Function Name: CySysWdtReadEnabledStatus
 564:.\Generated_Source\PSoC4/CyLib.c ****     ********************************************************************************
 565:.\Generated_Source\PSoC4/CyLib.c ****     *
 566:.\Generated_Source\PSoC4/CyLib.c ****     * Summary:
 567:.\Generated_Source\PSoC4/CyLib.c ****     *  Reads the enabled status of one of the three WDT counters.
 568:.\Generated_Source\PSoC4/CyLib.c ****     *
 569:.\Generated_Source\PSoC4/CyLib.c ****     * Parameters:
 570:.\Generated_Source\PSoC4/CyLib.c ****     *  counterNum: Valid range [0-2].  Number of the WDT counter.
 571:.\Generated_Source\PSoC4/CyLib.c ****     *
 572:.\Generated_Source\PSoC4/CyLib.c ****     * Return:
 573:.\Generated_Source\PSoC4/CyLib.c ****     *  Status of WDT counter:
 574:.\Generated_Source\PSoC4/CyLib.c ****     *   0 - counter is disabled
 575:.\Generated_Source\PSoC4/CyLib.c ****     *   1 - counter is enabled
 576:.\Generated_Source\PSoC4/CyLib.c ****     *
 577:.\Generated_Source\PSoC4/CyLib.c ****     * Side Effects:
 578:.\Generated_Source\PSoC4/CyLib.c ****     *  This API returns the actual WDT counter status from the status register.
 579:.\Generated_Source\PSoC4/CyLib.c ****     *  It may take up to 3 LFCLK cycles since the WDT counter was enabled for the WDT status
 580:.\Generated_Source\PSoC4/CyLib.c ****     *  register to contain actual data.
 581:.\Generated_Source\PSoC4/CyLib.c ****     *
 582:.\Generated_Source\PSoC4/CyLib.c ****     *******************************************************************************/
 583:.\Generated_Source\PSoC4/CyLib.c ****     uint32 CySysWdtReadEnabledStatus(uint32 counterNum)
 584:.\Generated_Source\PSoC4/CyLib.c ****     {
 748              		.loc 1 584 0
 749              		.cfi_startproc
 750 0000 80B5     		push	{r7, lr}
 751              		.cfi_def_cfa_offset 8
 752              		.cfi_offset 7, -8
 753              		.cfi_offset 14, -4
 754 0002 82B0     		sub	sp, sp, #8
 755              		.cfi_def_cfa_offset 16
 756 0004 00AF     		add	r7, sp, #0
 757              		.cfi_def_cfa_register 7
 758 0006 7860     		str	r0, [r7, #4]
 585:.\Generated_Source\PSoC4/CyLib.c ****         CYASSERT(counterNum < CY_SYS_WDT_COUNTERS_MAX);
 759              		.loc 1 585 0
 760 0008 7B68     		ldr	r3, [r7, #4]
 761 000a 022B     		cmp	r3, #2
 762 000c 02D9     		bls	.L45
 763              		.loc 1 585 0 is_stmt 0 discriminator 1
 764 000e 0020     		mov	r0, #0
 765 0010 FFF7FEFF 		bl	CyHalt
 766              	.L45:
 586:.\Generated_Source\PSoC4/CyLib.c ****         return ((CY_SYS_WDT_CONTROL_REG >> ((CY_SYS_WDT_CNT_SHIFT * counterNum) + CY_SYS_WDT_CNT_ST
 767              		.loc 1 586 0 is_stmt 1
 768 0014 054B     		ldr	r3, .L47
 769 0016 1B68     		ldr	r3, [r3]
 770 0018 7A68     		ldr	r2, [r7, #4]
 771 001a D200     		lsl	r2, r2, #3
 772 001c 0132     		add	r2, r2, #1
 773 001e D340     		lsr	r3, r3, r2
 774 0020 0122     		mov	r2, #1
 775 0022 1340     		and	r3, r2
 587:.\Generated_Source\PSoC4/CyLib.c ****     }
 776              		.loc 1 587 0
ARM GAS  C:\Users\Chuck\AppData\Local\Temp\ccRFe4cO.s 			page 25


 777 0024 181C     		mov	r0, r3
 778 0026 BD46     		mov	sp, r7
 779 0028 02B0     		add	sp, sp, #8
 780              		@ sp needed
 781 002a 80BD     		pop	{r7, pc}
 782              	.L48:
 783              		.align	2
 784              	.L47:
 785 002c 10020B40 		.word	1074463248
 786              		.cfi_endproc
 787              	.LFE9:
 788              		.size	CySysWdtReadEnabledStatus, .-CySysWdtReadEnabledStatus
 789              		.section	.text.CySysWdtWriteMode,"ax",%progbits
 790              		.align	2
 791              		.global	CySysWdtWriteMode
 792              		.code	16
 793              		.thumb_func
 794              		.type	CySysWdtWriteMode, %function
 795              	CySysWdtWriteMode:
 796              	.LFB10:
 588:.\Generated_Source\PSoC4/CyLib.c **** 
 589:.\Generated_Source\PSoC4/CyLib.c **** 
 590:.\Generated_Source\PSoC4/CyLib.c ****     /*******************************************************************************
 591:.\Generated_Source\PSoC4/CyLib.c ****     * Function Name: CySysWdtWriteMode
 592:.\Generated_Source\PSoC4/CyLib.c ****     ********************************************************************************
 593:.\Generated_Source\PSoC4/CyLib.c ****     *
 594:.\Generated_Source\PSoC4/CyLib.c ****     * Summary:
 595:.\Generated_Source\PSoC4/CyLib.c ****     *   Writes the mode of one of the three WDT counters.
 596:.\Generated_Source\PSoC4/CyLib.c ****     *
 597:.\Generated_Source\PSoC4/CyLib.c ****     * Parameters:
 598:.\Generated_Source\PSoC4/CyLib.c ****     *   counterNum: Valid range [0-2].  Number of the WDT counter.
 599:.\Generated_Source\PSoC4/CyLib.c ****     *   mode:       Mode of operation for the counter
 600:.\Generated_Source\PSoC4/CyLib.c ****     *       Define                   Mode
 601:.\Generated_Source\PSoC4/CyLib.c ****     *    CY_SYS_WDT_MODE_NONE       Free running
 602:.\Generated_Source\PSoC4/CyLib.c ****     *    CY_SYS_WDT_MODE_INT        Interrupt generated on match for counter 0
 603:.\Generated_Source\PSoC4/CyLib.c ****     *                               and 1, and on bit toggle for counter 2.
 604:.\Generated_Source\PSoC4/CyLib.c ****     *    CY_SYS_WDT_MODE_RESET      Reset on match (valid for counter 0 and 1
 605:.\Generated_Source\PSoC4/CyLib.c ****     *                               only)
 606:.\Generated_Source\PSoC4/CyLib.c ****     *    CY_SYS_WDT_MODE_INT_RESET  Generate an interrupt.  Generate a reset on
 607:.\Generated_Source\PSoC4/CyLib.c ****     *                                    the 3rd unhandled interrupt.
 608:.\Generated_Source\PSoC4/CyLib.c ****     *                                    (valid for counter 0 and 1 only)
 609:.\Generated_Source\PSoC4/CyLib.c ****     * Return:
 610:.\Generated_Source\PSoC4/CyLib.c ****     *   None
 611:.\Generated_Source\PSoC4/CyLib.c ****     *
 612:.\Generated_Source\PSoC4/CyLib.c ****     * Side Effects:
 613:.\Generated_Source\PSoC4/CyLib.c ****     *   The WDT counter counterNum should be disabled to the set mode. Otherwise
 614:.\Generated_Source\PSoC4/CyLib.c ****     *   the function call will have no effect.
 615:.\Generated_Source\PSoC4/CyLib.c ****     *   This API enables the ILO, if it was disabled.
 616:.\Generated_Source\PSoC4/CyLib.c ****     *
 617:.\Generated_Source\PSoC4/CyLib.c ****     *******************************************************************************/
 618:.\Generated_Source\PSoC4/CyLib.c ****     void CySysWdtWriteMode(uint32 counterNum, uint32 mode)
 619:.\Generated_Source\PSoC4/CyLib.c ****     {
 797              		.loc 1 619 0
 798              		.cfi_startproc
 799 0000 80B5     		push	{r7, lr}
 800              		.cfi_def_cfa_offset 8
 801              		.cfi_offset 7, -8
ARM GAS  C:\Users\Chuck\AppData\Local\Temp\ccRFe4cO.s 			page 26


 802              		.cfi_offset 14, -4
 803 0002 84B0     		sub	sp, sp, #16
 804              		.cfi_def_cfa_offset 24
 805 0004 00AF     		add	r7, sp, #0
 806              		.cfi_def_cfa_register 7
 807 0006 7860     		str	r0, [r7, #4]
 808 0008 3960     		str	r1, [r7]
 620:.\Generated_Source\PSoC4/CyLib.c ****         uint32 configRegValue;
 621:.\Generated_Source\PSoC4/CyLib.c **** 
 622:.\Generated_Source\PSoC4/CyLib.c ****         CYASSERT(counterNum < CY_SYS_WDT_COUNTERS_MAX);
 809              		.loc 1 622 0
 810 000a 7B68     		ldr	r3, [r7, #4]
 811 000c 022B     		cmp	r3, #2
 812 000e 02D9     		bls	.L50
 813              		.loc 1 622 0 is_stmt 0 discriminator 1
 814 0010 0020     		mov	r0, #0
 815 0012 FFF7FEFF 		bl	CyHalt
 816              	.L50:
 623:.\Generated_Source\PSoC4/CyLib.c **** 
 624:.\Generated_Source\PSoC4/CyLib.c ****         /* Configuring WDT involves passing control signals between clock domains,
 625:.\Generated_Source\PSoC4/CyLib.c ****         * which requires ILO to be enabled.
 626:.\Generated_Source\PSoC4/CyLib.c ****         */
 627:.\Generated_Source\PSoC4/CyLib.c ****         if (0u == (CY_SYS_CLK_ILO_CONFIG_REG & CY_SYS_CLK_ILO_CONFIG_ENABLE))
 817              		.loc 1 627 0 is_stmt 1
 818 0016 124B     		ldr	r3, .L53
 819 0018 1B68     		ldr	r3, [r3]
 820 001a 002B     		cmp	r3, #0
 821 001c 01DB     		blt	.L51
 628:.\Generated_Source\PSoC4/CyLib.c ****         {
 629:.\Generated_Source\PSoC4/CyLib.c ****             CySysClkIloStart();
 822              		.loc 1 629 0
 823 001e FFF7FEFF 		bl	CySysClkIloStart
 824              	.L51:
 630:.\Generated_Source\PSoC4/CyLib.c ****         }
 631:.\Generated_Source\PSoC4/CyLib.c **** 
 632:.\Generated_Source\PSoC4/CyLib.c ****         if(0u == CySysWdtReadEnabledStatus(counterNum))
 825              		.loc 1 632 0
 826 0022 7B68     		ldr	r3, [r7, #4]
 827 0024 181C     		mov	r0, r3
 828 0026 FFF7FEFF 		bl	CySysWdtReadEnabledStatus
 829 002a 031E     		sub	r3, r0, #0
 830 002c 15D1     		bne	.L49
 633:.\Generated_Source\PSoC4/CyLib.c ****         {
 634:.\Generated_Source\PSoC4/CyLib.c ****             configRegValue = CY_SYS_WDT_CONFIG_REG &
 831              		.loc 1 634 0
 832 002e 0D4B     		ldr	r3, .L53+4
 833 0030 1B68     		ldr	r3, [r3]
 635:.\Generated_Source\PSoC4/CyLib.c ****                                 (uint32)~((uint32)(CY_SYS_WDT_MODE_MASK << (counterNum * CY_SYS_WDT
 834              		.loc 1 635 0
 835 0032 7A68     		ldr	r2, [r7, #4]
 836 0034 D200     		lsl	r2, r2, #3
 837 0036 111C     		mov	r1, r2
 838 0038 0322     		mov	r2, #3
 839 003a 8A40     		lsl	r2, r2, r1
 840 003c D243     		mvn	r2, r2
 634:.\Generated_Source\PSoC4/CyLib.c ****                                 (uint32)~((uint32)(CY_SYS_WDT_MODE_MASK << (counterNum * CY_SYS_WDT
 841              		.loc 1 634 0
ARM GAS  C:\Users\Chuck\AppData\Local\Temp\ccRFe4cO.s 			page 27


 842 003e 1340     		and	r3, r2
 843 0040 FB60     		str	r3, [r7, #12]
 636:.\Generated_Source\PSoC4/CyLib.c ****             configRegValue |= (uint32)((mode & CY_SYS_WDT_MODE_MASK) << (counterNum * CY_SYS_WDT_CN
 844              		.loc 1 636 0
 845 0042 3B68     		ldr	r3, [r7]
 846 0044 0322     		mov	r2, #3
 847 0046 1340     		and	r3, r2
 848 0048 7A68     		ldr	r2, [r7, #4]
 849 004a D200     		lsl	r2, r2, #3
 850 004c 9340     		lsl	r3, r3, r2
 851 004e FA68     		ldr	r2, [r7, #12]
 852 0050 1343     		orr	r3, r2
 853 0052 FB60     		str	r3, [r7, #12]
 637:.\Generated_Source\PSoC4/CyLib.c ****             CY_SYS_WDT_CONFIG_REG = configRegValue;
 854              		.loc 1 637 0
 855 0054 034B     		ldr	r3, .L53+4
 856 0056 FA68     		ldr	r2, [r7, #12]
 857 0058 1A60     		str	r2, [r3]
 858              	.L49:
 638:.\Generated_Source\PSoC4/CyLib.c ****         }
 639:.\Generated_Source\PSoC4/CyLib.c ****     }
 859              		.loc 1 639 0
 860 005a BD46     		mov	sp, r7
 861 005c 04B0     		add	sp, sp, #16
 862              		@ sp needed
 863 005e 80BD     		pop	{r7, pc}
 864              	.L54:
 865              		.align	2
 866              	.L53:
 867 0060 04010B40 		.word	1074462980
 868 0064 0C020B40 		.word	1074463244
 869              		.cfi_endproc
 870              	.LFE10:
 871              		.size	CySysWdtWriteMode, .-CySysWdtWriteMode
 872              		.section	.text.CySysWdtReadMode,"ax",%progbits
 873              		.align	2
 874              		.global	CySysWdtReadMode
 875              		.code	16
 876              		.thumb_func
 877              		.type	CySysWdtReadMode, %function
 878              	CySysWdtReadMode:
 879              	.LFB11:
 640:.\Generated_Source\PSoC4/CyLib.c **** 
 641:.\Generated_Source\PSoC4/CyLib.c **** 
 642:.\Generated_Source\PSoC4/CyLib.c ****     /*******************************************************************************
 643:.\Generated_Source\PSoC4/CyLib.c ****     * Function Name: CySysWdtReadMode
 644:.\Generated_Source\PSoC4/CyLib.c ****     ********************************************************************************
 645:.\Generated_Source\PSoC4/CyLib.c ****     *
 646:.\Generated_Source\PSoC4/CyLib.c ****     * Summary:
 647:.\Generated_Source\PSoC4/CyLib.c ****     *  Reads the mode of one of the three WDT counters.
 648:.\Generated_Source\PSoC4/CyLib.c ****     *
 649:.\Generated_Source\PSoC4/CyLib.c ****     * Parameters:
 650:.\Generated_Source\PSoC4/CyLib.c ****     *  counterNum: Valid range [0-2].  Number of the WDT counter.
 651:.\Generated_Source\PSoC4/CyLib.c ****     *
 652:.\Generated_Source\PSoC4/CyLib.c ****     * Return:
 653:.\Generated_Source\PSoC4/CyLib.c ****     *  Mode of the counter.  Same enumerated values as mode parameter used in
 654:.\Generated_Source\PSoC4/CyLib.c ****     *  CySysWdtWriteMode().
ARM GAS  C:\Users\Chuck\AppData\Local\Temp\ccRFe4cO.s 			page 28


 655:.\Generated_Source\PSoC4/CyLib.c ****     *
 656:.\Generated_Source\PSoC4/CyLib.c ****     *******************************************************************************/
 657:.\Generated_Source\PSoC4/CyLib.c ****     uint32 CySysWdtReadMode(uint32 counterNum)
 658:.\Generated_Source\PSoC4/CyLib.c ****     {
 880              		.loc 1 658 0
 881              		.cfi_startproc
 882 0000 80B5     		push	{r7, lr}
 883              		.cfi_def_cfa_offset 8
 884              		.cfi_offset 7, -8
 885              		.cfi_offset 14, -4
 886 0002 82B0     		sub	sp, sp, #8
 887              		.cfi_def_cfa_offset 16
 888 0004 00AF     		add	r7, sp, #0
 889              		.cfi_def_cfa_register 7
 890 0006 7860     		str	r0, [r7, #4]
 659:.\Generated_Source\PSoC4/CyLib.c ****         return ((CY_SYS_WDT_CONFIG_REG >> (counterNum * CY_SYS_WDT_CNT_SHIFT)) & CY_SYS_WDT_MODE_MA
 891              		.loc 1 659 0
 892 0008 054B     		ldr	r3, .L57
 893 000a 1B68     		ldr	r3, [r3]
 894 000c 7A68     		ldr	r2, [r7, #4]
 895 000e D200     		lsl	r2, r2, #3
 896 0010 D340     		lsr	r3, r3, r2
 897 0012 0322     		mov	r2, #3
 898 0014 1340     		and	r3, r2
 660:.\Generated_Source\PSoC4/CyLib.c ****     }
 899              		.loc 1 660 0
 900 0016 181C     		mov	r0, r3
 901 0018 BD46     		mov	sp, r7
 902 001a 02B0     		add	sp, sp, #8
 903              		@ sp needed
 904 001c 80BD     		pop	{r7, pc}
 905              	.L58:
 906 001e C046     		.align	2
 907              	.L57:
 908 0020 0C020B40 		.word	1074463244
 909              		.cfi_endproc
 910              	.LFE11:
 911              		.size	CySysWdtReadMode, .-CySysWdtReadMode
 912              		.section	.text.CySysWdtWriteClearOnMatch,"ax",%progbits
 913              		.align	2
 914              		.global	CySysWdtWriteClearOnMatch
 915              		.code	16
 916              		.thumb_func
 917              		.type	CySysWdtWriteClearOnMatch, %function
 918              	CySysWdtWriteClearOnMatch:
 919              	.LFB12:
 661:.\Generated_Source\PSoC4/CyLib.c **** 
 662:.\Generated_Source\PSoC4/CyLib.c **** 
 663:.\Generated_Source\PSoC4/CyLib.c ****     /*******************************************************************************
 664:.\Generated_Source\PSoC4/CyLib.c ****     * Function Name: CySysWdtWriteClearOnMatch
 665:.\Generated_Source\PSoC4/CyLib.c ****     ********************************************************************************
 666:.\Generated_Source\PSoC4/CyLib.c ****     *
 667:.\Generated_Source\PSoC4/CyLib.c ****     * Summary:
 668:.\Generated_Source\PSoC4/CyLib.c ****     *  Configures the WDT counter clear on a match setting.  If configured to clear
 669:.\Generated_Source\PSoC4/CyLib.c ****     *  on match, the counter will count from 0 to the MatchValue giving it a
 670:.\Generated_Source\PSoC4/CyLib.c ****     *  period of (MatchValue + 1).
 671:.\Generated_Source\PSoC4/CyLib.c ****     *
ARM GAS  C:\Users\Chuck\AppData\Local\Temp\ccRFe4cO.s 			page 29


 672:.\Generated_Source\PSoC4/CyLib.c ****     * Parameters:
 673:.\Generated_Source\PSoC4/CyLib.c ****     *  counterNum:
 674:.\Generated_Source\PSoC4/CyLib.c ****     *   Valid range [0-1].  Number of the WDT counter.  Match values are not
 675:.\Generated_Source\PSoC4/CyLib.c ****     *   supported by counter 2.
 676:.\Generated_Source\PSoC4/CyLib.c ****     *
 677:.\Generated_Source\PSoC4/CyLib.c ****     * enable:
 678:.\Generated_Source\PSoC4/CyLib.c ****     *   0 to disable, 1 to enable
 679:.\Generated_Source\PSoC4/CyLib.c ****     *
 680:.\Generated_Source\PSoC4/CyLib.c ****     * Return:
 681:.\Generated_Source\PSoC4/CyLib.c ****     *   None
 682:.\Generated_Source\PSoC4/CyLib.c ****     *
 683:.\Generated_Source\PSoC4/CyLib.c ****     * Side Effects:
 684:.\Generated_Source\PSoC4/CyLib.c ****     *   The WDT counter counterNum should be disabled. Otherwise the function
 685:.\Generated_Source\PSoC4/CyLib.c ****     *   call will have no effect.
 686:.\Generated_Source\PSoC4/CyLib.c ****     *   This API enables the ILO, if it was disabled.
 687:.\Generated_Source\PSoC4/CyLib.c ****     *
 688:.\Generated_Source\PSoC4/CyLib.c ****     *
 689:.\Generated_Source\PSoC4/CyLib.c ****     *******************************************************************************/
 690:.\Generated_Source\PSoC4/CyLib.c ****     void CySysWdtWriteClearOnMatch(uint32 counterNum, uint32 enable)
 691:.\Generated_Source\PSoC4/CyLib.c ****     {
 920              		.loc 1 691 0
 921              		.cfi_startproc
 922 0000 80B5     		push	{r7, lr}
 923              		.cfi_def_cfa_offset 8
 924              		.cfi_offset 7, -8
 925              		.cfi_offset 14, -4
 926 0002 82B0     		sub	sp, sp, #8
 927              		.cfi_def_cfa_offset 16
 928 0004 00AF     		add	r7, sp, #0
 929              		.cfi_def_cfa_register 7
 930 0006 7860     		str	r0, [r7, #4]
 931 0008 3960     		str	r1, [r7]
 692:.\Generated_Source\PSoC4/CyLib.c ****         CYASSERT((counterNum == CY_SYS_WDT_COUNTER0) ||
 932              		.loc 1 692 0
 933 000a 7B68     		ldr	r3, [r7, #4]
 934 000c 002B     		cmp	r3, #0
 935 000e 02D0     		beq	.L60
 936              		.loc 1 692 0 is_stmt 0 discriminator 2
 937 0010 7B68     		ldr	r3, [r7, #4]
 938 0012 012B     		cmp	r3, #1
 939 0014 01D1     		bne	.L61
 940              	.L60:
 941              		.loc 1 692 0 discriminator 3
 942 0016 0123     		mov	r3, #1
 943 0018 00E0     		b	.L62
 944              	.L61:
 945              		.loc 1 692 0 discriminator 4
 946 001a 0023     		mov	r3, #0
 947              	.L62:
 948              		.loc 1 692 0 discriminator 6
 949 001c 002B     		cmp	r3, #0
 950 001e 02D1     		bne	.L63
 951              		.loc 1 692 0 discriminator 7
 952 0020 0020     		mov	r0, #0
 953 0022 FFF7FEFF 		bl	CyHalt
 954              	.L63:
 693:.\Generated_Source\PSoC4/CyLib.c ****                                              (counterNum == CY_SYS_WDT_COUNTER1));
ARM GAS  C:\Users\Chuck\AppData\Local\Temp\ccRFe4cO.s 			page 30


 694:.\Generated_Source\PSoC4/CyLib.c **** 
 695:.\Generated_Source\PSoC4/CyLib.c ****         /* Configuring WDT involves passing control signals between clock domains,
 696:.\Generated_Source\PSoC4/CyLib.c ****         * which requires ILO to be enabled.
 697:.\Generated_Source\PSoC4/CyLib.c ****         */
 698:.\Generated_Source\PSoC4/CyLib.c ****         if (0u == (CY_SYS_CLK_ILO_CONFIG_REG & CY_SYS_CLK_ILO_CONFIG_ENABLE))
 955              		.loc 1 698 0 is_stmt 1
 956 0026 0D4B     		ldr	r3, .L66
 957 0028 1B68     		ldr	r3, [r3]
 958 002a 002B     		cmp	r3, #0
 959 002c 01DB     		blt	.L64
 699:.\Generated_Source\PSoC4/CyLib.c ****         {
 700:.\Generated_Source\PSoC4/CyLib.c ****             CySysClkIloStart();
 960              		.loc 1 700 0
 961 002e FFF7FEFF 		bl	CySysClkIloStart
 962              	.L64:
 701:.\Generated_Source\PSoC4/CyLib.c ****         }
 702:.\Generated_Source\PSoC4/CyLib.c **** 
 703:.\Generated_Source\PSoC4/CyLib.c ****         if(0u == CySysWdtReadEnabledStatus(counterNum))
 963              		.loc 1 703 0
 964 0032 7B68     		ldr	r3, [r7, #4]
 965 0034 181C     		mov	r0, r3
 966 0036 FFF7FEFF 		bl	CySysWdtReadEnabledStatus
 967 003a 031E     		sub	r3, r0, #0
 968 003c 0AD1     		bne	.L59
 704:.\Generated_Source\PSoC4/CyLib.c ****         {
 705:.\Generated_Source\PSoC4/CyLib.c ****             CY_SYS_WDT_CONFIG_REG |= (uint32)(enable << ((counterNum * CY_SYS_WDT_CNT_SHIFT) +
 969              		.loc 1 705 0
 970 003e 084B     		ldr	r3, .L66+4
 971 0040 074A     		ldr	r2, .L66+4
 972 0042 1168     		ldr	r1, [r2]
 973 0044 7A68     		ldr	r2, [r7, #4]
 974 0046 D200     		lsl	r2, r2, #3
 975 0048 0232     		add	r2, r2, #2
 976 004a 101C     		mov	r0, r2
 977 004c 3A68     		ldr	r2, [r7]
 978 004e 8240     		lsl	r2, r2, r0
 979 0050 0A43     		orr	r2, r1
 980 0052 1A60     		str	r2, [r3]
 981              	.L59:
 706:.\Generated_Source\PSoC4/CyLib.c ****                                                             CY_SYS_WDT_CNT_MATCH_CLR_SHIFT));
 707:.\Generated_Source\PSoC4/CyLib.c ****         }
 708:.\Generated_Source\PSoC4/CyLib.c ****     }
 982              		.loc 1 708 0
 983 0054 BD46     		mov	sp, r7
 984 0056 02B0     		add	sp, sp, #8
 985              		@ sp needed
 986 0058 80BD     		pop	{r7, pc}
 987              	.L67:
 988 005a C046     		.align	2
 989              	.L66:
 990 005c 04010B40 		.word	1074462980
 991 0060 0C020B40 		.word	1074463244
 992              		.cfi_endproc
 993              	.LFE12:
 994              		.size	CySysWdtWriteClearOnMatch, .-CySysWdtWriteClearOnMatch
 995              		.section	.text.CySysWdtReadClearOnMatch,"ax",%progbits
 996              		.align	2
ARM GAS  C:\Users\Chuck\AppData\Local\Temp\ccRFe4cO.s 			page 31


 997              		.global	CySysWdtReadClearOnMatch
 998              		.code	16
 999              		.thumb_func
 1000              		.type	CySysWdtReadClearOnMatch, %function
 1001              	CySysWdtReadClearOnMatch:
 1002              	.LFB13:
 709:.\Generated_Source\PSoC4/CyLib.c **** 
 710:.\Generated_Source\PSoC4/CyLib.c **** 
 711:.\Generated_Source\PSoC4/CyLib.c ****     /*******************************************************************************
 712:.\Generated_Source\PSoC4/CyLib.c ****     * Function Name: CySysWdtReadClearOnMatch
 713:.\Generated_Source\PSoC4/CyLib.c ****     ********************************************************************************
 714:.\Generated_Source\PSoC4/CyLib.c ****     *
 715:.\Generated_Source\PSoC4/CyLib.c ****     * Summary:
 716:.\Generated_Source\PSoC4/CyLib.c ****     *  Reads the clear on match setting for the specified counter.
 717:.\Generated_Source\PSoC4/CyLib.c ****     *
 718:.\Generated_Source\PSoC4/CyLib.c ****     * Parameters:
 719:.\Generated_Source\PSoC4/CyLib.c ****     *   counterNum: Valid range [0-1].  Number of the WDT counter.  Match values are
 720:.\Generated_Source\PSoC4/CyLib.c ****     *               not supported by counter 2.
 721:.\Generated_Source\PSoC4/CyLib.c ****     *
 722:.\Generated_Source\PSoC4/CyLib.c ****     * Return:
 723:.\Generated_Source\PSoC4/CyLib.c ****     *   Clear on Match status: 1 if enabled, 0 if disabled
 724:.\Generated_Source\PSoC4/CyLib.c ****     *
 725:.\Generated_Source\PSoC4/CyLib.c ****     *******************************************************************************/
 726:.\Generated_Source\PSoC4/CyLib.c ****     uint32 CySysWdtReadClearOnMatch(uint32 counterNum)
 727:.\Generated_Source\PSoC4/CyLib.c ****     {
 1003              		.loc 1 727 0
 1004              		.cfi_startproc
 1005 0000 80B5     		push	{r7, lr}
 1006              		.cfi_def_cfa_offset 8
 1007              		.cfi_offset 7, -8
 1008              		.cfi_offset 14, -4
 1009 0002 82B0     		sub	sp, sp, #8
 1010              		.cfi_def_cfa_offset 16
 1011 0004 00AF     		add	r7, sp, #0
 1012              		.cfi_def_cfa_register 7
 1013 0006 7860     		str	r0, [r7, #4]
 728:.\Generated_Source\PSoC4/CyLib.c ****         CYASSERT((counterNum == CY_SYS_WDT_COUNTER0) ||
 1014              		.loc 1 728 0
 1015 0008 7B68     		ldr	r3, [r7, #4]
 1016 000a 002B     		cmp	r3, #0
 1017 000c 02D0     		beq	.L69
 1018              		.loc 1 728 0 is_stmt 0 discriminator 2
 1019 000e 7B68     		ldr	r3, [r7, #4]
 1020 0010 012B     		cmp	r3, #1
 1021 0012 01D1     		bne	.L70
 1022              	.L69:
 1023              		.loc 1 728 0 discriminator 3
 1024 0014 0123     		mov	r3, #1
 1025 0016 00E0     		b	.L71
 1026              	.L70:
 1027              		.loc 1 728 0 discriminator 4
 1028 0018 0023     		mov	r3, #0
 1029              	.L71:
 1030              		.loc 1 728 0 discriminator 6
 1031 001a 002B     		cmp	r3, #0
 1032 001c 02D1     		bne	.L72
 1033              		.loc 1 728 0 discriminator 7
ARM GAS  C:\Users\Chuck\AppData\Local\Temp\ccRFe4cO.s 			page 32


 1034 001e 0020     		mov	r0, #0
 1035 0020 FFF7FEFF 		bl	CyHalt
 1036              	.L72:
 729:.\Generated_Source\PSoC4/CyLib.c ****                                              (counterNum == CY_SYS_WDT_COUNTER1));
 730:.\Generated_Source\PSoC4/CyLib.c **** 
 731:.\Generated_Source\PSoC4/CyLib.c ****         return (uint32)((CY_SYS_WDT_CONFIG_REG >>
 1037              		.loc 1 731 0 is_stmt 1
 1038 0024 054B     		ldr	r3, .L74
 1039 0026 1B68     		ldr	r3, [r3]
 732:.\Generated_Source\PSoC4/CyLib.c ****                             ((counterNum * CY_SYS_WDT_CNT_SHIFT) + CY_SYS_WDT_CNT_MATCH_CLR_SHIFT))
 1040              		.loc 1 732 0
 1041 0028 7A68     		ldr	r2, [r7, #4]
 1042 002a D200     		lsl	r2, r2, #3
 1043 002c 0232     		add	r2, r2, #2
 731:.\Generated_Source\PSoC4/CyLib.c ****                             ((counterNum * CY_SYS_WDT_CNT_SHIFT) + CY_SYS_WDT_CNT_MATCH_CLR_SHIFT))
 1044              		.loc 1 731 0
 1045 002e D340     		lsr	r3, r3, r2
 1046 0030 0122     		mov	r2, #1
 1047 0032 1340     		and	r3, r2
 733:.\Generated_Source\PSoC4/CyLib.c ****     }
 1048              		.loc 1 733 0
 1049 0034 181C     		mov	r0, r3
 1050 0036 BD46     		mov	sp, r7
 1051 0038 02B0     		add	sp, sp, #8
 1052              		@ sp needed
 1053 003a 80BD     		pop	{r7, pc}
 1054              	.L75:
 1055              		.align	2
 1056              	.L74:
 1057 003c 0C020B40 		.word	1074463244
 1058              		.cfi_endproc
 1059              	.LFE13:
 1060              		.size	CySysWdtReadClearOnMatch, .-CySysWdtReadClearOnMatch
 1061              		.section	.text.CySysWdtEnable,"ax",%progbits
 1062              		.align	2
 1063              		.global	CySysWdtEnable
 1064              		.code	16
 1065              		.thumb_func
 1066              		.type	CySysWdtEnable, %function
 1067              	CySysWdtEnable:
 1068              	.LFB14:
 734:.\Generated_Source\PSoC4/CyLib.c **** 
 735:.\Generated_Source\PSoC4/CyLib.c **** 
 736:.\Generated_Source\PSoC4/CyLib.c ****     /*******************************************************************************
 737:.\Generated_Source\PSoC4/CyLib.c ****     * Function Name: CySysWdtEnable
 738:.\Generated_Source\PSoC4/CyLib.c ****     ********************************************************************************
 739:.\Generated_Source\PSoC4/CyLib.c ****     *
 740:.\Generated_Source\PSoC4/CyLib.c ****     * Summary:
 741:.\Generated_Source\PSoC4/CyLib.c ****     *  Enables the specified WDT counters.  All the counters specified in the mask are
 742:.\Generated_Source\PSoC4/CyLib.c ****     *  enabled.
 743:.\Generated_Source\PSoC4/CyLib.c ****     *
 744:.\Generated_Source\PSoC4/CyLib.c ****     * Parameters:
 745:.\Generated_Source\PSoC4/CyLib.c ****     *  counterMask: Mask of all counters to enable
 746:.\Generated_Source\PSoC4/CyLib.c ****     *       Define                       Counter
 747:.\Generated_Source\PSoC4/CyLib.c ****     *      CY_SYS_WDT_COUNTER0_MASK      0
 748:.\Generated_Source\PSoC4/CyLib.c ****     *      CY_SYS_WDT_COUNTER1_MASK      1
 749:.\Generated_Source\PSoC4/CyLib.c ****     *      CY_SYS_WDT_COUNTER2_MASK      2
ARM GAS  C:\Users\Chuck\AppData\Local\Temp\ccRFe4cO.s 			page 33


 750:.\Generated_Source\PSoC4/CyLib.c ****     *
 751:.\Generated_Source\PSoC4/CyLib.c ****     * Return:
 752:.\Generated_Source\PSoC4/CyLib.c ****     *  None
 753:.\Generated_Source\PSoC4/CyLib.c ****     *
 754:.\Generated_Source\PSoC4/CyLib.c ****     * Side Effects:
 755:.\Generated_Source\PSoC4/CyLib.c ****     *  Enabling or disabling the WDT requires 3 LF Clock cycles to come into effect.
 756:.\Generated_Source\PSoC4/CyLib.c ****     *  This API enables the ILO, if it was disabled.
 757:.\Generated_Source\PSoC4/CyLib.c ****     *
 758:.\Generated_Source\PSoC4/CyLib.c ****     *******************************************************************************/
 759:.\Generated_Source\PSoC4/CyLib.c ****     void CySysWdtEnable(uint32 counterMask)
 760:.\Generated_Source\PSoC4/CyLib.c ****     {
 1069              		.loc 1 760 0
 1070              		.cfi_startproc
 1071 0000 80B5     		push	{r7, lr}
 1072              		.cfi_def_cfa_offset 8
 1073              		.cfi_offset 7, -8
 1074              		.cfi_offset 14, -4
 1075 0002 82B0     		sub	sp, sp, #8
 1076              		.cfi_def_cfa_offset 16
 1077 0004 00AF     		add	r7, sp, #0
 1078              		.cfi_def_cfa_register 7
 1079 0006 7860     		str	r0, [r7, #4]
 761:.\Generated_Source\PSoC4/CyLib.c ****         /* Configuring WDT involves passing control signals between clock domains,
 762:.\Generated_Source\PSoC4/CyLib.c ****         * which requires ILO to be enabled.
 763:.\Generated_Source\PSoC4/CyLib.c ****         */
 764:.\Generated_Source\PSoC4/CyLib.c ****         if (0u == (CY_SYS_CLK_ILO_CONFIG_REG & CY_SYS_CLK_ILO_CONFIG_ENABLE))
 1080              		.loc 1 764 0
 1081 0008 074B     		ldr	r3, .L78
 1082 000a 1B68     		ldr	r3, [r3]
 1083 000c 002B     		cmp	r3, #0
 1084 000e 01DB     		blt	.L77
 765:.\Generated_Source\PSoC4/CyLib.c ****         {
 766:.\Generated_Source\PSoC4/CyLib.c ****             CySysClkIloStart();
 1085              		.loc 1 766 0
 1086 0010 FFF7FEFF 		bl	CySysClkIloStart
 1087              	.L77:
 767:.\Generated_Source\PSoC4/CyLib.c ****         }
 768:.\Generated_Source\PSoC4/CyLib.c **** 
 769:.\Generated_Source\PSoC4/CyLib.c ****         CY_SYS_WDT_CONTROL_REG |= counterMask;
 1088              		.loc 1 769 0
 1089 0014 054B     		ldr	r3, .L78+4
 1090 0016 054A     		ldr	r2, .L78+4
 1091 0018 1168     		ldr	r1, [r2]
 1092 001a 7A68     		ldr	r2, [r7, #4]
 1093 001c 0A43     		orr	r2, r1
 1094 001e 1A60     		str	r2, [r3]
 770:.\Generated_Source\PSoC4/CyLib.c ****     }
 1095              		.loc 1 770 0
 1096 0020 BD46     		mov	sp, r7
 1097 0022 02B0     		add	sp, sp, #8
 1098              		@ sp needed
 1099 0024 80BD     		pop	{r7, pc}
 1100              	.L79:
 1101 0026 C046     		.align	2
 1102              	.L78:
 1103 0028 04010B40 		.word	1074462980
 1104 002c 10020B40 		.word	1074463248
ARM GAS  C:\Users\Chuck\AppData\Local\Temp\ccRFe4cO.s 			page 34


 1105              		.cfi_endproc
 1106              	.LFE14:
 1107              		.size	CySysWdtEnable, .-CySysWdtEnable
 1108              		.section	.text.CySysWdtDisable,"ax",%progbits
 1109              		.align	2
 1110              		.global	CySysWdtDisable
 1111              		.code	16
 1112              		.thumb_func
 1113              		.type	CySysWdtDisable, %function
 1114              	CySysWdtDisable:
 1115              	.LFB15:
 771:.\Generated_Source\PSoC4/CyLib.c **** 
 772:.\Generated_Source\PSoC4/CyLib.c **** 
 773:.\Generated_Source\PSoC4/CyLib.c ****     /*******************************************************************************
 774:.\Generated_Source\PSoC4/CyLib.c ****     * Function Name: CySysWdtDisable
 775:.\Generated_Source\PSoC4/CyLib.c ****     ********************************************************************************
 776:.\Generated_Source\PSoC4/CyLib.c ****     *
 777:.\Generated_Source\PSoC4/CyLib.c ****     * Summary:
 778:.\Generated_Source\PSoC4/CyLib.c ****     *  Disables the specified WDT counters.  All the counters specified in the mask are
 779:.\Generated_Source\PSoC4/CyLib.c ****     *  disabled.
 780:.\Generated_Source\PSoC4/CyLib.c ****     *
 781:.\Generated_Source\PSoC4/CyLib.c ****     * Parameters:
 782:.\Generated_Source\PSoC4/CyLib.c ****     *  uint32 counterMask: Mask of all counters to disable
 783:.\Generated_Source\PSoC4/CyLib.c ****     *    Define                       Counter
 784:.\Generated_Source\PSoC4/CyLib.c ****     *   CY_SYS_WDT_COUNTER0_MASK      0
 785:.\Generated_Source\PSoC4/CyLib.c ****     *   CY_SYS_WDT_COUNTER1_MASK      1
 786:.\Generated_Source\PSoC4/CyLib.c ****     *   CY_SYS_WDT_COUNTER2_MASK      2
 787:.\Generated_Source\PSoC4/CyLib.c ****     *
 788:.\Generated_Source\PSoC4/CyLib.c ****     * Return:
 789:.\Generated_Source\PSoC4/CyLib.c ****     *   None
 790:.\Generated_Source\PSoC4/CyLib.c ****     *
 791:.\Generated_Source\PSoC4/CyLib.c ****     * Side Effects:
 792:.\Generated_Source\PSoC4/CyLib.c ****     *  Enabling or disabling the  WDT requires 3 LF Clock cycles to come into effect.
 793:.\Generated_Source\PSoC4/CyLib.c ****     *  This API enables the ILO, if it was disabled.
 794:.\Generated_Source\PSoC4/CyLib.c ****     *
 795:.\Generated_Source\PSoC4/CyLib.c ****     *******************************************************************************/
 796:.\Generated_Source\PSoC4/CyLib.c ****     void CySysWdtDisable(uint32 counterMask)
 797:.\Generated_Source\PSoC4/CyLib.c ****     {
 1116              		.loc 1 797 0
 1117              		.cfi_startproc
 1118 0000 80B5     		push	{r7, lr}
 1119              		.cfi_def_cfa_offset 8
 1120              		.cfi_offset 7, -8
 1121              		.cfi_offset 14, -4
 1122 0002 82B0     		sub	sp, sp, #8
 1123              		.cfi_def_cfa_offset 16
 1124 0004 00AF     		add	r7, sp, #0
 1125              		.cfi_def_cfa_register 7
 1126 0006 7860     		str	r0, [r7, #4]
 798:.\Generated_Source\PSoC4/CyLib.c ****         /* Configuring WDT involves passing control signals between clock domains,
 799:.\Generated_Source\PSoC4/CyLib.c ****         * which requires ILO to be enabled.
 800:.\Generated_Source\PSoC4/CyLib.c ****         */
 801:.\Generated_Source\PSoC4/CyLib.c ****         if (0u == (CY_SYS_CLK_ILO_CONFIG_REG & CY_SYS_CLK_ILO_CONFIG_ENABLE))
 1127              		.loc 1 801 0
 1128 0008 074B     		ldr	r3, .L82
 1129 000a 1B68     		ldr	r3, [r3]
 1130 000c 002B     		cmp	r3, #0
ARM GAS  C:\Users\Chuck\AppData\Local\Temp\ccRFe4cO.s 			page 35


 1131 000e 01DB     		blt	.L81
 802:.\Generated_Source\PSoC4/CyLib.c ****         {
 803:.\Generated_Source\PSoC4/CyLib.c ****             CySysClkIloStart();
 1132              		.loc 1 803 0
 1133 0010 FFF7FEFF 		bl	CySysClkIloStart
 1134              	.L81:
 804:.\Generated_Source\PSoC4/CyLib.c ****         }
 805:.\Generated_Source\PSoC4/CyLib.c **** 
 806:.\Generated_Source\PSoC4/CyLib.c ****         CY_SYS_WDT_CONTROL_REG &= ~counterMask;
 1135              		.loc 1 806 0
 1136 0014 054B     		ldr	r3, .L82+4
 1137 0016 054A     		ldr	r2, .L82+4
 1138 0018 1268     		ldr	r2, [r2]
 1139 001a 7968     		ldr	r1, [r7, #4]
 1140 001c C943     		mvn	r1, r1
 1141 001e 0A40     		and	r2, r1
 1142 0020 1A60     		str	r2, [r3]
 807:.\Generated_Source\PSoC4/CyLib.c ****     }
 1143              		.loc 1 807 0
 1144 0022 BD46     		mov	sp, r7
 1145 0024 02B0     		add	sp, sp, #8
 1146              		@ sp needed
 1147 0026 80BD     		pop	{r7, pc}
 1148              	.L83:
 1149              		.align	2
 1150              	.L82:
 1151 0028 04010B40 		.word	1074462980
 1152 002c 10020B40 		.word	1074463248
 1153              		.cfi_endproc
 1154              	.LFE15:
 1155              		.size	CySysWdtDisable, .-CySysWdtDisable
 1156              		.section	.text.CySysWdtWriteCascade,"ax",%progbits
 1157              		.align	2
 1158              		.global	CySysWdtWriteCascade
 1159              		.code	16
 1160              		.thumb_func
 1161              		.type	CySysWdtWriteCascade, %function
 1162              	CySysWdtWriteCascade:
 1163              	.LFB16:
 808:.\Generated_Source\PSoC4/CyLib.c **** 
 809:.\Generated_Source\PSoC4/CyLib.c **** 
 810:.\Generated_Source\PSoC4/CyLib.c ****     /*******************************************************************************
 811:.\Generated_Source\PSoC4/CyLib.c ****     * Function Name: CySysWdtWriteCascade
 812:.\Generated_Source\PSoC4/CyLib.c ****     ********************************************************************************
 813:.\Generated_Source\PSoC4/CyLib.c ****     *
 814:.\Generated_Source\PSoC4/CyLib.c ****     * Summary:
 815:.\Generated_Source\PSoC4/CyLib.c ****     *   Writes the two WDT cascade values based on the combination of mask values
 816:.\Generated_Source\PSoC4/CyLib.c ****     *   specified.
 817:.\Generated_Source\PSoC4/CyLib.c ****     *
 818:.\Generated_Source\PSoC4/CyLib.c ****     * Parameters:
 819:.\Generated_Source\PSoC4/CyLib.c ****     *   cascadeMask: Mask value used to set or clear the cascade values.
 820:.\Generated_Source\PSoC4/CyLib.c ****     *   Define                     Cascade
 821:.\Generated_Source\PSoC4/CyLib.c ****     *   CY_SYS_WDT_CASCADE_NONE    Neither
 822:.\Generated_Source\PSoC4/CyLib.c ****     *   CY_SYS_WDT_CASCADE_01      Cascade 01
 823:.\Generated_Source\PSoC4/CyLib.c ****     *   CY_SYS_WDT_CASCADE_12      Cascade 12
 824:.\Generated_Source\PSoC4/CyLib.c ****     *
 825:.\Generated_Source\PSoC4/CyLib.c ****     * Return:
ARM GAS  C:\Users\Chuck\AppData\Local\Temp\ccRFe4cO.s 			page 36


 826:.\Generated_Source\PSoC4/CyLib.c ****     *   None
 827:.\Generated_Source\PSoC4/CyLib.c ****     *
 828:.\Generated_Source\PSoC4/CyLib.c ****     * Side effects:
 829:.\Generated_Source\PSoC4/CyLib.c ****     *   If only one cascade mask is specified, the second cascade is disabled.
 830:.\Generated_Source\PSoC4/CyLib.c ****     *   To set both cascade modes two defines should be ORed:
 831:.\Generated_Source\PSoC4/CyLib.c ****     *    (CY_SYS_WDT_CASCADE_01 | CY_SYS_WDT_CASCADE_12)
 832:.\Generated_Source\PSoC4/CyLib.c ****     *   This API enables ILO, if it was disabled.
 833:.\Generated_Source\PSoC4/CyLib.c ****     *
 834:.\Generated_Source\PSoC4/CyLib.c ****     *******************************************************************************/
 835:.\Generated_Source\PSoC4/CyLib.c ****     void CySysWdtWriteCascade(uint32 cascadeMask)
 836:.\Generated_Source\PSoC4/CyLib.c ****     {
 1164              		.loc 1 836 0
 1165              		.cfi_startproc
 1166 0000 90B5     		push	{r4, r7, lr}
 1167              		.cfi_def_cfa_offset 12
 1168              		.cfi_offset 4, -12
 1169              		.cfi_offset 7, -8
 1170              		.cfi_offset 14, -4
 1171 0002 85B0     		sub	sp, sp, #20
 1172              		.cfi_def_cfa_offset 32
 1173 0004 00AF     		add	r7, sp, #0
 1174              		.cfi_def_cfa_register 7
 1175 0006 7860     		str	r0, [r7, #4]
 837:.\Generated_Source\PSoC4/CyLib.c ****         uint32 configRegValue;
 838:.\Generated_Source\PSoC4/CyLib.c ****         uint32 countersEnableStatus;
 839:.\Generated_Source\PSoC4/CyLib.c **** 
 840:.\Generated_Source\PSoC4/CyLib.c ****         countersEnableStatus = CySysWdtReadEnabledStatus(CY_SYS_WDT_COUNTER0) |
 1176              		.loc 1 840 0
 1177 0008 0020     		mov	r0, #0
 1178 000a FFF7FEFF 		bl	CySysWdtReadEnabledStatus
 1179 000e 041C     		mov	r4, r0
 841:.\Generated_Source\PSoC4/CyLib.c ****                             CySysWdtReadEnabledStatus(CY_SYS_WDT_COUNTER1) |
 1180              		.loc 1 841 0
 1181 0010 0120     		mov	r0, #1
 1182 0012 FFF7FEFF 		bl	CySysWdtReadEnabledStatus
 1183 0016 031C     		mov	r3, r0
 840:.\Generated_Source\PSoC4/CyLib.c ****                             CySysWdtReadEnabledStatus(CY_SYS_WDT_COUNTER1) |
 1184              		.loc 1 840 0
 1185 0018 1C43     		orr	r4, r3
 842:.\Generated_Source\PSoC4/CyLib.c ****                             CySysWdtReadEnabledStatus(CY_SYS_WDT_COUNTER2);
 1186              		.loc 1 842 0
 1187 001a 0220     		mov	r0, #2
 1188 001c FFF7FEFF 		bl	CySysWdtReadEnabledStatus
 1189 0020 031C     		mov	r3, r0
 840:.\Generated_Source\PSoC4/CyLib.c ****                             CySysWdtReadEnabledStatus(CY_SYS_WDT_COUNTER1) |
 1190              		.loc 1 840 0
 1191 0022 2343     		orr	r3, r4
 1192 0024 FB60     		str	r3, [r7, #12]
 843:.\Generated_Source\PSoC4/CyLib.c **** 
 844:.\Generated_Source\PSoC4/CyLib.c ****         if (0u == countersEnableStatus)
 1193              		.loc 1 844 0
 1194 0026 FB68     		ldr	r3, [r7, #12]
 1195 0028 002B     		cmp	r3, #0
 1196 002a 13D1     		bne	.L84
 845:.\Generated_Source\PSoC4/CyLib.c ****         {
 846:.\Generated_Source\PSoC4/CyLib.c ****             /* Configuring WDT involves passing control signals between clock domains,
 847:.\Generated_Source\PSoC4/CyLib.c ****             * which requires ILO to be enabled.
ARM GAS  C:\Users\Chuck\AppData\Local\Temp\ccRFe4cO.s 			page 37


 848:.\Generated_Source\PSoC4/CyLib.c ****             */
 849:.\Generated_Source\PSoC4/CyLib.c ****             if (0u == (CY_SYS_CLK_ILO_CONFIG_REG & CY_SYS_CLK_ILO_CONFIG_ENABLE))
 1197              		.loc 1 849 0
 1198 002c 0B4B     		ldr	r3, .L87
 1199 002e 1B68     		ldr	r3, [r3]
 1200 0030 002B     		cmp	r3, #0
 1201 0032 01DB     		blt	.L86
 850:.\Generated_Source\PSoC4/CyLib.c ****             {
 851:.\Generated_Source\PSoC4/CyLib.c ****                 CySysClkIloStart();
 1202              		.loc 1 851 0
 1203 0034 FFF7FEFF 		bl	CySysClkIloStart
 1204              	.L86:
 852:.\Generated_Source\PSoC4/CyLib.c ****             }
 853:.\Generated_Source\PSoC4/CyLib.c **** 
 854:.\Generated_Source\PSoC4/CyLib.c ****             configRegValue = CY_SYS_WDT_CONFIG_REG;
 1205              		.loc 1 854 0
 1206 0038 094B     		ldr	r3, .L87+4
 1207 003a 1B68     		ldr	r3, [r3]
 1208 003c BB60     		str	r3, [r7, #8]
 855:.\Generated_Source\PSoC4/CyLib.c ****             configRegValue &= ((uint32)(~(CY_SYS_WDT_CASCADE_01|CY_SYS_WDT_CASCADE_12)));
 1209              		.loc 1 855 0
 1210 003e BB68     		ldr	r3, [r7, #8]
 1211 0040 084A     		ldr	r2, .L87+8
 1212 0042 1340     		and	r3, r2
 1213 0044 BB60     		str	r3, [r7, #8]
 856:.\Generated_Source\PSoC4/CyLib.c ****             configRegValue |= cascadeMask;
 1214              		.loc 1 856 0
 1215 0046 BA68     		ldr	r2, [r7, #8]
 1216 0048 7B68     		ldr	r3, [r7, #4]
 1217 004a 1343     		orr	r3, r2
 1218 004c BB60     		str	r3, [r7, #8]
 857:.\Generated_Source\PSoC4/CyLib.c ****             CY_SYS_WDT_CONFIG_REG = configRegValue;
 1219              		.loc 1 857 0
 1220 004e 044B     		ldr	r3, .L87+4
 1221 0050 BA68     		ldr	r2, [r7, #8]
 1222 0052 1A60     		str	r2, [r3]
 1223              	.L84:
 858:.\Generated_Source\PSoC4/CyLib.c ****         }
 859:.\Generated_Source\PSoC4/CyLib.c ****     }
 1224              		.loc 1 859 0
 1225 0054 BD46     		mov	sp, r7
 1226 0056 05B0     		add	sp, sp, #20
 1227              		@ sp needed
 1228 0058 90BD     		pop	{r4, r7, pc}
 1229              	.L88:
 1230 005a C046     		.align	2
 1231              	.L87:
 1232 005c 04010B40 		.word	1074462980
 1233 0060 0C020B40 		.word	1074463244
 1234 0064 F7F7FFFF 		.word	-2057
 1235              		.cfi_endproc
 1236              	.LFE16:
 1237              		.size	CySysWdtWriteCascade, .-CySysWdtWriteCascade
 1238              		.section	.text.CySysWdtReadCascade,"ax",%progbits
 1239              		.align	2
 1240              		.global	CySysWdtReadCascade
 1241              		.code	16
ARM GAS  C:\Users\Chuck\AppData\Local\Temp\ccRFe4cO.s 			page 38


 1242              		.thumb_func
 1243              		.type	CySysWdtReadCascade, %function
 1244              	CySysWdtReadCascade:
 1245              	.LFB17:
 860:.\Generated_Source\PSoC4/CyLib.c **** 
 861:.\Generated_Source\PSoC4/CyLib.c **** 
 862:.\Generated_Source\PSoC4/CyLib.c ****     /*******************************************************************************
 863:.\Generated_Source\PSoC4/CyLib.c ****     * Function Name: CySysWdtReadCascade
 864:.\Generated_Source\PSoC4/CyLib.c ****     ********************************************************************************
 865:.\Generated_Source\PSoC4/CyLib.c ****     *
 866:.\Generated_Source\PSoC4/CyLib.c ****     * Summary:
 867:.\Generated_Source\PSoC4/CyLib.c ****     *   Reads the two WDT cascade values returning a mask of the bits set.
 868:.\Generated_Source\PSoC4/CyLib.c ****     *
 869:.\Generated_Source\PSoC4/CyLib.c ****     * Parameters:
 870:.\Generated_Source\PSoC4/CyLib.c ****     *   None
 871:.\Generated_Source\PSoC4/CyLib.c ****     *
 872:.\Generated_Source\PSoC4/CyLib.c ****     * Return:
 873:.\Generated_Source\PSoC4/CyLib.c ****     *   Mask of cascade values set.
 874:.\Generated_Source\PSoC4/CyLib.c ****     *   Define                     Cascade
 875:.\Generated_Source\PSoC4/CyLib.c ****     *   CY_SYS_WDT_CASCADE_NONE    Neither
 876:.\Generated_Source\PSoC4/CyLib.c ****     *   CY_SYS_WDT_CASCADE_01      Cascade 01
 877:.\Generated_Source\PSoC4/CyLib.c ****     *   CY_SYS_WDT_CASCADE_12      Cascade 12
 878:.\Generated_Source\PSoC4/CyLib.c ****     *
 879:.\Generated_Source\PSoC4/CyLib.c ****     *******************************************************************************/
 880:.\Generated_Source\PSoC4/CyLib.c ****     uint32 CySysWdtReadCascade(void)
 881:.\Generated_Source\PSoC4/CyLib.c ****     {
 1246              		.loc 1 881 0
 1247              		.cfi_startproc
 1248 0000 80B5     		push	{r7, lr}
 1249              		.cfi_def_cfa_offset 8
 1250              		.cfi_offset 7, -8
 1251              		.cfi_offset 14, -4
 1252 0002 00AF     		add	r7, sp, #0
 1253              		.cfi_def_cfa_register 7
 882:.\Generated_Source\PSoC4/CyLib.c ****         return (CY_SYS_WDT_CONFIG_REG & (CY_SYS_WDT_CASCADE_01 | CY_SYS_WDT_CASCADE_12));
 1254              		.loc 1 882 0
 1255 0004 034B     		ldr	r3, .L91
 1256 0006 1B68     		ldr	r3, [r3]
 1257 0008 034A     		ldr	r2, .L91+4
 1258 000a 1340     		and	r3, r2
 883:.\Generated_Source\PSoC4/CyLib.c ****     }
 1259              		.loc 1 883 0
 1260 000c 181C     		mov	r0, r3
 1261 000e BD46     		mov	sp, r7
 1262              		@ sp needed
 1263 0010 80BD     		pop	{r7, pc}
 1264              	.L92:
 1265 0012 C046     		.align	2
 1266              	.L91:
 1267 0014 0C020B40 		.word	1074463244
 1268 0018 08080000 		.word	2056
 1269              		.cfi_endproc
 1270              	.LFE17:
 1271              		.size	CySysWdtReadCascade, .-CySysWdtReadCascade
 1272              		.section	.text.CySysWdtWriteMatch,"ax",%progbits
 1273              		.align	2
 1274              		.global	CySysWdtWriteMatch
ARM GAS  C:\Users\Chuck\AppData\Local\Temp\ccRFe4cO.s 			page 39


 1275              		.code	16
 1276              		.thumb_func
 1277              		.type	CySysWdtWriteMatch, %function
 1278              	CySysWdtWriteMatch:
 1279              	.LFB18:
 884:.\Generated_Source\PSoC4/CyLib.c **** 
 885:.\Generated_Source\PSoC4/CyLib.c **** 
 886:.\Generated_Source\PSoC4/CyLib.c ****     /*******************************************************************************
 887:.\Generated_Source\PSoC4/CyLib.c ****     * Function Name: CySysWdtWriteMatch
 888:.\Generated_Source\PSoC4/CyLib.c ****     ********************************************************************************
 889:.\Generated_Source\PSoC4/CyLib.c ****     *
 890:.\Generated_Source\PSoC4/CyLib.c ****     * Summary:
 891:.\Generated_Source\PSoC4/CyLib.c ****     *  Configures the WDT counter match comparison value.
 892:.\Generated_Source\PSoC4/CyLib.c ****     *
 893:.\Generated_Source\PSoC4/CyLib.c ****     * Parameters:
 894:.\Generated_Source\PSoC4/CyLib.c ****     *  counterNum:
 895:.\Generated_Source\PSoC4/CyLib.c ****     *   Valid range [0-1]. Number of the WDT counter. Match values are not
 896:.\Generated_Source\PSoC4/CyLib.c ****     *   supported by counter 2.
 897:.\Generated_Source\PSoC4/CyLib.c ****     *
 898:.\Generated_Source\PSoC4/CyLib.c ****     *  match:
 899:.\Generated_Source\PSoC4/CyLib.c ****     *   Valid range [0-65535]. Value to be used to match against the counter.
 900:.\Generated_Source\PSoC4/CyLib.c ****     *
 901:.\Generated_Source\PSoC4/CyLib.c ****     * Return:
 902:.\Generated_Source\PSoC4/CyLib.c ****     *   None
 903:.\Generated_Source\PSoC4/CyLib.c ****     *
 904:.\Generated_Source\PSoC4/CyLib.c ****     * Side effects:
 905:.\Generated_Source\PSoC4/CyLib.c ****     *   This API enables ILO, if it was disabled.
 906:.\Generated_Source\PSoC4/CyLib.c ****     *
 907:.\Generated_Source\PSoC4/CyLib.c ****     *******************************************************************************/
 908:.\Generated_Source\PSoC4/CyLib.c ****     void CySysWdtWriteMatch(uint32 counterNum, uint32 match)
 909:.\Generated_Source\PSoC4/CyLib.c ****     {
 1280              		.loc 1 909 0
 1281              		.cfi_startproc
 1282 0000 80B5     		push	{r7, lr}
 1283              		.cfi_def_cfa_offset 8
 1284              		.cfi_offset 7, -8
 1285              		.cfi_offset 14, -4
 1286 0002 84B0     		sub	sp, sp, #16
 1287              		.cfi_def_cfa_offset 24
 1288 0004 00AF     		add	r7, sp, #0
 1289              		.cfi_def_cfa_register 7
 1290 0006 7860     		str	r0, [r7, #4]
 1291 0008 3960     		str	r1, [r7]
 910:.\Generated_Source\PSoC4/CyLib.c ****         uint32 regValue;
 911:.\Generated_Source\PSoC4/CyLib.c **** 
 912:.\Generated_Source\PSoC4/CyLib.c ****         CYASSERT((counterNum == CY_SYS_WDT_COUNTER0) ||
 1292              		.loc 1 912 0
 1293 000a 7B68     		ldr	r3, [r7, #4]
 1294 000c 002B     		cmp	r3, #0
 1295 000e 02D0     		beq	.L94
 1296              		.loc 1 912 0 is_stmt 0 discriminator 2
 1297 0010 7B68     		ldr	r3, [r7, #4]
 1298 0012 012B     		cmp	r3, #1
 1299 0014 01D1     		bne	.L95
 1300              	.L94:
 1301              		.loc 1 912 0 discriminator 3
 1302 0016 0123     		mov	r3, #1
ARM GAS  C:\Users\Chuck\AppData\Local\Temp\ccRFe4cO.s 			page 40


 1303 0018 00E0     		b	.L96
 1304              	.L95:
 1305              		.loc 1 912 0 discriminator 4
 1306 001a 0023     		mov	r3, #0
 1307              	.L96:
 1308              		.loc 1 912 0 discriminator 6
 1309 001c 002B     		cmp	r3, #0
 1310 001e 02D1     		bne	.L97
 1311              		.loc 1 912 0 discriminator 7
 1312 0020 0020     		mov	r0, #0
 1313 0022 FFF7FEFF 		bl	CyHalt
 1314              	.L97:
 913:.\Generated_Source\PSoC4/CyLib.c ****                                              (counterNum == CY_SYS_WDT_COUNTER1));
 914:.\Generated_Source\PSoC4/CyLib.c **** 
 915:.\Generated_Source\PSoC4/CyLib.c ****         /* Configuring WDT involves passing control signals between clock domains,
 916:.\Generated_Source\PSoC4/CyLib.c ****         * which requires ILO to be enabled.
 917:.\Generated_Source\PSoC4/CyLib.c ****         */
 918:.\Generated_Source\PSoC4/CyLib.c ****         if (0u == (CY_SYS_CLK_ILO_CONFIG_REG & CY_SYS_CLK_ILO_CONFIG_ENABLE))
 1315              		.loc 1 918 0 is_stmt 1
 1316 0026 114B     		ldr	r3, .L99
 1317 0028 1B68     		ldr	r3, [r3]
 1318 002a 002B     		cmp	r3, #0
 1319 002c 01DB     		blt	.L98
 919:.\Generated_Source\PSoC4/CyLib.c ****         {
 920:.\Generated_Source\PSoC4/CyLib.c ****             CySysClkIloStart();
 1320              		.loc 1 920 0
 1321 002e FFF7FEFF 		bl	CySysClkIloStart
 1322              	.L98:
 921:.\Generated_Source\PSoC4/CyLib.c ****         }
 922:.\Generated_Source\PSoC4/CyLib.c **** 
 923:.\Generated_Source\PSoC4/CyLib.c ****         /* Delay ~ 3LFCK in order to make sure previous changes are applied */
 924:.\Generated_Source\PSoC4/CyLib.c ****         CyDelayUs(CY_SYS_WDT_3LFCLK_DELAY_US);
 1323              		.loc 1 924 0
 1324 0032 8220     		mov	r0, #130
 1325 0034 FFF7FEFF 		bl	CyDelayUs
 925:.\Generated_Source\PSoC4/CyLib.c **** 
 926:.\Generated_Source\PSoC4/CyLib.c ****         regValue = CY_SYS_WDT_MATCH_REG;
 1326              		.loc 1 926 0
 1327 0038 0D4B     		ldr	r3, .L99+4
 1328 003a 1B68     		ldr	r3, [r3]
 1329 003c FB60     		str	r3, [r7, #12]
 927:.\Generated_Source\PSoC4/CyLib.c ****         regValue &= (uint32)~((uint32)(CY_SYS_WDT_LOWER_16BITS_MASK << (counterNum * CY_SYS_WDT_CNT
 1330              		.loc 1 927 0
 1331 003e 7B68     		ldr	r3, [r7, #4]
 1332 0040 1B01     		lsl	r3, r3, #4
 1333 0042 1A1C     		mov	r2, r3
 1334 0044 0B4B     		ldr	r3, .L99+8
 1335 0046 9340     		lsl	r3, r3, r2
 1336 0048 DA43     		mvn	r2, r3
 1337 004a FB68     		ldr	r3, [r7, #12]
 1338 004c 1340     		and	r3, r2
 1339 004e FB60     		str	r3, [r7, #12]
 928:.\Generated_Source\PSoC4/CyLib.c ****         CY_SYS_WDT_MATCH_REG = (regValue | (match << (counterNum * CY_SYS_WDT_CNT_MATCH_SHIFT)));
 1340              		.loc 1 928 0
 1341 0050 074B     		ldr	r3, .L99+4
 1342 0052 7A68     		ldr	r2, [r7, #4]
 1343 0054 1201     		lsl	r2, r2, #4
ARM GAS  C:\Users\Chuck\AppData\Local\Temp\ccRFe4cO.s 			page 41


 1344 0056 111C     		mov	r1, r2
 1345 0058 3A68     		ldr	r2, [r7]
 1346 005a 8A40     		lsl	r2, r2, r1
 1347 005c 111C     		mov	r1, r2
 1348 005e FA68     		ldr	r2, [r7, #12]
 1349 0060 0A43     		orr	r2, r1
 1350 0062 1A60     		str	r2, [r3]
 929:.\Generated_Source\PSoC4/CyLib.c ****     }
 1351              		.loc 1 929 0
 1352 0064 BD46     		mov	sp, r7
 1353 0066 04B0     		add	sp, sp, #16
 1354              		@ sp needed
 1355 0068 80BD     		pop	{r7, pc}
 1356              	.L100:
 1357 006a C046     		.align	2
 1358              	.L99:
 1359 006c 04010B40 		.word	1074462980
 1360 0070 08020B40 		.word	1074463240
 1361 0074 FFFF0000 		.word	65535
 1362              		.cfi_endproc
 1363              	.LFE18:
 1364              		.size	CySysWdtWriteMatch, .-CySysWdtWriteMatch
 1365              		.section	.text.CySysWdtWriteToggleBit,"ax",%progbits
 1366              		.align	2
 1367              		.global	CySysWdtWriteToggleBit
 1368              		.code	16
 1369              		.thumb_func
 1370              		.type	CySysWdtWriteToggleBit, %function
 1371              	CySysWdtWriteToggleBit:
 1372              	.LFB19:
 930:.\Generated_Source\PSoC4/CyLib.c **** 
 931:.\Generated_Source\PSoC4/CyLib.c **** 
 932:.\Generated_Source\PSoC4/CyLib.c ****     /*******************************************************************************
 933:.\Generated_Source\PSoC4/CyLib.c ****     * Function Name: CySysWdtWriteToggleBit
 934:.\Generated_Source\PSoC4/CyLib.c ****     ********************************************************************************
 935:.\Generated_Source\PSoC4/CyLib.c ****     *
 936:.\Generated_Source\PSoC4/CyLib.c ****     * Summary:
 937:.\Generated_Source\PSoC4/CyLib.c ****     *  Configures which bit in the WDT counter 2 to monitor for a toggle.  When that
 938:.\Generated_Source\PSoC4/CyLib.c ****     *  bit toggles, an interrupt is generated if the mode for counter 2 has
 939:.\Generated_Source\PSoC4/CyLib.c ****     *  interrupts enabled.
 940:.\Generated_Source\PSoC4/CyLib.c ****     *
 941:.\Generated_Source\PSoC4/CyLib.c ****     * Parameters:
 942:.\Generated_Source\PSoC4/CyLib.c ****     *  bit:
 943:.\Generated_Source\PSoC4/CyLib.c ****     *   Valid range [0-31].  Counter 2 bit to monitor for a toggle.
 944:.\Generated_Source\PSoC4/CyLib.c ****     *
 945:.\Generated_Source\PSoC4/CyLib.c ****     * Return:
 946:.\Generated_Source\PSoC4/CyLib.c ****     *   None
 947:.\Generated_Source\PSoC4/CyLib.c ****     *
 948:.\Generated_Source\PSoC4/CyLib.c ****     * Side effects:
 949:.\Generated_Source\PSoC4/CyLib.c ****     *   The WDT counter 2 should be disabled. Otherwise the function
 950:.\Generated_Source\PSoC4/CyLib.c ****     *   call will have no effect.
 951:.\Generated_Source\PSoC4/CyLib.c ****     *   This API enables the ILO, if it was disabled.
 952:.\Generated_Source\PSoC4/CyLib.c ****     *
 953:.\Generated_Source\PSoC4/CyLib.c ****     *******************************************************************************/
 954:.\Generated_Source\PSoC4/CyLib.c ****     void CySysWdtWriteToggleBit(uint32 bits)
 955:.\Generated_Source\PSoC4/CyLib.c ****     {
 1373              		.loc 1 955 0
ARM GAS  C:\Users\Chuck\AppData\Local\Temp\ccRFe4cO.s 			page 42


 1374              		.cfi_startproc
 1375 0000 80B5     		push	{r7, lr}
 1376              		.cfi_def_cfa_offset 8
 1377              		.cfi_offset 7, -8
 1378              		.cfi_offset 14, -4
 1379 0002 84B0     		sub	sp, sp, #16
 1380              		.cfi_def_cfa_offset 24
 1381 0004 00AF     		add	r7, sp, #0
 1382              		.cfi_def_cfa_register 7
 1383 0006 7860     		str	r0, [r7, #4]
 956:.\Generated_Source\PSoC4/CyLib.c ****         uint32 configRegValue;
 957:.\Generated_Source\PSoC4/CyLib.c **** 
 958:.\Generated_Source\PSoC4/CyLib.c ****         if (0u == CySysWdtReadEnabledStatus(CY_SYS_WDT_COUNTER2))
 1384              		.loc 1 958 0
 1385 0008 0220     		mov	r0, #2
 1386 000a FFF7FEFF 		bl	CySysWdtReadEnabledStatus
 1387 000e 031E     		sub	r3, r0, #0
 1388 0010 16D1     		bne	.L101
 959:.\Generated_Source\PSoC4/CyLib.c ****         {
 960:.\Generated_Source\PSoC4/CyLib.c ****             /* Configuring WDT involves passing control signals between clock domains,
 961:.\Generated_Source\PSoC4/CyLib.c ****             * which requires ILO to be enabled.
 962:.\Generated_Source\PSoC4/CyLib.c ****             */
 963:.\Generated_Source\PSoC4/CyLib.c ****             if (0u == (CY_SYS_CLK_ILO_CONFIG_REG & CY_SYS_CLK_ILO_CONFIG_ENABLE))
 1389              		.loc 1 963 0
 1390 0012 0D4B     		ldr	r3, .L104
 1391 0014 1B68     		ldr	r3, [r3]
 1392 0016 002B     		cmp	r3, #0
 1393 0018 01DB     		blt	.L103
 964:.\Generated_Source\PSoC4/CyLib.c ****             {
 965:.\Generated_Source\PSoC4/CyLib.c ****                 CySysClkIloStart();
 1394              		.loc 1 965 0
 1395 001a FFF7FEFF 		bl	CySysClkIloStart
 1396              	.L103:
 966:.\Generated_Source\PSoC4/CyLib.c ****             }
 967:.\Generated_Source\PSoC4/CyLib.c **** 
 968:.\Generated_Source\PSoC4/CyLib.c ****             configRegValue = CY_SYS_WDT_CONFIG_REG;
 1397              		.loc 1 968 0
 1398 001e 0B4B     		ldr	r3, .L104+4
 1399 0020 1B68     		ldr	r3, [r3]
 1400 0022 FB60     		str	r3, [r7, #12]
 969:.\Generated_Source\PSoC4/CyLib.c ****             configRegValue &= (uint32)(~((uint32)(CY_SYS_WDT_CONFIG_BITS2_MASK << CY_SYS_WDT_CONFIG
 1401              		.loc 1 969 0
 1402 0024 FB68     		ldr	r3, [r7, #12]
 1403 0026 0A4A     		ldr	r2, .L104+8
 1404 0028 1340     		and	r3, r2
 1405 002a FB60     		str	r3, [r7, #12]
 970:.\Generated_Source\PSoC4/CyLib.c ****             configRegValue |= ((bits & CY_SYS_WDT_CONFIG_BITS2_MASK) << CY_SYS_WDT_CONFIG_BITS2_POS
 1406              		.loc 1 970 0
 1407 002c 7B68     		ldr	r3, [r7, #4]
 1408 002e 1F22     		mov	r2, #31
 1409 0030 1340     		and	r3, r2
 1410 0032 1B06     		lsl	r3, r3, #24
 1411 0034 FA68     		ldr	r2, [r7, #12]
 1412 0036 1343     		orr	r3, r2
 1413 0038 FB60     		str	r3, [r7, #12]
 971:.\Generated_Source\PSoC4/CyLib.c ****             CY_SYS_WDT_CONFIG_REG = configRegValue;
 1414              		.loc 1 971 0
ARM GAS  C:\Users\Chuck\AppData\Local\Temp\ccRFe4cO.s 			page 43


 1415 003a 044B     		ldr	r3, .L104+4
 1416 003c FA68     		ldr	r2, [r7, #12]
 1417 003e 1A60     		str	r2, [r3]
 1418              	.L101:
 972:.\Generated_Source\PSoC4/CyLib.c ****         }
 973:.\Generated_Source\PSoC4/CyLib.c ****     }
 1419              		.loc 1 973 0
 1420 0040 BD46     		mov	sp, r7
 1421 0042 04B0     		add	sp, sp, #16
 1422              		@ sp needed
 1423 0044 80BD     		pop	{r7, pc}
 1424              	.L105:
 1425 0046 C046     		.align	2
 1426              	.L104:
 1427 0048 04010B40 		.word	1074462980
 1428 004c 0C020B40 		.word	1074463244
 1429 0050 FFFFFFE0 		.word	-520093697
 1430              		.cfi_endproc
 1431              	.LFE19:
 1432              		.size	CySysWdtWriteToggleBit, .-CySysWdtWriteToggleBit
 1433              		.section	.text.CySysWdtReadToggleBit,"ax",%progbits
 1434              		.align	2
 1435              		.global	CySysWdtReadToggleBit
 1436              		.code	16
 1437              		.thumb_func
 1438              		.type	CySysWdtReadToggleBit, %function
 1439              	CySysWdtReadToggleBit:
 1440              	.LFB20:
 974:.\Generated_Source\PSoC4/CyLib.c **** 
 975:.\Generated_Source\PSoC4/CyLib.c **** 
 976:.\Generated_Source\PSoC4/CyLib.c ****     /*******************************************************************************
 977:.\Generated_Source\PSoC4/CyLib.c ****     * Function Name: CySysWdtReadToggleBit
 978:.\Generated_Source\PSoC4/CyLib.c ****     ********************************************************************************
 979:.\Generated_Source\PSoC4/CyLib.c ****     *
 980:.\Generated_Source\PSoC4/CyLib.c ****     * Summary:
 981:.\Generated_Source\PSoC4/CyLib.c ****     *  Reads which bit in the WDT counter 2 is monitored for a toggle.
 982:.\Generated_Source\PSoC4/CyLib.c ****     *
 983:.\Generated_Source\PSoC4/CyLib.c ****     * Parameters:
 984:.\Generated_Source\PSoC4/CyLib.c ****     *  None
 985:.\Generated_Source\PSoC4/CyLib.c ****     *
 986:.\Generated_Source\PSoC4/CyLib.c ****     * Return:
 987:.\Generated_Source\PSoC4/CyLib.c ****     *  The bit that is monitored (range of 0 to 31)
 988:.\Generated_Source\PSoC4/CyLib.c ****     *
 989:.\Generated_Source\PSoC4/CyLib.c ****     *******************************************************************************/
 990:.\Generated_Source\PSoC4/CyLib.c ****     uint32 CySysWdtReadToggleBit(void)
 991:.\Generated_Source\PSoC4/CyLib.c ****     {
 1441              		.loc 1 991 0
 1442              		.cfi_startproc
 1443 0000 80B5     		push	{r7, lr}
 1444              		.cfi_def_cfa_offset 8
 1445              		.cfi_offset 7, -8
 1446              		.cfi_offset 14, -4
 1447 0002 00AF     		add	r7, sp, #0
 1448              		.cfi_def_cfa_register 7
 992:.\Generated_Source\PSoC4/CyLib.c ****         return ((CY_SYS_WDT_CONFIG_REG >> CY_SYS_WDT_CONFIG_BITS2_POS) & CY_SYS_WDT_CONFIG_BITS2_MA
 1449              		.loc 1 992 0
 1450 0004 034B     		ldr	r3, .L108
ARM GAS  C:\Users\Chuck\AppData\Local\Temp\ccRFe4cO.s 			page 44


 1451 0006 1B68     		ldr	r3, [r3]
 1452 0008 1B0E     		lsr	r3, r3, #24
 1453 000a 1F22     		mov	r2, #31
 1454 000c 1340     		and	r3, r2
 993:.\Generated_Source\PSoC4/CyLib.c ****     }
 1455              		.loc 1 993 0
 1456 000e 181C     		mov	r0, r3
 1457 0010 BD46     		mov	sp, r7
 1458              		@ sp needed
 1459 0012 80BD     		pop	{r7, pc}
 1460              	.L109:
 1461              		.align	2
 1462              	.L108:
 1463 0014 0C020B40 		.word	1074463244
 1464              		.cfi_endproc
 1465              	.LFE20:
 1466              		.size	CySysWdtReadToggleBit, .-CySysWdtReadToggleBit
 1467              		.section	.text.CySysWdtReadMatch,"ax",%progbits
 1468              		.align	2
 1469              		.global	CySysWdtReadMatch
 1470              		.code	16
 1471              		.thumb_func
 1472              		.type	CySysWdtReadMatch, %function
 1473              	CySysWdtReadMatch:
 1474              	.LFB21:
 994:.\Generated_Source\PSoC4/CyLib.c **** 
 995:.\Generated_Source\PSoC4/CyLib.c **** 
 996:.\Generated_Source\PSoC4/CyLib.c ****     /*******************************************************************************
 997:.\Generated_Source\PSoC4/CyLib.c ****     * Function Name: CySysWdtReadMatch
 998:.\Generated_Source\PSoC4/CyLib.c ****     ********************************************************************************
 999:.\Generated_Source\PSoC4/CyLib.c ****     *
1000:.\Generated_Source\PSoC4/CyLib.c ****     * Summary:
1001:.\Generated_Source\PSoC4/CyLib.c ****     *  Reads the WDT counter match comparison value.
1002:.\Generated_Source\PSoC4/CyLib.c ****     *
1003:.\Generated_Source\PSoC4/CyLib.c ****     * Parameters:
1004:.\Generated_Source\PSoC4/CyLib.c ****     *  counterNum: Valid range [0-1].  Number of the WDT counter.  Match values
1005:.\Generated_Source\PSoC4/CyLib.c ****     *               are not supported by counter 2.
1006:.\Generated_Source\PSoC4/CyLib.c ****     *
1007:.\Generated_Source\PSoC4/CyLib.c ****     * Return:
1008:.\Generated_Source\PSoC4/CyLib.c ****     *  Counter match value
1009:.\Generated_Source\PSoC4/CyLib.c ****     *
1010:.\Generated_Source\PSoC4/CyLib.c ****     *******************************************************************************/
1011:.\Generated_Source\PSoC4/CyLib.c ****     uint32 CySysWdtReadMatch(uint32 counterNum)
1012:.\Generated_Source\PSoC4/CyLib.c ****     {
 1475              		.loc 1 1012 0
 1476              		.cfi_startproc
 1477 0000 80B5     		push	{r7, lr}
 1478              		.cfi_def_cfa_offset 8
 1479              		.cfi_offset 7, -8
 1480              		.cfi_offset 14, -4
 1481 0002 82B0     		sub	sp, sp, #8
 1482              		.cfi_def_cfa_offset 16
 1483 0004 00AF     		add	r7, sp, #0
 1484              		.cfi_def_cfa_register 7
 1485 0006 7860     		str	r0, [r7, #4]
1013:.\Generated_Source\PSoC4/CyLib.c ****         CYASSERT((counterNum == CY_SYS_WDT_COUNTER0) ||
 1486              		.loc 1 1013 0
ARM GAS  C:\Users\Chuck\AppData\Local\Temp\ccRFe4cO.s 			page 45


 1487 0008 7B68     		ldr	r3, [r7, #4]
 1488 000a 002B     		cmp	r3, #0
 1489 000c 02D0     		beq	.L111
 1490              		.loc 1 1013 0 is_stmt 0 discriminator 2
 1491 000e 7B68     		ldr	r3, [r7, #4]
 1492 0010 012B     		cmp	r3, #1
 1493 0012 01D1     		bne	.L112
 1494              	.L111:
 1495              		.loc 1 1013 0 discriminator 3
 1496 0014 0123     		mov	r3, #1
 1497 0016 00E0     		b	.L113
 1498              	.L112:
 1499              		.loc 1 1013 0 discriminator 4
 1500 0018 0023     		mov	r3, #0
 1501              	.L113:
 1502              		.loc 1 1013 0 discriminator 6
 1503 001a 002B     		cmp	r3, #0
 1504 001c 02D1     		bne	.L114
 1505              		.loc 1 1013 0 discriminator 7
 1506 001e 0020     		mov	r0, #0
 1507 0020 FFF7FEFF 		bl	CyHalt
 1508              	.L114:
1014:.\Generated_Source\PSoC4/CyLib.c ****                                              (counterNum == CY_SYS_WDT_COUNTER1));
1015:.\Generated_Source\PSoC4/CyLib.c ****         return ((uint32)(CY_SYS_WDT_MATCH_REG >> (counterNum * CY_SYS_WDT_CNT_MATCH_SHIFT)) & CY_SY
 1509              		.loc 1 1015 0 is_stmt 1
 1510 0024 054B     		ldr	r3, .L116
 1511 0026 1B68     		ldr	r3, [r3]
 1512 0028 7A68     		ldr	r2, [r7, #4]
 1513 002a 1201     		lsl	r2, r2, #4
 1514 002c D340     		lsr	r3, r3, r2
 1515 002e 1B04     		lsl	r3, r3, #16
 1516 0030 1B0C     		lsr	r3, r3, #16
1016:.\Generated_Source\PSoC4/CyLib.c ****     }
 1517              		.loc 1 1016 0
 1518 0032 181C     		mov	r0, r3
 1519 0034 BD46     		mov	sp, r7
 1520 0036 02B0     		add	sp, sp, #8
 1521              		@ sp needed
 1522 0038 80BD     		pop	{r7, pc}
 1523              	.L117:
 1524 003a C046     		.align	2
 1525              	.L116:
 1526 003c 08020B40 		.word	1074463240
 1527              		.cfi_endproc
 1528              	.LFE21:
 1529              		.size	CySysWdtReadMatch, .-CySysWdtReadMatch
 1530              		.section	.text.CySysWdtReadCount,"ax",%progbits
 1531              		.align	2
 1532              		.global	CySysWdtReadCount
 1533              		.code	16
 1534              		.thumb_func
 1535              		.type	CySysWdtReadCount, %function
 1536              	CySysWdtReadCount:
 1537              	.LFB22:
1017:.\Generated_Source\PSoC4/CyLib.c **** 
1018:.\Generated_Source\PSoC4/CyLib.c **** 
1019:.\Generated_Source\PSoC4/CyLib.c ****     /*******************************************************************************
ARM GAS  C:\Users\Chuck\AppData\Local\Temp\ccRFe4cO.s 			page 46


1020:.\Generated_Source\PSoC4/CyLib.c ****     * Function Name: CySysWdtReadCount
1021:.\Generated_Source\PSoC4/CyLib.c ****     ********************************************************************************
1022:.\Generated_Source\PSoC4/CyLib.c ****     *
1023:.\Generated_Source\PSoC4/CyLib.c ****     * Summary:
1024:.\Generated_Source\PSoC4/CyLib.c ****     *  Reads the current WDT counter value.
1025:.\Generated_Source\PSoC4/CyLib.c ****     *
1026:.\Generated_Source\PSoC4/CyLib.c ****     * Parameters:
1027:.\Generated_Source\PSoC4/CyLib.c ****     *  counterNum: Valid range [0-2].  Number of the WDT counter.
1028:.\Generated_Source\PSoC4/CyLib.c ****     *
1029:.\Generated_Source\PSoC4/CyLib.c ****     * Return:
1030:.\Generated_Source\PSoC4/CyLib.c ****     *  Live counter value.  Counter 0 and 1 are 16 bit counters and counter
1031:.\Generated_Source\PSoC4/CyLib.c ****     *  2 is a 32 bit counter.
1032:.\Generated_Source\PSoC4/CyLib.c ****     *
1033:.\Generated_Source\PSoC4/CyLib.c ****     *******************************************************************************/
1034:.\Generated_Source\PSoC4/CyLib.c ****     uint32 CySysWdtReadCount(uint32 counterNum)
1035:.\Generated_Source\PSoC4/CyLib.c ****     {
 1538              		.loc 1 1035 0
 1539              		.cfi_startproc
 1540 0000 80B5     		push	{r7, lr}
 1541              		.cfi_def_cfa_offset 8
 1542              		.cfi_offset 7, -8
 1543              		.cfi_offset 14, -4
 1544 0002 84B0     		sub	sp, sp, #16
 1545              		.cfi_def_cfa_offset 24
 1546 0004 00AF     		add	r7, sp, #0
 1547              		.cfi_def_cfa_register 7
 1548 0006 7860     		str	r0, [r7, #4]
1036:.\Generated_Source\PSoC4/CyLib.c ****         uint32 regValue = 0u;
 1549              		.loc 1 1036 0
 1550 0008 0023     		mov	r3, #0
 1551 000a FB60     		str	r3, [r7, #12]
1037:.\Generated_Source\PSoC4/CyLib.c **** 
1038:.\Generated_Source\PSoC4/CyLib.c ****         switch(counterNum)
 1552              		.loc 1 1038 0
 1553 000c 7B68     		ldr	r3, [r7, #4]
 1554 000e 012B     		cmp	r3, #1
 1555 0010 09D0     		beq	.L120
 1556 0012 02D3     		bcc	.L121
 1557 0014 022B     		cmp	r3, #2
 1558 0016 0BD0     		beq	.L122
 1559 0018 0EE0     		b	.L125
 1560              	.L121:
1039:.\Generated_Source\PSoC4/CyLib.c ****         {
1040:.\Generated_Source\PSoC4/CyLib.c ****             /* WDT Counter 0 */
1041:.\Generated_Source\PSoC4/CyLib.c ****             case 0u:
1042:.\Generated_Source\PSoC4/CyLib.c ****                 regValue = CY_SYS_WDT_CTRLOW_REG & CY_SYS_WDT_LOWER_16BITS_MASK;
 1561              		.loc 1 1042 0
 1562 001a 0C4B     		ldr	r3, .L126
 1563 001c 1B68     		ldr	r3, [r3]
 1564 001e 1B04     		lsl	r3, r3, #16
 1565 0020 1B0C     		lsr	r3, r3, #16
 1566 0022 FB60     		str	r3, [r7, #12]
1043:.\Generated_Source\PSoC4/CyLib.c ****             break;
 1567              		.loc 1 1043 0
 1568 0024 0CE0     		b	.L123
 1569              	.L120:
1044:.\Generated_Source\PSoC4/CyLib.c **** 
ARM GAS  C:\Users\Chuck\AppData\Local\Temp\ccRFe4cO.s 			page 47


1045:.\Generated_Source\PSoC4/CyLib.c ****             /* WDT Counter 1 */
1046:.\Generated_Source\PSoC4/CyLib.c ****             case 1u:
1047:.\Generated_Source\PSoC4/CyLib.c ****                 regValue = (CY_SYS_WDT_CTRLOW_REG >> CY_SYS_WDT_CNT_MATCH_SHIFT) & CY_SYS_WDT_LOWER
 1570              		.loc 1 1047 0
 1571 0026 094B     		ldr	r3, .L126
 1572 0028 1B68     		ldr	r3, [r3]
 1573 002a 1B0C     		lsr	r3, r3, #16
 1574 002c FB60     		str	r3, [r7, #12]
1048:.\Generated_Source\PSoC4/CyLib.c ****             break;
 1575              		.loc 1 1048 0
 1576 002e 07E0     		b	.L123
 1577              	.L122:
1049:.\Generated_Source\PSoC4/CyLib.c **** 
1050:.\Generated_Source\PSoC4/CyLib.c ****             /* WDT Counter 2 */
1051:.\Generated_Source\PSoC4/CyLib.c ****             case 2u:
1052:.\Generated_Source\PSoC4/CyLib.c ****                 regValue = CY_SYS_WDT_CTRHIGH_REG;
 1578              		.loc 1 1052 0
 1579 0030 074B     		ldr	r3, .L126+4
 1580 0032 1B68     		ldr	r3, [r3]
 1581 0034 FB60     		str	r3, [r7, #12]
1053:.\Generated_Source\PSoC4/CyLib.c ****             break;
 1582              		.loc 1 1053 0
 1583 0036 03E0     		b	.L123
 1584              	.L125:
1054:.\Generated_Source\PSoC4/CyLib.c **** 
1055:.\Generated_Source\PSoC4/CyLib.c ****             default:
1056:.\Generated_Source\PSoC4/CyLib.c ****                 CYASSERT(0u != 0u);
 1585              		.loc 1 1056 0
 1586 0038 0020     		mov	r0, #0
 1587 003a FFF7FEFF 		bl	CyHalt
1057:.\Generated_Source\PSoC4/CyLib.c ****             break;
 1588              		.loc 1 1057 0
 1589 003e C046     		mov	r8, r8
 1590              	.L123:
1058:.\Generated_Source\PSoC4/CyLib.c ****         }
1059:.\Generated_Source\PSoC4/CyLib.c **** 
1060:.\Generated_Source\PSoC4/CyLib.c ****         return (regValue);
 1591              		.loc 1 1060 0
 1592 0040 FB68     		ldr	r3, [r7, #12]
1061:.\Generated_Source\PSoC4/CyLib.c ****     }
 1593              		.loc 1 1061 0
 1594 0042 181C     		mov	r0, r3
 1595 0044 BD46     		mov	sp, r7
 1596 0046 04B0     		add	sp, sp, #16
 1597              		@ sp needed
 1598 0048 80BD     		pop	{r7, pc}
 1599              	.L127:
 1600 004a C046     		.align	2
 1601              	.L126:
 1602 004c 00020B40 		.word	1074463232
 1603 0050 04020B40 		.word	1074463236
 1604              		.cfi_endproc
 1605              	.LFE22:
 1606              		.size	CySysWdtReadCount, .-CySysWdtReadCount
 1607              		.section	.text.CySysWdtGetInterruptSource,"ax",%progbits
 1608              		.align	2
 1609              		.global	CySysWdtGetInterruptSource
ARM GAS  C:\Users\Chuck\AppData\Local\Temp\ccRFe4cO.s 			page 48


 1610              		.code	16
 1611              		.thumb_func
 1612              		.type	CySysWdtGetInterruptSource, %function
 1613              	CySysWdtGetInterruptSource:
 1614              	.LFB23:
1062:.\Generated_Source\PSoC4/CyLib.c **** 
1063:.\Generated_Source\PSoC4/CyLib.c **** 
1064:.\Generated_Source\PSoC4/CyLib.c ****     /*******************************************************************************
1065:.\Generated_Source\PSoC4/CyLib.c ****     * Function Name: CySysWdtGetInterruptSource
1066:.\Generated_Source\PSoC4/CyLib.c ****     ********************************************************************************
1067:.\Generated_Source\PSoC4/CyLib.c ****     *
1068:.\Generated_Source\PSoC4/CyLib.c ****     * Summary:
1069:.\Generated_Source\PSoC4/CyLib.c ****     *   Reads a mask containing all the WDT counters interrupts that are currently
1070:.\Generated_Source\PSoC4/CyLib.c ****     *   set by the hardware, if a corresponding mode is selected.
1071:.\Generated_Source\PSoC4/CyLib.c ****     *
1072:.\Generated_Source\PSoC4/CyLib.c ****     * Parameters:
1073:.\Generated_Source\PSoC4/CyLib.c ****     *   None
1074:.\Generated_Source\PSoC4/CyLib.c ****     *
1075:.\Generated_Source\PSoC4/CyLib.c ****     * Return:
1076:.\Generated_Source\PSoC4/CyLib.c ****     *   Mask of interrupts set.
1077:.\Generated_Source\PSoC4/CyLib.c ****     *   Define                    Counter
1078:.\Generated_Source\PSoC4/CyLib.c ****     *   CY_SYS_WDT_COUNTER0_INT    0
1079:.\Generated_Source\PSoC4/CyLib.c ****     *   CY_SYS_WDT_COUNTER1_INT    1
1080:.\Generated_Source\PSoC4/CyLib.c ****     *   CY_SYS_WDT_COUNTER2_INT    2
1081:.\Generated_Source\PSoC4/CyLib.c ****     *
1082:.\Generated_Source\PSoC4/CyLib.c ****     *******************************************************************************/
1083:.\Generated_Source\PSoC4/CyLib.c ****     uint32 CySysWdtGetInterruptSource(void)
1084:.\Generated_Source\PSoC4/CyLib.c ****     {
 1615              		.loc 1 1084 0
 1616              		.cfi_startproc
 1617 0000 80B5     		push	{r7, lr}
 1618              		.cfi_def_cfa_offset 8
 1619              		.cfi_offset 7, -8
 1620              		.cfi_offset 14, -4
 1621 0002 00AF     		add	r7, sp, #0
 1622              		.cfi_def_cfa_register 7
1085:.\Generated_Source\PSoC4/CyLib.c ****         return (CY_SYS_WDT_CONTROL_REG & (CY_SYS_WDT_COUNTER0_INT | CY_SYS_WDT_COUNTER1_INT | CY_SY
 1623              		.loc 1 1085 0
 1624 0004 034B     		ldr	r3, .L130
 1625 0006 1B68     		ldr	r3, [r3]
 1626 0008 034A     		ldr	r2, .L130+4
 1627 000a 1340     		and	r3, r2
1086:.\Generated_Source\PSoC4/CyLib.c ****     }
 1628              		.loc 1 1086 0
 1629 000c 181C     		mov	r0, r3
 1630 000e BD46     		mov	sp, r7
 1631              		@ sp needed
 1632 0010 80BD     		pop	{r7, pc}
 1633              	.L131:
 1634 0012 C046     		.align	2
 1635              	.L130:
 1636 0014 10020B40 		.word	1074463248
 1637 0018 04040400 		.word	263172
 1638              		.cfi_endproc
 1639              	.LFE23:
 1640              		.size	CySysWdtGetInterruptSource, .-CySysWdtGetInterruptSource
 1641              		.section	.text.CySysWdtClearInterrupt,"ax",%progbits
ARM GAS  C:\Users\Chuck\AppData\Local\Temp\ccRFe4cO.s 			page 49


 1642              		.align	2
 1643              		.global	CySysWdtClearInterrupt
 1644              		.code	16
 1645              		.thumb_func
 1646              		.type	CySysWdtClearInterrupt, %function
 1647              	CySysWdtClearInterrupt:
 1648              	.LFB24:
1087:.\Generated_Source\PSoC4/CyLib.c **** 
1088:.\Generated_Source\PSoC4/CyLib.c **** 
1089:.\Generated_Source\PSoC4/CyLib.c ****     /*******************************************************************************
1090:.\Generated_Source\PSoC4/CyLib.c ****     * Function Name: CySysWdtClearInterrupt
1091:.\Generated_Source\PSoC4/CyLib.c ****     ********************************************************************************
1092:.\Generated_Source\PSoC4/CyLib.c ****     *
1093:.\Generated_Source\PSoC4/CyLib.c ****     * Summary:
1094:.\Generated_Source\PSoC4/CyLib.c ****     *   Clears all the WDT counter interrupts set in the mask. Calling this API also
1095:.\Generated_Source\PSoC4/CyLib.c ****     *   prevents Reset from happening when the counter mode is set to generate
1096:.\Generated_Source\PSoC4/CyLib.c ****     *   3 interrupts and then reset the device.
1097:.\Generated_Source\PSoC4/CyLib.c ****     *   All the WDT interrupts are to be cleared by the firmware, otherwise interrupts
1098:.\Generated_Source\PSoC4/CyLib.c ****     *   will be generated continuously.
1099:.\Generated_Source\PSoC4/CyLib.c ****     *
1100:.\Generated_Source\PSoC4/CyLib.c ****     * Parameters:
1101:.\Generated_Source\PSoC4/CyLib.c ****     *   counterMask: Mask of all counters to enable
1102:.\Generated_Source\PSoC4/CyLib.c ****     *   Define                    Counter
1103:.\Generated_Source\PSoC4/CyLib.c ****     *   CY_SYS_WDT_COUNTER0_INT    0
1104:.\Generated_Source\PSoC4/CyLib.c ****     *   CY_SYS_WDT_COUNTER1_INT    1
1105:.\Generated_Source\PSoC4/CyLib.c ****     *   CY_SYS_WDT_COUNTER2_INT    2
1106:.\Generated_Source\PSoC4/CyLib.c ****     *
1107:.\Generated_Source\PSoC4/CyLib.c ****     * Return:
1108:.\Generated_Source\PSoC4/CyLib.c ****     *   None
1109:.\Generated_Source\PSoC4/CyLib.c ****     *
1110:.\Generated_Source\PSoC4/CyLib.c ****     * Side effects:
1111:.\Generated_Source\PSoC4/CyLib.c ****     *   This API enables the ILO, if it was disabled and temporary removes Watchdog
1112:.\Generated_Source\PSoC4/CyLib.c ****     *   lock, if it was set, and restores the lock state, after cleaning the WDT
1113:.\Generated_Source\PSoC4/CyLib.c ****     *   interrupts, that are set in a mask.
1114:.\Generated_Source\PSoC4/CyLib.c ****     *
1115:.\Generated_Source\PSoC4/CyLib.c ****     *******************************************************************************/
1116:.\Generated_Source\PSoC4/CyLib.c ****     void CySysWdtClearInterrupt(uint32 counterMask)
1117:.\Generated_Source\PSoC4/CyLib.c ****     {
 1649              		.loc 1 1117 0
 1650              		.cfi_startproc
 1651 0000 90B5     		push	{r4, r7, lr}
 1652              		.cfi_def_cfa_offset 12
 1653              		.cfi_offset 4, -12
 1654              		.cfi_offset 7, -8
 1655              		.cfi_offset 14, -4
 1656 0002 85B0     		sub	sp, sp, #20
 1657              		.cfi_def_cfa_offset 32
 1658 0004 00AF     		add	r7, sp, #0
 1659              		.cfi_def_cfa_register 7
 1660 0006 7860     		str	r0, [r7, #4]
1118:.\Generated_Source\PSoC4/CyLib.c ****         uint8 interruptState;
1119:.\Generated_Source\PSoC4/CyLib.c ****         uint32 wdtLockState;
1120:.\Generated_Source\PSoC4/CyLib.c **** 
1121:.\Generated_Source\PSoC4/CyLib.c ****         interruptState = CyEnterCriticalSection();
 1661              		.loc 1 1121 0
 1662 0008 0B23     		mov	r3, #11
 1663 000a FC18     		add	r4, r7, r3
ARM GAS  C:\Users\Chuck\AppData\Local\Temp\ccRFe4cO.s 			page 50


 1664 000c FFF7FEFF 		bl	CyEnterCriticalSection
 1665 0010 031C     		mov	r3, r0
 1666 0012 2370     		strb	r3, [r4]
1122:.\Generated_Source\PSoC4/CyLib.c **** 
1123:.\Generated_Source\PSoC4/CyLib.c ****         /* Configuring WDT involves passing control signals between clock domains,
1124:.\Generated_Source\PSoC4/CyLib.c ****         * which requires ILO to be enabled.
1125:.\Generated_Source\PSoC4/CyLib.c ****         */
1126:.\Generated_Source\PSoC4/CyLib.c ****         if (0u == (CY_SYS_CLK_ILO_CONFIG_REG & CY_SYS_CLK_ILO_CONFIG_ENABLE))
 1667              		.loc 1 1126 0
 1668 0014 224B     		ldr	r3, .L137
 1669 0016 1B68     		ldr	r3, [r3]
 1670 0018 002B     		cmp	r3, #0
 1671 001a 01DB     		blt	.L133
1127:.\Generated_Source\PSoC4/CyLib.c ****         {
1128:.\Generated_Source\PSoC4/CyLib.c ****             CySysClkIloStart();
 1672              		.loc 1 1128 0
 1673 001c FFF7FEFF 		bl	CySysClkIloStart
 1674              	.L133:
1129:.\Generated_Source\PSoC4/CyLib.c ****         }
1130:.\Generated_Source\PSoC4/CyLib.c **** 
1131:.\Generated_Source\PSoC4/CyLib.c ****         if ((CY_SYS_CLK_SELECT_REG & (uint32)(CY_SYS_WDT_CLK_LOCK_BITS_MASK)) == CY_SYS_WDT_CLK_LOC
 1675              		.loc 1 1131 0
 1676 0020 204B     		ldr	r3, .L137+4
 1677 0022 1A68     		ldr	r2, [r3]
 1678 0024 C023     		mov	r3, #192
 1679 0026 1B02     		lsl	r3, r3, #8
 1680 0028 1A40     		and	r2, r3
 1681 002a C023     		mov	r3, #192
 1682 002c 1B02     		lsl	r3, r3, #8
 1683 002e 9A42     		cmp	r2, r3
 1684 0030 14D1     		bne	.L134
1132:.\Generated_Source\PSoC4/CyLib.c ****         {
1133:.\Generated_Source\PSoC4/CyLib.c ****             wdtLockState = 1u;
 1685              		.loc 1 1133 0
 1686 0032 0123     		mov	r3, #1
 1687 0034 FB60     		str	r3, [r7, #12]
1134:.\Generated_Source\PSoC4/CyLib.c **** 
1135:.\Generated_Source\PSoC4/CyLib.c ****             /* Removing WDT lock requires two writes */
1136:.\Generated_Source\PSoC4/CyLib.c ****             CY_SYS_CLK_SELECT_REG = ((CY_SYS_CLK_SELECT_REG & (uint32)(~CY_SYS_WDT_CLK_LOCK_BITS_MA
 1688              		.loc 1 1136 0
 1689 0036 1B4B     		ldr	r3, .L137+4
 1690 0038 1A4A     		ldr	r2, .L137+4
 1691 003a 1268     		ldr	r2, [r2]
 1692 003c 1A49     		ldr	r1, .L137+8
 1693 003e 0A40     		and	r2, r1
 1694 0040 8021     		mov	r1, #128
 1695 0042 C901     		lsl	r1, r1, #7
 1696 0044 0A43     		orr	r2, r1
 1697 0046 1A60     		str	r2, [r3]
1137:.\Generated_Source\PSoC4/CyLib.c ****                     CY_SYS_WDT_CLK_LOCK_BIT0);
1138:.\Generated_Source\PSoC4/CyLib.c **** 
1139:.\Generated_Source\PSoC4/CyLib.c ****             CY_SYS_CLK_SELECT_REG = ((CY_SYS_CLK_SELECT_REG & (uint32)(~CY_SYS_WDT_CLK_LOCK_BITS_MA
 1698              		.loc 1 1139 0
 1699 0048 164B     		ldr	r3, .L137+4
 1700 004a 164A     		ldr	r2, .L137+4
 1701 004c 1268     		ldr	r2, [r2]
 1702 004e 1649     		ldr	r1, .L137+8
ARM GAS  C:\Users\Chuck\AppData\Local\Temp\ccRFe4cO.s 			page 51


 1703 0050 0A40     		and	r2, r1
 1704 0052 8021     		mov	r1, #128
 1705 0054 0902     		lsl	r1, r1, #8
 1706 0056 0A43     		orr	r2, r1
 1707 0058 1A60     		str	r2, [r3]
 1708 005a 01E0     		b	.L135
 1709              	.L134:
1140:.\Generated_Source\PSoC4/CyLib.c ****                     CY_SYS_WDT_CLK_LOCK_BIT1);
1141:.\Generated_Source\PSoC4/CyLib.c ****         }
1142:.\Generated_Source\PSoC4/CyLib.c ****         else
1143:.\Generated_Source\PSoC4/CyLib.c ****         {
1144:.\Generated_Source\PSoC4/CyLib.c ****             wdtLockState = 0u;
 1710              		.loc 1 1144 0
 1711 005c 0023     		mov	r3, #0
 1712 005e FB60     		str	r3, [r7, #12]
 1713              	.L135:
1145:.\Generated_Source\PSoC4/CyLib.c ****         }
1146:.\Generated_Source\PSoC4/CyLib.c **** 
1147:.\Generated_Source\PSoC4/CyLib.c ****         /* Set new WDT control register value */
1148:.\Generated_Source\PSoC4/CyLib.c ****         counterMask &= (CY_SYS_WDT_COUNTER0_INT |
 1714              		.loc 1 1148 0
 1715 0060 7B68     		ldr	r3, [r7, #4]
 1716 0062 124A     		ldr	r2, .L137+12
 1717 0064 1340     		and	r3, r2
 1718 0066 7B60     		str	r3, [r7, #4]
1149:.\Generated_Source\PSoC4/CyLib.c ****                         CY_SYS_WDT_COUNTER1_INT |
1150:.\Generated_Source\PSoC4/CyLib.c ****                         CY_SYS_WDT_COUNTER2_INT);
1151:.\Generated_Source\PSoC4/CyLib.c **** 
1152:.\Generated_Source\PSoC4/CyLib.c ****         CY_SYS_WDT_CONTROL_REG = counterMask | (CY_SYS_WDT_CONTROL_REG & ~(CY_SYS_WDT_COUNTER0_INT 
 1719              		.loc 1 1152 0
 1720 0068 114B     		ldr	r3, .L137+16
 1721 006a 114A     		ldr	r2, .L137+16
 1722 006c 1268     		ldr	r2, [r2]
 1723 006e 1149     		ldr	r1, .L137+20
 1724 0070 1140     		and	r1, r2
 1725 0072 7A68     		ldr	r2, [r7, #4]
 1726 0074 0A43     		orr	r2, r1
 1727 0076 1A60     		str	r2, [r3]
1153:.\Generated_Source\PSoC4/CyLib.c ****                                                                            CY_SYS_WDT_COUNTER1_INT 
1154:.\Generated_Source\PSoC4/CyLib.c ****                                                                            CY_SYS_WDT_COUNTER2_INT)
1155:.\Generated_Source\PSoC4/CyLib.c **** 
1156:.\Generated_Source\PSoC4/CyLib.c ****         if (1u == wdtLockState)
 1728              		.loc 1 1156 0
 1729 0078 FB68     		ldr	r3, [r7, #12]
 1730 007a 012B     		cmp	r3, #1
 1731 007c 06D1     		bne	.L136
1157:.\Generated_Source\PSoC4/CyLib.c ****         {
1158:.\Generated_Source\PSoC4/CyLib.c ****             /* CLK_SELECT register's bits 15:14 are WDT_LOCK */
1159:.\Generated_Source\PSoC4/CyLib.c ****             CY_SYS_CLK_SELECT_REG = (CY_SYS_CLK_SELECT_REG & (uint32)(~CY_SYS_WDT_CLK_LOCK_BITS_MAS
 1732              		.loc 1 1159 0
 1733 007e 094B     		ldr	r3, .L137+4
 1734 0080 084A     		ldr	r2, .L137+4
 1735 0082 1268     		ldr	r2, [r2]
 1736 0084 C021     		mov	r1, #192
 1737 0086 0902     		lsl	r1, r1, #8
 1738 0088 0A43     		orr	r2, r1
 1739 008a 1A60     		str	r2, [r3]
ARM GAS  C:\Users\Chuck\AppData\Local\Temp\ccRFe4cO.s 			page 52


 1740              	.L136:
1160:.\Generated_Source\PSoC4/CyLib.c ****                      CY_SYS_WDT_CLK_LOCK_BITS_MASK;
1161:.\Generated_Source\PSoC4/CyLib.c ****         }
1162:.\Generated_Source\PSoC4/CyLib.c **** 
1163:.\Generated_Source\PSoC4/CyLib.c ****         CyExitCriticalSection(interruptState);
 1741              		.loc 1 1163 0
 1742 008c 0B23     		mov	r3, #11
 1743 008e FB18     		add	r3, r7, r3
 1744 0090 1B78     		ldrb	r3, [r3]
 1745 0092 181C     		mov	r0, r3
 1746 0094 FFF7FEFF 		bl	CyExitCriticalSection
1164:.\Generated_Source\PSoC4/CyLib.c ****     }
 1747              		.loc 1 1164 0
 1748 0098 BD46     		mov	sp, r7
 1749 009a 05B0     		add	sp, sp, #20
 1750              		@ sp needed
 1751 009c 90BD     		pop	{r4, r7, pc}
 1752              	.L138:
 1753 009e C046     		.align	2
 1754              	.L137:
 1755 00a0 04010B40 		.word	1074462980
 1756 00a4 00010B40 		.word	1074462976
 1757 00a8 FF3FFFFF 		.word	-49153
 1758 00ac 04040400 		.word	263172
 1759 00b0 10020B40 		.word	1074463248
 1760 00b4 FBFBFBFF 		.word	-263173
 1761              		.cfi_endproc
 1762              	.LFE24:
 1763              		.size	CySysWdtClearInterrupt, .-CySysWdtClearInterrupt
 1764              		.section	.text.CySysWdtResetCounters,"ax",%progbits
 1765              		.align	2
 1766              		.global	CySysWdtResetCounters
 1767              		.code	16
 1768              		.thumb_func
 1769              		.type	CySysWdtResetCounters, %function
 1770              	CySysWdtResetCounters:
 1771              	.LFB25:
1165:.\Generated_Source\PSoC4/CyLib.c **** 
1166:.\Generated_Source\PSoC4/CyLib.c **** 
1167:.\Generated_Source\PSoC4/CyLib.c ****     /*******************************************************************************
1168:.\Generated_Source\PSoC4/CyLib.c ****     * Function Name: CySysWdtResetCounters
1169:.\Generated_Source\PSoC4/CyLib.c ****     ********************************************************************************
1170:.\Generated_Source\PSoC4/CyLib.c ****     *
1171:.\Generated_Source\PSoC4/CyLib.c ****     * Summary:
1172:.\Generated_Source\PSoC4/CyLib.c ****     *  Resets all WDT counters set in the mask.
1173:.\Generated_Source\PSoC4/CyLib.c ****     *
1174:.\Generated_Source\PSoC4/CyLib.c ****     * Parameters:
1175:.\Generated_Source\PSoC4/CyLib.c ****     *  counterMask: Mask of all counters to reset.
1176:.\Generated_Source\PSoC4/CyLib.c ****     *   Define                       Counter
1177:.\Generated_Source\PSoC4/CyLib.c ****     *   CY_SYS_WDT_COUNTER0_RESET    0
1178:.\Generated_Source\PSoC4/CyLib.c ****     *   CY_SYS_WDT_COUNTER1_RESET    1
1179:.\Generated_Source\PSoC4/CyLib.c ****     *   CY_SYS_WDT_COUNTER2_RESET    2
1180:.\Generated_Source\PSoC4/CyLib.c ****     *
1181:.\Generated_Source\PSoC4/CyLib.c ****     * Return:
1182:.\Generated_Source\PSoC4/CyLib.c ****     *   None
1183:.\Generated_Source\PSoC4/CyLib.c ****     *
1184:.\Generated_Source\PSoC4/CyLib.c ****     * Side effects:
ARM GAS  C:\Users\Chuck\AppData\Local\Temp\ccRFe4cO.s 			page 53


1185:.\Generated_Source\PSoC4/CyLib.c ****     *   This API enables the ILO, if it was disabled, this API call will not reset
1186:.\Generated_Source\PSoC4/CyLib.c ****     *   the counter values, if the Watchdog is locked.
1187:.\Generated_Source\PSoC4/CyLib.c ****     *
1188:.\Generated_Source\PSoC4/CyLib.c ****     *******************************************************************************/
1189:.\Generated_Source\PSoC4/CyLib.c ****     void CySysWdtResetCounters(uint32 countersMask)
1190:.\Generated_Source\PSoC4/CyLib.c ****     {
 1772              		.loc 1 1190 0
 1773              		.cfi_startproc
 1774 0000 80B5     		push	{r7, lr}
 1775              		.cfi_def_cfa_offset 8
 1776              		.cfi_offset 7, -8
 1777              		.cfi_offset 14, -4
 1778 0002 82B0     		sub	sp, sp, #8
 1779              		.cfi_def_cfa_offset 16
 1780 0004 00AF     		add	r7, sp, #0
 1781              		.cfi_def_cfa_register 7
 1782 0006 7860     		str	r0, [r7, #4]
1191:.\Generated_Source\PSoC4/CyLib.c ****         /* Configuring WDT involves passing control signals between clock domains,
1192:.\Generated_Source\PSoC4/CyLib.c ****         * which requires ILO to be enabled.
1193:.\Generated_Source\PSoC4/CyLib.c ****         */
1194:.\Generated_Source\PSoC4/CyLib.c ****         if (0u == (CY_SYS_CLK_ILO_CONFIG_REG & CY_SYS_CLK_ILO_CONFIG_ENABLE))
 1783              		.loc 1 1194 0
 1784 0008 084B     		ldr	r3, .L141
 1785 000a 1B68     		ldr	r3, [r3]
 1786 000c 002B     		cmp	r3, #0
 1787 000e 01DB     		blt	.L140
1195:.\Generated_Source\PSoC4/CyLib.c ****         {
1196:.\Generated_Source\PSoC4/CyLib.c ****             CySysClkIloStart();
 1788              		.loc 1 1196 0
 1789 0010 FFF7FEFF 		bl	CySysClkIloStart
 1790              	.L140:
1197:.\Generated_Source\PSoC4/CyLib.c ****         }
1198:.\Generated_Source\PSoC4/CyLib.c **** 
1199:.\Generated_Source\PSoC4/CyLib.c ****         /* Set new WDT reset value */
1200:.\Generated_Source\PSoC4/CyLib.c ****         CY_SYS_WDT_CONTROL_REG |= (countersMask & (CY_SYS_WDT_COUNTER0_RESET |
 1791              		.loc 1 1200 0
 1792 0014 064B     		ldr	r3, .L141+4
 1793 0016 064A     		ldr	r2, .L141+4
 1794 0018 1168     		ldr	r1, [r2]
 1795 001a 7A68     		ldr	r2, [r7, #4]
 1796 001c 0548     		ldr	r0, .L141+8
 1797 001e 0240     		and	r2, r0
 1798 0020 0A43     		orr	r2, r1
 1799 0022 1A60     		str	r2, [r3]
1201:.\Generated_Source\PSoC4/CyLib.c ****             CY_SYS_WDT_COUNTER1_RESET | CY_SYS_WDT_COUNTER2_RESET));
1202:.\Generated_Source\PSoC4/CyLib.c ****     }
 1800              		.loc 1 1202 0
 1801 0024 BD46     		mov	sp, r7
 1802 0026 02B0     		add	sp, sp, #8
 1803              		@ sp needed
 1804 0028 80BD     		pop	{r7, pc}
 1805              	.L142:
 1806 002a C046     		.align	2
 1807              	.L141:
 1808 002c 04010B40 		.word	1074462980
 1809 0030 10020B40 		.word	1074463248
 1810 0034 08080800 		.word	526344
ARM GAS  C:\Users\Chuck\AppData\Local\Temp\ccRFe4cO.s 			page 54


 1811              		.cfi_endproc
 1812              	.LFE25:
 1813              		.size	CySysWdtResetCounters, .-CySysWdtResetCounters
 1814              		.section	.text.CySysLvdEnable,"ax",%progbits
 1815              		.align	2
 1816              		.global	CySysLvdEnable
 1817              		.code	16
 1818              		.thumb_func
 1819              		.type	CySysLvdEnable, %function
 1820              	CySysLvdEnable:
 1821              	.LFB26:
1203:.\Generated_Source\PSoC4/CyLib.c **** 
1204:.\Generated_Source\PSoC4/CyLib.c **** #else
1205:.\Generated_Source\PSoC4/CyLib.c **** 
1206:.\Generated_Source\PSoC4/CyLib.c ****     /*******************************************************************************
1207:.\Generated_Source\PSoC4/CyLib.c ****     * Function Name: CySysWdtReadEnabledStatus
1208:.\Generated_Source\PSoC4/CyLib.c ****     ********************************************************************************
1209:.\Generated_Source\PSoC4/CyLib.c ****     *
1210:.\Generated_Source\PSoC4/CyLib.c ****     * Summary:
1211:.\Generated_Source\PSoC4/CyLib.c ****     *  Reads the enabled status WDT counter.
1212:.\Generated_Source\PSoC4/CyLib.c ****     *
1213:.\Generated_Source\PSoC4/CyLib.c ****     * Parameters:
1214:.\Generated_Source\PSoC4/CyLib.c ****     *  None
1215:.\Generated_Source\PSoC4/CyLib.c ****     *
1216:.\Generated_Source\PSoC4/CyLib.c ****     * Return:
1217:.\Generated_Source\PSoC4/CyLib.c ****     *  Status of WDT counter:
1218:.\Generated_Source\PSoC4/CyLib.c ****     *   0 - counter is disabled
1219:.\Generated_Source\PSoC4/CyLib.c ****     *   1 - counter is enabled
1220:.\Generated_Source\PSoC4/CyLib.c ****     *
1221:.\Generated_Source\PSoC4/CyLib.c ****     * Side Effects:
1222:.\Generated_Source\PSoC4/CyLib.c ****     *  None
1223:.\Generated_Source\PSoC4/CyLib.c ****     *
1224:.\Generated_Source\PSoC4/CyLib.c ****     *******************************************************************************/
1225:.\Generated_Source\PSoC4/CyLib.c ****     uint32 CySysWdtReadEnabledStatus(void)
1226:.\Generated_Source\PSoC4/CyLib.c ****     {
1227:.\Generated_Source\PSoC4/CyLib.c ****         return ((CY_SYS_WDT_DISABLE_KEY_REG == CY_SYS_WDT_KEY) ? 0u : 1u);
1228:.\Generated_Source\PSoC4/CyLib.c ****     }
1229:.\Generated_Source\PSoC4/CyLib.c **** 
1230:.\Generated_Source\PSoC4/CyLib.c **** 
1231:.\Generated_Source\PSoC4/CyLib.c ****     /*******************************************************************************
1232:.\Generated_Source\PSoC4/CyLib.c ****     * Function Name: CySysWdtEnable
1233:.\Generated_Source\PSoC4/CyLib.c ****     ********************************************************************************
1234:.\Generated_Source\PSoC4/CyLib.c ****     *
1235:.\Generated_Source\PSoC4/CyLib.c ****     * Summary:
1236:.\Generated_Source\PSoC4/CyLib.c ****     *  Enables the WDT counter.
1237:.\Generated_Source\PSoC4/CyLib.c ****     *
1238:.\Generated_Source\PSoC4/CyLib.c ****     * Parameters:
1239:.\Generated_Source\PSoC4/CyLib.c ****     *  None
1240:.\Generated_Source\PSoC4/CyLib.c ****     *
1241:.\Generated_Source\PSoC4/CyLib.c ****     * Return:
1242:.\Generated_Source\PSoC4/CyLib.c ****     *  None
1243:.\Generated_Source\PSoC4/CyLib.c ****     *
1244:.\Generated_Source\PSoC4/CyLib.c ****     * Side Effects:
1245:.\Generated_Source\PSoC4/CyLib.c ****     *  This API enables ILO, if it was disabled.
1246:.\Generated_Source\PSoC4/CyLib.c ****     *
1247:.\Generated_Source\PSoC4/CyLib.c ****     *******************************************************************************/
1248:.\Generated_Source\PSoC4/CyLib.c ****     void CySysWdtEnable(void)
ARM GAS  C:\Users\Chuck\AppData\Local\Temp\ccRFe4cO.s 			page 55


1249:.\Generated_Source\PSoC4/CyLib.c ****     {
1250:.\Generated_Source\PSoC4/CyLib.c ****         /* Configuring WDT involves passing control signals between clock domains,
1251:.\Generated_Source\PSoC4/CyLib.c ****         * which requires ILO to be enabled.
1252:.\Generated_Source\PSoC4/CyLib.c ****         */
1253:.\Generated_Source\PSoC4/CyLib.c ****         if (0u == (CY_SYS_CLK_ILO_CONFIG_REG & CY_SYS_CLK_ILO_CONFIG_ENABLE))
1254:.\Generated_Source\PSoC4/CyLib.c ****         {
1255:.\Generated_Source\PSoC4/CyLib.c ****             CySysClkIloStart();
1256:.\Generated_Source\PSoC4/CyLib.c ****         }
1257:.\Generated_Source\PSoC4/CyLib.c **** 
1258:.\Generated_Source\PSoC4/CyLib.c ****         CY_SYS_WDT_DISABLE_KEY_REG = 0u;
1259:.\Generated_Source\PSoC4/CyLib.c ****     }
1260:.\Generated_Source\PSoC4/CyLib.c **** 
1261:.\Generated_Source\PSoC4/CyLib.c **** 
1262:.\Generated_Source\PSoC4/CyLib.c ****     /*******************************************************************************
1263:.\Generated_Source\PSoC4/CyLib.c ****     * Function Name: CySysWdtDisable
1264:.\Generated_Source\PSoC4/CyLib.c ****     ********************************************************************************
1265:.\Generated_Source\PSoC4/CyLib.c ****     *
1266:.\Generated_Source\PSoC4/CyLib.c ****     * Summary:
1267:.\Generated_Source\PSoC4/CyLib.c ****     *  Disables the WDT counter.
1268:.\Generated_Source\PSoC4/CyLib.c ****     *
1269:.\Generated_Source\PSoC4/CyLib.c ****     * Parameters:
1270:.\Generated_Source\PSoC4/CyLib.c ****     *  None
1271:.\Generated_Source\PSoC4/CyLib.c ****     *
1272:.\Generated_Source\PSoC4/CyLib.c ****     * Return:
1273:.\Generated_Source\PSoC4/CyLib.c ****     *  None
1274:.\Generated_Source\PSoC4/CyLib.c ****     *
1275:.\Generated_Source\PSoC4/CyLib.c ****     * Side Effects:
1276:.\Generated_Source\PSoC4/CyLib.c ****     *  In order to disable the ILO clock the WDT counter should be disabled.
1277:.\Generated_Source\PSoC4/CyLib.c ****     *
1278:.\Generated_Source\PSoC4/CyLib.c ****     *******************************************************************************/
1279:.\Generated_Source\PSoC4/CyLib.c ****     void CySysWdtDisable(void)
1280:.\Generated_Source\PSoC4/CyLib.c ****     {
1281:.\Generated_Source\PSoC4/CyLib.c ****         CY_SYS_WDT_DISABLE_KEY_REG = CY_SYS_WDT_KEY;
1282:.\Generated_Source\PSoC4/CyLib.c ****     }
1283:.\Generated_Source\PSoC4/CyLib.c **** 
1284:.\Generated_Source\PSoC4/CyLib.c **** 
1285:.\Generated_Source\PSoC4/CyLib.c ****     /*******************************************************************************
1286:.\Generated_Source\PSoC4/CyLib.c ****     * Function Name: CySysWdtWriteMatch
1287:.\Generated_Source\PSoC4/CyLib.c ****     ********************************************************************************
1288:.\Generated_Source\PSoC4/CyLib.c ****     *
1289:.\Generated_Source\PSoC4/CyLib.c ****     * Summary:
1290:.\Generated_Source\PSoC4/CyLib.c ****     *  Configures the WDT counter match comparison value.
1291:.\Generated_Source\PSoC4/CyLib.c ****     *
1292:.\Generated_Source\PSoC4/CyLib.c ****     * Parameters:
1293:.\Generated_Source\PSoC4/CyLib.c ****     *  match:
1294:.\Generated_Source\PSoC4/CyLib.c ****     *   Valid range [0-65535]. Value to be used to match against the counter.
1295:.\Generated_Source\PSoC4/CyLib.c ****     *
1296:.\Generated_Source\PSoC4/CyLib.c ****     * Return:
1297:.\Generated_Source\PSoC4/CyLib.c ****     *  None
1298:.\Generated_Source\PSoC4/CyLib.c ****     *
1299:.\Generated_Source\PSoC4/CyLib.c ****     * Side Effects:
1300:.\Generated_Source\PSoC4/CyLib.c ****     *  This API enables ILO, if it was disabled.
1301:.\Generated_Source\PSoC4/CyLib.c ****     *
1302:.\Generated_Source\PSoC4/CyLib.c ****     *******************************************************************************/
1303:.\Generated_Source\PSoC4/CyLib.c ****     void CySysWdtWriteMatch(uint32 match)
1304:.\Generated_Source\PSoC4/CyLib.c ****     {
1305:.\Generated_Source\PSoC4/CyLib.c ****         /* Configuring WDT involves passing control signals between clock domains,
ARM GAS  C:\Users\Chuck\AppData\Local\Temp\ccRFe4cO.s 			page 56


1306:.\Generated_Source\PSoC4/CyLib.c ****         * which requires ILO to be enabled.
1307:.\Generated_Source\PSoC4/CyLib.c ****         */
1308:.\Generated_Source\PSoC4/CyLib.c ****         if (0u == (CY_SYS_CLK_ILO_CONFIG_REG & CY_SYS_CLK_ILO_CONFIG_ENABLE))
1309:.\Generated_Source\PSoC4/CyLib.c ****         {
1310:.\Generated_Source\PSoC4/CyLib.c ****             CySysClkIloStart();
1311:.\Generated_Source\PSoC4/CyLib.c ****         }
1312:.\Generated_Source\PSoC4/CyLib.c **** 
1313:.\Generated_Source\PSoC4/CyLib.c ****         CY_SYS_WDT_MATCH_REG = (CY_SYS_WDT_MATCH_REG & (uint32)(~ (uint32)CY_SYS_WDT_MATCH_MASK)) |
1314:.\Generated_Source\PSoC4/CyLib.c ****     }
1315:.\Generated_Source\PSoC4/CyLib.c **** 
1316:.\Generated_Source\PSoC4/CyLib.c **** 
1317:.\Generated_Source\PSoC4/CyLib.c ****     /*******************************************************************************
1318:.\Generated_Source\PSoC4/CyLib.c ****     * Function Name: CySysWdtReadMatch
1319:.\Generated_Source\PSoC4/CyLib.c ****     ********************************************************************************
1320:.\Generated_Source\PSoC4/CyLib.c ****     *
1321:.\Generated_Source\PSoC4/CyLib.c ****     * Summary:
1322:.\Generated_Source\PSoC4/CyLib.c ****     *  Reads the WDT counter match comparison value.
1323:.\Generated_Source\PSoC4/CyLib.c ****     *
1324:.\Generated_Source\PSoC4/CyLib.c ****     * Parameters:
1325:.\Generated_Source\PSoC4/CyLib.c ****     *  None
1326:.\Generated_Source\PSoC4/CyLib.c ****     *
1327:.\Generated_Source\PSoC4/CyLib.c ****     * Return:
1328:.\Generated_Source\PSoC4/CyLib.c ****     *  Counter match value
1329:.\Generated_Source\PSoC4/CyLib.c ****     *
1330:.\Generated_Source\PSoC4/CyLib.c ****     * Side Effects:
1331:.\Generated_Source\PSoC4/CyLib.c ****     *  None
1332:.\Generated_Source\PSoC4/CyLib.c ****     *
1333:.\Generated_Source\PSoC4/CyLib.c ****     *******************************************************************************/
1334:.\Generated_Source\PSoC4/CyLib.c ****     uint32 CySysWdtReadMatch(void)
1335:.\Generated_Source\PSoC4/CyLib.c ****     {
1336:.\Generated_Source\PSoC4/CyLib.c ****         return (CY_SYS_WDT_MATCH_REG & CY_SYS_WDT_MATCH_MASK);
1337:.\Generated_Source\PSoC4/CyLib.c ****     }
1338:.\Generated_Source\PSoC4/CyLib.c **** 
1339:.\Generated_Source\PSoC4/CyLib.c **** 
1340:.\Generated_Source\PSoC4/CyLib.c ****     /*******************************************************************************
1341:.\Generated_Source\PSoC4/CyLib.c ****     * Function Name: CySysWdtReadCount
1342:.\Generated_Source\PSoC4/CyLib.c ****     ********************************************************************************
1343:.\Generated_Source\PSoC4/CyLib.c ****     *
1344:.\Generated_Source\PSoC4/CyLib.c ****     * Summary:
1345:.\Generated_Source\PSoC4/CyLib.c ****     *  Reads the current WDT counter value.
1346:.\Generated_Source\PSoC4/CyLib.c ****     *
1347:.\Generated_Source\PSoC4/CyLib.c ****     * Parameters:
1348:.\Generated_Source\PSoC4/CyLib.c ****     *  None
1349:.\Generated_Source\PSoC4/CyLib.c ****     *
1350:.\Generated_Source\PSoC4/CyLib.c ****     * Return:
1351:.\Generated_Source\PSoC4/CyLib.c ****     *  Live counter value
1352:.\Generated_Source\PSoC4/CyLib.c ****     *
1353:.\Generated_Source\PSoC4/CyLib.c ****     * Side Effects:
1354:.\Generated_Source\PSoC4/CyLib.c ****     *  None
1355:.\Generated_Source\PSoC4/CyLib.c ****     *
1356:.\Generated_Source\PSoC4/CyLib.c ****     *******************************************************************************/
1357:.\Generated_Source\PSoC4/CyLib.c ****     uint32 CySysWdtReadCount(void)
1358:.\Generated_Source\PSoC4/CyLib.c ****     {
1359:.\Generated_Source\PSoC4/CyLib.c ****         return ((uint32)CY_SYS_WDT_COUNTER_REG);
1360:.\Generated_Source\PSoC4/CyLib.c ****     }
1361:.\Generated_Source\PSoC4/CyLib.c **** 
1362:.\Generated_Source\PSoC4/CyLib.c **** 
ARM GAS  C:\Users\Chuck\AppData\Local\Temp\ccRFe4cO.s 			page 57


1363:.\Generated_Source\PSoC4/CyLib.c ****     /*******************************************************************************
1364:.\Generated_Source\PSoC4/CyLib.c ****     * Function Name: CySysWdtWriteIgnoreBits
1365:.\Generated_Source\PSoC4/CyLib.c ****     ********************************************************************************
1366:.\Generated_Source\PSoC4/CyLib.c ****     *
1367:.\Generated_Source\PSoC4/CyLib.c ****     * Summary:
1368:.\Generated_Source\PSoC4/CyLib.c ****     *  Configures the number of the MSB bits of the watchdog timer that are not
1369:.\Generated_Source\PSoC4/CyLib.c ****     *  checked against the match.
1370:.\Generated_Source\PSoC4/CyLib.c ****     *
1371:.\Generated_Source\PSoC4/CyLib.c ****     * Parameters:
1372:.\Generated_Source\PSoC4/CyLib.c ****     *  bitsNum:
1373:.\Generated_Source\PSoC4/CyLib.c ****     *   Valid range [0-15]. Number of MSB bits.
1374:.\Generated_Source\PSoC4/CyLib.c ****     *
1375:.\Generated_Source\PSoC4/CyLib.c ****     * Return:
1376:.\Generated_Source\PSoC4/CyLib.c ****     *  None
1377:.\Generated_Source\PSoC4/CyLib.c ****     *
1378:.\Generated_Source\PSoC4/CyLib.c ****     * Side Effects:
1379:.\Generated_Source\PSoC4/CyLib.c ****     *  The value of bitsNum provides control over the time-to-reset of the watchdog
1380:.\Generated_Source\PSoC4/CyLib.c ****     *  (which happens after 3 successive matches).
1381:.\Generated_Source\PSoC4/CyLib.c ****     *
1382:.\Generated_Source\PSoC4/CyLib.c ****     *******************************************************************************/
1383:.\Generated_Source\PSoC4/CyLib.c ****     void CySysWdtWriteIgnoreBits(uint32 bitsNum)
1384:.\Generated_Source\PSoC4/CyLib.c ****     {
1385:.\Generated_Source\PSoC4/CyLib.c ****         bitsNum = ((uint32)(bitsNum << 16u) & CY_SYS_WDT_IGNORE_BITS_MASK);
1386:.\Generated_Source\PSoC4/CyLib.c ****         CY_SYS_WDT_MATCH_REG = (CY_SYS_WDT_MATCH_REG & (uint32)(~CY_SYS_WDT_IGNORE_BITS_MASK)) | bi
1387:.\Generated_Source\PSoC4/CyLib.c ****     }
1388:.\Generated_Source\PSoC4/CyLib.c **** 
1389:.\Generated_Source\PSoC4/CyLib.c **** 
1390:.\Generated_Source\PSoC4/CyLib.c ****     /*******************************************************************************
1391:.\Generated_Source\PSoC4/CyLib.c ****     * Function Name: CySysWdtReadIgnoreBits
1392:.\Generated_Source\PSoC4/CyLib.c ****     ********************************************************************************
1393:.\Generated_Source\PSoC4/CyLib.c ****     *
1394:.\Generated_Source\PSoC4/CyLib.c ****     * Summary:
1395:.\Generated_Source\PSoC4/CyLib.c ****     *  Reads the number of the  MSB bits of the watchdog timer that are not
1396:.\Generated_Source\PSoC4/CyLib.c ****     *  checked against the match.
1397:.\Generated_Source\PSoC4/CyLib.c ****     *
1398:.\Generated_Source\PSoC4/CyLib.c ****     * Parameters:
1399:.\Generated_Source\PSoC4/CyLib.c ****     *  None
1400:.\Generated_Source\PSoC4/CyLib.c ****     *
1401:.\Generated_Source\PSoC4/CyLib.c ****     * Return:
1402:.\Generated_Source\PSoC4/CyLib.c ****     *  Number of MSB bits.
1403:.\Generated_Source\PSoC4/CyLib.c ****     *
1404:.\Generated_Source\PSoC4/CyLib.c ****     * Side Effects:
1405:.\Generated_Source\PSoC4/CyLib.c ****     *  None
1406:.\Generated_Source\PSoC4/CyLib.c ****     *
1407:.\Generated_Source\PSoC4/CyLib.c ****     *******************************************************************************/
1408:.\Generated_Source\PSoC4/CyLib.c ****     uint32 CySysWdtReadIgnoreBits(void)
1409:.\Generated_Source\PSoC4/CyLib.c ****     {
1410:.\Generated_Source\PSoC4/CyLib.c ****         return((uint32)(CY_SYS_WDT_MATCH_REG  >> 16u) & CY_SYS_WDT_IGNORE_BITS_MASK);
1411:.\Generated_Source\PSoC4/CyLib.c ****     }
1412:.\Generated_Source\PSoC4/CyLib.c **** 
1413:.\Generated_Source\PSoC4/CyLib.c **** 
1414:.\Generated_Source\PSoC4/CyLib.c ****     /*******************************************************************************
1415:.\Generated_Source\PSoC4/CyLib.c ****     * Function Name: CySysWdtClearInterrupt
1416:.\Generated_Source\PSoC4/CyLib.c ****     ********************************************************************************
1417:.\Generated_Source\PSoC4/CyLib.c ****     *
1418:.\Generated_Source\PSoC4/CyLib.c ****     * Summary:
1419:.\Generated_Source\PSoC4/CyLib.c ****     *  Cleans the WDT match flag, which is set every time the WDT counter reaches a
ARM GAS  C:\Users\Chuck\AppData\Local\Temp\ccRFe4cO.s 			page 58


1420:.\Generated_Source\PSoC4/CyLib.c ****     *  WDT match value.
1421:.\Generated_Source\PSoC4/CyLib.c ****     *
1422:.\Generated_Source\PSoC4/CyLib.c ****     * Parameters:
1423:.\Generated_Source\PSoC4/CyLib.c ****     *  None
1424:.\Generated_Source\PSoC4/CyLib.c ****     *
1425:.\Generated_Source\PSoC4/CyLib.c ****     * Return:
1426:.\Generated_Source\PSoC4/CyLib.c ****     *  None
1427:.\Generated_Source\PSoC4/CyLib.c ****     *
1428:.\Generated_Source\PSoC4/CyLib.c ****     * Side Effects:
1429:.\Generated_Source\PSoC4/CyLib.c ****     *  Clearing this bit also feeds the watch dog.  Missing 2 interrupts in a row
1430:.\Generated_Source\PSoC4/CyLib.c ****     *  will generate a brown-out reset.
1431:.\Generated_Source\PSoC4/CyLib.c ****     *
1432:.\Generated_Source\PSoC4/CyLib.c ****     *******************************************************************************/
1433:.\Generated_Source\PSoC4/CyLib.c ****     void CySysWdtClearInterrupt(void)
1434:.\Generated_Source\PSoC4/CyLib.c ****     {
1435:.\Generated_Source\PSoC4/CyLib.c ****         CY_SYS_SRSS_INTR_REG |= CY_SYS_WDT_LOWER_BIT_MASK;
1436:.\Generated_Source\PSoC4/CyLib.c ****     }
1437:.\Generated_Source\PSoC4/CyLib.c **** 
1438:.\Generated_Source\PSoC4/CyLib.c **** 
1439:.\Generated_Source\PSoC4/CyLib.c ****     /*******************************************************************************
1440:.\Generated_Source\PSoC4/CyLib.c ****     * Function Name: CySysWdtMaskInterrupt
1441:.\Generated_Source\PSoC4/CyLib.c ****     ********************************************************************************
1442:.\Generated_Source\PSoC4/CyLib.c ****     *
1443:.\Generated_Source\PSoC4/CyLib.c ****     * Summary:
1444:.\Generated_Source\PSoC4/CyLib.c ****     *  After masking interrupts from the WDT, they are not passed to the CPU.
1445:.\Generated_Source\PSoC4/CyLib.c ****     *
1446:.\Generated_Source\PSoC4/CyLib.c ****     * Parameters:
1447:.\Generated_Source\PSoC4/CyLib.c ****     *  None
1448:.\Generated_Source\PSoC4/CyLib.c ****     *
1449:.\Generated_Source\PSoC4/CyLib.c ****     * Return:
1450:.\Generated_Source\PSoC4/CyLib.c ****     *  None
1451:.\Generated_Source\PSoC4/CyLib.c ****     *
1452:.\Generated_Source\PSoC4/CyLib.c ****     * Side Effects:
1453:.\Generated_Source\PSoC4/CyLib.c ****     *  This API does not disable the WDT reset generation on 2 missed interrupts.
1454:.\Generated_Source\PSoC4/CyLib.c ****     *
1455:.\Generated_Source\PSoC4/CyLib.c ****     *******************************************************************************/
1456:.\Generated_Source\PSoC4/CyLib.c ****     void CySysWdtMaskInterrupt(void)
1457:.\Generated_Source\PSoC4/CyLib.c ****     {
1458:.\Generated_Source\PSoC4/CyLib.c ****         CY_SYS_SRSS_INTR_MASK_REG &= (uint32)(~ (uint32)CY_SYS_WDT_LOWER_BIT_MASK);
1459:.\Generated_Source\PSoC4/CyLib.c ****     }
1460:.\Generated_Source\PSoC4/CyLib.c **** 
1461:.\Generated_Source\PSoC4/CyLib.c **** 
1462:.\Generated_Source\PSoC4/CyLib.c ****     /*******************************************************************************
1463:.\Generated_Source\PSoC4/CyLib.c ****     * Function Name: CySysWdtUnmaskInterrupt
1464:.\Generated_Source\PSoC4/CyLib.c ****     ********************************************************************************
1465:.\Generated_Source\PSoC4/CyLib.c ****     *
1466:.\Generated_Source\PSoC4/CyLib.c ****     * Summary:
1467:.\Generated_Source\PSoC4/CyLib.c ****     *  Unmasks WDT interrupts.
1468:.\Generated_Source\PSoC4/CyLib.c ****     *
1469:.\Generated_Source\PSoC4/CyLib.c ****     * Parameters:
1470:.\Generated_Source\PSoC4/CyLib.c ****     *  None
1471:.\Generated_Source\PSoC4/CyLib.c ****     *
1472:.\Generated_Source\PSoC4/CyLib.c ****     * Return:
1473:.\Generated_Source\PSoC4/CyLib.c ****     *  None
1474:.\Generated_Source\PSoC4/CyLib.c ****     *
1475:.\Generated_Source\PSoC4/CyLib.c ****     * Side Effects:
1476:.\Generated_Source\PSoC4/CyLib.c ****     *  None
ARM GAS  C:\Users\Chuck\AppData\Local\Temp\ccRFe4cO.s 			page 59


1477:.\Generated_Source\PSoC4/CyLib.c ****     *
1478:.\Generated_Source\PSoC4/CyLib.c ****     *******************************************************************************/
1479:.\Generated_Source\PSoC4/CyLib.c ****     void CySysWdtUnmaskInterrupt(void)
1480:.\Generated_Source\PSoC4/CyLib.c ****     {
1481:.\Generated_Source\PSoC4/CyLib.c ****         CY_SYS_SRSS_INTR_MASK_REG |= CY_SYS_WDT_LOWER_BIT_MASK;
1482:.\Generated_Source\PSoC4/CyLib.c ****     }
1483:.\Generated_Source\PSoC4/CyLib.c **** 
1484:.\Generated_Source\PSoC4/CyLib.c **** #endif /* (CY_PSOC4A) */
1485:.\Generated_Source\PSoC4/CyLib.c **** 
1486:.\Generated_Source\PSoC4/CyLib.c **** 
1487:.\Generated_Source\PSoC4/CyLib.c **** #if(CY_PSOC4A)
1488:.\Generated_Source\PSoC4/CyLib.c **** 
1489:.\Generated_Source\PSoC4/CyLib.c ****     /*******************************************************************************
1490:.\Generated_Source\PSoC4/CyLib.c ****     * Function Name: CySysLvdEnable
1491:.\Generated_Source\PSoC4/CyLib.c ****     ********************************************************************************
1492:.\Generated_Source\PSoC4/CyLib.c ****     *
1493:.\Generated_Source\PSoC4/CyLib.c ****     * Summary:
1494:.\Generated_Source\PSoC4/CyLib.c ****     *  Enables the output of the low-voltage monitor when Vddd is at or below the
1495:.\Generated_Source\PSoC4/CyLib.c ****     *  trip point, configures the device to generate an interrupt, and sets the voltage
1496:.\Generated_Source\PSoC4/CyLib.c ****     *  trip level.
1497:.\Generated_Source\PSoC4/CyLib.c ****     *
1498:.\Generated_Source\PSoC4/CyLib.c ****     * Parameters:
1499:.\Generated_Source\PSoC4/CyLib.c ****     *  threshold: Threshold selection for Low Voltage Detect circuit.
1500:.\Generated_Source\PSoC4/CyLib.c ****     *  Threshold variation is +/- 2.5% from these typical voltage choices.
1501:.\Generated_Source\PSoC4/CyLib.c ****     *         Define                     Voltage threshold
1502:.\Generated_Source\PSoC4/CyLib.c ****     *    CY_LVD_THRESHOLD_1_75_V       1.7500 V
1503:.\Generated_Source\PSoC4/CyLib.c ****     *    CY_LVD_THRESHOLD_1_80_V       1.8000 V
1504:.\Generated_Source\PSoC4/CyLib.c ****     *    CY_LVD_THRESHOLD_1_90_V       1.9000 V
1505:.\Generated_Source\PSoC4/CyLib.c ****     *    CY_LVD_THRESHOLD_2_00_V       2.0000 V
1506:.\Generated_Source\PSoC4/CyLib.c ****     *    CY_LVD_THRESHOLD_2_10_V       2.1000 V
1507:.\Generated_Source\PSoC4/CyLib.c ****     *    CY_LVD_THRESHOLD_2_20_V       2.2000 V
1508:.\Generated_Source\PSoC4/CyLib.c ****     *    CY_LVD_THRESHOLD_2_30_V       2.3000 V
1509:.\Generated_Source\PSoC4/CyLib.c ****     *    CY_LVD_THRESHOLD_2_40_V       2.4000 V
1510:.\Generated_Source\PSoC4/CyLib.c ****     *    CY_LVD_THRESHOLD_2_50_V       2.5000 V
1511:.\Generated_Source\PSoC4/CyLib.c ****     *    CY_LVD_THRESHOLD_2_60_V       2.6000 V
1512:.\Generated_Source\PSoC4/CyLib.c ****     *    CY_LVD_THRESHOLD_2_70_V       2.7000 V
1513:.\Generated_Source\PSoC4/CyLib.c ****     *    CY_LVD_THRESHOLD_2_80_V       2.8000 V
1514:.\Generated_Source\PSoC4/CyLib.c ****     *    CY_LVD_THRESHOLD_2_90_V       2.9000 V
1515:.\Generated_Source\PSoC4/CyLib.c ****     *    CY_LVD_THRESHOLD_3_00_V       3.0000 V
1516:.\Generated_Source\PSoC4/CyLib.c ****     *    CY_LVD_THRESHOLD_3_20_V       3.2000 V
1517:.\Generated_Source\PSoC4/CyLib.c ****     *    CY_LVD_THRESHOLD_4_50_V       4.5000 V
1518:.\Generated_Source\PSoC4/CyLib.c ****     *
1519:.\Generated_Source\PSoC4/CyLib.c ****     * Return:
1520:.\Generated_Source\PSoC4/CyLib.c ****     *  None
1521:.\Generated_Source\PSoC4/CyLib.c ****     *
1522:.\Generated_Source\PSoC4/CyLib.c ****     *******************************************************************************/
1523:.\Generated_Source\PSoC4/CyLib.c ****     void CySysLvdEnable(uint32 threshold)
1524:.\Generated_Source\PSoC4/CyLib.c ****     {
 1822              		.loc 1 1524 0
 1823              		.cfi_startproc
 1824 0000 80B5     		push	{r7, lr}
 1825              		.cfi_def_cfa_offset 8
 1826              		.cfi_offset 7, -8
 1827              		.cfi_offset 14, -4
 1828 0002 82B0     		sub	sp, sp, #8
 1829              		.cfi_def_cfa_offset 16
 1830 0004 00AF     		add	r7, sp, #0
ARM GAS  C:\Users\Chuck\AppData\Local\Temp\ccRFe4cO.s 			page 60


 1831              		.cfi_def_cfa_register 7
 1832 0006 7860     		str	r0, [r7, #4]
1525:.\Generated_Source\PSoC4/CyLib.c ****         /* Set threshold */
1526:.\Generated_Source\PSoC4/CyLib.c ****         CY_LVD_PWR_VMON_CONFIG_REG = (CY_LVD_PWR_VMON_CONFIG_REG & ~CY_LVD_PWR_VMON_CONFIG_LVD_SEL_
 1833              		.loc 1 1526 0
 1834 0008 0D4B     		ldr	r3, .L144
 1835 000a 0D4A     		ldr	r2, .L144
 1836 000c 1268     		ldr	r2, [r2]
 1837 000e 1E21     		mov	r1, #30
 1838 0010 8A43     		bic	r2, r1
 1839 0012 111C     		mov	r1, r2
1527:.\Generated_Source\PSoC4/CyLib.c ****                 ((threshold << CY_LVD_PWR_VMON_CONFIG_LVD_SEL_SHIFT) & CY_LVD_PWR_VMON_CONFIG_LVD_S
 1840              		.loc 1 1527 0
 1841 0014 7A68     		ldr	r2, [r7, #4]
 1842 0016 5200     		lsl	r2, r2, #1
 1843 0018 1E20     		mov	r0, #30
 1844 001a 0240     		and	r2, r0
1526:.\Generated_Source\PSoC4/CyLib.c ****                 ((threshold << CY_LVD_PWR_VMON_CONFIG_LVD_SEL_SHIFT) & CY_LVD_PWR_VMON_CONFIG_LVD_S
 1845              		.loc 1 1526 0
 1846 001c 0A43     		orr	r2, r1
 1847 001e 1A60     		str	r2, [r3]
1528:.\Generated_Source\PSoC4/CyLib.c **** 
1529:.\Generated_Source\PSoC4/CyLib.c ****         CY_LVD_PWR_VMON_CONFIG_REG |= CY_LVD_PWR_VMON_CONFIG_LVD_EN;
 1848              		.loc 1 1529 0
 1849 0020 074B     		ldr	r3, .L144
 1850 0022 074A     		ldr	r2, .L144
 1851 0024 1268     		ldr	r2, [r2]
 1852 0026 0121     		mov	r1, #1
 1853 0028 0A43     		orr	r2, r1
 1854 002a 1A60     		str	r2, [r3]
1530:.\Generated_Source\PSoC4/CyLib.c ****         CY_LVD_PWR_INTR_MASK_REG   |= CY_LVD_PROPAGATE_INT_TO_CPU;
 1855              		.loc 1 1530 0
 1856 002c 054B     		ldr	r3, .L144+4
 1857 002e 054A     		ldr	r2, .L144+4
 1858 0030 1268     		ldr	r2, [r2]
 1859 0032 0221     		mov	r1, #2
 1860 0034 0A43     		orr	r2, r1
 1861 0036 1A60     		str	r2, [r3]
1531:.\Generated_Source\PSoC4/CyLib.c ****     }
 1862              		.loc 1 1531 0
 1863 0038 BD46     		mov	sp, r7
 1864 003a 02B0     		add	sp, sp, #8
 1865              		@ sp needed
 1866 003c 80BD     		pop	{r7, pc}
 1867              	.L145:
 1868 003e C046     		.align	2
 1869              	.L144:
 1870 0040 18000B40 		.word	1074462744
 1871 0044 08000B40 		.word	1074462728
 1872              		.cfi_endproc
 1873              	.LFE26:
 1874              		.size	CySysLvdEnable, .-CySysLvdEnable
 1875              		.section	.text.CySysLvdDisable,"ax",%progbits
 1876              		.align	2
 1877              		.global	CySysLvdDisable
 1878              		.code	16
 1879              		.thumb_func
ARM GAS  C:\Users\Chuck\AppData\Local\Temp\ccRFe4cO.s 			page 61


 1880              		.type	CySysLvdDisable, %function
 1881              	CySysLvdDisable:
 1882              	.LFB27:
1532:.\Generated_Source\PSoC4/CyLib.c **** 
1533:.\Generated_Source\PSoC4/CyLib.c **** 
1534:.\Generated_Source\PSoC4/CyLib.c ****     /*******************************************************************************
1535:.\Generated_Source\PSoC4/CyLib.c ****     * Function Name: CySysLvdDisable
1536:.\Generated_Source\PSoC4/CyLib.c ****     ********************************************************************************
1537:.\Generated_Source\PSoC4/CyLib.c ****     *
1538:.\Generated_Source\PSoC4/CyLib.c ****     * Summary:
1539:.\Generated_Source\PSoC4/CyLib.c ****     *  Disables the low voltage detection. A low voltage interrupt is disabled.
1540:.\Generated_Source\PSoC4/CyLib.c ****     *
1541:.\Generated_Source\PSoC4/CyLib.c ****     * Parameters:
1542:.\Generated_Source\PSoC4/CyLib.c ****     *  None
1543:.\Generated_Source\PSoC4/CyLib.c ****     *
1544:.\Generated_Source\PSoC4/CyLib.c ****     * Return:
1545:.\Generated_Source\PSoC4/CyLib.c ****     *  None
1546:.\Generated_Source\PSoC4/CyLib.c ****     *
1547:.\Generated_Source\PSoC4/CyLib.c ****     *******************************************************************************/
1548:.\Generated_Source\PSoC4/CyLib.c ****     void CySysLvdDisable(void)
1549:.\Generated_Source\PSoC4/CyLib.c ****     {
 1883              		.loc 1 1549 0
 1884              		.cfi_startproc
 1885 0000 80B5     		push	{r7, lr}
 1886              		.cfi_def_cfa_offset 8
 1887              		.cfi_offset 7, -8
 1888              		.cfi_offset 14, -4
 1889 0002 00AF     		add	r7, sp, #0
 1890              		.cfi_def_cfa_register 7
1550:.\Generated_Source\PSoC4/CyLib.c ****         CY_LVD_PWR_INTR_MASK_REG   &= ~CY_LVD_PROPAGATE_INT_TO_CPU;
 1891              		.loc 1 1550 0
 1892 0004 064B     		ldr	r3, .L147
 1893 0006 064A     		ldr	r2, .L147
 1894 0008 1268     		ldr	r2, [r2]
 1895 000a 0221     		mov	r1, #2
 1896 000c 8A43     		bic	r2, r1
 1897 000e 1A60     		str	r2, [r3]
1551:.\Generated_Source\PSoC4/CyLib.c ****         CY_LVD_PWR_VMON_CONFIG_REG &= ~CY_LVD_PWR_VMON_CONFIG_LVD_EN;
 1898              		.loc 1 1551 0
 1899 0010 044B     		ldr	r3, .L147+4
 1900 0012 044A     		ldr	r2, .L147+4
 1901 0014 1268     		ldr	r2, [r2]
 1902 0016 0121     		mov	r1, #1
 1903 0018 8A43     		bic	r2, r1
 1904 001a 1A60     		str	r2, [r3]
1552:.\Generated_Source\PSoC4/CyLib.c ****     }
 1905              		.loc 1 1552 0
 1906 001c BD46     		mov	sp, r7
 1907              		@ sp needed
 1908 001e 80BD     		pop	{r7, pc}
 1909              	.L148:
 1910              		.align	2
 1911              	.L147:
 1912 0020 08000B40 		.word	1074462728
 1913 0024 18000B40 		.word	1074462744
 1914              		.cfi_endproc
 1915              	.LFE27:
ARM GAS  C:\Users\Chuck\AppData\Local\Temp\ccRFe4cO.s 			page 62


 1916              		.size	CySysLvdDisable, .-CySysLvdDisable
 1917              		.section	.text.CySysLvdGetInterruptSource,"ax",%progbits
 1918              		.align	2
 1919              		.global	CySysLvdGetInterruptSource
 1920              		.code	16
 1921              		.thumb_func
 1922              		.type	CySysLvdGetInterruptSource, %function
 1923              	CySysLvdGetInterruptSource:
 1924              	.LFB28:
1553:.\Generated_Source\PSoC4/CyLib.c **** 
1554:.\Generated_Source\PSoC4/CyLib.c **** 
1555:.\Generated_Source\PSoC4/CyLib.c ****     /*******************************************************************************
1556:.\Generated_Source\PSoC4/CyLib.c ****     * Function Name: CySysLvdGetInterruptSource
1557:.\Generated_Source\PSoC4/CyLib.c ****     ********************************************************************************
1558:.\Generated_Source\PSoC4/CyLib.c ****     *
1559:.\Generated_Source\PSoC4/CyLib.c ****     * Summary:
1560:.\Generated_Source\PSoC4/CyLib.c ****     *  Gets the low voltage detection interrupt status (without clearing).
1561:.\Generated_Source\PSoC4/CyLib.c ****     *
1562:.\Generated_Source\PSoC4/CyLib.c ****     * Parameters:
1563:.\Generated_Source\PSoC4/CyLib.c ****     *  None
1564:.\Generated_Source\PSoC4/CyLib.c ****     *
1565:.\Generated_Source\PSoC4/CyLib.c ****     * Return:
1566:.\Generated_Source\PSoC4/CyLib.c ****     *  Interrupt request value:
1567:.\Generated_Source\PSoC4/CyLib.c ****     *    CY_SYS_LVD_INT - Indicates an Low Voltage Detect interrupt
1568:.\Generated_Source\PSoC4/CyLib.c ****     *
1569:.\Generated_Source\PSoC4/CyLib.c ****     *******************************************************************************/
1570:.\Generated_Source\PSoC4/CyLib.c ****     uint32 CySysLvdGetInterruptSource(void)
1571:.\Generated_Source\PSoC4/CyLib.c ****     {
 1925              		.loc 1 1571 0
 1926              		.cfi_startproc
 1927 0000 80B5     		push	{r7, lr}
 1928              		.cfi_def_cfa_offset 8
 1929              		.cfi_offset 7, -8
 1930              		.cfi_offset 14, -4
 1931 0002 00AF     		add	r7, sp, #0
 1932              		.cfi_def_cfa_register 7
1572:.\Generated_Source\PSoC4/CyLib.c ****         return (CY_LVD_PWR_INTR_REG & CY_SYS_LVD_INT);
 1933              		.loc 1 1572 0
 1934 0004 034B     		ldr	r3, .L151
 1935 0006 1B68     		ldr	r3, [r3]
 1936 0008 0222     		mov	r2, #2
 1937 000a 1340     		and	r3, r2
1573:.\Generated_Source\PSoC4/CyLib.c ****     }
 1938              		.loc 1 1573 0
 1939 000c 181C     		mov	r0, r3
 1940 000e BD46     		mov	sp, r7
 1941              		@ sp needed
 1942 0010 80BD     		pop	{r7, pc}
 1943              	.L152:
 1944 0012 C046     		.align	2
 1945              	.L151:
 1946 0014 04000B40 		.word	1074462724
 1947              		.cfi_endproc
 1948              	.LFE28:
 1949              		.size	CySysLvdGetInterruptSource, .-CySysLvdGetInterruptSource
 1950              		.section	.text.CySysLvdClearInterrupt,"ax",%progbits
 1951              		.align	2
ARM GAS  C:\Users\Chuck\AppData\Local\Temp\ccRFe4cO.s 			page 63


 1952              		.global	CySysLvdClearInterrupt
 1953              		.code	16
 1954              		.thumb_func
 1955              		.type	CySysLvdClearInterrupt, %function
 1956              	CySysLvdClearInterrupt:
 1957              	.LFB29:
1574:.\Generated_Source\PSoC4/CyLib.c **** 
1575:.\Generated_Source\PSoC4/CyLib.c **** 
1576:.\Generated_Source\PSoC4/CyLib.c ****     /*******************************************************************************
1577:.\Generated_Source\PSoC4/CyLib.c ****     * Function Name: CySysLvdClearInterrupt
1578:.\Generated_Source\PSoC4/CyLib.c ****     ********************************************************************************
1579:.\Generated_Source\PSoC4/CyLib.c ****     *
1580:.\Generated_Source\PSoC4/CyLib.c ****     * Summary:
1581:.\Generated_Source\PSoC4/CyLib.c ****     *  Clears the low voltage detection interrupt status.
1582:.\Generated_Source\PSoC4/CyLib.c ****     *
1583:.\Generated_Source\PSoC4/CyLib.c ****     * Parameters:
1584:.\Generated_Source\PSoC4/CyLib.c ****     *  None
1585:.\Generated_Source\PSoC4/CyLib.c ****     *
1586:.\Generated_Source\PSoC4/CyLib.c ****     * Return:
1587:.\Generated_Source\PSoC4/CyLib.c ****     *  None
1588:.\Generated_Source\PSoC4/CyLib.c ****     *
1589:.\Generated_Source\PSoC4/CyLib.c ****     *******************************************************************************/
1590:.\Generated_Source\PSoC4/CyLib.c ****     void CySysLvdClearInterrupt(void)
1591:.\Generated_Source\PSoC4/CyLib.c ****     {
 1958              		.loc 1 1591 0
 1959              		.cfi_startproc
 1960 0000 80B5     		push	{r7, lr}
 1961              		.cfi_def_cfa_offset 8
 1962              		.cfi_offset 7, -8
 1963              		.cfi_offset 14, -4
 1964 0002 00AF     		add	r7, sp, #0
 1965              		.cfi_def_cfa_register 7
1592:.\Generated_Source\PSoC4/CyLib.c ****         CY_LVD_PWR_INTR_REG = CY_SYS_LVD_INT;
 1966              		.loc 1 1592 0
 1967 0004 024B     		ldr	r3, .L154
 1968 0006 0222     		mov	r2, #2
 1969 0008 1A60     		str	r2, [r3]
1593:.\Generated_Source\PSoC4/CyLib.c ****     }
 1970              		.loc 1 1593 0
 1971 000a BD46     		mov	sp, r7
 1972              		@ sp needed
 1973 000c 80BD     		pop	{r7, pc}
 1974              	.L155:
 1975 000e C046     		.align	2
 1976              	.L154:
 1977 0010 04000B40 		.word	1074462724
 1978              		.cfi_endproc
 1979              	.LFE29:
 1980              		.size	CySysLvdClearInterrupt, .-CySysLvdClearInterrupt
 1981              		.section	.text.CySysGetResetReason,"ax",%progbits
 1982              		.align	2
 1983              		.global	CySysGetResetReason
 1984              		.code	16
 1985              		.thumb_func
 1986              		.type	CySysGetResetReason, %function
 1987              	CySysGetResetReason:
 1988              	.LFB30:
ARM GAS  C:\Users\Chuck\AppData\Local\Temp\ccRFe4cO.s 			page 64


1594:.\Generated_Source\PSoC4/CyLib.c **** 
1595:.\Generated_Source\PSoC4/CyLib.c **** #endif /* (CY_PSOC4A) */
1596:.\Generated_Source\PSoC4/CyLib.c **** 
1597:.\Generated_Source\PSoC4/CyLib.c **** 
1598:.\Generated_Source\PSoC4/CyLib.c **** /*******************************************************************************
1599:.\Generated_Source\PSoC4/CyLib.c **** * Function Name: CySysGetResetReason
1600:.\Generated_Source\PSoC4/CyLib.c **** ********************************************************************************
1601:.\Generated_Source\PSoC4/CyLib.c **** *
1602:.\Generated_Source\PSoC4/CyLib.c **** * Summary:
1603:.\Generated_Source\PSoC4/CyLib.c **** *  Reports the cause for the latest reset(s) that occurred in the system. All the
1604:.\Generated_Source\PSoC4/CyLib.c **** *  bits in the RES_CAUSE register assert when the corresponding reset cause
1605:.\Generated_Source\PSoC4/CyLib.c **** *  occurs and must be cleared by the firmware. These bits are cleared by the hardware
1606:.\Generated_Source\PSoC4/CyLib.c **** *  only during XRES, POR, or a detected brown-out.
1607:.\Generated_Source\PSoC4/CyLib.c **** *
1608:.\Generated_Source\PSoC4/CyLib.c **** * Parameters:
1609:.\Generated_Source\PSoC4/CyLib.c **** *  reason: bits in the RES_CAUSE register to clear.
1610:.\Generated_Source\PSoC4/CyLib.c **** *   CY_SYS_RESET_WDT       - WDT caused a reset
1611:.\Generated_Source\PSoC4/CyLib.c **** *   CY_SYS_RESET_PROTFAULT - A protection violation occurred that requires a RESET
1612:.\Generated_Source\PSoC4/CyLib.c **** *   CY_SYS_RESET_SW        - Cortex-M0 requested a system reset.
1613:.\Generated_Source\PSoC4/CyLib.c **** *
1614:.\Generated_Source\PSoC4/CyLib.c **** * Return:
1615:.\Generated_Source\PSoC4/CyLib.c **** *  Status. Same enumerated bit values as used for the reason parameter.
1616:.\Generated_Source\PSoC4/CyLib.c **** *
1617:.\Generated_Source\PSoC4/CyLib.c **** *******************************************************************************/
1618:.\Generated_Source\PSoC4/CyLib.c **** uint32 CySysGetResetReason(uint32 reason)
1619:.\Generated_Source\PSoC4/CyLib.c **** {
 1989              		.loc 1 1619 0
 1990              		.cfi_startproc
 1991 0000 80B5     		push	{r7, lr}
 1992              		.cfi_def_cfa_offset 8
 1993              		.cfi_offset 7, -8
 1994              		.cfi_offset 14, -4
 1995 0002 84B0     		sub	sp, sp, #16
 1996              		.cfi_def_cfa_offset 24
 1997 0004 00AF     		add	r7, sp, #0
 1998              		.cfi_def_cfa_register 7
 1999 0006 7860     		str	r0, [r7, #4]
1620:.\Generated_Source\PSoC4/CyLib.c ****     uint32 status;
1621:.\Generated_Source\PSoC4/CyLib.c **** 
1622:.\Generated_Source\PSoC4/CyLib.c ****     reason &= (CY_SYS_RESET_WDT | CY_SYS_RESET_PROTFAULT | CY_SYS_RESET_SW);
 2000              		.loc 1 1622 0
 2001 0008 7B68     		ldr	r3, [r7, #4]
 2002 000a 1922     		mov	r2, #25
 2003 000c 1340     		and	r3, r2
 2004 000e 7B60     		str	r3, [r7, #4]
1623:.\Generated_Source\PSoC4/CyLib.c ****     status = CY_SYS_RES_CAUSE_REG &
 2005              		.loc 1 1623 0
 2006 0010 064B     		ldr	r3, .L158
 2007 0012 1B68     		ldr	r3, [r3]
 2008 0014 1922     		mov	r2, #25
 2009 0016 1340     		and	r3, r2
 2010 0018 FB60     		str	r3, [r7, #12]
1624:.\Generated_Source\PSoC4/CyLib.c ****              (CY_SYS_RESET_WDT | CY_SYS_RESET_PROTFAULT | CY_SYS_RESET_SW);
1625:.\Generated_Source\PSoC4/CyLib.c ****     CY_SYS_RES_CAUSE_REG = reason;
 2011              		.loc 1 1625 0
 2012 001a 044B     		ldr	r3, .L158
 2013 001c 7A68     		ldr	r2, [r7, #4]
ARM GAS  C:\Users\Chuck\AppData\Local\Temp\ccRFe4cO.s 			page 65


 2014 001e 1A60     		str	r2, [r3]
1626:.\Generated_Source\PSoC4/CyLib.c **** 
1627:.\Generated_Source\PSoC4/CyLib.c ****     return (status);
 2015              		.loc 1 1627 0
 2016 0020 FB68     		ldr	r3, [r7, #12]
1628:.\Generated_Source\PSoC4/CyLib.c **** }
 2017              		.loc 1 1628 0
 2018 0022 181C     		mov	r0, r3
 2019 0024 BD46     		mov	sp, r7
 2020 0026 04B0     		add	sp, sp, #16
 2021              		@ sp needed
 2022 0028 80BD     		pop	{r7, pc}
 2023              	.L159:
 2024 002a C046     		.align	2
 2025              	.L158:
 2026 002c 00030B40 		.word	1074463488
 2027              		.cfi_endproc
 2028              	.LFE30:
 2029              		.size	CySysGetResetReason, .-CySysGetResetReason
 2030              		.section	.text.CyDisableInts,"ax",%progbits
 2031              		.align	2
 2032              		.global	CyDisableInts
 2033              		.code	16
 2034              		.thumb_func
 2035              		.type	CyDisableInts, %function
 2036              	CyDisableInts:
 2037              	.LFB31:
1629:.\Generated_Source\PSoC4/CyLib.c **** 
1630:.\Generated_Source\PSoC4/CyLib.c **** 
1631:.\Generated_Source\PSoC4/CyLib.c **** /*******************************************************************************
1632:.\Generated_Source\PSoC4/CyLib.c **** * Function Name: CyDisableInts
1633:.\Generated_Source\PSoC4/CyLib.c **** ********************************************************************************
1634:.\Generated_Source\PSoC4/CyLib.c **** *
1635:.\Generated_Source\PSoC4/CyLib.c **** * Summary:
1636:.\Generated_Source\PSoC4/CyLib.c **** *  Disables all interrupts.
1637:.\Generated_Source\PSoC4/CyLib.c **** *
1638:.\Generated_Source\PSoC4/CyLib.c **** * Parameters:
1639:.\Generated_Source\PSoC4/CyLib.c **** *  None
1640:.\Generated_Source\PSoC4/CyLib.c **** *
1641:.\Generated_Source\PSoC4/CyLib.c **** * Return:
1642:.\Generated_Source\PSoC4/CyLib.c **** *  32 bit mask of previously enabled interrupts.
1643:.\Generated_Source\PSoC4/CyLib.c **** *
1644:.\Generated_Source\PSoC4/CyLib.c **** *******************************************************************************/
1645:.\Generated_Source\PSoC4/CyLib.c **** uint32 CyDisableInts(void)
1646:.\Generated_Source\PSoC4/CyLib.c **** {
 2038              		.loc 1 1646 0
 2039              		.cfi_startproc
 2040 0000 80B5     		push	{r7, lr}
 2041              		.cfi_def_cfa_offset 8
 2042              		.cfi_offset 7, -8
 2043              		.cfi_offset 14, -4
 2044 0002 82B0     		sub	sp, sp, #8
 2045              		.cfi_def_cfa_offset 16
 2046 0004 00AF     		add	r7, sp, #0
 2047              		.cfi_def_cfa_register 7
1647:.\Generated_Source\PSoC4/CyLib.c ****     uint32 intState;
1648:.\Generated_Source\PSoC4/CyLib.c **** 
ARM GAS  C:\Users\Chuck\AppData\Local\Temp\ccRFe4cO.s 			page 66


1649:.\Generated_Source\PSoC4/CyLib.c ****     /* Get current interrupt state. */
1650:.\Generated_Source\PSoC4/CyLib.c ****     intState = CY_INT_CLEAR_REG;
 2048              		.loc 1 1650 0
 2049 0006 064B     		ldr	r3, .L162
 2050 0008 1B68     		ldr	r3, [r3]
 2051 000a 7B60     		str	r3, [r7, #4]
1651:.\Generated_Source\PSoC4/CyLib.c **** 
1652:.\Generated_Source\PSoC4/CyLib.c ****     /* Disable all interrupts. */
1653:.\Generated_Source\PSoC4/CyLib.c ****     CY_INT_CLEAR_REG = CY_INT_CLEAR_DISABLE_ALL;
 2052              		.loc 1 1653 0
 2053 000c 044B     		ldr	r3, .L162
 2054 000e 0122     		mov	r2, #1
 2055 0010 5242     		neg	r2, r2
 2056 0012 1A60     		str	r2, [r3]
1654:.\Generated_Source\PSoC4/CyLib.c **** 
1655:.\Generated_Source\PSoC4/CyLib.c ****     return (intState);
 2057              		.loc 1 1655 0
 2058 0014 7B68     		ldr	r3, [r7, #4]
1656:.\Generated_Source\PSoC4/CyLib.c **** }
 2059              		.loc 1 1656 0
 2060 0016 181C     		mov	r0, r3
 2061 0018 BD46     		mov	sp, r7
 2062 001a 02B0     		add	sp, sp, #8
 2063              		@ sp needed
 2064 001c 80BD     		pop	{r7, pc}
 2065              	.L163:
 2066 001e C046     		.align	2
 2067              	.L162:
 2068 0020 80E100E0 		.word	-536813184
 2069              		.cfi_endproc
 2070              	.LFE31:
 2071              		.size	CyDisableInts, .-CyDisableInts
 2072              		.section	.text.CyEnableInts,"ax",%progbits
 2073              		.align	2
 2074              		.global	CyEnableInts
 2075              		.code	16
 2076              		.thumb_func
 2077              		.type	CyEnableInts, %function
 2078              	CyEnableInts:
 2079              	.LFB32:
1657:.\Generated_Source\PSoC4/CyLib.c **** 
1658:.\Generated_Source\PSoC4/CyLib.c **** 
1659:.\Generated_Source\PSoC4/CyLib.c **** /*******************************************************************************
1660:.\Generated_Source\PSoC4/CyLib.c **** * Function Name: CyEnableInts
1661:.\Generated_Source\PSoC4/CyLib.c **** ********************************************************************************
1662:.\Generated_Source\PSoC4/CyLib.c **** *
1663:.\Generated_Source\PSoC4/CyLib.c **** * Summary:
1664:.\Generated_Source\PSoC4/CyLib.c **** *  Enables interrupts to a given state.
1665:.\Generated_Source\PSoC4/CyLib.c **** *
1666:.\Generated_Source\PSoC4/CyLib.c **** * Parameters:
1667:.\Generated_Source\PSoC4/CyLib.c **** *   mask, 32 bit mask of interrupts to enable.
1668:.\Generated_Source\PSoC4/CyLib.c **** *
1669:.\Generated_Source\PSoC4/CyLib.c **** * Return:
1670:.\Generated_Source\PSoC4/CyLib.c **** *  None
1671:.\Generated_Source\PSoC4/CyLib.c **** *
1672:.\Generated_Source\PSoC4/CyLib.c **** *******************************************************************************/
1673:.\Generated_Source\PSoC4/CyLib.c **** void CyEnableInts(uint32 mask)
ARM GAS  C:\Users\Chuck\AppData\Local\Temp\ccRFe4cO.s 			page 67


1674:.\Generated_Source\PSoC4/CyLib.c **** {
 2080              		.loc 1 1674 0
 2081              		.cfi_startproc
 2082 0000 80B5     		push	{r7, lr}
 2083              		.cfi_def_cfa_offset 8
 2084              		.cfi_offset 7, -8
 2085              		.cfi_offset 14, -4
 2086 0002 82B0     		sub	sp, sp, #8
 2087              		.cfi_def_cfa_offset 16
 2088 0004 00AF     		add	r7, sp, #0
 2089              		.cfi_def_cfa_register 7
 2090 0006 7860     		str	r0, [r7, #4]
1675:.\Generated_Source\PSoC4/CyLib.c ****     CY_INT_ENABLE_REG = mask;
 2091              		.loc 1 1675 0
 2092 0008 024B     		ldr	r3, .L165
 2093 000a 7A68     		ldr	r2, [r7, #4]
 2094 000c 1A60     		str	r2, [r3]
1676:.\Generated_Source\PSoC4/CyLib.c **** }
 2095              		.loc 1 1676 0
 2096 000e BD46     		mov	sp, r7
 2097 0010 02B0     		add	sp, sp, #8
 2098              		@ sp needed
 2099 0012 80BD     		pop	{r7, pc}
 2100              	.L166:
 2101              		.align	2
 2102              	.L165:
 2103 0014 00E100E0 		.word	-536813312
 2104              		.cfi_endproc
 2105              	.LFE32:
 2106              		.size	CyEnableInts, .-CyEnableInts
 2107              		.section	.text.CyIntSetSysVector,"ax",%progbits
 2108              		.align	2
 2109              		.global	CyIntSetSysVector
 2110              		.code	16
 2111              		.thumb_func
 2112              		.type	CyIntSetSysVector, %function
 2113              	CyIntSetSysVector:
 2114              	.LFB33:
1677:.\Generated_Source\PSoC4/CyLib.c **** 
1678:.\Generated_Source\PSoC4/CyLib.c **** 
1679:.\Generated_Source\PSoC4/CyLib.c **** /*******************************************************************************
1680:.\Generated_Source\PSoC4/CyLib.c **** * Function Name: CyIntSetSysVector
1681:.\Generated_Source\PSoC4/CyLib.c **** ********************************************************************************
1682:.\Generated_Source\PSoC4/CyLib.c **** *
1683:.\Generated_Source\PSoC4/CyLib.c **** * Summary:
1684:.\Generated_Source\PSoC4/CyLib.c **** *  Sets the interrupt vector of the specified system interrupt number. These
1685:.\Generated_Source\PSoC4/CyLib.c **** *  interrupts are for SysTick, PendSV and others.
1686:.\Generated_Source\PSoC4/CyLib.c **** *
1687:.\Generated_Source\PSoC4/CyLib.c **** * Parameters:
1688:.\Generated_Source\PSoC4/CyLib.c **** *  number: Interrupt number, valid range [0-15].
1689:.\Generated_Source\PSoC4/CyLib.c **** *  address: Pointer to an interrupt service routine.
1690:.\Generated_Source\PSoC4/CyLib.c **** *
1691:.\Generated_Source\PSoC4/CyLib.c **** * Return:
1692:.\Generated_Source\PSoC4/CyLib.c **** *  The old ISR vector at this location.
1693:.\Generated_Source\PSoC4/CyLib.c **** *
1694:.\Generated_Source\PSoC4/CyLib.c **** *******************************************************************************/
1695:.\Generated_Source\PSoC4/CyLib.c **** cyisraddress CyIntSetSysVector(uint8 number, cyisraddress address)
ARM GAS  C:\Users\Chuck\AppData\Local\Temp\ccRFe4cO.s 			page 68


1696:.\Generated_Source\PSoC4/CyLib.c **** {
 2115              		.loc 1 1696 0
 2116              		.cfi_startproc
 2117 0000 80B5     		push	{r7, lr}
 2118              		.cfi_def_cfa_offset 8
 2119              		.cfi_offset 7, -8
 2120              		.cfi_offset 14, -4
 2121 0002 84B0     		sub	sp, sp, #16
 2122              		.cfi_def_cfa_offset 24
 2123 0004 00AF     		add	r7, sp, #0
 2124              		.cfi_def_cfa_register 7
 2125 0006 021C     		mov	r2, r0
 2126 0008 3960     		str	r1, [r7]
 2127 000a FB1D     		add	r3, r7, #7
 2128 000c 1A70     		strb	r2, [r3]
1697:.\Generated_Source\PSoC4/CyLib.c ****     cyisraddress oldIsr;
1698:.\Generated_Source\PSoC4/CyLib.c ****     cyisraddress *ramVectorTable = (cyisraddress *) CY_INT_VECT_TABLE;
 2129              		.loc 1 1698 0
 2130 000e 8023     		mov	r3, #128
 2131 0010 9B05     		lsl	r3, r3, #22
 2132 0012 FB60     		str	r3, [r7, #12]
1699:.\Generated_Source\PSoC4/CyLib.c **** 
1700:.\Generated_Source\PSoC4/CyLib.c ****     CYASSERT(number < CY_INT_IRQ_BASE);
 2133              		.loc 1 1700 0
 2134 0014 FB1D     		add	r3, r7, #7
 2135 0016 1B78     		ldrb	r3, [r3]
 2136 0018 0F2B     		cmp	r3, #15
 2137 001a 02D9     		bls	.L168
 2138              		.loc 1 1700 0 is_stmt 0 discriminator 1
 2139 001c 0020     		mov	r0, #0
 2140 001e FFF7FEFF 		bl	CyHalt
 2141              	.L168:
1701:.\Generated_Source\PSoC4/CyLib.c **** 
1702:.\Generated_Source\PSoC4/CyLib.c ****     /* Save old Interrupt service routine. */
1703:.\Generated_Source\PSoC4/CyLib.c ****     oldIsr = ramVectorTable[number];
 2142              		.loc 1 1703 0 is_stmt 1
 2143 0022 FB1D     		add	r3, r7, #7
 2144 0024 1B78     		ldrb	r3, [r3]
 2145 0026 9B00     		lsl	r3, r3, #2
 2146 0028 FA68     		ldr	r2, [r7, #12]
 2147 002a D318     		add	r3, r2, r3
 2148 002c 1B68     		ldr	r3, [r3]
 2149 002e BB60     		str	r3, [r7, #8]
1704:.\Generated_Source\PSoC4/CyLib.c **** 
1705:.\Generated_Source\PSoC4/CyLib.c ****     /* Set new Interrupt service routine. */
1706:.\Generated_Source\PSoC4/CyLib.c ****     ramVectorTable[number] = address;
 2150              		.loc 1 1706 0
 2151 0030 FB1D     		add	r3, r7, #7
 2152 0032 1B78     		ldrb	r3, [r3]
 2153 0034 9B00     		lsl	r3, r3, #2
 2154 0036 FA68     		ldr	r2, [r7, #12]
 2155 0038 D318     		add	r3, r2, r3
 2156 003a 3A68     		ldr	r2, [r7]
 2157 003c 1A60     		str	r2, [r3]
1707:.\Generated_Source\PSoC4/CyLib.c **** 
1708:.\Generated_Source\PSoC4/CyLib.c ****     return(oldIsr);
 2158              		.loc 1 1708 0
ARM GAS  C:\Users\Chuck\AppData\Local\Temp\ccRFe4cO.s 			page 69


 2159 003e BB68     		ldr	r3, [r7, #8]
1709:.\Generated_Source\PSoC4/CyLib.c **** }
 2160              		.loc 1 1709 0
 2161 0040 181C     		mov	r0, r3
 2162 0042 BD46     		mov	sp, r7
 2163 0044 04B0     		add	sp, sp, #16
 2164              		@ sp needed
 2165 0046 80BD     		pop	{r7, pc}
 2166              		.cfi_endproc
 2167              	.LFE33:
 2168              		.size	CyIntSetSysVector, .-CyIntSetSysVector
 2169              		.section	.text.CyIntGetSysVector,"ax",%progbits
 2170              		.align	2
 2171              		.global	CyIntGetSysVector
 2172              		.code	16
 2173              		.thumb_func
 2174              		.type	CyIntGetSysVector, %function
 2175              	CyIntGetSysVector:
 2176              	.LFB34:
1710:.\Generated_Source\PSoC4/CyLib.c **** 
1711:.\Generated_Source\PSoC4/CyLib.c **** 
1712:.\Generated_Source\PSoC4/CyLib.c **** /*******************************************************************************
1713:.\Generated_Source\PSoC4/CyLib.c **** * Function Name: CyIntGetSysVector
1714:.\Generated_Source\PSoC4/CyLib.c **** ********************************************************************************
1715:.\Generated_Source\PSoC4/CyLib.c **** *
1716:.\Generated_Source\PSoC4/CyLib.c **** * Summary:
1717:.\Generated_Source\PSoC4/CyLib.c **** *   Gets the interrupt vector of the specified system interrupt number. These
1718:.\Generated_Source\PSoC4/CyLib.c **** *   interrupts are for SysTick, PendSV and others.
1719:.\Generated_Source\PSoC4/CyLib.c **** *
1720:.\Generated_Source\PSoC4/CyLib.c **** * Parameters:
1721:.\Generated_Source\PSoC4/CyLib.c **** *   number: The interrupt number, valid range [0-15].
1722:.\Generated_Source\PSoC4/CyLib.c **** *
1723:.\Generated_Source\PSoC4/CyLib.c **** * Return:
1724:.\Generated_Source\PSoC4/CyLib.c **** *   Address of the ISR in the interrupt vector table.
1725:.\Generated_Source\PSoC4/CyLib.c **** *
1726:.\Generated_Source\PSoC4/CyLib.c **** *******************************************************************************/
1727:.\Generated_Source\PSoC4/CyLib.c **** cyisraddress CyIntGetSysVector(uint8 number)
1728:.\Generated_Source\PSoC4/CyLib.c **** {
 2177              		.loc 1 1728 0
 2178              		.cfi_startproc
 2179 0000 80B5     		push	{r7, lr}
 2180              		.cfi_def_cfa_offset 8
 2181              		.cfi_offset 7, -8
 2182              		.cfi_offset 14, -4
 2183 0002 84B0     		sub	sp, sp, #16
 2184              		.cfi_def_cfa_offset 24
 2185 0004 00AF     		add	r7, sp, #0
 2186              		.cfi_def_cfa_register 7
 2187 0006 021C     		mov	r2, r0
 2188 0008 FB1D     		add	r3, r7, #7
 2189 000a 1A70     		strb	r2, [r3]
1729:.\Generated_Source\PSoC4/CyLib.c ****     cyisraddress *ramVectorTable = (cyisraddress *) CY_INT_VECT_TABLE;
 2190              		.loc 1 1729 0
 2191 000c 8023     		mov	r3, #128
 2192 000e 9B05     		lsl	r3, r3, #22
 2193 0010 FB60     		str	r3, [r7, #12]
1730:.\Generated_Source\PSoC4/CyLib.c **** 
ARM GAS  C:\Users\Chuck\AppData\Local\Temp\ccRFe4cO.s 			page 70


1731:.\Generated_Source\PSoC4/CyLib.c ****     CYASSERT(number < CY_INT_IRQ_BASE);
 2194              		.loc 1 1731 0
 2195 0012 FB1D     		add	r3, r7, #7
 2196 0014 1B78     		ldrb	r3, [r3]
 2197 0016 0F2B     		cmp	r3, #15
 2198 0018 02D9     		bls	.L171
 2199              		.loc 1 1731 0 is_stmt 0 discriminator 1
 2200 001a 0020     		mov	r0, #0
 2201 001c FFF7FEFF 		bl	CyHalt
 2202              	.L171:
1732:.\Generated_Source\PSoC4/CyLib.c **** 
1733:.\Generated_Source\PSoC4/CyLib.c ****     return(ramVectorTable[number]);
 2203              		.loc 1 1733 0 is_stmt 1
 2204 0020 FB1D     		add	r3, r7, #7
 2205 0022 1B78     		ldrb	r3, [r3]
 2206 0024 9B00     		lsl	r3, r3, #2
 2207 0026 FA68     		ldr	r2, [r7, #12]
 2208 0028 D318     		add	r3, r2, r3
 2209 002a 1B68     		ldr	r3, [r3]
1734:.\Generated_Source\PSoC4/CyLib.c **** }
 2210              		.loc 1 1734 0
 2211 002c 181C     		mov	r0, r3
 2212 002e BD46     		mov	sp, r7
 2213 0030 04B0     		add	sp, sp, #16
 2214              		@ sp needed
 2215 0032 80BD     		pop	{r7, pc}
 2216              		.cfi_endproc
 2217              	.LFE34:
 2218              		.size	CyIntGetSysVector, .-CyIntGetSysVector
 2219              		.section	.text.CyIntSetVector,"ax",%progbits
 2220              		.align	2
 2221              		.global	CyIntSetVector
 2222              		.code	16
 2223              		.thumb_func
 2224              		.type	CyIntSetVector, %function
 2225              	CyIntSetVector:
 2226              	.LFB35:
1735:.\Generated_Source\PSoC4/CyLib.c **** 
1736:.\Generated_Source\PSoC4/CyLib.c **** 
1737:.\Generated_Source\PSoC4/CyLib.c **** /*******************************************************************************
1738:.\Generated_Source\PSoC4/CyLib.c **** * Function Name: CyIntSetVector
1739:.\Generated_Source\PSoC4/CyLib.c **** ********************************************************************************
1740:.\Generated_Source\PSoC4/CyLib.c **** *
1741:.\Generated_Source\PSoC4/CyLib.c **** * Summary:
1742:.\Generated_Source\PSoC4/CyLib.c **** *  Sets the interrupt vector of the specified interrupt number.
1743:.\Generated_Source\PSoC4/CyLib.c **** *
1744:.\Generated_Source\PSoC4/CyLib.c **** * Parameters:
1745:.\Generated_Source\PSoC4/CyLib.c **** *  number: Valid range [0-31].  Interrupt number
1746:.\Generated_Source\PSoC4/CyLib.c **** *  address: Pointer to an interrupt service routine
1747:.\Generated_Source\PSoC4/CyLib.c **** *
1748:.\Generated_Source\PSoC4/CyLib.c **** * Return:
1749:.\Generated_Source\PSoC4/CyLib.c **** *   Previous interrupt vector value.
1750:.\Generated_Source\PSoC4/CyLib.c **** *
1751:.\Generated_Source\PSoC4/CyLib.c **** *******************************************************************************/
1752:.\Generated_Source\PSoC4/CyLib.c **** cyisraddress CyIntSetVector(uint8 number, cyisraddress address)
1753:.\Generated_Source\PSoC4/CyLib.c **** {
 2227              		.loc 1 1753 0
ARM GAS  C:\Users\Chuck\AppData\Local\Temp\ccRFe4cO.s 			page 71


 2228              		.cfi_startproc
 2229 0000 80B5     		push	{r7, lr}
 2230              		.cfi_def_cfa_offset 8
 2231              		.cfi_offset 7, -8
 2232              		.cfi_offset 14, -4
 2233 0002 84B0     		sub	sp, sp, #16
 2234              		.cfi_def_cfa_offset 24
 2235 0004 00AF     		add	r7, sp, #0
 2236              		.cfi_def_cfa_register 7
 2237 0006 021C     		mov	r2, r0
 2238 0008 3960     		str	r1, [r7]
 2239 000a FB1D     		add	r3, r7, #7
 2240 000c 1A70     		strb	r2, [r3]
1754:.\Generated_Source\PSoC4/CyLib.c ****     cyisraddress oldIsr;
1755:.\Generated_Source\PSoC4/CyLib.c ****     cyisraddress *ramVectorTable = (cyisraddress *) CY_INT_VECT_TABLE;
 2241              		.loc 1 1755 0
 2242 000e 8023     		mov	r3, #128
 2243 0010 9B05     		lsl	r3, r3, #22
 2244 0012 FB60     		str	r3, [r7, #12]
1756:.\Generated_Source\PSoC4/CyLib.c **** 
1757:.\Generated_Source\PSoC4/CyLib.c ****     CYASSERT(number < CY_NUM_INTERRUPTS);
 2245              		.loc 1 1757 0
 2246 0014 FB1D     		add	r3, r7, #7
 2247 0016 1B78     		ldrb	r3, [r3]
 2248 0018 1F2B     		cmp	r3, #31
 2249 001a 02D9     		bls	.L174
 2250              		.loc 1 1757 0 is_stmt 0 discriminator 1
 2251 001c 0020     		mov	r0, #0
 2252 001e FFF7FEFF 		bl	CyHalt
 2253              	.L174:
1758:.\Generated_Source\PSoC4/CyLib.c **** 
1759:.\Generated_Source\PSoC4/CyLib.c ****     /* Save old Interrupt service routine. */
1760:.\Generated_Source\PSoC4/CyLib.c ****     oldIsr = ramVectorTable[CY_INT_IRQ_BASE + number];
 2254              		.loc 1 1760 0 is_stmt 1
 2255 0022 FB1D     		add	r3, r7, #7
 2256 0024 1B78     		ldrb	r3, [r3]
 2257 0026 1033     		add	r3, r3, #16
 2258 0028 9B00     		lsl	r3, r3, #2
 2259 002a FA68     		ldr	r2, [r7, #12]
 2260 002c D318     		add	r3, r2, r3
 2261 002e 1B68     		ldr	r3, [r3]
 2262 0030 BB60     		str	r3, [r7, #8]
1761:.\Generated_Source\PSoC4/CyLib.c **** 
1762:.\Generated_Source\PSoC4/CyLib.c ****     /* Set new Interrupt service routine. */
1763:.\Generated_Source\PSoC4/CyLib.c ****     ramVectorTable[CY_INT_IRQ_BASE + number] = address;
 2263              		.loc 1 1763 0
 2264 0032 FB1D     		add	r3, r7, #7
 2265 0034 1B78     		ldrb	r3, [r3]
 2266 0036 1033     		add	r3, r3, #16
 2267 0038 9B00     		lsl	r3, r3, #2
 2268 003a FA68     		ldr	r2, [r7, #12]
 2269 003c D318     		add	r3, r2, r3
 2270 003e 3A68     		ldr	r2, [r7]
 2271 0040 1A60     		str	r2, [r3]
1764:.\Generated_Source\PSoC4/CyLib.c **** 
1765:.\Generated_Source\PSoC4/CyLib.c ****     return(oldIsr);
 2272              		.loc 1 1765 0
ARM GAS  C:\Users\Chuck\AppData\Local\Temp\ccRFe4cO.s 			page 72


 2273 0042 BB68     		ldr	r3, [r7, #8]
1766:.\Generated_Source\PSoC4/CyLib.c **** }
 2274              		.loc 1 1766 0
 2275 0044 181C     		mov	r0, r3
 2276 0046 BD46     		mov	sp, r7
 2277 0048 04B0     		add	sp, sp, #16
 2278              		@ sp needed
 2279 004a 80BD     		pop	{r7, pc}
 2280              		.cfi_endproc
 2281              	.LFE35:
 2282              		.size	CyIntSetVector, .-CyIntSetVector
 2283              		.section	.text.CyIntGetVector,"ax",%progbits
 2284              		.align	2
 2285              		.global	CyIntGetVector
 2286              		.code	16
 2287              		.thumb_func
 2288              		.type	CyIntGetVector, %function
 2289              	CyIntGetVector:
 2290              	.LFB36:
1767:.\Generated_Source\PSoC4/CyLib.c **** 
1768:.\Generated_Source\PSoC4/CyLib.c **** 
1769:.\Generated_Source\PSoC4/CyLib.c **** /*******************************************************************************
1770:.\Generated_Source\PSoC4/CyLib.c **** * Function Name: CyIntGetVector
1771:.\Generated_Source\PSoC4/CyLib.c **** ********************************************************************************
1772:.\Generated_Source\PSoC4/CyLib.c **** *
1773:.\Generated_Source\PSoC4/CyLib.c **** * Summary:
1774:.\Generated_Source\PSoC4/CyLib.c **** *  Gets the interrupt vector of the specified interrupt number.
1775:.\Generated_Source\PSoC4/CyLib.c **** *
1776:.\Generated_Source\PSoC4/CyLib.c **** * Parameters:
1777:.\Generated_Source\PSoC4/CyLib.c **** *  number: Valid range [0-31].  Interrupt number
1778:.\Generated_Source\PSoC4/CyLib.c **** *
1779:.\Generated_Source\PSoC4/CyLib.c **** * Return:
1780:.\Generated_Source\PSoC4/CyLib.c **** *  Address of the ISR in the interrupt vector table.
1781:.\Generated_Source\PSoC4/CyLib.c **** *
1782:.\Generated_Source\PSoC4/CyLib.c **** *******************************************************************************/
1783:.\Generated_Source\PSoC4/CyLib.c **** cyisraddress CyIntGetVector(uint8 number)
1784:.\Generated_Source\PSoC4/CyLib.c **** {
 2291              		.loc 1 1784 0
 2292              		.cfi_startproc
 2293 0000 80B5     		push	{r7, lr}
 2294              		.cfi_def_cfa_offset 8
 2295              		.cfi_offset 7, -8
 2296              		.cfi_offset 14, -4
 2297 0002 84B0     		sub	sp, sp, #16
 2298              		.cfi_def_cfa_offset 24
 2299 0004 00AF     		add	r7, sp, #0
 2300              		.cfi_def_cfa_register 7
 2301 0006 021C     		mov	r2, r0
 2302 0008 FB1D     		add	r3, r7, #7
 2303 000a 1A70     		strb	r2, [r3]
1785:.\Generated_Source\PSoC4/CyLib.c ****     cyisraddress *ramVectorTable = (cyisraddress *) CY_INT_VECT_TABLE;
 2304              		.loc 1 1785 0
 2305 000c 8023     		mov	r3, #128
 2306 000e 9B05     		lsl	r3, r3, #22
 2307 0010 FB60     		str	r3, [r7, #12]
1786:.\Generated_Source\PSoC4/CyLib.c **** 
1787:.\Generated_Source\PSoC4/CyLib.c ****     CYASSERT(number < CY_NUM_INTERRUPTS);
ARM GAS  C:\Users\Chuck\AppData\Local\Temp\ccRFe4cO.s 			page 73


 2308              		.loc 1 1787 0
 2309 0012 FB1D     		add	r3, r7, #7
 2310 0014 1B78     		ldrb	r3, [r3]
 2311 0016 1F2B     		cmp	r3, #31
 2312 0018 02D9     		bls	.L177
 2313              		.loc 1 1787 0 is_stmt 0 discriminator 1
 2314 001a 0020     		mov	r0, #0
 2315 001c FFF7FEFF 		bl	CyHalt
 2316              	.L177:
1788:.\Generated_Source\PSoC4/CyLib.c **** 
1789:.\Generated_Source\PSoC4/CyLib.c ****     return (ramVectorTable[CY_INT_IRQ_BASE + number]);
 2317              		.loc 1 1789 0 is_stmt 1
 2318 0020 FB1D     		add	r3, r7, #7
 2319 0022 1B78     		ldrb	r3, [r3]
 2320 0024 1033     		add	r3, r3, #16
 2321 0026 9B00     		lsl	r3, r3, #2
 2322 0028 FA68     		ldr	r2, [r7, #12]
 2323 002a D318     		add	r3, r2, r3
 2324 002c 1B68     		ldr	r3, [r3]
1790:.\Generated_Source\PSoC4/CyLib.c **** }
 2325              		.loc 1 1790 0
 2326 002e 181C     		mov	r0, r3
 2327 0030 BD46     		mov	sp, r7
 2328 0032 04B0     		add	sp, sp, #16
 2329              		@ sp needed
 2330 0034 80BD     		pop	{r7, pc}
 2331              		.cfi_endproc
 2332              	.LFE36:
 2333              		.size	CyIntGetVector, .-CyIntGetVector
 2334              		.section	.text.CyIntSetPriority,"ax",%progbits
 2335              		.align	2
 2336              		.global	CyIntSetPriority
 2337              		.code	16
 2338              		.thumb_func
 2339              		.type	CyIntSetPriority, %function
 2340              	CyIntSetPriority:
 2341              	.LFB37:
1791:.\Generated_Source\PSoC4/CyLib.c **** 
1792:.\Generated_Source\PSoC4/CyLib.c **** /*******************************************************************************
1793:.\Generated_Source\PSoC4/CyLib.c **** * Function Name: CyIntSetPriority
1794:.\Generated_Source\PSoC4/CyLib.c **** ********************************************************************************
1795:.\Generated_Source\PSoC4/CyLib.c **** *
1796:.\Generated_Source\PSoC4/CyLib.c **** * Summary:
1797:.\Generated_Source\PSoC4/CyLib.c **** *  Sets the priority of the interrupt.
1798:.\Generated_Source\PSoC4/CyLib.c **** *
1799:.\Generated_Source\PSoC4/CyLib.c **** * Parameters:
1800:.\Generated_Source\PSoC4/CyLib.c **** *  priority: Priority of the interrupt. 0 - 3, 0 being the highest.
1801:.\Generated_Source\PSoC4/CyLib.c **** *  number: The number of the interrupt, 0 - 31.
1802:.\Generated_Source\PSoC4/CyLib.c **** *
1803:.\Generated_Source\PSoC4/CyLib.c **** * Return:
1804:.\Generated_Source\PSoC4/CyLib.c **** *  None
1805:.\Generated_Source\PSoC4/CyLib.c **** *
1806:.\Generated_Source\PSoC4/CyLib.c **** *******************************************************************************/
1807:.\Generated_Source\PSoC4/CyLib.c **** void CyIntSetPriority(uint8 number, uint8 priority)
1808:.\Generated_Source\PSoC4/CyLib.c **** {
 2342              		.loc 1 1808 0
 2343              		.cfi_startproc
ARM GAS  C:\Users\Chuck\AppData\Local\Temp\ccRFe4cO.s 			page 74


 2344 0000 90B5     		push	{r4, r7, lr}
 2345              		.cfi_def_cfa_offset 12
 2346              		.cfi_offset 4, -12
 2347              		.cfi_offset 7, -8
 2348              		.cfi_offset 14, -4
 2349 0002 87B0     		sub	sp, sp, #28
 2350              		.cfi_def_cfa_offset 40
 2351 0004 00AF     		add	r7, sp, #0
 2352              		.cfi_def_cfa_register 7
 2353 0006 021C     		mov	r2, r0
 2354 0008 FB1D     		add	r3, r7, #7
 2355 000a 1A70     		strb	r2, [r3]
 2356 000c BB1D     		add	r3, r7, #6
 2357 000e 0A1C     		add	r2, r1, #0
 2358 0010 1A70     		strb	r2, [r3]
1809:.\Generated_Source\PSoC4/CyLib.c ****     uint8 interruptState;
1810:.\Generated_Source\PSoC4/CyLib.c ****     uint32 shift;
1811:.\Generated_Source\PSoC4/CyLib.c ****     uint32 value;
1812:.\Generated_Source\PSoC4/CyLib.c **** 
1813:.\Generated_Source\PSoC4/CyLib.c ****     CYASSERT(priority <= CY_MIN_PRIORITY);
 2359              		.loc 1 1813 0
 2360 0012 BB1D     		add	r3, r7, #6
 2361 0014 1B78     		ldrb	r3, [r3]
 2362 0016 032B     		cmp	r3, #3
 2363 0018 02D9     		bls	.L180
 2364              		.loc 1 1813 0 is_stmt 0 discriminator 1
 2365 001a 0020     		mov	r0, #0
 2366 001c FFF7FEFF 		bl	CyHalt
 2367              	.L180:
1814:.\Generated_Source\PSoC4/CyLib.c ****     CYASSERT(number < CY_NUM_INTERRUPTS);
 2368              		.loc 1 1814 0 is_stmt 1
 2369 0020 FB1D     		add	r3, r7, #7
 2370 0022 1B78     		ldrb	r3, [r3]
 2371 0024 1F2B     		cmp	r3, #31
 2372 0026 02D9     		bls	.L181
 2373              		.loc 1 1814 0 is_stmt 0 discriminator 1
 2374 0028 0020     		mov	r0, #0
 2375 002a FFF7FEFF 		bl	CyHalt
 2376              	.L181:
1815:.\Generated_Source\PSoC4/CyLib.c **** 
1816:.\Generated_Source\PSoC4/CyLib.c ****     shift = CY_INT_PRIORITY_SHIFT(number);
 2377              		.loc 1 1816 0 is_stmt 1
 2378 002e FB1D     		add	r3, r7, #7
 2379 0030 1B78     		ldrb	r3, [r3]
 2380 0032 0322     		mov	r2, #3
 2381 0034 1340     		and	r3, r2
 2382 0036 DB00     		lsl	r3, r3, #3
 2383 0038 0633     		add	r3, r3, #6
 2384 003a 7B61     		str	r3, [r7, #20]
1817:.\Generated_Source\PSoC4/CyLib.c **** 
1818:.\Generated_Source\PSoC4/CyLib.c ****     interruptState = CyEnterCriticalSection();
 2385              		.loc 1 1818 0
 2386 003c 1323     		mov	r3, #19
 2387 003e FC18     		add	r4, r7, r3
 2388 0040 FFF7FEFF 		bl	CyEnterCriticalSection
 2389 0044 031C     		mov	r3, r0
 2390 0046 2370     		strb	r3, [r4]
ARM GAS  C:\Users\Chuck\AppData\Local\Temp\ccRFe4cO.s 			page 75


1819:.\Generated_Source\PSoC4/CyLib.c **** 
1820:.\Generated_Source\PSoC4/CyLib.c ****     value = CY_INT_PRIORITY_REG(number);
 2391              		.loc 1 1820 0
 2392 0048 FB1D     		add	r3, r7, #7
 2393 004a 1B78     		ldrb	r3, [r3]
 2394 004c 9B08     		lsr	r3, r3, #2
 2395 004e DBB2     		uxtb	r3, r3
 2396 0050 9B00     		lsl	r3, r3, #2
 2397 0052 144A     		ldr	r2, .L182
 2398 0054 9446     		mov	ip, r2
 2399 0056 6344     		add	r3, r3, ip
 2400 0058 1B68     		ldr	r3, [r3]
 2401 005a FB60     		str	r3, [r7, #12]
1821:.\Generated_Source\PSoC4/CyLib.c ****     value &= (uint32)(~((uint32)(CY_INT_PRIORITY_MASK << shift)));
 2402              		.loc 1 1821 0
 2403 005c 7B69     		ldr	r3, [r7, #20]
 2404 005e 0322     		mov	r2, #3
 2405 0060 9A40     		lsl	r2, r2, r3
 2406 0062 131C     		mov	r3, r2
 2407 0064 DA43     		mvn	r2, r3
 2408 0066 FB68     		ldr	r3, [r7, #12]
 2409 0068 1340     		and	r3, r2
 2410 006a FB60     		str	r3, [r7, #12]
1822:.\Generated_Source\PSoC4/CyLib.c ****     value |= ((uint32)priority << shift);
 2411              		.loc 1 1822 0
 2412 006c BB1D     		add	r3, r7, #6
 2413 006e 1A78     		ldrb	r2, [r3]
 2414 0070 7B69     		ldr	r3, [r7, #20]
 2415 0072 9A40     		lsl	r2, r2, r3
 2416 0074 131C     		mov	r3, r2
 2417 0076 FA68     		ldr	r2, [r7, #12]
 2418 0078 1343     		orr	r3, r2
 2419 007a FB60     		str	r3, [r7, #12]
1823:.\Generated_Source\PSoC4/CyLib.c ****     CY_INT_PRIORITY_REG(number) = value;
 2420              		.loc 1 1823 0
 2421 007c FB1D     		add	r3, r7, #7
 2422 007e 1B78     		ldrb	r3, [r3]
 2423 0080 9B08     		lsr	r3, r3, #2
 2424 0082 DBB2     		uxtb	r3, r3
 2425 0084 9B00     		lsl	r3, r3, #2
 2426 0086 074A     		ldr	r2, .L182
 2427 0088 9446     		mov	ip, r2
 2428 008a 6344     		add	r3, r3, ip
 2429 008c FA68     		ldr	r2, [r7, #12]
 2430 008e 1A60     		str	r2, [r3]
1824:.\Generated_Source\PSoC4/CyLib.c **** 
1825:.\Generated_Source\PSoC4/CyLib.c ****     CyExitCriticalSection(interruptState);
 2431              		.loc 1 1825 0
 2432 0090 1323     		mov	r3, #19
 2433 0092 FB18     		add	r3, r7, r3
 2434 0094 1B78     		ldrb	r3, [r3]
 2435 0096 181C     		mov	r0, r3
 2436 0098 FFF7FEFF 		bl	CyExitCriticalSection
1826:.\Generated_Source\PSoC4/CyLib.c **** }
 2437              		.loc 1 1826 0
 2438 009c BD46     		mov	sp, r7
 2439 009e 07B0     		add	sp, sp, #28
ARM GAS  C:\Users\Chuck\AppData\Local\Temp\ccRFe4cO.s 			page 76


 2440              		@ sp needed
 2441 00a0 90BD     		pop	{r4, r7, pc}
 2442              	.L183:
 2443 00a2 C046     		.align	2
 2444              	.L182:
 2445 00a4 00E400E0 		.word	-536812544
 2446              		.cfi_endproc
 2447              	.LFE37:
 2448              		.size	CyIntSetPriority, .-CyIntSetPriority
 2449              		.section	.text.CyIntGetPriority,"ax",%progbits
 2450              		.align	2
 2451              		.global	CyIntGetPriority
 2452              		.code	16
 2453              		.thumb_func
 2454              		.type	CyIntGetPriority, %function
 2455              	CyIntGetPriority:
 2456              	.LFB38:
1827:.\Generated_Source\PSoC4/CyLib.c **** 
1828:.\Generated_Source\PSoC4/CyLib.c **** 
1829:.\Generated_Source\PSoC4/CyLib.c **** /*******************************************************************************
1830:.\Generated_Source\PSoC4/CyLib.c **** * Function Name: CyIntGetPriority
1831:.\Generated_Source\PSoC4/CyLib.c **** ********************************************************************************
1832:.\Generated_Source\PSoC4/CyLib.c **** *
1833:.\Generated_Source\PSoC4/CyLib.c **** * Summary:
1834:.\Generated_Source\PSoC4/CyLib.c **** *  Gets the priority of the interrupt.
1835:.\Generated_Source\PSoC4/CyLib.c **** *
1836:.\Generated_Source\PSoC4/CyLib.c **** * Parameters:
1837:.\Generated_Source\PSoC4/CyLib.c **** *  number: The number of the interrupt, 0 - 31.
1838:.\Generated_Source\PSoC4/CyLib.c **** *
1839:.\Generated_Source\PSoC4/CyLib.c **** * Return:
1840:.\Generated_Source\PSoC4/CyLib.c **** *  Priority of the interrupt. 0 - 3, 0 being the highest.
1841:.\Generated_Source\PSoC4/CyLib.c **** *
1842:.\Generated_Source\PSoC4/CyLib.c **** *******************************************************************************/
1843:.\Generated_Source\PSoC4/CyLib.c **** uint8 CyIntGetPriority(uint8 number)
1844:.\Generated_Source\PSoC4/CyLib.c **** {
 2457              		.loc 1 1844 0
 2458              		.cfi_startproc
 2459 0000 80B5     		push	{r7, lr}
 2460              		.cfi_def_cfa_offset 8
 2461              		.cfi_offset 7, -8
 2462              		.cfi_offset 14, -4
 2463 0002 84B0     		sub	sp, sp, #16
 2464              		.cfi_def_cfa_offset 24
 2465 0004 00AF     		add	r7, sp, #0
 2466              		.cfi_def_cfa_register 7
 2467 0006 021C     		mov	r2, r0
 2468 0008 FB1D     		add	r3, r7, #7
 2469 000a 1A70     		strb	r2, [r3]
1845:.\Generated_Source\PSoC4/CyLib.c ****     uint8 priority;
1846:.\Generated_Source\PSoC4/CyLib.c **** 
1847:.\Generated_Source\PSoC4/CyLib.c ****     CYASSERT(number < CY_NUM_INTERRUPTS);
 2470              		.loc 1 1847 0
 2471 000c FB1D     		add	r3, r7, #7
 2472 000e 1B78     		ldrb	r3, [r3]
 2473 0010 1F2B     		cmp	r3, #31
 2474 0012 02D9     		bls	.L185
 2475              		.loc 1 1847 0 is_stmt 0 discriminator 1
ARM GAS  C:\Users\Chuck\AppData\Local\Temp\ccRFe4cO.s 			page 77


 2476 0014 0020     		mov	r0, #0
 2477 0016 FFF7FEFF 		bl	CyHalt
 2478              	.L185:
1848:.\Generated_Source\PSoC4/CyLib.c **** 
1849:.\Generated_Source\PSoC4/CyLib.c ****     priority = (uint8) (CY_INT_PRIORITY_REG(number) >> CY_INT_PRIORITY_SHIFT(number));
 2479              		.loc 1 1849 0 is_stmt 1
 2480 001a FB1D     		add	r3, r7, #7
 2481 001c 1B78     		ldrb	r3, [r3]
 2482 001e 9B08     		lsr	r3, r3, #2
 2483 0020 DBB2     		uxtb	r3, r3
 2484 0022 9B00     		lsl	r3, r3, #2
 2485 0024 0C4A     		ldr	r2, .L187
 2486 0026 9446     		mov	ip, r2
 2487 0028 6344     		add	r3, r3, ip
 2488 002a 1B68     		ldr	r3, [r3]
 2489 002c FA1D     		add	r2, r7, #7
 2490 002e 1278     		ldrb	r2, [r2]
 2491 0030 0321     		mov	r1, #3
 2492 0032 0A40     		and	r2, r1
 2493 0034 D200     		lsl	r2, r2, #3
 2494 0036 0632     		add	r2, r2, #6
 2495 0038 D340     		lsr	r3, r3, r2
 2496 003a 1A1C     		mov	r2, r3
 2497 003c 0F23     		mov	r3, #15
 2498 003e FB18     		add	r3, r7, r3
 2499 0040 1A70     		strb	r2, [r3]
1850:.\Generated_Source\PSoC4/CyLib.c **** 
1851:.\Generated_Source\PSoC4/CyLib.c ****     return (priority & (uint8) CY_INT_PRIORITY_MASK);
 2500              		.loc 1 1851 0
 2501 0042 0F23     		mov	r3, #15
 2502 0044 FB18     		add	r3, r7, r3
 2503 0046 1B78     		ldrb	r3, [r3]
 2504 0048 0322     		mov	r2, #3
 2505 004a 1340     		and	r3, r2
 2506 004c DBB2     		uxtb	r3, r3
1852:.\Generated_Source\PSoC4/CyLib.c **** }
 2507              		.loc 1 1852 0
 2508 004e 181C     		mov	r0, r3
 2509 0050 BD46     		mov	sp, r7
 2510 0052 04B0     		add	sp, sp, #16
 2511              		@ sp needed
 2512 0054 80BD     		pop	{r7, pc}
 2513              	.L188:
 2514 0056 C046     		.align	2
 2515              	.L187:
 2516 0058 00E400E0 		.word	-536812544
 2517              		.cfi_endproc
 2518              	.LFE38:
 2519              		.size	CyIntGetPriority, .-CyIntGetPriority
 2520              		.section	.text.CyIntEnable,"ax",%progbits
 2521              		.align	2
 2522              		.global	CyIntEnable
 2523              		.code	16
 2524              		.thumb_func
 2525              		.type	CyIntEnable, %function
 2526              	CyIntEnable:
 2527              	.LFB39:
ARM GAS  C:\Users\Chuck\AppData\Local\Temp\ccRFe4cO.s 			page 78


1853:.\Generated_Source\PSoC4/CyLib.c **** 
1854:.\Generated_Source\PSoC4/CyLib.c **** 
1855:.\Generated_Source\PSoC4/CyLib.c **** /*******************************************************************************
1856:.\Generated_Source\PSoC4/CyLib.c **** * Function Name: CyIntEnable
1857:.\Generated_Source\PSoC4/CyLib.c **** ********************************************************************************
1858:.\Generated_Source\PSoC4/CyLib.c **** *
1859:.\Generated_Source\PSoC4/CyLib.c **** * Summary:
1860:.\Generated_Source\PSoC4/CyLib.c **** *  Enables the specified interrupt number.
1861:.\Generated_Source\PSoC4/CyLib.c **** *
1862:.\Generated_Source\PSoC4/CyLib.c **** * Parameters:
1863:.\Generated_Source\PSoC4/CyLib.c **** *  number: Valid range [0-31].  Interrupt number
1864:.\Generated_Source\PSoC4/CyLib.c **** *
1865:.\Generated_Source\PSoC4/CyLib.c **** * Return:
1866:.\Generated_Source\PSoC4/CyLib.c **** *  None
1867:.\Generated_Source\PSoC4/CyLib.c **** *
1868:.\Generated_Source\PSoC4/CyLib.c **** *******************************************************************************/
1869:.\Generated_Source\PSoC4/CyLib.c **** void CyIntEnable(uint8 number)
1870:.\Generated_Source\PSoC4/CyLib.c **** {
 2528              		.loc 1 1870 0
 2529              		.cfi_startproc
 2530 0000 80B5     		push	{r7, lr}
 2531              		.cfi_def_cfa_offset 8
 2532              		.cfi_offset 7, -8
 2533              		.cfi_offset 14, -4
 2534 0002 82B0     		sub	sp, sp, #8
 2535              		.cfi_def_cfa_offset 16
 2536 0004 00AF     		add	r7, sp, #0
 2537              		.cfi_def_cfa_register 7
 2538 0006 021C     		mov	r2, r0
 2539 0008 FB1D     		add	r3, r7, #7
 2540 000a 1A70     		strb	r2, [r3]
1871:.\Generated_Source\PSoC4/CyLib.c ****     CY_INT_ENABLE_REG = ((uint32) 0x01u << (CY_INT_ENABLE_RANGE_MASK & number));
 2541              		.loc 1 1871 0
 2542 000c 054B     		ldr	r3, .L190
 2543 000e FA1D     		add	r2, r7, #7
 2544 0010 1278     		ldrb	r2, [r2]
 2545 0012 1F21     		mov	r1, #31
 2546 0014 0A40     		and	r2, r1
 2547 0016 0121     		mov	r1, #1
 2548 0018 9140     		lsl	r1, r1, r2
 2549 001a 0A1C     		mov	r2, r1
 2550 001c 1A60     		str	r2, [r3]
1872:.\Generated_Source\PSoC4/CyLib.c **** }
 2551              		.loc 1 1872 0
 2552 001e BD46     		mov	sp, r7
 2553 0020 02B0     		add	sp, sp, #8
 2554              		@ sp needed
 2555 0022 80BD     		pop	{r7, pc}
 2556              	.L191:
 2557              		.align	2
 2558              	.L190:
 2559 0024 00E100E0 		.word	-536813312
 2560              		.cfi_endproc
 2561              	.LFE39:
 2562              		.size	CyIntEnable, .-CyIntEnable
 2563              		.section	.text.CyIntGetState,"ax",%progbits
 2564              		.align	2
ARM GAS  C:\Users\Chuck\AppData\Local\Temp\ccRFe4cO.s 			page 79


 2565              		.global	CyIntGetState
 2566              		.code	16
 2567              		.thumb_func
 2568              		.type	CyIntGetState, %function
 2569              	CyIntGetState:
 2570              	.LFB40:
1873:.\Generated_Source\PSoC4/CyLib.c **** 
1874:.\Generated_Source\PSoC4/CyLib.c **** 
1875:.\Generated_Source\PSoC4/CyLib.c **** /*******************************************************************************
1876:.\Generated_Source\PSoC4/CyLib.c **** * Function Name: CyIntGetState
1877:.\Generated_Source\PSoC4/CyLib.c **** ********************************************************************************
1878:.\Generated_Source\PSoC4/CyLib.c **** *
1879:.\Generated_Source\PSoC4/CyLib.c **** * Summary:
1880:.\Generated_Source\PSoC4/CyLib.c **** *  Gets the enable state of the specified interrupt number.
1881:.\Generated_Source\PSoC4/CyLib.c **** *
1882:.\Generated_Source\PSoC4/CyLib.c **** * Parameters:
1883:.\Generated_Source\PSoC4/CyLib.c **** *  number: Valid range [0-31].  Interrupt number.
1884:.\Generated_Source\PSoC4/CyLib.c **** *
1885:.\Generated_Source\PSoC4/CyLib.c **** * Return:
1886:.\Generated_Source\PSoC4/CyLib.c **** *  Enable status: 1 if enabled, 0 if disabled
1887:.\Generated_Source\PSoC4/CyLib.c **** *
1888:.\Generated_Source\PSoC4/CyLib.c **** *******************************************************************************/
1889:.\Generated_Source\PSoC4/CyLib.c **** uint8 CyIntGetState(uint8 number)
1890:.\Generated_Source\PSoC4/CyLib.c **** {
 2571              		.loc 1 1890 0
 2572              		.cfi_startproc
 2573 0000 80B5     		push	{r7, lr}
 2574              		.cfi_def_cfa_offset 8
 2575              		.cfi_offset 7, -8
 2576              		.cfi_offset 14, -4
 2577 0002 82B0     		sub	sp, sp, #8
 2578              		.cfi_def_cfa_offset 16
 2579 0004 00AF     		add	r7, sp, #0
 2580              		.cfi_def_cfa_register 7
 2581 0006 021C     		mov	r2, r0
 2582 0008 FB1D     		add	r3, r7, #7
 2583 000a 1A70     		strb	r2, [r3]
1891:.\Generated_Source\PSoC4/CyLib.c ****     /* Get state of interrupt. */
1892:.\Generated_Source\PSoC4/CyLib.c ****     return ((0u != (CY_INT_ENABLE_REG & ((uint32) 0x01u << (CY_INT_ENABLE_RANGE_MASK & number)))) ?
 2584              		.loc 1 1892 0
 2585 000c 074B     		ldr	r3, .L194
 2586 000e 1A68     		ldr	r2, [r3]
 2587 0010 FB1D     		add	r3, r7, #7
 2588 0012 1B78     		ldrb	r3, [r3]
 2589 0014 1F21     		mov	r1, #31
 2590 0016 0B40     		and	r3, r1
 2591 0018 DA40     		lsr	r2, r2, r3
 2592 001a 131C     		mov	r3, r2
 2593 001c DBB2     		uxtb	r3, r3
 2594 001e 0122     		mov	r2, #1
 2595 0020 1340     		and	r3, r2
 2596 0022 DBB2     		uxtb	r3, r3
1893:.\Generated_Source\PSoC4/CyLib.c **** }
 2597              		.loc 1 1893 0
 2598 0024 181C     		mov	r0, r3
 2599 0026 BD46     		mov	sp, r7
 2600 0028 02B0     		add	sp, sp, #8
ARM GAS  C:\Users\Chuck\AppData\Local\Temp\ccRFe4cO.s 			page 80


 2601              		@ sp needed
 2602 002a 80BD     		pop	{r7, pc}
 2603              	.L195:
 2604              		.align	2
 2605              	.L194:
 2606 002c 00E100E0 		.word	-536813312
 2607              		.cfi_endproc
 2608              	.LFE40:
 2609              		.size	CyIntGetState, .-CyIntGetState
 2610              		.section	.text.CyIntDisable,"ax",%progbits
 2611              		.align	2
 2612              		.global	CyIntDisable
 2613              		.code	16
 2614              		.thumb_func
 2615              		.type	CyIntDisable, %function
 2616              	CyIntDisable:
 2617              	.LFB41:
1894:.\Generated_Source\PSoC4/CyLib.c **** 
1895:.\Generated_Source\PSoC4/CyLib.c **** 
1896:.\Generated_Source\PSoC4/CyLib.c **** /*******************************************************************************
1897:.\Generated_Source\PSoC4/CyLib.c **** * Function Name: CyIntDisable
1898:.\Generated_Source\PSoC4/CyLib.c **** ********************************************************************************
1899:.\Generated_Source\PSoC4/CyLib.c **** *
1900:.\Generated_Source\PSoC4/CyLib.c **** * Summary:
1901:.\Generated_Source\PSoC4/CyLib.c **** *   Disables the specified interrupt number.
1902:.\Generated_Source\PSoC4/CyLib.c **** *
1903:.\Generated_Source\PSoC4/CyLib.c **** * Parameters:
1904:.\Generated_Source\PSoC4/CyLib.c **** *   number: Valid range [0-31].  Interrupt number.
1905:.\Generated_Source\PSoC4/CyLib.c **** *
1906:.\Generated_Source\PSoC4/CyLib.c **** * Return:
1907:.\Generated_Source\PSoC4/CyLib.c **** *  None
1908:.\Generated_Source\PSoC4/CyLib.c **** *
1909:.\Generated_Source\PSoC4/CyLib.c **** *******************************************************************************/
1910:.\Generated_Source\PSoC4/CyLib.c **** void CyIntDisable(uint8 number)
1911:.\Generated_Source\PSoC4/CyLib.c **** {
 2618              		.loc 1 1911 0
 2619              		.cfi_startproc
 2620 0000 80B5     		push	{r7, lr}
 2621              		.cfi_def_cfa_offset 8
 2622              		.cfi_offset 7, -8
 2623              		.cfi_offset 14, -4
 2624 0002 82B0     		sub	sp, sp, #8
 2625              		.cfi_def_cfa_offset 16
 2626 0004 00AF     		add	r7, sp, #0
 2627              		.cfi_def_cfa_register 7
 2628 0006 021C     		mov	r2, r0
 2629 0008 FB1D     		add	r3, r7, #7
 2630 000a 1A70     		strb	r2, [r3]
1912:.\Generated_Source\PSoC4/CyLib.c ****     CY_INT_CLEAR_REG = ((uint32) 0x01u << (CY_INT_ENABLE_RANGE_MASK & number));
 2631              		.loc 1 1912 0
 2632 000c 054B     		ldr	r3, .L197
 2633 000e FA1D     		add	r2, r7, #7
 2634 0010 1278     		ldrb	r2, [r2]
 2635 0012 1F21     		mov	r1, #31
 2636 0014 0A40     		and	r2, r1
 2637 0016 0121     		mov	r1, #1
 2638 0018 9140     		lsl	r1, r1, r2
ARM GAS  C:\Users\Chuck\AppData\Local\Temp\ccRFe4cO.s 			page 81


 2639 001a 0A1C     		mov	r2, r1
 2640 001c 1A60     		str	r2, [r3]
1913:.\Generated_Source\PSoC4/CyLib.c **** }
 2641              		.loc 1 1913 0
 2642 001e BD46     		mov	sp, r7
 2643 0020 02B0     		add	sp, sp, #8
 2644              		@ sp needed
 2645 0022 80BD     		pop	{r7, pc}
 2646              	.L198:
 2647              		.align	2
 2648              	.L197:
 2649 0024 80E100E0 		.word	-536813184
 2650              		.cfi_endproc
 2651              	.LFE41:
 2652              		.size	CyIntDisable, .-CyIntDisable
 2653              		.section	.text.CyIntSetPending,"ax",%progbits
 2654              		.align	2
 2655              		.global	CyIntSetPending
 2656              		.code	16
 2657              		.thumb_func
 2658              		.type	CyIntSetPending, %function
 2659              	CyIntSetPending:
 2660              	.LFB42:
1914:.\Generated_Source\PSoC4/CyLib.c **** 
1915:.\Generated_Source\PSoC4/CyLib.c **** /*******************************************************************************
1916:.\Generated_Source\PSoC4/CyLib.c **** * Function Name: CyIntSetPending
1917:.\Generated_Source\PSoC4/CyLib.c **** ********************************************************************************
1918:.\Generated_Source\PSoC4/CyLib.c **** *
1919:.\Generated_Source\PSoC4/CyLib.c **** * Summary:
1920:.\Generated_Source\PSoC4/CyLib.c **** *  Forces the specified interrupt number to be pending.
1921:.\Generated_Source\PSoC4/CyLib.c **** *
1922:.\Generated_Source\PSoC4/CyLib.c **** * Parameters:
1923:.\Generated_Source\PSoC4/CyLib.c **** *  number: Valid range [0-31].  Interrupt number.
1924:.\Generated_Source\PSoC4/CyLib.c **** *
1925:.\Generated_Source\PSoC4/CyLib.c **** * Return:
1926:.\Generated_Source\PSoC4/CyLib.c **** *  None
1927:.\Generated_Source\PSoC4/CyLib.c **** *
1928:.\Generated_Source\PSoC4/CyLib.c **** *******************************************************************************/
1929:.\Generated_Source\PSoC4/CyLib.c **** void CyIntSetPending(uint8 number)
1930:.\Generated_Source\PSoC4/CyLib.c **** {
 2661              		.loc 1 1930 0
 2662              		.cfi_startproc
 2663 0000 80B5     		push	{r7, lr}
 2664              		.cfi_def_cfa_offset 8
 2665              		.cfi_offset 7, -8
 2666              		.cfi_offset 14, -4
 2667 0002 82B0     		sub	sp, sp, #8
 2668              		.cfi_def_cfa_offset 16
 2669 0004 00AF     		add	r7, sp, #0
 2670              		.cfi_def_cfa_register 7
 2671 0006 021C     		mov	r2, r0
 2672 0008 FB1D     		add	r3, r7, #7
 2673 000a 1A70     		strb	r2, [r3]
1931:.\Generated_Source\PSoC4/CyLib.c ****     CY_INT_SET_PEND_REG = ((uint32) 0x01u << (CY_INT_ENABLE_RANGE_MASK & number));
 2674              		.loc 1 1931 0
 2675 000c 054B     		ldr	r3, .L200
 2676 000e FA1D     		add	r2, r7, #7
ARM GAS  C:\Users\Chuck\AppData\Local\Temp\ccRFe4cO.s 			page 82


 2677 0010 1278     		ldrb	r2, [r2]
 2678 0012 1F21     		mov	r1, #31
 2679 0014 0A40     		and	r2, r1
 2680 0016 0121     		mov	r1, #1
 2681 0018 9140     		lsl	r1, r1, r2
 2682 001a 0A1C     		mov	r2, r1
 2683 001c 1A60     		str	r2, [r3]
1932:.\Generated_Source\PSoC4/CyLib.c **** }
 2684              		.loc 1 1932 0
 2685 001e BD46     		mov	sp, r7
 2686 0020 02B0     		add	sp, sp, #8
 2687              		@ sp needed
 2688 0022 80BD     		pop	{r7, pc}
 2689              	.L201:
 2690              		.align	2
 2691              	.L200:
 2692 0024 00E200E0 		.word	-536813056
 2693              		.cfi_endproc
 2694              	.LFE42:
 2695              		.size	CyIntSetPending, .-CyIntSetPending
 2696              		.section	.text.CyIntClearPending,"ax",%progbits
 2697              		.align	2
 2698              		.global	CyIntClearPending
 2699              		.code	16
 2700              		.thumb_func
 2701              		.type	CyIntClearPending, %function
 2702              	CyIntClearPending:
 2703              	.LFB43:
1933:.\Generated_Source\PSoC4/CyLib.c **** 
1934:.\Generated_Source\PSoC4/CyLib.c **** 
1935:.\Generated_Source\PSoC4/CyLib.c **** /*******************************************************************************
1936:.\Generated_Source\PSoC4/CyLib.c **** * Function Name: CyIntClearPending
1937:.\Generated_Source\PSoC4/CyLib.c **** ********************************************************************************
1938:.\Generated_Source\PSoC4/CyLib.c **** *
1939:.\Generated_Source\PSoC4/CyLib.c **** * Summary:
1940:.\Generated_Source\PSoC4/CyLib.c **** *  Clears any pending interrupt for the specified interrupt number.
1941:.\Generated_Source\PSoC4/CyLib.c **** *
1942:.\Generated_Source\PSoC4/CyLib.c **** * Parameters:
1943:.\Generated_Source\PSoC4/CyLib.c **** *  number: Valid range [0-31].  Interrupt number.
1944:.\Generated_Source\PSoC4/CyLib.c **** *
1945:.\Generated_Source\PSoC4/CyLib.c **** * Return:
1946:.\Generated_Source\PSoC4/CyLib.c **** *  None
1947:.\Generated_Source\PSoC4/CyLib.c **** *
1948:.\Generated_Source\PSoC4/CyLib.c **** *******************************************************************************/
1949:.\Generated_Source\PSoC4/CyLib.c **** void CyIntClearPending(uint8 number)
1950:.\Generated_Source\PSoC4/CyLib.c **** {
 2704              		.loc 1 1950 0
 2705              		.cfi_startproc
 2706 0000 80B5     		push	{r7, lr}
 2707              		.cfi_def_cfa_offset 8
 2708              		.cfi_offset 7, -8
 2709              		.cfi_offset 14, -4
 2710 0002 82B0     		sub	sp, sp, #8
 2711              		.cfi_def_cfa_offset 16
 2712 0004 00AF     		add	r7, sp, #0
 2713              		.cfi_def_cfa_register 7
 2714 0006 021C     		mov	r2, r0
ARM GAS  C:\Users\Chuck\AppData\Local\Temp\ccRFe4cO.s 			page 83


 2715 0008 FB1D     		add	r3, r7, #7
 2716 000a 1A70     		strb	r2, [r3]
1951:.\Generated_Source\PSoC4/CyLib.c ****     CY_INT_CLR_PEND_REG = ((uint32) 0x01u << (CY_INT_ENABLE_RANGE_MASK & number));
 2717              		.loc 1 1951 0
 2718 000c 054B     		ldr	r3, .L203
 2719 000e FA1D     		add	r2, r7, #7
 2720 0010 1278     		ldrb	r2, [r2]
 2721 0012 1F21     		mov	r1, #31
 2722 0014 0A40     		and	r2, r1
 2723 0016 0121     		mov	r1, #1
 2724 0018 9140     		lsl	r1, r1, r2
 2725 001a 0A1C     		mov	r2, r1
 2726 001c 1A60     		str	r2, [r3]
1952:.\Generated_Source\PSoC4/CyLib.c **** }
 2727              		.loc 1 1952 0
 2728 001e BD46     		mov	sp, r7
 2729 0020 02B0     		add	sp, sp, #8
 2730              		@ sp needed
 2731 0022 80BD     		pop	{r7, pc}
 2732              	.L204:
 2733              		.align	2
 2734              	.L203:
 2735 0024 80E200E0 		.word	-536812928
 2736              		.cfi_endproc
 2737              	.LFE43:
 2738              		.size	CyIntClearPending, .-CyIntClearPending
 2739              		.section	.text.CyHalt,"ax",%progbits
 2740              		.align	2
 2741              		.global	CyHalt
 2742              		.code	16
 2743              		.thumb_func
 2744              		.type	CyHalt, %function
 2745              	CyHalt:
 2746              	.LFB44:
1953:.\Generated_Source\PSoC4/CyLib.c **** 
1954:.\Generated_Source\PSoC4/CyLib.c **** 
1955:.\Generated_Source\PSoC4/CyLib.c **** /*******************************************************************************
1956:.\Generated_Source\PSoC4/CyLib.c **** * Function Name: CyHalt
1957:.\Generated_Source\PSoC4/CyLib.c **** ********************************************************************************
1958:.\Generated_Source\PSoC4/CyLib.c **** *
1959:.\Generated_Source\PSoC4/CyLib.c **** * Summary:
1960:.\Generated_Source\PSoC4/CyLib.c **** *  Halts the CPU.
1961:.\Generated_Source\PSoC4/CyLib.c **** *
1962:.\Generated_Source\PSoC4/CyLib.c **** * Parameters:
1963:.\Generated_Source\PSoC4/CyLib.c **** *  reason: Value to be used during debugging.
1964:.\Generated_Source\PSoC4/CyLib.c **** *
1965:.\Generated_Source\PSoC4/CyLib.c **** * Return:
1966:.\Generated_Source\PSoC4/CyLib.c **** *  None
1967:.\Generated_Source\PSoC4/CyLib.c **** *
1968:.\Generated_Source\PSoC4/CyLib.c **** *******************************************************************************/
1969:.\Generated_Source\PSoC4/CyLib.c **** void CyHalt(uint8 reason)
1970:.\Generated_Source\PSoC4/CyLib.c **** {
 2747              		.loc 1 1970 0
 2748              		.cfi_startproc
 2749 0000 80B5     		push	{r7, lr}
 2750              		.cfi_def_cfa_offset 8
 2751              		.cfi_offset 7, -8
ARM GAS  C:\Users\Chuck\AppData\Local\Temp\ccRFe4cO.s 			page 84


 2752              		.cfi_offset 14, -4
 2753 0002 82B0     		sub	sp, sp, #8
 2754              		.cfi_def_cfa_offset 16
 2755 0004 00AF     		add	r7, sp, #0
 2756              		.cfi_def_cfa_register 7
 2757 0006 021C     		mov	r2, r0
 2758 0008 FB1D     		add	r3, r7, #7
 2759 000a 1A70     		strb	r2, [r3]
1971:.\Generated_Source\PSoC4/CyLib.c ****     if(0u != reason)
1972:.\Generated_Source\PSoC4/CyLib.c ****     {
1973:.\Generated_Source\PSoC4/CyLib.c ****         /* To remove unreferenced local variable warning */
1974:.\Generated_Source\PSoC4/CyLib.c ****     }
1975:.\Generated_Source\PSoC4/CyLib.c **** 
1976:.\Generated_Source\PSoC4/CyLib.c ****     #if defined (__ARMCC_VERSION)
1977:.\Generated_Source\PSoC4/CyLib.c ****         __breakpoint(0x0);
1978:.\Generated_Source\PSoC4/CyLib.c ****     #elif defined(__GNUC__) || defined (__ICCARM__)
1979:.\Generated_Source\PSoC4/CyLib.c ****         __asm("    bkpt    1");
 2760              		.loc 1 1979 0
 2761              	@ 1979 ".\Generated_Source\PSoC4\CyLib.c" 1
 2762 000c 01BE     		    bkpt    1
 2763              	@ 0 "" 2
1980:.\Generated_Source\PSoC4/CyLib.c ****     #elif defined(__C51__)
1981:.\Generated_Source\PSoC4/CyLib.c ****         CYDEV_HALT_CPU;
1982:.\Generated_Source\PSoC4/CyLib.c ****     #endif  /* (__ARMCC_VERSION) */
1983:.\Generated_Source\PSoC4/CyLib.c **** }
 2764              		.loc 1 1983 0
 2765              		.code	16
 2766 000e BD46     		mov	sp, r7
 2767 0010 02B0     		add	sp, sp, #8
 2768              		@ sp needed
 2769 0012 80BD     		pop	{r7, pc}
 2770              		.cfi_endproc
 2771              	.LFE44:
 2772              		.size	CyHalt, .-CyHalt
 2773              		.section	.text.CySoftwareReset,"ax",%progbits
 2774              		.align	2
 2775              		.global	CySoftwareReset
 2776              		.code	16
 2777              		.thumb_func
 2778              		.type	CySoftwareReset, %function
 2779              	CySoftwareReset:
 2780              	.LFB45:
1984:.\Generated_Source\PSoC4/CyLib.c **** 
1985:.\Generated_Source\PSoC4/CyLib.c **** 
1986:.\Generated_Source\PSoC4/CyLib.c **** /*******************************************************************************
1987:.\Generated_Source\PSoC4/CyLib.c **** * Function Name: CySoftwareReset
1988:.\Generated_Source\PSoC4/CyLib.c **** ********************************************************************************
1989:.\Generated_Source\PSoC4/CyLib.c **** *
1990:.\Generated_Source\PSoC4/CyLib.c **** * Summary:
1991:.\Generated_Source\PSoC4/CyLib.c **** *  Forces a software reset of the device.
1992:.\Generated_Source\PSoC4/CyLib.c **** *
1993:.\Generated_Source\PSoC4/CyLib.c **** * Parameters:
1994:.\Generated_Source\PSoC4/CyLib.c **** *  None
1995:.\Generated_Source\PSoC4/CyLib.c **** *
1996:.\Generated_Source\PSoC4/CyLib.c **** * Return:
1997:.\Generated_Source\PSoC4/CyLib.c **** *  None
1998:.\Generated_Source\PSoC4/CyLib.c **** *
ARM GAS  C:\Users\Chuck\AppData\Local\Temp\ccRFe4cO.s 			page 85


1999:.\Generated_Source\PSoC4/CyLib.c **** *******************************************************************************/
2000:.\Generated_Source\PSoC4/CyLib.c **** void CySoftwareReset(void)
2001:.\Generated_Source\PSoC4/CyLib.c **** {
 2781              		.loc 1 2001 0
 2782              		.cfi_startproc
 2783 0000 80B5     		push	{r7, lr}
 2784              		.cfi_def_cfa_offset 8
 2785              		.cfi_offset 7, -8
 2786              		.cfi_offset 14, -4
 2787 0002 00AF     		add	r7, sp, #0
 2788              		.cfi_def_cfa_register 7
2002:.\Generated_Source\PSoC4/CyLib.c ****     /***************************************************************************
2003:.\Generated_Source\PSoC4/CyLib.c ****     * Setting the system reset request bit. The vector key value must be written
2004:.\Generated_Source\PSoC4/CyLib.c ****     * to the register, otherwise the register write is unpredictable.
2005:.\Generated_Source\PSoC4/CyLib.c ****     ***************************************************************************/
2006:.\Generated_Source\PSoC4/CyLib.c ****     CY_SYS_CM0_AIRCR_REG = (CY_SYS_CM0_AIRCR_REG & (uint32)(~CY_SYS_CM0_AIRCR_VECTKEY_MASK)) |
 2789              		.loc 1 2006 0
 2790 0004 044B     		ldr	r3, .L207
 2791 0006 044A     		ldr	r2, .L207
 2792 0008 1268     		ldr	r2, [r2]
 2793 000a 1204     		lsl	r2, r2, #16
 2794 000c 120C     		lsr	r2, r2, #16
2007:.\Generated_Source\PSoC4/CyLib.c ****                             CY_SYS_CM0_AIRCR_VECTKEY | CY_SYS_CM0_AIRCR_SYSRESETREQ;
 2795              		.loc 1 2007 0
 2796 000e 0349     		ldr	r1, .L207+4
 2797 0010 0A43     		orr	r2, r1
2006:.\Generated_Source\PSoC4/CyLib.c ****                             CY_SYS_CM0_AIRCR_VECTKEY | CY_SYS_CM0_AIRCR_SYSRESETREQ;
 2798              		.loc 1 2006 0
 2799 0012 1A60     		str	r2, [r3]
2008:.\Generated_Source\PSoC4/CyLib.c **** }
 2800              		.loc 1 2008 0
 2801 0014 BD46     		mov	sp, r7
 2802              		@ sp needed
 2803 0016 80BD     		pop	{r7, pc}
 2804              	.L208:
 2805              		.align	2
 2806              	.L207:
 2807 0018 0CED00E0 		.word	-536810228
 2808 001c 0400FA05 		.word	100270084
 2809              		.cfi_endproc
 2810              	.LFE45:
 2811              		.size	CySoftwareReset, .-CySoftwareReset
 2812              		.section	.text.CyDelay,"ax",%progbits
 2813              		.align	2
 2814              		.global	CyDelay
 2815              		.code	16
 2816              		.thumb_func
 2817              		.type	CyDelay, %function
 2818              	CyDelay:
 2819              	.LFB46:
2009:.\Generated_Source\PSoC4/CyLib.c **** 
2010:.\Generated_Source\PSoC4/CyLib.c **** 
2011:.\Generated_Source\PSoC4/CyLib.c **** /*******************************************************************************
2012:.\Generated_Source\PSoC4/CyLib.c **** * Function Name: CyDelay
2013:.\Generated_Source\PSoC4/CyLib.c **** ********************************************************************************
2014:.\Generated_Source\PSoC4/CyLib.c **** *
2015:.\Generated_Source\PSoC4/CyLib.c **** * Summary:
ARM GAS  C:\Users\Chuck\AppData\Local\Temp\ccRFe4cO.s 			page 86


2016:.\Generated_Source\PSoC4/CyLib.c **** *  Blocks for milliseconds.
2017:.\Generated_Source\PSoC4/CyLib.c **** *
2018:.\Generated_Source\PSoC4/CyLib.c **** * Parameters:
2019:.\Generated_Source\PSoC4/CyLib.c **** *  milliseconds: number of milliseconds to delay.
2020:.\Generated_Source\PSoC4/CyLib.c **** *
2021:.\Generated_Source\PSoC4/CyLib.c **** * Return:
2022:.\Generated_Source\PSoC4/CyLib.c **** *  None
2023:.\Generated_Source\PSoC4/CyLib.c **** *
2024:.\Generated_Source\PSoC4/CyLib.c **** *******************************************************************************/
2025:.\Generated_Source\PSoC4/CyLib.c **** void CyDelay(uint32 milliseconds)
2026:.\Generated_Source\PSoC4/CyLib.c **** {
 2820              		.loc 1 2026 0
 2821              		.cfi_startproc
 2822 0000 80B5     		push	{r7, lr}
 2823              		.cfi_def_cfa_offset 8
 2824              		.cfi_offset 7, -8
 2825              		.cfi_offset 14, -4
 2826 0002 82B0     		sub	sp, sp, #8
 2827              		.cfi_def_cfa_offset 16
 2828 0004 00AF     		add	r7, sp, #0
 2829              		.cfi_def_cfa_register 7
 2830 0006 7860     		str	r0, [r7, #4]
2027:.\Generated_Source\PSoC4/CyLib.c ****     while (milliseconds > CY_DELAY_MS_OVERFLOW)
 2831              		.loc 1 2027 0
 2832 0008 09E0     		b	.L210
 2833              	.L211:
2028:.\Generated_Source\PSoC4/CyLib.c ****     {
2029:.\Generated_Source\PSoC4/CyLib.c ****         /* This loop prevents overflow.
2030:.\Generated_Source\PSoC4/CyLib.c ****          * At 100MHz, milliseconds * cydelayFreqKhz overflows at about 42 seconds
2031:.\Generated_Source\PSoC4/CyLib.c ****          */
2032:.\Generated_Source\PSoC4/CyLib.c ****         CyDelayCycles(cydelay32kMs);
 2834              		.loc 1 2032 0
 2835 000a 0C4B     		ldr	r3, .L212
 2836 000c 1B68     		ldr	r3, [r3]
 2837 000e 181C     		mov	r0, r3
 2838 0010 FFF7FEFF 		bl	CyDelayCycles
2033:.\Generated_Source\PSoC4/CyLib.c ****         milliseconds -= CY_DELAY_MS_OVERFLOW;
 2839              		.loc 1 2033 0
 2840 0014 7B68     		ldr	r3, [r7, #4]
 2841 0016 0A4A     		ldr	r2, .L212+4
 2842 0018 9446     		mov	ip, r2
 2843 001a 6344     		add	r3, r3, ip
 2844 001c 7B60     		str	r3, [r7, #4]
 2845              	.L210:
2027:.\Generated_Source\PSoC4/CyLib.c ****     while (milliseconds > CY_DELAY_MS_OVERFLOW)
 2846              		.loc 1 2027 0
 2847 001e 7A68     		ldr	r2, [r7, #4]
 2848 0020 8023     		mov	r3, #128
 2849 0022 1B02     		lsl	r3, r3, #8
 2850 0024 9A42     		cmp	r2, r3
 2851 0026 F0D8     		bhi	.L211
2034:.\Generated_Source\PSoC4/CyLib.c ****     }
2035:.\Generated_Source\PSoC4/CyLib.c **** 
2036:.\Generated_Source\PSoC4/CyLib.c ****     CyDelayCycles(milliseconds * cydelayFreqKhz);
 2852              		.loc 1 2036 0
 2853 0028 064B     		ldr	r3, .L212+8
 2854 002a 1B68     		ldr	r3, [r3]
ARM GAS  C:\Users\Chuck\AppData\Local\Temp\ccRFe4cO.s 			page 87


 2855 002c 7A68     		ldr	r2, [r7, #4]
 2856 002e 5343     		mul	r3, r2
 2857 0030 181C     		mov	r0, r3
 2858 0032 FFF7FEFF 		bl	CyDelayCycles
2037:.\Generated_Source\PSoC4/CyLib.c **** }
 2859              		.loc 1 2037 0
 2860 0036 BD46     		mov	sp, r7
 2861 0038 02B0     		add	sp, sp, #8
 2862              		@ sp needed
 2863 003a 80BD     		pop	{r7, pc}
 2864              	.L213:
 2865              		.align	2
 2866              	.L212:
 2867 003c 00000000 		.word	cydelay32kMs
 2868 0040 0080FFFF 		.word	-32768
 2869 0044 00000000 		.word	cydelayFreqKhz
 2870              		.cfi_endproc
 2871              	.LFE46:
 2872              		.size	CyDelay, .-CyDelay
 2873              		.section	.text.CyDelayUs,"ax",%progbits
 2874              		.align	2
 2875              		.global	CyDelayUs
 2876              		.code	16
 2877              		.thumb_func
 2878              		.type	CyDelayUs, %function
 2879              	CyDelayUs:
 2880              	.LFB47:
2038:.\Generated_Source\PSoC4/CyLib.c **** 
2039:.\Generated_Source\PSoC4/CyLib.c **** 
2040:.\Generated_Source\PSoC4/CyLib.c **** /*******************************************************************************
2041:.\Generated_Source\PSoC4/CyLib.c **** * Function Name: CyDelayUs
2042:.\Generated_Source\PSoC4/CyLib.c **** ********************************************************************************
2043:.\Generated_Source\PSoC4/CyLib.c **** * Summary:
2044:.\Generated_Source\PSoC4/CyLib.c **** *  Blocks for microseconds.
2045:.\Generated_Source\PSoC4/CyLib.c **** *
2046:.\Generated_Source\PSoC4/CyLib.c **** * Parameters:
2047:.\Generated_Source\PSoC4/CyLib.c **** *  microseconds: number of microseconds to delay.
2048:.\Generated_Source\PSoC4/CyLib.c **** *
2049:.\Generated_Source\PSoC4/CyLib.c **** * Return:
2050:.\Generated_Source\PSoC4/CyLib.c **** *  None
2051:.\Generated_Source\PSoC4/CyLib.c **** *
2052:.\Generated_Source\PSoC4/CyLib.c **** *******************************************************************************/
2053:.\Generated_Source\PSoC4/CyLib.c **** void CyDelayUs(uint16 microseconds)
2054:.\Generated_Source\PSoC4/CyLib.c **** {
 2881              		.loc 1 2054 0
 2882              		.cfi_startproc
 2883 0000 80B5     		push	{r7, lr}
 2884              		.cfi_def_cfa_offset 8
 2885              		.cfi_offset 7, -8
 2886              		.cfi_offset 14, -4
 2887 0002 82B0     		sub	sp, sp, #8
 2888              		.cfi_def_cfa_offset 16
 2889 0004 00AF     		add	r7, sp, #0
 2890              		.cfi_def_cfa_register 7
 2891 0006 021C     		mov	r2, r0
 2892 0008 BB1D     		add	r3, r7, #6
 2893 000a 1A80     		strh	r2, [r3]
ARM GAS  C:\Users\Chuck\AppData\Local\Temp\ccRFe4cO.s 			page 88


2055:.\Generated_Source\PSoC4/CyLib.c ****     CyDelayCycles((uint32)microseconds * cydelayFreqMhz);
 2894              		.loc 1 2055 0
 2895 000c BB1D     		add	r3, r7, #6
 2896 000e 1B88     		ldrh	r3, [r3]
 2897 0010 044A     		ldr	r2, .L215
 2898 0012 1278     		ldrb	r2, [r2]
 2899 0014 5343     		mul	r3, r2
 2900 0016 181C     		mov	r0, r3
 2901 0018 FFF7FEFF 		bl	CyDelayCycles
2056:.\Generated_Source\PSoC4/CyLib.c **** }
 2902              		.loc 1 2056 0
 2903 001c BD46     		mov	sp, r7
 2904 001e 02B0     		add	sp, sp, #8
 2905              		@ sp needed
 2906 0020 80BD     		pop	{r7, pc}
 2907              	.L216:
 2908 0022 C046     		.align	2
 2909              	.L215:
 2910 0024 00000000 		.word	cydelayFreqMhz
 2911              		.cfi_endproc
 2912              	.LFE47:
 2913              		.size	CyDelayUs, .-CyDelayUs
 2914              		.global	__aeabi_uidiv
 2915              		.section	.text.CyDelayFreq,"ax",%progbits
 2916              		.align	2
 2917              		.global	CyDelayFreq
 2918              		.code	16
 2919              		.thumb_func
 2920              		.type	CyDelayFreq, %function
 2921              	CyDelayFreq:
 2922              	.LFB48:
2057:.\Generated_Source\PSoC4/CyLib.c **** 
2058:.\Generated_Source\PSoC4/CyLib.c **** 
2059:.\Generated_Source\PSoC4/CyLib.c **** /*******************************************************************************
2060:.\Generated_Source\PSoC4/CyLib.c **** * Function Name: CyDelayFreq
2061:.\Generated_Source\PSoC4/CyLib.c **** ********************************************************************************
2062:.\Generated_Source\PSoC4/CyLib.c **** * Summary:
2063:.\Generated_Source\PSoC4/CyLib.c **** *  Sets clock frequency for CyDelay.
2064:.\Generated_Source\PSoC4/CyLib.c **** *
2065:.\Generated_Source\PSoC4/CyLib.c **** * Parameters:
2066:.\Generated_Source\PSoC4/CyLib.c **** *  freq: Frequency of bus clock in Hertz.
2067:.\Generated_Source\PSoC4/CyLib.c **** *
2068:.\Generated_Source\PSoC4/CyLib.c **** * Return:
2069:.\Generated_Source\PSoC4/CyLib.c **** *  None
2070:.\Generated_Source\PSoC4/CyLib.c **** *
2071:.\Generated_Source\PSoC4/CyLib.c **** *******************************************************************************/
2072:.\Generated_Source\PSoC4/CyLib.c **** void CyDelayFreq(uint32 freq)
2073:.\Generated_Source\PSoC4/CyLib.c **** {
 2923              		.loc 1 2073 0
 2924              		.cfi_startproc
 2925 0000 80B5     		push	{r7, lr}
 2926              		.cfi_def_cfa_offset 8
 2927              		.cfi_offset 7, -8
 2928              		.cfi_offset 14, -4
 2929 0002 82B0     		sub	sp, sp, #8
 2930              		.cfi_def_cfa_offset 16
 2931 0004 00AF     		add	r7, sp, #0
ARM GAS  C:\Users\Chuck\AppData\Local\Temp\ccRFe4cO.s 			page 89


 2932              		.cfi_def_cfa_register 7
 2933 0006 7860     		str	r0, [r7, #4]
2074:.\Generated_Source\PSoC4/CyLib.c ****     if (freq != 0u)
 2934              		.loc 1 2074 0
 2935 0008 7B68     		ldr	r3, [r7, #4]
 2936 000a 002B     		cmp	r3, #0
 2937 000c 03D0     		beq	.L218
2075:.\Generated_Source\PSoC4/CyLib.c ****     {
2076:.\Generated_Source\PSoC4/CyLib.c ****         cydelayFreqHz = freq;
 2938              		.loc 1 2076 0
 2939 000e 154B     		ldr	r3, .L220
 2940 0010 7A68     		ldr	r2, [r7, #4]
 2941 0012 1A60     		str	r2, [r3]
 2942 0014 02E0     		b	.L219
 2943              	.L218:
2077:.\Generated_Source\PSoC4/CyLib.c ****     }
2078:.\Generated_Source\PSoC4/CyLib.c ****     else
2079:.\Generated_Source\PSoC4/CyLib.c ****     {
2080:.\Generated_Source\PSoC4/CyLib.c ****         cydelayFreqHz = CYDEV_BCLK__SYSCLK__HZ;
 2944              		.loc 1 2080 0
 2945 0016 134B     		ldr	r3, .L220
 2946 0018 134A     		ldr	r2, .L220+4
 2947 001a 1A60     		str	r2, [r3]
 2948              	.L219:
2081:.\Generated_Source\PSoC4/CyLib.c ****     }
2082:.\Generated_Source\PSoC4/CyLib.c **** 
2083:.\Generated_Source\PSoC4/CyLib.c ****     cydelayFreqMhz = (uint8)((cydelayFreqHz + CY_DELAY_1M_MINUS_1_THRESHOLD) / CY_DELAY_1M_THRESHOL
 2949              		.loc 1 2083 0
 2950 001c 114B     		ldr	r3, .L220
 2951 001e 1B68     		ldr	r3, [r3]
 2952 0020 124A     		ldr	r2, .L220+8
 2953 0022 9446     		mov	ip, r2
 2954 0024 6344     		add	r3, r3, ip
 2955 0026 181C     		mov	r0, r3
 2956 0028 1149     		ldr	r1, .L220+12
 2957 002a FFF7FEFF 		bl	__aeabi_uidiv
 2958 002e 031C     		mov	r3, r0
 2959 0030 DAB2     		uxtb	r2, r3
 2960 0032 104B     		ldr	r3, .L220+16
 2961 0034 1A70     		strb	r2, [r3]
2084:.\Generated_Source\PSoC4/CyLib.c ****     cydelayFreqKhz = (cydelayFreqHz + CY_DELAY_1K_MINUS_1_THRESHOLD) / CY_DELAY_1K_THRESHOLD;
 2962              		.loc 1 2084 0
 2963 0036 0B4B     		ldr	r3, .L220
 2964 0038 1B68     		ldr	r3, [r3]
 2965 003a 0F4A     		ldr	r2, .L220+20
 2966 003c 9446     		mov	ip, r2
 2967 003e 6344     		add	r3, r3, ip
 2968 0040 181C     		mov	r0, r3
 2969 0042 FA23     		mov	r3, #250
 2970 0044 9900     		lsl	r1, r3, #2
 2971 0046 FFF7FEFF 		bl	__aeabi_uidiv
 2972 004a 031C     		mov	r3, r0
 2973 004c 1A1C     		mov	r2, r3
 2974 004e 0B4B     		ldr	r3, .L220+24
 2975 0050 1A60     		str	r2, [r3]
2085:.\Generated_Source\PSoC4/CyLib.c ****     cydelay32kMs   = CY_DELAY_MS_OVERFLOW * cydelayFreqKhz;
 2976              		.loc 1 2085 0
ARM GAS  C:\Users\Chuck\AppData\Local\Temp\ccRFe4cO.s 			page 90


 2977 0052 0A4B     		ldr	r3, .L220+24
 2978 0054 1B68     		ldr	r3, [r3]
 2979 0056 DA03     		lsl	r2, r3, #15
 2980 0058 094B     		ldr	r3, .L220+28
 2981 005a 1A60     		str	r2, [r3]
2086:.\Generated_Source\PSoC4/CyLib.c **** }
 2982              		.loc 1 2086 0
 2983 005c BD46     		mov	sp, r7
 2984 005e 02B0     		add	sp, sp, #8
 2985              		@ sp needed
 2986 0060 80BD     		pop	{r7, pc}
 2987              	.L221:
 2988 0062 C046     		.align	2
 2989              	.L220:
 2990 0064 00000000 		.word	cydelayFreqHz
 2991 0068 00366E01 		.word	24000000
 2992 006c 3F420F00 		.word	999999
 2993 0070 40420F00 		.word	1000000
 2994 0074 00000000 		.word	cydelayFreqMhz
 2995 0078 E7030000 		.word	999
 2996 007c 00000000 		.word	cydelayFreqKhz
 2997 0080 00000000 		.word	cydelay32kMs
 2998              		.cfi_endproc
 2999              	.LFE48:
 3000              		.size	CyDelayFreq, .-CyDelayFreq
 3001              		.section	.rodata
 3002              		.align	2
 3003              		.type	cyImoFreqMhz2Reg.4640, %object
 3004              		.size	cyImoFreqMhz2Reg.4640, 46
 3005              	cyImoFreqMhz2Reg.4640:
 3006 0000 03       		.byte	3
 3007 0001 04       		.byte	4
 3008 0002 05       		.byte	5
 3009 0003 06       		.byte	6
 3010 0004 07       		.byte	7
 3011 0005 08       		.byte	8
 3012 0006 09       		.byte	9
 3013 0007 0A       		.byte	10
 3014 0008 0B       		.byte	11
 3015 0009 0C       		.byte	12
 3016 000a 0E       		.byte	14
 3017 000b 0F       		.byte	15
 3018 000c 10       		.byte	16
 3019 000d 11       		.byte	17
 3020 000e 12       		.byte	18
 3021 000f 13       		.byte	19
 3022 0010 14       		.byte	20
 3023 0011 15       		.byte	21
 3024 0012 16       		.byte	22
 3025 0013 17       		.byte	23
 3026 0014 18       		.byte	24
 3027 0015 19       		.byte	25
 3028 0016 1B       		.byte	27
 3029 0017 1C       		.byte	28
 3030 0018 1D       		.byte	29
 3031 0019 1E       		.byte	30
 3032 001a 1F       		.byte	31
ARM GAS  C:\Users\Chuck\AppData\Local\Temp\ccRFe4cO.s 			page 91


 3033 001b 20       		.byte	32
 3034 001c 21       		.byte	33
 3035 001d 22       		.byte	34
 3036 001e 23       		.byte	35
 3037 001f 25       		.byte	37
 3038 0020 26       		.byte	38
 3039 0021 27       		.byte	39
 3040 0022 28       		.byte	40
 3041 0023 29       		.byte	41
 3042 0024 2A       		.byte	42
 3043 0025 2B       		.byte	43
 3044 0026 2E       		.byte	46
 3045 0027 2F       		.byte	47
 3046 0028 30       		.byte	48
 3047 0029 31       		.byte	49
 3048 002a 32       		.byte	50
 3049 002b 33       		.byte	51
 3050 002c 34       		.byte	52
 3051 002d 35       		.byte	53
 3052 002e 0000     		.text
 3053              	.Letext0:
 3054              		.file 2 ".\\Generated_Source\\PSoC4\\cytypes.h"
 3055              		.section	.debug_info,"",%progbits
 3056              	.Ldebug_info0:
 3057 0000 C3090000 		.4byte	0x9c3
 3058 0004 0400     		.2byte	0x4
 3059 0006 00000000 		.4byte	.Ldebug_abbrev0
 3060 000a 04       		.byte	0x4
 3061 000b 01       		.uleb128 0x1
 3062 000c 04010000 		.4byte	.LASF106
 3063 0010 01       		.byte	0x1
 3064 0011 A5030000 		.4byte	.LASF107
 3065 0015 1E040000 		.4byte	.LASF108
 3066 0019 00000000 		.4byte	.Ldebug_ranges0+0
 3067 001d 00000000 		.4byte	0
 3068 0021 00000000 		.4byte	.Ldebug_line0
 3069 0025 02       		.uleb128 0x2
 3070 0026 01       		.byte	0x1
 3071 0027 06       		.byte	0x6
 3072 0028 D5000000 		.4byte	.LASF0
 3073 002c 02       		.uleb128 0x2
 3074 002d 01       		.byte	0x1
 3075 002e 08       		.byte	0x8
 3076 002f 39050000 		.4byte	.LASF1
 3077 0033 02       		.uleb128 0x2
 3078 0034 02       		.byte	0x2
 3079 0035 05       		.byte	0x5
 3080 0036 47050000 		.4byte	.LASF2
 3081 003a 02       		.uleb128 0x2
 3082 003b 02       		.byte	0x2
 3083 003c 07       		.byte	0x7
 3084 003d 83030000 		.4byte	.LASF3
 3085 0041 02       		.uleb128 0x2
 3086 0042 04       		.byte	0x4
 3087 0043 05       		.byte	0x5
 3088 0044 10020000 		.4byte	.LASF4
 3089 0048 02       		.uleb128 0x2
ARM GAS  C:\Users\Chuck\AppData\Local\Temp\ccRFe4cO.s 			page 92


 3090 0049 04       		.byte	0x4
 3091 004a 07       		.byte	0x7
 3092 004b 22030000 		.4byte	.LASF5
 3093 004f 02       		.uleb128 0x2
 3094 0050 08       		.byte	0x8
 3095 0051 05       		.byte	0x5
 3096 0052 C7000000 		.4byte	.LASF6
 3097 0056 02       		.uleb128 0x2
 3098 0057 08       		.byte	0x8
 3099 0058 07       		.byte	0x7
 3100 0059 85000000 		.4byte	.LASF7
 3101 005d 03       		.uleb128 0x3
 3102 005e 04       		.byte	0x4
 3103 005f 05       		.byte	0x5
 3104 0060 696E7400 		.ascii	"int\000"
 3105 0064 02       		.uleb128 0x2
 3106 0065 04       		.byte	0x4
 3107 0066 07       		.byte	0x7
 3108 0067 15030000 		.4byte	.LASF8
 3109 006b 04       		.uleb128 0x4
 3110 006c 26020000 		.4byte	.LASF9
 3111 0070 02       		.byte	0x2
 3112 0071 5B       		.byte	0x5b
 3113 0072 2C000000 		.4byte	0x2c
 3114 0076 04       		.uleb128 0x4
 3115 0077 1A000000 		.4byte	.LASF10
 3116 007b 02       		.byte	0x2
 3117 007c 5C       		.byte	0x5c
 3118 007d 3A000000 		.4byte	0x3a
 3119 0081 04       		.uleb128 0x4
 3120 0082 98020000 		.4byte	.LASF11
 3121 0086 02       		.byte	0x2
 3122 0087 5D       		.byte	0x5d
 3123 0088 48000000 		.4byte	0x48
 3124 008c 02       		.uleb128 0x2
 3125 008d 04       		.byte	0x4
 3126 008e 04       		.byte	0x4
 3127 008f EB040000 		.4byte	.LASF12
 3128 0093 02       		.uleb128 0x2
 3129 0094 08       		.byte	0x8
 3130 0095 04       		.byte	0x4
 3131 0096 42020000 		.4byte	.LASF13
 3132 009a 02       		.uleb128 0x2
 3133 009b 01       		.byte	0x1
 3134 009c 08       		.byte	0x8
 3135 009d E0050000 		.4byte	.LASF14
 3136 00a1 04       		.uleb128 0x4
 3137 00a2 23050000 		.4byte	.LASF15
 3138 00a6 02       		.byte	0x2
 3139 00a7 F0       		.byte	0xf0
 3140 00a8 AC000000 		.4byte	0xac
 3141 00ac 05       		.uleb128 0x5
 3142 00ad 6B000000 		.4byte	0x6b
 3143 00b1 04       		.uleb128 0x4
 3144 00b2 FE030000 		.4byte	.LASF16
 3145 00b6 02       		.byte	0x2
 3146 00b7 F2       		.byte	0xf2
ARM GAS  C:\Users\Chuck\AppData\Local\Temp\ccRFe4cO.s 			page 93


 3147 00b8 BC000000 		.4byte	0xbc
 3148 00bc 05       		.uleb128 0x5
 3149 00bd 81000000 		.4byte	0x81
 3150 00c1 06       		.uleb128 0x6
 3151 00c2 F3050000 		.4byte	.LASF17
 3152 00c6 02       		.byte	0x2
 3153 00c7 0201     		.2byte	0x102
 3154 00c9 CD000000 		.4byte	0xcd
 3155 00cd 07       		.uleb128 0x7
 3156 00ce 04       		.byte	0x4
 3157 00cf D3000000 		.4byte	0xd3
 3158 00d3 08       		.uleb128 0x8
 3159 00d4 02       		.uleb128 0x2
 3160 00d5 04       		.byte	0x4
 3161 00d6 07       		.byte	0x7
 3162 00d7 5D040000 		.4byte	.LASF18
 3163 00db 09       		.uleb128 0x9
 3164 00dc 8E060000 		.4byte	.LASF19
 3165 00e0 01       		.byte	0x1
 3166 00e1 2C       		.byte	0x2c
 3167 00e2 00000000 		.4byte	.LFB0
 3168 00e6 1C000000 		.4byte	.LFE0-.LFB0
 3169 00ea 01       		.uleb128 0x1
 3170 00eb 9C       		.byte	0x9c
 3171 00ec 09       		.uleb128 0x9
 3172 00ed 4F030000 		.4byte	.LASF20
 3173 00f1 01       		.byte	0x1
 3174 00f2 40       		.byte	0x40
 3175 00f3 00000000 		.4byte	.LFB1
 3176 00f7 18000000 		.4byte	.LFE1-.LFB1
 3177 00fb 01       		.uleb128 0x1
 3178 00fc 9C       		.byte	0x9c
 3179 00fd 09       		.uleb128 0x9
 3180 00fe C6030000 		.4byte	.LASF21
 3181 0102 01       		.byte	0x1
 3182 0103 54       		.byte	0x54
 3183 0104 00000000 		.4byte	.LFB2
 3184 0108 1C000000 		.4byte	.LFE2-.LFB2
 3185 010c 01       		.uleb128 0x1
 3186 010d 9C       		.byte	0x9c
 3187 010e 09       		.uleb128 0x9
 3188 010f 49020000 		.4byte	.LASF22
 3189 0113 01       		.byte	0x1
 3190 0114 6D       		.byte	0x6d
 3191 0115 00000000 		.4byte	.LFB3
 3192 0119 18000000 		.4byte	.LFE3-.LFB3
 3193 011d 01       		.uleb128 0x1
 3194 011e 9C       		.byte	0x9c
 3195 011f 0A       		.uleb128 0xa
 3196 0120 30000000 		.4byte	.LASF23
 3197 0124 01       		.byte	0x1
 3198 0125 8F       		.byte	0x8f
 3199 0126 00000000 		.4byte	.LFB4
 3200 012a 40000000 		.4byte	.LFE4-.LFB4
 3201 012e 01       		.uleb128 0x1
 3202 012f 9C       		.byte	0x9c
 3203 0130 51010000 		.4byte	0x151
ARM GAS  C:\Users\Chuck\AppData\Local\Temp\ccRFe4cO.s 			page 94


 3204 0134 0B       		.uleb128 0xb
 3205 0135 A5050000 		.4byte	.LASF25
 3206 0139 01       		.byte	0x1
 3207 013a 8F       		.byte	0x8f
 3208 013b 81000000 		.4byte	0x81
 3209 013f 02       		.uleb128 0x2
 3210 0140 91       		.byte	0x91
 3211 0141 64       		.sleb128 -28
 3212 0142 0C       		.uleb128 0xc
 3213 0143 DF010000 		.4byte	.LASF27
 3214 0147 01       		.byte	0x1
 3215 0148 91       		.byte	0x91
 3216 0149 6B000000 		.4byte	0x6b
 3217 014d 02       		.uleb128 0x2
 3218 014e 91       		.byte	0x91
 3219 014f 6F       		.sleb128 -17
 3220 0150 00       		.byte	0
 3221 0151 0A       		.uleb128 0xa
 3222 0152 19060000 		.4byte	.LASF24
 3223 0156 01       		.byte	0x1
 3224 0157 C0       		.byte	0xc0
 3225 0158 00000000 		.4byte	.LFB5
 3226 015c 44000000 		.4byte	.LFE5-.LFB5
 3227 0160 01       		.uleb128 0x1
 3228 0161 9C       		.byte	0x9c
 3229 0162 83010000 		.4byte	0x183
 3230 0166 0B       		.uleb128 0xb
 3231 0167 86060000 		.4byte	.LASF26
 3232 016b 01       		.byte	0x1
 3233 016c C0       		.byte	0xc0
 3234 016d 81000000 		.4byte	0x81
 3235 0171 02       		.uleb128 0x2
 3236 0172 91       		.byte	0x91
 3237 0173 64       		.sleb128 -28
 3238 0174 0C       		.uleb128 0xc
 3239 0175 DF010000 		.4byte	.LASF27
 3240 0179 01       		.byte	0x1
 3241 017a C2       		.byte	0xc2
 3242 017b 6B000000 		.4byte	0x6b
 3243 017f 02       		.uleb128 0x2
 3244 0180 91       		.byte	0x91
 3245 0181 6F       		.sleb128 -17
 3246 0182 00       		.byte	0
 3247 0183 0A       		.uleb128 0xa
 3248 0184 D7030000 		.4byte	.LASF28
 3249 0188 01       		.byte	0x1
 3250 0189 E8       		.byte	0xe8
 3251 018a 00000000 		.4byte	.LFB6
 3252 018e 00020000 		.4byte	.LFE6-.LFB6
 3253 0192 01       		.uleb128 0x1
 3254 0193 9C       		.byte	0x9c
 3255 0194 FC010000 		.4byte	0x1fc
 3256 0198 0B       		.uleb128 0xb
 3257 0199 E1000000 		.4byte	.LASF29
 3258 019d 01       		.byte	0x1
 3259 019e E8       		.byte	0xe8
 3260 019f 81000000 		.4byte	0x81
ARM GAS  C:\Users\Chuck\AppData\Local\Temp\ccRFe4cO.s 			page 95


 3261 01a3 02       		.uleb128 0x2
 3262 01a4 91       		.byte	0x91
 3263 01a5 5C       		.sleb128 -36
 3264 01a6 0C       		.uleb128 0xc
 3265 01a7 12000000 		.4byte	.LASF30
 3266 01ab 01       		.byte	0x1
 3267 01ac EA       		.byte	0xea
 3268 01ad 6B000000 		.4byte	0x6b
 3269 01b1 02       		.uleb128 0x2
 3270 01b2 91       		.byte	0x91
 3271 01b3 6F       		.sleb128 -17
 3272 01b4 0C       		.uleb128 0xc
 3273 01b5 80040000 		.4byte	.LASF31
 3274 01b9 01       		.byte	0x1
 3275 01ba EB       		.byte	0xeb
 3276 01bb 6B000000 		.4byte	0x6b
 3277 01bf 02       		.uleb128 0x2
 3278 01c0 91       		.byte	0x91
 3279 01c1 6E       		.sleb128 -18
 3280 01c2 0C       		.uleb128 0xc
 3281 01c3 0D060000 		.4byte	.LASF32
 3282 01c7 01       		.byte	0x1
 3283 01c8 EC       		.byte	0xec
 3284 01c9 81000000 		.4byte	0x81
 3285 01cd 02       		.uleb128 0x2
 3286 01ce 91       		.byte	0x91
 3287 01cf 68       		.sleb128 -24
 3288 01d0 0C       		.uleb128 0xc
 3289 01d1 DF010000 		.4byte	.LASF27
 3290 01d5 01       		.byte	0x1
 3291 01d6 ED       		.byte	0xed
 3292 01d7 6B000000 		.4byte	0x6b
 3293 01db 02       		.uleb128 0x2
 3294 01dc 91       		.byte	0x91
 3295 01dd 63       		.sleb128 -29
 3296 01de 0D       		.uleb128 0xd
 3297 01df 6900     		.ascii	"i\000"
 3298 01e1 01       		.byte	0x1
 3299 01e2 EE       		.byte	0xee
 3300 01e3 81000000 		.4byte	0x81
 3301 01e7 02       		.uleb128 0x2
 3302 01e8 91       		.byte	0x91
 3303 01e9 64       		.sleb128 -28
 3304 01ea 0C       		.uleb128 0xc
 3305 01eb 8E040000 		.4byte	.LASF33
 3306 01ef 01       		.byte	0x1
 3307 01f0 F1       		.byte	0xf1
 3308 01f1 0C020000 		.4byte	0x20c
 3309 01f5 05       		.uleb128 0x5
 3310 01f6 03       		.byte	0x3
 3311 01f7 00000000 		.4byte	cyImoFreqMhz2Reg.4640
 3312 01fb 00       		.byte	0
 3313 01fc 0E       		.uleb128 0xe
 3314 01fd 6B000000 		.4byte	0x6b
 3315 0201 0C020000 		.4byte	0x20c
 3316 0205 0F       		.uleb128 0xf
 3317 0206 D4000000 		.4byte	0xd4
ARM GAS  C:\Users\Chuck\AppData\Local\Temp\ccRFe4cO.s 			page 96


 3318 020a 2D       		.byte	0x2d
 3319 020b 00       		.byte	0
 3320 020c 10       		.uleb128 0x10
 3321 020d FC010000 		.4byte	0x1fc
 3322 0211 11       		.uleb128 0x11
 3323 0212 00060000 		.4byte	.LASF34
 3324 0216 01       		.byte	0x1
 3325 0217 F401     		.2byte	0x1f4
 3326 0219 00000000 		.4byte	.LFB7
 3327 021d 44000000 		.4byte	.LFE7-.LFB7
 3328 0221 01       		.uleb128 0x1
 3329 0222 9C       		.byte	0x9c
 3330 0223 37020000 		.4byte	0x237
 3331 0227 12       		.uleb128 0x12
 3332 0228 DF010000 		.4byte	.LASF27
 3333 022c 01       		.byte	0x1
 3334 022d F601     		.2byte	0x1f6
 3335 022f 6B000000 		.4byte	0x6b
 3336 0233 02       		.uleb128 0x2
 3337 0234 91       		.byte	0x91
 3338 0235 6F       		.sleb128 -17
 3339 0236 00       		.byte	0
 3340 0237 11       		.uleb128 0x11
 3341 0238 49000000 		.4byte	.LASF35
 3342 023c 01       		.byte	0x1
 3343 023d 1A02     		.2byte	0x21a
 3344 023f 00000000 		.4byte	.LFB8
 3345 0243 5C000000 		.4byte	.LFE8-.LFB8
 3346 0247 01       		.uleb128 0x1
 3347 0248 9C       		.byte	0x9c
 3348 0249 5D020000 		.4byte	0x25d
 3349 024d 12       		.uleb128 0x12
 3350 024e DF010000 		.4byte	.LASF27
 3351 0252 01       		.byte	0x1
 3352 0253 1C02     		.2byte	0x21c
 3353 0255 6B000000 		.4byte	0x6b
 3354 0259 02       		.uleb128 0x2
 3355 025a 91       		.byte	0x91
 3356 025b 6F       		.sleb128 -17
 3357 025c 00       		.byte	0
 3358 025d 13       		.uleb128 0x13
 3359 025e 9F060000 		.4byte	.LASF40
 3360 0262 01       		.byte	0x1
 3361 0263 4702     		.2byte	0x247
 3362 0265 81000000 		.4byte	0x81
 3363 0269 00000000 		.4byte	.LFB9
 3364 026d 30000000 		.4byte	.LFE9-.LFB9
 3365 0271 01       		.uleb128 0x1
 3366 0272 9C       		.byte	0x9c
 3367 0273 87020000 		.4byte	0x287
 3368 0277 14       		.uleb128 0x14
 3369 0278 5F000000 		.4byte	.LASF36
 3370 027c 01       		.byte	0x1
 3371 027d 4702     		.2byte	0x247
 3372 027f 81000000 		.4byte	0x81
 3373 0283 02       		.uleb128 0x2
 3374 0284 91       		.byte	0x91
ARM GAS  C:\Users\Chuck\AppData\Local\Temp\ccRFe4cO.s 			page 97


 3375 0285 74       		.sleb128 -12
 3376 0286 00       		.byte	0
 3377 0287 11       		.uleb128 0x11
 3378 0288 00000000 		.4byte	.LASF37
 3379 028c 01       		.byte	0x1
 3380 028d 6A02     		.2byte	0x26a
 3381 028f 00000000 		.4byte	.LFB10
 3382 0293 68000000 		.4byte	.LFE10-.LFB10
 3383 0297 01       		.uleb128 0x1
 3384 0298 9C       		.byte	0x9c
 3385 0299 CB020000 		.4byte	0x2cb
 3386 029d 14       		.uleb128 0x14
 3387 029e 5F000000 		.4byte	.LASF36
 3388 02a2 01       		.byte	0x1
 3389 02a3 6A02     		.2byte	0x26a
 3390 02a5 81000000 		.4byte	0x81
 3391 02a9 02       		.uleb128 0x2
 3392 02aa 91       		.byte	0x91
 3393 02ab 6C       		.sleb128 -20
 3394 02ac 14       		.uleb128 0x14
 3395 02ad EE050000 		.4byte	.LASF38
 3396 02b1 01       		.byte	0x1
 3397 02b2 6A02     		.2byte	0x26a
 3398 02b4 81000000 		.4byte	0x81
 3399 02b8 02       		.uleb128 0x2
 3400 02b9 91       		.byte	0x91
 3401 02ba 68       		.sleb128 -24
 3402 02bb 12       		.uleb128 0x12
 3403 02bc 48060000 		.4byte	.LASF39
 3404 02c0 01       		.byte	0x1
 3405 02c1 6C02     		.2byte	0x26c
 3406 02c3 81000000 		.4byte	0x81
 3407 02c7 02       		.uleb128 0x2
 3408 02c8 91       		.byte	0x91
 3409 02c9 74       		.sleb128 -12
 3410 02ca 00       		.byte	0
 3411 02cb 15       		.uleb128 0x15
 3412 02cc B4020000 		.4byte	.LASF41
 3413 02d0 01       		.byte	0x1
 3414 02d1 9102     		.2byte	0x291
 3415 02d3 81000000 		.4byte	0x81
 3416 02d7 00000000 		.4byte	.LFB11
 3417 02db 24000000 		.4byte	.LFE11-.LFB11
 3418 02df 01       		.uleb128 0x1
 3419 02e0 9C       		.byte	0x9c
 3420 02e1 F5020000 		.4byte	0x2f5
 3421 02e5 14       		.uleb128 0x14
 3422 02e6 5F000000 		.4byte	.LASF36
 3423 02ea 01       		.byte	0x1
 3424 02eb 9102     		.2byte	0x291
 3425 02ed 81000000 		.4byte	0x81
 3426 02f1 02       		.uleb128 0x2
 3427 02f2 91       		.byte	0x91
 3428 02f3 74       		.sleb128 -12
 3429 02f4 00       		.byte	0
 3430 02f5 11       		.uleb128 0x11
 3431 02f6 04040000 		.4byte	.LASF42
ARM GAS  C:\Users\Chuck\AppData\Local\Temp\ccRFe4cO.s 			page 98


 3432 02fa 01       		.byte	0x1
 3433 02fb B202     		.2byte	0x2b2
 3434 02fd 00000000 		.4byte	.LFB12
 3435 0301 64000000 		.4byte	.LFE12-.LFB12
 3436 0305 01       		.uleb128 0x1
 3437 0306 9C       		.byte	0x9c
 3438 0307 2A030000 		.4byte	0x32a
 3439 030b 14       		.uleb128 0x14
 3440 030c 5F000000 		.4byte	.LASF36
 3441 0310 01       		.byte	0x1
 3442 0311 B202     		.2byte	0x2b2
 3443 0313 81000000 		.4byte	0x81
 3444 0317 02       		.uleb128 0x2
 3445 0318 91       		.byte	0x91
 3446 0319 74       		.sleb128 -12
 3447 031a 14       		.uleb128 0x14
 3448 031b 3B020000 		.4byte	.LASF43
 3449 031f 01       		.byte	0x1
 3450 0320 B202     		.2byte	0x2b2
 3451 0322 81000000 		.4byte	0x81
 3452 0326 02       		.uleb128 0x2
 3453 0327 91       		.byte	0x91
 3454 0328 70       		.sleb128 -16
 3455 0329 00       		.byte	0
 3456 032a 13       		.uleb128 0x13
 3457 032b 44040000 		.4byte	.LASF44
 3458 032f 01       		.byte	0x1
 3459 0330 D602     		.2byte	0x2d6
 3460 0332 81000000 		.4byte	0x81
 3461 0336 00000000 		.4byte	.LFB13
 3462 033a 40000000 		.4byte	.LFE13-.LFB13
 3463 033e 01       		.uleb128 0x1
 3464 033f 9C       		.byte	0x9c
 3465 0340 54030000 		.4byte	0x354
 3466 0344 14       		.uleb128 0x14
 3467 0345 5F000000 		.4byte	.LASF36
 3468 0349 01       		.byte	0x1
 3469 034a D602     		.2byte	0x2d6
 3470 034c 81000000 		.4byte	0x81
 3471 0350 02       		.uleb128 0x2
 3472 0351 91       		.byte	0x91
 3473 0352 74       		.sleb128 -12
 3474 0353 00       		.byte	0
 3475 0354 11       		.uleb128 0x11
 3476 0355 FA020000 		.4byte	.LASF45
 3477 0359 01       		.byte	0x1
 3478 035a F702     		.2byte	0x2f7
 3479 035c 00000000 		.4byte	.LFB14
 3480 0360 30000000 		.4byte	.LFE14-.LFB14
 3481 0364 01       		.uleb128 0x1
 3482 0365 9C       		.byte	0x9c
 3483 0366 7A030000 		.4byte	0x37a
 3484 036a 14       		.uleb128 0x14
 3485 036b 09030000 		.4byte	.LASF46
 3486 036f 01       		.byte	0x1
 3487 0370 F702     		.2byte	0x2f7
 3488 0372 81000000 		.4byte	0x81
ARM GAS  C:\Users\Chuck\AppData\Local\Temp\ccRFe4cO.s 			page 99


 3489 0376 02       		.uleb128 0x2
 3490 0377 91       		.byte	0x91
 3491 0378 74       		.sleb128 -12
 3492 0379 00       		.byte	0
 3493 037a 11       		.uleb128 0x11
 3494 037b 65050000 		.4byte	.LASF47
 3495 037f 01       		.byte	0x1
 3496 0380 1C03     		.2byte	0x31c
 3497 0382 00000000 		.4byte	.LFB15
 3498 0386 30000000 		.4byte	.LFE15-.LFB15
 3499 038a 01       		.uleb128 0x1
 3500 038b 9C       		.byte	0x9c
 3501 038c A0030000 		.4byte	0x3a0
 3502 0390 14       		.uleb128 0x14
 3503 0391 09030000 		.4byte	.LASF46
 3504 0395 01       		.byte	0x1
 3505 0396 1C03     		.2byte	0x31c
 3506 0398 81000000 		.4byte	0x81
 3507 039c 02       		.uleb128 0x2
 3508 039d 91       		.byte	0x91
 3509 039e 74       		.sleb128 -12
 3510 039f 00       		.byte	0
 3511 03a0 11       		.uleb128 0x11
 3512 03a1 59020000 		.4byte	.LASF48
 3513 03a5 01       		.byte	0x1
 3514 03a6 4303     		.2byte	0x343
 3515 03a8 00000000 		.4byte	.LFB16
 3516 03ac 68000000 		.4byte	.LFE16-.LFB16
 3517 03b0 01       		.uleb128 0x1
 3518 03b1 9C       		.byte	0x9c
 3519 03b2 E4030000 		.4byte	0x3e4
 3520 03b6 14       		.uleb128 0x14
 3521 03b7 7A060000 		.4byte	.LASF49
 3522 03bb 01       		.byte	0x1
 3523 03bc 4303     		.2byte	0x343
 3524 03be 81000000 		.4byte	0x81
 3525 03c2 02       		.uleb128 0x2
 3526 03c3 91       		.byte	0x91
 3527 03c4 64       		.sleb128 -28
 3528 03c5 12       		.uleb128 0x12
 3529 03c6 48060000 		.4byte	.LASF39
 3530 03ca 01       		.byte	0x1
 3531 03cb 4503     		.2byte	0x345
 3532 03cd 81000000 		.4byte	0x81
 3533 03d1 02       		.uleb128 0x2
 3534 03d2 91       		.byte	0x91
 3535 03d3 68       		.sleb128 -24
 3536 03d4 12       		.uleb128 0x12
 3537 03d5 E5020000 		.4byte	.LASF50
 3538 03d9 01       		.byte	0x1
 3539 03da 4603     		.2byte	0x346
 3540 03dc 81000000 		.4byte	0x81
 3541 03e0 02       		.uleb128 0x2
 3542 03e1 91       		.byte	0x91
 3543 03e2 6C       		.sleb128 -20
 3544 03e3 00       		.byte	0
 3545 03e4 16       		.uleb128 0x16
ARM GAS  C:\Users\Chuck\AppData\Local\Temp\ccRFe4cO.s 			page 100


 3546 03e5 51050000 		.4byte	.LASF56
 3547 03e9 01       		.byte	0x1
 3548 03ea 7003     		.2byte	0x370
 3549 03ec 81000000 		.4byte	0x81
 3550 03f0 00000000 		.4byte	.LFB17
 3551 03f4 1C000000 		.4byte	.LFE17-.LFB17
 3552 03f8 01       		.uleb128 0x1
 3553 03f9 9C       		.byte	0x9c
 3554 03fa 11       		.uleb128 0x11
 3555 03fb F8010000 		.4byte	.LASF51
 3556 03ff 01       		.byte	0x1
 3557 0400 8C03     		.2byte	0x38c
 3558 0402 00000000 		.4byte	.LFB18
 3559 0406 78000000 		.4byte	.LFE18-.LFB18
 3560 040a 01       		.uleb128 0x1
 3561 040b 9C       		.byte	0x9c
 3562 040c 3E040000 		.4byte	0x43e
 3563 0410 14       		.uleb128 0x14
 3564 0411 5F000000 		.4byte	.LASF36
 3565 0415 01       		.byte	0x1
 3566 0416 8C03     		.2byte	0x38c
 3567 0418 81000000 		.4byte	0x81
 3568 041c 02       		.uleb128 0x2
 3569 041d 91       		.byte	0x91
 3570 041e 6C       		.sleb128 -20
 3571 041f 14       		.uleb128 0x14
 3572 0420 88040000 		.4byte	.LASF52
 3573 0424 01       		.byte	0x1
 3574 0425 8C03     		.2byte	0x38c
 3575 0427 81000000 		.4byte	0x81
 3576 042b 02       		.uleb128 0x2
 3577 042c 91       		.byte	0x91
 3578 042d 68       		.sleb128 -24
 3579 042e 12       		.uleb128 0x12
 3580 042f AB020000 		.4byte	.LASF53
 3581 0433 01       		.byte	0x1
 3582 0434 8E03     		.2byte	0x38e
 3583 0436 81000000 		.4byte	0x81
 3584 043a 02       		.uleb128 0x2
 3585 043b 91       		.byte	0x91
 3586 043c 74       		.sleb128 -12
 3587 043d 00       		.byte	0
 3588 043e 11       		.uleb128 0x11
 3589 043f C6060000 		.4byte	.LASF54
 3590 0443 01       		.byte	0x1
 3591 0444 BA03     		.2byte	0x3ba
 3592 0446 00000000 		.4byte	.LFB19
 3593 044a 54000000 		.4byte	.LFE19-.LFB19
 3594 044e 01       		.uleb128 0x1
 3595 044f 9C       		.byte	0x9c
 3596 0450 73040000 		.4byte	0x473
 3597 0454 14       		.uleb128 0x14
 3598 0455 0B020000 		.4byte	.LASF55
 3599 0459 01       		.byte	0x1
 3600 045a BA03     		.2byte	0x3ba
 3601 045c 81000000 		.4byte	0x81
 3602 0460 02       		.uleb128 0x2
ARM GAS  C:\Users\Chuck\AppData\Local\Temp\ccRFe4cO.s 			page 101


 3603 0461 91       		.byte	0x91
 3604 0462 6C       		.sleb128 -20
 3605 0463 12       		.uleb128 0x12
 3606 0464 48060000 		.4byte	.LASF39
 3607 0468 01       		.byte	0x1
 3608 0469 BC03     		.2byte	0x3bc
 3609 046b 81000000 		.4byte	0x81
 3610 046f 02       		.uleb128 0x2
 3611 0470 91       		.byte	0x91
 3612 0471 74       		.sleb128 -12
 3613 0472 00       		.byte	0
 3614 0473 16       		.uleb128 0x16
 3615 0474 0D050000 		.4byte	.LASF57
 3616 0478 01       		.byte	0x1
 3617 0479 DE03     		.2byte	0x3de
 3618 047b 81000000 		.4byte	0x81
 3619 047f 00000000 		.4byte	.LFB20
 3620 0483 18000000 		.4byte	.LFE20-.LFB20
 3621 0487 01       		.uleb128 0x1
 3622 0488 9C       		.byte	0x9c
 3623 0489 13       		.uleb128 0x13
 3624 048a 93050000 		.4byte	.LASF58
 3625 048e 01       		.byte	0x1
 3626 048f F303     		.2byte	0x3f3
 3627 0491 81000000 		.4byte	0x81
 3628 0495 00000000 		.4byte	.LFB21
 3629 0499 40000000 		.4byte	.LFE21-.LFB21
 3630 049d 01       		.uleb128 0x1
 3631 049e 9C       		.byte	0x9c
 3632 049f B3040000 		.4byte	0x4b3
 3633 04a3 14       		.uleb128 0x14
 3634 04a4 5F000000 		.4byte	.LASF36
 3635 04a8 01       		.byte	0x1
 3636 04a9 F303     		.2byte	0x3f3
 3637 04ab 81000000 		.4byte	0x81
 3638 04af 02       		.uleb128 0x2
 3639 04b0 91       		.byte	0x91
 3640 04b1 74       		.sleb128 -12
 3641 04b2 00       		.byte	0
 3642 04b3 13       		.uleb128 0x13
 3643 04b4 E6000000 		.4byte	.LASF59
 3644 04b8 01       		.byte	0x1
 3645 04b9 0A04     		.2byte	0x40a
 3646 04bb 81000000 		.4byte	0x81
 3647 04bf 00000000 		.4byte	.LFB22
 3648 04c3 54000000 		.4byte	.LFE22-.LFB22
 3649 04c7 01       		.uleb128 0x1
 3650 04c8 9C       		.byte	0x9c
 3651 04c9 EC040000 		.4byte	0x4ec
 3652 04cd 14       		.uleb128 0x14
 3653 04ce 5F000000 		.4byte	.LASF36
 3654 04d2 01       		.byte	0x1
 3655 04d3 0A04     		.2byte	0x40a
 3656 04d5 81000000 		.4byte	0x81
 3657 04d9 02       		.uleb128 0x2
 3658 04da 91       		.byte	0x91
 3659 04db 6C       		.sleb128 -20
ARM GAS  C:\Users\Chuck\AppData\Local\Temp\ccRFe4cO.s 			page 102


 3660 04dc 12       		.uleb128 0x12
 3661 04dd AB020000 		.4byte	.LASF53
 3662 04e1 01       		.byte	0x1
 3663 04e2 0C04     		.2byte	0x40c
 3664 04e4 81000000 		.4byte	0x81
 3665 04e8 02       		.uleb128 0x2
 3666 04e9 91       		.byte	0x91
 3667 04ea 74       		.sleb128 -12
 3668 04eb 00       		.byte	0
 3669 04ec 16       		.uleb128 0x16
 3670 04ed AF050000 		.4byte	.LASF60
 3671 04f1 01       		.byte	0x1
 3672 04f2 3B04     		.2byte	0x43b
 3673 04f4 81000000 		.4byte	0x81
 3674 04f8 00000000 		.4byte	.LFB23
 3675 04fc 1C000000 		.4byte	.LFE23-.LFB23
 3676 0500 01       		.uleb128 0x1
 3677 0501 9C       		.byte	0x9c
 3678 0502 11       		.uleb128 0x11
 3679 0503 D4040000 		.4byte	.LASF61
 3680 0507 01       		.byte	0x1
 3681 0508 5C04     		.2byte	0x45c
 3682 050a 00000000 		.4byte	.LFB24
 3683 050e B8000000 		.4byte	.LFE24-.LFB24
 3684 0512 01       		.uleb128 0x1
 3685 0513 9C       		.byte	0x9c
 3686 0514 46050000 		.4byte	0x546
 3687 0518 14       		.uleb128 0x14
 3688 0519 09030000 		.4byte	.LASF46
 3689 051d 01       		.byte	0x1
 3690 051e 5C04     		.2byte	0x45c
 3691 0520 81000000 		.4byte	0x81
 3692 0524 02       		.uleb128 0x2
 3693 0525 91       		.byte	0x91
 3694 0526 64       		.sleb128 -28
 3695 0527 12       		.uleb128 0x12
 3696 0528 DF010000 		.4byte	.LASF27
 3697 052c 01       		.byte	0x1
 3698 052d 5E04     		.2byte	0x45e
 3699 052f 6B000000 		.4byte	0x6b
 3700 0533 02       		.uleb128 0x2
 3701 0534 91       		.byte	0x91
 3702 0535 6B       		.sleb128 -21
 3703 0536 12       		.uleb128 0x12
 3704 0537 66060000 		.4byte	.LASF62
 3705 053b 01       		.byte	0x1
 3706 053c 5F04     		.2byte	0x45f
 3707 053e 81000000 		.4byte	0x81
 3708 0542 02       		.uleb128 0x2
 3709 0543 91       		.byte	0x91
 3710 0544 6C       		.sleb128 -20
 3711 0545 00       		.byte	0
 3712 0546 11       		.uleb128 0x11
 3713 0547 AD040000 		.4byte	.LASF63
 3714 054b 01       		.byte	0x1
 3715 054c A504     		.2byte	0x4a5
 3716 054e 00000000 		.4byte	.LFB25
ARM GAS  C:\Users\Chuck\AppData\Local\Temp\ccRFe4cO.s 			page 103


 3717 0552 38000000 		.4byte	.LFE25-.LFB25
 3718 0556 01       		.uleb128 0x1
 3719 0557 9C       		.byte	0x9c
 3720 0558 6C050000 		.4byte	0x56c
 3721 055c 14       		.uleb128 0x14
 3722 055d 74020000 		.4byte	.LASF64
 3723 0561 01       		.byte	0x1
 3724 0562 A504     		.2byte	0x4a5
 3725 0564 81000000 		.4byte	0x81
 3726 0568 02       		.uleb128 0x2
 3727 0569 91       		.byte	0x91
 3728 056a 74       		.sleb128 -12
 3729 056b 00       		.byte	0
 3730 056c 17       		.uleb128 0x17
 3731 056d C5020000 		.4byte	.LASF65
 3732 0571 01       		.byte	0x1
 3733 0572 F305     		.2byte	0x5f3
 3734 0574 00000000 		.4byte	.LFB26
 3735 0578 48000000 		.4byte	.LFE26-.LFB26
 3736 057c 01       		.uleb128 0x1
 3737 057d 9C       		.byte	0x9c
 3738 057e 92050000 		.4byte	0x592
 3739 0582 14       		.uleb128 0x14
 3740 0583 28050000 		.4byte	.LASF66
 3741 0587 01       		.byte	0x1
 3742 0588 F305     		.2byte	0x5f3
 3743 058a 81000000 		.4byte	0x81
 3744 058e 02       		.uleb128 0x2
 3745 058f 91       		.byte	0x91
 3746 0590 74       		.sleb128 -12
 3747 0591 00       		.byte	0
 3748 0592 18       		.uleb128 0x18
 3749 0593 38060000 		.4byte	.LASF67
 3750 0597 01       		.byte	0x1
 3751 0598 0C06     		.2byte	0x60c
 3752 059a 00000000 		.4byte	.LFB27
 3753 059e 28000000 		.4byte	.LFE27-.LFB27
 3754 05a2 01       		.uleb128 0x1
 3755 05a3 9C       		.byte	0x9c
 3756 05a4 16       		.uleb128 0x16
 3757 05a5 34030000 		.4byte	.LASF68
 3758 05a9 01       		.byte	0x1
 3759 05aa 2206     		.2byte	0x622
 3760 05ac 81000000 		.4byte	0x81
 3761 05b0 00000000 		.4byte	.LFB28
 3762 05b4 18000000 		.4byte	.LFE28-.LFB28
 3763 05b8 01       		.uleb128 0x1
 3764 05b9 9C       		.byte	0x9c
 3765 05ba 18       		.uleb128 0x18
 3766 05bb 81020000 		.4byte	.LASF69
 3767 05bf 01       		.byte	0x1
 3768 05c0 3606     		.2byte	0x636
 3769 05c2 00000000 		.4byte	.LFB29
 3770 05c6 14000000 		.4byte	.LFE29-.LFB29
 3771 05ca 01       		.uleb128 0x1
 3772 05cb 9C       		.byte	0x9c
 3773 05cc 15       		.uleb128 0x15
ARM GAS  C:\Users\Chuck\AppData\Local\Temp\ccRFe4cO.s 			page 104


 3774 05cd 6F030000 		.4byte	.LASF70
 3775 05d1 01       		.byte	0x1
 3776 05d2 5206     		.2byte	0x652
 3777 05d4 81000000 		.4byte	0x81
 3778 05d8 00000000 		.4byte	.LFB30
 3779 05dc 30000000 		.4byte	.LFE30-.LFB30
 3780 05e0 01       		.uleb128 0x1
 3781 05e1 9C       		.byte	0x9c
 3782 05e2 05060000 		.4byte	0x605
 3783 05e6 14       		.uleb128 0x14
 3784 05e7 CA050000 		.4byte	.LASF71
 3785 05eb 01       		.byte	0x1
 3786 05ec 5206     		.2byte	0x652
 3787 05ee 81000000 		.4byte	0x81
 3788 05f2 02       		.uleb128 0x2
 3789 05f3 91       		.byte	0x91
 3790 05f4 6C       		.sleb128 -20
 3791 05f5 12       		.uleb128 0x12
 3792 05f6 73060000 		.4byte	.LASF72
 3793 05fa 01       		.byte	0x1
 3794 05fb 5406     		.2byte	0x654
 3795 05fd 81000000 		.4byte	0x81
 3796 0601 02       		.uleb128 0x2
 3797 0602 91       		.byte	0x91
 3798 0603 74       		.sleb128 -12
 3799 0604 00       		.byte	0
 3800 0605 15       		.uleb128 0x15
 3801 0606 6A000000 		.4byte	.LASF73
 3802 060a 01       		.byte	0x1
 3803 060b 6D06     		.2byte	0x66d
 3804 060d 81000000 		.4byte	0x81
 3805 0611 00000000 		.4byte	.LFB31
 3806 0615 24000000 		.4byte	.LFE31-.LFB31
 3807 0619 01       		.uleb128 0x1
 3808 061a 9C       		.byte	0x9c
 3809 061b 2F060000 		.4byte	0x62f
 3810 061f 12       		.uleb128 0x12
 3811 0620 21000000 		.4byte	.LASF74
 3812 0624 01       		.byte	0x1
 3813 0625 6F06     		.2byte	0x66f
 3814 0627 81000000 		.4byte	0x81
 3815 062b 02       		.uleb128 0x2
 3816 062c 91       		.byte	0x91
 3817 062d 74       		.sleb128 -12
 3818 062e 00       		.byte	0
 3819 062f 17       		.uleb128 0x17
 3820 0630 9C000000 		.4byte	.LASF75
 3821 0634 01       		.byte	0x1
 3822 0635 8906     		.2byte	0x689
 3823 0637 00000000 		.4byte	.LFB32
 3824 063b 18000000 		.4byte	.LFE32-.LFB32
 3825 063f 01       		.uleb128 0x1
 3826 0640 9C       		.byte	0x9c
 3827 0641 55060000 		.4byte	0x655
 3828 0645 14       		.uleb128 0x14
 3829 0646 A6020000 		.4byte	.LASF76
 3830 064a 01       		.byte	0x1
ARM GAS  C:\Users\Chuck\AppData\Local\Temp\ccRFe4cO.s 			page 105


 3831 064b 8906     		.2byte	0x689
 3832 064d 81000000 		.4byte	0x81
 3833 0651 02       		.uleb128 0x2
 3834 0652 91       		.byte	0x91
 3835 0653 74       		.sleb128 -12
 3836 0654 00       		.byte	0
 3837 0655 13       		.uleb128 0x13
 3838 0656 EC030000 		.4byte	.LASF77
 3839 065a 01       		.byte	0x1
 3840 065b 9F06     		.2byte	0x69f
 3841 065d C1000000 		.4byte	0xc1
 3842 0661 00000000 		.4byte	.LFB33
 3843 0665 48000000 		.4byte	.LFE33-.LFB33
 3844 0669 01       		.uleb128 0x1
 3845 066a 9C       		.byte	0x9c
 3846 066b AC060000 		.4byte	0x6ac
 3847 066f 14       		.uleb128 0x14
 3848 0670 9F020000 		.4byte	.LASF78
 3849 0674 01       		.byte	0x1
 3850 0675 9F06     		.2byte	0x69f
 3851 0677 6B000000 		.4byte	0x6b
 3852 067b 02       		.uleb128 0x2
 3853 067c 91       		.byte	0x91
 3854 067d 6F       		.sleb128 -17
 3855 067e 14       		.uleb128 0x14
 3856 067f 78040000 		.4byte	.LASF79
 3857 0683 01       		.byte	0x1
 3858 0684 9F06     		.2byte	0x69f
 3859 0686 C1000000 		.4byte	0xc1
 3860 068a 02       		.uleb128 0x2
 3861 068b 91       		.byte	0x91
 3862 068c 68       		.sleb128 -24
 3863 068d 12       		.uleb128 0x12
 3864 068e 58000000 		.4byte	.LASF80
 3865 0692 01       		.byte	0x1
 3866 0693 A106     		.2byte	0x6a1
 3867 0695 C1000000 		.4byte	0xc1
 3868 0699 02       		.uleb128 0x2
 3869 069a 91       		.byte	0x91
 3870 069b 70       		.sleb128 -16
 3871 069c 12       		.uleb128 0x12
 3872 069d D1050000 		.4byte	.LASF81
 3873 06a1 01       		.byte	0x1
 3874 06a2 A206     		.2byte	0x6a2
 3875 06a4 AC060000 		.4byte	0x6ac
 3876 06a8 02       		.uleb128 0x2
 3877 06a9 91       		.byte	0x91
 3878 06aa 74       		.sleb128 -12
 3879 06ab 00       		.byte	0
 3880 06ac 07       		.uleb128 0x7
 3881 06ad 04       		.byte	0x4
 3882 06ae C1000000 		.4byte	0xc1
 3883 06b2 13       		.uleb128 0x13
 3884 06b3 81050000 		.4byte	.LASF82
 3885 06b7 01       		.byte	0x1
 3886 06b8 BF06     		.2byte	0x6bf
 3887 06ba C1000000 		.4byte	0xc1
ARM GAS  C:\Users\Chuck\AppData\Local\Temp\ccRFe4cO.s 			page 106


 3888 06be 00000000 		.4byte	.LFB34
 3889 06c2 34000000 		.4byte	.LFE34-.LFB34
 3890 06c6 01       		.uleb128 0x1
 3891 06c7 9C       		.byte	0x9c
 3892 06c8 EB060000 		.4byte	0x6eb
 3893 06cc 14       		.uleb128 0x14
 3894 06cd 9F020000 		.4byte	.LASF78
 3895 06d1 01       		.byte	0x1
 3896 06d2 BF06     		.2byte	0x6bf
 3897 06d4 6B000000 		.4byte	0x6b
 3898 06d8 02       		.uleb128 0x2
 3899 06d9 91       		.byte	0x91
 3900 06da 6F       		.sleb128 -17
 3901 06db 12       		.uleb128 0x12
 3902 06dc D1050000 		.4byte	.LASF81
 3903 06e0 01       		.byte	0x1
 3904 06e1 C106     		.2byte	0x6c1
 3905 06e3 AC060000 		.4byte	0x6ac
 3906 06e7 02       		.uleb128 0x2
 3907 06e8 91       		.byte	0x91
 3908 06e9 74       		.sleb128 -12
 3909 06ea 00       		.byte	0
 3910 06eb 13       		.uleb128 0x13
 3911 06ec 96030000 		.4byte	.LASF83
 3912 06f0 01       		.byte	0x1
 3913 06f1 D806     		.2byte	0x6d8
 3914 06f3 C1000000 		.4byte	0xc1
 3915 06f7 00000000 		.4byte	.LFB35
 3916 06fb 4C000000 		.4byte	.LFE35-.LFB35
 3917 06ff 01       		.uleb128 0x1
 3918 0700 9C       		.byte	0x9c
 3919 0701 42070000 		.4byte	0x742
 3920 0705 14       		.uleb128 0x14
 3921 0706 9F020000 		.4byte	.LASF78
 3922 070a 01       		.byte	0x1
 3923 070b D806     		.2byte	0x6d8
 3924 070d 6B000000 		.4byte	0x6b
 3925 0711 02       		.uleb128 0x2
 3926 0712 91       		.byte	0x91
 3927 0713 6F       		.sleb128 -17
 3928 0714 14       		.uleb128 0x14
 3929 0715 78040000 		.4byte	.LASF79
 3930 0719 01       		.byte	0x1
 3931 071a D806     		.2byte	0x6d8
 3932 071c C1000000 		.4byte	0xc1
 3933 0720 02       		.uleb128 0x2
 3934 0721 91       		.byte	0x91
 3935 0722 68       		.sleb128 -24
 3936 0723 12       		.uleb128 0x12
 3937 0724 58000000 		.4byte	.LASF80
 3938 0728 01       		.byte	0x1
 3939 0729 DA06     		.2byte	0x6da
 3940 072b C1000000 		.4byte	0xc1
 3941 072f 02       		.uleb128 0x2
 3942 0730 91       		.byte	0x91
 3943 0731 70       		.sleb128 -16
 3944 0732 12       		.uleb128 0x12
ARM GAS  C:\Users\Chuck\AppData\Local\Temp\ccRFe4cO.s 			page 107


 3945 0733 D1050000 		.4byte	.LASF81
 3946 0737 01       		.byte	0x1
 3947 0738 DB06     		.2byte	0x6db
 3948 073a AC060000 		.4byte	0x6ac
 3949 073e 02       		.uleb128 0x2
 3950 073f 91       		.byte	0x91
 3951 0740 74       		.sleb128 -12
 3952 0741 00       		.byte	0
 3953 0742 13       		.uleb128 0x13
 3954 0743 F1040000 		.4byte	.LASF84
 3955 0747 01       		.byte	0x1
 3956 0748 F706     		.2byte	0x6f7
 3957 074a C1000000 		.4byte	0xc1
 3958 074e 00000000 		.4byte	.LFB36
 3959 0752 36000000 		.4byte	.LFE36-.LFB36
 3960 0756 01       		.uleb128 0x1
 3961 0757 9C       		.byte	0x9c
 3962 0758 7B070000 		.4byte	0x77b
 3963 075c 14       		.uleb128 0x14
 3964 075d 9F020000 		.4byte	.LASF78
 3965 0761 01       		.byte	0x1
 3966 0762 F706     		.2byte	0x6f7
 3967 0764 6B000000 		.4byte	0x6b
 3968 0768 02       		.uleb128 0x2
 3969 0769 91       		.byte	0x91
 3970 076a 6F       		.sleb128 -17
 3971 076b 12       		.uleb128 0x12
 3972 076c D1050000 		.4byte	.LASF81
 3973 0770 01       		.byte	0x1
 3974 0771 F906     		.2byte	0x6f9
 3975 0773 AC060000 		.4byte	0x6ac
 3976 0777 02       		.uleb128 0x2
 3977 0778 91       		.byte	0x91
 3978 0779 74       		.sleb128 -12
 3979 077a 00       		.byte	0
 3980 077b 11       		.uleb128 0x11
 3981 077c C3040000 		.4byte	.LASF85
 3982 0780 01       		.byte	0x1
 3983 0781 0F07     		.2byte	0x70f
 3984 0783 00000000 		.4byte	.LFB37
 3985 0787 A8000000 		.4byte	.LFE37-.LFB37
 3986 078b 01       		.uleb128 0x1
 3987 078c 9C       		.byte	0x9c
 3988 078d DD070000 		.4byte	0x7dd
 3989 0791 14       		.uleb128 0x14
 3990 0792 9F020000 		.4byte	.LASF78
 3991 0796 01       		.byte	0x1
 3992 0797 0F07     		.2byte	0x70f
 3993 0799 6B000000 		.4byte	0x6b
 3994 079d 02       		.uleb128 0x2
 3995 079e 91       		.byte	0x91
 3996 079f 5F       		.sleb128 -33
 3997 07a0 14       		.uleb128 0x14
 3998 07a1 E5050000 		.4byte	.LASF86
 3999 07a5 01       		.byte	0x1
 4000 07a6 0F07     		.2byte	0x70f
 4001 07a8 6B000000 		.4byte	0x6b
ARM GAS  C:\Users\Chuck\AppData\Local\Temp\ccRFe4cO.s 			page 108


 4002 07ac 02       		.uleb128 0x2
 4003 07ad 91       		.byte	0x91
 4004 07ae 5E       		.sleb128 -34
 4005 07af 12       		.uleb128 0x12
 4006 07b0 DF010000 		.4byte	.LASF27
 4007 07b4 01       		.byte	0x1
 4008 07b5 1107     		.2byte	0x711
 4009 07b7 6B000000 		.4byte	0x6b
 4010 07bb 02       		.uleb128 0x2
 4011 07bc 91       		.byte	0x91
 4012 07bd 6B       		.sleb128 -21
 4013 07be 12       		.uleb128 0x12
 4014 07bf 6E020000 		.4byte	.LASF87
 4015 07c3 01       		.byte	0x1
 4016 07c4 1207     		.2byte	0x712
 4017 07c6 81000000 		.4byte	0x81
 4018 07ca 02       		.uleb128 0x2
 4019 07cb 91       		.byte	0x91
 4020 07cc 6C       		.sleb128 -20
 4021 07cd 12       		.uleb128 0x12
 4022 07ce 2A000000 		.4byte	.LASF88
 4023 07d2 01       		.byte	0x1
 4024 07d3 1307     		.2byte	0x713
 4025 07d5 81000000 		.4byte	0x81
 4026 07d9 02       		.uleb128 0x2
 4027 07da 91       		.byte	0x91
 4028 07db 64       		.sleb128 -28
 4029 07dc 00       		.byte	0
 4030 07dd 13       		.uleb128 0x13
 4031 07de D4020000 		.4byte	.LASF89
 4032 07e2 01       		.byte	0x1
 4033 07e3 3307     		.2byte	0x733
 4034 07e5 6B000000 		.4byte	0x6b
 4035 07e9 00000000 		.4byte	.LFB38
 4036 07ed 5C000000 		.4byte	.LFE38-.LFB38
 4037 07f1 01       		.uleb128 0x1
 4038 07f2 9C       		.byte	0x9c
 4039 07f3 16080000 		.4byte	0x816
 4040 07f7 14       		.uleb128 0x14
 4041 07f8 9F020000 		.4byte	.LASF78
 4042 07fc 01       		.byte	0x1
 4043 07fd 3307     		.2byte	0x733
 4044 07ff 6B000000 		.4byte	0x6b
 4045 0803 02       		.uleb128 0x2
 4046 0804 91       		.byte	0x91
 4047 0805 6F       		.sleb128 -17
 4048 0806 12       		.uleb128 0x12
 4049 0807 E5050000 		.4byte	.LASF86
 4050 080b 01       		.byte	0x1
 4051 080c 3507     		.2byte	0x735
 4052 080e 6B000000 		.4byte	0x6b
 4053 0812 02       		.uleb128 0x2
 4054 0813 91       		.byte	0x91
 4055 0814 77       		.sleb128 -9
 4056 0815 00       		.byte	0
 4057 0816 17       		.uleb128 0x17
 4058 0817 75050000 		.4byte	.LASF90
ARM GAS  C:\Users\Chuck\AppData\Local\Temp\ccRFe4cO.s 			page 109


 4059 081b 01       		.byte	0x1
 4060 081c 4D07     		.2byte	0x74d
 4061 081e 00000000 		.4byte	.LFB39
 4062 0822 28000000 		.4byte	.LFE39-.LFB39
 4063 0826 01       		.uleb128 0x1
 4064 0827 9C       		.byte	0x9c
 4065 0828 3C080000 		.4byte	0x83c
 4066 082c 14       		.uleb128 0x14
 4067 082d 9F020000 		.4byte	.LASF78
 4068 0831 01       		.byte	0x1
 4069 0832 4D07     		.2byte	0x74d
 4070 0834 6B000000 		.4byte	0x6b
 4071 0838 02       		.uleb128 0x2
 4072 0839 91       		.byte	0x91
 4073 083a 77       		.sleb128 -9
 4074 083b 00       		.byte	0
 4075 083c 15       		.uleb128 0x15
 4076 083d B9000000 		.4byte	.LASF91
 4077 0841 01       		.byte	0x1
 4078 0842 6107     		.2byte	0x761
 4079 0844 6B000000 		.4byte	0x6b
 4080 0848 00000000 		.4byte	.LFB40
 4081 084c 30000000 		.4byte	.LFE40-.LFB40
 4082 0850 01       		.uleb128 0x1
 4083 0851 9C       		.byte	0x9c
 4084 0852 66080000 		.4byte	0x866
 4085 0856 14       		.uleb128 0x14
 4086 0857 9F020000 		.4byte	.LASF78
 4087 085b 01       		.byte	0x1
 4088 085c 6107     		.2byte	0x761
 4089 085e 6B000000 		.4byte	0x6b
 4090 0862 02       		.uleb128 0x2
 4091 0863 91       		.byte	0x91
 4092 0864 77       		.sleb128 -9
 4093 0865 00       		.byte	0
 4094 0866 17       		.uleb128 0x17
 4095 0867 19020000 		.4byte	.LASF92
 4096 086b 01       		.byte	0x1
 4097 086c 7607     		.2byte	0x776
 4098 086e 00000000 		.4byte	.LFB41
 4099 0872 28000000 		.4byte	.LFE41-.LFB41
 4100 0876 01       		.uleb128 0x1
 4101 0877 9C       		.byte	0x9c
 4102 0878 8C080000 		.4byte	0x88c
 4103 087c 14       		.uleb128 0x14
 4104 087d 9F020000 		.4byte	.LASF78
 4105 0881 01       		.byte	0x1
 4106 0882 7607     		.2byte	0x776
 4107 0884 6B000000 		.4byte	0x6b
 4108 0888 02       		.uleb128 0x2
 4109 0889 91       		.byte	0x91
 4110 088a 77       		.sleb128 -9
 4111 088b 00       		.byte	0
 4112 088c 17       		.uleb128 0x17
 4113 088d 5F030000 		.4byte	.LASF93
 4114 0891 01       		.byte	0x1
 4115 0892 8907     		.2byte	0x789
ARM GAS  C:\Users\Chuck\AppData\Local\Temp\ccRFe4cO.s 			page 110


 4116 0894 00000000 		.4byte	.LFB42
 4117 0898 28000000 		.4byte	.LFE42-.LFB42
 4118 089c 01       		.uleb128 0x1
 4119 089d 9C       		.byte	0x9c
 4120 089e B2080000 		.4byte	0x8b2
 4121 08a2 14       		.uleb128 0x14
 4122 08a3 9F020000 		.4byte	.LASF78
 4123 08a7 01       		.byte	0x1
 4124 08a8 8907     		.2byte	0x789
 4125 08aa 6B000000 		.4byte	0x6b
 4126 08ae 02       		.uleb128 0x2
 4127 08af 91       		.byte	0x91
 4128 08b0 77       		.sleb128 -9
 4129 08b1 00       		.byte	0
 4130 08b2 17       		.uleb128 0x17
 4131 08b3 66040000 		.4byte	.LASF94
 4132 08b7 01       		.byte	0x1
 4133 08b8 9D07     		.2byte	0x79d
 4134 08ba 00000000 		.4byte	.LFB43
 4135 08be 28000000 		.4byte	.LFE43-.LFB43
 4136 08c2 01       		.uleb128 0x1
 4137 08c3 9C       		.byte	0x9c
 4138 08c4 D8080000 		.4byte	0x8d8
 4139 08c8 14       		.uleb128 0x14
 4140 08c9 9F020000 		.4byte	.LASF78
 4141 08cd 01       		.byte	0x1
 4142 08ce 9D07     		.2byte	0x79d
 4143 08d0 6B000000 		.4byte	0x6b
 4144 08d4 02       		.uleb128 0x2
 4145 08d5 91       		.byte	0x91
 4146 08d6 77       		.sleb128 -9
 4147 08d7 00       		.byte	0
 4148 08d8 17       		.uleb128 0x17
 4149 08d9 32050000 		.4byte	.LASF95
 4150 08dd 01       		.byte	0x1
 4151 08de B107     		.2byte	0x7b1
 4152 08e0 00000000 		.4byte	.LFB44
 4153 08e4 14000000 		.4byte	.LFE44-.LFB44
 4154 08e8 01       		.uleb128 0x1
 4155 08e9 9C       		.byte	0x9c
 4156 08ea FE080000 		.4byte	0x8fe
 4157 08ee 14       		.uleb128 0x14
 4158 08ef CA050000 		.4byte	.LASF71
 4159 08f3 01       		.byte	0x1
 4160 08f4 B107     		.2byte	0x7b1
 4161 08f6 6B000000 		.4byte	0x6b
 4162 08fa 02       		.uleb128 0x2
 4163 08fb 91       		.byte	0x91
 4164 08fc 77       		.sleb128 -9
 4165 08fd 00       		.byte	0
 4166 08fe 18       		.uleb128 0x18
 4167 08ff A9000000 		.4byte	.LASF96
 4168 0903 01       		.byte	0x1
 4169 0904 D007     		.2byte	0x7d0
 4170 0906 00000000 		.4byte	.LFB45
 4171 090a 20000000 		.4byte	.LFE45-.LFB45
 4172 090e 01       		.uleb128 0x1
ARM GAS  C:\Users\Chuck\AppData\Local\Temp\ccRFe4cO.s 			page 111


 4173 090f 9C       		.byte	0x9c
 4174 0910 11       		.uleb128 0x11
 4175 0911 30060000 		.4byte	.LASF97
 4176 0915 01       		.byte	0x1
 4177 0916 E907     		.2byte	0x7e9
 4178 0918 00000000 		.4byte	.LFB46
 4179 091c 48000000 		.4byte	.LFE46-.LFB46
 4180 0920 01       		.uleb128 0x1
 4181 0921 9C       		.byte	0x9c
 4182 0922 36090000 		.4byte	0x936
 4183 0926 14       		.uleb128 0x14
 4184 0927 00050000 		.4byte	.LASF98
 4185 092b 01       		.byte	0x1
 4186 092c E907     		.2byte	0x7e9
 4187 092e 81000000 		.4byte	0x81
 4188 0932 02       		.uleb128 0x2
 4189 0933 91       		.byte	0x91
 4190 0934 74       		.sleb128 -12
 4191 0935 00       		.byte	0
 4192 0936 11       		.uleb128 0x11
 4193 0937 EE010000 		.4byte	.LASF99
 4194 093b 01       		.byte	0x1
 4195 093c 0508     		.2byte	0x805
 4196 093e 00000000 		.4byte	.LFB47
 4197 0942 28000000 		.4byte	.LFE47-.LFB47
 4198 0946 01       		.uleb128 0x1
 4199 0947 9C       		.byte	0x9c
 4200 0948 5C090000 		.4byte	0x95c
 4201 094c 14       		.uleb128 0x14
 4202 094d B9060000 		.4byte	.LASF100
 4203 0951 01       		.byte	0x1
 4204 0952 0508     		.2byte	0x805
 4205 0954 76000000 		.4byte	0x76
 4206 0958 02       		.uleb128 0x2
 4207 0959 91       		.byte	0x91
 4208 095a 76       		.sleb128 -10
 4209 095b 00       		.byte	0
 4210 095c 11       		.uleb128 0x11
 4211 095d F8000000 		.4byte	.LASF101
 4212 0961 01       		.byte	0x1
 4213 0962 1808     		.2byte	0x818
 4214 0964 00000000 		.4byte	.LFB48
 4215 0968 84000000 		.4byte	.LFE48-.LFB48
 4216 096c 01       		.uleb128 0x1
 4217 096d 9C       		.byte	0x9c
 4218 096e 82090000 		.4byte	0x982
 4219 0972 14       		.uleb128 0x14
 4220 0973 E1000000 		.4byte	.LASF29
 4221 0977 01       		.byte	0x1
 4222 0978 1808     		.2byte	0x818
 4223 097a 81000000 		.4byte	0x81
 4224 097e 02       		.uleb128 0x2
 4225 097f 91       		.byte	0x91
 4226 0980 74       		.sleb128 -12
 4227 0981 00       		.byte	0
 4228 0982 19       		.uleb128 0x19
 4229 0983 9F040000 		.4byte	.LASF102
ARM GAS  C:\Users\Chuck\AppData\Local\Temp\ccRFe4cO.s 			page 112


 4230 0987 01       		.byte	0x1
 4231 0988 17       		.byte	0x17
 4232 0989 81000000 		.4byte	0x81
 4233 098d 05       		.uleb128 0x5
 4234 098e 03       		.byte	0x3
 4235 098f 00000000 		.4byte	cydelayFreqHz
 4236 0993 19       		.uleb128 0x19
 4237 0994 2C020000 		.4byte	.LASF103
 4238 0998 01       		.byte	0x1
 4239 0999 18       		.byte	0x18
 4240 099a 81000000 		.4byte	0x81
 4241 099e 05       		.uleb128 0x5
 4242 099f 03       		.byte	0x3
 4243 09a0 00000000 		.4byte	cydelayFreqKhz
 4244 09a4 19       		.uleb128 0x19
 4245 09a5 57060000 		.4byte	.LASF104
 4246 09a9 01       		.byte	0x1
 4247 09aa 19       		.byte	0x19
 4248 09ab 6B000000 		.4byte	0x6b
 4249 09af 05       		.uleb128 0x5
 4250 09b0 03       		.byte	0x3
 4251 09b1 00000000 		.4byte	cydelayFreqMhz
 4252 09b5 19       		.uleb128 0x19
 4253 09b6 78000000 		.4byte	.LASF105
 4254 09ba 01       		.byte	0x1
 4255 09bb 1A       		.byte	0x1a
 4256 09bc 81000000 		.4byte	0x81
 4257 09c0 05       		.uleb128 0x5
 4258 09c1 03       		.byte	0x3
 4259 09c2 00000000 		.4byte	cydelay32kMs
 4260 09c6 00       		.byte	0
 4261              		.section	.debug_abbrev,"",%progbits
 4262              	.Ldebug_abbrev0:
 4263 0000 01       		.uleb128 0x1
 4264 0001 11       		.uleb128 0x11
 4265 0002 01       		.byte	0x1
 4266 0003 25       		.uleb128 0x25
 4267 0004 0E       		.uleb128 0xe
 4268 0005 13       		.uleb128 0x13
 4269 0006 0B       		.uleb128 0xb
 4270 0007 03       		.uleb128 0x3
 4271 0008 0E       		.uleb128 0xe
 4272 0009 1B       		.uleb128 0x1b
 4273 000a 0E       		.uleb128 0xe
 4274 000b 55       		.uleb128 0x55
 4275 000c 17       		.uleb128 0x17
 4276 000d 11       		.uleb128 0x11
 4277 000e 01       		.uleb128 0x1
 4278 000f 10       		.uleb128 0x10
 4279 0010 17       		.uleb128 0x17
 4280 0011 00       		.byte	0
 4281 0012 00       		.byte	0
 4282 0013 02       		.uleb128 0x2
 4283 0014 24       		.uleb128 0x24
 4284 0015 00       		.byte	0
 4285 0016 0B       		.uleb128 0xb
 4286 0017 0B       		.uleb128 0xb
ARM GAS  C:\Users\Chuck\AppData\Local\Temp\ccRFe4cO.s 			page 113


 4287 0018 3E       		.uleb128 0x3e
 4288 0019 0B       		.uleb128 0xb
 4289 001a 03       		.uleb128 0x3
 4290 001b 0E       		.uleb128 0xe
 4291 001c 00       		.byte	0
 4292 001d 00       		.byte	0
 4293 001e 03       		.uleb128 0x3
 4294 001f 24       		.uleb128 0x24
 4295 0020 00       		.byte	0
 4296 0021 0B       		.uleb128 0xb
 4297 0022 0B       		.uleb128 0xb
 4298 0023 3E       		.uleb128 0x3e
 4299 0024 0B       		.uleb128 0xb
 4300 0025 03       		.uleb128 0x3
 4301 0026 08       		.uleb128 0x8
 4302 0027 00       		.byte	0
 4303 0028 00       		.byte	0
 4304 0029 04       		.uleb128 0x4
 4305 002a 16       		.uleb128 0x16
 4306 002b 00       		.byte	0
 4307 002c 03       		.uleb128 0x3
 4308 002d 0E       		.uleb128 0xe
 4309 002e 3A       		.uleb128 0x3a
 4310 002f 0B       		.uleb128 0xb
 4311 0030 3B       		.uleb128 0x3b
 4312 0031 0B       		.uleb128 0xb
 4313 0032 49       		.uleb128 0x49
 4314 0033 13       		.uleb128 0x13
 4315 0034 00       		.byte	0
 4316 0035 00       		.byte	0
 4317 0036 05       		.uleb128 0x5
 4318 0037 35       		.uleb128 0x35
 4319 0038 00       		.byte	0
 4320 0039 49       		.uleb128 0x49
 4321 003a 13       		.uleb128 0x13
 4322 003b 00       		.byte	0
 4323 003c 00       		.byte	0
 4324 003d 06       		.uleb128 0x6
 4325 003e 16       		.uleb128 0x16
 4326 003f 00       		.byte	0
 4327 0040 03       		.uleb128 0x3
 4328 0041 0E       		.uleb128 0xe
 4329 0042 3A       		.uleb128 0x3a
 4330 0043 0B       		.uleb128 0xb
 4331 0044 3B       		.uleb128 0x3b
 4332 0045 05       		.uleb128 0x5
 4333 0046 49       		.uleb128 0x49
 4334 0047 13       		.uleb128 0x13
 4335 0048 00       		.byte	0
 4336 0049 00       		.byte	0
 4337 004a 07       		.uleb128 0x7
 4338 004b 0F       		.uleb128 0xf
 4339 004c 00       		.byte	0
 4340 004d 0B       		.uleb128 0xb
 4341 004e 0B       		.uleb128 0xb
 4342 004f 49       		.uleb128 0x49
 4343 0050 13       		.uleb128 0x13
ARM GAS  C:\Users\Chuck\AppData\Local\Temp\ccRFe4cO.s 			page 114


 4344 0051 00       		.byte	0
 4345 0052 00       		.byte	0
 4346 0053 08       		.uleb128 0x8
 4347 0054 15       		.uleb128 0x15
 4348 0055 00       		.byte	0
 4349 0056 27       		.uleb128 0x27
 4350 0057 19       		.uleb128 0x19
 4351 0058 00       		.byte	0
 4352 0059 00       		.byte	0
 4353 005a 09       		.uleb128 0x9
 4354 005b 2E       		.uleb128 0x2e
 4355 005c 00       		.byte	0
 4356 005d 3F       		.uleb128 0x3f
 4357 005e 19       		.uleb128 0x19
 4358 005f 03       		.uleb128 0x3
 4359 0060 0E       		.uleb128 0xe
 4360 0061 3A       		.uleb128 0x3a
 4361 0062 0B       		.uleb128 0xb
 4362 0063 3B       		.uleb128 0x3b
 4363 0064 0B       		.uleb128 0xb
 4364 0065 27       		.uleb128 0x27
 4365 0066 19       		.uleb128 0x19
 4366 0067 11       		.uleb128 0x11
 4367 0068 01       		.uleb128 0x1
 4368 0069 12       		.uleb128 0x12
 4369 006a 06       		.uleb128 0x6
 4370 006b 40       		.uleb128 0x40
 4371 006c 18       		.uleb128 0x18
 4372 006d 9742     		.uleb128 0x2117
 4373 006f 19       		.uleb128 0x19
 4374 0070 00       		.byte	0
 4375 0071 00       		.byte	0
 4376 0072 0A       		.uleb128 0xa
 4377 0073 2E       		.uleb128 0x2e
 4378 0074 01       		.byte	0x1
 4379 0075 3F       		.uleb128 0x3f
 4380 0076 19       		.uleb128 0x19
 4381 0077 03       		.uleb128 0x3
 4382 0078 0E       		.uleb128 0xe
 4383 0079 3A       		.uleb128 0x3a
 4384 007a 0B       		.uleb128 0xb
 4385 007b 3B       		.uleb128 0x3b
 4386 007c 0B       		.uleb128 0xb
 4387 007d 27       		.uleb128 0x27
 4388 007e 19       		.uleb128 0x19
 4389 007f 11       		.uleb128 0x11
 4390 0080 01       		.uleb128 0x1
 4391 0081 12       		.uleb128 0x12
 4392 0082 06       		.uleb128 0x6
 4393 0083 40       		.uleb128 0x40
 4394 0084 18       		.uleb128 0x18
 4395 0085 9642     		.uleb128 0x2116
 4396 0087 19       		.uleb128 0x19
 4397 0088 01       		.uleb128 0x1
 4398 0089 13       		.uleb128 0x13
 4399 008a 00       		.byte	0
 4400 008b 00       		.byte	0
ARM GAS  C:\Users\Chuck\AppData\Local\Temp\ccRFe4cO.s 			page 115


 4401 008c 0B       		.uleb128 0xb
 4402 008d 05       		.uleb128 0x5
 4403 008e 00       		.byte	0
 4404 008f 03       		.uleb128 0x3
 4405 0090 0E       		.uleb128 0xe
 4406 0091 3A       		.uleb128 0x3a
 4407 0092 0B       		.uleb128 0xb
 4408 0093 3B       		.uleb128 0x3b
 4409 0094 0B       		.uleb128 0xb
 4410 0095 49       		.uleb128 0x49
 4411 0096 13       		.uleb128 0x13
 4412 0097 02       		.uleb128 0x2
 4413 0098 18       		.uleb128 0x18
 4414 0099 00       		.byte	0
 4415 009a 00       		.byte	0
 4416 009b 0C       		.uleb128 0xc
 4417 009c 34       		.uleb128 0x34
 4418 009d 00       		.byte	0
 4419 009e 03       		.uleb128 0x3
 4420 009f 0E       		.uleb128 0xe
 4421 00a0 3A       		.uleb128 0x3a
 4422 00a1 0B       		.uleb128 0xb
 4423 00a2 3B       		.uleb128 0x3b
 4424 00a3 0B       		.uleb128 0xb
 4425 00a4 49       		.uleb128 0x49
 4426 00a5 13       		.uleb128 0x13
 4427 00a6 02       		.uleb128 0x2
 4428 00a7 18       		.uleb128 0x18
 4429 00a8 00       		.byte	0
 4430 00a9 00       		.byte	0
 4431 00aa 0D       		.uleb128 0xd
 4432 00ab 34       		.uleb128 0x34
 4433 00ac 00       		.byte	0
 4434 00ad 03       		.uleb128 0x3
 4435 00ae 08       		.uleb128 0x8
 4436 00af 3A       		.uleb128 0x3a
 4437 00b0 0B       		.uleb128 0xb
 4438 00b1 3B       		.uleb128 0x3b
 4439 00b2 0B       		.uleb128 0xb
 4440 00b3 49       		.uleb128 0x49
 4441 00b4 13       		.uleb128 0x13
 4442 00b5 02       		.uleb128 0x2
 4443 00b6 18       		.uleb128 0x18
 4444 00b7 00       		.byte	0
 4445 00b8 00       		.byte	0
 4446 00b9 0E       		.uleb128 0xe
 4447 00ba 01       		.uleb128 0x1
 4448 00bb 01       		.byte	0x1
 4449 00bc 49       		.uleb128 0x49
 4450 00bd 13       		.uleb128 0x13
 4451 00be 01       		.uleb128 0x1
 4452 00bf 13       		.uleb128 0x13
 4453 00c0 00       		.byte	0
 4454 00c1 00       		.byte	0
 4455 00c2 0F       		.uleb128 0xf
 4456 00c3 21       		.uleb128 0x21
 4457 00c4 00       		.byte	0
ARM GAS  C:\Users\Chuck\AppData\Local\Temp\ccRFe4cO.s 			page 116


 4458 00c5 49       		.uleb128 0x49
 4459 00c6 13       		.uleb128 0x13
 4460 00c7 2F       		.uleb128 0x2f
 4461 00c8 0B       		.uleb128 0xb
 4462 00c9 00       		.byte	0
 4463 00ca 00       		.byte	0
 4464 00cb 10       		.uleb128 0x10
 4465 00cc 26       		.uleb128 0x26
 4466 00cd 00       		.byte	0
 4467 00ce 49       		.uleb128 0x49
 4468 00cf 13       		.uleb128 0x13
 4469 00d0 00       		.byte	0
 4470 00d1 00       		.byte	0
 4471 00d2 11       		.uleb128 0x11
 4472 00d3 2E       		.uleb128 0x2e
 4473 00d4 01       		.byte	0x1
 4474 00d5 3F       		.uleb128 0x3f
 4475 00d6 19       		.uleb128 0x19
 4476 00d7 03       		.uleb128 0x3
 4477 00d8 0E       		.uleb128 0xe
 4478 00d9 3A       		.uleb128 0x3a
 4479 00da 0B       		.uleb128 0xb
 4480 00db 3B       		.uleb128 0x3b
 4481 00dc 05       		.uleb128 0x5
 4482 00dd 27       		.uleb128 0x27
 4483 00de 19       		.uleb128 0x19
 4484 00df 11       		.uleb128 0x11
 4485 00e0 01       		.uleb128 0x1
 4486 00e1 12       		.uleb128 0x12
 4487 00e2 06       		.uleb128 0x6
 4488 00e3 40       		.uleb128 0x40
 4489 00e4 18       		.uleb128 0x18
 4490 00e5 9642     		.uleb128 0x2116
 4491 00e7 19       		.uleb128 0x19
 4492 00e8 01       		.uleb128 0x1
 4493 00e9 13       		.uleb128 0x13
 4494 00ea 00       		.byte	0
 4495 00eb 00       		.byte	0
 4496 00ec 12       		.uleb128 0x12
 4497 00ed 34       		.uleb128 0x34
 4498 00ee 00       		.byte	0
 4499 00ef 03       		.uleb128 0x3
 4500 00f0 0E       		.uleb128 0xe
 4501 00f1 3A       		.uleb128 0x3a
 4502 00f2 0B       		.uleb128 0xb
 4503 00f3 3B       		.uleb128 0x3b
 4504 00f4 05       		.uleb128 0x5
 4505 00f5 49       		.uleb128 0x49
 4506 00f6 13       		.uleb128 0x13
 4507 00f7 02       		.uleb128 0x2
 4508 00f8 18       		.uleb128 0x18
 4509 00f9 00       		.byte	0
 4510 00fa 00       		.byte	0
 4511 00fb 13       		.uleb128 0x13
 4512 00fc 2E       		.uleb128 0x2e
 4513 00fd 01       		.byte	0x1
 4514 00fe 3F       		.uleb128 0x3f
ARM GAS  C:\Users\Chuck\AppData\Local\Temp\ccRFe4cO.s 			page 117


 4515 00ff 19       		.uleb128 0x19
 4516 0100 03       		.uleb128 0x3
 4517 0101 0E       		.uleb128 0xe
 4518 0102 3A       		.uleb128 0x3a
 4519 0103 0B       		.uleb128 0xb
 4520 0104 3B       		.uleb128 0x3b
 4521 0105 05       		.uleb128 0x5
 4522 0106 27       		.uleb128 0x27
 4523 0107 19       		.uleb128 0x19
 4524 0108 49       		.uleb128 0x49
 4525 0109 13       		.uleb128 0x13
 4526 010a 11       		.uleb128 0x11
 4527 010b 01       		.uleb128 0x1
 4528 010c 12       		.uleb128 0x12
 4529 010d 06       		.uleb128 0x6
 4530 010e 40       		.uleb128 0x40
 4531 010f 18       		.uleb128 0x18
 4532 0110 9642     		.uleb128 0x2116
 4533 0112 19       		.uleb128 0x19
 4534 0113 01       		.uleb128 0x1
 4535 0114 13       		.uleb128 0x13
 4536 0115 00       		.byte	0
 4537 0116 00       		.byte	0
 4538 0117 14       		.uleb128 0x14
 4539 0118 05       		.uleb128 0x5
 4540 0119 00       		.byte	0
 4541 011a 03       		.uleb128 0x3
 4542 011b 0E       		.uleb128 0xe
 4543 011c 3A       		.uleb128 0x3a
 4544 011d 0B       		.uleb128 0xb
 4545 011e 3B       		.uleb128 0x3b
 4546 011f 05       		.uleb128 0x5
 4547 0120 49       		.uleb128 0x49
 4548 0121 13       		.uleb128 0x13
 4549 0122 02       		.uleb128 0x2
 4550 0123 18       		.uleb128 0x18
 4551 0124 00       		.byte	0
 4552 0125 00       		.byte	0
 4553 0126 15       		.uleb128 0x15
 4554 0127 2E       		.uleb128 0x2e
 4555 0128 01       		.byte	0x1
 4556 0129 3F       		.uleb128 0x3f
 4557 012a 19       		.uleb128 0x19
 4558 012b 03       		.uleb128 0x3
 4559 012c 0E       		.uleb128 0xe
 4560 012d 3A       		.uleb128 0x3a
 4561 012e 0B       		.uleb128 0xb
 4562 012f 3B       		.uleb128 0x3b
 4563 0130 05       		.uleb128 0x5
 4564 0131 27       		.uleb128 0x27
 4565 0132 19       		.uleb128 0x19
 4566 0133 49       		.uleb128 0x49
 4567 0134 13       		.uleb128 0x13
 4568 0135 11       		.uleb128 0x11
 4569 0136 01       		.uleb128 0x1
 4570 0137 12       		.uleb128 0x12
 4571 0138 06       		.uleb128 0x6
ARM GAS  C:\Users\Chuck\AppData\Local\Temp\ccRFe4cO.s 			page 118


 4572 0139 40       		.uleb128 0x40
 4573 013a 18       		.uleb128 0x18
 4574 013b 9742     		.uleb128 0x2117
 4575 013d 19       		.uleb128 0x19
 4576 013e 01       		.uleb128 0x1
 4577 013f 13       		.uleb128 0x13
 4578 0140 00       		.byte	0
 4579 0141 00       		.byte	0
 4580 0142 16       		.uleb128 0x16
 4581 0143 2E       		.uleb128 0x2e
 4582 0144 00       		.byte	0
 4583 0145 3F       		.uleb128 0x3f
 4584 0146 19       		.uleb128 0x19
 4585 0147 03       		.uleb128 0x3
 4586 0148 0E       		.uleb128 0xe
 4587 0149 3A       		.uleb128 0x3a
 4588 014a 0B       		.uleb128 0xb
 4589 014b 3B       		.uleb128 0x3b
 4590 014c 05       		.uleb128 0x5
 4591 014d 27       		.uleb128 0x27
 4592 014e 19       		.uleb128 0x19
 4593 014f 49       		.uleb128 0x49
 4594 0150 13       		.uleb128 0x13
 4595 0151 11       		.uleb128 0x11
 4596 0152 01       		.uleb128 0x1
 4597 0153 12       		.uleb128 0x12
 4598 0154 06       		.uleb128 0x6
 4599 0155 40       		.uleb128 0x40
 4600 0156 18       		.uleb128 0x18
 4601 0157 9742     		.uleb128 0x2117
 4602 0159 19       		.uleb128 0x19
 4603 015a 00       		.byte	0
 4604 015b 00       		.byte	0
 4605 015c 17       		.uleb128 0x17
 4606 015d 2E       		.uleb128 0x2e
 4607 015e 01       		.byte	0x1
 4608 015f 3F       		.uleb128 0x3f
 4609 0160 19       		.uleb128 0x19
 4610 0161 03       		.uleb128 0x3
 4611 0162 0E       		.uleb128 0xe
 4612 0163 3A       		.uleb128 0x3a
 4613 0164 0B       		.uleb128 0xb
 4614 0165 3B       		.uleb128 0x3b
 4615 0166 05       		.uleb128 0x5
 4616 0167 27       		.uleb128 0x27
 4617 0168 19       		.uleb128 0x19
 4618 0169 11       		.uleb128 0x11
 4619 016a 01       		.uleb128 0x1
 4620 016b 12       		.uleb128 0x12
 4621 016c 06       		.uleb128 0x6
 4622 016d 40       		.uleb128 0x40
 4623 016e 18       		.uleb128 0x18
 4624 016f 9742     		.uleb128 0x2117
 4625 0171 19       		.uleb128 0x19
 4626 0172 01       		.uleb128 0x1
 4627 0173 13       		.uleb128 0x13
 4628 0174 00       		.byte	0
ARM GAS  C:\Users\Chuck\AppData\Local\Temp\ccRFe4cO.s 			page 119


 4629 0175 00       		.byte	0
 4630 0176 18       		.uleb128 0x18
 4631 0177 2E       		.uleb128 0x2e
 4632 0178 00       		.byte	0
 4633 0179 3F       		.uleb128 0x3f
 4634 017a 19       		.uleb128 0x19
 4635 017b 03       		.uleb128 0x3
 4636 017c 0E       		.uleb128 0xe
 4637 017d 3A       		.uleb128 0x3a
 4638 017e 0B       		.uleb128 0xb
 4639 017f 3B       		.uleb128 0x3b
 4640 0180 05       		.uleb128 0x5
 4641 0181 27       		.uleb128 0x27
 4642 0182 19       		.uleb128 0x19
 4643 0183 11       		.uleb128 0x11
 4644 0184 01       		.uleb128 0x1
 4645 0185 12       		.uleb128 0x12
 4646 0186 06       		.uleb128 0x6
 4647 0187 40       		.uleb128 0x40
 4648 0188 18       		.uleb128 0x18
 4649 0189 9742     		.uleb128 0x2117
 4650 018b 19       		.uleb128 0x19
 4651 018c 00       		.byte	0
 4652 018d 00       		.byte	0
 4653 018e 19       		.uleb128 0x19
 4654 018f 34       		.uleb128 0x34
 4655 0190 00       		.byte	0
 4656 0191 03       		.uleb128 0x3
 4657 0192 0E       		.uleb128 0xe
 4658 0193 3A       		.uleb128 0x3a
 4659 0194 0B       		.uleb128 0xb
 4660 0195 3B       		.uleb128 0x3b
 4661 0196 0B       		.uleb128 0xb
 4662 0197 49       		.uleb128 0x49
 4663 0198 13       		.uleb128 0x13
 4664 0199 3F       		.uleb128 0x3f
 4665 019a 19       		.uleb128 0x19
 4666 019b 02       		.uleb128 0x2
 4667 019c 18       		.uleb128 0x18
 4668 019d 00       		.byte	0
 4669 019e 00       		.byte	0
 4670 019f 00       		.byte	0
 4671              		.section	.debug_aranges,"",%progbits
 4672 0000 9C010000 		.4byte	0x19c
 4673 0004 0200     		.2byte	0x2
 4674 0006 00000000 		.4byte	.Ldebug_info0
 4675 000a 04       		.byte	0x4
 4676 000b 00       		.byte	0
 4677 000c 0000     		.2byte	0
 4678 000e 0000     		.2byte	0
 4679 0010 00000000 		.4byte	.LFB0
 4680 0014 1C000000 		.4byte	.LFE0-.LFB0
 4681 0018 00000000 		.4byte	.LFB1
 4682 001c 18000000 		.4byte	.LFE1-.LFB1
 4683 0020 00000000 		.4byte	.LFB2
 4684 0024 1C000000 		.4byte	.LFE2-.LFB2
 4685 0028 00000000 		.4byte	.LFB3
ARM GAS  C:\Users\Chuck\AppData\Local\Temp\ccRFe4cO.s 			page 120


 4686 002c 18000000 		.4byte	.LFE3-.LFB3
 4687 0030 00000000 		.4byte	.LFB4
 4688 0034 40000000 		.4byte	.LFE4-.LFB4
 4689 0038 00000000 		.4byte	.LFB5
 4690 003c 44000000 		.4byte	.LFE5-.LFB5
 4691 0040 00000000 		.4byte	.LFB6
 4692 0044 00020000 		.4byte	.LFE6-.LFB6
 4693 0048 00000000 		.4byte	.LFB7
 4694 004c 44000000 		.4byte	.LFE7-.LFB7
 4695 0050 00000000 		.4byte	.LFB8
 4696 0054 5C000000 		.4byte	.LFE8-.LFB8
 4697 0058 00000000 		.4byte	.LFB9
 4698 005c 30000000 		.4byte	.LFE9-.LFB9
 4699 0060 00000000 		.4byte	.LFB10
 4700 0064 68000000 		.4byte	.LFE10-.LFB10
 4701 0068 00000000 		.4byte	.LFB11
 4702 006c 24000000 		.4byte	.LFE11-.LFB11
 4703 0070 00000000 		.4byte	.LFB12
 4704 0074 64000000 		.4byte	.LFE12-.LFB12
 4705 0078 00000000 		.4byte	.LFB13
 4706 007c 40000000 		.4byte	.LFE13-.LFB13
 4707 0080 00000000 		.4byte	.LFB14
 4708 0084 30000000 		.4byte	.LFE14-.LFB14
 4709 0088 00000000 		.4byte	.LFB15
 4710 008c 30000000 		.4byte	.LFE15-.LFB15
 4711 0090 00000000 		.4byte	.LFB16
 4712 0094 68000000 		.4byte	.LFE16-.LFB16
 4713 0098 00000000 		.4byte	.LFB17
 4714 009c 1C000000 		.4byte	.LFE17-.LFB17
 4715 00a0 00000000 		.4byte	.LFB18
 4716 00a4 78000000 		.4byte	.LFE18-.LFB18
 4717 00a8 00000000 		.4byte	.LFB19
 4718 00ac 54000000 		.4byte	.LFE19-.LFB19
 4719 00b0 00000000 		.4byte	.LFB20
 4720 00b4 18000000 		.4byte	.LFE20-.LFB20
 4721 00b8 00000000 		.4byte	.LFB21
 4722 00bc 40000000 		.4byte	.LFE21-.LFB21
 4723 00c0 00000000 		.4byte	.LFB22
 4724 00c4 54000000 		.4byte	.LFE22-.LFB22
 4725 00c8 00000000 		.4byte	.LFB23
 4726 00cc 1C000000 		.4byte	.LFE23-.LFB23
 4727 00d0 00000000 		.4byte	.LFB24
 4728 00d4 B8000000 		.4byte	.LFE24-.LFB24
 4729 00d8 00000000 		.4byte	.LFB25
 4730 00dc 38000000 		.4byte	.LFE25-.LFB25
 4731 00e0 00000000 		.4byte	.LFB26
 4732 00e4 48000000 		.4byte	.LFE26-.LFB26
 4733 00e8 00000000 		.4byte	.LFB27
 4734 00ec 28000000 		.4byte	.LFE27-.LFB27
 4735 00f0 00000000 		.4byte	.LFB28
 4736 00f4 18000000 		.4byte	.LFE28-.LFB28
 4737 00f8 00000000 		.4byte	.LFB29
 4738 00fc 14000000 		.4byte	.LFE29-.LFB29
 4739 0100 00000000 		.4byte	.LFB30
 4740 0104 30000000 		.4byte	.LFE30-.LFB30
 4741 0108 00000000 		.4byte	.LFB31
 4742 010c 24000000 		.4byte	.LFE31-.LFB31
ARM GAS  C:\Users\Chuck\AppData\Local\Temp\ccRFe4cO.s 			page 121


 4743 0110 00000000 		.4byte	.LFB32
 4744 0114 18000000 		.4byte	.LFE32-.LFB32
 4745 0118 00000000 		.4byte	.LFB33
 4746 011c 48000000 		.4byte	.LFE33-.LFB33
 4747 0120 00000000 		.4byte	.LFB34
 4748 0124 34000000 		.4byte	.LFE34-.LFB34
 4749 0128 00000000 		.4byte	.LFB35
 4750 012c 4C000000 		.4byte	.LFE35-.LFB35
 4751 0130 00000000 		.4byte	.LFB36
 4752 0134 36000000 		.4byte	.LFE36-.LFB36
 4753 0138 00000000 		.4byte	.LFB37
 4754 013c A8000000 		.4byte	.LFE37-.LFB37
 4755 0140 00000000 		.4byte	.LFB38
 4756 0144 5C000000 		.4byte	.LFE38-.LFB38
 4757 0148 00000000 		.4byte	.LFB39
 4758 014c 28000000 		.4byte	.LFE39-.LFB39
 4759 0150 00000000 		.4byte	.LFB40
 4760 0154 30000000 		.4byte	.LFE40-.LFB40
 4761 0158 00000000 		.4byte	.LFB41
 4762 015c 28000000 		.4byte	.LFE41-.LFB41
 4763 0160 00000000 		.4byte	.LFB42
 4764 0164 28000000 		.4byte	.LFE42-.LFB42
 4765 0168 00000000 		.4byte	.LFB43
 4766 016c 28000000 		.4byte	.LFE43-.LFB43
 4767 0170 00000000 		.4byte	.LFB44
 4768 0174 14000000 		.4byte	.LFE44-.LFB44
 4769 0178 00000000 		.4byte	.LFB45
 4770 017c 20000000 		.4byte	.LFE45-.LFB45
 4771 0180 00000000 		.4byte	.LFB46
 4772 0184 48000000 		.4byte	.LFE46-.LFB46
 4773 0188 00000000 		.4byte	.LFB47
 4774 018c 28000000 		.4byte	.LFE47-.LFB47
 4775 0190 00000000 		.4byte	.LFB48
 4776 0194 84000000 		.4byte	.LFE48-.LFB48
 4777 0198 00000000 		.4byte	0
 4778 019c 00000000 		.4byte	0
 4779              		.section	.debug_ranges,"",%progbits
 4780              	.Ldebug_ranges0:
 4781 0000 00000000 		.4byte	.LFB0
 4782 0004 1C000000 		.4byte	.LFE0
 4783 0008 00000000 		.4byte	.LFB1
 4784 000c 18000000 		.4byte	.LFE1
 4785 0010 00000000 		.4byte	.LFB2
 4786 0014 1C000000 		.4byte	.LFE2
 4787 0018 00000000 		.4byte	.LFB3
 4788 001c 18000000 		.4byte	.LFE3
 4789 0020 00000000 		.4byte	.LFB4
 4790 0024 40000000 		.4byte	.LFE4
 4791 0028 00000000 		.4byte	.LFB5
 4792 002c 44000000 		.4byte	.LFE5
 4793 0030 00000000 		.4byte	.LFB6
 4794 0034 00020000 		.4byte	.LFE6
 4795 0038 00000000 		.4byte	.LFB7
 4796 003c 44000000 		.4byte	.LFE7
 4797 0040 00000000 		.4byte	.LFB8
 4798 0044 5C000000 		.4byte	.LFE8
 4799 0048 00000000 		.4byte	.LFB9
ARM GAS  C:\Users\Chuck\AppData\Local\Temp\ccRFe4cO.s 			page 122


 4800 004c 30000000 		.4byte	.LFE9
 4801 0050 00000000 		.4byte	.LFB10
 4802 0054 68000000 		.4byte	.LFE10
 4803 0058 00000000 		.4byte	.LFB11
 4804 005c 24000000 		.4byte	.LFE11
 4805 0060 00000000 		.4byte	.LFB12
 4806 0064 64000000 		.4byte	.LFE12
 4807 0068 00000000 		.4byte	.LFB13
 4808 006c 40000000 		.4byte	.LFE13
 4809 0070 00000000 		.4byte	.LFB14
 4810 0074 30000000 		.4byte	.LFE14
 4811 0078 00000000 		.4byte	.LFB15
 4812 007c 30000000 		.4byte	.LFE15
 4813 0080 00000000 		.4byte	.LFB16
 4814 0084 68000000 		.4byte	.LFE16
 4815 0088 00000000 		.4byte	.LFB17
 4816 008c 1C000000 		.4byte	.LFE17
 4817 0090 00000000 		.4byte	.LFB18
 4818 0094 78000000 		.4byte	.LFE18
 4819 0098 00000000 		.4byte	.LFB19
 4820 009c 54000000 		.4byte	.LFE19
 4821 00a0 00000000 		.4byte	.LFB20
 4822 00a4 18000000 		.4byte	.LFE20
 4823 00a8 00000000 		.4byte	.LFB21
 4824 00ac 40000000 		.4byte	.LFE21
 4825 00b0 00000000 		.4byte	.LFB22
 4826 00b4 54000000 		.4byte	.LFE22
 4827 00b8 00000000 		.4byte	.LFB23
 4828 00bc 1C000000 		.4byte	.LFE23
 4829 00c0 00000000 		.4byte	.LFB24
 4830 00c4 B8000000 		.4byte	.LFE24
 4831 00c8 00000000 		.4byte	.LFB25
 4832 00cc 38000000 		.4byte	.LFE25
 4833 00d0 00000000 		.4byte	.LFB26
 4834 00d4 48000000 		.4byte	.LFE26
 4835 00d8 00000000 		.4byte	.LFB27
 4836 00dc 28000000 		.4byte	.LFE27
 4837 00e0 00000000 		.4byte	.LFB28
 4838 00e4 18000000 		.4byte	.LFE28
 4839 00e8 00000000 		.4byte	.LFB29
 4840 00ec 14000000 		.4byte	.LFE29
 4841 00f0 00000000 		.4byte	.LFB30
 4842 00f4 30000000 		.4byte	.LFE30
 4843 00f8 00000000 		.4byte	.LFB31
 4844 00fc 24000000 		.4byte	.LFE31
 4845 0100 00000000 		.4byte	.LFB32
 4846 0104 18000000 		.4byte	.LFE32
 4847 0108 00000000 		.4byte	.LFB33
 4848 010c 48000000 		.4byte	.LFE33
 4849 0110 00000000 		.4byte	.LFB34
 4850 0114 34000000 		.4byte	.LFE34
 4851 0118 00000000 		.4byte	.LFB35
 4852 011c 4C000000 		.4byte	.LFE35
 4853 0120 00000000 		.4byte	.LFB36
 4854 0124 36000000 		.4byte	.LFE36
 4855 0128 00000000 		.4byte	.LFB37
 4856 012c A8000000 		.4byte	.LFE37
ARM GAS  C:\Users\Chuck\AppData\Local\Temp\ccRFe4cO.s 			page 123


 4857 0130 00000000 		.4byte	.LFB38
 4858 0134 5C000000 		.4byte	.LFE38
 4859 0138 00000000 		.4byte	.LFB39
 4860 013c 28000000 		.4byte	.LFE39
 4861 0140 00000000 		.4byte	.LFB40
 4862 0144 30000000 		.4byte	.LFE40
 4863 0148 00000000 		.4byte	.LFB41
 4864 014c 28000000 		.4byte	.LFE41
 4865 0150 00000000 		.4byte	.LFB42
 4866 0154 28000000 		.4byte	.LFE42
 4867 0158 00000000 		.4byte	.LFB43
 4868 015c 28000000 		.4byte	.LFE43
 4869 0160 00000000 		.4byte	.LFB44
 4870 0164 14000000 		.4byte	.LFE44
 4871 0168 00000000 		.4byte	.LFB45
 4872 016c 20000000 		.4byte	.LFE45
 4873 0170 00000000 		.4byte	.LFB46
 4874 0174 48000000 		.4byte	.LFE46
 4875 0178 00000000 		.4byte	.LFB47
 4876 017c 28000000 		.4byte	.LFE47
 4877 0180 00000000 		.4byte	.LFB48
 4878 0184 84000000 		.4byte	.LFE48
 4879 0188 00000000 		.4byte	0
 4880 018c 00000000 		.4byte	0
 4881              		.section	.debug_line,"",%progbits
 4882              	.Ldebug_line0:
 4883 0000 39050000 		.section	.debug_str,"MS",%progbits,1
 4883      02004400 
 4883      00000201 
 4883      FB0E0D00 
 4883      01010101 
 4884              	.LASF37:
 4885 0000 43795379 		.ascii	"CySysWdtWriteMode\000"
 4885      73576474 
 4885      57726974 
 4885      654D6F64 
 4885      6500
 4886              	.LASF30:
 4887 0012 62675472 		.ascii	"bgTrim4\000"
 4887      696D3400 
 4888              	.LASF10:
 4889 001a 75696E74 		.ascii	"uint16\000"
 4889      313600
 4890              	.LASF74:
 4891 0021 696E7453 		.ascii	"intState\000"
 4891      74617465 
 4891      00
 4892              	.LASF88:
 4893 002a 76616C75 		.ascii	"value\000"
 4893      6500
 4894              	.LASF23:
 4895 0030 43795379 		.ascii	"CySysClkWriteHfclkDirect\000"
 4895      73436C6B 
 4895      57726974 
 4895      65486663 
 4895      6C6B4469 
 4896              	.LASF35:
ARM GAS  C:\Users\Chuck\AppData\Local\Temp\ccRFe4cO.s 			page 124


 4897 0049 43795379 		.ascii	"CySysWdtUnlock\000"
 4897      73576474 
 4897      556E6C6F 
 4897      636B00
 4898              	.LASF80:
 4899 0058 6F6C6449 		.ascii	"oldIsr\000"
 4899      737200
 4900              	.LASF36:
 4901 005f 636F756E 		.ascii	"counterNum\000"
 4901      7465724E 
 4901      756D00
 4902              	.LASF73:
 4903 006a 43794469 		.ascii	"CyDisableInts\000"
 4903      7361626C 
 4903      65496E74 
 4903      7300
 4904              	.LASF105:
 4905 0078 63796465 		.ascii	"cydelay32kMs\000"
 4905      6C617933 
 4905      326B4D73 
 4905      00
 4906              	.LASF7:
 4907 0085 6C6F6E67 		.ascii	"long long unsigned int\000"
 4907      206C6F6E 
 4907      6720756E 
 4907      7369676E 
 4907      65642069 
 4908              	.LASF75:
 4909 009c 4379456E 		.ascii	"CyEnableInts\000"
 4909      61626C65 
 4909      496E7473 
 4909      00
 4910              	.LASF96:
 4911 00a9 4379536F 		.ascii	"CySoftwareReset\000"
 4911      66747761 
 4911      72655265 
 4911      73657400 
 4912              	.LASF91:
 4913 00b9 4379496E 		.ascii	"CyIntGetState\000"
 4913      74476574 
 4913      53746174 
 4913      6500
 4914              	.LASF6:
 4915 00c7 6C6F6E67 		.ascii	"long long int\000"
 4915      206C6F6E 
 4915      6720696E 
 4915      7400
 4916              	.LASF0:
 4917 00d5 7369676E 		.ascii	"signed char\000"
 4917      65642063 
 4917      68617200 
 4918              	.LASF29:
 4919 00e1 66726571 		.ascii	"freq\000"
 4919      00
 4920              	.LASF59:
 4921 00e6 43795379 		.ascii	"CySysWdtReadCount\000"
 4921      73576474 
ARM GAS  C:\Users\Chuck\AppData\Local\Temp\ccRFe4cO.s 			page 125


 4921      52656164 
 4921      436F756E 
 4921      7400
 4922              	.LASF101:
 4923 00f8 43794465 		.ascii	"CyDelayFreq\000"
 4923      6C617946 
 4923      72657100 
 4924              	.LASF106:
 4925 0104 474E5520 		.ascii	"GNU C 4.9.3 20150303 (release) [ARM/embedded-4_9-br"
 4925      4320342E 
 4925      392E3320 
 4925      32303135 
 4925      30333033 
 4926 0137 616E6368 		.ascii	"anch revision 221220] -mcpu=cortex-m0 -mthumb -g -O"
 4926      20726576 
 4926      6973696F 
 4926      6E203232 
 4926      31323230 
 4927 016a 30202D66 		.ascii	"0 -ffunction-sections -ffat-lto-objects -fno-rtti -"
 4927      66756E63 
 4927      74696F6E 
 4927      2D736563 
 4927      74696F6E 
 4928 019d 666E6F2D 		.ascii	"fno-exceptions -funsigned-char -funsigned-bitfields"
 4928      65786365 
 4928      7074696F 
 4928      6E73202D 
 4928      66756E73 
 4929 01d0 202D6673 		.ascii	" -fshort-enums\000"
 4929      686F7274 
 4929      2D656E75 
 4929      6D7300
 4930              	.LASF27:
 4931 01df 696E7465 		.ascii	"interruptState\000"
 4931      72727570 
 4931      74537461 
 4931      746500
 4932              	.LASF99:
 4933 01ee 43794465 		.ascii	"CyDelayUs\000"
 4933      6C617955 
 4933      7300
 4934              	.LASF51:
 4935 01f8 43795379 		.ascii	"CySysWdtWriteMatch\000"
 4935      73576474 
 4935      57726974 
 4935      654D6174 
 4935      636800
 4936              	.LASF55:
 4937 020b 62697473 		.ascii	"bits\000"
 4937      00
 4938              	.LASF4:
 4939 0210 6C6F6E67 		.ascii	"long int\000"
 4939      20696E74 
 4939      00
 4940              	.LASF92:
 4941 0219 4379496E 		.ascii	"CyIntDisable\000"
 4941      74446973 
ARM GAS  C:\Users\Chuck\AppData\Local\Temp\ccRFe4cO.s 			page 126


 4941      61626C65 
 4941      00
 4942              	.LASF9:
 4943 0226 75696E74 		.ascii	"uint8\000"
 4943      3800
 4944              	.LASF103:
 4945 022c 63796465 		.ascii	"cydelayFreqKhz\000"
 4945      6C617946 
 4945      7265714B 
 4945      687A00
 4946              	.LASF43:
 4947 023b 656E6162 		.ascii	"enable\000"
 4947      6C6500
 4948              	.LASF13:
 4949 0242 646F7562 		.ascii	"double\000"
 4949      6C6500
 4950              	.LASF22:
 4951 0249 43795379 		.ascii	"CySysClkIloStop\000"
 4951      73436C6B 
 4951      496C6F53 
 4951      746F7000 
 4952              	.LASF48:
 4953 0259 43795379 		.ascii	"CySysWdtWriteCascade\000"
 4953      73576474 
 4953      57726974 
 4953      65436173 
 4953      63616465 
 4954              	.LASF87:
 4955 026e 73686966 		.ascii	"shift\000"
 4955      7400
 4956              	.LASF64:
 4957 0274 636F756E 		.ascii	"countersMask\000"
 4957      74657273 
 4957      4D61736B 
 4957      00
 4958              	.LASF69:
 4959 0281 43795379 		.ascii	"CySysLvdClearInterrupt\000"
 4959      734C7664 
 4959      436C6561 
 4959      72496E74 
 4959      65727275 
 4960              	.LASF11:
 4961 0298 75696E74 		.ascii	"uint32\000"
 4961      333200
 4962              	.LASF78:
 4963 029f 6E756D62 		.ascii	"number\000"
 4963      657200
 4964              	.LASF76:
 4965 02a6 6D61736B 		.ascii	"mask\000"
 4965      00
 4966              	.LASF53:
 4967 02ab 72656756 		.ascii	"regValue\000"
 4967      616C7565 
 4967      00
 4968              	.LASF41:
 4969 02b4 43795379 		.ascii	"CySysWdtReadMode\000"
 4969      73576474 
ARM GAS  C:\Users\Chuck\AppData\Local\Temp\ccRFe4cO.s 			page 127


 4969      52656164 
 4969      4D6F6465 
 4969      00
 4970              	.LASF65:
 4971 02c5 43795379 		.ascii	"CySysLvdEnable\000"
 4971      734C7664 
 4971      456E6162 
 4971      6C6500
 4972              	.LASF89:
 4973 02d4 4379496E 		.ascii	"CyIntGetPriority\000"
 4973      74476574 
 4973      5072696F 
 4973      72697479 
 4973      00
 4974              	.LASF50:
 4975 02e5 636F756E 		.ascii	"countersEnableStatus\000"
 4975      74657273 
 4975      456E6162 
 4975      6C655374 
 4975      61747573 
 4976              	.LASF45:
 4977 02fa 43795379 		.ascii	"CySysWdtEnable\000"
 4977      73576474 
 4977      456E6162 
 4977      6C6500
 4978              	.LASF46:
 4979 0309 636F756E 		.ascii	"counterMask\000"
 4979      7465724D 
 4979      61736B00 
 4980              	.LASF8:
 4981 0315 756E7369 		.ascii	"unsigned int\000"
 4981      676E6564 
 4981      20696E74 
 4981      00
 4982              	.LASF5:
 4983 0322 6C6F6E67 		.ascii	"long unsigned int\000"
 4983      20756E73 
 4983      69676E65 
 4983      6420696E 
 4983      7400
 4984              	.LASF68:
 4985 0334 43795379 		.ascii	"CySysLvdGetInterruptSource\000"
 4985      734C7664 
 4985      47657449 
 4985      6E746572 
 4985      72757074 
 4986              	.LASF20:
 4987 034f 43795379 		.ascii	"CySysClkImoStop\000"
 4987      73436C6B 
 4987      496D6F53 
 4987      746F7000 
 4988              	.LASF93:
 4989 035f 4379496E 		.ascii	"CyIntSetPending\000"
 4989      74536574 
 4989      50656E64 
 4989      696E6700 
 4990              	.LASF70:
ARM GAS  C:\Users\Chuck\AppData\Local\Temp\ccRFe4cO.s 			page 128


 4991 036f 43795379 		.ascii	"CySysGetResetReason\000"
 4991      73476574 
 4991      52657365 
 4991      74526561 
 4991      736F6E00 
 4992              	.LASF3:
 4993 0383 73686F72 		.ascii	"short unsigned int\000"
 4993      7420756E 
 4993      7369676E 
 4993      65642069 
 4993      6E7400
 4994              	.LASF83:
 4995 0396 4379496E 		.ascii	"CyIntSetVector\000"
 4995      74536574 
 4995      56656374 
 4995      6F7200
 4996              	.LASF107:
 4997 03a5 2E5C4765 		.ascii	".\\Generated_Source\\PSoC4\\CyLib.c\000"
 4997      6E657261 
 4997      7465645F 
 4997      536F7572 
 4997      63655C50 
 4998              	.LASF21:
 4999 03c6 43795379 		.ascii	"CySysClkIloStart\000"
 4999      73436C6B 
 4999      496C6F53 
 4999      74617274 
 4999      00
 5000              	.LASF28:
 5001 03d7 43795379 		.ascii	"CySysClkWriteImoFreq\000"
 5001      73436C6B 
 5001      57726974 
 5001      65496D6F 
 5001      46726571 
 5002              	.LASF77:
 5003 03ec 4379496E 		.ascii	"CyIntSetSysVector\000"
 5003      74536574 
 5003      53797356 
 5003      6563746F 
 5003      7200
 5004              	.LASF16:
 5005 03fe 72656733 		.ascii	"reg32\000"
 5005      3200
 5006              	.LASF42:
 5007 0404 43795379 		.ascii	"CySysWdtWriteClearOnMatch\000"
 5007      73576474 
 5007      57726974 
 5007      65436C65 
 5007      61724F6E 
 5008              	.LASF108:
 5009 041e 453A5C50 		.ascii	"E:\\PSoC\\RosOnAStick\\RosOnAStick.cydsn\000"
 5009      536F435C 
 5009      526F734F 
 5009      6E415374 
 5009      69636B5C 
 5010              	.LASF44:
 5011 0444 43795379 		.ascii	"CySysWdtReadClearOnMatch\000"
ARM GAS  C:\Users\Chuck\AppData\Local\Temp\ccRFe4cO.s 			page 129


 5011      73576474 
 5011      52656164 
 5011      436C6561 
 5011      724F6E4D 
 5012              	.LASF18:
 5013 045d 73697A65 		.ascii	"sizetype\000"
 5013      74797065 
 5013      00
 5014              	.LASF94:
 5015 0466 4379496E 		.ascii	"CyIntClearPending\000"
 5015      74436C65 
 5015      61725065 
 5015      6E64696E 
 5015      6700
 5016              	.LASF79:
 5017 0478 61646472 		.ascii	"address\000"
 5017      65737300 
 5018              	.LASF31:
 5019 0480 62675472 		.ascii	"bgTrim5\000"
 5019      696D3500 
 5020              	.LASF52:
 5021 0488 6D617463 		.ascii	"match\000"
 5021      6800
 5022              	.LASF33:
 5023 048e 6379496D 		.ascii	"cyImoFreqMhz2Reg\000"
 5023      6F467265 
 5023      714D687A 
 5023      32526567 
 5023      00
 5024              	.LASF102:
 5025 049f 63796465 		.ascii	"cydelayFreqHz\000"
 5025      6C617946 
 5025      72657148 
 5025      7A00
 5026              	.LASF63:
 5027 04ad 43795379 		.ascii	"CySysWdtResetCounters\000"
 5027      73576474 
 5027      52657365 
 5027      74436F75 
 5027      6E746572 
 5028              	.LASF85:
 5029 04c3 4379496E 		.ascii	"CyIntSetPriority\000"
 5029      74536574 
 5029      5072696F 
 5029      72697479 
 5029      00
 5030              	.LASF61:
 5031 04d4 43795379 		.ascii	"CySysWdtClearInterrupt\000"
 5031      73576474 
 5031      436C6561 
 5031      72496E74 
 5031      65727275 
 5032              	.LASF12:
 5033 04eb 666C6F61 		.ascii	"float\000"
 5033      7400
 5034              	.LASF84:
 5035 04f1 4379496E 		.ascii	"CyIntGetVector\000"
ARM GAS  C:\Users\Chuck\AppData\Local\Temp\ccRFe4cO.s 			page 130


 5035      74476574 
 5035      56656374 
 5035      6F7200
 5036              	.LASF98:
 5037 0500 6D696C6C 		.ascii	"milliseconds\000"
 5037      69736563 
 5037      6F6E6473 
 5037      00
 5038              	.LASF57:
 5039 050d 43795379 		.ascii	"CySysWdtReadToggleBit\000"
 5039      73576474 
 5039      52656164 
 5039      546F6767 
 5039      6C654269 
 5040              	.LASF15:
 5041 0523 72656738 		.ascii	"reg8\000"
 5041      00
 5042              	.LASF66:
 5043 0528 74687265 		.ascii	"threshold\000"
 5043      73686F6C 
 5043      6400
 5044              	.LASF95:
 5045 0532 43794861 		.ascii	"CyHalt\000"
 5045      6C7400
 5046              	.LASF1:
 5047 0539 756E7369 		.ascii	"unsigned char\000"
 5047      676E6564 
 5047      20636861 
 5047      7200
 5048              	.LASF2:
 5049 0547 73686F72 		.ascii	"short int\000"
 5049      7420696E 
 5049      7400
 5050              	.LASF56:
 5051 0551 43795379 		.ascii	"CySysWdtReadCascade\000"
 5051      73576474 
 5051      52656164 
 5051      43617363 
 5051      61646500 
 5052              	.LASF47:
 5053 0565 43795379 		.ascii	"CySysWdtDisable\000"
 5053      73576474 
 5053      44697361 
 5053      626C6500 
 5054              	.LASF90:
 5055 0575 4379496E 		.ascii	"CyIntEnable\000"
 5055      74456E61 
 5055      626C6500 
 5056              	.LASF82:
 5057 0581 4379496E 		.ascii	"CyIntGetSysVector\000"
 5057      74476574 
 5057      53797356 
 5057      6563746F 
 5057      7200
 5058              	.LASF58:
 5059 0593 43795379 		.ascii	"CySysWdtReadMatch\000"
 5059      73576474 
ARM GAS  C:\Users\Chuck\AppData\Local\Temp\ccRFe4cO.s 			page 131


 5059      52656164 
 5059      4D617463 
 5059      6800
 5060              	.LASF25:
 5061 05a5 636C6B53 		.ascii	"clkSelect\000"
 5061      656C6563 
 5061      7400
 5062              	.LASF60:
 5063 05af 43795379 		.ascii	"CySysWdtGetInterruptSource\000"
 5063      73576474 
 5063      47657449 
 5063      6E746572 
 5063      72757074 
 5064              	.LASF71:
 5065 05ca 72656173 		.ascii	"reason\000"
 5065      6F6E00
 5066              	.LASF81:
 5067 05d1 72616D56 		.ascii	"ramVectorTable\000"
 5067      6563746F 
 5067      72546162 
 5067      6C6500
 5068              	.LASF14:
 5069 05e0 63686172 		.ascii	"char\000"
 5069      00
 5070              	.LASF86:
 5071 05e5 7072696F 		.ascii	"priority\000"
 5071      72697479 
 5071      00
 5072              	.LASF38:
 5073 05ee 6D6F6465 		.ascii	"mode\000"
 5073      00
 5074              	.LASF17:
 5075 05f3 63796973 		.ascii	"cyisraddress\000"
 5075      72616464 
 5075      72657373 
 5075      00
 5076              	.LASF34:
 5077 0600 43795379 		.ascii	"CySysWdtLock\000"
 5077      73576474 
 5077      4C6F636B 
 5077      00
 5078              	.LASF32:
 5079 060d 63757272 		.ascii	"currentFreq\000"
 5079      656E7446 
 5079      72657100 
 5080              	.LASF24:
 5081 0619 43795379 		.ascii	"CySysClkWriteSysclkDiv\000"
 5081      73436C6B 
 5081      57726974 
 5081      65537973 
 5081      636C6B44 
 5082              	.LASF97:
 5083 0630 43794465 		.ascii	"CyDelay\000"
 5083      6C617900 
 5084              	.LASF67:
 5085 0638 43795379 		.ascii	"CySysLvdDisable\000"
 5085      734C7664 
ARM GAS  C:\Users\Chuck\AppData\Local\Temp\ccRFe4cO.s 			page 132


 5085      44697361 
 5085      626C6500 
 5086              	.LASF39:
 5087 0648 636F6E66 		.ascii	"configRegValue\000"
 5087      69675265 
 5087      6756616C 
 5087      756500
 5088              	.LASF104:
 5089 0657 63796465 		.ascii	"cydelayFreqMhz\000"
 5089      6C617946 
 5089      7265714D 
 5089      687A00
 5090              	.LASF62:
 5091 0666 7764744C 		.ascii	"wdtLockState\000"
 5091      6F636B53 
 5091      74617465 
 5091      00
 5092              	.LASF72:
 5093 0673 73746174 		.ascii	"status\000"
 5093      757300
 5094              	.LASF49:
 5095 067a 63617363 		.ascii	"cascadeMask\000"
 5095      6164654D 
 5095      61736B00 
 5096              	.LASF26:
 5097 0686 64697669 		.ascii	"divider\000"
 5097      64657200 
 5098              	.LASF19:
 5099 068e 43795379 		.ascii	"CySysClkImoStart\000"
 5099      73436C6B 
 5099      496D6F53 
 5099      74617274 
 5099      00
 5100              	.LASF40:
 5101 069f 43795379 		.ascii	"CySysWdtReadEnabledStatus\000"
 5101      73576474 
 5101      52656164 
 5101      456E6162 
 5101      6C656453 
 5102              	.LASF100:
 5103 06b9 6D696372 		.ascii	"microseconds\000"
 5103      6F736563 
 5103      6F6E6473 
 5103      00
 5104              	.LASF54:
 5105 06c6 43795379 		.ascii	"CySysWdtWriteToggleBit\000"
 5105      73576474 
 5105      57726974 
 5105      65546F67 
 5105      676C6542 
 5106              		.ident	"GCC: (GNU Tools for ARM Embedded Processors) 4.9.3 20150303 (release) [ARM/embedded-4_9-br
