ARM GAS  C:\Users\Chuck\AppData\Local\Temp\ccNCRqO6.s 			page 1


   1              		.cpu cortex-m0
   2              		.fpu softvfp
   3              		.eabi_attribute 20, 1
   4              		.eabi_attribute 21, 1
   5              		.eabi_attribute 23, 3
   6              		.eabi_attribute 24, 1
   7              		.eabi_attribute 25, 1
   8              		.eabi_attribute 26, 1
   9              		.eabi_attribute 30, 6
  10              		.eabi_attribute 34, 0
  11              		.eabi_attribute 18, 4
  12              		.code	16
  13              		.file	"I2C_device.cpp"
  14              		.text
  15              	.Ltext0:
  16              		.cfi_sections	.debug_frame
  17              		.section	.text._ZN3ros3MsgC2Ev,"axG",%progbits,_ZN3ros3MsgC5Ev,comdat
  18              		.align	2
  19              		.weak	_ZN3ros3MsgC2Ev
  20              		.code	16
  21              		.thumb_func
  22              		.type	_ZN3ros3MsgC2Ev, %function
  23              	_ZN3ros3MsgC2Ev:
  24              	.LFB54:
  25              		.file 1 "./ros_lib/ros/msg.h"
   1:./ros_lib/ros/msg.h **** /* 
   2:./ros_lib/ros/msg.h ****  * Software License Agreement (BSD License)
   3:./ros_lib/ros/msg.h ****  *
   4:./ros_lib/ros/msg.h ****  * Copyright (c) 2011, Willow Garage, Inc.
   5:./ros_lib/ros/msg.h ****  * All rights reserved.
   6:./ros_lib/ros/msg.h ****  *
   7:./ros_lib/ros/msg.h ****  * Redistribution and use in source and binary forms, with or without
   8:./ros_lib/ros/msg.h ****  * modification, are permitted provided that the following conditions
   9:./ros_lib/ros/msg.h ****  * are met:
  10:./ros_lib/ros/msg.h ****  *
  11:./ros_lib/ros/msg.h ****  *  * Redistributions of source code must retain the above copyright
  12:./ros_lib/ros/msg.h ****  *    notice, this list of conditions and the following disclaimer.
  13:./ros_lib/ros/msg.h ****  *  * Redistributions in binary form must reproduce the above
  14:./ros_lib/ros/msg.h ****  *    copyright notice, this list of conditions and the following
  15:./ros_lib/ros/msg.h ****  *    disclaimer in the documentation and/or other materials provided
  16:./ros_lib/ros/msg.h ****  *    with the distribution.
  17:./ros_lib/ros/msg.h ****  *  * Neither the name of Willow Garage, Inc. nor the names of its
  18:./ros_lib/ros/msg.h ****  *    contributors may be used to endorse or promote prducts derived
  19:./ros_lib/ros/msg.h ****  *    from this software without specific prior written permission.
  20:./ros_lib/ros/msg.h ****  *
  21:./ros_lib/ros/msg.h ****  * THIS SOFTWARE IS PROVIDED BY THE COPYRIGHT HOLDERS AND CONTRIBUTORS
  22:./ros_lib/ros/msg.h ****  * "AS IS" AND ANY EXPRESS OR IMPLIED WARRANTIES, INCLUDING, BUT NOT
  23:./ros_lib/ros/msg.h ****  * LIMITED TO, THE IMPLIED WARRANTIES OF MERCHANTABILITY AND FITNESS
  24:./ros_lib/ros/msg.h ****  * FOR A PARTICULAR PURPOSE ARE DISCLAIMED. IN NO EVENT SHALL THE
  25:./ros_lib/ros/msg.h ****  * COPYRIGHT OWNER OR CONTRIBUTORS BE LIABLE FOR ANY DIRECT, INDIRECT,
  26:./ros_lib/ros/msg.h ****  * INCIDENTAL, SPECIAL, EXEMPLARY, OR CONSEQUENTIAL DAMAGES (INCLUDING,
  27:./ros_lib/ros/msg.h ****  * BUT NOT LIMITED TO, PROCUREMENT OF SUBSTITUTE GOODS OR SERVICES;
  28:./ros_lib/ros/msg.h ****  * LOSS OF USE, DATA, OR PROFITS; OR BUSINESS INTERRUPTION) HOWEVER
  29:./ros_lib/ros/msg.h ****  * CAUSED AND ON ANY THEORY OF LIABILITY, WHETHER IN CONTRACT, STRICT
  30:./ros_lib/ros/msg.h ****  * LIABILITY, OR TORT (INCLUDING NEGLIGENCE OR OTHERWISE) ARISING IN
  31:./ros_lib/ros/msg.h ****  * ANY WAY OUT OF THE USE OF THIS SOFTWARE, EVEN IF ADVISED OF THE
  32:./ros_lib/ros/msg.h ****  * POSSIBILITY OF SUCH DAMAGE.
ARM GAS  C:\Users\Chuck\AppData\Local\Temp\ccNCRqO6.s 			page 2


  33:./ros_lib/ros/msg.h ****  */
  34:./ros_lib/ros/msg.h **** 
  35:./ros_lib/ros/msg.h **** #ifndef _ROS_MSG_H_
  36:./ros_lib/ros/msg.h **** #define _ROS_MSG_H_
  37:./ros_lib/ros/msg.h **** 
  38:./ros_lib/ros/msg.h **** #include <stdint.h>
  39:./ros_lib/ros/msg.h **** 
  40:./ros_lib/ros/msg.h **** namespace ros {
  41:./ros_lib/ros/msg.h **** 
  42:./ros_lib/ros/msg.h **** /* Base Message Type */
  43:./ros_lib/ros/msg.h **** class Msg
  26              		.loc 1 43 0
  27              		.cfi_startproc
  28 0000 80B5     		push	{r7, lr}
  29              		.cfi_def_cfa_offset 8
  30              		.cfi_offset 7, -8
  31              		.cfi_offset 14, -4
  32 0002 82B0     		sub	sp, sp, #8
  33              		.cfi_def_cfa_offset 16
  34 0004 00AF     		add	r7, sp, #0
  35              		.cfi_def_cfa_register 7
  36 0006 7860     		str	r0, [r7, #4]
  37              	.LBB2:
  38              		.loc 1 43 0
  39 0008 7B68     		ldr	r3, [r7, #4]
  40 000a 034A     		ldr	r2, .L4
  41 000c 1A60     		str	r2, [r3]
  42              	.LBE2:
  43 000e 7B68     		ldr	r3, [r7, #4]
  44 0010 181C     		mov	r0, r3
  45 0012 BD46     		mov	sp, r7
  46 0014 02B0     		add	sp, sp, #8
  47              		@ sp needed
  48 0016 80BD     		pop	{r7, pc}
  49              	.L5:
  50              		.align	2
  51              	.L4:
  52 0018 08000000 		.word	_ZTVN3ros3MsgE+8
  53              		.cfi_endproc
  54              	.LFE54:
  55              		.size	_ZN3ros3MsgC2Ev, .-_ZN3ros3MsgC2Ev
  56              		.weak	_ZN3ros3MsgC1Ev
  57              		.thumb_set _ZN3ros3MsgC1Ev,_ZN3ros3MsgC2Ev
  58              		.section	.text._ZN3ros9PublisherC2EPKcPNS_3MsgEi,"axG",%progbits,_ZN3ros9PublisherC5EPKcPNS_3MsgEi
  59              		.align	2
  60              		.weak	_ZN3ros9PublisherC2EPKcPNS_3MsgEi
  61              		.code	16
  62              		.thumb_func
  63              		.type	_ZN3ros9PublisherC2EPKcPNS_3MsgEi, %function
  64              	_ZN3ros9PublisherC2EPKcPNS_3MsgEi:
  65              	.LFB91:
  66              		.file 2 "./ros_lib/ros/publisher.h"
   1:./ros_lib/ros/publisher.h **** /* 
   2:./ros_lib/ros/publisher.h ****  * Software License Agreement (BSD License)
   3:./ros_lib/ros/publisher.h ****  *
   4:./ros_lib/ros/publisher.h ****  * Copyright (c) 2011, Willow Garage, Inc.
   5:./ros_lib/ros/publisher.h ****  * All rights reserved.
ARM GAS  C:\Users\Chuck\AppData\Local\Temp\ccNCRqO6.s 			page 3


   6:./ros_lib/ros/publisher.h ****  *
   7:./ros_lib/ros/publisher.h ****  * Redistribution and use in source and binary forms, with or without
   8:./ros_lib/ros/publisher.h ****  * modification, are permitted provided that the following conditions
   9:./ros_lib/ros/publisher.h ****  * are met:
  10:./ros_lib/ros/publisher.h ****  *
  11:./ros_lib/ros/publisher.h ****  *  * Redistributions of source code must retain the above copyright
  12:./ros_lib/ros/publisher.h ****  *    notice, this list of conditions and the following disclaimer.
  13:./ros_lib/ros/publisher.h ****  *  * Redistributions in binary form must reproduce the above
  14:./ros_lib/ros/publisher.h ****  *    copyright notice, this list of conditions and the following
  15:./ros_lib/ros/publisher.h ****  *    disclaimer in the documentation and/or other materials provided
  16:./ros_lib/ros/publisher.h ****  *    with the distribution.
  17:./ros_lib/ros/publisher.h ****  *  * Neither the name of Willow Garage, Inc. nor the names of its
  18:./ros_lib/ros/publisher.h ****  *    contributors may be used to endorse or promote prducts derived
  19:./ros_lib/ros/publisher.h ****  *    from this software without specific prior written permission.
  20:./ros_lib/ros/publisher.h ****  *
  21:./ros_lib/ros/publisher.h ****  * THIS SOFTWARE IS PROVIDED BY THE COPYRIGHT HOLDERS AND CONTRIBUTORS
  22:./ros_lib/ros/publisher.h ****  * "AS IS" AND ANY EXPRESS OR IMPLIED WARRANTIES, INCLUDING, BUT NOT
  23:./ros_lib/ros/publisher.h ****  * LIMITED TO, THE IMPLIED WARRANTIES OF MERCHANTABILITY AND FITNESS
  24:./ros_lib/ros/publisher.h ****  * FOR A PARTICULAR PURPOSE ARE DISCLAIMED. IN NO EVENT SHALL THE
  25:./ros_lib/ros/publisher.h ****  * COPYRIGHT OWNER OR CONTRIBUTORS BE LIABLE FOR ANY DIRECT, INDIRECT,
  26:./ros_lib/ros/publisher.h ****  * INCIDENTAL, SPECIAL, EXEMPLARY, OR CONSEQUENTIAL DAMAGES (INCLUDING,
  27:./ros_lib/ros/publisher.h ****  * BUT NOT LIMITED TO, PROCUREMENT OF SUBSTITUTE GOODS OR SERVICES;
  28:./ros_lib/ros/publisher.h ****  * LOSS OF USE, DATA, OR PROFITS; OR BUSINESS INTERRUPTION) HOWEVER
  29:./ros_lib/ros/publisher.h ****  * CAUSED AND ON ANY THEORY OF LIABILITY, WHETHER IN CONTRACT, STRICT
  30:./ros_lib/ros/publisher.h ****  * LIABILITY, OR TORT (INCLUDING NEGLIGENCE OR OTHERWISE) ARISING IN
  31:./ros_lib/ros/publisher.h ****  * ANY WAY OUT OF THE USE OF THIS SOFTWARE, EVEN IF ADVISED OF THE
  32:./ros_lib/ros/publisher.h ****  * POSSIBILITY OF SUCH DAMAGE.
  33:./ros_lib/ros/publisher.h ****  */
  34:./ros_lib/ros/publisher.h **** 
  35:./ros_lib/ros/publisher.h **** #ifndef _ROS_PUBLISHER_H_
  36:./ros_lib/ros/publisher.h **** #define _ROS_PUBLISHER_H_
  37:./ros_lib/ros/publisher.h **** 
  38:./ros_lib/ros/publisher.h **** #include "rosserial_msgs/TopicInfo.h"
  39:./ros_lib/ros/publisher.h **** #include "node_handle.h"
  40:./ros_lib/ros/publisher.h **** 
  41:./ros_lib/ros/publisher.h **** namespace ros {
  42:./ros_lib/ros/publisher.h **** 
  43:./ros_lib/ros/publisher.h ****   /* Generic Publisher */
  44:./ros_lib/ros/publisher.h ****   class Publisher
  45:./ros_lib/ros/publisher.h ****   {
  46:./ros_lib/ros/publisher.h ****     public:
  47:./ros_lib/ros/publisher.h ****       Publisher( const char * topic_name, Msg * msg, int endpoint=rosserial_msgs::TopicInfo::ID_PUB
  67              		.loc 2 47 0
  68              		.cfi_startproc
  69 0000 80B5     		push	{r7, lr}
  70              		.cfi_def_cfa_offset 8
  71              		.cfi_offset 7, -8
  72              		.cfi_offset 14, -4
  73 0002 84B0     		sub	sp, sp, #16
  74              		.cfi_def_cfa_offset 24
  75 0004 00AF     		add	r7, sp, #0
  76              		.cfi_def_cfa_register 7
  77 0006 F860     		str	r0, [r7, #12]
  78 0008 B960     		str	r1, [r7, #8]
  79 000a 7A60     		str	r2, [r7, #4]
  80 000c 3B60     		str	r3, [r7]
  81              	.LBB3:
ARM GAS  C:\Users\Chuck\AppData\Local\Temp\ccNCRqO6.s 			page 4


  48:./ros_lib/ros/publisher.h ****         topic_(topic_name), 
  49:./ros_lib/ros/publisher.h ****         msg_(msg),
  50:./ros_lib/ros/publisher.h ****         endpoint_(endpoint) {};
  82              		.loc 2 50 0
  83 000e FB68     		ldr	r3, [r7, #12]
  84 0010 BA68     		ldr	r2, [r7, #8]
  85 0012 1A60     		str	r2, [r3]
  86 0014 FB68     		ldr	r3, [r7, #12]
  87 0016 7A68     		ldr	r2, [r7, #4]
  88 0018 5A60     		str	r2, [r3, #4]
  89 001a FB68     		ldr	r3, [r7, #12]
  90 001c 3A68     		ldr	r2, [r7]
  91 001e 1A61     		str	r2, [r3, #16]
  92              	.LBE3:
  93 0020 FB68     		ldr	r3, [r7, #12]
  94 0022 181C     		mov	r0, r3
  95 0024 BD46     		mov	sp, r7
  96 0026 04B0     		add	sp, sp, #16
  97              		@ sp needed
  98 0028 80BD     		pop	{r7, pc}
  99              		.cfi_endproc
 100              	.LFE91:
 101              		.size	_ZN3ros9PublisherC2EPKcPNS_3MsgEi, .-_ZN3ros9PublisherC2EPKcPNS_3MsgEi
 102              		.weak	_ZN3ros9PublisherC1EPKcPNS_3MsgEi
 103              		.thumb_set _ZN3ros9PublisherC1EPKcPNS_3MsgEi,_ZN3ros9PublisherC2EPKcPNS_3MsgEi
 104 002a C046     		.section	.text._ZN3ros9Publisher7publishEPKNS_3MsgE,"axG",%progbits,_ZN3ros9Publisher7publishEPKNS
 105              		.align	2
 106              		.weak	_ZN3ros9Publisher7publishEPKNS_3MsgE
 107              		.code	16
 108              		.thumb_func
 109              		.type	_ZN3ros9Publisher7publishEPKNS_3MsgE, %function
 110              	_ZN3ros9Publisher7publishEPKNS_3MsgE:
 111              	.LFB93:
  51:./ros_lib/ros/publisher.h ****       // rosserial standard signature
  52:./ros_lib/ros/publisher.h ****       int publish( const Msg * msg ) { return nh_->publish(id_, msg); };
 112              		.loc 2 52 0
 113              		.cfi_startproc
 114 0000 90B5     		push	{r4, r7, lr}
 115              		.cfi_def_cfa_offset 12
 116              		.cfi_offset 4, -12
 117              		.cfi_offset 7, -8
 118              		.cfi_offset 14, -4
 119 0002 83B0     		sub	sp, sp, #12
 120              		.cfi_def_cfa_offset 24
 121 0004 00AF     		add	r7, sp, #0
 122              		.cfi_def_cfa_register 7
 123 0006 7860     		str	r0, [r7, #4]
 124 0008 3960     		str	r1, [r7]
 125              		.loc 2 52 0
 126 000a 7B68     		ldr	r3, [r7, #4]
 127 000c DB68     		ldr	r3, [r3, #12]
 128 000e 1B68     		ldr	r3, [r3]
 129 0010 1C68     		ldr	r4, [r3]
 130 0012 7B68     		ldr	r3, [r7, #4]
 131 0014 D968     		ldr	r1, [r3, #12]
 132 0016 7B68     		ldr	r3, [r7, #4]
 133 0018 9A68     		ldr	r2, [r3, #8]
ARM GAS  C:\Users\Chuck\AppData\Local\Temp\ccNCRqO6.s 			page 5


 134 001a 3B68     		ldr	r3, [r7]
 135 001c 081C     		mov	r0, r1
 136 001e 111C     		mov	r1, r2
 137 0020 1A1C     		mov	r2, r3
 138 0022 A047     		blx	r4
 139 0024 031C     		mov	r3, r0
 140 0026 181C     		mov	r0, r3
 141 0028 BD46     		mov	sp, r7
 142 002a 03B0     		add	sp, sp, #12
 143              		@ sp needed
 144 002c 90BD     		pop	{r4, r7, pc}
 145              		.cfi_endproc
 146              	.LFE93:
 147              		.size	_ZN3ros9Publisher7publishEPKNS_3MsgE, .-_ZN3ros9Publisher7publishEPKNS_3MsgE
 148 002e C046     		.section	.rodata
 149              		.align	2
 150              	.LC2:
 151 0000 00       		.ascii	"\000"
 152              		.section	.text._ZN8std_msgs19MultiArrayDimensionC2Ev,"axG",%progbits,_ZN8std_msgs19MultiArrayDimen
 153              		.align	2
 154              		.weak	_ZN8std_msgs19MultiArrayDimensionC2Ev
 155              		.code	16
 156              		.thumb_func
 157              		.type	_ZN8std_msgs19MultiArrayDimensionC2Ev, %function
 158              	_ZN8std_msgs19MultiArrayDimensionC2Ev:
 159              	.LFB159:
 160              		.file 3 "./ros_lib/std_msgs/MultiArrayDimension.h"
   1:./ros_lib/std_msgs/MultiArrayDimension.h **** #ifndef _ROS_std_msgs_MultiArrayDimension_h
   2:./ros_lib/std_msgs/MultiArrayDimension.h **** #define _ROS_std_msgs_MultiArrayDimension_h
   3:./ros_lib/std_msgs/MultiArrayDimension.h **** 
   4:./ros_lib/std_msgs/MultiArrayDimension.h **** #include <stdint.h>
   5:./ros_lib/std_msgs/MultiArrayDimension.h **** #include <string.h>
   6:./ros_lib/std_msgs/MultiArrayDimension.h **** #include <stdlib.h>
   7:./ros_lib/std_msgs/MultiArrayDimension.h **** #include "ros/msg.h"
   8:./ros_lib/std_msgs/MultiArrayDimension.h **** 
   9:./ros_lib/std_msgs/MultiArrayDimension.h **** namespace std_msgs
  10:./ros_lib/std_msgs/MultiArrayDimension.h **** {
  11:./ros_lib/std_msgs/MultiArrayDimension.h **** 
  12:./ros_lib/std_msgs/MultiArrayDimension.h ****   class MultiArrayDimension : public ros::Msg
  13:./ros_lib/std_msgs/MultiArrayDimension.h ****   {
  14:./ros_lib/std_msgs/MultiArrayDimension.h ****     public:
  15:./ros_lib/std_msgs/MultiArrayDimension.h ****       const char* label;
  16:./ros_lib/std_msgs/MultiArrayDimension.h ****       uint32_t size;
  17:./ros_lib/std_msgs/MultiArrayDimension.h ****       uint32_t stride;
  18:./ros_lib/std_msgs/MultiArrayDimension.h **** 
  19:./ros_lib/std_msgs/MultiArrayDimension.h ****     MultiArrayDimension():
 161              		.loc 3 19 0
 162              		.cfi_startproc
 163 0000 80B5     		push	{r7, lr}
 164              		.cfi_def_cfa_offset 8
 165              		.cfi_offset 7, -8
 166              		.cfi_offset 14, -4
 167 0002 82B0     		sub	sp, sp, #8
 168              		.cfi_def_cfa_offset 16
 169 0004 00AF     		add	r7, sp, #0
 170              		.cfi_def_cfa_register 7
 171 0006 7860     		str	r0, [r7, #4]
ARM GAS  C:\Users\Chuck\AppData\Local\Temp\ccNCRqO6.s 			page 6


 172              	.LBB4:
  20:./ros_lib/std_msgs/MultiArrayDimension.h ****       label(""),
  21:./ros_lib/std_msgs/MultiArrayDimension.h ****       size(0),
  22:./ros_lib/std_msgs/MultiArrayDimension.h ****       stride(0)
 173              		.loc 3 22 0
 174 0008 7B68     		ldr	r3, [r7, #4]
 175 000a 181C     		mov	r0, r3
 176 000c FFF7FEFF 		bl	_ZN3ros3MsgC2Ev
 177 0010 7B68     		ldr	r3, [r7, #4]
 178 0012 084A     		ldr	r2, .L14
 179 0014 1A60     		str	r2, [r3]
 180 0016 7B68     		ldr	r3, [r7, #4]
 181 0018 074A     		ldr	r2, .L14+4
 182 001a 5A60     		str	r2, [r3, #4]
 183 001c 7B68     		ldr	r3, [r7, #4]
 184 001e 0022     		mov	r2, #0
 185 0020 9A60     		str	r2, [r3, #8]
 186 0022 7B68     		ldr	r3, [r7, #4]
 187 0024 0022     		mov	r2, #0
 188 0026 DA60     		str	r2, [r3, #12]
 189              	.LBE4:
  23:./ros_lib/std_msgs/MultiArrayDimension.h ****     {
  24:./ros_lib/std_msgs/MultiArrayDimension.h ****     }
 190              		.loc 3 24 0
 191 0028 7B68     		ldr	r3, [r7, #4]
 192 002a 181C     		mov	r0, r3
 193 002c BD46     		mov	sp, r7
 194 002e 02B0     		add	sp, sp, #8
 195              		@ sp needed
 196 0030 80BD     		pop	{r7, pc}
 197              	.L15:
 198 0032 C046     		.align	2
 199              	.L14:
 200 0034 08000000 		.word	_ZTVN8std_msgs19MultiArrayDimensionE+8
 201 0038 00000000 		.word	.LC2
 202              		.cfi_endproc
 203              	.LFE159:
 204              		.size	_ZN8std_msgs19MultiArrayDimensionC2Ev, .-_ZN8std_msgs19MultiArrayDimensionC2Ev
 205              		.weak	_ZN8std_msgs19MultiArrayDimensionC1Ev
 206              		.thumb_set _ZN8std_msgs19MultiArrayDimensionC1Ev,_ZN8std_msgs19MultiArrayDimensionC2Ev
 207              		.section	.text._ZNK8std_msgs19MultiArrayDimension9serializeEPh,"axG",%progbits,_ZNK8std_msgs19Mult
 208              		.align	2
 209              		.weak	_ZNK8std_msgs19MultiArrayDimension9serializeEPh
 210              		.code	16
 211              		.thumb_func
 212              		.type	_ZNK8std_msgs19MultiArrayDimension9serializeEPh, %function
 213              	_ZNK8std_msgs19MultiArrayDimension9serializeEPh:
 214              	.LFB161:
  25:./ros_lib/std_msgs/MultiArrayDimension.h **** 
  26:./ros_lib/std_msgs/MultiArrayDimension.h ****     virtual int serialize(unsigned char *outbuffer) const
 215              		.loc 3 26 0
 216              		.cfi_startproc
 217 0000 80B5     		push	{r7, lr}
 218              		.cfi_def_cfa_offset 8
 219              		.cfi_offset 7, -8
 220              		.cfi_offset 14, -4
 221 0002 84B0     		sub	sp, sp, #16
ARM GAS  C:\Users\Chuck\AppData\Local\Temp\ccNCRqO6.s 			page 7


 222              		.cfi_def_cfa_offset 24
 223 0004 00AF     		add	r7, sp, #0
 224              		.cfi_def_cfa_register 7
 225 0006 7860     		str	r0, [r7, #4]
 226 0008 3960     		str	r1, [r7]
 227              	.LBB5:
  27:./ros_lib/std_msgs/MultiArrayDimension.h ****     {
  28:./ros_lib/std_msgs/MultiArrayDimension.h ****       int offset = 0;
 228              		.loc 3 28 0
 229 000a 0023     		mov	r3, #0
 230 000c FB60     		str	r3, [r7, #12]
  29:./ros_lib/std_msgs/MultiArrayDimension.h **** #ifndef ROS_MSG_DONT_SERIALIZE
  30:./ros_lib/std_msgs/MultiArrayDimension.h ****       uint32_t length_label = strlen( (const char*) this->label);
 231              		.loc 3 30 0
 232 000e 7B68     		ldr	r3, [r7, #4]
 233 0010 5B68     		ldr	r3, [r3, #4]
 234 0012 181C     		mov	r0, r3
 235 0014 FFF7FEFF 		bl	strlen
 236 0018 031C     		mov	r3, r0
 237 001a BB60     		str	r3, [r7, #8]
  31:./ros_lib/std_msgs/MultiArrayDimension.h ****       memcpy(outbuffer + offset, &length_label, sizeof(uint32_t));
 238              		.loc 3 31 0
 239 001c FB68     		ldr	r3, [r7, #12]
 240 001e 3A68     		ldr	r2, [r7]
 241 0020 D218     		add	r2, r2, r3
 242 0022 0823     		mov	r3, #8
 243 0024 FB18     		add	r3, r7, r3
 244 0026 101C     		mov	r0, r2
 245 0028 191C     		mov	r1, r3
 246 002a 0422     		mov	r2, #4
 247 002c FFF7FEFF 		bl	memcpy
  32:./ros_lib/std_msgs/MultiArrayDimension.h ****       offset += 4;
 248              		.loc 3 32 0
 249 0030 FB68     		ldr	r3, [r7, #12]
 250 0032 0433     		add	r3, r3, #4
 251 0034 FB60     		str	r3, [r7, #12]
  33:./ros_lib/std_msgs/MultiArrayDimension.h ****       memcpy(outbuffer + offset, this->label, length_label);
 252              		.loc 3 33 0
 253 0036 FB68     		ldr	r3, [r7, #12]
 254 0038 3A68     		ldr	r2, [r7]
 255 003a D118     		add	r1, r2, r3
 256 003c 7B68     		ldr	r3, [r7, #4]
 257 003e 5A68     		ldr	r2, [r3, #4]
 258 0040 BB68     		ldr	r3, [r7, #8]
 259 0042 081C     		mov	r0, r1
 260 0044 111C     		mov	r1, r2
 261 0046 1A1C     		mov	r2, r3
 262 0048 FFF7FEFF 		bl	memcpy
  34:./ros_lib/std_msgs/MultiArrayDimension.h ****       offset += length_label;
 263              		.loc 3 34 0
 264 004c FA68     		ldr	r2, [r7, #12]
 265 004e BB68     		ldr	r3, [r7, #8]
 266 0050 D318     		add	r3, r2, r3
 267 0052 FB60     		str	r3, [r7, #12]
  35:./ros_lib/std_msgs/MultiArrayDimension.h ****       *(outbuffer + offset + 0) = (this->size >> (8 * 0)) & 0xFF;
 268              		.loc 3 35 0
 269 0054 FB68     		ldr	r3, [r7, #12]
ARM GAS  C:\Users\Chuck\AppData\Local\Temp\ccNCRqO6.s 			page 8


 270 0056 3A68     		ldr	r2, [r7]
 271 0058 D218     		add	r2, r2, r3
 272 005a 7B68     		ldr	r3, [r7, #4]
 273 005c 9B68     		ldr	r3, [r3, #8]
 274 005e DBB2     		uxtb	r3, r3
 275 0060 1370     		strb	r3, [r2]
  36:./ros_lib/std_msgs/MultiArrayDimension.h ****       *(outbuffer + offset + 1) = (this->size >> (8 * 1)) & 0xFF;
 276              		.loc 3 36 0
 277 0062 FB68     		ldr	r3, [r7, #12]
 278 0064 0133     		add	r3, r3, #1
 279 0066 3A68     		ldr	r2, [r7]
 280 0068 D218     		add	r2, r2, r3
 281 006a 7B68     		ldr	r3, [r7, #4]
 282 006c 9B68     		ldr	r3, [r3, #8]
 283 006e 1B0A     		lsr	r3, r3, #8
 284 0070 DBB2     		uxtb	r3, r3
 285 0072 1370     		strb	r3, [r2]
  37:./ros_lib/std_msgs/MultiArrayDimension.h ****       *(outbuffer + offset + 2) = (this->size >> (8 * 2)) & 0xFF;
 286              		.loc 3 37 0
 287 0074 FB68     		ldr	r3, [r7, #12]
 288 0076 0233     		add	r3, r3, #2
 289 0078 3A68     		ldr	r2, [r7]
 290 007a D218     		add	r2, r2, r3
 291 007c 7B68     		ldr	r3, [r7, #4]
 292 007e 9B68     		ldr	r3, [r3, #8]
 293 0080 1B0C     		lsr	r3, r3, #16
 294 0082 DBB2     		uxtb	r3, r3
 295 0084 1370     		strb	r3, [r2]
  38:./ros_lib/std_msgs/MultiArrayDimension.h ****       *(outbuffer + offset + 3) = (this->size >> (8 * 3)) & 0xFF;
 296              		.loc 3 38 0
 297 0086 FB68     		ldr	r3, [r7, #12]
 298 0088 0333     		add	r3, r3, #3
 299 008a 3A68     		ldr	r2, [r7]
 300 008c D218     		add	r2, r2, r3
 301 008e 7B68     		ldr	r3, [r7, #4]
 302 0090 9B68     		ldr	r3, [r3, #8]
 303 0092 1B0E     		lsr	r3, r3, #24
 304 0094 DBB2     		uxtb	r3, r3
 305 0096 1370     		strb	r3, [r2]
  39:./ros_lib/std_msgs/MultiArrayDimension.h ****       offset += sizeof(this->size);
 306              		.loc 3 39 0
 307 0098 FB68     		ldr	r3, [r7, #12]
 308 009a 0433     		add	r3, r3, #4
 309 009c FB60     		str	r3, [r7, #12]
  40:./ros_lib/std_msgs/MultiArrayDimension.h ****       *(outbuffer + offset + 0) = (this->stride >> (8 * 0)) & 0xFF;
 310              		.loc 3 40 0
 311 009e FB68     		ldr	r3, [r7, #12]
 312 00a0 3A68     		ldr	r2, [r7]
 313 00a2 D218     		add	r2, r2, r3
 314 00a4 7B68     		ldr	r3, [r7, #4]
 315 00a6 DB68     		ldr	r3, [r3, #12]
 316 00a8 DBB2     		uxtb	r3, r3
 317 00aa 1370     		strb	r3, [r2]
  41:./ros_lib/std_msgs/MultiArrayDimension.h ****       *(outbuffer + offset + 1) = (this->stride >> (8 * 1)) & 0xFF;
 318              		.loc 3 41 0
 319 00ac FB68     		ldr	r3, [r7, #12]
 320 00ae 0133     		add	r3, r3, #1
ARM GAS  C:\Users\Chuck\AppData\Local\Temp\ccNCRqO6.s 			page 9


 321 00b0 3A68     		ldr	r2, [r7]
 322 00b2 D218     		add	r2, r2, r3
 323 00b4 7B68     		ldr	r3, [r7, #4]
 324 00b6 DB68     		ldr	r3, [r3, #12]
 325 00b8 1B0A     		lsr	r3, r3, #8
 326 00ba DBB2     		uxtb	r3, r3
 327 00bc 1370     		strb	r3, [r2]
  42:./ros_lib/std_msgs/MultiArrayDimension.h ****       *(outbuffer + offset + 2) = (this->stride >> (8 * 2)) & 0xFF;
 328              		.loc 3 42 0
 329 00be FB68     		ldr	r3, [r7, #12]
 330 00c0 0233     		add	r3, r3, #2
 331 00c2 3A68     		ldr	r2, [r7]
 332 00c4 D218     		add	r2, r2, r3
 333 00c6 7B68     		ldr	r3, [r7, #4]
 334 00c8 DB68     		ldr	r3, [r3, #12]
 335 00ca 1B0C     		lsr	r3, r3, #16
 336 00cc DBB2     		uxtb	r3, r3
 337 00ce 1370     		strb	r3, [r2]
  43:./ros_lib/std_msgs/MultiArrayDimension.h ****       *(outbuffer + offset + 3) = (this->stride >> (8 * 3)) & 0xFF;
 338              		.loc 3 43 0
 339 00d0 FB68     		ldr	r3, [r7, #12]
 340 00d2 0333     		add	r3, r3, #3
 341 00d4 3A68     		ldr	r2, [r7]
 342 00d6 D218     		add	r2, r2, r3
 343 00d8 7B68     		ldr	r3, [r7, #4]
 344 00da DB68     		ldr	r3, [r3, #12]
 345 00dc 1B0E     		lsr	r3, r3, #24
 346 00de DBB2     		uxtb	r3, r3
 347 00e0 1370     		strb	r3, [r2]
  44:./ros_lib/std_msgs/MultiArrayDimension.h ****       offset += sizeof(this->stride);
 348              		.loc 3 44 0
 349 00e2 FB68     		ldr	r3, [r7, #12]
 350 00e4 0433     		add	r3, r3, #4
 351 00e6 FB60     		str	r3, [r7, #12]
  45:./ros_lib/std_msgs/MultiArrayDimension.h **** #endif
  46:./ros_lib/std_msgs/MultiArrayDimension.h ****       return offset;
 352              		.loc 3 46 0
 353 00e8 FB68     		ldr	r3, [r7, #12]
 354              	.LBE5:
  47:./ros_lib/std_msgs/MultiArrayDimension.h ****     }
 355              		.loc 3 47 0
 356 00ea 181C     		mov	r0, r3
 357 00ec BD46     		mov	sp, r7
 358 00ee 04B0     		add	sp, sp, #16
 359              		@ sp needed
 360 00f0 80BD     		pop	{r7, pc}
 361              		.cfi_endproc
 362              	.LFE161:
 363              		.size	_ZNK8std_msgs19MultiArrayDimension9serializeEPh, .-_ZNK8std_msgs19MultiArrayDimension9serial
 364 00f2 C046     		.section	.text._ZN8std_msgs19MultiArrayDimension11deserializeEPh,"axG",%progbits,_ZN8std_msgs19Mul
 365              		.align	2
 366              		.weak	_ZN8std_msgs19MultiArrayDimension11deserializeEPh
 367              		.code	16
 368              		.thumb_func
 369              		.type	_ZN8std_msgs19MultiArrayDimension11deserializeEPh, %function
 370              	_ZN8std_msgs19MultiArrayDimension11deserializeEPh:
 371              	.LFB162:
ARM GAS  C:\Users\Chuck\AppData\Local\Temp\ccNCRqO6.s 			page 10


  48:./ros_lib/std_msgs/MultiArrayDimension.h **** 
  49:./ros_lib/std_msgs/MultiArrayDimension.h ****     virtual int deserialize(unsigned char *inbuffer)
 372              		.loc 3 49 0
 373              		.cfi_startproc
 374 0000 80B5     		push	{r7, lr}
 375              		.cfi_def_cfa_offset 8
 376              		.cfi_offset 7, -8
 377              		.cfi_offset 14, -4
 378 0002 86B0     		sub	sp, sp, #24
 379              		.cfi_def_cfa_offset 32
 380 0004 00AF     		add	r7, sp, #0
 381              		.cfi_def_cfa_register 7
 382 0006 7860     		str	r0, [r7, #4]
 383 0008 3960     		str	r1, [r7]
 384              	.LBB6:
  50:./ros_lib/std_msgs/MultiArrayDimension.h ****     {
  51:./ros_lib/std_msgs/MultiArrayDimension.h ****       int offset = 0;
 385              		.loc 3 51 0
 386 000a 0023     		mov	r3, #0
 387 000c 3B61     		str	r3, [r7, #16]
  52:./ros_lib/std_msgs/MultiArrayDimension.h **** #ifndef ROS_MSG_DONT_DESERIALIZE
  53:./ros_lib/std_msgs/MultiArrayDimension.h ****       uint32_t length_label;
  54:./ros_lib/std_msgs/MultiArrayDimension.h ****       memcpy(&length_label, (inbuffer + offset), sizeof(uint32_t));
 388              		.loc 3 54 0
 389 000e 3B69     		ldr	r3, [r7, #16]
 390 0010 3A68     		ldr	r2, [r7]
 391 0012 D318     		add	r3, r2, r3
 392 0014 0C22     		mov	r2, #12
 393 0016 BA18     		add	r2, r7, r2
 394 0018 101C     		mov	r0, r2
 395 001a 191C     		mov	r1, r3
 396 001c 0422     		mov	r2, #4
 397 001e FFF7FEFF 		bl	memcpy
  55:./ros_lib/std_msgs/MultiArrayDimension.h ****       offset += 4;
 398              		.loc 3 55 0
 399 0022 3B69     		ldr	r3, [r7, #16]
 400 0024 0433     		add	r3, r3, #4
 401 0026 3B61     		str	r3, [r7, #16]
 402              	.LBB7:
  56:./ros_lib/std_msgs/MultiArrayDimension.h ****       for(unsigned int k= offset; k< offset+length_label; ++k){
 403              		.loc 3 56 0
 404 0028 3B69     		ldr	r3, [r7, #16]
 405 002a 7B61     		str	r3, [r7, #20]
 406 002c 0BE0     		b	.L19
 407              	.L20:
  57:./ros_lib/std_msgs/MultiArrayDimension.h ****           inbuffer[k-1]=inbuffer[k];
 408              		.loc 3 57 0 discriminator 3
 409 002e 7B69     		ldr	r3, [r7, #20]
 410 0030 013B     		sub	r3, r3, #1
 411 0032 3A68     		ldr	r2, [r7]
 412 0034 D318     		add	r3, r2, r3
 413 0036 3968     		ldr	r1, [r7]
 414 0038 7A69     		ldr	r2, [r7, #20]
 415 003a 8A18     		add	r2, r1, r2
 416 003c 1278     		ldrb	r2, [r2]
 417 003e 1A70     		strb	r2, [r3]
  56:./ros_lib/std_msgs/MultiArrayDimension.h ****       for(unsigned int k= offset; k< offset+length_label; ++k){
ARM GAS  C:\Users\Chuck\AppData\Local\Temp\ccNCRqO6.s 			page 11


 418              		.loc 3 56 0 discriminator 3
 419 0040 7B69     		ldr	r3, [r7, #20]
 420 0042 0133     		add	r3, r3, #1
 421 0044 7B61     		str	r3, [r7, #20]
 422              	.L19:
  56:./ros_lib/std_msgs/MultiArrayDimension.h ****       for(unsigned int k= offset; k< offset+length_label; ++k){
 423              		.loc 3 56 0 is_stmt 0 discriminator 1
 424 0046 3A69     		ldr	r2, [r7, #16]
 425 0048 FB68     		ldr	r3, [r7, #12]
 426 004a D218     		add	r2, r2, r3
 427 004c 7B69     		ldr	r3, [r7, #20]
 428 004e 9A42     		cmp	r2, r3
 429 0050 EDD8     		bhi	.L20
 430              	.LBE7:
  58:./ros_lib/std_msgs/MultiArrayDimension.h ****       }
  59:./ros_lib/std_msgs/MultiArrayDimension.h ****       inbuffer[offset+length_label-1]=0;
 431              		.loc 3 59 0 is_stmt 1
 432 0052 3A69     		ldr	r2, [r7, #16]
 433 0054 FB68     		ldr	r3, [r7, #12]
 434 0056 D318     		add	r3, r2, r3
 435 0058 013B     		sub	r3, r3, #1
 436 005a 3A68     		ldr	r2, [r7]
 437 005c D318     		add	r3, r2, r3
 438 005e 0022     		mov	r2, #0
 439 0060 1A70     		strb	r2, [r3]
  60:./ros_lib/std_msgs/MultiArrayDimension.h ****       this->label = (char *)(inbuffer + offset-1);
 440              		.loc 3 60 0
 441 0062 3B69     		ldr	r3, [r7, #16]
 442 0064 013B     		sub	r3, r3, #1
 443 0066 3A68     		ldr	r2, [r7]
 444 0068 D218     		add	r2, r2, r3
 445 006a 7B68     		ldr	r3, [r7, #4]
 446 006c 5A60     		str	r2, [r3, #4]
  61:./ros_lib/std_msgs/MultiArrayDimension.h ****       offset += length_label;
 447              		.loc 3 61 0
 448 006e 3A69     		ldr	r2, [r7, #16]
 449 0070 FB68     		ldr	r3, [r7, #12]
 450 0072 D318     		add	r3, r2, r3
 451 0074 3B61     		str	r3, [r7, #16]
  62:./ros_lib/std_msgs/MultiArrayDimension.h ****       this->size =  ((uint32_t) (*(inbuffer + offset)));
 452              		.loc 3 62 0
 453 0076 3B69     		ldr	r3, [r7, #16]
 454 0078 3A68     		ldr	r2, [r7]
 455 007a D318     		add	r3, r2, r3
 456 007c 1B78     		ldrb	r3, [r3]
 457 007e 1A1C     		mov	r2, r3
 458 0080 7B68     		ldr	r3, [r7, #4]
 459 0082 9A60     		str	r2, [r3, #8]
  63:./ros_lib/std_msgs/MultiArrayDimension.h ****       this->size |= ((uint32_t) (*(inbuffer + offset + 1))) << (8 * 1);
 460              		.loc 3 63 0
 461 0084 7B68     		ldr	r3, [r7, #4]
 462 0086 9A68     		ldr	r2, [r3, #8]
 463 0088 3B69     		ldr	r3, [r7, #16]
 464 008a 0133     		add	r3, r3, #1
 465 008c 3968     		ldr	r1, [r7]
 466 008e CB18     		add	r3, r1, r3
 467 0090 1B78     		ldrb	r3, [r3]
ARM GAS  C:\Users\Chuck\AppData\Local\Temp\ccNCRqO6.s 			page 12


 468 0092 1B02     		lsl	r3, r3, #8
 469 0094 1A43     		orr	r2, r3
 470 0096 7B68     		ldr	r3, [r7, #4]
 471 0098 9A60     		str	r2, [r3, #8]
  64:./ros_lib/std_msgs/MultiArrayDimension.h ****       this->size |= ((uint32_t) (*(inbuffer + offset + 2))) << (8 * 2);
 472              		.loc 3 64 0
 473 009a 7B68     		ldr	r3, [r7, #4]
 474 009c 9A68     		ldr	r2, [r3, #8]
 475 009e 3B69     		ldr	r3, [r7, #16]
 476 00a0 0233     		add	r3, r3, #2
 477 00a2 3968     		ldr	r1, [r7]
 478 00a4 CB18     		add	r3, r1, r3
 479 00a6 1B78     		ldrb	r3, [r3]
 480 00a8 1B04     		lsl	r3, r3, #16
 481 00aa 1A43     		orr	r2, r3
 482 00ac 7B68     		ldr	r3, [r7, #4]
 483 00ae 9A60     		str	r2, [r3, #8]
  65:./ros_lib/std_msgs/MultiArrayDimension.h ****       this->size |= ((uint32_t) (*(inbuffer + offset + 3))) << (8 * 3);
 484              		.loc 3 65 0
 485 00b0 7B68     		ldr	r3, [r7, #4]
 486 00b2 9A68     		ldr	r2, [r3, #8]
 487 00b4 3B69     		ldr	r3, [r7, #16]
 488 00b6 0333     		add	r3, r3, #3
 489 00b8 3968     		ldr	r1, [r7]
 490 00ba CB18     		add	r3, r1, r3
 491 00bc 1B78     		ldrb	r3, [r3]
 492 00be 1B06     		lsl	r3, r3, #24
 493 00c0 1A43     		orr	r2, r3
 494 00c2 7B68     		ldr	r3, [r7, #4]
 495 00c4 9A60     		str	r2, [r3, #8]
  66:./ros_lib/std_msgs/MultiArrayDimension.h ****       offset += sizeof(this->size);
 496              		.loc 3 66 0
 497 00c6 3B69     		ldr	r3, [r7, #16]
 498 00c8 0433     		add	r3, r3, #4
 499 00ca 3B61     		str	r3, [r7, #16]
  67:./ros_lib/std_msgs/MultiArrayDimension.h ****       this->stride =  ((uint32_t) (*(inbuffer + offset)));
 500              		.loc 3 67 0
 501 00cc 3B69     		ldr	r3, [r7, #16]
 502 00ce 3A68     		ldr	r2, [r7]
 503 00d0 D318     		add	r3, r2, r3
 504 00d2 1B78     		ldrb	r3, [r3]
 505 00d4 1A1C     		mov	r2, r3
 506 00d6 7B68     		ldr	r3, [r7, #4]
 507 00d8 DA60     		str	r2, [r3, #12]
  68:./ros_lib/std_msgs/MultiArrayDimension.h ****       this->stride |= ((uint32_t) (*(inbuffer + offset + 1))) << (8 * 1);
 508              		.loc 3 68 0
 509 00da 7B68     		ldr	r3, [r7, #4]
 510 00dc DA68     		ldr	r2, [r3, #12]
 511 00de 3B69     		ldr	r3, [r7, #16]
 512 00e0 0133     		add	r3, r3, #1
 513 00e2 3968     		ldr	r1, [r7]
 514 00e4 CB18     		add	r3, r1, r3
 515 00e6 1B78     		ldrb	r3, [r3]
 516 00e8 1B02     		lsl	r3, r3, #8
 517 00ea 1A43     		orr	r2, r3
 518 00ec 7B68     		ldr	r3, [r7, #4]
 519 00ee DA60     		str	r2, [r3, #12]
ARM GAS  C:\Users\Chuck\AppData\Local\Temp\ccNCRqO6.s 			page 13


  69:./ros_lib/std_msgs/MultiArrayDimension.h ****       this->stride |= ((uint32_t) (*(inbuffer + offset + 2))) << (8 * 2);
 520              		.loc 3 69 0
 521 00f0 7B68     		ldr	r3, [r7, #4]
 522 00f2 DA68     		ldr	r2, [r3, #12]
 523 00f4 3B69     		ldr	r3, [r7, #16]
 524 00f6 0233     		add	r3, r3, #2
 525 00f8 3968     		ldr	r1, [r7]
 526 00fa CB18     		add	r3, r1, r3
 527 00fc 1B78     		ldrb	r3, [r3]
 528 00fe 1B04     		lsl	r3, r3, #16
 529 0100 1A43     		orr	r2, r3
 530 0102 7B68     		ldr	r3, [r7, #4]
 531 0104 DA60     		str	r2, [r3, #12]
  70:./ros_lib/std_msgs/MultiArrayDimension.h ****       this->stride |= ((uint32_t) (*(inbuffer + offset + 3))) << (8 * 3);
 532              		.loc 3 70 0
 533 0106 7B68     		ldr	r3, [r7, #4]
 534 0108 DA68     		ldr	r2, [r3, #12]
 535 010a 3B69     		ldr	r3, [r7, #16]
 536 010c 0333     		add	r3, r3, #3
 537 010e 3968     		ldr	r1, [r7]
 538 0110 CB18     		add	r3, r1, r3
 539 0112 1B78     		ldrb	r3, [r3]
 540 0114 1B06     		lsl	r3, r3, #24
 541 0116 1A43     		orr	r2, r3
 542 0118 7B68     		ldr	r3, [r7, #4]
 543 011a DA60     		str	r2, [r3, #12]
  71:./ros_lib/std_msgs/MultiArrayDimension.h ****       offset += sizeof(this->stride);
 544              		.loc 3 71 0
 545 011c 3B69     		ldr	r3, [r7, #16]
 546 011e 0433     		add	r3, r3, #4
 547 0120 3B61     		str	r3, [r7, #16]
  72:./ros_lib/std_msgs/MultiArrayDimension.h **** #endif
  73:./ros_lib/std_msgs/MultiArrayDimension.h ****      return offset;
 548              		.loc 3 73 0
 549 0122 3B69     		ldr	r3, [r7, #16]
 550              	.LBE6:
  74:./ros_lib/std_msgs/MultiArrayDimension.h ****     }
 551              		.loc 3 74 0
 552 0124 181C     		mov	r0, r3
 553 0126 BD46     		mov	sp, r7
 554 0128 06B0     		add	sp, sp, #24
 555              		@ sp needed
 556 012a 80BD     		pop	{r7, pc}
 557              		.cfi_endproc
 558              	.LFE162:
 559              		.size	_ZN8std_msgs19MultiArrayDimension11deserializeEPh, .-_ZN8std_msgs19MultiArrayDimension11dese
 560              		.section	.rodata
 561 0001 000000   		.align	2
 562              	.LC4:
 563 0004 7374645F 		.ascii	"std_msgs/MultiArrayDimension\000"
 563      6D736773 
 563      2F4D756C 
 563      74694172 
 563      72617944 
 564              		.section	.text._ZN8std_msgs19MultiArrayDimension7getTypeEv,"axG",%progbits,_ZN8std_msgs19MultiArra
 565              		.align	2
 566              		.weak	_ZN8std_msgs19MultiArrayDimension7getTypeEv
ARM GAS  C:\Users\Chuck\AppData\Local\Temp\ccNCRqO6.s 			page 14


 567              		.code	16
 568              		.thumb_func
 569              		.type	_ZN8std_msgs19MultiArrayDimension7getTypeEv, %function
 570              	_ZN8std_msgs19MultiArrayDimension7getTypeEv:
 571              	.LFB163:
  75:./ros_lib/std_msgs/MultiArrayDimension.h **** 
  76:./ros_lib/std_msgs/MultiArrayDimension.h ****     const char * getType(){ return "std_msgs/MultiArrayDimension"; };
 572              		.loc 3 76 0
 573              		.cfi_startproc
 574 0000 80B5     		push	{r7, lr}
 575              		.cfi_def_cfa_offset 8
 576              		.cfi_offset 7, -8
 577              		.cfi_offset 14, -4
 578 0002 82B0     		sub	sp, sp, #8
 579              		.cfi_def_cfa_offset 16
 580 0004 00AF     		add	r7, sp, #0
 581              		.cfi_def_cfa_register 7
 582 0006 7860     		str	r0, [r7, #4]
 583              		.loc 3 76 0
 584 0008 024B     		ldr	r3, .L24
 585 000a 181C     		mov	r0, r3
 586 000c BD46     		mov	sp, r7
 587 000e 02B0     		add	sp, sp, #8
 588              		@ sp needed
 589 0010 80BD     		pop	{r7, pc}
 590              	.L25:
 591 0012 C046     		.align	2
 592              	.L24:
 593 0014 04000000 		.word	.LC4
 594              		.cfi_endproc
 595              	.LFE163:
 596              		.size	_ZN8std_msgs19MultiArrayDimension7getTypeEv, .-_ZN8std_msgs19MultiArrayDimension7getTypeEv
 597              		.section	.rodata
 598 0021 000000   		.align	2
 599              	.LC6:
 600 0024 34636430 		.ascii	"4cd0c83a8683deae40ecdac60e53bfa8\000"
 600      63383361 
 600      38363833 
 600      64656165 
 600      34306563 
 601              		.section	.text._ZN8std_msgs19MultiArrayDimension6getMD5Ev,"axG",%progbits,_ZN8std_msgs19MultiArray
 602              		.align	2
 603              		.weak	_ZN8std_msgs19MultiArrayDimension6getMD5Ev
 604              		.code	16
 605              		.thumb_func
 606              		.type	_ZN8std_msgs19MultiArrayDimension6getMD5Ev, %function
 607              	_ZN8std_msgs19MultiArrayDimension6getMD5Ev:
 608              	.LFB164:
  77:./ros_lib/std_msgs/MultiArrayDimension.h ****     const char * getMD5(){ return "4cd0c83a8683deae40ecdac60e53bfa8"; };
 609              		.loc 3 77 0
 610              		.cfi_startproc
 611 0000 80B5     		push	{r7, lr}
 612              		.cfi_def_cfa_offset 8
 613              		.cfi_offset 7, -8
 614              		.cfi_offset 14, -4
 615 0002 82B0     		sub	sp, sp, #8
 616              		.cfi_def_cfa_offset 16
ARM GAS  C:\Users\Chuck\AppData\Local\Temp\ccNCRqO6.s 			page 15


 617 0004 00AF     		add	r7, sp, #0
 618              		.cfi_def_cfa_register 7
 619 0006 7860     		str	r0, [r7, #4]
 620              		.loc 3 77 0
 621 0008 024B     		ldr	r3, .L28
 622 000a 181C     		mov	r0, r3
 623 000c BD46     		mov	sp, r7
 624 000e 02B0     		add	sp, sp, #8
 625              		@ sp needed
 626 0010 80BD     		pop	{r7, pc}
 627              	.L29:
 628 0012 C046     		.align	2
 629              	.L28:
 630 0014 24000000 		.word	.LC6
 631              		.cfi_endproc
 632              	.LFE164:
 633              		.size	_ZN8std_msgs19MultiArrayDimension6getMD5Ev, .-_ZN8std_msgs19MultiArrayDimension6getMD5Ev
 634              		.section	.text._ZN8std_msgs16MultiArrayLayoutC2Ev,"axG",%progbits,_ZN8std_msgs16MultiArrayLayoutC5
 635              		.align	2
 636              		.weak	_ZN8std_msgs16MultiArrayLayoutC2Ev
 637              		.code	16
 638              		.thumb_func
 639              		.type	_ZN8std_msgs16MultiArrayLayoutC2Ev, %function
 640              	_ZN8std_msgs16MultiArrayLayoutC2Ev:
 641              	.LFB166:
 642              		.file 4 "./ros_lib/std_msgs/MultiArrayLayout.h"
   1:./ros_lib/std_msgs/MultiArrayLayout.h **** #ifndef _ROS_std_msgs_MultiArrayLayout_h
   2:./ros_lib/std_msgs/MultiArrayLayout.h **** #define _ROS_std_msgs_MultiArrayLayout_h
   3:./ros_lib/std_msgs/MultiArrayLayout.h **** 
   4:./ros_lib/std_msgs/MultiArrayLayout.h **** #include <stdint.h>
   5:./ros_lib/std_msgs/MultiArrayLayout.h **** #include <string.h>
   6:./ros_lib/std_msgs/MultiArrayLayout.h **** #include <stdlib.h>
   7:./ros_lib/std_msgs/MultiArrayLayout.h **** #include "ros/msg.h"
   8:./ros_lib/std_msgs/MultiArrayLayout.h **** #include "std_msgs/MultiArrayDimension.h"
   9:./ros_lib/std_msgs/MultiArrayLayout.h **** 
  10:./ros_lib/std_msgs/MultiArrayLayout.h **** namespace std_msgs
  11:./ros_lib/std_msgs/MultiArrayLayout.h **** {
  12:./ros_lib/std_msgs/MultiArrayLayout.h **** 
  13:./ros_lib/std_msgs/MultiArrayLayout.h ****   class MultiArrayLayout : public ros::Msg
  14:./ros_lib/std_msgs/MultiArrayLayout.h ****   {
  15:./ros_lib/std_msgs/MultiArrayLayout.h ****     public:
  16:./ros_lib/std_msgs/MultiArrayLayout.h ****       uint8_t dim_length;
  17:./ros_lib/std_msgs/MultiArrayLayout.h ****       std_msgs::MultiArrayDimension st_dim;
  18:./ros_lib/std_msgs/MultiArrayLayout.h ****       std_msgs::MultiArrayDimension * dim;
  19:./ros_lib/std_msgs/MultiArrayLayout.h ****       uint32_t data_offset;
  20:./ros_lib/std_msgs/MultiArrayLayout.h **** 
  21:./ros_lib/std_msgs/MultiArrayLayout.h ****     MultiArrayLayout():
 643              		.loc 4 21 0
 644              		.cfi_startproc
 645 0000 80B5     		push	{r7, lr}
 646              		.cfi_def_cfa_offset 8
 647              		.cfi_offset 7, -8
 648              		.cfi_offset 14, -4
 649 0002 82B0     		sub	sp, sp, #8
 650              		.cfi_def_cfa_offset 16
 651 0004 00AF     		add	r7, sp, #0
 652              		.cfi_def_cfa_register 7
ARM GAS  C:\Users\Chuck\AppData\Local\Temp\ccNCRqO6.s 			page 16


 653 0006 7860     		str	r0, [r7, #4]
 654              	.LBB8:
  22:./ros_lib/std_msgs/MultiArrayLayout.h ****       dim_length(0), dim(NULL),
  23:./ros_lib/std_msgs/MultiArrayLayout.h ****       data_offset(0)
 655              		.loc 4 23 0
 656 0008 7B68     		ldr	r3, [r7, #4]
 657 000a 181C     		mov	r0, r3
 658 000c FFF7FEFF 		bl	_ZN3ros3MsgC2Ev
 659 0010 7B68     		ldr	r3, [r7, #4]
 660 0012 0A4A     		ldr	r2, .L33
 661 0014 1A60     		str	r2, [r3]
 662 0016 7B68     		ldr	r3, [r7, #4]
 663 0018 0022     		mov	r2, #0
 664 001a 1A71     		strb	r2, [r3, #4]
 665 001c 7B68     		ldr	r3, [r7, #4]
 666 001e 0833     		add	r3, r3, #8
 667 0020 181C     		mov	r0, r3
 668 0022 FFF7FEFF 		bl	_ZN8std_msgs19MultiArrayDimensionC1Ev
 669 0026 7B68     		ldr	r3, [r7, #4]
 670 0028 0022     		mov	r2, #0
 671 002a 9A61     		str	r2, [r3, #24]
 672 002c 7B68     		ldr	r3, [r7, #4]
 673 002e 0022     		mov	r2, #0
 674 0030 DA61     		str	r2, [r3, #28]
 675              	.LBE8:
  24:./ros_lib/std_msgs/MultiArrayLayout.h ****     {
  25:./ros_lib/std_msgs/MultiArrayLayout.h ****     }
 676              		.loc 4 25 0
 677 0032 7B68     		ldr	r3, [r7, #4]
 678 0034 181C     		mov	r0, r3
 679 0036 BD46     		mov	sp, r7
 680 0038 02B0     		add	sp, sp, #8
 681              		@ sp needed
 682 003a 80BD     		pop	{r7, pc}
 683              	.L34:
 684              		.align	2
 685              	.L33:
 686 003c 08000000 		.word	_ZTVN8std_msgs16MultiArrayLayoutE+8
 687              		.cfi_endproc
 688              	.LFE166:
 689              		.size	_ZN8std_msgs16MultiArrayLayoutC2Ev, .-_ZN8std_msgs16MultiArrayLayoutC2Ev
 690              		.weak	_ZN8std_msgs16MultiArrayLayoutC1Ev
 691              		.thumb_set _ZN8std_msgs16MultiArrayLayoutC1Ev,_ZN8std_msgs16MultiArrayLayoutC2Ev
 692              		.section	.text._ZNK8std_msgs16MultiArrayLayout9serializeEPh,"axG",%progbits,_ZNK8std_msgs16MultiAr
 693              		.align	2
 694              		.weak	_ZNK8std_msgs16MultiArrayLayout9serializeEPh
 695              		.code	16
 696              		.thumb_func
 697              		.type	_ZNK8std_msgs16MultiArrayLayout9serializeEPh, %function
 698              	_ZNK8std_msgs16MultiArrayLayout9serializeEPh:
 699              	.LFB168:
  26:./ros_lib/std_msgs/MultiArrayLayout.h **** 
  27:./ros_lib/std_msgs/MultiArrayLayout.h ****     virtual int serialize(unsigned char *outbuffer) const
 700              		.loc 4 27 0
 701              		.cfi_startproc
 702 0000 80B5     		push	{r7, lr}
 703              		.cfi_def_cfa_offset 8
ARM GAS  C:\Users\Chuck\AppData\Local\Temp\ccNCRqO6.s 			page 17


 704              		.cfi_offset 7, -8
 705              		.cfi_offset 14, -4
 706 0002 84B0     		sub	sp, sp, #16
 707              		.cfi_def_cfa_offset 24
 708 0004 00AF     		add	r7, sp, #0
 709              		.cfi_def_cfa_register 7
 710 0006 7860     		str	r0, [r7, #4]
 711 0008 3960     		str	r1, [r7]
 712              	.LBB9:
  28:./ros_lib/std_msgs/MultiArrayLayout.h ****     {
  29:./ros_lib/std_msgs/MultiArrayLayout.h ****       int offset = 0;
 713              		.loc 4 29 0
 714 000a 0023     		mov	r3, #0
 715 000c FB60     		str	r3, [r7, #12]
  30:./ros_lib/std_msgs/MultiArrayLayout.h **** #ifndef ROS_MSG_DONT_SERIALIZE
  31:./ros_lib/std_msgs/MultiArrayLayout.h ****       *(outbuffer + offset++) = dim_length;
 716              		.loc 4 31 0
 717 000e FB68     		ldr	r3, [r7, #12]
 718 0010 5A1C     		add	r2, r3, #1
 719 0012 FA60     		str	r2, [r7, #12]
 720 0014 1A1C     		mov	r2, r3
 721 0016 3B68     		ldr	r3, [r7]
 722 0018 9B18     		add	r3, r3, r2
 723 001a 7A68     		ldr	r2, [r7, #4]
 724 001c 1279     		ldrb	r2, [r2, #4]
 725 001e 1A70     		strb	r2, [r3]
  32:./ros_lib/std_msgs/MultiArrayLayout.h ****       *(outbuffer + offset++) = 0;
 726              		.loc 4 32 0
 727 0020 FB68     		ldr	r3, [r7, #12]
 728 0022 5A1C     		add	r2, r3, #1
 729 0024 FA60     		str	r2, [r7, #12]
 730 0026 1A1C     		mov	r2, r3
 731 0028 3B68     		ldr	r3, [r7]
 732 002a 9B18     		add	r3, r3, r2
 733 002c 0022     		mov	r2, #0
 734 002e 1A70     		strb	r2, [r3]
  33:./ros_lib/std_msgs/MultiArrayLayout.h ****       *(outbuffer + offset++) = 0;
 735              		.loc 4 33 0
 736 0030 FB68     		ldr	r3, [r7, #12]
 737 0032 5A1C     		add	r2, r3, #1
 738 0034 FA60     		str	r2, [r7, #12]
 739 0036 1A1C     		mov	r2, r3
 740 0038 3B68     		ldr	r3, [r7]
 741 003a 9B18     		add	r3, r3, r2
 742 003c 0022     		mov	r2, #0
 743 003e 1A70     		strb	r2, [r3]
  34:./ros_lib/std_msgs/MultiArrayLayout.h ****       *(outbuffer + offset++) = 0;
 744              		.loc 4 34 0
 745 0040 FB68     		ldr	r3, [r7, #12]
 746 0042 5A1C     		add	r2, r3, #1
 747 0044 FA60     		str	r2, [r7, #12]
 748 0046 1A1C     		mov	r2, r3
 749 0048 3B68     		ldr	r3, [r7]
 750 004a 9B18     		add	r3, r3, r2
 751 004c 0022     		mov	r2, #0
 752 004e 1A70     		strb	r2, [r3]
 753              	.LBB10:
ARM GAS  C:\Users\Chuck\AppData\Local\Temp\ccNCRqO6.s 			page 18


  35:./ros_lib/std_msgs/MultiArrayLayout.h ****       for( uint8_t i = 0; i < dim_length; i++){
 754              		.loc 4 35 0
 755 0050 0B23     		mov	r3, #11
 756 0052 FB18     		add	r3, r7, r3
 757 0054 0022     		mov	r2, #0
 758 0056 1A70     		strb	r2, [r3]
 759 0058 1FE0     		b	.L36
 760              	.L37:
  36:./ros_lib/std_msgs/MultiArrayLayout.h ****       offset += this->dim[i].serialize(outbuffer + offset);
 761              		.loc 4 36 0 discriminator 3
 762 005a 7B68     		ldr	r3, [r7, #4]
 763 005c 9A69     		ldr	r2, [r3, #24]
 764 005e 0B23     		mov	r3, #11
 765 0060 FB18     		add	r3, r7, r3
 766 0062 1B78     		ldrb	r3, [r3]
 767 0064 1B01     		lsl	r3, r3, #4
 768 0066 D318     		add	r3, r2, r3
 769 0068 1B68     		ldr	r3, [r3]
 770 006a 1A68     		ldr	r2, [r3]
 771 006c 7B68     		ldr	r3, [r7, #4]
 772 006e 9969     		ldr	r1, [r3, #24]
 773 0070 0B23     		mov	r3, #11
 774 0072 FB18     		add	r3, r7, r3
 775 0074 1B78     		ldrb	r3, [r3]
 776 0076 1B01     		lsl	r3, r3, #4
 777 0078 C818     		add	r0, r1, r3
 778 007a FB68     		ldr	r3, [r7, #12]
 779 007c 3968     		ldr	r1, [r7]
 780 007e CB18     		add	r3, r1, r3
 781 0080 191C     		mov	r1, r3
 782 0082 9047     		blx	r2
 783 0084 021C     		mov	r2, r0
 784 0086 FB68     		ldr	r3, [r7, #12]
 785 0088 9B18     		add	r3, r3, r2
 786 008a FB60     		str	r3, [r7, #12]
  35:./ros_lib/std_msgs/MultiArrayLayout.h ****       for( uint8_t i = 0; i < dim_length; i++){
 787              		.loc 4 35 0 discriminator 3
 788 008c 0B23     		mov	r3, #11
 789 008e FB18     		add	r3, r7, r3
 790 0090 1A78     		ldrb	r2, [r3]
 791 0092 0B23     		mov	r3, #11
 792 0094 FB18     		add	r3, r7, r3
 793 0096 0132     		add	r2, r2, #1
 794 0098 1A70     		strb	r2, [r3]
 795              	.L36:
  35:./ros_lib/std_msgs/MultiArrayLayout.h ****       for( uint8_t i = 0; i < dim_length; i++){
 796              		.loc 4 35 0 is_stmt 0 discriminator 1
 797 009a 7B68     		ldr	r3, [r7, #4]
 798 009c 1B79     		ldrb	r3, [r3, #4]
 799 009e 0B22     		mov	r2, #11
 800 00a0 BA18     		add	r2, r7, r2
 801 00a2 1278     		ldrb	r2, [r2]
 802 00a4 9A42     		cmp	r2, r3
 803 00a6 D8D3     		bcc	.L37
 804              	.LBE10:
  37:./ros_lib/std_msgs/MultiArrayLayout.h ****       }
  38:./ros_lib/std_msgs/MultiArrayLayout.h ****       *(outbuffer + offset + 0) = (this->data_offset >> (8 * 0)) & 0xFF;
ARM GAS  C:\Users\Chuck\AppData\Local\Temp\ccNCRqO6.s 			page 19


 805              		.loc 4 38 0 is_stmt 1
 806 00a8 FB68     		ldr	r3, [r7, #12]
 807 00aa 3A68     		ldr	r2, [r7]
 808 00ac D218     		add	r2, r2, r3
 809 00ae 7B68     		ldr	r3, [r7, #4]
 810 00b0 DB69     		ldr	r3, [r3, #28]
 811 00b2 DBB2     		uxtb	r3, r3
 812 00b4 1370     		strb	r3, [r2]
  39:./ros_lib/std_msgs/MultiArrayLayout.h ****       *(outbuffer + offset + 1) = (this->data_offset >> (8 * 1)) & 0xFF;
 813              		.loc 4 39 0
 814 00b6 FB68     		ldr	r3, [r7, #12]
 815 00b8 0133     		add	r3, r3, #1
 816 00ba 3A68     		ldr	r2, [r7]
 817 00bc D218     		add	r2, r2, r3
 818 00be 7B68     		ldr	r3, [r7, #4]
 819 00c0 DB69     		ldr	r3, [r3, #28]
 820 00c2 1B0A     		lsr	r3, r3, #8
 821 00c4 DBB2     		uxtb	r3, r3
 822 00c6 1370     		strb	r3, [r2]
  40:./ros_lib/std_msgs/MultiArrayLayout.h ****       *(outbuffer + offset + 2) = (this->data_offset >> (8 * 2)) & 0xFF;
 823              		.loc 4 40 0
 824 00c8 FB68     		ldr	r3, [r7, #12]
 825 00ca 0233     		add	r3, r3, #2
 826 00cc 3A68     		ldr	r2, [r7]
 827 00ce D218     		add	r2, r2, r3
 828 00d0 7B68     		ldr	r3, [r7, #4]
 829 00d2 DB69     		ldr	r3, [r3, #28]
 830 00d4 1B0C     		lsr	r3, r3, #16
 831 00d6 DBB2     		uxtb	r3, r3
 832 00d8 1370     		strb	r3, [r2]
  41:./ros_lib/std_msgs/MultiArrayLayout.h ****       *(outbuffer + offset + 3) = (this->data_offset >> (8 * 3)) & 0xFF;
 833              		.loc 4 41 0
 834 00da FB68     		ldr	r3, [r7, #12]
 835 00dc 0333     		add	r3, r3, #3
 836 00de 3A68     		ldr	r2, [r7]
 837 00e0 D218     		add	r2, r2, r3
 838 00e2 7B68     		ldr	r3, [r7, #4]
 839 00e4 DB69     		ldr	r3, [r3, #28]
 840 00e6 1B0E     		lsr	r3, r3, #24
 841 00e8 DBB2     		uxtb	r3, r3
 842 00ea 1370     		strb	r3, [r2]
  42:./ros_lib/std_msgs/MultiArrayLayout.h ****       offset += sizeof(this->data_offset);
 843              		.loc 4 42 0
 844 00ec FB68     		ldr	r3, [r7, #12]
 845 00ee 0433     		add	r3, r3, #4
 846 00f0 FB60     		str	r3, [r7, #12]
  43:./ros_lib/std_msgs/MultiArrayLayout.h **** #endif
  44:./ros_lib/std_msgs/MultiArrayLayout.h ****       return offset;
 847              		.loc 4 44 0
 848 00f2 FB68     		ldr	r3, [r7, #12]
 849              	.LBE9:
  45:./ros_lib/std_msgs/MultiArrayLayout.h ****     }
 850              		.loc 4 45 0
 851 00f4 181C     		mov	r0, r3
 852 00f6 BD46     		mov	sp, r7
 853 00f8 04B0     		add	sp, sp, #16
 854              		@ sp needed
ARM GAS  C:\Users\Chuck\AppData\Local\Temp\ccNCRqO6.s 			page 20


 855 00fa 80BD     		pop	{r7, pc}
 856              		.cfi_endproc
 857              	.LFE168:
 858              		.size	_ZNK8std_msgs16MultiArrayLayout9serializeEPh, .-_ZNK8std_msgs16MultiArrayLayout9serializeEPh
 859              		.section	.text._ZN8std_msgs16MultiArrayLayout11deserializeEPh,"axG",%progbits,_ZN8std_msgs16MultiA
 860              		.align	2
 861              		.weak	_ZN8std_msgs16MultiArrayLayout11deserializeEPh
 862              		.code	16
 863              		.thumb_func
 864              		.type	_ZN8std_msgs16MultiArrayLayout11deserializeEPh, %function
 865              	_ZN8std_msgs16MultiArrayLayout11deserializeEPh:
 866              	.LFB169:
  46:./ros_lib/std_msgs/MultiArrayLayout.h **** 
  47:./ros_lib/std_msgs/MultiArrayLayout.h ****     virtual int deserialize(unsigned char *inbuffer)
 867              		.loc 4 47 0
 868              		.cfi_startproc
 869 0000 80B5     		push	{r7, lr}
 870              		.cfi_def_cfa_offset 8
 871              		.cfi_offset 7, -8
 872              		.cfi_offset 14, -4
 873 0002 84B0     		sub	sp, sp, #16
 874              		.cfi_def_cfa_offset 24
 875 0004 00AF     		add	r7, sp, #0
 876              		.cfi_def_cfa_register 7
 877 0006 7860     		str	r0, [r7, #4]
 878 0008 3960     		str	r1, [r7]
 879              	.LBB11:
  48:./ros_lib/std_msgs/MultiArrayLayout.h ****     {
  49:./ros_lib/std_msgs/MultiArrayLayout.h ****       int offset = 0;
 880              		.loc 4 49 0
 881 000a 0023     		mov	r3, #0
 882 000c FB60     		str	r3, [r7, #12]
  50:./ros_lib/std_msgs/MultiArrayLayout.h **** #ifndef ROS_MSG_DONT_DESERIALIZE
  51:./ros_lib/std_msgs/MultiArrayLayout.h ****       uint8_t dim_lengthT = *(inbuffer + offset++);
 883              		.loc 4 51 0
 884 000e FB68     		ldr	r3, [r7, #12]
 885 0010 5A1C     		add	r2, r3, #1
 886 0012 FA60     		str	r2, [r7, #12]
 887 0014 1A1C     		mov	r2, r3
 888 0016 3B68     		ldr	r3, [r7]
 889 0018 9A18     		add	r2, r3, r2
 890 001a 0A23     		mov	r3, #10
 891 001c FB18     		add	r3, r7, r3
 892 001e 1278     		ldrb	r2, [r2]
 893 0020 1A70     		strb	r2, [r3]
  52:./ros_lib/std_msgs/MultiArrayLayout.h ****       if(dim_lengthT < dim_length)
 894              		.loc 4 52 0
 895 0022 7B68     		ldr	r3, [r7, #4]
 896 0024 1B79     		ldrb	r3, [r3, #4]
 897 0026 0A22     		mov	r2, #10
 898 0028 BA18     		add	r2, r7, r2
 899 002a 1278     		ldrb	r2, [r2]
 900 002c 9A42     		cmp	r2, r3
 901 002e 04D2     		bcs	.L40
  53:./ros_lib/std_msgs/MultiArrayLayout.h ****         dim_length = dim_lengthT;
 902              		.loc 4 53 0
 903 0030 7B68     		ldr	r3, [r7, #4]
ARM GAS  C:\Users\Chuck\AppData\Local\Temp\ccNCRqO6.s 			page 21


 904 0032 0A22     		mov	r2, #10
 905 0034 BA18     		add	r2, r7, r2
 906 0036 1278     		ldrb	r2, [r2]
 907 0038 1A71     		strb	r2, [r3, #4]
 908              	.L40:
  54:./ros_lib/std_msgs/MultiArrayLayout.h ****       offset += 3;
 909              		.loc 4 54 0
 910 003a FB68     		ldr	r3, [r7, #12]
 911 003c 0333     		add	r3, r3, #3
 912 003e FB60     		str	r3, [r7, #12]
 913              	.LBB12:
  55:./ros_lib/std_msgs/MultiArrayLayout.h ****       for( uint8_t i = 0; i < dim_lengthT; i++){
 914              		.loc 4 55 0
 915 0040 0B23     		mov	r3, #11
 916 0042 FB18     		add	r3, r7, r3
 917 0044 0022     		mov	r2, #0
 918 0046 1A70     		strb	r2, [r3]
 919 0048 29E0     		b	.L41
 920              	.L43:
  56:./ros_lib/std_msgs/MultiArrayLayout.h ****       offset += this->st_dim.deserialize(inbuffer + offset);
 921              		.loc 4 56 0
 922 004a 7B68     		ldr	r3, [r7, #4]
 923 004c 0833     		add	r3, r3, #8
 924 004e 191C     		mov	r1, r3
 925 0050 FB68     		ldr	r3, [r7, #12]
 926 0052 3A68     		ldr	r2, [r7]
 927 0054 D318     		add	r3, r2, r3
 928 0056 081C     		mov	r0, r1
 929 0058 191C     		mov	r1, r3
 930 005a FFF7FEFF 		bl	_ZN8std_msgs19MultiArrayDimension11deserializeEPh
 931 005e 021C     		mov	r2, r0
 932 0060 FB68     		ldr	r3, [r7, #12]
 933 0062 9B18     		add	r3, r3, r2
 934 0064 FB60     		str	r3, [r7, #12]
  57:./ros_lib/std_msgs/MultiArrayLayout.h ****       if (i < dim_length) {
 935              		.loc 4 57 0
 936 0066 7B68     		ldr	r3, [r7, #4]
 937 0068 1B79     		ldrb	r3, [r3, #4]
 938 006a 0B22     		mov	r2, #11
 939 006c BA18     		add	r2, r7, r2
 940 006e 1278     		ldrb	r2, [r2]
 941 0070 9A42     		cmp	r2, r3
 942 0072 0DD2     		bcs	.L42
  58:./ros_lib/std_msgs/MultiArrayLayout.h ****           memcpy( &(this->dim[i]), &(this->st_dim), sizeof(std_msgs::MultiArrayDimension));
 943              		.loc 4 58 0
 944 0074 7B68     		ldr	r3, [r7, #4]
 945 0076 9A69     		ldr	r2, [r3, #24]
 946 0078 0B23     		mov	r3, #11
 947 007a FB18     		add	r3, r7, r3
 948 007c 1B78     		ldrb	r3, [r3]
 949 007e 1B01     		lsl	r3, r3, #4
 950 0080 D218     		add	r2, r2, r3
 951 0082 7B68     		ldr	r3, [r7, #4]
 952 0084 0833     		add	r3, r3, #8
 953 0086 101C     		mov	r0, r2
 954 0088 191C     		mov	r1, r3
 955 008a 1022     		mov	r2, #16
ARM GAS  C:\Users\Chuck\AppData\Local\Temp\ccNCRqO6.s 			page 22


 956 008c FFF7FEFF 		bl	memcpy
 957              	.L42:
  55:./ros_lib/std_msgs/MultiArrayLayout.h ****       offset += this->st_dim.deserialize(inbuffer + offset);
 958              		.loc 4 55 0 discriminator 2
 959 0090 0B23     		mov	r3, #11
 960 0092 FB18     		add	r3, r7, r3
 961 0094 1A78     		ldrb	r2, [r3]
 962 0096 0B23     		mov	r3, #11
 963 0098 FB18     		add	r3, r7, r3
 964 009a 0132     		add	r2, r2, #1
 965 009c 1A70     		strb	r2, [r3]
 966              	.L41:
  55:./ros_lib/std_msgs/MultiArrayLayout.h ****       offset += this->st_dim.deserialize(inbuffer + offset);
 967              		.loc 4 55 0 is_stmt 0 discriminator 1
 968 009e 0B23     		mov	r3, #11
 969 00a0 FA18     		add	r2, r7, r3
 970 00a2 0A23     		mov	r3, #10
 971 00a4 FB18     		add	r3, r7, r3
 972 00a6 1278     		ldrb	r2, [r2]
 973 00a8 1B78     		ldrb	r3, [r3]
 974 00aa 9A42     		cmp	r2, r3
 975 00ac CDD3     		bcc	.L43
 976              	.LBE12:
  59:./ros_lib/std_msgs/MultiArrayLayout.h ****       }
  60:./ros_lib/std_msgs/MultiArrayLayout.h ****       }
  61:./ros_lib/std_msgs/MultiArrayLayout.h ****       this->data_offset =  ((uint32_t) (*(inbuffer + offset)));
 977              		.loc 4 61 0 is_stmt 1
 978 00ae FB68     		ldr	r3, [r7, #12]
 979 00b0 3A68     		ldr	r2, [r7]
 980 00b2 D318     		add	r3, r2, r3
 981 00b4 1B78     		ldrb	r3, [r3]
 982 00b6 1A1C     		mov	r2, r3
 983 00b8 7B68     		ldr	r3, [r7, #4]
 984 00ba DA61     		str	r2, [r3, #28]
  62:./ros_lib/std_msgs/MultiArrayLayout.h ****       this->data_offset |= ((uint32_t) (*(inbuffer + offset + 1))) << (8 * 1);
 985              		.loc 4 62 0
 986 00bc 7B68     		ldr	r3, [r7, #4]
 987 00be DA69     		ldr	r2, [r3, #28]
 988 00c0 FB68     		ldr	r3, [r7, #12]
 989 00c2 0133     		add	r3, r3, #1
 990 00c4 3968     		ldr	r1, [r7]
 991 00c6 CB18     		add	r3, r1, r3
 992 00c8 1B78     		ldrb	r3, [r3]
 993 00ca 1B02     		lsl	r3, r3, #8
 994 00cc 1A43     		orr	r2, r3
 995 00ce 7B68     		ldr	r3, [r7, #4]
 996 00d0 DA61     		str	r2, [r3, #28]
  63:./ros_lib/std_msgs/MultiArrayLayout.h ****       this->data_offset |= ((uint32_t) (*(inbuffer + offset + 2))) << (8 * 2);
 997              		.loc 4 63 0
 998 00d2 7B68     		ldr	r3, [r7, #4]
 999 00d4 DA69     		ldr	r2, [r3, #28]
 1000 00d6 FB68     		ldr	r3, [r7, #12]
 1001 00d8 0233     		add	r3, r3, #2
 1002 00da 3968     		ldr	r1, [r7]
 1003 00dc CB18     		add	r3, r1, r3
 1004 00de 1B78     		ldrb	r3, [r3]
 1005 00e0 1B04     		lsl	r3, r3, #16
ARM GAS  C:\Users\Chuck\AppData\Local\Temp\ccNCRqO6.s 			page 23


 1006 00e2 1A43     		orr	r2, r3
 1007 00e4 7B68     		ldr	r3, [r7, #4]
 1008 00e6 DA61     		str	r2, [r3, #28]
  64:./ros_lib/std_msgs/MultiArrayLayout.h ****       this->data_offset |= ((uint32_t) (*(inbuffer + offset + 3))) << (8 * 3);
 1009              		.loc 4 64 0
 1010 00e8 7B68     		ldr	r3, [r7, #4]
 1011 00ea DA69     		ldr	r2, [r3, #28]
 1012 00ec FB68     		ldr	r3, [r7, #12]
 1013 00ee 0333     		add	r3, r3, #3
 1014 00f0 3968     		ldr	r1, [r7]
 1015 00f2 CB18     		add	r3, r1, r3
 1016 00f4 1B78     		ldrb	r3, [r3]
 1017 00f6 1B06     		lsl	r3, r3, #24
 1018 00f8 1A43     		orr	r2, r3
 1019 00fa 7B68     		ldr	r3, [r7, #4]
 1020 00fc DA61     		str	r2, [r3, #28]
  65:./ros_lib/std_msgs/MultiArrayLayout.h ****       offset += sizeof(this->data_offset);
 1021              		.loc 4 65 0
 1022 00fe FB68     		ldr	r3, [r7, #12]
 1023 0100 0433     		add	r3, r3, #4
 1024 0102 FB60     		str	r3, [r7, #12]
  66:./ros_lib/std_msgs/MultiArrayLayout.h **** #endif
  67:./ros_lib/std_msgs/MultiArrayLayout.h ****      return offset;
 1025              		.loc 4 67 0
 1026 0104 FB68     		ldr	r3, [r7, #12]
 1027              	.LBE11:
  68:./ros_lib/std_msgs/MultiArrayLayout.h ****     }
 1028              		.loc 4 68 0
 1029 0106 181C     		mov	r0, r3
 1030 0108 BD46     		mov	sp, r7
 1031 010a 04B0     		add	sp, sp, #16
 1032              		@ sp needed
 1033 010c 80BD     		pop	{r7, pc}
 1034              		.cfi_endproc
 1035              	.LFE169:
 1036              		.size	_ZN8std_msgs16MultiArrayLayout11deserializeEPh, .-_ZN8std_msgs16MultiArrayLayout11deserializ
 1037 010e C046     		.section	.rodata
 1038 0045 000000   		.align	2
 1039              	.LC9:
 1040 0048 7374645F 		.ascii	"std_msgs/MultiArrayLayout\000"
 1040      6D736773 
 1040      2F4D756C 
 1040      74694172 
 1040      7261794C 
 1041              		.section	.text._ZN8std_msgs16MultiArrayLayout7getTypeEv,"axG",%progbits,_ZN8std_msgs16MultiArrayLa
 1042              		.align	2
 1043              		.weak	_ZN8std_msgs16MultiArrayLayout7getTypeEv
 1044              		.code	16
 1045              		.thumb_func
 1046              		.type	_ZN8std_msgs16MultiArrayLayout7getTypeEv, %function
 1047              	_ZN8std_msgs16MultiArrayLayout7getTypeEv:
 1048              	.LFB170:
  69:./ros_lib/std_msgs/MultiArrayLayout.h **** 
  70:./ros_lib/std_msgs/MultiArrayLayout.h ****     const char * getType(){ return "std_msgs/MultiArrayLayout"; };
 1049              		.loc 4 70 0
 1050              		.cfi_startproc
 1051 0000 80B5     		push	{r7, lr}
ARM GAS  C:\Users\Chuck\AppData\Local\Temp\ccNCRqO6.s 			page 24


 1052              		.cfi_def_cfa_offset 8
 1053              		.cfi_offset 7, -8
 1054              		.cfi_offset 14, -4
 1055 0002 82B0     		sub	sp, sp, #8
 1056              		.cfi_def_cfa_offset 16
 1057 0004 00AF     		add	r7, sp, #0
 1058              		.cfi_def_cfa_register 7
 1059 0006 7860     		str	r0, [r7, #4]
 1060              		.loc 4 70 0
 1061 0008 024B     		ldr	r3, .L47
 1062 000a 181C     		mov	r0, r3
 1063 000c BD46     		mov	sp, r7
 1064 000e 02B0     		add	sp, sp, #8
 1065              		@ sp needed
 1066 0010 80BD     		pop	{r7, pc}
 1067              	.L48:
 1068 0012 C046     		.align	2
 1069              	.L47:
 1070 0014 48000000 		.word	.LC9
 1071              		.cfi_endproc
 1072              	.LFE170:
 1073              		.size	_ZN8std_msgs16MultiArrayLayout7getTypeEv, .-_ZN8std_msgs16MultiArrayLayout7getTypeEv
 1074              		.section	.rodata
 1075 0062 0000     		.align	2
 1076              	.LC11:
 1077 0064 30666564 		.ascii	"0fed2a11c13e11c5571b4e2a995a91a3\000"
 1077      32613131 
 1077      63313365 
 1077      31316335 
 1077      35373162 
 1078              		.section	.text._ZN8std_msgs16MultiArrayLayout6getMD5Ev,"axG",%progbits,_ZN8std_msgs16MultiArrayLay
 1079              		.align	2
 1080              		.weak	_ZN8std_msgs16MultiArrayLayout6getMD5Ev
 1081              		.code	16
 1082              		.thumb_func
 1083              		.type	_ZN8std_msgs16MultiArrayLayout6getMD5Ev, %function
 1084              	_ZN8std_msgs16MultiArrayLayout6getMD5Ev:
 1085              	.LFB171:
  71:./ros_lib/std_msgs/MultiArrayLayout.h ****     const char * getMD5(){ return "0fed2a11c13e11c5571b4e2a995a91a3"; };
 1086              		.loc 4 71 0
 1087              		.cfi_startproc
 1088 0000 80B5     		push	{r7, lr}
 1089              		.cfi_def_cfa_offset 8
 1090              		.cfi_offset 7, -8
 1091              		.cfi_offset 14, -4
 1092 0002 82B0     		sub	sp, sp, #8
 1093              		.cfi_def_cfa_offset 16
 1094 0004 00AF     		add	r7, sp, #0
 1095              		.cfi_def_cfa_register 7
 1096 0006 7860     		str	r0, [r7, #4]
 1097              		.loc 4 71 0
 1098 0008 024B     		ldr	r3, .L51
 1099 000a 181C     		mov	r0, r3
 1100 000c BD46     		mov	sp, r7
 1101 000e 02B0     		add	sp, sp, #8
 1102              		@ sp needed
 1103 0010 80BD     		pop	{r7, pc}
ARM GAS  C:\Users\Chuck\AppData\Local\Temp\ccNCRqO6.s 			page 25


 1104              	.L52:
 1105 0012 C046     		.align	2
 1106              	.L51:
 1107 0014 64000000 		.word	.LC11
 1108              		.cfi_endproc
 1109              	.LFE171:
 1110              		.size	_ZN8std_msgs16MultiArrayLayout6getMD5Ev, .-_ZN8std_msgs16MultiArrayLayout6getMD5Ev
 1111              		.section	.text._ZN8std_msgs15UInt8MultiArrayC2Ev,"axG",%progbits,_ZN8std_msgs15UInt8MultiArrayC5Ev
 1112              		.align	2
 1113              		.weak	_ZN8std_msgs15UInt8MultiArrayC2Ev
 1114              		.code	16
 1115              		.thumb_func
 1116              		.type	_ZN8std_msgs15UInt8MultiArrayC2Ev, %function
 1117              	_ZN8std_msgs15UInt8MultiArrayC2Ev:
 1118              	.LFB173:
 1119              		.file 5 "./ros_lib/std_msgs/UInt8MultiArray.h"
   1:./ros_lib/std_msgs/UInt8MultiArray.h **** #ifndef _ROS_std_msgs_UInt8MultiArray_h
   2:./ros_lib/std_msgs/UInt8MultiArray.h **** #define _ROS_std_msgs_UInt8MultiArray_h
   3:./ros_lib/std_msgs/UInt8MultiArray.h **** 
   4:./ros_lib/std_msgs/UInt8MultiArray.h **** #include <stdint.h>
   5:./ros_lib/std_msgs/UInt8MultiArray.h **** #include <string.h>
   6:./ros_lib/std_msgs/UInt8MultiArray.h **** #include <stdlib.h>
   7:./ros_lib/std_msgs/UInt8MultiArray.h **** #include "ros/msg.h"
   8:./ros_lib/std_msgs/UInt8MultiArray.h **** #include "std_msgs/MultiArrayLayout.h"
   9:./ros_lib/std_msgs/UInt8MultiArray.h **** 
  10:./ros_lib/std_msgs/UInt8MultiArray.h **** namespace std_msgs
  11:./ros_lib/std_msgs/UInt8MultiArray.h **** {
  12:./ros_lib/std_msgs/UInt8MultiArray.h **** 
  13:./ros_lib/std_msgs/UInt8MultiArray.h ****   class UInt8MultiArray : public ros::Msg
  14:./ros_lib/std_msgs/UInt8MultiArray.h ****   {
  15:./ros_lib/std_msgs/UInt8MultiArray.h ****     public:
  16:./ros_lib/std_msgs/UInt8MultiArray.h ****       std_msgs::MultiArrayLayout layout;
  17:./ros_lib/std_msgs/UInt8MultiArray.h ****       uint8_t data_length;
  18:./ros_lib/std_msgs/UInt8MultiArray.h ****       uint8_t st_data;
  19:./ros_lib/std_msgs/UInt8MultiArray.h ****       uint8_t * data;
  20:./ros_lib/std_msgs/UInt8MultiArray.h **** 
  21:./ros_lib/std_msgs/UInt8MultiArray.h ****     UInt8MultiArray():
 1120              		.loc 5 21 0
 1121              		.cfi_startproc
 1122 0000 80B5     		push	{r7, lr}
 1123              		.cfi_def_cfa_offset 8
 1124              		.cfi_offset 7, -8
 1125              		.cfi_offset 14, -4
 1126 0002 82B0     		sub	sp, sp, #8
 1127              		.cfi_def_cfa_offset 16
 1128 0004 00AF     		add	r7, sp, #0
 1129              		.cfi_def_cfa_register 7
 1130 0006 7860     		str	r0, [r7, #4]
 1131              	.LBB13:
  22:./ros_lib/std_msgs/UInt8MultiArray.h ****       layout(),
  23:./ros_lib/std_msgs/UInt8MultiArray.h ****       data_length(0), data(NULL)
 1132              		.loc 5 23 0
 1133 0008 7B68     		ldr	r3, [r7, #4]
 1134 000a 181C     		mov	r0, r3
 1135 000c FFF7FEFF 		bl	_ZN3ros3MsgC2Ev
 1136 0010 7B68     		ldr	r3, [r7, #4]
 1137 0012 094A     		ldr	r2, .L56
ARM GAS  C:\Users\Chuck\AppData\Local\Temp\ccNCRqO6.s 			page 26


 1138 0014 1A60     		str	r2, [r3]
 1139 0016 7B68     		ldr	r3, [r7, #4]
 1140 0018 0433     		add	r3, r3, #4
 1141 001a 181C     		mov	r0, r3
 1142 001c FFF7FEFF 		bl	_ZN8std_msgs16MultiArrayLayoutC1Ev
 1143 0020 7B68     		ldr	r3, [r7, #4]
 1144 0022 2422     		mov	r2, #36
 1145 0024 0021     		mov	r1, #0
 1146 0026 9954     		strb	r1, [r3, r2]
 1147 0028 7B68     		ldr	r3, [r7, #4]
 1148 002a 0022     		mov	r2, #0
 1149 002c 9A62     		str	r2, [r3, #40]
 1150              	.LBE13:
  24:./ros_lib/std_msgs/UInt8MultiArray.h ****     {
  25:./ros_lib/std_msgs/UInt8MultiArray.h ****     }
 1151              		.loc 5 25 0
 1152 002e 7B68     		ldr	r3, [r7, #4]
 1153 0030 181C     		mov	r0, r3
 1154 0032 BD46     		mov	sp, r7
 1155 0034 02B0     		add	sp, sp, #8
 1156              		@ sp needed
 1157 0036 80BD     		pop	{r7, pc}
 1158              	.L57:
 1159              		.align	2
 1160              	.L56:
 1161 0038 08000000 		.word	_ZTVN8std_msgs15UInt8MultiArrayE+8
 1162              		.cfi_endproc
 1163              	.LFE173:
 1164              		.size	_ZN8std_msgs15UInt8MultiArrayC2Ev, .-_ZN8std_msgs15UInt8MultiArrayC2Ev
 1165              		.weak	_ZN8std_msgs15UInt8MultiArrayC1Ev
 1166              		.thumb_set _ZN8std_msgs15UInt8MultiArrayC1Ev,_ZN8std_msgs15UInt8MultiArrayC2Ev
 1167              		.section	.text._ZNK8std_msgs15UInt8MultiArray9serializeEPh,"axG",%progbits,_ZNK8std_msgs15UInt8Mul
 1168              		.align	2
 1169              		.weak	_ZNK8std_msgs15UInt8MultiArray9serializeEPh
 1170              		.code	16
 1171              		.thumb_func
 1172              		.type	_ZNK8std_msgs15UInt8MultiArray9serializeEPh, %function
 1173              	_ZNK8std_msgs15UInt8MultiArray9serializeEPh:
 1174              	.LFB175:
  26:./ros_lib/std_msgs/UInt8MultiArray.h **** 
  27:./ros_lib/std_msgs/UInt8MultiArray.h ****     virtual int serialize(unsigned char *outbuffer) const
 1175              		.loc 5 27 0
 1176              		.cfi_startproc
 1177 0000 80B5     		push	{r7, lr}
 1178              		.cfi_def_cfa_offset 8
 1179              		.cfi_offset 7, -8
 1180              		.cfi_offset 14, -4
 1181 0002 84B0     		sub	sp, sp, #16
 1182              		.cfi_def_cfa_offset 24
 1183 0004 00AF     		add	r7, sp, #0
 1184              		.cfi_def_cfa_register 7
 1185 0006 7860     		str	r0, [r7, #4]
 1186 0008 3960     		str	r1, [r7]
 1187              	.LBB14:
  28:./ros_lib/std_msgs/UInt8MultiArray.h ****     {
  29:./ros_lib/std_msgs/UInt8MultiArray.h ****       int offset = 0;
 1188              		.loc 5 29 0
ARM GAS  C:\Users\Chuck\AppData\Local\Temp\ccNCRqO6.s 			page 27


 1189 000a 0023     		mov	r3, #0
 1190 000c FB60     		str	r3, [r7, #12]
  30:./ros_lib/std_msgs/UInt8MultiArray.h **** #ifndef ROS_MSG_DONT_SERIALIZE
  31:./ros_lib/std_msgs/UInt8MultiArray.h ****       offset += this->layout.serialize(outbuffer + offset);
 1191              		.loc 5 31 0
 1192 000e 7B68     		ldr	r3, [r7, #4]
 1193 0010 191D     		add	r1, r3, #4
 1194 0012 FB68     		ldr	r3, [r7, #12]
 1195 0014 3A68     		ldr	r2, [r7]
 1196 0016 D318     		add	r3, r2, r3
 1197 0018 081C     		mov	r0, r1
 1198 001a 191C     		mov	r1, r3
 1199 001c FFF7FEFF 		bl	_ZNK8std_msgs16MultiArrayLayout9serializeEPh
 1200 0020 021C     		mov	r2, r0
 1201 0022 FB68     		ldr	r3, [r7, #12]
 1202 0024 9B18     		add	r3, r3, r2
 1203 0026 FB60     		str	r3, [r7, #12]
  32:./ros_lib/std_msgs/UInt8MultiArray.h ****       *(outbuffer + offset++) = data_length;
 1204              		.loc 5 32 0
 1205 0028 FB68     		ldr	r3, [r7, #12]
 1206 002a 5A1C     		add	r2, r3, #1
 1207 002c FA60     		str	r2, [r7, #12]
 1208 002e 1A1C     		mov	r2, r3
 1209 0030 3B68     		ldr	r3, [r7]
 1210 0032 9B18     		add	r3, r3, r2
 1211 0034 7A68     		ldr	r2, [r7, #4]
 1212 0036 2421     		mov	r1, #36
 1213 0038 525C     		ldrb	r2, [r2, r1]
 1214 003a 1A70     		strb	r2, [r3]
  33:./ros_lib/std_msgs/UInt8MultiArray.h ****       *(outbuffer + offset++) = 0;
 1215              		.loc 5 33 0
 1216 003c FB68     		ldr	r3, [r7, #12]
 1217 003e 5A1C     		add	r2, r3, #1
 1218 0040 FA60     		str	r2, [r7, #12]
 1219 0042 1A1C     		mov	r2, r3
 1220 0044 3B68     		ldr	r3, [r7]
 1221 0046 9B18     		add	r3, r3, r2
 1222 0048 0022     		mov	r2, #0
 1223 004a 1A70     		strb	r2, [r3]
  34:./ros_lib/std_msgs/UInt8MultiArray.h ****       *(outbuffer + offset++) = 0;
 1224              		.loc 5 34 0
 1225 004c FB68     		ldr	r3, [r7, #12]
 1226 004e 5A1C     		add	r2, r3, #1
 1227 0050 FA60     		str	r2, [r7, #12]
 1228 0052 1A1C     		mov	r2, r3
 1229 0054 3B68     		ldr	r3, [r7]
 1230 0056 9B18     		add	r3, r3, r2
 1231 0058 0022     		mov	r2, #0
 1232 005a 1A70     		strb	r2, [r3]
  35:./ros_lib/std_msgs/UInt8MultiArray.h ****       *(outbuffer + offset++) = 0;
 1233              		.loc 5 35 0
 1234 005c FB68     		ldr	r3, [r7, #12]
 1235 005e 5A1C     		add	r2, r3, #1
 1236 0060 FA60     		str	r2, [r7, #12]
 1237 0062 1A1C     		mov	r2, r3
 1238 0064 3B68     		ldr	r3, [r7]
 1239 0066 9B18     		add	r3, r3, r2
ARM GAS  C:\Users\Chuck\AppData\Local\Temp\ccNCRqO6.s 			page 28


 1240 0068 0022     		mov	r2, #0
 1241 006a 1A70     		strb	r2, [r3]
 1242              	.LBB15:
  36:./ros_lib/std_msgs/UInt8MultiArray.h ****       for( uint8_t i = 0; i < data_length; i++){
 1243              		.loc 5 36 0
 1244 006c 0B23     		mov	r3, #11
 1245 006e FB18     		add	r3, r7, r3
 1246 0070 0022     		mov	r2, #0
 1247 0072 1A70     		strb	r2, [r3]
 1248 0074 14E0     		b	.L59
 1249              	.L60:
  37:./ros_lib/std_msgs/UInt8MultiArray.h ****       *(outbuffer + offset + 0) = (this->data[i] >> (8 * 0)) & 0xFF;
 1250              		.loc 5 37 0 discriminator 3
 1251 0076 FB68     		ldr	r3, [r7, #12]
 1252 0078 3A68     		ldr	r2, [r7]
 1253 007a D218     		add	r2, r2, r3
 1254 007c 7B68     		ldr	r3, [r7, #4]
 1255 007e 996A     		ldr	r1, [r3, #40]
 1256 0080 0B23     		mov	r3, #11
 1257 0082 FB18     		add	r3, r7, r3
 1258 0084 1B78     		ldrb	r3, [r3]
 1259 0086 CB18     		add	r3, r1, r3
 1260 0088 1B78     		ldrb	r3, [r3]
 1261 008a 1370     		strb	r3, [r2]
  38:./ros_lib/std_msgs/UInt8MultiArray.h ****       offset += sizeof(this->data[i]);
 1262              		.loc 5 38 0 discriminator 3
 1263 008c FB68     		ldr	r3, [r7, #12]
 1264 008e 0133     		add	r3, r3, #1
 1265 0090 FB60     		str	r3, [r7, #12]
  36:./ros_lib/std_msgs/UInt8MultiArray.h ****       for( uint8_t i = 0; i < data_length; i++){
 1266              		.loc 5 36 0 discriminator 3
 1267 0092 0B23     		mov	r3, #11
 1268 0094 FB18     		add	r3, r7, r3
 1269 0096 1A78     		ldrb	r2, [r3]
 1270 0098 0B23     		mov	r3, #11
 1271 009a FB18     		add	r3, r7, r3
 1272 009c 0132     		add	r2, r2, #1
 1273 009e 1A70     		strb	r2, [r3]
 1274              	.L59:
  36:./ros_lib/std_msgs/UInt8MultiArray.h ****       for( uint8_t i = 0; i < data_length; i++){
 1275              		.loc 5 36 0 is_stmt 0 discriminator 1
 1276 00a0 7B68     		ldr	r3, [r7, #4]
 1277 00a2 2422     		mov	r2, #36
 1278 00a4 9B5C     		ldrb	r3, [r3, r2]
 1279 00a6 0B22     		mov	r2, #11
 1280 00a8 BA18     		add	r2, r7, r2
 1281 00aa 1278     		ldrb	r2, [r2]
 1282 00ac 9A42     		cmp	r2, r3
 1283 00ae E2D3     		bcc	.L60
 1284              	.LBE15:
  39:./ros_lib/std_msgs/UInt8MultiArray.h ****       }
  40:./ros_lib/std_msgs/UInt8MultiArray.h **** #endif
  41:./ros_lib/std_msgs/UInt8MultiArray.h ****       return offset;
 1285              		.loc 5 41 0 is_stmt 1
 1286 00b0 FB68     		ldr	r3, [r7, #12]
 1287              	.LBE14:
  42:./ros_lib/std_msgs/UInt8MultiArray.h ****     }
ARM GAS  C:\Users\Chuck\AppData\Local\Temp\ccNCRqO6.s 			page 29


 1288              		.loc 5 42 0
 1289 00b2 181C     		mov	r0, r3
 1290 00b4 BD46     		mov	sp, r7
 1291 00b6 04B0     		add	sp, sp, #16
 1292              		@ sp needed
 1293 00b8 80BD     		pop	{r7, pc}
 1294              		.cfi_endproc
 1295              	.LFE175:
 1296              		.size	_ZNK8std_msgs15UInt8MultiArray9serializeEPh, .-_ZNK8std_msgs15UInt8MultiArray9serializeEPh
 1297              		.section	.text._ZN8std_msgs15UInt8MultiArray11deserializeEPh,"axG",%progbits,_ZN8std_msgs15UInt8Mu
 1298              		.align	2
 1299              		.weak	_ZN8std_msgs15UInt8MultiArray11deserializeEPh
 1300              		.code	16
 1301              		.thumb_func
 1302              		.type	_ZN8std_msgs15UInt8MultiArray11deserializeEPh, %function
 1303              	_ZN8std_msgs15UInt8MultiArray11deserializeEPh:
 1304              	.LFB176:
  43:./ros_lib/std_msgs/UInt8MultiArray.h **** 
  44:./ros_lib/std_msgs/UInt8MultiArray.h ****     virtual int deserialize(unsigned char *inbuffer)
 1305              		.loc 5 44 0
 1306              		.cfi_startproc
 1307 0000 80B5     		push	{r7, lr}
 1308              		.cfi_def_cfa_offset 8
 1309              		.cfi_offset 7, -8
 1310              		.cfi_offset 14, -4
 1311 0002 84B0     		sub	sp, sp, #16
 1312              		.cfi_def_cfa_offset 24
 1313 0004 00AF     		add	r7, sp, #0
 1314              		.cfi_def_cfa_register 7
 1315 0006 7860     		str	r0, [r7, #4]
 1316 0008 3960     		str	r1, [r7]
 1317              	.LBB16:
  45:./ros_lib/std_msgs/UInt8MultiArray.h ****     {
  46:./ros_lib/std_msgs/UInt8MultiArray.h ****       int offset = 0;
 1318              		.loc 5 46 0
 1319 000a 0023     		mov	r3, #0
 1320 000c FB60     		str	r3, [r7, #12]
  47:./ros_lib/std_msgs/UInt8MultiArray.h **** #ifndef ROS_MSG_DONT_DESERIALIZE
  48:./ros_lib/std_msgs/UInt8MultiArray.h ****       offset += this->layout.deserialize(inbuffer + offset);
 1321              		.loc 5 48 0
 1322 000e 7B68     		ldr	r3, [r7, #4]
 1323 0010 191D     		add	r1, r3, #4
 1324 0012 FB68     		ldr	r3, [r7, #12]
 1325 0014 3A68     		ldr	r2, [r7]
 1326 0016 D318     		add	r3, r2, r3
 1327 0018 081C     		mov	r0, r1
 1328 001a 191C     		mov	r1, r3
 1329 001c FFF7FEFF 		bl	_ZN8std_msgs16MultiArrayLayout11deserializeEPh
 1330 0020 021C     		mov	r2, r0
 1331 0022 FB68     		ldr	r3, [r7, #12]
 1332 0024 9B18     		add	r3, r3, r2
 1333 0026 FB60     		str	r3, [r7, #12]
  49:./ros_lib/std_msgs/UInt8MultiArray.h ****       uint8_t data_lengthT = *(inbuffer + offset++);
 1334              		.loc 5 49 0
 1335 0028 FB68     		ldr	r3, [r7, #12]
 1336 002a 5A1C     		add	r2, r3, #1
 1337 002c FA60     		str	r2, [r7, #12]
ARM GAS  C:\Users\Chuck\AppData\Local\Temp\ccNCRqO6.s 			page 30


 1338 002e 1A1C     		mov	r2, r3
 1339 0030 3B68     		ldr	r3, [r7]
 1340 0032 9A18     		add	r2, r3, r2
 1341 0034 0A23     		mov	r3, #10
 1342 0036 FB18     		add	r3, r7, r3
 1343 0038 1278     		ldrb	r2, [r2]
 1344 003a 1A70     		strb	r2, [r3]
  50:./ros_lib/std_msgs/UInt8MultiArray.h ****       if(data_lengthT < data_length)
 1345              		.loc 5 50 0
 1346 003c 7B68     		ldr	r3, [r7, #4]
 1347 003e 2422     		mov	r2, #36
 1348 0040 9B5C     		ldrb	r3, [r3, r2]
 1349 0042 0A22     		mov	r2, #10
 1350 0044 BA18     		add	r2, r7, r2
 1351 0046 1278     		ldrb	r2, [r2]
 1352 0048 9A42     		cmp	r2, r3
 1353 004a 05D2     		bcs	.L63
  51:./ros_lib/std_msgs/UInt8MultiArray.h ****         data_length = data_lengthT;
 1354              		.loc 5 51 0
 1355 004c 7B68     		ldr	r3, [r7, #4]
 1356 004e 0A22     		mov	r2, #10
 1357 0050 BA18     		add	r2, r7, r2
 1358 0052 2421     		mov	r1, #36
 1359 0054 1278     		ldrb	r2, [r2]
 1360 0056 5A54     		strb	r2, [r3, r1]
 1361              	.L63:
  52:./ros_lib/std_msgs/UInt8MultiArray.h ****       offset += 3;
 1362              		.loc 5 52 0
 1363 0058 FB68     		ldr	r3, [r7, #12]
 1364 005a 0333     		add	r3, r3, #3
 1365 005c FB60     		str	r3, [r7, #12]
 1366              	.LBB17:
  53:./ros_lib/std_msgs/UInt8MultiArray.h ****       for( uint8_t i = 0; i < data_lengthT; i++){
 1367              		.loc 5 53 0
 1368 005e 0B23     		mov	r3, #11
 1369 0060 FB18     		add	r3, r7, r3
 1370 0062 0022     		mov	r2, #0
 1371 0064 1A70     		strb	r2, [r3]
 1372 0066 25E0     		b	.L64
 1373              	.L66:
  54:./ros_lib/std_msgs/UInt8MultiArray.h ****       this->st_data =  ((uint8_t) (*(inbuffer + offset)));
 1374              		.loc 5 54 0
 1375 0068 FB68     		ldr	r3, [r7, #12]
 1376 006a 3A68     		ldr	r2, [r7]
 1377 006c D318     		add	r3, r2, r3
 1378 006e 1978     		ldrb	r1, [r3]
 1379 0070 7B68     		ldr	r3, [r7, #4]
 1380 0072 2522     		mov	r2, #37
 1381 0074 9954     		strb	r1, [r3, r2]
  55:./ros_lib/std_msgs/UInt8MultiArray.h ****       offset += sizeof(this->st_data);
 1382              		.loc 5 55 0
 1383 0076 FB68     		ldr	r3, [r7, #12]
 1384 0078 0133     		add	r3, r3, #1
 1385 007a FB60     		str	r3, [r7, #12]
  56:./ros_lib/std_msgs/UInt8MultiArray.h ****       if (i < data_length) {
 1386              		.loc 5 56 0
 1387 007c 7B68     		ldr	r3, [r7, #4]
ARM GAS  C:\Users\Chuck\AppData\Local\Temp\ccNCRqO6.s 			page 31


 1388 007e 2422     		mov	r2, #36
 1389 0080 9B5C     		ldrb	r3, [r3, r2]
 1390 0082 0B22     		mov	r2, #11
 1391 0084 BA18     		add	r2, r7, r2
 1392 0086 1278     		ldrb	r2, [r2]
 1393 0088 9A42     		cmp	r2, r3
 1394 008a 0CD2     		bcs	.L65
  57:./ros_lib/std_msgs/UInt8MultiArray.h ****           memcpy( &(this->data[i]), &(this->st_data), sizeof(uint8_t));
 1395              		.loc 5 57 0
 1396 008c 7B68     		ldr	r3, [r7, #4]
 1397 008e 9A6A     		ldr	r2, [r3, #40]
 1398 0090 0B23     		mov	r3, #11
 1399 0092 FB18     		add	r3, r7, r3
 1400 0094 1B78     		ldrb	r3, [r3]
 1401 0096 D218     		add	r2, r2, r3
 1402 0098 7B68     		ldr	r3, [r7, #4]
 1403 009a 2533     		add	r3, r3, #37
 1404 009c 101C     		mov	r0, r2
 1405 009e 191C     		mov	r1, r3
 1406 00a0 0122     		mov	r2, #1
 1407 00a2 FFF7FEFF 		bl	memcpy
 1408              	.L65:
  53:./ros_lib/std_msgs/UInt8MultiArray.h ****       this->st_data =  ((uint8_t) (*(inbuffer + offset)));
 1409              		.loc 5 53 0 discriminator 2
 1410 00a6 0B23     		mov	r3, #11
 1411 00a8 FB18     		add	r3, r7, r3
 1412 00aa 1A78     		ldrb	r2, [r3]
 1413 00ac 0B23     		mov	r3, #11
 1414 00ae FB18     		add	r3, r7, r3
 1415 00b0 0132     		add	r2, r2, #1
 1416 00b2 1A70     		strb	r2, [r3]
 1417              	.L64:
  53:./ros_lib/std_msgs/UInt8MultiArray.h ****       this->st_data =  ((uint8_t) (*(inbuffer + offset)));
 1418              		.loc 5 53 0 is_stmt 0 discriminator 1
 1419 00b4 0B23     		mov	r3, #11
 1420 00b6 FA18     		add	r2, r7, r3
 1421 00b8 0A23     		mov	r3, #10
 1422 00ba FB18     		add	r3, r7, r3
 1423 00bc 1278     		ldrb	r2, [r2]
 1424 00be 1B78     		ldrb	r3, [r3]
 1425 00c0 9A42     		cmp	r2, r3
 1426 00c2 D1D3     		bcc	.L66
 1427              	.LBE17:
  58:./ros_lib/std_msgs/UInt8MultiArray.h ****       }
  59:./ros_lib/std_msgs/UInt8MultiArray.h ****       }
  60:./ros_lib/std_msgs/UInt8MultiArray.h **** #endif
  61:./ros_lib/std_msgs/UInt8MultiArray.h ****      return offset;
 1428              		.loc 5 61 0 is_stmt 1
 1429 00c4 FB68     		ldr	r3, [r7, #12]
 1430              	.LBE16:
  62:./ros_lib/std_msgs/UInt8MultiArray.h ****     }
 1431              		.loc 5 62 0
 1432 00c6 181C     		mov	r0, r3
 1433 00c8 BD46     		mov	sp, r7
 1434 00ca 04B0     		add	sp, sp, #16
 1435              		@ sp needed
 1436 00cc 80BD     		pop	{r7, pc}
ARM GAS  C:\Users\Chuck\AppData\Local\Temp\ccNCRqO6.s 			page 32


 1437              		.cfi_endproc
 1438              	.LFE176:
 1439              		.size	_ZN8std_msgs15UInt8MultiArray11deserializeEPh, .-_ZN8std_msgs15UInt8MultiArray11deserializeE
 1440 00ce C046     		.section	.rodata
 1441 0085 000000   		.align	2
 1442              	.LC14:
 1443 0088 7374645F 		.ascii	"std_msgs/UInt8MultiArray\000"
 1443      6D736773 
 1443      2F55496E 
 1443      74384D75 
 1443      6C746941 
 1444              		.section	.text._ZN8std_msgs15UInt8MultiArray7getTypeEv,"axG",%progbits,_ZN8std_msgs15UInt8MultiArr
 1445              		.align	2
 1446              		.weak	_ZN8std_msgs15UInt8MultiArray7getTypeEv
 1447              		.code	16
 1448              		.thumb_func
 1449              		.type	_ZN8std_msgs15UInt8MultiArray7getTypeEv, %function
 1450              	_ZN8std_msgs15UInt8MultiArray7getTypeEv:
 1451              	.LFB177:
  63:./ros_lib/std_msgs/UInt8MultiArray.h **** 
  64:./ros_lib/std_msgs/UInt8MultiArray.h ****     const char * getType(){ return "std_msgs/UInt8MultiArray"; };
 1452              		.loc 5 64 0
 1453              		.cfi_startproc
 1454 0000 80B5     		push	{r7, lr}
 1455              		.cfi_def_cfa_offset 8
 1456              		.cfi_offset 7, -8
 1457              		.cfi_offset 14, -4
 1458 0002 82B0     		sub	sp, sp, #8
 1459              		.cfi_def_cfa_offset 16
 1460 0004 00AF     		add	r7, sp, #0
 1461              		.cfi_def_cfa_register 7
 1462 0006 7860     		str	r0, [r7, #4]
 1463              		.loc 5 64 0
 1464 0008 024B     		ldr	r3, .L70
 1465 000a 181C     		mov	r0, r3
 1466 000c BD46     		mov	sp, r7
 1467 000e 02B0     		add	sp, sp, #8
 1468              		@ sp needed
 1469 0010 80BD     		pop	{r7, pc}
 1470              	.L71:
 1471 0012 C046     		.align	2
 1472              	.L70:
 1473 0014 88000000 		.word	.LC14
 1474              		.cfi_endproc
 1475              	.LFE177:
 1476              		.size	_ZN8std_msgs15UInt8MultiArray7getTypeEv, .-_ZN8std_msgs15UInt8MultiArray7getTypeEv
 1477              		.section	.rodata
 1478 00a1 000000   		.align	2
 1479              	.LC16:
 1480 00a4 38323337 		.ascii	"82373f1612381bb6ee473b5cd6f5d89c\000"
 1480      33663136 
 1480      31323338 
 1480      31626236 
 1480      65653437 
 1481              		.section	.text._ZN8std_msgs15UInt8MultiArray6getMD5Ev,"axG",%progbits,_ZN8std_msgs15UInt8MultiArra
 1482              		.align	2
 1483              		.weak	_ZN8std_msgs15UInt8MultiArray6getMD5Ev
ARM GAS  C:\Users\Chuck\AppData\Local\Temp\ccNCRqO6.s 			page 33


 1484              		.code	16
 1485              		.thumb_func
 1486              		.type	_ZN8std_msgs15UInt8MultiArray6getMD5Ev, %function
 1487              	_ZN8std_msgs15UInt8MultiArray6getMD5Ev:
 1488              	.LFB178:
  65:./ros_lib/std_msgs/UInt8MultiArray.h ****     const char * getMD5(){ return "82373f1612381bb6ee473b5cd6f5d89c"; };
 1489              		.loc 5 65 0
 1490              		.cfi_startproc
 1491 0000 80B5     		push	{r7, lr}
 1492              		.cfi_def_cfa_offset 8
 1493              		.cfi_offset 7, -8
 1494              		.cfi_offset 14, -4
 1495 0002 82B0     		sub	sp, sp, #8
 1496              		.cfi_def_cfa_offset 16
 1497 0004 00AF     		add	r7, sp, #0
 1498              		.cfi_def_cfa_register 7
 1499 0006 7860     		str	r0, [r7, #4]
 1500              		.loc 5 65 0
 1501 0008 024B     		ldr	r3, .L74
 1502 000a 181C     		mov	r0, r3
 1503 000c BD46     		mov	sp, r7
 1504 000e 02B0     		add	sp, sp, #8
 1505              		@ sp needed
 1506 0010 80BD     		pop	{r7, pc}
 1507              	.L75:
 1508 0012 C046     		.align	2
 1509              	.L74:
 1510 0014 A4000000 		.word	.LC16
 1511              		.cfi_endproc
 1512              	.LFE178:
 1513              		.size	_ZN8std_msgs15UInt8MultiArray6getMD5Ev, .-_ZN8std_msgs15UInt8MultiArray6getMD5Ev
 1514              		.global	_ZN10I2C_device9reply_msgE
 1515              		.bss
 1516              		.align	2
 1517              		.type	_ZN10I2C_device9reply_msgE, %object
 1518              		.size	_ZN10I2C_device9reply_msgE, 44
 1519              	_ZN10I2C_device9reply_msgE:
 1520 0000 00000000 		.space	44
 1520      00000000 
 1520      00000000 
 1520      00000000 
 1520      00000000 
 1521              		.global	_ZN10I2C_device9reply_dimE
 1522              		.align	2
 1523              		.type	_ZN10I2C_device9reply_dimE, %object
 1524              		.size	_ZN10I2C_device9reply_dimE, 16
 1525              	_ZN10I2C_device9reply_dimE:
 1526 002c 00000000 		.space	16
 1526      00000000 
 1526      00000000 
 1526      00000000 
 1527              		.global	_ZN10I2C_device10reply_dataE
 1528              		.align	2
 1529              		.type	_ZN10I2C_device10reply_dataE, %object
 1530              		.size	_ZN10I2C_device10reply_dataE, 8
 1531              	_ZN10I2C_device10reply_dataE:
 1532 003c 00000000 		.space	8
ARM GAS  C:\Users\Chuck\AppData\Local\Temp\ccNCRqO6.s 			page 34


 1532      00000000 
 1533              		.global	_ZN10I2C_device9reply_pubE
 1534              		.align	2
 1535              		.type	_ZN10I2C_device9reply_pubE, %object
 1536              		.size	_ZN10I2C_device9reply_pubE, 20
 1537              	_ZN10I2C_device9reply_pubE:
 1538 0044 00000000 		.space	20
 1538      00000000 
 1538      00000000 
 1538      00000000 
 1538      00000000 
 1539              		.global	_ZN10I2C_device7i2caddrE
 1540              		.type	_ZN10I2C_device7i2caddrE, %object
 1541              		.size	_ZN10I2C_device7i2caddrE, 1
 1542              	_ZN10I2C_device7i2caddrE:
 1543 0058 00       		.space	1
 1544              		.global	_ZN10I2C_device18max_readback_bytesE
 1545              		.type	_ZN10I2C_device18max_readback_bytesE, %object
 1546              		.size	_ZN10I2C_device18max_readback_bytesE, 1
 1547              	_ZN10I2C_device18max_readback_bytesE:
 1548 0059 00       		.space	1
 1549              		.global	_ZN10I2C_device5stateE
 1550              		.type	_ZN10I2C_device5stateE, %object
 1551              		.size	_ZN10I2C_device5stateE, 1
 1552              	_ZN10I2C_device5stateE:
 1553 005a 00       		.space	1
 1554              		.section	.text._ZN10I2C_device14writeMessageCbERKN8std_msgs15UInt8MultiArrayE,"ax",%progbits
 1555              		.align	2
 1556              		.global	_ZN10I2C_device14writeMessageCbERKN8std_msgs15UInt8MultiArrayE
 1557              		.code	16
 1558              		.thumb_func
 1559              		.type	_ZN10I2C_device14writeMessageCbERKN8std_msgs15UInt8MultiArrayE, %function
 1560              	_ZN10I2C_device14writeMessageCbERKN8std_msgs15UInt8MultiArrayE:
 1561              	.LFB179:
 1562              		.file 6 ".\\ros_lib\\examples\\I2C\\I2C_device.cpp"
   1:.\ros_lib\examples\I2C/I2C_device.cpp **** /* 
   2:.\ros_lib\examples\I2C/I2C_device.cpp ****  * rosserial I2C access for PSoC4
   3:.\ros_lib\examples\I2C/I2C_device.cpp ****  * 
   4:.\ros_lib\examples\I2C/I2C_device.cpp ****  * read/write to I2C device
   5:.\ros_lib\examples\I2C/I2C_device.cpp ****  *
   6:.\ros_lib\examples\I2C/I2C_device.cpp ****  * Copyright C Harrison
   7:.\ros_lib\examples\I2C/I2C_device.cpp ****  * BSD 2-clause license http://opensource.org/licenses/BSD-2-Clause
   8:.\ros_lib\examples\I2C/I2C_device.cpp ****  *
   9:.\ros_lib\examples\I2C/I2C_device.cpp ****  */
  10:.\ros_lib\examples\I2C/I2C_device.cpp **** 
  11:.\ros_lib\examples\I2C/I2C_device.cpp **** 
  12:.\ros_lib\examples\I2C/I2C_device.cpp **** extern "C" {
  13:.\ros_lib\examples\I2C/I2C_device.cpp **** #include "project.h"
  14:.\ros_lib\examples\I2C/I2C_device.cpp **** }
  15:.\ros_lib\examples\I2C/I2C_device.cpp **** #include <ros.h>
  16:.\ros_lib\examples\I2C/I2C_device.cpp **** #include <std_msgs/UInt8MultiArray.h>
  17:.\ros_lib\examples\I2C/I2C_device.cpp **** #include "I2C_device.h"
  18:.\ros_lib\examples\I2C/I2C_device.cpp **** 
  19:.\ros_lib\examples\I2C/I2C_device.cpp **** 
  20:.\ros_lib\examples\I2C/I2C_device.cpp **** extern ros::NodeHandle nh;
  21:.\ros_lib\examples\I2C/I2C_device.cpp **** 
  22:.\ros_lib\examples\I2C/I2C_device.cpp **** namespace I2C_device {
ARM GAS  C:\Users\Chuck\AppData\Local\Temp\ccNCRqO6.s 			page 35


  23:.\ros_lib\examples\I2C/I2C_device.cpp **** 
  24:.\ros_lib\examples\I2C/I2C_device.cpp **** 
  25:.\ros_lib\examples\I2C/I2C_device.cpp **** #define MAX_REPLY_BYTES 8
  26:.\ros_lib\examples\I2C/I2C_device.cpp **** std_msgs::UInt8MultiArray reply_msg;
  27:.\ros_lib\examples\I2C/I2C_device.cpp **** std_msgs::MultiArrayDimension reply_dim[1];
  28:.\ros_lib\examples\I2C/I2C_device.cpp **** uint8_t reply_data[MAX_REPLY_BYTES];
  29:.\ros_lib\examples\I2C/I2C_device.cpp **** ros::Publisher reply_pub("i2c_reply", &reply_msg);
  30:.\ros_lib\examples\I2C/I2C_device.cpp **** 
  31:.\ros_lib\examples\I2C/I2C_device.cpp **** uint8_t i2caddr;
  32:.\ros_lib\examples\I2C/I2C_device.cpp **** uint8_t max_readback_bytes;
  33:.\ros_lib\examples\I2C/I2C_device.cpp **** enum state {
  34:.\ros_lib\examples\I2C/I2C_device.cpp ****   state_idle,
  35:.\ros_lib\examples\I2C/I2C_device.cpp ****   state_writing,
  36:.\ros_lib\examples\I2C/I2C_device.cpp ****   state_read_setup,
  37:.\ros_lib\examples\I2C/I2C_device.cpp ****   state_reading
  38:.\ros_lib\examples\I2C/I2C_device.cpp **** } state;
  39:.\ros_lib\examples\I2C/I2C_device.cpp **** 
  40:.\ros_lib\examples\I2C/I2C_device.cpp **** #define MAX_CMD_BYTES MAX_REPLY_BYTES
  41:.\ros_lib\examples\I2C/I2C_device.cpp **** // typ write message array: <7-bit I2C wrt addr><data addr>[<data byte>...]
  42:.\ros_lib\examples\I2C/I2C_device.cpp **** void writeMessageCb(const std_msgs::UInt8MultiArray& msg) {
 1563              		.loc 6 42 0
 1564              		.cfi_startproc
 1565 0000 80B5     		push	{r7, lr}
 1566              		.cfi_def_cfa_offset 8
 1567              		.cfi_offset 7, -8
 1568              		.cfi_offset 14, -4
 1569 0002 84B0     		sub	sp, sp, #16
 1570              		.cfi_def_cfa_offset 24
 1571 0004 00AF     		add	r7, sp, #0
 1572              		.cfi_def_cfa_register 7
 1573 0006 7860     		str	r0, [r7, #4]
 1574              	.LBB18:
  43:.\ros_lib\examples\I2C/I2C_device.cpp ****     I2CMaster_Start(); // for testing
 1575              		.loc 6 43 0
 1576 0008 FFF7FEFF 		bl	I2CMaster_Start
  44:.\ros_lib\examples\I2C/I2C_device.cpp ****     uint32_t status = 
  45:.\ros_lib\examples\I2C/I2C_device.cpp ****       I2CMaster_I2CMasterWriteBuf(msg.data[0], msg.data+1, msg.data_length-1,
 1577              		.loc 6 45 0
 1578 000c 7B68     		ldr	r3, [r7, #4]
 1579 000e 9B6A     		ldr	r3, [r3, #40]
 1580 0010 1B78     		ldrb	r3, [r3]
  46:.\ros_lib\examples\I2C/I2C_device.cpp ****                                   I2CMaster_I2C_MODE_COMPLETE_XFER);
 1581              		.loc 6 46 0
 1582 0012 181C     		mov	r0, r3
 1583 0014 7B68     		ldr	r3, [r7, #4]
 1584 0016 9B6A     		ldr	r3, [r3, #40]
 1585 0018 591C     		add	r1, r3, #1
  45:.\ros_lib\examples\I2C/I2C_device.cpp ****                                   I2CMaster_I2C_MODE_COMPLETE_XFER);
 1586              		.loc 6 45 0
 1587 001a 7B68     		ldr	r3, [r7, #4]
 1588 001c 2422     		mov	r2, #36
 1589 001e 9B5C     		ldrb	r3, [r3, r2]
 1590 0020 013B     		sub	r3, r3, #1
 1591              		.loc 6 46 0
 1592 0022 1A1C     		mov	r2, r3
 1593 0024 0023     		mov	r3, #0
 1594 0026 FFF7FEFF 		bl	I2CMaster_I2CMasterWriteBuf
ARM GAS  C:\Users\Chuck\AppData\Local\Temp\ccNCRqO6.s 			page 36


 1595 002a 031C     		mov	r3, r0
 1596 002c FB60     		str	r3, [r7, #12]
  47:.\ros_lib\examples\I2C/I2C_device.cpp ****     if (status == I2CMaster_I2C_MSTR_NO_ERROR) {
 1597              		.loc 6 47 0
 1598 002e FB68     		ldr	r3, [r7, #12]
 1599 0030 002B     		cmp	r3, #0
 1600 0032 02D1     		bne	.L77
  48:.\ros_lib\examples\I2C/I2C_device.cpp ****         state = state_writing;
 1601              		.loc 6 48 0
 1602 0034 044B     		ldr	r3, .L78
 1603 0036 0122     		mov	r2, #1
 1604 0038 1A70     		strb	r2, [r3]
 1605              	.L77:
  49:.\ros_lib\examples\I2C/I2C_device.cpp ****     }
  50:.\ros_lib\examples\I2C/I2C_device.cpp ****     // restore cmd msg buffer max size
  51:.\ros_lib\examples\I2C/I2C_device.cpp ****     const_cast<std_msgs::UInt8MultiArray&>(msg).data_length = MAX_CMD_BYTES;
 1606              		.loc 6 51 0
 1607 003a 7B68     		ldr	r3, [r7, #4]
 1608 003c 2422     		mov	r2, #36
 1609 003e 0821     		mov	r1, #8
 1610 0040 9954     		strb	r1, [r3, r2]
 1611              	.LBE18:
  52:.\ros_lib\examples\I2C/I2C_device.cpp **** }
 1612              		.loc 6 52 0
 1613 0042 BD46     		mov	sp, r7
 1614 0044 04B0     		add	sp, sp, #16
 1615              		@ sp needed
 1616 0046 80BD     		pop	{r7, pc}
 1617              	.L79:
 1618              		.align	2
 1619              	.L78:
 1620 0048 00000000 		.word	_ZN10I2C_device5stateE
 1621              		.cfi_endproc
 1622              	.LFE179:
 1623              		.size	_ZN10I2C_device14writeMessageCbERKN8std_msgs15UInt8MultiArrayE, .-_ZN10I2C_device14writeMess
 1624              		.section	.text._ZN10I2C_device13readMessageCbERKN8std_msgs15UInt8MultiArrayE,"ax",%progbits
 1625              		.align	2
 1626              		.global	_ZN10I2C_device13readMessageCbERKN8std_msgs15UInt8MultiArrayE
 1627              		.code	16
 1628              		.thumb_func
 1629              		.type	_ZN10I2C_device13readMessageCbERKN8std_msgs15UInt8MultiArrayE, %function
 1630              	_ZN10I2C_device13readMessageCbERKN8std_msgs15UInt8MultiArrayE:
 1631              	.LFB180:
  53:.\ros_lib\examples\I2C/I2C_device.cpp **** // typ read message array <7-bit I2C addr><data addr><max num readback bytes>
  54:.\ros_lib\examples\I2C/I2C_device.cpp **** //  If message array is 2 bytes long, <data_addr> is assumed absent and simple read op is performed
  55:.\ros_lib\examples\I2C/I2C_device.cpp **** void readMessageCb(const std_msgs::UInt8MultiArray& msg) {
 1632              		.loc 6 55 0
 1633              		.cfi_startproc
 1634 0000 80B5     		push	{r7, lr}
 1635              		.cfi_def_cfa_offset 8
 1636              		.cfi_offset 7, -8
 1637              		.cfi_offset 14, -4
 1638 0002 84B0     		sub	sp, sp, #16
 1639              		.cfi_def_cfa_offset 24
 1640 0004 00AF     		add	r7, sp, #0
 1641              		.cfi_def_cfa_register 7
 1642 0006 7860     		str	r0, [r7, #4]
ARM GAS  C:\Users\Chuck\AppData\Local\Temp\ccNCRqO6.s 			page 37


 1643              	.LBB19:
  56:.\ros_lib\examples\I2C/I2C_device.cpp ****     I2CMaster_Start(); // for testing
 1644              		.loc 6 56 0
 1645 0008 FFF7FEFF 		bl	I2CMaster_Start
  57:.\ros_lib\examples\I2C/I2C_device.cpp ****     if (msg.data_length < 2) { return; } // invalid message
 1646              		.loc 6 57 0
 1647 000c 7B68     		ldr	r3, [r7, #4]
 1648 000e 2422     		mov	r2, #36
 1649 0010 9B5C     		ldrb	r3, [r3, r2]
 1650 0012 012B     		cmp	r3, #1
 1651 0014 00D8     		bhi	.L81
 1652 0016 43E0     		b	.L80
 1653              	.L81:
  58:.\ros_lib\examples\I2C/I2C_device.cpp ****     max_readback_bytes = msg.data[msg.data_length-1];
 1654              		.loc 6 58 0
 1655 0018 7B68     		ldr	r3, [r7, #4]
 1656 001a 9A6A     		ldr	r2, [r3, #40]
 1657 001c 7B68     		ldr	r3, [r7, #4]
 1658 001e 2421     		mov	r1, #36
 1659 0020 5B5C     		ldrb	r3, [r3, r1]
 1660 0022 013B     		sub	r3, r3, #1
 1661 0024 D318     		add	r3, r2, r3
 1662 0026 1A78     		ldrb	r2, [r3]
 1663 0028 1F4B     		ldr	r3, .L86
 1664 002a 1A70     		strb	r2, [r3]
  59:.\ros_lib\examples\I2C/I2C_device.cpp ****     i2caddr = msg.data[0];
 1665              		.loc 6 59 0
 1666 002c 7B68     		ldr	r3, [r7, #4]
 1667 002e 9B6A     		ldr	r3, [r3, #40]
 1668 0030 1A78     		ldrb	r2, [r3]
 1669 0032 1E4B     		ldr	r3, .L86+4
 1670 0034 1A70     		strb	r2, [r3]
 1671              	.LBB20:
  60:.\ros_lib\examples\I2C/I2C_device.cpp ****     if (msg.data_length > 2) { // do write address cycle
 1672              		.loc 6 60 0
 1673 0036 7B68     		ldr	r3, [r7, #4]
 1674 0038 2422     		mov	r2, #36
 1675 003a 9B5C     		ldrb	r3, [r3, r2]
 1676 003c 022B     		cmp	r3, #2
 1677 003e 16D9     		bls	.L83
 1678              	.LBB21:
  61:.\ros_lib\examples\I2C/I2C_device.cpp ****         uint32_t status = 
  62:.\ros_lib\examples\I2C/I2C_device.cpp ****           I2CMaster_I2CMasterWriteBuf(i2caddr, msg.data+1, msg.data_length-2, I2CMaster_I2C_MODE_CO
 1679              		.loc 6 62 0
 1680 0040 1A4B     		ldr	r3, .L86+4
 1681 0042 1B78     		ldrb	r3, [r3]
 1682 0044 181C     		mov	r0, r3
 1683 0046 7B68     		ldr	r3, [r7, #4]
 1684 0048 9B6A     		ldr	r3, [r3, #40]
 1685 004a 591C     		add	r1, r3, #1
 1686 004c 7B68     		ldr	r3, [r7, #4]
 1687 004e 2422     		mov	r2, #36
 1688 0050 9B5C     		ldrb	r3, [r3, r2]
 1689 0052 023B     		sub	r3, r3, #2
 1690 0054 1A1C     		mov	r2, r3
 1691 0056 0023     		mov	r3, #0
 1692 0058 FFF7FEFF 		bl	I2CMaster_I2CMasterWriteBuf
ARM GAS  C:\Users\Chuck\AppData\Local\Temp\ccNCRqO6.s 			page 38


 1693 005c 031C     		mov	r3, r0
 1694 005e FB60     		str	r3, [r7, #12]
  63:.\ros_lib\examples\I2C/I2C_device.cpp ****         if (status == I2CMaster_I2C_MSTR_NO_ERROR) {
 1695              		.loc 6 63 0
 1696 0060 FB68     		ldr	r3, [r7, #12]
 1697 0062 002B     		cmp	r3, #0
 1698 0064 02D1     		bne	.L84
  64:.\ros_lib\examples\I2C/I2C_device.cpp ****             state = state_read_setup;
 1699              		.loc 6 64 0
 1700 0066 124B     		ldr	r3, .L86+8
 1701 0068 0222     		mov	r2, #2
 1702 006a 1A70     		strb	r2, [r3]
 1703              	.L84:
 1704              	.LBE21:
 1705 006c 14E0     		b	.L85
 1706              	.L83:
 1707              	.LBB22:
  65:.\ros_lib\examples\I2C/I2C_device.cpp ****         }
  66:.\ros_lib\examples\I2C/I2C_device.cpp ****     } else { // simple read operation
  67:.\ros_lib\examples\I2C/I2C_device.cpp ****         uint32_t status = I2CMaster_I2CMasterReadBuf(i2caddr, reply_msg.data, max_readback_bytes,
  68:.\ros_lib\examples\I2C/I2C_device.cpp ****                                     I2CMaster_I2C_MODE_COMPLETE_XFER);
 1708              		.loc 6 68 0
 1709 006e 0F4B     		ldr	r3, .L86+4
 1710 0070 1B78     		ldrb	r3, [r3]
 1711 0072 191C     		mov	r1, r3
 1712 0074 0F4B     		ldr	r3, .L86+12
 1713 0076 9A6A     		ldr	r2, [r3, #40]
 1714 0078 0B4B     		ldr	r3, .L86
 1715 007a 1B78     		ldrb	r3, [r3]
 1716 007c 081C     		mov	r0, r1
 1717 007e 111C     		mov	r1, r2
 1718 0080 1A1C     		mov	r2, r3
 1719 0082 0023     		mov	r3, #0
 1720 0084 FFF7FEFF 		bl	I2CMaster_I2CMasterReadBuf
 1721 0088 031C     		mov	r3, r0
 1722 008a BB60     		str	r3, [r7, #8]
  69:.\ros_lib\examples\I2C/I2C_device.cpp ****         if (status == I2CMaster_I2C_MSTR_NO_ERROR) {
 1723              		.loc 6 69 0
 1724 008c BB68     		ldr	r3, [r7, #8]
 1725 008e 002B     		cmp	r3, #0
 1726 0090 02D1     		bne	.L85
  70:.\ros_lib\examples\I2C/I2C_device.cpp ****             state = state_reading;
 1727              		.loc 6 70 0
 1728 0092 074B     		ldr	r3, .L86+8
 1729 0094 0322     		mov	r2, #3
 1730 0096 1A70     		strb	r2, [r3]
 1731              	.L85:
 1732              	.LBE22:
 1733              	.LBE20:
  71:.\ros_lib\examples\I2C/I2C_device.cpp **** 		}
  72:.\ros_lib\examples\I2C/I2C_device.cpp ****     }
  73:.\ros_lib\examples\I2C/I2C_device.cpp ****     // restore cmd msg buffer max size
  74:.\ros_lib\examples\I2C/I2C_device.cpp ****     const_cast<std_msgs::UInt8MultiArray&>(msg).data_length = MAX_CMD_BYTES;
 1734              		.loc 6 74 0
 1735 0098 7B68     		ldr	r3, [r7, #4]
 1736 009a 2422     		mov	r2, #36
 1737 009c 0821     		mov	r1, #8
ARM GAS  C:\Users\Chuck\AppData\Local\Temp\ccNCRqO6.s 			page 39


 1738 009e 9954     		strb	r1, [r3, r2]
 1739              	.L80:
 1740              	.LBE19:
  75:.\ros_lib\examples\I2C/I2C_device.cpp **** }
 1741              		.loc 6 75 0
 1742 00a0 BD46     		mov	sp, r7
 1743 00a2 04B0     		add	sp, sp, #16
 1744              		@ sp needed
 1745 00a4 80BD     		pop	{r7, pc}
 1746              	.L87:
 1747 00a6 C046     		.align	2
 1748              	.L86:
 1749 00a8 00000000 		.word	_ZN10I2C_device18max_readback_bytesE
 1750 00ac 00000000 		.word	_ZN10I2C_device7i2caddrE
 1751 00b0 00000000 		.word	_ZN10I2C_device5stateE
 1752 00b4 00000000 		.word	_ZN10I2C_device9reply_msgE
 1753              		.cfi_endproc
 1754              	.LFE180:
 1755              		.size	_ZN10I2C_device13readMessageCbERKN8std_msgs15UInt8MultiArrayE, .-_ZN10I2C_device13readMessag
 1756              		.global	_ZN10I2C_device9cmd_sub_wE
 1757              		.bss
 1758 005b 00       		.align	2
 1759              		.type	_ZN10I2C_device9cmd_sub_wE, %object
 1760              		.size	_ZN10I2C_device9cmd_sub_wE, 68
 1761              	_ZN10I2C_device9cmd_sub_wE:
 1762 005c 00000000 		.space	68
 1762      00000000 
 1762      00000000 
 1762      00000000 
 1762      00000000 
 1763              		.global	_ZN10I2C_device9cmd_sub_rE
 1764              		.align	2
 1765              		.type	_ZN10I2C_device9cmd_sub_rE, %object
 1766              		.size	_ZN10I2C_device9cmd_sub_rE, 68
 1767              	_ZN10I2C_device9cmd_sub_rE:
 1768 00a0 00000000 		.space	68
 1768      00000000 
 1768      00000000 
 1768      00000000 
 1768      00000000 
 1769              		.global	_ZN10I2C_device7cmd_dimE
 1770              		.align	2
 1771              		.type	_ZN10I2C_device7cmd_dimE, %object
 1772              		.size	_ZN10I2C_device7cmd_dimE, 16
 1773              	_ZN10I2C_device7cmd_dimE:
 1774 00e4 00000000 		.space	16
 1774      00000000 
 1774      00000000 
 1774      00000000 
 1775              		.global	_ZN10I2C_device8cmd_dataE
 1776              		.align	2
 1777              		.type	_ZN10I2C_device8cmd_dataE, %object
 1778              		.size	_ZN10I2C_device8cmd_dataE, 8
 1779              	_ZN10I2C_device8cmd_dataE:
 1780 00f4 00000000 		.space	8
 1780      00000000 
 1781              		.section	.rodata
ARM GAS  C:\Users\Chuck\AppData\Local\Temp\ccNCRqO6.s 			page 40


 1782 00c5 000000   		.align	2
 1783              	.LC25:
 1784 00c8 7265706C 		.ascii	"reply\000"
 1784      7900
 1785              		.section	.text._ZN10I2C_device5setupEv,"ax",%progbits
 1786              		.align	2
 1787              		.global	_ZN10I2C_device5setupEv
 1788              		.code	16
 1789              		.thumb_func
 1790              		.type	_ZN10I2C_device5setupEv, %function
 1791              	_ZN10I2C_device5setupEv:
 1792              	.LFB181:
  76:.\ros_lib\examples\I2C/I2C_device.cpp **** 
  77:.\ros_lib\examples\I2C/I2C_device.cpp **** ros::Subscriber<std_msgs::UInt8MultiArray> cmd_sub_w("i2c_write", &writeMessageCb);
  78:.\ros_lib\examples\I2C/I2C_device.cpp **** ros::Subscriber<std_msgs::UInt8MultiArray> cmd_sub_r("i2c_read", &readMessageCb);
  79:.\ros_lib\examples\I2C/I2C_device.cpp **** std_msgs::MultiArrayDimension cmd_dim[1];
  80:.\ros_lib\examples\I2C/I2C_device.cpp **** uint8_t cmd_data[MAX_CMD_BYTES]; 
  81:.\ros_lib\examples\I2C/I2C_device.cpp **** 
  82:.\ros_lib\examples\I2C/I2C_device.cpp **** void setup() {
 1793              		.loc 6 82 0
 1794              		.cfi_startproc
 1795 0000 80B5     		push	{r7, lr}
 1796              		.cfi_def_cfa_offset 8
 1797              		.cfi_offset 7, -8
 1798              		.cfi_offset 14, -4
 1799 0002 00AF     		add	r7, sp, #0
 1800              		.cfi_def_cfa_register 7
  83:.\ros_lib\examples\I2C/I2C_device.cpp **** 
  84:.\ros_lib\examples\I2C/I2C_device.cpp ****     //I2CMaster_scl_SetDriveMode(I2CMaster_scl_DM_RES_UP);
  85:.\ros_lib\examples\I2C/I2C_device.cpp ****     //I2CMaster_sda_SetDriveMode(I2CMaster_sda_DM_RES_UP);
  86:.\ros_lib\examples\I2C/I2C_device.cpp ****     I2CMaster_Start();
 1801              		.loc 6 86 0
 1802 0004 FFF7FEFF 		bl	I2CMaster_Start
  87:.\ros_lib\examples\I2C/I2C_device.cpp **** 	
  88:.\ros_lib\examples\I2C/I2C_device.cpp **** 	// initialize 1-dimensional array message for SPI data reply
  89:.\ros_lib\examples\I2C/I2C_device.cpp **** 	reply_msg.layout.dim_length = 1;
 1803              		.loc 6 89 0
 1804 0008 244B     		ldr	r3, .L89
 1805 000a 0122     		mov	r2, #1
 1806 000c 1A72     		strb	r2, [r3, #8]
  90:.\ros_lib\examples\I2C/I2C_device.cpp **** 	reply_msg.layout.data_offset = 0;
 1807              		.loc 6 90 0
 1808 000e 234B     		ldr	r3, .L89
 1809 0010 0022     		mov	r2, #0
 1810 0012 1A62     		str	r2, [r3, #32]
  91:.\ros_lib\examples\I2C/I2C_device.cpp **** 	reply_msg.layout.dim = reply_dim;
 1811              		.loc 6 91 0
 1812 0014 214B     		ldr	r3, .L89
 1813 0016 224A     		ldr	r2, .L89+4
 1814 0018 DA61     		str	r2, [r3, #28]
  92:.\ros_lib\examples\I2C/I2C_device.cpp **** 	reply_msg.layout.dim[0].label = const_cast<char*>("reply");
 1815              		.loc 6 92 0
 1816 001a 204B     		ldr	r3, .L89
 1817 001c DB69     		ldr	r3, [r3, #28]
 1818 001e 214A     		ldr	r2, .L89+8
 1819 0020 5A60     		str	r2, [r3, #4]
  93:.\ros_lib\examples\I2C/I2C_device.cpp **** 	reply_msg.layout.dim[0].size = 0;
ARM GAS  C:\Users\Chuck\AppData\Local\Temp\ccNCRqO6.s 			page 41


 1820              		.loc 6 93 0
 1821 0022 1E4B     		ldr	r3, .L89
 1822 0024 DB69     		ldr	r3, [r3, #28]
 1823 0026 0022     		mov	r2, #0
 1824 0028 9A60     		str	r2, [r3, #8]
  94:.\ros_lib\examples\I2C/I2C_device.cpp **** 	reply_msg.layout.dim[0].stride = MAX_REPLY_BYTES;
 1825              		.loc 6 94 0
 1826 002a 1C4B     		ldr	r3, .L89
 1827 002c DB69     		ldr	r3, [r3, #28]
 1828 002e 0822     		mov	r2, #8
 1829 0030 DA60     		str	r2, [r3, #12]
  95:.\ros_lib\examples\I2C/I2C_device.cpp **** 	reply_msg.data = reply_data;
 1830              		.loc 6 95 0
 1831 0032 1A4B     		ldr	r3, .L89
 1832 0034 1C4A     		ldr	r2, .L89+12
 1833 0036 9A62     		str	r2, [r3, #40]
  96:.\ros_lib\examples\I2C/I2C_device.cpp **** 	reply_msg.data_length = MAX_REPLY_BYTES;
 1834              		.loc 6 96 0
 1835 0038 184B     		ldr	r3, .L89
 1836 003a 2422     		mov	r2, #36
 1837 003c 0821     		mov	r1, #8
 1838 003e 9954     		strb	r1, [r3, r2]
  97:.\ros_lib\examples\I2C/I2C_device.cpp **** 	nh.advertise(reply_pub);
 1839              		.loc 6 97 0
 1840 0040 1A4A     		ldr	r2, .L89+16
 1841 0042 1B4B     		ldr	r3, .L89+20
 1842 0044 101C     		mov	r0, r2
 1843 0046 191C     		mov	r1, r3
 1844 0048 FFF7FEFF 		bl	_ZN3ros11NodeHandle_I13Psoc4HardwareLi10ELi20ELi200ELi200EE9advertiseERNS_9PublisherE
  98:.\ros_lib\examples\I2C/I2C_device.cpp ****     // attach message storage to I2C command messages & set max size
  99:.\ros_lib\examples\I2C/I2C_device.cpp ****     cmd_sub_w.msg.data = cmd_data;
 1845              		.loc 6 99 0
 1846 004c 194B     		ldr	r3, .L89+24
 1847 004e 1A4A     		ldr	r2, .L89+28
 1848 0050 5A63     		str	r2, [r3, #52]
 100:.\ros_lib\examples\I2C/I2C_device.cpp ****     cmd_sub_w.msg.data_length = MAX_CMD_BYTES;
 1849              		.loc 6 100 0
 1850 0052 184B     		ldr	r3, .L89+24
 1851 0054 3022     		mov	r2, #48
 1852 0056 0821     		mov	r1, #8
 1853 0058 9954     		strb	r1, [r3, r2]
 101:.\ros_lib\examples\I2C/I2C_device.cpp ****     cmd_sub_w.msg.layout.dim = cmd_dim;
 1854              		.loc 6 101 0
 1855 005a 164B     		ldr	r3, .L89+24
 1856 005c 174A     		ldr	r2, .L89+32
 1857 005e 9A62     		str	r2, [r3, #40]
 102:.\ros_lib\examples\I2C/I2C_device.cpp ****     cmd_sub_w.msg.layout.dim_length = 1;
 1858              		.loc 6 102 0
 1859 0060 144B     		ldr	r3, .L89+24
 1860 0062 0122     		mov	r2, #1
 1861 0064 1A75     		strb	r2, [r3, #20]
 103:.\ros_lib\examples\I2C/I2C_device.cpp **** 	nh.subscribe(cmd_sub_w);
 1862              		.loc 6 103 0
 1863 0066 114A     		ldr	r2, .L89+16
 1864 0068 124B     		ldr	r3, .L89+24
 1865 006a 101C     		mov	r0, r2
 1866 006c 191C     		mov	r1, r3
ARM GAS  C:\Users\Chuck\AppData\Local\Temp\ccNCRqO6.s 			page 42


 1867 006e FFF7FEFF 		bl	_ZN3ros11NodeHandle_I13Psoc4HardwareLi10ELi20ELi200ELi200EE9subscribeIN8std_msgs15UInt8MultiArr
 104:.\ros_lib\examples\I2C/I2C_device.cpp ****     cmd_sub_r.msg.data = cmd_data;
 1868              		.loc 6 104 0
 1869 0072 134B     		ldr	r3, .L89+36
 1870 0074 104A     		ldr	r2, .L89+28
 1871 0076 5A63     		str	r2, [r3, #52]
 105:.\ros_lib\examples\I2C/I2C_device.cpp ****     cmd_sub_r.msg.data_length = MAX_CMD_BYTES;
 1872              		.loc 6 105 0
 1873 0078 114B     		ldr	r3, .L89+36
 1874 007a 3022     		mov	r2, #48
 1875 007c 0821     		mov	r1, #8
 1876 007e 9954     		strb	r1, [r3, r2]
 106:.\ros_lib\examples\I2C/I2C_device.cpp ****     cmd_sub_r.msg.layout.dim = cmd_dim;
 1877              		.loc 6 106 0
 1878 0080 0F4B     		ldr	r3, .L89+36
 1879 0082 0E4A     		ldr	r2, .L89+32
 1880 0084 9A62     		str	r2, [r3, #40]
 107:.\ros_lib\examples\I2C/I2C_device.cpp ****     cmd_sub_r.msg.layout.dim_length = 1;
 1881              		.loc 6 107 0
 1882 0086 0E4B     		ldr	r3, .L89+36
 1883 0088 0122     		mov	r2, #1
 1884 008a 1A75     		strb	r2, [r3, #20]
 108:.\ros_lib\examples\I2C/I2C_device.cpp **** 	nh.subscribe(cmd_sub_r);
 1885              		.loc 6 108 0
 1886 008c 074A     		ldr	r2, .L89+16
 1887 008e 0C4B     		ldr	r3, .L89+36
 1888 0090 101C     		mov	r0, r2
 1889 0092 191C     		mov	r1, r3
 1890 0094 FFF7FEFF 		bl	_ZN3ros11NodeHandle_I13Psoc4HardwareLi10ELi20ELi200ELi200EE9subscribeIN8std_msgs15UInt8MultiArr
 109:.\ros_lib\examples\I2C/I2C_device.cpp **** }
 1891              		.loc 6 109 0
 1892 0098 BD46     		mov	sp, r7
 1893              		@ sp needed
 1894 009a 80BD     		pop	{r7, pc}
 1895              	.L90:
 1896              		.align	2
 1897              	.L89:
 1898 009c 00000000 		.word	_ZN10I2C_device9reply_msgE
 1899 00a0 00000000 		.word	_ZN10I2C_device9reply_dimE
 1900 00a4 C8000000 		.word	.LC25
 1901 00a8 00000000 		.word	_ZN10I2C_device10reply_dataE
 1902 00ac 00000000 		.word	nh
 1903 00b0 00000000 		.word	_ZN10I2C_device9reply_pubE
 1904 00b4 00000000 		.word	_ZN10I2C_device9cmd_sub_wE
 1905 00b8 00000000 		.word	_ZN10I2C_device8cmd_dataE
 1906 00bc 00000000 		.word	_ZN10I2C_device7cmd_dimE
 1907 00c0 00000000 		.word	_ZN10I2C_device9cmd_sub_rE
 1908              		.cfi_endproc
 1909              	.LFE181:
 1910              		.size	_ZN10I2C_device5setupEv, .-_ZN10I2C_device5setupEv
 1911              		.section	.text._ZN10I2C_device4loopEv,"ax",%progbits
 1912              		.align	2
 1913              		.global	_ZN10I2C_device4loopEv
 1914              		.code	16
 1915              		.thumb_func
 1916              		.type	_ZN10I2C_device4loopEv, %function
 1917              	_ZN10I2C_device4loopEv:
ARM GAS  C:\Users\Chuck\AppData\Local\Temp\ccNCRqO6.s 			page 43


 1918              	.LFB182:
 110:.\ros_lib\examples\I2C/I2C_device.cpp **** 
 111:.\ros_lib\examples\I2C/I2C_device.cpp **** void loop() {
 1919              		.loc 6 111 0
 1920              		.cfi_startproc
 1921 0000 80B5     		push	{r7, lr}
 1922              		.cfi_def_cfa_offset 8
 1923              		.cfi_offset 7, -8
 1924              		.cfi_offset 14, -4
 1925 0002 82B0     		sub	sp, sp, #8
 1926              		.cfi_def_cfa_offset 16
 1927 0004 00AF     		add	r7, sp, #0
 1928              		.cfi_def_cfa_register 7
 1929              	.LBB23:
 1930              	.LBB24:
 112:.\ros_lib\examples\I2C/I2C_device.cpp **** 
 113:.\ros_lib\examples\I2C/I2C_device.cpp ****     if(state==state_read_setup && I2CMaster_I2CMasterStatus()==I2CMaster_I2C_MSTAT_WR_CMPLT) {
 1931              		.loc 6 113 0
 1932 0006 344B     		ldr	r3, .L102
 1933 0008 1B78     		ldrb	r3, [r3]
 1934 000a 022B     		cmp	r3, #2
 1935 000c 06D1     		bne	.L92
 1936              		.loc 6 113 0 is_stmt 0 discriminator 1
 1937 000e FFF7FEFF 		bl	I2CMaster_I2CMasterStatus
 1938 0012 031E     		sub	r3, r0, #0
 1939 0014 022B     		cmp	r3, #2
 1940 0016 01D1     		bne	.L92
 1941              		.loc 6 113 0 discriminator 3
 1942 0018 0123     		mov	r3, #1
 1943 001a 00E0     		b	.L93
 1944              	.L92:
 1945              		.loc 6 113 0 discriminator 4
 1946 001c 0023     		mov	r3, #0
 1947              	.L93:
 1948              		.loc 6 113 0 discriminator 6
 1949 001e 002B     		cmp	r3, #0
 1950 0020 17D0     		beq	.L94
 1951              	.LBB25:
 114:.\ros_lib\examples\I2C/I2C_device.cpp ****         // read transfer setup phase complete; start read data transfer
 115:.\ros_lib\examples\I2C/I2C_device.cpp **** 		
 116:.\ros_lib\examples\I2C/I2C_device.cpp ****         uint32_t status = I2CMaster_I2CMasterReadBuf(i2caddr, reply_msg.data, max_readback_bytes,
 117:.\ros_lib\examples\I2C/I2C_device.cpp ****                              I2CMaster_I2C_MODE_COMPLETE_XFER);
 1952              		.loc 6 117 0 is_stmt 1
 1953 0022 2E4B     		ldr	r3, .L102+4
 1954 0024 1B78     		ldrb	r3, [r3]
 1955 0026 191C     		mov	r1, r3
 1956 0028 2D4B     		ldr	r3, .L102+8
 1957 002a 9A6A     		ldr	r2, [r3, #40]
 1958 002c 2D4B     		ldr	r3, .L102+12
 1959 002e 1B78     		ldrb	r3, [r3]
 1960 0030 081C     		mov	r0, r1
 1961 0032 111C     		mov	r1, r2
 1962 0034 1A1C     		mov	r2, r3
 1963 0036 0023     		mov	r3, #0
 1964 0038 FFF7FEFF 		bl	I2CMaster_I2CMasterReadBuf
 1965 003c 031C     		mov	r3, r0
 1966 003e 7B60     		str	r3, [r7, #4]
ARM GAS  C:\Users\Chuck\AppData\Local\Temp\ccNCRqO6.s 			page 44


 118:.\ros_lib\examples\I2C/I2C_device.cpp ****         if (status == I2CMaster_I2C_MSTR_NO_ERROR) {
 1967              		.loc 6 118 0
 1968 0040 7B68     		ldr	r3, [r7, #4]
 1969 0042 002B     		cmp	r3, #0
 1970 0044 02D1     		bne	.L95
 119:.\ros_lib\examples\I2C/I2C_device.cpp ****             state = state_reading;
 1971              		.loc 6 119 0
 1972 0046 244B     		ldr	r3, .L102
 1973 0048 0322     		mov	r2, #3
 1974 004a 1A70     		strb	r2, [r3]
 1975              	.L95:
 120:.\ros_lib\examples\I2C/I2C_device.cpp ****         }
 121:.\ros_lib\examples\I2C/I2C_device.cpp ****         I2CMaster_I2CMasterClearStatus();
 1976              		.loc 6 121 0
 1977 004c FFF7FEFF 		bl	I2CMaster_I2CMasterClearStatus
 1978              	.LBE25:
 1979 0050 3FE0     		b	.L91
 1980              	.L94:
 122:.\ros_lib\examples\I2C/I2C_device.cpp ****     } else if (state==state_reading  && I2CMaster_I2CMasterStatus()==I2CMaster_I2C_MSTAT_RD_CMPLT) 
 1981              		.loc 6 122 0
 1982 0052 214B     		ldr	r3, .L102
 1983 0054 1B78     		ldrb	r3, [r3]
 1984 0056 032B     		cmp	r3, #3
 1985 0058 06D1     		bne	.L97
 1986              		.loc 6 122 0 is_stmt 0 discriminator 1
 1987 005a FFF7FEFF 		bl	I2CMaster_I2CMasterStatus
 1988 005e 031E     		sub	r3, r0, #0
 1989 0060 012B     		cmp	r3, #1
 1990 0062 01D1     		bne	.L97
 1991              		.loc 6 122 0 discriminator 3
 1992 0064 0123     		mov	r3, #1
 1993 0066 00E0     		b	.L98
 1994              	.L97:
 1995              		.loc 6 122 0 discriminator 4
 1996 0068 0023     		mov	r3, #0
 1997              	.L98:
 1998              		.loc 6 122 0 discriminator 6
 1999 006a 002B     		cmp	r3, #0
 2000 006c 1ED0     		beq	.L99
 123:.\ros_lib\examples\I2C/I2C_device.cpp ****         // read operation is complete; publish reply
 124:.\ros_lib\examples\I2C/I2C_device.cpp **** 	    reply_msg.data_length = I2CMaster_I2CMasterGetReadBufSize();
 2001              		.loc 6 124 0 is_stmt 1
 2002 006e FFF7FEFF 		bl	I2CMaster_I2CMasterGetReadBufSize
 2003 0072 031C     		mov	r3, r0
 2004 0074 D9B2     		uxtb	r1, r3
 2005 0076 1A4B     		ldr	r3, .L102+8
 2006 0078 2422     		mov	r2, #36
 2007 007a 9954     		strb	r1, [r3, r2]
 125:.\ros_lib\examples\I2C/I2C_device.cpp ****         I2CMaster_I2CMasterClearReadBuf();
 2008              		.loc 6 125 0
 2009 007c FFF7FEFF 		bl	I2CMaster_I2CMasterClearReadBuf
 126:.\ros_lib\examples\I2C/I2C_device.cpp **** 	    reply_msg.layout.dim[0].size = reply_msg.data_length;
 2010              		.loc 6 126 0
 2011 0080 174B     		ldr	r3, .L102+8
 2012 0082 DB69     		ldr	r3, [r3, #28]
 2013 0084 164A     		ldr	r2, .L102+8
 2014 0086 2421     		mov	r1, #36
ARM GAS  C:\Users\Chuck\AppData\Local\Temp\ccNCRqO6.s 			page 45


 2015 0088 525C     		ldrb	r2, [r2, r1]
 2016 008a 9A60     		str	r2, [r3, #8]
 127:.\ros_lib\examples\I2C/I2C_device.cpp **** 		reply_pub.publish(&reply_msg);
 2017              		.loc 6 127 0
 2018 008c 164A     		ldr	r2, .L102+16
 2019 008e 144B     		ldr	r3, .L102+8
 2020 0090 101C     		mov	r0, r2
 2021 0092 191C     		mov	r1, r3
 2022 0094 FFF7FEFF 		bl	_ZN3ros9Publisher7publishEPKNS_3MsgE
 128:.\ros_lib\examples\I2C/I2C_device.cpp **** 		reply_msg.data_length = MAX_REPLY_BYTES;
 2023              		.loc 6 128 0
 2024 0098 114B     		ldr	r3, .L102+8
 2025 009a 2422     		mov	r2, #36
 2026 009c 0821     		mov	r1, #8
 2027 009e 9954     		strb	r1, [r3, r2]
 129:.\ros_lib\examples\I2C/I2C_device.cpp **** 		state = state_idle;
 2028              		.loc 6 129 0
 2029 00a0 0D4B     		ldr	r3, .L102
 2030 00a2 0022     		mov	r2, #0
 2031 00a4 1A70     		strb	r2, [r3]
 130:.\ros_lib\examples\I2C/I2C_device.cpp ****         I2CMaster_I2CMasterClearStatus();
 2032              		.loc 6 130 0
 2033 00a6 FFF7FEFF 		bl	I2CMaster_I2CMasterClearStatus
 2034 00aa 12E0     		b	.L91
 2035              	.L99:
 131:.\ros_lib\examples\I2C/I2C_device.cpp **** 	} else if (state==state_writing && I2CMaster_I2CMasterStatus()==I2CMaster_I2C_MSTAT_WR_CMPLT) {
 2036              		.loc 6 131 0
 2037 00ac 0A4B     		ldr	r3, .L102
 2038 00ae 1B78     		ldrb	r3, [r3]
 2039 00b0 012B     		cmp	r3, #1
 2040 00b2 06D1     		bne	.L100
 2041              		.loc 6 131 0 is_stmt 0 discriminator 1
 2042 00b4 FFF7FEFF 		bl	I2CMaster_I2CMasterStatus
 2043 00b8 031E     		sub	r3, r0, #0
 2044 00ba 022B     		cmp	r3, #2
 2045 00bc 01D1     		bne	.L100
 2046              		.loc 6 131 0 discriminator 3
 2047 00be 0123     		mov	r3, #1
 2048 00c0 00E0     		b	.L101
 2049              	.L100:
 2050              		.loc 6 131 0 discriminator 4
 2051 00c2 0023     		mov	r3, #0
 2052              	.L101:
 2053              		.loc 6 131 0 discriminator 6
 2054 00c4 002B     		cmp	r3, #0
 2055 00c6 04D0     		beq	.L91
 132:.\ros_lib\examples\I2C/I2C_device.cpp ****         // write operation is complete
 133:.\ros_lib\examples\I2C/I2C_device.cpp ****         state = state_idle;
 2056              		.loc 6 133 0 is_stmt 1
 2057 00c8 034B     		ldr	r3, .L102
 2058 00ca 0022     		mov	r2, #0
 2059 00cc 1A70     		strb	r2, [r3]
 134:.\ros_lib\examples\I2C/I2C_device.cpp ****         I2CMaster_I2CMasterClearStatus();
 2060              		.loc 6 134 0
 2061 00ce FFF7FEFF 		bl	I2CMaster_I2CMasterClearStatus
 2062              	.L91:
 2063              	.LBE24:
ARM GAS  C:\Users\Chuck\AppData\Local\Temp\ccNCRqO6.s 			page 46


 2064              	.LBE23:
 135:.\ros_lib\examples\I2C/I2C_device.cpp ****     }
 136:.\ros_lib\examples\I2C/I2C_device.cpp ****            
 137:.\ros_lib\examples\I2C/I2C_device.cpp ****  }
 2065              		.loc 6 137 0
 2066 00d2 BD46     		mov	sp, r7
 2067 00d4 02B0     		add	sp, sp, #8
 2068              		@ sp needed
 2069 00d6 80BD     		pop	{r7, pc}
 2070              	.L103:
 2071              		.align	2
 2072              	.L102:
 2073 00d8 00000000 		.word	_ZN10I2C_device5stateE
 2074 00dc 00000000 		.word	_ZN10I2C_device7i2caddrE
 2075 00e0 00000000 		.word	_ZN10I2C_device9reply_msgE
 2076 00e4 00000000 		.word	_ZN10I2C_device18max_readback_bytesE
 2077 00e8 00000000 		.word	_ZN10I2C_device9reply_pubE
 2078              		.cfi_endproc
 2079              	.LFE182:
 2080              		.size	_ZN10I2C_device4loopEv, .-_ZN10I2C_device4loopEv
 2081              		.section	.text._ZN3ros11Subscriber_C2Ev,"axG",%progbits,_ZN3ros11Subscriber_C5Ev,comdat
 2082              		.align	2
 2083              		.weak	_ZN3ros11Subscriber_C2Ev
 2084              		.code	16
 2085              		.thumb_func
 2086              		.type	_ZN3ros11Subscriber_C2Ev, %function
 2087              	_ZN3ros11Subscriber_C2Ev:
 2088              	.LFB185:
 2089              		.file 7 "./ros_lib/ros/subscriber.h"
   1:./ros_lib/ros/subscriber.h **** /* 
   2:./ros_lib/ros/subscriber.h ****  * Software License Agreement (BSD License)
   3:./ros_lib/ros/subscriber.h ****  *
   4:./ros_lib/ros/subscriber.h ****  * Copyright (c) 2011, Willow Garage, Inc.
   5:./ros_lib/ros/subscriber.h ****  * All rights reserved.
   6:./ros_lib/ros/subscriber.h ****  *
   7:./ros_lib/ros/subscriber.h ****  * Redistribution and use in source and binary forms, with or without
   8:./ros_lib/ros/subscriber.h ****  * modification, are permitted provided that the following conditions
   9:./ros_lib/ros/subscriber.h ****  * are met:
  10:./ros_lib/ros/subscriber.h ****  *
  11:./ros_lib/ros/subscriber.h ****  *  * Redistributions of source code must retain the above copyright
  12:./ros_lib/ros/subscriber.h ****  *    notice, this list of conditions and the following disclaimer.
  13:./ros_lib/ros/subscriber.h ****  *  * Redistributions in binary form must reproduce the above
  14:./ros_lib/ros/subscriber.h ****  *    copyright notice, this list of conditions and the following
  15:./ros_lib/ros/subscriber.h ****  *    disclaimer in the documentation and/or other materials provided
  16:./ros_lib/ros/subscriber.h ****  *    with the distribution.
  17:./ros_lib/ros/subscriber.h ****  *  * Neither the name of Willow Garage, Inc. nor the names of its
  18:./ros_lib/ros/subscriber.h ****  *    contributors may be used to endorse or promote prducts derived
  19:./ros_lib/ros/subscriber.h ****  *    from this software without specific prior written permission.
  20:./ros_lib/ros/subscriber.h ****  *
  21:./ros_lib/ros/subscriber.h ****  * THIS SOFTWARE IS PROVIDED BY THE COPYRIGHT HOLDERS AND CONTRIBUTORS
  22:./ros_lib/ros/subscriber.h ****  * "AS IS" AND ANY EXPRESS OR IMPLIED WARRANTIES, INCLUDING, BUT NOT
  23:./ros_lib/ros/subscriber.h ****  * LIMITED TO, THE IMPLIED WARRANTIES OF MERCHANTABILITY AND FITNESS
  24:./ros_lib/ros/subscriber.h ****  * FOR A PARTICULAR PURPOSE ARE DISCLAIMED. IN NO EVENT SHALL THE
  25:./ros_lib/ros/subscriber.h ****  * COPYRIGHT OWNER OR CONTRIBUTORS BE LIABLE FOR ANY DIRECT, INDIRECT,
  26:./ros_lib/ros/subscriber.h ****  * INCIDENTAL, SPECIAL, EXEMPLARY, OR CONSEQUENTIAL DAMAGES (INCLUDING,
  27:./ros_lib/ros/subscriber.h ****  * BUT NOT LIMITED TO, PROCUREMENT OF SUBSTITUTE GOODS OR SERVICES;
  28:./ros_lib/ros/subscriber.h ****  * LOSS OF USE, DATA, OR PROFITS; OR BUSINESS INTERRUPTION) HOWEVER
ARM GAS  C:\Users\Chuck\AppData\Local\Temp\ccNCRqO6.s 			page 47


  29:./ros_lib/ros/subscriber.h ****  * CAUSED AND ON ANY THEORY OF LIABILITY, WHETHER IN CONTRACT, STRICT
  30:./ros_lib/ros/subscriber.h ****  * LIABILITY, OR TORT (INCLUDING NEGLIGENCE OR OTHERWISE) ARISING IN
  31:./ros_lib/ros/subscriber.h ****  * ANY WAY OUT OF THE USE OF THIS SOFTWARE, EVEN IF ADVISED OF THE
  32:./ros_lib/ros/subscriber.h ****  * POSSIBILITY OF SUCH DAMAGE.
  33:./ros_lib/ros/subscriber.h ****  */
  34:./ros_lib/ros/subscriber.h **** 
  35:./ros_lib/ros/subscriber.h **** #ifndef ROS_SUBSCRIBER_H_
  36:./ros_lib/ros/subscriber.h **** #define ROS_SUBSCRIBER_H_
  37:./ros_lib/ros/subscriber.h **** 
  38:./ros_lib/ros/subscriber.h **** #include "rosserial_msgs/TopicInfo.h"
  39:./ros_lib/ros/subscriber.h **** 
  40:./ros_lib/ros/subscriber.h **** namespace ros {
  41:./ros_lib/ros/subscriber.h **** 
  42:./ros_lib/ros/subscriber.h ****   /* Base class for objects subscribers. */
  43:./ros_lib/ros/subscriber.h ****   class Subscriber_
 2090              		.loc 7 43 0
 2091              		.cfi_startproc
 2092 0000 80B5     		push	{r7, lr}
 2093              		.cfi_def_cfa_offset 8
 2094              		.cfi_offset 7, -8
 2095              		.cfi_offset 14, -4
 2096 0002 82B0     		sub	sp, sp, #8
 2097              		.cfi_def_cfa_offset 16
 2098 0004 00AF     		add	r7, sp, #0
 2099              		.cfi_def_cfa_register 7
 2100 0006 7860     		str	r0, [r7, #4]
 2101              	.LBB26:
 2102              		.loc 7 43 0
 2103 0008 7B68     		ldr	r3, [r7, #4]
 2104 000a 034A     		ldr	r2, .L107
 2105 000c 1A60     		str	r2, [r3]
 2106              	.LBE26:
 2107 000e 7B68     		ldr	r3, [r7, #4]
 2108 0010 181C     		mov	r0, r3
 2109 0012 BD46     		mov	sp, r7
 2110 0014 02B0     		add	sp, sp, #8
 2111              		@ sp needed
 2112 0016 80BD     		pop	{r7, pc}
 2113              	.L108:
 2114              		.align	2
 2115              	.L107:
 2116 0018 08000000 		.word	_ZTVN3ros11Subscriber_E+8
 2117              		.cfi_endproc
 2118              	.LFE185:
 2119              		.size	_ZN3ros11Subscriber_C2Ev, .-_ZN3ros11Subscriber_C2Ev
 2120              		.weak	_ZN3ros11Subscriber_C1Ev
 2121              		.thumb_set _ZN3ros11Subscriber_C1Ev,_ZN3ros11Subscriber_C2Ev
 2122              		.section	.text._ZN3ros10SubscriberIN8std_msgs15UInt8MultiArrayEEC2EPKcPFvRKS2_Ei,"axG",%progbits,_
 2123              		.align	2
 2124              		.weak	_ZN3ros10SubscriberIN8std_msgs15UInt8MultiArrayEEC2EPKcPFvRKS2_Ei
 2125              		.code	16
 2126              		.thumb_func
 2127              		.type	_ZN3ros10SubscriberIN8std_msgs15UInt8MultiArrayEEC2EPKcPFvRKS2_Ei, %function
 2128              	_ZN3ros10SubscriberIN8std_msgs15UInt8MultiArrayEEC2EPKcPFvRKS2_Ei:
 2129              	.LFB187:
  44:./ros_lib/ros/subscriber.h ****   {
  45:./ros_lib/ros/subscriber.h ****     public:
ARM GAS  C:\Users\Chuck\AppData\Local\Temp\ccNCRqO6.s 			page 48


  46:./ros_lib/ros/subscriber.h ****       virtual void callback(unsigned char *data)=0;
  47:./ros_lib/ros/subscriber.h ****       virtual int getEndpointType()=0;
  48:./ros_lib/ros/subscriber.h **** 
  49:./ros_lib/ros/subscriber.h ****       // id_ is set by NodeHandle when we advertise 
  50:./ros_lib/ros/subscriber.h ****       int id_;
  51:./ros_lib/ros/subscriber.h **** 
  52:./ros_lib/ros/subscriber.h ****       virtual const char * getMsgType()=0;
  53:./ros_lib/ros/subscriber.h ****       virtual const char * getMsgMD5()=0;
  54:./ros_lib/ros/subscriber.h ****       const char * topic_;
  55:./ros_lib/ros/subscriber.h ****   };
  56:./ros_lib/ros/subscriber.h **** 
  57:./ros_lib/ros/subscriber.h **** 
  58:./ros_lib/ros/subscriber.h ****   /* Actual subscriber, templated on message type. */
  59:./ros_lib/ros/subscriber.h ****   template<typename MsgT>
  60:./ros_lib/ros/subscriber.h ****   class Subscriber: public Subscriber_{
  61:./ros_lib/ros/subscriber.h ****     public:
  62:./ros_lib/ros/subscriber.h ****       typedef void(*CallbackT)(const MsgT&);
  63:./ros_lib/ros/subscriber.h ****       MsgT msg;
  64:./ros_lib/ros/subscriber.h ****       // Rosserial standard callback
  65:./ros_lib/ros/subscriber.h ****       Subscriber(const char * topic_name, CallbackT cb, int endpoint=rosserial_msgs::TopicInfo::ID_
 2130              		.loc 7 65 0
 2131              		.cfi_startproc
 2132 0000 80B5     		push	{r7, lr}
 2133              		.cfi_def_cfa_offset 8
 2134              		.cfi_offset 7, -8
 2135              		.cfi_offset 14, -4
 2136 0002 84B0     		sub	sp, sp, #16
 2137              		.cfi_def_cfa_offset 24
 2138 0004 00AF     		add	r7, sp, #0
 2139              		.cfi_def_cfa_register 7
 2140 0006 F860     		str	r0, [r7, #12]
 2141 0008 B960     		str	r1, [r7, #8]
 2142 000a 7A60     		str	r2, [r7, #4]
 2143 000c 3B60     		str	r3, [r7]
 2144              	.LBB27:
  66:./ros_lib/ros/subscriber.h ****         cb_(cb), cbp_(NULL),
  67:./ros_lib/ros/subscriber.h ****         endpoint_(endpoint)
 2145              		.loc 7 67 0
 2146 000e FB68     		ldr	r3, [r7, #12]
 2147 0010 181C     		mov	r0, r3
 2148 0012 FFF7FEFF 		bl	_ZN3ros11Subscriber_C2Ev
 2149 0016 FB68     		ldr	r3, [r7, #12]
 2150 0018 0B4A     		ldr	r2, .L112
 2151 001a 1A60     		str	r2, [r3]
 2152 001c FB68     		ldr	r3, [r7, #12]
 2153 001e 0C33     		add	r3, r3, #12
 2154 0020 181C     		mov	r0, r3
 2155 0022 FFF7FEFF 		bl	_ZN8std_msgs15UInt8MultiArrayC1Ev
 2156 0026 FB68     		ldr	r3, [r7, #12]
 2157 0028 7A68     		ldr	r2, [r7, #4]
 2158 002a 9A63     		str	r2, [r3, #56]
 2159 002c FB68     		ldr	r3, [r7, #12]
 2160 002e 0022     		mov	r2, #0
 2161 0030 DA63     		str	r2, [r3, #60]
 2162 0032 FB68     		ldr	r3, [r7, #12]
 2163 0034 3A68     		ldr	r2, [r7]
 2164 0036 1A64     		str	r2, [r3, #64]
ARM GAS  C:\Users\Chuck\AppData\Local\Temp\ccNCRqO6.s 			page 49


  68:./ros_lib/ros/subscriber.h ****       {
  69:./ros_lib/ros/subscriber.h ****         topic_ = topic_name;
 2165              		.loc 7 69 0
 2166 0038 FB68     		ldr	r3, [r7, #12]
 2167 003a BA68     		ldr	r2, [r7, #8]
 2168 003c 9A60     		str	r2, [r3, #8]
 2169              	.LBE27:
  70:./ros_lib/ros/subscriber.h ****       };
 2170              		.loc 7 70 0
 2171 003e FB68     		ldr	r3, [r7, #12]
 2172 0040 181C     		mov	r0, r3
 2173 0042 BD46     		mov	sp, r7
 2174 0044 04B0     		add	sp, sp, #16
 2175              		@ sp needed
 2176 0046 80BD     		pop	{r7, pc}
 2177              	.L113:
 2178              		.align	2
 2179              	.L112:
 2180 0048 08000000 		.word	_ZTVN3ros10SubscriberIN8std_msgs15UInt8MultiArrayEEE+8
 2181              		.cfi_endproc
 2182              	.LFE187:
 2183              		.size	_ZN3ros10SubscriberIN8std_msgs15UInt8MultiArrayEEC2EPKcPFvRKS2_Ei, .-_ZN3ros10SubscriberIN8s
 2184              		.weak	_ZN3ros10SubscriberIN8std_msgs15UInt8MultiArrayEEC1EPKcPFvRKS2_Ei
 2185              		.thumb_set _ZN3ros10SubscriberIN8std_msgs15UInt8MultiArrayEEC1EPKcPFvRKS2_Ei,_ZN3ros10SubscriberIN
 2186              		.section	.text._ZN3ros11NodeHandle_I13Psoc4HardwareLi10ELi20ELi200ELi200EE9advertiseERNS_9Publishe
 2187              		.align	2
 2188              		.weak	_ZN3ros11NodeHandle_I13Psoc4HardwareLi10ELi20ELi200ELi200EE9advertiseERNS_9PublisherE
 2189              		.code	16
 2190              		.thumb_func
 2191              		.type	_ZN3ros11NodeHandle_I13Psoc4HardwareLi10ELi20ELi200ELi200EE9advertiseERNS_9PublisherE, %func
 2192              	_ZN3ros11NodeHandle_I13Psoc4HardwareLi10ELi20ELi200ELi200EE9advertiseERNS_9PublisherE:
 2193              	.LFB189:
 2194              		.file 8 "./ros_lib/ros/node_handle.h"
   1:./ros_lib/ros/node_handle.h **** /*
   2:./ros_lib/ros/node_handle.h ****  * Software License Agreement (BSD License)
   3:./ros_lib/ros/node_handle.h ****  *
   4:./ros_lib/ros/node_handle.h ****  * Copyright (c) 2011, Willow Garage, Inc.
   5:./ros_lib/ros/node_handle.h ****  * All rights reserved.
   6:./ros_lib/ros/node_handle.h ****  *
   7:./ros_lib/ros/node_handle.h ****  * Redistribution and use in source and binary forms, with or without
   8:./ros_lib/ros/node_handle.h ****  * modification, are permitted provided that the following conditions
   9:./ros_lib/ros/node_handle.h ****  * are met:
  10:./ros_lib/ros/node_handle.h ****  *
  11:./ros_lib/ros/node_handle.h ****  *  * Redistributions of source code must retain the above copyright
  12:./ros_lib/ros/node_handle.h ****  *    notice, this list of conditions and the following disclaimer.
  13:./ros_lib/ros/node_handle.h ****  *  * Redistributions in binary form must reproduce the above
  14:./ros_lib/ros/node_handle.h ****  *    copyright notice, this list of conditions and the following
  15:./ros_lib/ros/node_handle.h ****  *    disclaimer in the documentation and/or other materials provided
  16:./ros_lib/ros/node_handle.h ****  *    with the distribution.
  17:./ros_lib/ros/node_handle.h ****  *  * Neither the name of Willow Garage, Inc. nor the names of its
  18:./ros_lib/ros/node_handle.h ****  *    contributors may be used to endorse or promote prducts derived
  19:./ros_lib/ros/node_handle.h ****  *    from this software without specific prior written permission.
  20:./ros_lib/ros/node_handle.h ****  *
  21:./ros_lib/ros/node_handle.h ****  * THIS SOFTWARE IS PROVIDED BY THE COPYRIGHT HOLDERS AND CONTRIBUTORS
  22:./ros_lib/ros/node_handle.h ****  * "AS IS" AND ANY EXPRESS OR IMPLIED WARRANTIES, INCLUDING, BUT NOT
  23:./ros_lib/ros/node_handle.h ****  * LIMITED TO, THE IMPLIED WARRANTIES OF MERCHANTABILITY AND FITNESS
  24:./ros_lib/ros/node_handle.h ****  * FOR A PARTICULAR PURPOSE ARE DISCLAIMED. IN NO EVENT SHALL THE
ARM GAS  C:\Users\Chuck\AppData\Local\Temp\ccNCRqO6.s 			page 50


  25:./ros_lib/ros/node_handle.h ****  * COPYRIGHT OWNER OR CONTRIBUTORS BE LIABLE FOR ANY DIRECT, INDIRECT,
  26:./ros_lib/ros/node_handle.h ****  * INCIDENTAL, SPECIAL, EXEMPLARY, OR CONSEQUENTIAL DAMAGES (INCLUDING,
  27:./ros_lib/ros/node_handle.h ****  * BUT NOT LIMITED TO, PROCUREMENT OF SUBSTITUTE GOODS OR SERVICES;
  28:./ros_lib/ros/node_handle.h ****  * LOSS OF USE, DATA, OR PROFITS; OR BUSINESS INTERRUPTION) HOWEVER
  29:./ros_lib/ros/node_handle.h ****  * CAUSED AND ON ANY THEORY OF LIABILITY, WHETHER IN CONTRACT, STRICT
  30:./ros_lib/ros/node_handle.h ****  * LIABILITY, OR TORT (INCLUDING NEGLIGENCE OR OTHERWISE) ARISING IN
  31:./ros_lib/ros/node_handle.h ****  * ANY WAY OUT OF THE USE OF THIS SOFTWARE, EVEN IF ADVISED OF THE
  32:./ros_lib/ros/node_handle.h ****  * POSSIBILITY OF SUCH DAMAGE.
  33:./ros_lib/ros/node_handle.h ****  */
  34:./ros_lib/ros/node_handle.h **** 
  35:./ros_lib/ros/node_handle.h **** #ifndef ROS_NODE_HANDLE_H_
  36:./ros_lib/ros/node_handle.h **** #define ROS_NODE_HANDLE_H_
  37:./ros_lib/ros/node_handle.h **** 
  38:./ros_lib/ros/node_handle.h **** #ifndef PARAM_REQ_SUPPORT
  39:./ros_lib/ros/node_handle.h **** #define PARAM_REQ_SUPPORT 1
  40:./ros_lib/ros/node_handle.h **** #endif
  41:./ros_lib/ros/node_handle.h **** 
  42:./ros_lib/ros/node_handle.h **** #include "std_msgs/Time.h"
  43:./ros_lib/ros/node_handle.h **** #include "rosserial_msgs/TopicInfo.h"
  44:./ros_lib/ros/node_handle.h **** #include "rosserial_msgs/Log.h"
  45:./ros_lib/ros/node_handle.h **** #if PARAM_REQ_SUPPORT
  46:./ros_lib/ros/node_handle.h **** #include "rosserial_msgs/RequestParam.h"
  47:./ros_lib/ros/node_handle.h **** #endif
  48:./ros_lib/ros/node_handle.h **** 
  49:./ros_lib/ros/node_handle.h **** #define SYNC_SECONDS        2
  50:./ros_lib/ros/node_handle.h **** 
  51:./ros_lib/ros/node_handle.h **** #define MODE_FIRST_FF       0
  52:./ros_lib/ros/node_handle.h **** /*
  53:./ros_lib/ros/node_handle.h ****  * The second sync byte is a protocol version. It's value is 0xff for the first
  54:./ros_lib/ros/node_handle.h ****  * version of the rosserial protocol (used up to hydro), 0xfe for the second version
  55:./ros_lib/ros/node_handle.h ****  * (introduced in hydro), 0xfd for the next, and so on. Its purpose is to enable
  56:./ros_lib/ros/node_handle.h ****  * detection of mismatched protocol versions (e.g. hydro rosserial_python with groovy
  57:./ros_lib/ros/node_handle.h ****  * rosserial_arduino. It must be changed in both this file and in
  58:./ros_lib/ros/node_handle.h ****  * rosserial_python/src/rosserial_python/SerialClient.py
  59:./ros_lib/ros/node_handle.h ****  */
  60:./ros_lib/ros/node_handle.h **** #define MODE_PROTOCOL_VER   1
  61:./ros_lib/ros/node_handle.h **** #define PROTOCOL_VER1		0xff // through groovy
  62:./ros_lib/ros/node_handle.h **** #define PROTOCOL_VER2		0xfe // in hydro
  63:./ros_lib/ros/node_handle.h **** #define PROTOCOL_VER 		PROTOCOL_VER2
  64:./ros_lib/ros/node_handle.h **** #define MODE_SIZE_L         2   
  65:./ros_lib/ros/node_handle.h **** #define MODE_SIZE_H         3
  66:./ros_lib/ros/node_handle.h **** #define MODE_SIZE_CHECKSUM  4   // checksum for msg size received from size L and H
  67:./ros_lib/ros/node_handle.h **** #define MODE_TOPIC_L        5   // waiting for topic id
  68:./ros_lib/ros/node_handle.h **** #define MODE_TOPIC_H        6
  69:./ros_lib/ros/node_handle.h **** #define MODE_MESSAGE        7
  70:./ros_lib/ros/node_handle.h **** #define MODE_MSG_CHECKSUM   8   // checksum for msg and topic id 
  71:./ros_lib/ros/node_handle.h **** 
  72:./ros_lib/ros/node_handle.h **** 
  73:./ros_lib/ros/node_handle.h **** #define MSG_TIMEOUT 200  // was 20 milliseconds to recieve all of message data
  74:./ros_lib/ros/node_handle.h **** 
  75:./ros_lib/ros/node_handle.h **** #include "msg.h"
  76:./ros_lib/ros/node_handle.h **** 
  77:./ros_lib/ros/node_handle.h **** namespace ros {
  78:./ros_lib/ros/node_handle.h **** 
  79:./ros_lib/ros/node_handle.h ****   class NodeHandleBase_{
  80:./ros_lib/ros/node_handle.h ****     public:
  81:./ros_lib/ros/node_handle.h ****       virtual int publish(int id, const Msg* msg)=0;
ARM GAS  C:\Users\Chuck\AppData\Local\Temp\ccNCRqO6.s 			page 51


  82:./ros_lib/ros/node_handle.h ****       virtual int spinOnce()=0;
  83:./ros_lib/ros/node_handle.h ****       virtual bool connected()=0;
  84:./ros_lib/ros/node_handle.h ****     };
  85:./ros_lib/ros/node_handle.h **** }
  86:./ros_lib/ros/node_handle.h **** 
  87:./ros_lib/ros/node_handle.h **** #include "publisher.h"
  88:./ros_lib/ros/node_handle.h **** #include "subscriber.h"
  89:./ros_lib/ros/node_handle.h **** #include "service_server.h"
  90:./ros_lib/ros/node_handle.h **** #include "service_client.h"
  91:./ros_lib/ros/node_handle.h **** 
  92:./ros_lib/ros/node_handle.h **** namespace ros {
  93:./ros_lib/ros/node_handle.h **** 
  94:./ros_lib/ros/node_handle.h ****   using rosserial_msgs::TopicInfo;
  95:./ros_lib/ros/node_handle.h **** 
  96:./ros_lib/ros/node_handle.h ****   /* Node Handle */
  97:./ros_lib/ros/node_handle.h ****   template<class Hardware,
  98:./ros_lib/ros/node_handle.h ****            int MAX_SUBSCRIBERS=25,
  99:./ros_lib/ros/node_handle.h ****            int MAX_PUBLISHERS=25,
 100:./ros_lib/ros/node_handle.h ****            int INPUT_SIZE=512,
 101:./ros_lib/ros/node_handle.h ****            int OUTPUT_SIZE=512>
 102:./ros_lib/ros/node_handle.h ****   class NodeHandle_ : public NodeHandleBase_
 103:./ros_lib/ros/node_handle.h ****   {
 104:./ros_lib/ros/node_handle.h ****     protected:
 105:./ros_lib/ros/node_handle.h ****       Hardware hardware_;
 106:./ros_lib/ros/node_handle.h **** 
 107:./ros_lib/ros/node_handle.h ****       /* time used for syncing */
 108:./ros_lib/ros/node_handle.h ****       unsigned long rt_time;
 109:./ros_lib/ros/node_handle.h **** 
 110:./ros_lib/ros/node_handle.h ****       /* used for computing current time */
 111:./ros_lib/ros/node_handle.h ****       unsigned long sec_offset, nsec_offset;
 112:./ros_lib/ros/node_handle.h **** 
 113:./ros_lib/ros/node_handle.h ****       unsigned char message_in[INPUT_SIZE];
 114:./ros_lib/ros/node_handle.h ****       unsigned char message_out[OUTPUT_SIZE];
 115:./ros_lib/ros/node_handle.h **** 
 116:./ros_lib/ros/node_handle.h ****       Publisher * publishers[MAX_PUBLISHERS];
 117:./ros_lib/ros/node_handle.h ****       Subscriber_ * subscribers[MAX_SUBSCRIBERS];
 118:./ros_lib/ros/node_handle.h **** 
 119:./ros_lib/ros/node_handle.h ****       /*
 120:./ros_lib/ros/node_handle.h ****        * Setup Functions
 121:./ros_lib/ros/node_handle.h ****        */
 122:./ros_lib/ros/node_handle.h ****     public:
 123:./ros_lib/ros/node_handle.h ****       NodeHandle_() : configured_(false) {
 124:./ros_lib/ros/node_handle.h **** #if true
 125:./ros_lib/ros/node_handle.h ****         for(unsigned int i=0; i< MAX_PUBLISHERS; i++) 
 126:./ros_lib/ros/node_handle.h **** 	   publishers[i] = 0;
 127:./ros_lib/ros/node_handle.h **** 
 128:./ros_lib/ros/node_handle.h ****         for(unsigned int i=0; i< MAX_SUBSCRIBERS; i++) 
 129:./ros_lib/ros/node_handle.h **** 	   subscribers[i] = 0;
 130:./ros_lib/ros/node_handle.h **** 
 131:./ros_lib/ros/node_handle.h ****         for(unsigned int i=0; i< INPUT_SIZE; i++) 
 132:./ros_lib/ros/node_handle.h **** 	   message_in[i] = 0;
 133:./ros_lib/ros/node_handle.h **** 
 134:./ros_lib/ros/node_handle.h ****         for(unsigned int i=0; i< OUTPUT_SIZE; i++) 
 135:./ros_lib/ros/node_handle.h **** 	   message_out[i] = 0;
 136:./ros_lib/ros/node_handle.h **** 
 137:./ros_lib/ros/node_handle.h ****         req_param_resp.ints_length = 0;
 138:./ros_lib/ros/node_handle.h ****         req_param_resp.ints = NULL;
ARM GAS  C:\Users\Chuck\AppData\Local\Temp\ccNCRqO6.s 			page 52


 139:./ros_lib/ros/node_handle.h ****         req_param_resp.floats_length = 0;
 140:./ros_lib/ros/node_handle.h ****         req_param_resp.floats = NULL;
 141:./ros_lib/ros/node_handle.h ****         req_param_resp.ints_length = 0;
 142:./ros_lib/ros/node_handle.h ****         req_param_resp.ints = NULL;
 143:./ros_lib/ros/node_handle.h ****       }
 144:./ros_lib/ros/node_handle.h **** #endif      
 145:./ros_lib/ros/node_handle.h ****       Hardware* getHardware(){
 146:./ros_lib/ros/node_handle.h ****         return &hardware_;
 147:./ros_lib/ros/node_handle.h ****       }
 148:./ros_lib/ros/node_handle.h **** 
 149:./ros_lib/ros/node_handle.h ****       /* Start serial, initialize buffers */
 150:./ros_lib/ros/node_handle.h ****       void initNode(){
 151:./ros_lib/ros/node_handle.h ****         hardware_.init();
 152:./ros_lib/ros/node_handle.h ****         mode_ = 0;
 153:./ros_lib/ros/node_handle.h ****         bytes_ = 0;
 154:./ros_lib/ros/node_handle.h ****         index_ = 0;
 155:./ros_lib/ros/node_handle.h ****         topic_ = 0;
 156:./ros_lib/ros/node_handle.h ****       };
 157:./ros_lib/ros/node_handle.h **** 
 158:./ros_lib/ros/node_handle.h ****       /* Start a named port, which may be network server IP, initialize buffers */
 159:./ros_lib/ros/node_handle.h ****       void initNode(char *portName){
 160:./ros_lib/ros/node_handle.h ****         hardware_.init(portName);
 161:./ros_lib/ros/node_handle.h ****         mode_ = 0;
 162:./ros_lib/ros/node_handle.h ****         bytes_ = 0;
 163:./ros_lib/ros/node_handle.h ****         index_ = 0;
 164:./ros_lib/ros/node_handle.h ****         topic_ = 0;
 165:./ros_lib/ros/node_handle.h ****       };
 166:./ros_lib/ros/node_handle.h **** 
 167:./ros_lib/ros/node_handle.h ****     protected:
 168:./ros_lib/ros/node_handle.h ****       //State machine variables for spinOnce
 169:./ros_lib/ros/node_handle.h ****       int mode_;
 170:./ros_lib/ros/node_handle.h ****       int bytes_;
 171:./ros_lib/ros/node_handle.h ****       int topic_;
 172:./ros_lib/ros/node_handle.h ****       int index_;
 173:./ros_lib/ros/node_handle.h ****       int checksum_;
 174:./ros_lib/ros/node_handle.h **** 
 175:./ros_lib/ros/node_handle.h ****       bool configured_;
 176:./ros_lib/ros/node_handle.h **** 
 177:./ros_lib/ros/node_handle.h ****       /* used for syncing the time */
 178:./ros_lib/ros/node_handle.h ****       unsigned long last_sync_time;
 179:./ros_lib/ros/node_handle.h ****       unsigned long last_sync_receive_time;
 180:./ros_lib/ros/node_handle.h ****       unsigned long last_msg_timeout_time;
 181:./ros_lib/ros/node_handle.h **** 
 182:./ros_lib/ros/node_handle.h ****     public:
 183:./ros_lib/ros/node_handle.h ****       /* This function goes in your loop() function, it handles
 184:./ros_lib/ros/node_handle.h ****        *  serial input and callbacks for subscribers.
 185:./ros_lib/ros/node_handle.h ****        */
 186:./ros_lib/ros/node_handle.h **** 
 187:./ros_lib/ros/node_handle.h **** 
 188:./ros_lib/ros/node_handle.h ****       virtual int spinOnce(){
 189:./ros_lib/ros/node_handle.h **** 
 190:./ros_lib/ros/node_handle.h ****         /* restart if timed out */
 191:./ros_lib/ros/node_handle.h ****         unsigned long c_time = hardware_.time();
 192:./ros_lib/ros/node_handle.h ****         if( (c_time - last_sync_receive_time) > (SYNC_SECONDS*1100) ){
 193:./ros_lib/ros/node_handle.h ****             configured_ = false;
 194:./ros_lib/ros/node_handle.h ****          }
 195:./ros_lib/ros/node_handle.h ****          
ARM GAS  C:\Users\Chuck\AppData\Local\Temp\ccNCRqO6.s 			page 53


 196:./ros_lib/ros/node_handle.h ****         /* reset if message has timed out */
 197:./ros_lib/ros/node_handle.h ****         if ( mode_ != MODE_FIRST_FF){ 
 198:./ros_lib/ros/node_handle.h ****           if (c_time > last_msg_timeout_time){
 199:./ros_lib/ros/node_handle.h ****             mode_ = MODE_FIRST_FF;
 200:./ros_lib/ros/node_handle.h ****           }
 201:./ros_lib/ros/node_handle.h ****         }
 202:./ros_lib/ros/node_handle.h **** 
 203:./ros_lib/ros/node_handle.h ****         /* while available buffer, read data */
 204:./ros_lib/ros/node_handle.h ****         while( true )
 205:./ros_lib/ros/node_handle.h ****         {
 206:./ros_lib/ros/node_handle.h ****           int data = hardware_.read();
 207:./ros_lib/ros/node_handle.h ****           if( data < 0 )
 208:./ros_lib/ros/node_handle.h ****             break;
 209:./ros_lib/ros/node_handle.h ****           checksum_ += data;
 210:./ros_lib/ros/node_handle.h ****           if( mode_ == MODE_MESSAGE ){        /* message data being recieved */
 211:./ros_lib/ros/node_handle.h ****             message_in[index_++] = data;
 212:./ros_lib/ros/node_handle.h ****             bytes_--;
 213:./ros_lib/ros/node_handle.h ****             if(bytes_ == 0)                  /* is message complete? if so, checksum */
 214:./ros_lib/ros/node_handle.h ****               mode_ = MODE_MSG_CHECKSUM;
 215:./ros_lib/ros/node_handle.h ****           }else if( mode_ == MODE_FIRST_FF ){
 216:./ros_lib/ros/node_handle.h ****             if(data == 0xff){
 217:./ros_lib/ros/node_handle.h ****               mode_++;
 218:./ros_lib/ros/node_handle.h ****               last_msg_timeout_time = c_time + MSG_TIMEOUT;
 219:./ros_lib/ros/node_handle.h ****             }
 220:./ros_lib/ros/node_handle.h ****             else if( hardware_.time() - c_time > (SYNC_SECONDS)){
 221:./ros_lib/ros/node_handle.h ****               /* We have been stuck in spinOnce too long, return error */
 222:./ros_lib/ros/node_handle.h ****               configured_=false;
 223:./ros_lib/ros/node_handle.h ****               return -2;
 224:./ros_lib/ros/node_handle.h ****             }
 225:./ros_lib/ros/node_handle.h ****           }else if( mode_ == MODE_PROTOCOL_VER ){
 226:./ros_lib/ros/node_handle.h ****             if(data == PROTOCOL_VER){
 227:./ros_lib/ros/node_handle.h ****               mode_++;
 228:./ros_lib/ros/node_handle.h ****             }else{
 229:./ros_lib/ros/node_handle.h ****               mode_ = MODE_FIRST_FF;
 230:./ros_lib/ros/node_handle.h ****               if (configured_ == false)
 231:./ros_lib/ros/node_handle.h ****                   requestSyncTime(); 	/* send a msg back showing our protocol version */
 232:./ros_lib/ros/node_handle.h ****             }
 233:./ros_lib/ros/node_handle.h **** 	  }else if( mode_ == MODE_SIZE_L ){   /* bottom half of message size */
 234:./ros_lib/ros/node_handle.h ****             bytes_ = data;
 235:./ros_lib/ros/node_handle.h ****             index_ = 0;
 236:./ros_lib/ros/node_handle.h ****             mode_++;
 237:./ros_lib/ros/node_handle.h ****             checksum_ = data;               /* first byte for calculating size checksum */
 238:./ros_lib/ros/node_handle.h ****           }else if( mode_ == MODE_SIZE_H ){   /* top half of message size */
 239:./ros_lib/ros/node_handle.h ****             bytes_ += data<<8;
 240:./ros_lib/ros/node_handle.h **** 	    mode_++;
 241:./ros_lib/ros/node_handle.h ****           }else if( mode_ == MODE_SIZE_CHECKSUM ){  
 242:./ros_lib/ros/node_handle.h ****             if( (checksum_%256) == 255)
 243:./ros_lib/ros/node_handle.h **** 	      mode_++;
 244:./ros_lib/ros/node_handle.h **** 	    else 
 245:./ros_lib/ros/node_handle.h **** 	      mode_ = MODE_FIRST_FF;          /* Abandon the frame if the msg len is wrong */
 246:./ros_lib/ros/node_handle.h **** 	  }else if( mode_ == MODE_TOPIC_L ){  /* bottom half of topic id */
 247:./ros_lib/ros/node_handle.h ****             topic_ = data;
 248:./ros_lib/ros/node_handle.h ****             mode_++;
 249:./ros_lib/ros/node_handle.h ****             checksum_ = data;               /* first byte included in checksum */
 250:./ros_lib/ros/node_handle.h ****           }else if( mode_ == MODE_TOPIC_H ){  /* top half of topic id */
 251:./ros_lib/ros/node_handle.h ****             topic_ += data<<8;
 252:./ros_lib/ros/node_handle.h ****             mode_ = MODE_MESSAGE;
ARM GAS  C:\Users\Chuck\AppData\Local\Temp\ccNCRqO6.s 			page 54


 253:./ros_lib/ros/node_handle.h ****             if(bytes_ == 0)
 254:./ros_lib/ros/node_handle.h ****               mode_ = MODE_MSG_CHECKSUM;  
 255:./ros_lib/ros/node_handle.h ****           }else if( mode_ == MODE_MSG_CHECKSUM ){ /* do checksum */
 256:./ros_lib/ros/node_handle.h ****             mode_ = MODE_FIRST_FF;
 257:./ros_lib/ros/node_handle.h ****             if( (checksum_%256) == 255){
 258:./ros_lib/ros/node_handle.h ****               if(topic_ == TopicInfo::ID_PUBLISHER){
 259:./ros_lib/ros/node_handle.h ****                 requestSyncTime();
 260:./ros_lib/ros/node_handle.h ****                 negotiateTopics();
 261:./ros_lib/ros/node_handle.h ****                 last_sync_time = c_time;
 262:./ros_lib/ros/node_handle.h ****                 last_sync_receive_time = c_time;
 263:./ros_lib/ros/node_handle.h ****                 return -1;
 264:./ros_lib/ros/node_handle.h ****               }else if(topic_ == TopicInfo::ID_TIME){
 265:./ros_lib/ros/node_handle.h ****                 syncTime(message_in);
 266:./ros_lib/ros/node_handle.h ****               #if PARAM_REQ_SUPPORT
 267:./ros_lib/ros/node_handle.h ****               }else if (topic_ == TopicInfo::ID_PARAMETER_REQUEST){
 268:./ros_lib/ros/node_handle.h ****                   req_param_resp.deserialize(message_in);
 269:./ros_lib/ros/node_handle.h ****                   param_recieved= true;
 270:./ros_lib/ros/node_handle.h ****               #endif
 271:./ros_lib/ros/node_handle.h ****               }else if(topic_ == TopicInfo::ID_TX_STOP){
 272:./ros_lib/ros/node_handle.h ****                   configured_ = false;
 273:./ros_lib/ros/node_handle.h ****               }else{
 274:./ros_lib/ros/node_handle.h ****                 if(subscribers[topic_-100])
 275:./ros_lib/ros/node_handle.h ****                   subscribers[topic_-100]->callback( message_in );
 276:./ros_lib/ros/node_handle.h ****               }
 277:./ros_lib/ros/node_handle.h ****             }
 278:./ros_lib/ros/node_handle.h ****           }
 279:./ros_lib/ros/node_handle.h ****         }
 280:./ros_lib/ros/node_handle.h **** 
 281:./ros_lib/ros/node_handle.h ****         /* occasionally sync time */
 282:./ros_lib/ros/node_handle.h ****         if( configured_ && ((c_time-last_sync_time) > (SYNC_SECONDS*500) )){
 283:./ros_lib/ros/node_handle.h ****           requestSyncTime();
 284:./ros_lib/ros/node_handle.h ****           last_sync_time = c_time;
 285:./ros_lib/ros/node_handle.h ****         }
 286:./ros_lib/ros/node_handle.h **** 
 287:./ros_lib/ros/node_handle.h ****         return 0;
 288:./ros_lib/ros/node_handle.h ****       }
 289:./ros_lib/ros/node_handle.h **** 
 290:./ros_lib/ros/node_handle.h **** 
 291:./ros_lib/ros/node_handle.h ****       /* Are we connected to the PC? */
 292:./ros_lib/ros/node_handle.h ****       virtual bool connected() {
 293:./ros_lib/ros/node_handle.h ****         return configured_;
 294:./ros_lib/ros/node_handle.h ****       };
 295:./ros_lib/ros/node_handle.h **** 
 296:./ros_lib/ros/node_handle.h ****       /********************************************************************
 297:./ros_lib/ros/node_handle.h ****        * Time functions
 298:./ros_lib/ros/node_handle.h ****        */
 299:./ros_lib/ros/node_handle.h **** 
 300:./ros_lib/ros/node_handle.h ****       void requestSyncTime()
 301:./ros_lib/ros/node_handle.h ****       {
 302:./ros_lib/ros/node_handle.h ****         std_msgs::Time t;
 303:./ros_lib/ros/node_handle.h ****         publish(TopicInfo::ID_TIME, &t);
 304:./ros_lib/ros/node_handle.h ****         rt_time = hardware_.time();
 305:./ros_lib/ros/node_handle.h ****       }
 306:./ros_lib/ros/node_handle.h **** 
 307:./ros_lib/ros/node_handle.h ****       void syncTime( unsigned char * data )
 308:./ros_lib/ros/node_handle.h ****       {
 309:./ros_lib/ros/node_handle.h ****         std_msgs::Time t;
ARM GAS  C:\Users\Chuck\AppData\Local\Temp\ccNCRqO6.s 			page 55


 310:./ros_lib/ros/node_handle.h ****         unsigned long offset = hardware_.time() - rt_time;
 311:./ros_lib/ros/node_handle.h **** 
 312:./ros_lib/ros/node_handle.h ****         t.deserialize(data);
 313:./ros_lib/ros/node_handle.h ****         t.data.sec += offset/1000;
 314:./ros_lib/ros/node_handle.h ****         t.data.nsec += (offset%1000)*1000000UL;
 315:./ros_lib/ros/node_handle.h **** 
 316:./ros_lib/ros/node_handle.h ****         this->setNow(t.data);
 317:./ros_lib/ros/node_handle.h ****         last_sync_receive_time = hardware_.time();
 318:./ros_lib/ros/node_handle.h ****       }
 319:./ros_lib/ros/node_handle.h **** 
 320:./ros_lib/ros/node_handle.h ****       Time now(){
 321:./ros_lib/ros/node_handle.h ****         unsigned long ms = hardware_.time();
 322:./ros_lib/ros/node_handle.h ****         Time current_time;
 323:./ros_lib/ros/node_handle.h ****         current_time.sec = ms/1000 + sec_offset;
 324:./ros_lib/ros/node_handle.h ****         current_time.nsec = (ms%1000)*1000000UL + nsec_offset;
 325:./ros_lib/ros/node_handle.h ****         normalizeSecNSec(current_time.sec, current_time.nsec);
 326:./ros_lib/ros/node_handle.h ****         return current_time;
 327:./ros_lib/ros/node_handle.h ****       }
 328:./ros_lib/ros/node_handle.h **** 
 329:./ros_lib/ros/node_handle.h ****       void setNow( Time & new_now )
 330:./ros_lib/ros/node_handle.h ****       {
 331:./ros_lib/ros/node_handle.h ****         unsigned long ms = hardware_.time();
 332:./ros_lib/ros/node_handle.h ****         sec_offset = new_now.sec - ms/1000 - 1;
 333:./ros_lib/ros/node_handle.h ****         nsec_offset = new_now.nsec - (ms%1000)*1000000UL + 1000000000UL;
 334:./ros_lib/ros/node_handle.h ****         normalizeSecNSec(sec_offset, nsec_offset);
 335:./ros_lib/ros/node_handle.h ****       }
 336:./ros_lib/ros/node_handle.h **** 
 337:./ros_lib/ros/node_handle.h ****       /********************************************************************
 338:./ros_lib/ros/node_handle.h ****        * Topic Management 
 339:./ros_lib/ros/node_handle.h ****        */
 340:./ros_lib/ros/node_handle.h **** 
 341:./ros_lib/ros/node_handle.h ****       /* Register a new publisher */    
 342:./ros_lib/ros/node_handle.h ****       bool advertise(Publisher & p)
 2195              		.loc 8 342 0
 2196              		.cfi_startproc
 2197 0000 80B5     		push	{r7, lr}
 2198              		.cfi_def_cfa_offset 8
 2199              		.cfi_offset 7, -8
 2200              		.cfi_offset 14, -4
 2201 0002 84B0     		sub	sp, sp, #16
 2202              		.cfi_def_cfa_offset 24
 2203 0004 00AF     		add	r7, sp, #0
 2204              		.cfi_def_cfa_register 7
 2205 0006 7860     		str	r0, [r7, #4]
 2206 0008 3960     		str	r1, [r7]
 2207              	.LBB28:
 2208              	.LBB29:
 343:./ros_lib/ros/node_handle.h ****       {
 344:./ros_lib/ros/node_handle.h ****         for(int i = 0; i < MAX_PUBLISHERS; i++){
 2209              		.loc 8 344 0
 2210 000a 0023     		mov	r3, #0
 2211 000c FB60     		str	r3, [r7, #12]
 2212 000e 19E0     		b	.L115
 2213              	.L118:
 345:./ros_lib/ros/node_handle.h ****           if(publishers[i] == 0){ // empty slot
 2214              		.loc 8 345 0
 2215 0010 7B68     		ldr	r3, [r7, #4]
ARM GAS  C:\Users\Chuck\AppData\Local\Temp\ccNCRqO6.s 			page 56


 2216 0012 FA68     		ldr	r2, [r7, #12]
 2217 0014 6A32     		add	r2, r2, #106
 2218 0016 9200     		lsl	r2, r2, #2
 2219 0018 D358     		ldr	r3, [r2, r3]
 2220 001a 002B     		cmp	r3, #0
 2221 001c 0FD1     		bne	.L116
 346:./ros_lib/ros/node_handle.h ****             publishers[i] = &p;
 2222              		.loc 8 346 0
 2223 001e 7B68     		ldr	r3, [r7, #4]
 2224 0020 FA68     		ldr	r2, [r7, #12]
 2225 0022 6A32     		add	r2, r2, #106
 2226 0024 9200     		lsl	r2, r2, #2
 2227 0026 3968     		ldr	r1, [r7]
 2228 0028 D150     		str	r1, [r2, r3]
 347:./ros_lib/ros/node_handle.h ****             p.id_ = i+100+MAX_SUBSCRIBERS;
 2229              		.loc 8 347 0
 2230 002a FB68     		ldr	r3, [r7, #12]
 2231 002c 6E33     		add	r3, r3, #110
 2232 002e 1A1C     		mov	r2, r3
 2233 0030 3B68     		ldr	r3, [r7]
 2234 0032 9A60     		str	r2, [r3, #8]
 348:./ros_lib/ros/node_handle.h ****             p.nh_ = this;
 2235              		.loc 8 348 0
 2236 0034 7A68     		ldr	r2, [r7, #4]
 2237 0036 3B68     		ldr	r3, [r7]
 2238 0038 DA60     		str	r2, [r3, #12]
 349:./ros_lib/ros/node_handle.h ****             return true;
 2239              		.loc 8 349 0
 2240 003a 0123     		mov	r3, #1
 2241 003c 06E0     		b	.L117
 2242              	.L116:
 344:./ros_lib/ros/node_handle.h ****           if(publishers[i] == 0){ // empty slot
 2243              		.loc 8 344 0 discriminator 2
 2244 003e FB68     		ldr	r3, [r7, #12]
 2245 0040 0133     		add	r3, r3, #1
 2246 0042 FB60     		str	r3, [r7, #12]
 2247              	.L115:
 344:./ros_lib/ros/node_handle.h ****           if(publishers[i] == 0){ // empty slot
 2248              		.loc 8 344 0 is_stmt 0 discriminator 1
 2249 0044 FB68     		ldr	r3, [r7, #12]
 2250 0046 132B     		cmp	r3, #19
 2251 0048 E2DD     		ble	.L118
 2252              	.LBE29:
 350:./ros_lib/ros/node_handle.h ****           }
 351:./ros_lib/ros/node_handle.h ****         }
 352:./ros_lib/ros/node_handle.h ****         return false;
 2253              		.loc 8 352 0 is_stmt 1
 2254 004a 0023     		mov	r3, #0
 2255              	.L117:
 2256              	.LBE28:
 353:./ros_lib/ros/node_handle.h ****       }
 2257              		.loc 8 353 0
 2258 004c 181C     		mov	r0, r3
 2259 004e BD46     		mov	sp, r7
 2260 0050 04B0     		add	sp, sp, #16
 2261              		@ sp needed
 2262 0052 80BD     		pop	{r7, pc}
ARM GAS  C:\Users\Chuck\AppData\Local\Temp\ccNCRqO6.s 			page 57


 2263              		.cfi_endproc
 2264              	.LFE189:
 2265              		.size	_ZN3ros11NodeHandle_I13Psoc4HardwareLi10ELi20ELi200ELi200EE9advertiseERNS_9PublisherE, .-_ZN
 2266              		.section	.text._ZN3ros11NodeHandle_I13Psoc4HardwareLi10ELi20ELi200ELi200EE9subscribeIN8std_msgs15U
 2267              		.align	2
 2268              		.weak	_ZN3ros11NodeHandle_I13Psoc4HardwareLi10ELi20ELi200ELi200EE9subscribeIN8std_msgs15UInt8Multi
 2269              		.code	16
 2270              		.thumb_func
 2271              		.type	_ZN3ros11NodeHandle_I13Psoc4HardwareLi10ELi20ELi200ELi200EE9subscribeIN8std_msgs15UInt8Multi
 2272              	_ZN3ros11NodeHandle_I13Psoc4HardwareLi10ELi20ELi200ELi200EE9subscribeIN8std_msgs15UInt8MultiArrayEE
 2273              	.LFB190:
 354:./ros_lib/ros/node_handle.h **** 
 355:./ros_lib/ros/node_handle.h ****       /* Register a new subscriber */
 356:./ros_lib/ros/node_handle.h ****       template<typename MsgT>
 357:./ros_lib/ros/node_handle.h ****       bool subscribe(Subscriber< MsgT> & s){
 2274              		.loc 8 357 0
 2275              		.cfi_startproc
 2276 0000 80B5     		push	{r7, lr}
 2277              		.cfi_def_cfa_offset 8
 2278              		.cfi_offset 7, -8
 2279              		.cfi_offset 14, -4
 2280 0002 84B0     		sub	sp, sp, #16
 2281              		.cfi_def_cfa_offset 24
 2282 0004 00AF     		add	r7, sp, #0
 2283              		.cfi_def_cfa_register 7
 2284 0006 7860     		str	r0, [r7, #4]
 2285 0008 3960     		str	r1, [r7]
 2286              	.LBB30:
 2287              	.LBB31:
 358:./ros_lib/ros/node_handle.h ****         for(int i = 0; i < MAX_SUBSCRIBERS; i++){
 2288              		.loc 8 358 0
 2289 000a 0023     		mov	r3, #0
 2290 000c FB60     		str	r3, [r7, #12]
 2291 000e 16E0     		b	.L120
 2292              	.L123:
 359:./ros_lib/ros/node_handle.h ****           if(subscribers[i] == 0){ // empty slot
 2293              		.loc 8 359 0
 2294 0010 7B68     		ldr	r3, [r7, #4]
 2295 0012 FA68     		ldr	r2, [r7, #12]
 2296 0014 7E32     		add	r2, r2, #126
 2297 0016 9200     		lsl	r2, r2, #2
 2298 0018 D358     		ldr	r3, [r2, r3]
 2299 001a 002B     		cmp	r3, #0
 2300 001c 0CD1     		bne	.L121
 360:./ros_lib/ros/node_handle.h ****             subscribers[i] = (Subscriber_*) &s;
 2301              		.loc 8 360 0
 2302 001e 3968     		ldr	r1, [r7]
 2303 0020 7B68     		ldr	r3, [r7, #4]
 2304 0022 FA68     		ldr	r2, [r7, #12]
 2305 0024 7E32     		add	r2, r2, #126
 2306 0026 9200     		lsl	r2, r2, #2
 2307 0028 D150     		str	r1, [r2, r3]
 361:./ros_lib/ros/node_handle.h ****             s.id_ = i+100;
 2308              		.loc 8 361 0
 2309 002a FB68     		ldr	r3, [r7, #12]
 2310 002c 6433     		add	r3, r3, #100
 2311 002e 1A1C     		mov	r2, r3
ARM GAS  C:\Users\Chuck\AppData\Local\Temp\ccNCRqO6.s 			page 58


 2312 0030 3B68     		ldr	r3, [r7]
 2313 0032 5A60     		str	r2, [r3, #4]
 362:./ros_lib/ros/node_handle.h ****             return true;
 2314              		.loc 8 362 0
 2315 0034 0123     		mov	r3, #1
 2316 0036 06E0     		b	.L122
 2317              	.L121:
 358:./ros_lib/ros/node_handle.h ****           if(subscribers[i] == 0){ // empty slot
 2318              		.loc 8 358 0 discriminator 2
 2319 0038 FB68     		ldr	r3, [r7, #12]
 2320 003a 0133     		add	r3, r3, #1
 2321 003c FB60     		str	r3, [r7, #12]
 2322              	.L120:
 358:./ros_lib/ros/node_handle.h ****           if(subscribers[i] == 0){ // empty slot
 2323              		.loc 8 358 0 is_stmt 0 discriminator 1
 2324 003e FB68     		ldr	r3, [r7, #12]
 2325 0040 092B     		cmp	r3, #9
 2326 0042 E5DD     		ble	.L123
 2327              	.LBE31:
 363:./ros_lib/ros/node_handle.h ****           }
 364:./ros_lib/ros/node_handle.h ****         }
 365:./ros_lib/ros/node_handle.h ****         return false;
 2328              		.loc 8 365 0 is_stmt 1
 2329 0044 0023     		mov	r3, #0
 2330              	.L122:
 2331              	.LBE30:
 366:./ros_lib/ros/node_handle.h ****       }
 2332              		.loc 8 366 0
 2333 0046 181C     		mov	r0, r3
 2334 0048 BD46     		mov	sp, r7
 2335 004a 04B0     		add	sp, sp, #16
 2336              		@ sp needed
 2337 004c 80BD     		pop	{r7, pc}
 2338              		.cfi_endproc
 2339              	.LFE190:
 2340              		.size	_ZN3ros11NodeHandle_I13Psoc4HardwareLi10ELi20ELi200ELi200EE9subscribeIN8std_msgs15UInt8Multi
 2341              		.weak	_ZTVN3ros10SubscriberIN8std_msgs15UInt8MultiArrayEEE
 2342 004e C046     		.section	.rodata._ZTVN3ros10SubscriberIN8std_msgs15UInt8MultiArrayEEE,"aG",%progbits,_ZTVN3ros10Su
 2343              		.align	3
 2344              		.type	_ZTVN3ros10SubscriberIN8std_msgs15UInt8MultiArrayEEE, %object
 2345              		.size	_ZTVN3ros10SubscriberIN8std_msgs15UInt8MultiArrayEEE, 24
 2346              	_ZTVN3ros10SubscriberIN8std_msgs15UInt8MultiArrayEEE:
 2347 0000 00000000 		.word	0
 2348 0004 00000000 		.word	0
 2349 0008 00000000 		.word	_ZN3ros10SubscriberIN8std_msgs15UInt8MultiArrayEE8callbackEPh
 2350 000c 00000000 		.word	_ZN3ros10SubscriberIN8std_msgs15UInt8MultiArrayEE15getEndpointTypeEv
 2351 0010 00000000 		.word	_ZN3ros10SubscriberIN8std_msgs15UInt8MultiArrayEE10getMsgTypeEv
 2352 0014 00000000 		.word	_ZN3ros10SubscriberIN8std_msgs15UInt8MultiArrayEE9getMsgMD5Ev
 2353              		.weak	_ZTVN8std_msgs15UInt8MultiArrayE
 2354              		.section	.rodata._ZTVN8std_msgs15UInt8MultiArrayE,"aG",%progbits,_ZTVN8std_msgs15UInt8MultiArrayE,
 2355              		.align	3
 2356              		.type	_ZTVN8std_msgs15UInt8MultiArrayE, %object
 2357              		.size	_ZTVN8std_msgs15UInt8MultiArrayE, 24
 2358              	_ZTVN8std_msgs15UInt8MultiArrayE:
 2359 0000 00000000 		.word	0
 2360 0004 00000000 		.word	0
 2361 0008 00000000 		.word	_ZNK8std_msgs15UInt8MultiArray9serializeEPh
ARM GAS  C:\Users\Chuck\AppData\Local\Temp\ccNCRqO6.s 			page 59


 2362 000c 00000000 		.word	_ZN8std_msgs15UInt8MultiArray11deserializeEPh
 2363 0010 00000000 		.word	_ZN8std_msgs15UInt8MultiArray7getTypeEv
 2364 0014 00000000 		.word	_ZN8std_msgs15UInt8MultiArray6getMD5Ev
 2365              		.weak	_ZTVN8std_msgs16MultiArrayLayoutE
 2366              		.section	.rodata._ZTVN8std_msgs16MultiArrayLayoutE,"aG",%progbits,_ZTVN8std_msgs16MultiArrayLayout
 2367              		.align	3
 2368              		.type	_ZTVN8std_msgs16MultiArrayLayoutE, %object
 2369              		.size	_ZTVN8std_msgs16MultiArrayLayoutE, 24
 2370              	_ZTVN8std_msgs16MultiArrayLayoutE:
 2371 0000 00000000 		.word	0
 2372 0004 00000000 		.word	0
 2373 0008 00000000 		.word	_ZNK8std_msgs16MultiArrayLayout9serializeEPh
 2374 000c 00000000 		.word	_ZN8std_msgs16MultiArrayLayout11deserializeEPh
 2375 0010 00000000 		.word	_ZN8std_msgs16MultiArrayLayout7getTypeEv
 2376 0014 00000000 		.word	_ZN8std_msgs16MultiArrayLayout6getMD5Ev
 2377              		.weak	_ZTVN8std_msgs19MultiArrayDimensionE
 2378              		.section	.rodata._ZTVN8std_msgs19MultiArrayDimensionE,"aG",%progbits,_ZTVN8std_msgs19MultiArrayDim
 2379              		.align	3
 2380              		.type	_ZTVN8std_msgs19MultiArrayDimensionE, %object
 2381              		.size	_ZTVN8std_msgs19MultiArrayDimensionE, 24
 2382              	_ZTVN8std_msgs19MultiArrayDimensionE:
 2383 0000 00000000 		.word	0
 2384 0004 00000000 		.word	0
 2385 0008 00000000 		.word	_ZNK8std_msgs19MultiArrayDimension9serializeEPh
 2386 000c 00000000 		.word	_ZN8std_msgs19MultiArrayDimension11deserializeEPh
 2387 0010 00000000 		.word	_ZN8std_msgs19MultiArrayDimension7getTypeEv
 2388 0014 00000000 		.word	_ZN8std_msgs19MultiArrayDimension6getMD5Ev
 2389              		.weak	_ZTVN3ros11Subscriber_E
 2390              		.section	.rodata._ZTVN3ros11Subscriber_E,"aG",%progbits,_ZTVN3ros11Subscriber_E,comdat
 2391              		.align	3
 2392              		.type	_ZTVN3ros11Subscriber_E, %object
 2393              		.size	_ZTVN3ros11Subscriber_E, 24
 2394              	_ZTVN3ros11Subscriber_E:
 2395 0000 00000000 		.word	0
 2396 0004 00000000 		.word	0
 2397 0008 00000000 		.word	__cxa_pure_virtual
 2398 000c 00000000 		.word	__cxa_pure_virtual
 2399 0010 00000000 		.word	__cxa_pure_virtual
 2400 0014 00000000 		.word	__cxa_pure_virtual
 2401              		.weak	_ZTVN3ros3MsgE
 2402              		.section	.rodata._ZTVN3ros3MsgE,"aG",%progbits,_ZTVN3ros3MsgE,comdat
 2403              		.align	3
 2404              		.type	_ZTVN3ros3MsgE, %object
 2405              		.size	_ZTVN3ros3MsgE, 24
 2406              	_ZTVN3ros3MsgE:
 2407 0000 00000000 		.word	0
 2408 0004 00000000 		.word	0
 2409 0008 00000000 		.word	__cxa_pure_virtual
 2410 000c 00000000 		.word	__cxa_pure_virtual
 2411 0010 00000000 		.word	__cxa_pure_virtual
 2412 0014 00000000 		.word	__cxa_pure_virtual
 2413              		.section	.rodata
 2414 00ce 0000     		.align	2
 2415              	.LC44:
 2416 00d0 6932635F 		.ascii	"i2c_reply\000"
 2416      7265706C 
 2416      7900
ARM GAS  C:\Users\Chuck\AppData\Local\Temp\ccNCRqO6.s 			page 60


 2417 00da 0000     		.align	2
 2418              	.LC47:
 2419 00dc 6932635F 		.ascii	"i2c_write\000"
 2419      77726974 
 2419      6500
 2420 00e6 0000     		.align	2
 2421              	.LC51:
 2422 00e8 6932635F 		.ascii	"i2c_read\000"
 2422      72656164 
 2422      00
 2423              		.section	.text._Z41__static_initialization_and_destruction_0ii,"ax",%progbits
 2424              		.align	2
 2425              		.code	16
 2426              		.thumb_func
 2427              		.type	_Z41__static_initialization_and_destruction_0ii, %function
 2428              	_Z41__static_initialization_and_destruction_0ii:
 2429              	.LFB191:
 138:.\ros_lib\examples\I2C/I2C_device.cpp **** 
 139:.\ros_lib\examples\I2C/I2C_device.cpp **** } // namespace I2C_device
 2430              		.loc 6 139 0
 2431              		.cfi_startproc
 2432 0000 B0B5     		push	{r4, r5, r7, lr}
 2433              		.cfi_def_cfa_offset 16
 2434              		.cfi_offset 4, -16
 2435              		.cfi_offset 5, -12
 2436              		.cfi_offset 7, -8
 2437              		.cfi_offset 14, -4
 2438 0002 82B0     		sub	sp, sp, #8
 2439              		.cfi_def_cfa_offset 24
 2440 0004 00AF     		add	r7, sp, #0
 2441              		.cfi_def_cfa_register 7
 2442 0006 7860     		str	r0, [r7, #4]
 2443 0008 3960     		str	r1, [r7]
 2444              		.loc 6 139 0
 2445 000a 7B68     		ldr	r3, [r7, #4]
 2446 000c 012B     		cmp	r3, #1
 2447 000e 38D1     		bne	.L124
 2448              		.loc 6 139 0 is_stmt 0 discriminator 1
 2449 0010 3B68     		ldr	r3, [r7]
 2450 0012 1D4A     		ldr	r2, .L130
 2451 0014 9342     		cmp	r3, r2
 2452 0016 34D1     		bne	.L124
  26:.\ros_lib\examples\I2C/I2C_device.cpp **** std_msgs::MultiArrayDimension reply_dim[1];
 2453              		.loc 6 26 0 is_stmt 1
 2454 0018 1C4B     		ldr	r3, .L130+4
 2455 001a 181C     		mov	r0, r3
 2456 001c FFF7FEFF 		bl	_ZN8std_msgs15UInt8MultiArrayC1Ev
  27:.\ros_lib\examples\I2C/I2C_device.cpp **** uint8_t reply_data[MAX_REPLY_BYTES];
 2457              		.loc 6 27 0
 2458 0020 1B4B     		ldr	r3, .L130+8
 2459 0022 0024     		mov	r4, #0
 2460 0024 1D1C     		mov	r5, r3
 2461 0026 04E0     		b	.L126
 2462              	.L127:
  27:.\ros_lib\examples\I2C/I2C_device.cpp **** uint8_t reply_data[MAX_REPLY_BYTES];
 2463              		.loc 6 27 0 is_stmt 0 discriminator 3
 2464 0028 281C     		mov	r0, r5
ARM GAS  C:\Users\Chuck\AppData\Local\Temp\ccNCRqO6.s 			page 61


 2465 002a FFF7FEFF 		bl	_ZN8std_msgs19MultiArrayDimensionC1Ev
 2466 002e 1035     		add	r5, r5, #16
 2467 0030 013C     		sub	r4, r4, #1
 2468              	.L126:
  27:.\ros_lib\examples\I2C/I2C_device.cpp **** uint8_t reply_data[MAX_REPLY_BYTES];
 2469              		.loc 6 27 0 discriminator 1
 2470 0032 631C     		add	r3, r4, #1
 2471 0034 F8D1     		bne	.L127
  29:.\ros_lib\examples\I2C/I2C_device.cpp **** 
 2472              		.loc 6 29 0 is_stmt 1 discriminator 4
 2473 0036 1749     		ldr	r1, .L130+12
 2474 0038 174A     		ldr	r2, .L130+16
 2475 003a 144B     		ldr	r3, .L130+4
 2476 003c 081C     		mov	r0, r1
 2477 003e 111C     		mov	r1, r2
 2478 0040 1A1C     		mov	r2, r3
 2479 0042 0023     		mov	r3, #0
 2480 0044 FFF7FEFF 		bl	_ZN3ros9PublisherC1EPKcPNS_3MsgEi
  77:.\ros_lib\examples\I2C/I2C_device.cpp **** ros::Subscriber<std_msgs::UInt8MultiArray> cmd_sub_r("i2c_read", &readMessageCb);
 2481              		.loc 6 77 0 discriminator 4
 2482 0048 1449     		ldr	r1, .L130+20
 2483 004a 154A     		ldr	r2, .L130+24
 2484 004c 154B     		ldr	r3, .L130+28
 2485 004e 081C     		mov	r0, r1
 2486 0050 111C     		mov	r1, r2
 2487 0052 1A1C     		mov	r2, r3
 2488 0054 0123     		mov	r3, #1
 2489 0056 FFF7FEFF 		bl	_ZN3ros10SubscriberIN8std_msgs15UInt8MultiArrayEEC1EPKcPFvRKS2_Ei
  78:.\ros_lib\examples\I2C/I2C_device.cpp **** std_msgs::MultiArrayDimension cmd_dim[1];
 2490              		.loc 6 78 0 discriminator 4
 2491 005a 1349     		ldr	r1, .L130+32
 2492 005c 134A     		ldr	r2, .L130+36
 2493 005e 144B     		ldr	r3, .L130+40
 2494 0060 081C     		mov	r0, r1
 2495 0062 111C     		mov	r1, r2
 2496 0064 1A1C     		mov	r2, r3
 2497 0066 0123     		mov	r3, #1
 2498 0068 FFF7FEFF 		bl	_ZN3ros10SubscriberIN8std_msgs15UInt8MultiArrayEEC1EPKcPFvRKS2_Ei
  79:.\ros_lib\examples\I2C/I2C_device.cpp **** uint8_t cmd_data[MAX_CMD_BYTES]; 
 2499              		.loc 6 79 0 discriminator 4
 2500 006c 114B     		ldr	r3, .L130+44
 2501 006e 0024     		mov	r4, #0
 2502 0070 1D1C     		mov	r5, r3
 2503 0072 04E0     		b	.L128
 2504              	.L129:
  79:.\ros_lib\examples\I2C/I2C_device.cpp **** uint8_t cmd_data[MAX_CMD_BYTES]; 
 2505              		.loc 6 79 0 is_stmt 0 discriminator 3
 2506 0074 281C     		mov	r0, r5
 2507 0076 FFF7FEFF 		bl	_ZN8std_msgs19MultiArrayDimensionC1Ev
 2508 007a 1035     		add	r5, r5, #16
 2509 007c 013C     		sub	r4, r4, #1
 2510              	.L128:
  79:.\ros_lib\examples\I2C/I2C_device.cpp **** uint8_t cmd_data[MAX_CMD_BYTES]; 
 2511              		.loc 6 79 0 discriminator 1
 2512 007e 631C     		add	r3, r4, #1
 2513 0080 F8D1     		bne	.L129
 2514              	.L124:
ARM GAS  C:\Users\Chuck\AppData\Local\Temp\ccNCRqO6.s 			page 62


 2515              		.loc 6 139 0 is_stmt 1
 2516 0082 BD46     		mov	sp, r7
 2517 0084 02B0     		add	sp, sp, #8
 2518              		@ sp needed
 2519 0086 B0BD     		pop	{r4, r5, r7, pc}
 2520              	.L131:
 2521              		.align	2
 2522              	.L130:
 2523 0088 FFFF0000 		.word	65535
 2524 008c 00000000 		.word	_ZN10I2C_device9reply_msgE
 2525 0090 00000000 		.word	_ZN10I2C_device9reply_dimE
 2526 0094 00000000 		.word	_ZN10I2C_device9reply_pubE
 2527 0098 D0000000 		.word	.LC44
 2528 009c 00000000 		.word	_ZN10I2C_device9cmd_sub_wE
 2529 00a0 DC000000 		.word	.LC47
 2530 00a4 00000000 		.word	_ZN10I2C_device14writeMessageCbERKN8std_msgs15UInt8MultiArrayE
 2531 00a8 00000000 		.word	_ZN10I2C_device9cmd_sub_rE
 2532 00ac E8000000 		.word	.LC51
 2533 00b0 00000000 		.word	_ZN10I2C_device13readMessageCbERKN8std_msgs15UInt8MultiArrayE
 2534 00b4 00000000 		.word	_ZN10I2C_device7cmd_dimE
 2535              		.cfi_endproc
 2536              	.LFE191:
 2537              		.size	_Z41__static_initialization_and_destruction_0ii, .-_Z41__static_initialization_and_destructi
 2538              		.section	.rodata
 2539 00f1 000000   		.align	2
 2540              		.type	_ZN14rosserial_msgsL12REQUESTPARAME, %object
 2541              		.size	_ZN14rosserial_msgsL12REQUESTPARAME, 28
 2542              	_ZN14rosserial_msgsL12REQUESTPARAME:
 2543 00f4 726F7373 		.ascii	"rosserial_msgs/RequestParam\000"
 2543      65726961 
 2543      6C5F6D73 
 2543      67732F52 
 2543      65717565 
 2544              		.section	.text._ZN3ros10SubscriberIN8std_msgs15UInt8MultiArrayEE8callbackEPh,"axG",%progbits,_ZN3r
 2545              		.align	2
 2546              		.weak	_ZN3ros10SubscriberIN8std_msgs15UInt8MultiArrayEE8callbackEPh
 2547              		.code	16
 2548              		.thumb_func
 2549              		.type	_ZN3ros10SubscriberIN8std_msgs15UInt8MultiArrayEE8callbackEPh, %function
 2550              	_ZN3ros10SubscriberIN8std_msgs15UInt8MultiArrayEE8callbackEPh:
 2551              	.LFB192:
  71:./ros_lib/ros/subscriber.h ****       // callback with message pointer allows use of member-function callbacks
  72:./ros_lib/ros/subscriber.h ****       typedef void(*CallbackTPtr)(const MsgT*);
  73:./ros_lib/ros/subscriber.h ****       Subscriber(const char * topic_name, CallbackTPtr cbp, int endpoint=rosserial_msgs::TopicInfo:
  74:./ros_lib/ros/subscriber.h ****         cb_(NULL), cbp_(cbp),
  75:./ros_lib/ros/subscriber.h ****         endpoint_(endpoint)
  76:./ros_lib/ros/subscriber.h ****       {
  77:./ros_lib/ros/subscriber.h ****         topic_ = topic_name;
  78:./ros_lib/ros/subscriber.h ****       };
  79:./ros_lib/ros/subscriber.h ****       // uninitialized callback pointer
  80:./ros_lib/ros/subscriber.h ****       Subscriber(int endpoint=rosserial_msgs::TopicInfo::ID_SUBSCRIBER) :
  81:./ros_lib/ros/subscriber.h ****         cb_(NULL), cbp_(NULL),
  82:./ros_lib/ros/subscriber.h ****         endpoint_(endpoint)
  83:./ros_lib/ros/subscriber.h ****       {
  84:./ros_lib/ros/subscriber.h ****       };
  85:./ros_lib/ros/subscriber.h **** 
  86:./ros_lib/ros/subscriber.h ****       virtual void callback(unsigned char* data){
ARM GAS  C:\Users\Chuck\AppData\Local\Temp\ccNCRqO6.s 			page 63


 2552              		.loc 7 86 0
 2553              		.cfi_startproc
 2554 0000 80B5     		push	{r7, lr}
 2555              		.cfi_def_cfa_offset 8
 2556              		.cfi_offset 7, -8
 2557              		.cfi_offset 14, -4
 2558 0002 82B0     		sub	sp, sp, #8
 2559              		.cfi_def_cfa_offset 16
 2560 0004 00AF     		add	r7, sp, #0
 2561              		.cfi_def_cfa_register 7
 2562 0006 7860     		str	r0, [r7, #4]
 2563 0008 3960     		str	r1, [r7]
  87:./ros_lib/ros/subscriber.h ****         msg.deserialize(data);
 2564              		.loc 7 87 0
 2565 000a 7B68     		ldr	r3, [r7, #4]
 2566 000c 0C33     		add	r3, r3, #12
 2567 000e 1A1C     		mov	r2, r3
 2568 0010 3B68     		ldr	r3, [r7]
 2569 0012 101C     		mov	r0, r2
 2570 0014 191C     		mov	r1, r3
 2571 0016 FFF7FEFF 		bl	_ZN8std_msgs15UInt8MultiArray11deserializeEPh
  88:./ros_lib/ros/subscriber.h ****         if (cb_) {
 2572              		.loc 7 88 0
 2573 001a 7B68     		ldr	r3, [r7, #4]
 2574 001c 9B6B     		ldr	r3, [r3, #56]
 2575 001e 002B     		cmp	r3, #0
 2576 0020 06D0     		beq	.L133
  89:./ros_lib/ros/subscriber.h ****           this->cb_(msg);
 2577              		.loc 7 89 0
 2578 0022 7B68     		ldr	r3, [r7, #4]
 2579 0024 9B6B     		ldr	r3, [r3, #56]
 2580 0026 7A68     		ldr	r2, [r7, #4]
 2581 0028 0C32     		add	r2, r2, #12
 2582 002a 101C     		mov	r0, r2
 2583 002c 9847     		blx	r3
 2584 002e 09E0     		b	.L132
 2585              	.L133:
  90:./ros_lib/ros/subscriber.h ****         } else if (cbp_) {
 2586              		.loc 7 90 0
 2587 0030 7B68     		ldr	r3, [r7, #4]
 2588 0032 DB6B     		ldr	r3, [r3, #60]
 2589 0034 002B     		cmp	r3, #0
 2590 0036 05D0     		beq	.L132
  91:./ros_lib/ros/subscriber.h ****           this->cbp_(&msg);
 2591              		.loc 7 91 0
 2592 0038 7B68     		ldr	r3, [r7, #4]
 2593 003a DB6B     		ldr	r3, [r3, #60]
 2594 003c 7A68     		ldr	r2, [r7, #4]
 2595 003e 0C32     		add	r2, r2, #12
 2596 0040 101C     		mov	r0, r2
 2597 0042 9847     		blx	r3
 2598              	.L132:
  92:./ros_lib/ros/subscriber.h ****         }
  93:./ros_lib/ros/subscriber.h ****       }
 2599              		.loc 7 93 0
 2600 0044 BD46     		mov	sp, r7
 2601 0046 02B0     		add	sp, sp, #8
ARM GAS  C:\Users\Chuck\AppData\Local\Temp\ccNCRqO6.s 			page 64


 2602              		@ sp needed
 2603 0048 80BD     		pop	{r7, pc}
 2604              		.cfi_endproc
 2605              	.LFE192:
 2606              		.size	_ZN3ros10SubscriberIN8std_msgs15UInt8MultiArrayEE8callbackEPh, .-_ZN3ros10SubscriberIN8std_m
 2607 004a C046     		.section	.text._ZN3ros10SubscriberIN8std_msgs15UInt8MultiArrayEE15getEndpointTypeEv,"axG",%progbit
 2608              		.align	2
 2609              		.weak	_ZN3ros10SubscriberIN8std_msgs15UInt8MultiArrayEE15getEndpointTypeEv
 2610              		.code	16
 2611              		.thumb_func
 2612              		.type	_ZN3ros10SubscriberIN8std_msgs15UInt8MultiArrayEE15getEndpointTypeEv, %function
 2613              	_ZN3ros10SubscriberIN8std_msgs15UInt8MultiArrayEE15getEndpointTypeEv:
 2614              	.LFB193:
  94:./ros_lib/ros/subscriber.h **** 
  95:./ros_lib/ros/subscriber.h ****       virtual const char * getMsgType(){ return this->msg.getType(); }
  96:./ros_lib/ros/subscriber.h ****       virtual const char * getMsgMD5(){ return this->msg.getMD5(); }
  97:./ros_lib/ros/subscriber.h ****       virtual int getEndpointType(){ return endpoint_; }
 2615              		.loc 7 97 0
 2616              		.cfi_startproc
 2617 0000 80B5     		push	{r7, lr}
 2618              		.cfi_def_cfa_offset 8
 2619              		.cfi_offset 7, -8
 2620              		.cfi_offset 14, -4
 2621 0002 82B0     		sub	sp, sp, #8
 2622              		.cfi_def_cfa_offset 16
 2623 0004 00AF     		add	r7, sp, #0
 2624              		.cfi_def_cfa_register 7
 2625 0006 7860     		str	r0, [r7, #4]
 2626              		.loc 7 97 0
 2627 0008 7B68     		ldr	r3, [r7, #4]
 2628 000a 1B6C     		ldr	r3, [r3, #64]
 2629 000c 181C     		mov	r0, r3
 2630 000e BD46     		mov	sp, r7
 2631 0010 02B0     		add	sp, sp, #8
 2632              		@ sp needed
 2633 0012 80BD     		pop	{r7, pc}
 2634              		.cfi_endproc
 2635              	.LFE193:
 2636              		.size	_ZN3ros10SubscriberIN8std_msgs15UInt8MultiArrayEE15getEndpointTypeEv, .-_ZN3ros10SubscriberI
 2637              		.section	.text._ZN3ros10SubscriberIN8std_msgs15UInt8MultiArrayEE10getMsgTypeEv,"axG",%progbits,_ZN
 2638              		.align	2
 2639              		.weak	_ZN3ros10SubscriberIN8std_msgs15UInt8MultiArrayEE10getMsgTypeEv
 2640              		.code	16
 2641              		.thumb_func
 2642              		.type	_ZN3ros10SubscriberIN8std_msgs15UInt8MultiArrayEE10getMsgTypeEv, %function
 2643              	_ZN3ros10SubscriberIN8std_msgs15UInt8MultiArrayEE10getMsgTypeEv:
 2644              	.LFB194:
  95:./ros_lib/ros/subscriber.h ****       virtual const char * getMsgMD5(){ return this->msg.getMD5(); }
 2645              		.loc 7 95 0
 2646              		.cfi_startproc
 2647 0000 80B5     		push	{r7, lr}
 2648              		.cfi_def_cfa_offset 8
 2649              		.cfi_offset 7, -8
 2650              		.cfi_offset 14, -4
 2651 0002 82B0     		sub	sp, sp, #8
 2652              		.cfi_def_cfa_offset 16
 2653 0004 00AF     		add	r7, sp, #0
ARM GAS  C:\Users\Chuck\AppData\Local\Temp\ccNCRqO6.s 			page 65


 2654              		.cfi_def_cfa_register 7
 2655 0006 7860     		str	r0, [r7, #4]
  95:./ros_lib/ros/subscriber.h ****       virtual const char * getMsgMD5(){ return this->msg.getMD5(); }
 2656              		.loc 7 95 0
 2657 0008 7B68     		ldr	r3, [r7, #4]
 2658 000a 0C33     		add	r3, r3, #12
 2659 000c 181C     		mov	r0, r3
 2660 000e FFF7FEFF 		bl	_ZN8std_msgs15UInt8MultiArray7getTypeEv
 2661 0012 031C     		mov	r3, r0
 2662 0014 181C     		mov	r0, r3
 2663 0016 BD46     		mov	sp, r7
 2664 0018 02B0     		add	sp, sp, #8
 2665              		@ sp needed
 2666 001a 80BD     		pop	{r7, pc}
 2667              		.cfi_endproc
 2668              	.LFE194:
 2669              		.size	_ZN3ros10SubscriberIN8std_msgs15UInt8MultiArrayEE10getMsgTypeEv, .-_ZN3ros10SubscriberIN8std
 2670              		.section	.text._ZN3ros10SubscriberIN8std_msgs15UInt8MultiArrayEE9getMsgMD5Ev,"axG",%progbits,_ZN3r
 2671              		.align	2
 2672              		.weak	_ZN3ros10SubscriberIN8std_msgs15UInt8MultiArrayEE9getMsgMD5Ev
 2673              		.code	16
 2674              		.thumb_func
 2675              		.type	_ZN3ros10SubscriberIN8std_msgs15UInt8MultiArrayEE9getMsgMD5Ev, %function
 2676              	_ZN3ros10SubscriberIN8std_msgs15UInt8MultiArrayEE9getMsgMD5Ev:
 2677              	.LFB195:
  96:./ros_lib/ros/subscriber.h ****       virtual int getEndpointType(){ return endpoint_; }
 2678              		.loc 7 96 0
 2679              		.cfi_startproc
 2680 0000 80B5     		push	{r7, lr}
 2681              		.cfi_def_cfa_offset 8
 2682              		.cfi_offset 7, -8
 2683              		.cfi_offset 14, -4
 2684 0002 82B0     		sub	sp, sp, #8
 2685              		.cfi_def_cfa_offset 16
 2686 0004 00AF     		add	r7, sp, #0
 2687              		.cfi_def_cfa_register 7
 2688 0006 7860     		str	r0, [r7, #4]
  96:./ros_lib/ros/subscriber.h ****       virtual int getEndpointType(){ return endpoint_; }
 2689              		.loc 7 96 0
 2690 0008 7B68     		ldr	r3, [r7, #4]
 2691 000a 0C33     		add	r3, r3, #12
 2692 000c 181C     		mov	r0, r3
 2693 000e FFF7FEFF 		bl	_ZN8std_msgs15UInt8MultiArray6getMD5Ev
 2694 0012 031C     		mov	r3, r0
 2695 0014 181C     		mov	r0, r3
 2696 0016 BD46     		mov	sp, r7
 2697 0018 02B0     		add	sp, sp, #8
 2698              		@ sp needed
 2699 001a 80BD     		pop	{r7, pc}
 2700              		.cfi_endproc
 2701              	.LFE195:
 2702              		.size	_ZN3ros10SubscriberIN8std_msgs15UInt8MultiArrayEE9getMsgMD5Ev, .-_ZN3ros10SubscriberIN8std_m
 2703              		.section	.text._GLOBAL__sub_I__ZN10I2C_device9reply_msgE,"ax",%progbits
 2704              		.align	2
 2705              		.code	16
 2706              		.thumb_func
 2707              		.type	_GLOBAL__sub_I__ZN10I2C_device9reply_msgE, %function
ARM GAS  C:\Users\Chuck\AppData\Local\Temp\ccNCRqO6.s 			page 66


 2708              	_GLOBAL__sub_I__ZN10I2C_device9reply_msgE:
 2709              	.LFB196:
 2710              		.loc 6 139 0
 2711              		.cfi_startproc
 2712 0000 80B5     		push	{r7, lr}
 2713              		.cfi_def_cfa_offset 8
 2714              		.cfi_offset 7, -8
 2715              		.cfi_offset 14, -4
 2716 0002 00AF     		add	r7, sp, #0
 2717              		.cfi_def_cfa_register 7
 2718              		.loc 6 139 0
 2719 0004 034B     		ldr	r3, .L142
 2720 0006 0120     		mov	r0, #1
 2721 0008 191C     		mov	r1, r3
 2722 000a FFF7FEFF 		bl	_Z41__static_initialization_and_destruction_0ii
 2723 000e BD46     		mov	sp, r7
 2724              		@ sp needed
 2725 0010 80BD     		pop	{r7, pc}
 2726              	.L143:
 2727 0012 C046     		.align	2
 2728              	.L142:
 2729 0014 FFFF0000 		.word	65535
 2730              		.cfi_endproc
 2731              	.LFE196:
 2732              		.size	_GLOBAL__sub_I__ZN10I2C_device9reply_msgE, .-_GLOBAL__sub_I__ZN10I2C_device9reply_msgE
 2733              		.section	.init_array,"aw",%init_array
 2734              		.align	2
 2735 0000 00000000 		.word	_GLOBAL__sub_I__ZN10I2C_device9reply_msgE(target1)
 2736              		.text
 2737              	.Letext0:
 2738              		.file 9 "c:\\program files (x86)\\cypress\\psoc creator\\3.3\\psoc creator\\import\\gnu\\arm\\4.9.
 2739              		.file 10 "c:\\program files (x86)\\cypress\\psoc creator\\3.3\\psoc creator\\import\\gnu\\arm\\4.9
 2740              		.file 11 "Generated_Source\\PSoC4/cytypes.h"
 2741              		.file 12 "./ros_lib/ros.h"
 2742              		.file 13 "./ros_lib/rosserial_msgs/TopicInfo.h"
 2743              		.file 14 "./ros_lib/Psoc4Hardware.h"
 2744              		.file 15 ".\\ros_lib\\examples\\I2C\\I2C_device.h"
 2745              		.file 16 "./ros_lib/std_msgs/Time.h"
 2746              		.file 17 "./ros_lib/rosserial_msgs/RequestParam.h"
 2747              		.file 18 "./ros_lib/Uarts.h"