ARM GAS  C:\Users\Chuck\AppData\Local\Temp\ccNCRqO6.s 			page 1


   1              		.cpu cortex-m0
   2              		.fpu softvfp
   3              		.eabi_attribute 20, 1
   4              		.eabi_attribute 21, 1
   5              		.eabi_attribute 23, 3
   6              		.eabi_attribute 24, 1
   7              		.eabi_attribute 25, 1
   8              		.eabi_attribute 26, 1
   9              		.eabi_attribute 30, 6
  10              		.eabi_attribute 34, 0
  11              		.eabi_attribute 18, 4
  12              		.code	16
  13              		.file	"I2C_device.cpp"
  14              		.text
  15              	.Ltext0:
  16              		.cfi_sections	.debug_frame
  17              		.section	.text._ZN3ros3MsgC2Ev,"axG",%progbits,_ZN3ros3MsgC5Ev,comdat
  18              		.align	2
  19              		.weak	_ZN3ros3MsgC2Ev
  20              		.code	16
  21              		.thumb_func
  22              		.type	_ZN3ros3MsgC2Ev, %function
  23              	_ZN3ros3MsgC2Ev:
  24              	.LFB54:
  25              		.file 1 "./ros_lib/ros/msg.h"
   1:./ros_lib/ros/msg.h **** /* 
   2:./ros_lib/ros/msg.h ****  * Software License Agreement (BSD License)
   3:./ros_lib/ros/msg.h ****  *
   4:./ros_lib/ros/msg.h ****  * Copyright (c) 2011, Willow Garage, Inc.
   5:./ros_lib/ros/msg.h ****  * All rights reserved.
   6:./ros_lib/ros/msg.h ****  *
   7:./ros_lib/ros/msg.h ****  * Redistribution and use in source and binary forms, with or without
   8:./ros_lib/ros/msg.h ****  * modification, are permitted provided that the following conditions
   9:./ros_lib/ros/msg.h ****  * are met:
  10:./ros_lib/ros/msg.h ****  *
  11:./ros_lib/ros/msg.h ****  *  * Redistributions of source code must retain the above copyright
  12:./ros_lib/ros/msg.h ****  *    notice, this list of conditions and the following disclaimer.
  13:./ros_lib/ros/msg.h ****  *  * Redistributions in binary form must reproduce the above
  14:./ros_lib/ros/msg.h ****  *    copyright notice, this list of conditions and the following
  15:./ros_lib/ros/msg.h ****  *    disclaimer in the documentation and/or other materials provided
  16:./ros_lib/ros/msg.h ****  *    with the distribution.
  17:./ros_lib/ros/msg.h ****  *  * Neither the name of Willow Garage, Inc. nor the names of its
  18:./ros_lib/ros/msg.h ****  *    contributors may be used to endorse or promote prducts derived
  19:./ros_lib/ros/msg.h ****  *    from this software without specific prior written permission.
  20:./ros_lib/ros/msg.h ****  *
  21:./ros_lib/ros/msg.h ****  * THIS SOFTWARE IS PROVIDED BY THE COPYRIGHT HOLDERS AND CONTRIBUTORS
  22:./ros_lib/ros/msg.h ****  * "AS IS" AND ANY EXPRESS OR IMPLIED WARRANTIES, INCLUDING, BUT NOT
  23:./ros_lib/ros/msg.h ****  * LIMITED TO, THE IMPLIED WARRANTIES OF MERCHANTABILITY AND FITNESS
  24:./ros_lib/ros/msg.h ****  * FOR A PARTICULAR PURPOSE ARE DISCLAIMED. IN NO EVENT SHALL THE
  25:./ros_lib/ros/msg.h ****  * COPYRIGHT OWNER OR CONTRIBUTORS BE LIABLE FOR ANY DIRECT, INDIRECT,
  26:./ros_lib/ros/msg.h ****  * INCIDENTAL, SPECIAL, EXEMPLARY, OR CONSEQUENTIAL DAMAGES (INCLUDING,
  27:./ros_lib/ros/msg.h ****  * BUT NOT LIMITED TO, PROCUREMENT OF SUBSTITUTE GOODS OR SERVICES;
  28:./ros_lib/ros/msg.h ****  * LOSS OF USE, DATA, OR PROFITS; OR BUSINESS INTERRUPTION) HOWEVER
  29:./ros_lib/ros/msg.h ****  * CAUSED AND ON ANY THEORY OF LIABILITY, WHETHER IN CONTRACT, STRICT
  30:./ros_lib/ros/msg.h ****  * LIABILITY, OR TORT (INCLUDING NEGLIGENCE OR OTHERWISE) ARISING IN
  31:./ros_lib/ros/msg.h ****  * ANY WAY OUT OF THE USE OF THIS SOFTWARE, EVEN IF ADVISED OF THE
  32:./ros_lib/ros/msg.h ****  * POSSIBILITY OF SUCH DAMAGE.
ARM GAS  C:\Users\Chuck\AppData\Local\Temp\ccNCRqO6.s 			page 2


  33:./ros_lib/ros/msg.h ****  */
  34:./ros_lib/ros/msg.h **** 
  35:./ros_lib/ros/msg.h **** #ifndef _ROS_MSG_H_
  36:./ros_lib/ros/msg.h **** #define _ROS_MSG_H_
  37:./ros_lib/ros/msg.h **** 
  38:./ros_lib/ros/msg.h **** #include <stdint.h>
  39:./ros_lib/ros/msg.h **** 
  40:./ros_lib/ros/msg.h **** namespace ros {
  41:./ros_lib/ros/msg.h **** 
  42:./ros_lib/ros/msg.h **** /* Base Message Type */
  43:./ros_lib/ros/msg.h **** class Msg
  26              		.loc 1 43 0
  27              		.cfi_startproc
  28 0000 80B5     		push	{r7, lr}
  29              		.cfi_def_cfa_offset 8
  30              		.cfi_offset 7, -8
  31              		.cfi_offset 14, -4
  32 0002 82B0     		sub	sp, sp, #8
  33              		.cfi_def_cfa_offset 16
  34 0004 00AF     		add	r7, sp, #0
  35              		.cfi_def_cfa_register 7
  36 0006 7860     		str	r0, [r7, #4]
  37              	.LBB2:
  38              		.loc 1 43 0
  39 0008 7B68     		ldr	r3, [r7, #4]
  40 000a 034A     		ldr	r2, .L4
  41 000c 1A60     		str	r2, [r3]
  42              	.LBE2:
  43 000e 7B68     		ldr	r3, [r7, #4]
  44 0010 181C     		mov	r0, r3
  45 0012 BD46     		mov	sp, r7
  46 0014 02B0     		add	sp, sp, #8
  47              		@ sp needed
  48 0016 80BD     		pop	{r7, pc}
  49              	.L5:
  50              		.align	2
  51              	.L4:
  52 0018 08000000 		.word	_ZTVN3ros3MsgE+8
  53              		.cfi_endproc
  54              	.LFE54:
  55              		.size	_ZN3ros3MsgC2Ev, .-_ZN3ros3MsgC2Ev
  56              		.weak	_ZN3ros3MsgC1Ev
  57              		.thumb_set _ZN3ros3MsgC1Ev,_ZN3ros3MsgC2Ev
  58              		.section	.text._ZN3ros9PublisherC2EPKcPNS_3MsgEi,"axG",%progbits,_ZN3ros9PublisherC5EPKcPNS_3MsgEi
  59              		.align	2
  60              		.weak	_ZN3ros9PublisherC2EPKcPNS_3MsgEi
  61              		.code	16
  62              		.thumb_func
  63              		.type	_ZN3ros9PublisherC2EPKcPNS_3MsgEi, %function
  64              	_ZN3ros9PublisherC2EPKcPNS_3MsgEi:
  65              	.LFB91:
  66              		.file 2 "./ros_lib/ros/publisher.h"
   1:./ros_lib/ros/publisher.h **** /* 
   2:./ros_lib/ros/publisher.h ****  * Software License Agreement (BSD License)
   3:./ros_lib/ros/publisher.h ****  *
   4:./ros_lib/ros/publisher.h ****  * Copyright (c) 2011, Willow Garage, Inc.
   5:./ros_lib/ros/publisher.h ****  * All rights reserved.
ARM GAS  C:\Users\Chuck\AppData\Local\Temp\ccNCRqO6.s 			page 3


   6:./ros_lib/ros/publisher.h ****  *
   7:./ros_lib/ros/publisher.h ****  * Redistribution and use in source and binary forms, with or without
   8:./ros_lib/ros/publisher.h ****  * modification, are permitted provided that the following conditions
   9:./ros_lib/ros/publisher.h ****  * are met:
  10:./ros_lib/ros/publisher.h ****  *
  11:./ros_lib/ros/publisher.h ****  *  * Redistributions of source code must retain the above copyright
  12:./ros_lib/ros/publisher.h ****  *    notice, this list of conditions and the following disclaimer.
  13:./ros_lib/ros/publisher.h ****  *  * Redistributions in binary form must reproduce the above
  14:./ros_lib/ros/publisher.h ****  *    copyright notice, this list of conditions and the following
  15:./ros_lib/ros/publisher.h ****  *    disclaimer in the documentation and/or other materials provided
  16:./ros_lib/ros/publisher.h ****  *    with the distribution.
  17:./ros_lib/ros/publisher.h ****  *  * Neither the name of Willow Garage, Inc. nor the names of its
  18:./ros_lib/ros/publisher.h ****  *    contributors may be used to endorse or promote prducts derived
  19:./ros_lib/ros/publisher.h ****  *    from this software without specific prior written permission.
  20:./ros_lib/ros/publisher.h ****  *
  21:./ros_lib/ros/publisher.h ****  * THIS SOFTWARE IS PROVIDED BY THE COPYRIGHT HOLDERS AND CONTRIBUTORS
  22:./ros_lib/ros/publisher.h ****  * "AS IS" AND ANY EXPRESS OR IMPLIED WARRANTIES, INCLUDING, BUT NOT
  23:./ros_lib/ros/publisher.h ****  * LIMITED TO, THE IMPLIED WARRANTIES OF MERCHANTABILITY AND FITNESS
  24:./ros_lib/ros/publisher.h ****  * FOR A PARTICULAR PURPOSE ARE DISCLAIMED. IN NO EVENT SHALL THE
  25:./ros_lib/ros/publisher.h ****  * COPYRIGHT OWNER OR CONTRIBUTORS BE LIABLE FOR ANY DIRECT, INDIRECT,
  26:./ros_lib/ros/publisher.h ****  * INCIDENTAL, SPECIAL, EXEMPLARY, OR CONSEQUENTIAL DAMAGES (INCLUDING,
  27:./ros_lib/ros/publisher.h ****  * BUT NOT LIMITED TO, PROCUREMENT OF SUBSTITUTE GOODS OR SERVICES;
  28:./ros_lib/ros/publisher.h ****  * LOSS OF USE, DATA, OR PROFITS; OR BUSINESS INTERRUPTION) HOWEVER
  29:./ros_lib/ros/publisher.h ****  * CAUSED AND ON ANY THEORY OF LIABILITY, WHETHER IN CONTRACT, STRICT
  30:./ros_lib/ros/publisher.h ****  * LIABILITY, OR TORT (INCLUDING NEGLIGENCE OR OTHERWISE) ARISING IN
  31:./ros_lib/ros/publisher.h ****  * ANY WAY OUT OF THE USE OF THIS SOFTWARE, EVEN IF ADVISED OF THE
  32:./ros_lib/ros/publisher.h ****  * POSSIBILITY OF SUCH DAMAGE.
  33:./ros_lib/ros/publisher.h ****  */
  34:./ros_lib/ros/publisher.h **** 
  35:./ros_lib/ros/publisher.h **** #ifndef _ROS_PUBLISHER_H_
  36:./ros_lib/ros/publisher.h **** #define _ROS_PUBLISHER_H_
  37:./ros_lib/ros/publisher.h **** 
  38:./ros_lib/ros/publisher.h **** #include "rosserial_msgs/TopicInfo.h"
  39:./ros_lib/ros/publisher.h **** #include "node_handle.h"
  40:./ros_lib/ros/publisher.h **** 
  41:./ros_lib/ros/publisher.h **** namespace ros {
  42:./ros_lib/ros/publisher.h **** 
  43:./ros_lib/ros/publisher.h ****   /* Generic Publisher */
  44:./ros_lib/ros/publisher.h ****   class Publisher
  45:./ros_lib/ros/publisher.h ****   {
  46:./ros_lib/ros/publisher.h ****     public:
  47:./ros_lib/ros/publisher.h ****       Publisher( const char * topic_name, Msg * msg, int endpoint=rosserial_msgs::TopicInfo::ID_PUB
  67              		.loc 2 47 0
  68              		.cfi_startproc
  69 0000 80B5     		push	{r7, lr}
  70              		.cfi_def_cfa_offset 8
  71              		.cfi_offset 7, -8
  72              		.cfi_offset 14, -4
  73 0002 84B0     		sub	sp, sp, #16
  74              		.cfi_def_cfa_offset 24
  75 0004 00AF     		add	r7, sp, #0
  76              		.cfi_def_cfa_register 7
  77 0006 F860     		str	r0, [r7, #12]
  78 0008 B960     		str	r1, [r7, #8]
  79 000a 7A60     		str	r2, [r7, #4]
  80 000c 3B60     		str	r3, [r7]
  81              	.LBB3:
ARM GAS  C:\Users\Chuck\AppData\Local\Temp\ccNCRqO6.s 			page 4


  48:./ros_lib/ros/publisher.h ****         topic_(topic_name), 
  49:./ros_lib/ros/publisher.h ****         msg_(msg),
  50:./ros_lib/ros/publisher.h ****         endpoint_(endpoint) {};
  82              		.loc 2 50 0
  83 000e FB68     		ldr	r3, [r7, #12]
  84 0010 BA68     		ldr	r2, [r7, #8]
  85 0012 1A60     		str	r2, [r3]
  86 0014 FB68     		ldr	r3, [r7, #12]
  87 0016 7A68     		ldr	r2, [r7, #4]
  88 0018 5A60     		str	r2, [r3, #4]
  89 001a FB68     		ldr	r3, [r7, #12]
  90 001c 3A68     		ldr	r2, [r7]
  91 001e 1A61     		str	r2, [r3, #16]
  92              	.LBE3:
  93 0020 FB68     		ldr	r3, [r7, #12]
  94 0022 181C     		mov	r0, r3
  95 0024 BD46     		mov	sp, r7
  96 0026 04B0     		add	sp, sp, #16
  97              		@ sp needed
  98 0028 80BD     		pop	{r7, pc}
  99              		.cfi_endproc
 100              	.LFE91:
 101              		.size	_ZN3ros9PublisherC2EPKcPNS_3MsgEi, .-_ZN3ros9PublisherC2EPKcPNS_3MsgEi
 102              		.weak	_ZN3ros9PublisherC1EPKcPNS_3MsgEi
 103              		.thumb_set _ZN3ros9PublisherC1EPKcPNS_3MsgEi,_ZN3ros9PublisherC2EPKcPNS_3MsgEi
 104 002a C046     		.section	.text._ZN3ros9Publisher7publishEPKNS_3MsgE,"axG",%progbits,_ZN3ros9Publisher7publishEPKNS
 105              		.align	2
 106              		.weak	_ZN3ros9Publisher7publishEPKNS_3MsgE
 107              		.code	16
 108              		.thumb_func
 109              		.type	_ZN3ros9Publisher7publishEPKNS_3MsgE, %function
 110              	_ZN3ros9Publisher7publishEPKNS_3MsgE:
 111              	.LFB93:
  51:./ros_lib/ros/publisher.h ****       // rosserial standard signature
  52:./ros_lib/ros/publisher.h ****       int publish( const Msg * msg ) { return nh_->publish(id_, msg); };
 112              		.loc 2 52 0
 113              		.cfi_startproc
 114 0000 90B5     		push	{r4, r7, lr}
 115              		.cfi_def_cfa_offset 12
 116              		.cfi_offset 4, -12
 117              		.cfi_offset 7, -8
 118              		.cfi_offset 14, -4
 119 0002 83B0     		sub	sp, sp, #12
 120              		.cfi_def_cfa_offset 24
 121 0004 00AF     		add	r7, sp, #0
 122              		.cfi_def_cfa_register 7
 123 0006 7860     		str	r0, [r7, #4]
 124 0008 3960     		str	r1, [r7]
 125              		.loc 2 52 0
 126 000a 7B68     		ldr	r3, [r7, #4]
 127 000c DB68     		ldr	r3, [r3, #12]
 128 000e 1B68     		ldr	r3, [r3]
 129 0010 1C68     		ldr	r4, [r3]
 130 0012 7B68     		ldr	r3, [r7, #4]
 131 0014 D968     		ldr	r1, [r3, #12]
 132 0016 7B68     		ldr	r3, [r7, #4]
 133 0018 9A68     		ldr	r2, [r3, #8]
ARM GAS  C:\Users\Chuck\AppData\Local\Temp\ccNCRqO6.s 			page 5


 134 001a 3B68     		ldr	r3, [r7]
 135 001c 081C     		mov	r0, r1
 136 001e 111C     		mov	r1, r2
 137 0020 1A1C     		mov	r2, r3
 138 0022 A047     		blx	r4
 139 0024 031C     		mov	r3, r0
 140 0026 181C     		mov	r0, r3
 141 0028 BD46     		mov	sp, r7
 142 002a 03B0     		add	sp, sp, #12
 143              		@ sp needed
 144 002c 90BD     		pop	{r4, r7, pc}
 145              		.cfi_endproc
 146              	.LFE93:
 147              		.size	_ZN3ros9Publisher7publishEPKNS_3MsgE, .-_ZN3ros9Publisher7publishEPKNS_3MsgE
 148 002e C046     		.section	.rodata
 149              		.align	2
 150              	.LC2:
 151 0000 00       		.ascii	"\000"
 152              		.section	.text._ZN8std_msgs19MultiArrayDimensionC2Ev,"axG",%progbits,_ZN8std_msgs19MultiArrayDimen
 153              		.align	2
 154              		.weak	_ZN8std_msgs19MultiArrayDimensionC2Ev
 155              		.code	16
 156              		.thumb_func
 157              		.type	_ZN8std_msgs19MultiArrayDimensionC2Ev, %function
 158              	_ZN8std_msgs19MultiArrayDimensionC2Ev:
 159              	.LFB159:
 160              		.file 3 "./ros_lib/std_msgs/MultiArrayDimension.h"
   1:./ros_lib/std_msgs/MultiArrayDimension.h **** #ifndef _ROS_std_msgs_MultiArrayDimension_h
   2:./ros_lib/std_msgs/MultiArrayDimension.h **** #define _ROS_std_msgs_MultiArrayDimension_h
   3:./ros_lib/std_msgs/MultiArrayDimension.h **** 
   4:./ros_lib/std_msgs/MultiArrayDimension.h **** #include <stdint.h>
   5:./ros_lib/std_msgs/MultiArrayDimension.h **** #include <string.h>
   6:./ros_lib/std_msgs/MultiArrayDimension.h **** #include <stdlib.h>
   7:./ros_lib/std_msgs/MultiArrayDimension.h **** #include "ros/msg.h"
   8:./ros_lib/std_msgs/MultiArrayDimension.h **** 
   9:./ros_lib/std_msgs/MultiArrayDimension.h **** namespace std_msgs
  10:./ros_lib/std_msgs/MultiArrayDimension.h **** {
  11:./ros_lib/std_msgs/MultiArrayDimension.h **** 
  12:./ros_lib/std_msgs/MultiArrayDimension.h ****   class MultiArrayDimension : public ros::Msg
  13:./ros_lib/std_msgs/MultiArrayDimension.h ****   {
  14:./ros_lib/std_msgs/MultiArrayDimension.h ****     public:
  15:./ros_lib/std_msgs/MultiArrayDimension.h ****       const char* label;
  16:./ros_lib/std_msgs/MultiArrayDimension.h ****       uint32_t size;
  17:./ros_lib/std_msgs/MultiArrayDimension.h ****       uint32_t stride;
  18:./ros_lib/std_msgs/MultiArrayDimension.h **** 
  19:./ros_lib/std_msgs/MultiArrayDimension.h ****     MultiArrayDimension():
 161              		.loc 3 19 0
 162              		.cfi_startproc
 163 0000 80B5     		push	{r7, lr}
 164              		.cfi_def_cfa_offset 8
 165              		.cfi_offset 7, -8
 166              		.cfi_offset 14, -4
 167 0002 82B0     		sub	sp, sp, #8
 168              		.cfi_def_cfa_offset 16
 169 0004 00AF     		add	r7, sp, #0
 170              		.cfi_def_cfa_register 7
 171 0006 7860     		str	r0, [r7, #4]
ARM GAS  C:\Users\Chuck\AppData\Local\Temp\ccNCRqO6.s 			page 6


 172              	.LBB4:
  20:./ros_lib/std_msgs/MultiArrayDimension.h ****       label(""),
  21:./ros_lib/std_msgs/MultiArrayDimension.h ****       size(0),
  22:./ros_lib/std_msgs/MultiArrayDimension.h ****       stride(0)
 173              		.loc 3 22 0
 174 0008 7B68     		ldr	r3, [r7, #4]
 175 000a 181C     		mov	r0, r3
 176 000c FFF7FEFF 		bl	_ZN3ros3MsgC2Ev
 177 0010 7B68     		ldr	r3, [r7, #4]
 178 0012 084A     		ldr	r2, .L14
 179 0014 1A60     		str	r2, [r3]
 180 0016 7B68     		ldr	r3, [r7, #4]
 181 0018 074A     		ldr	r2, .L14+4
 182 001a 5A60     		str	r2, [r3, #4]
 183 001c 7B68     		ldr	r3, [r7, #4]
 184 001e 0022     		mov	r2, #0
 185 0020 9A60     		str	r2, [r3, #8]
 186 0022 7B68     		ldr	r3, [r7, #4]
 187 0024 0022     		mov	r2, #0
 188 0026 DA60     		str	r2, [r3, #12]
 189              	.LBE4:
  23:./ros_lib/std_msgs/MultiArrayDimension.h ****     {
  24:./ros_lib/std_msgs/MultiArrayDimension.h ****     }
 190              		.loc 3 24 0
 191 0028 7B68     		ldr	r3, [r7, #4]
 192 002a 181C     		mov	r0, r3
 193 002c BD46     		mov	sp, r7
 194 002e 02B0     		add	sp, sp, #8
 195              		@ sp needed
 196 0030 80BD     		pop	{r7, pc}
 197              	.L15:
 198 0032 C046     		.align	2
 199              	.L14:
 200 0034 08000000 		.word	_ZTVN8std_msgs19MultiArrayDimensionE+8
 201 0038 00000000 		.word	.LC2
 202              		.cfi_endproc
 203              	.LFE159:
 204              		.size	_ZN8std_msgs19MultiArrayDimensionC2Ev, .-_ZN8std_msgs19MultiArrayDimensionC2Ev
 205              		.weak	_ZN8std_msgs19MultiArrayDimensionC1Ev
 206              		.thumb_set _ZN8std_msgs19MultiArrayDimensionC1Ev,_ZN8std_msgs19MultiArrayDimensionC2Ev
 207              		.section	.text._ZNK8std_msgs19MultiArrayDimension9serializeEPh,"axG",%progbits,_ZNK8std_msgs19Mult
 208              		.align	2
 209              		.weak	_ZNK8std_msgs19MultiArrayDimension9serializeEPh
 210              		.code	16
 211              		.thumb_func
 212              		.type	_ZNK8std_msgs19MultiArrayDimension9serializeEPh, %function
 213              	_ZNK8std_msgs19MultiArrayDimension9serializeEPh:
 214              	.LFB161:
  25:./ros_lib/std_msgs/MultiArrayDimension.h **** 
  26:./ros_lib/std_msgs/MultiArrayDimension.h ****     virtual int serialize(unsigned char *outbuffer) const
 215              		.loc 3 26 0
 216              		.cfi_startproc
 217 0000 80B5     		push	{r7, lr}
 218              		.cfi_def_cfa_offset 8
 219              		.cfi_offset 7, -8
 220              		.cfi_offset 14, -4
 221 0002 84B0     		sub	sp, sp, #16
ARM GAS  C:\Users\Chuck\AppData\Local\Temp\ccNCRqO6.s 			page 7


 222              		.cfi_def_cfa_offset 24
 223 0004 00AF     		add	r7, sp, #0
 224              		.cfi_def_cfa_register 7
 225 0006 7860     		str	r0, [r7, #4]
 226 0008 3960     		str	r1, [r7]
 227              	.LBB5:
  27:./ros_lib/std_msgs/MultiArrayDimension.h ****     {
  28:./ros_lib/std_msgs/MultiArrayDimension.h ****       int offset = 0;
 228              		.loc 3 28 0
 229 000a 0023     		mov	r3, #0
 230 000c FB60     		str	r3, [r7, #12]
  29:./ros_lib/std_msgs/MultiArrayDimension.h **** #ifndef ROS_MSG_DONT_SERIALIZE
  30:./ros_lib/std_msgs/MultiArrayDimension.h ****       uint32_t length_label = strlen( (const char*) this->label);
 231              		.loc 3 30 0
 232 000e 7B68     		ldr	r3, [r7, #4]
 233 0010 5B68     		ldr	r3, [r3, #4]
 234 0012 181C     		mov	r0, r3
 235 0014 FFF7FEFF 		bl	strlen
 236 0018 031C     		mov	r3, r0
 237 001a BB60     		str	r3, [r7, #8]
  31:./ros_lib/std_msgs/MultiArrayDimension.h ****       memcpy(outbuffer + offset, &length_label, sizeof(uint32_t));
 238              		.loc 3 31 0
 239 001c FB68     		ldr	r3, [r7, #12]
 240 001e 3A68     		ldr	r2, [r7]
 241 0020 D218     		add	r2, r2, r3
 242 0022 0823     		mov	r3, #8
 243 0024 FB18     		add	r3, r7, r3
 244 0026 101C     		mov	r0, r2
 245 0028 191C     		mov	r1, r3
 246 002a 0422     		mov	r2, #4
 247 002c FFF7FEFF 		bl	memcpy
  32:./ros_lib/std_msgs/MultiArrayDimension.h ****       offset += 4;
 248              		.loc 3 32 0
 249 0030 FB68     		ldr	r3, [r7, #12]
 250 0032 0433     		add	r3, r3, #4
 251 0034 FB60     		str	r3, [r7, #12]
  33:./ros_lib/std_msgs/MultiArrayDimension.h ****       memcpy(outbuffer + offset, this->label, length_label);
 252              		.loc 3 33 0
 253 0036 FB68     		ldr	r3, [r7, #12]
 254 0038 3A68     		ldr	r2, [r7]
 255 003a D118     		add	r1, r2, r3
 256 003c 7B68     		ldr	r3, [r7, #4]
 257 003e 5A68     		ldr	r2, [r3, #4]
 258 0040 BB68     		ldr	r3, [r7, #8]
 259 0042 081C     		mov	r0, r1
 260 0044 111C     		mov	r1, r2
 261 0046 1A1C     		mov	r2, r3
 262 0048 FFF7FEFF 		bl	memcpy
  34:./ros_lib/std_msgs/MultiArrayDimension.h ****       offset += length_label;
 263              		.loc 3 34 0
 264 004c FA68     		ldr	r2, [r7, #12]
 265 004e BB68     		ldr	r3, [r7, #8]
 266 0050 D318     		add	r3, r2, r3
 267 0052 FB60     		str	r3, [r7, #12]
  35:./ros_lib/std_msgs/MultiArrayDimension.h ****       *(outbuffer + offset + 0) = (this->size >> (8 * 0)) & 0xFF;
 268              		.loc 3 35 0
 269 0054 FB68     		ldr	r3, [r7, #12]
ARM GAS  C:\Users\Chuck\AppData\Local\Temp\ccNCRqO6.s 			page 8


 270 0056 3A68     		ldr	r2, [r7]
 271 0058 D218     		add	r2, r2, r3
 272 005a 7B68     		ldr	r3, [r7, #4]
 273 005c 9B68     		ldr	r3, [r3, #8]
 274 005e DBB2     		uxtb	r3, r3
 275 0060 1370     		strb	r3, [r2]
  36:./ros_lib/std_msgs/MultiArrayDimension.h ****       *(outbuffer + offset + 1) = (this->size >> (8 * 1)) & 0xFF;
 276              		.loc 3 36 0
 277 0062 FB68     		ldr	r3, [r7, #12]
 278 0064 0133     		add	r3, r3, #1
 279 0066 3A68     		ldr	r2, [r7]
 280 0068 D218     		add	r2, r2, r3
 281 006a 7B68     		ldr	r3, [r7, #4]
 282 006c 9B68     		ldr	r3, [r3, #8]
 283 006e 1B0A     		lsr	r3, r3, #8
 284 0070 DBB2     		uxtb	r3, r3
 285 0072 1370     		strb	r3, [r2]
  37:./ros_lib/std_msgs/MultiArrayDimension.h ****       *(outbuffer + offset + 2) = (this->size >> (8 * 2)) & 0xFF;
 286              		.loc 3 37 0
 287 0074 FB68     		ldr	r3, [r7, #12]
 288 0076 0233     		add	r3, r3, #2
 289 0078 3A68     		ldr	r2, [r7]
 290 007a D218     		add	r2, r2, r3
 291 007c 7B68     		ldr	r3, [r7, #4]
 292 007e 9B68     		ldr	r3, [r3, #8]
 293 0080 1B0C     		lsr	r3, r3, #16
 294 0082 DBB2     		uxtb	r3, r3
 295 0084 1370     		strb	r3, [r2]
  38:./ros_lib/std_msgs/MultiArrayDimension.h ****       *(outbuffer + offset + 3) = (this->size >> (8 * 3)) & 0xFF;
 296              		.loc 3 38 0
 297 0086 FB68     		ldr	r3, [r7, #12]
 298 0088 0333     		add	r3, r3, #3
 299 008a 3A68     		ldr	r2, [r7]
 300 008c D218     		add	r2, r2, r3
 301 008e 7B68     		ldr	r3, [r7, #4]
 302 0090 9B68     		ldr	r3, [r3, #8]
 303 0092 1B0E     		lsr	r3, r3, #24
 304 0094 DBB2     		uxtb	r3, r3
 305 0096 1370     		strb	r3, [r2]
  39:./ros_lib/std_msgs/MultiArrayDimension.h ****       offset += sizeof(this->size);
 306              		.loc 3 39 0
 307 0098 FB68     		ldr	r3, [r7, #12]
 308 009a 0433     		add	r3, r3, #4
 309 009c FB60     		str	r3, [r7, #12]
  40:./ros_lib/std_msgs/MultiArrayDimension.h ****       *(outbuffer + offset + 0) = (this->stride >> (8 * 0)) & 0xFF;
 310              		.loc 3 40 0
 311 009e FB68     		ldr	r3, [r7, #12]
 312 00a0 3A68     		ldr	r2, [r7]
 313 00a2 D218     		add	r2, r2, r3
 314 00a4 7B68     		ldr	r3, [r7, #4]
 315 00a6 DB68     		ldr	r3, [r3, #12]
 316 00a8 DBB2     		uxtb	r3, r3
 317 00aa 1370     		strb	r3, [r2]
  41:./ros_lib/std_msgs/MultiArrayDimension.h ****       *(outbuffer + offset + 1) = (this->stride >> (8 * 1)) & 0xFF;
 318              		.loc 3 41 0
 319 00ac FB68     		ldr	r3, [r7, #12]
 320 00ae 0133     		add	r3, r3, #1
ARM GAS  C:\Users\Chuck\AppData\Local\Temp\ccNCRqO6.s 			page 9


 321 00b0 3A68     		ldr	r2, [r7]
 322 00b2 D218     		add	r2, r2, r3
 323 00b4 7B68     		ldr	r3, [r7, #4]
 324 00b6 DB68     		ldr	r3, [r3, #12]
 325 00b8 1B0A     		lsr	r3, r3, #8
 326 00ba DBB2     		uxtb	r3, r3
 327 00bc 1370     		strb	r3, [r2]
  42:./ros_lib/std_msgs/MultiArrayDimension.h ****       *(outbuffer + offset + 2) = (this->stride >> (8 * 2)) & 0xFF;
 328              		.loc 3 42 0
 329 00be FB68     		ldr	r3, [r7, #12]
 330 00c0 0233     		add	r3, r3, #2
 331 00c2 3A68     		ldr	r2, [r7]
 332 00c4 D218     		add	r2, r2, r3
 333 00c6 7B68     		ldr	r3, [r7, #4]
 334 00c8 DB68     		ldr	r3, [r3, #12]
 335 00ca 1B0C     		lsr	r3, r3, #16
 336 00cc DBB2     		uxtb	r3, r3
 337 00ce 1370     		strb	r3, [r2]
  43:./ros_lib/std_msgs/MultiArrayDimension.h ****       *(outbuffer + offset + 3) = (this->stride >> (8 * 3)) & 0xFF;
 338              		.loc 3 43 0
 339 00d0 FB68     		ldr	r3, [r7, #12]
 340 00d2 0333     		add	r3, r3, #3
 341 00d4 3A68     		ldr	r2, [r7]
 342 00d6 D218     		add	r2, r2, r3
 343 00d8 7B68     		ldr	r3, [r7, #4]
 344 00da DB68     		ldr	r3, [r3, #12]
 345 00dc 1B0E     		lsr	r3, r3, #24
 346 00de DBB2     		uxtb	r3, r3
 347 00e0 1370     		strb	r3, [r2]
  44:./ros_lib/std_msgs/MultiArrayDimension.h ****       offset += sizeof(this->stride);
 348              		.loc 3 44 0
 349 00e2 FB68     		ldr	r3, [r7, #12]
 350 00e4 0433     		add	r3, r3, #4
 351 00e6 FB60     		str	r3, [r7, #12]
  45:./ros_lib/std_msgs/MultiArrayDimension.h **** #endif
  46:./ros_lib/std_msgs/MultiArrayDimension.h ****       return offset;
 352              		.loc 3 46 0
 353 00e8 FB68     		ldr	r3, [r7, #12]
 354              	.LBE5:
  47:./ros_lib/std_msgs/MultiArrayDimension.h ****     }
 355              		.loc 3 47 0
 356 00ea 181C     		mov	r0, r3
 357 00ec BD46     		mov	sp, r7
 358 00ee 04B0     		add	sp, sp, #16
 359              		@ sp needed
 360 00f0 80BD     		pop	{r7, pc}
 361              		.cfi_endproc
 362              	.LFE161:
 363              		.size	_ZNK8std_msgs19MultiArrayDimension9serializeEPh, .-_ZNK8std_msgs19MultiArrayDimension9serial
 364 00f2 C046     		.section	.text._ZN8std_msgs19MultiArrayDimension11deserializeEPh,"axG",%progbits,_ZN8std_msgs19Mul
 365              		.align	2
 366              		.weak	_ZN8std_msgs19MultiArrayDimension11deserializeEPh
 367              		.code	16
 368              		.thumb_func
 369              		.type	_ZN8std_msgs19MultiArrayDimension11deserializeEPh, %function
 370              	_ZN8std_msgs19MultiArrayDimension11deserializeEPh:
 371              	.LFB162:
ARM GAS  C:\Users\Chuck\AppData\Local\Temp\ccNCRqO6.s 			page 10


  48:./ros_lib/std_msgs/MultiArrayDimension.h **** 
  49:./ros_lib/std_msgs/MultiArrayDimension.h ****     virtual int deserialize(unsigned char *inbuffer)
 372              		.loc 3 49 0
 373              		.cfi_startproc
 374 0000 80B5     		push	{r7, lr}
 375              		.cfi_def_cfa_offset 8
 376              		.cfi_offset 7, -8
 377              		.cfi_offset 14, -4
 378 0002 86B0     		sub	sp, sp, #24
 379              		.cfi_def_cfa_offset 32
 380 0004 00AF     		add	r7, sp, #0
 381              		.cfi_def_cfa_register 7
 382 0006 7860     		str	r0, [r7, #4]
 383 0008 3960     		str	r1, [r7]
 384              	.LBB6:
  50:./ros_lib/std_msgs/MultiArrayDimension.h ****     {
  51:./ros_lib/std_msgs/MultiArrayDimension.h ****       int offset = 0;
 385              		.loc 3 51 0
 386 000a 0023     		mov	r3, #0
 387 000c 3B61     		str	r3, [r7, #16]
  52:./ros_lib/std_msgs/MultiArrayDimension.h **** #ifndef ROS_MSG_DONT_DESERIALIZE
  53:./ros_lib/std_msgs/MultiArrayDimension.h ****       uint32_t length_label;
  54:./ros_lib/std_msgs/MultiArrayDimension.h ****       memcpy(&length_label, (inbuffer + offset), sizeof(uint32_t));
 388              		.loc 3 54 0
 389 000e 3B69     		ldr	r3, [r7, #16]
 390 0010 3A68     		ldr	r2, [r7]
 391 0012 D318     		add	r3, r2, r3
 392 0014 0C22     		mov	r2, #12
 393 0016 BA18     		add	r2, r7, r2
 394 0018 101C     		mov	r0, r2
 395 001a 191C     		mov	r1, r3
 396 001c 0422     		mov	r2, #4
 397 001e FFF7FEFF 		bl	memcpy
  55:./ros_lib/std_msgs/MultiArrayDimension.h ****       offset += 4;
 398              		.loc 3 55 0
 399 0022 3B69     		ldr	r3, [r7, #16]
 400 0024 0433     		add	r3, r3, #4
 401 0026 3B61     		str	r3, [r7, #16]
 402              	.LBB7:
  56:./ros_lib/std_msgs/MultiArrayDimension.h ****       for(unsigned int k= offset; k< offset+length_label; ++k){
 403              		.loc 3 56 0
 404 0028 3B69     		ldr	r3, [r7, #16]
 405 002a 7B61     		str	r3, [r7, #20]
 406 002c 0BE0     		b	.L19
 407              	.L20:
  57:./ros_lib/std_msgs/MultiArrayDimension.h ****           inbuffer[k-1]=inbuffer[k];
 408              		.loc 3 57 0 discriminator 3
 409 002e 7B69     		ldr	r3, [r7, #20]
 410 0030 013B     		sub	r3, r3, #1
 411 0032 3A68     		ldr	r2, [r7]
 412 0034 D318     		add	r3, r2, r3
 413 0036 3968     		ldr	r1, [r7]
 414 0038 7A69     		ldr	r2, [r7, #20]
 415 003a 8A18     		add	r2, r1, r2
 416 003c 1278     		ldrb	r2, [r2]
 417 003e 1A70     		strb	r2, [r3]
  56:./ros_lib/std_msgs/MultiArrayDimension.h ****       for(unsigned int k= offset; k< offset+length_label; ++k){
ARM GAS  C:\Users\Chuck\AppData\Local\Temp\ccNCRqO6.s 			page 11


 418              		.loc 3 56 0 discriminator 3
 419 0040 7B69     		ldr	r3, [r7, #20]
 420 0042 0133     		add	r3, r3, #1
 421 0044 7B61     		str	r3, [r7, #20]
 422              	.L19:
  56:./ros_lib/std_msgs/MultiArrayDimension.h ****       for(unsigned int k= offset; k< offset+length_label; ++k){
 423              		.loc 3 56 0 is_stmt 0 discriminator 1
 424 0046 3A69     		ldr	r2, [r7, #16]
 425 0048 FB68     		ldr	r3, [r7, #12]
 426 004a D218     		add	r2, r2, r3
 427 004c 7B69     		ldr	r3, [r7, #20]
 428 004e 9A42     		cmp	r2, r3
 429 0050 EDD8     		bhi	.L20
 430              	.LBE7:
  58:./ros_lib/std_msgs/MultiArrayDimension.h ****       }
  59:./ros_lib/std_msgs/MultiArrayDimension.h ****       inbuffer[offset+length_label-1]=0;
 431              		.loc 3 59 0 is_stmt 1
 432 0052 3A69     		ldr	r2, [r7, #16]
 433 0054 FB68     		ldr	r3, [r7, #12]
 434 0056 D318     		add	r3, r2, r3
 435 0058 013B     		sub	r3, r3, #1
 436 005a 3A68     		ldr	r2, [r7]
 437 005c D318     		add	r3, r2, r3
 438 005e 0022     		mov	r2, #0
 439 0060 1A70     		strb	r2, [r3]
  60:./ros_lib/std_msgs/MultiArrayDimension.h ****       this->label = (char *)(inbuffer + offset-1);
 440              		.loc 3 60 0
 441 0062 3B69     		ldr	r3, [r7, #16]
 442 0064 013B     		sub	r3, r3, #1
 443 0066 3A68     		ldr	r2, [r7]
 444 0068 D218     		add	r2, r2, r3
 445 006a 7B68     		ldr	r3, [r7, #4]
 446 006c 5A60     		str	r2, [r3, #4]
  61:./ros_lib/std_msgs/MultiArrayDimension.h ****       offset += length_label;
 447              		.loc 3 61 0
 448 006e 3A69     		ldr	r2, [r7, #16]
 449 0070 FB68     		ldr	r3, [r7, #12]
 450 0072 D318     		add	r3, r2, r3
 451 0074 3B61     		str	r3, [r7, #16]
  62:./ros_lib/std_msgs/MultiArrayDimension.h ****       this->size =  ((uint32_t) (*(inbuffer + offset)));
 452              		.loc 3 62 0
 453 0076 3B69     		ldr	r3, [r7, #16]
 454 0078 3A68     		ldr	r2, [r7]
 455 007a D318     		add	r3, r2, r3
 456 007c 1B78     		ldrb	r3, [r3]
 457 007e 1A1C     		mov	r2, r3
 458 0080 7B68     		ldr	r3, [r7, #4]
 459 0082 9A60     		str	r2, [r3, #8]
  63:./ros_lib/std_msgs/MultiArrayDimension.h ****       this->size |= ((uint32_t) (*(inbuffer + offset + 1))) << (8 * 1);
 460              		.loc 3 63 0
 461 0084 7B68     		ldr	r3, [r7, #4]
 462 0086 9A68     		ldr	r2, [r3, #8]
 463 0088 3B69     		ldr	r3, [r7, #16]
 464 008a 0133     		add	r3, r3, #1
 465 008c 3968     		ldr	r1, [r7]
 466 008e CB18     		add	r3, r1, r3
 467 0090 1B78     		ldrb	r3, [r3]
ARM GAS  C:\Users\Chuck\AppData\Local\Temp\ccNCRqO6.s 			page 12


 468 0092 1B02     		lsl	r3, r3, #8
 469 0094 1A43     		orr	r2, r3
 470 0096 7B68     		ldr	r3, [r7, #4]
 471 0098 9A60     		str	r2, [r3, #8]
  64:./ros_lib/std_msgs/MultiArrayDimension.h ****       this->size |= ((uint32_t) (*(inbuffer + offset + 2))) << (8 * 2);
 472              		.loc 3 64 0
 473 009a 7B68     		ldr	r3, [r7, #4]
 474 009c 9A68     		ldr	r2, [r3, #8]
 475 009e 3B69     		ldr	r3, [r7, #16]
 476 00a0 0233     		add	r3, r3, #2
 477 00a2 3968     		ldr	r1, [r7]
 478 00a4 CB18     		add	r3, r1, r3
 479 00a6 1B78     		ldrb	r3, [r3]
 480 00a8 1B04     		lsl	r3, r3, #16
 481 00aa 1A43     		orr	r2, r3
 482 00ac 7B68     		ldr	r3, [r7, #4]
 483 00ae 9A60     		str	r2, [r3, #8]
  65:./ros_lib/std_msgs/MultiArrayDimension.h ****       this->size |= ((uint32_t) (*(inbuffer + offset + 3))) << (8 * 3);
 484              		.loc 3 65 0
 485 00b0 7B68     		ldr	r3, [r7, #4]
 486 00b2 9A68     		ldr	r2, [r3, #8]
 487 00b4 3B69     		ldr	r3, [r7, #16]
 488 00b6 0333     		add	r3, r3, #3
 489 00b8 3968     		ldr	r1, [r7]
 490 00ba CB18     		add	r3, r1, r3
 491 00bc 1B78     		ldrb	r3, [r3]
 492 00be 1B06     		lsl	r3, r3, #24
 493 00c0 1A43     		orr	r2, r3
 494 00c2 7B68     		ldr	r3, [r7, #4]
 495 00c4 9A60     		str	r2, [r3, #8]
  66:./ros_lib/std_msgs/MultiArrayDimension.h ****       offset += sizeof(this->size);
 496              		.loc 3 66 0
 497 00c6 3B69     		ldr	r3, [r7, #16]
 498 00c8 0433     		add	r3, r3, #4
 499 00ca 3B61     		str	r3, [r7, #16]
  67:./ros_lib/std_msgs/MultiArrayDimension.h ****       this->stride =  ((uint32_t) (*(inbuffer + offset)));
 500              		.loc 3 67 0
 501 00cc 3B69     		ldr	r3, [r7, #16]
 502 00ce 3A68     		ldr	r2, [r7]
 503 00d0 D318     		add	r3, r2, r3
 504 00d2 1B78     		ldrb	r3, [r3]
 505 00d4 1A1C     		mov	r2, r3
 506 00d6 7B68     		ldr	r3, [r7, #4]
 507 00d8 DA60     		str	r2, [r3, #12]
  68:./ros_lib/std_msgs/MultiArrayDimension.h ****       this->stride |= ((uint32_t) (*(inbuffer + offset + 1))) << (8 * 1);
 508              		.loc 3 68 0
 509 00da 7B68     		ldr	r3, [r7, #4]
 510 00dc DA68     		ldr	r2, [r3, #12]
 511 00de 3B69     		ldr	r3, [r7, #16]
 512 00e0 0133     		add	r3, r3, #1
 513 00e2 3968     		ldr	r1, [r7]
 514 00e4 CB18     		add	r3, r1, r3
 515 00e6 1B78     		ldrb	r3, [r3]
 516 00e8 1B02     		lsl	r3, r3, #8
 517 00ea 1A43     		orr	r2, r3
 518 00ec 7B68     		ldr	r3, [r7, #4]
 519 00ee DA60     		str	r2, [r3, #12]
ARM GAS  C:\Users\Chuck\AppData\Local\Temp\ccNCRqO6.s 			page 13


  69:./ros_lib/std_msgs/MultiArrayDimension.h ****       this->stride |= ((uint32_t) (*(inbuffer + offset + 2))) << (8 * 2);
 520              		.loc 3 69 0
 521 00f0 7B68     		ldr	r3, [r7, #4]
 522 00f2 DA68     		ldr	r2, [r3, #12]
 523 00f4 3B69     		ldr	r3, [r7, #16]
 524 00f6 0233     		add	r3, r3, #2
 525 00f8 3968     		ldr	r1, [r7]
 526 00fa CB18     		add	r3, r1, r3
 527 00fc 1B78     		ldrb	r3, [r3]
 528 00fe 1B04     		lsl	r3, r3, #16
 529 0100 1A43     		orr	r2, r3
 530 0102 7B68     		ldr	r3, [r7, #4]
 531 0104 DA60     		str	r2, [r3, #12]
  70:./ros_lib/std_msgs/MultiArrayDimension.h ****       this->stride |= ((uint32_t) (*(inbuffer + offset + 3))) << (8 * 3);
 532              		.loc 3 70 0
 533 0106 7B68     		ldr	r3, [r7, #4]
 534 0108 DA68     		ldr	r2, [r3, #12]
 535 010a 3B69     		ldr	r3, [r7, #16]
 536 010c 0333     		add	r3, r3, #3
 537 010e 3968     		ldr	r1, [r7]
 538 0110 CB18     		add	r3, r1, r3
 539 0112 1B78     		ldrb	r3, [r3]
 540 0114 1B06     		lsl	r3, r3, #24
 541 0116 1A43     		orr	r2, r3
 542 0118 7B68     		ldr	r3, [r7, #4]
 543 011a DA60     		str	r2, [r3, #12]
  71:./ros_lib/std_msgs/MultiArrayDimension.h ****       offset += sizeof(this->stride);
 544              		.loc 3 71 0
 545 011c 3B69     		ldr	r3, [r7, #16]
 546 011e 0433     		add	r3, r3, #4
 547 0120 3B61     		str	r3, [r7, #16]
  72:./ros_lib/std_msgs/MultiArrayDimension.h **** #endif
  73:./ros_lib/std_msgs/MultiArrayDimension.h ****      return offset;
 548              		.loc 3 73 0
 549 0122 3B69     		ldr	r3, [r7, #16]
 550              	.LBE6:
  74:./ros_lib/std_msgs/MultiArrayDimension.h ****     }
 551              		.loc 3 74 0
 552 0124 181C     		mov	r0, r3
 553 0126 BD46     		mov	sp, r7
 554 0128 06B0     		add	sp, sp, #24
 555              		@ sp needed
 556 012a 80BD     		pop	{r7, pc}
 557              		.cfi_endproc
 558              	.LFE162:
 559              		.size	_ZN8std_msgs19MultiArrayDimension11deserializeEPh, .-_ZN8std_msgs19MultiArrayDimension11dese
 560              		.section	.rodata
 561 0001 000000   		.align	2
 562              	.LC4:
 563 0004 7374645F 		.ascii	"std_msgs/MultiArrayDimension\000"
 563      6D736773 
 563      2F4D756C 
 563      74694172 
 563      72617944 
 564              		.section	.text._ZN8std_msgs19MultiArrayDimension7getTypeEv,"axG",%progbits,_ZN8std_msgs19MultiArra
 565              		.align	2
 566              		.weak	_ZN8std_msgs19MultiArrayDimension7getTypeEv
ARM GAS  C:\Users\Chuck\AppData\Local\Temp\ccNCRqO6.s 			page 14


 567              		.code	16
 568              		.thumb_func
 569              		.type	_ZN8std_msgs19MultiArrayDimension7getTypeEv, %function
 570              	_ZN8std_msgs19MultiArrayDimension7getTypeEv:
 571              	.LFB163:
  75:./ros_lib/std_msgs/MultiArrayDimension.h **** 
  76:./ros_lib/std_msgs/MultiArrayDimension.h ****     const char * getType(){ return "std_msgs/MultiArrayDimension"; };
 572              		.loc 3 76 0
 573              		.cfi_startproc
 574 0000 80B5     		push	{r7, lr}
 575              		.cfi_def_cfa_offset 8
 576              		.cfi_offset 7, -8
 577              		.cfi_offset 14, -4
 578 0002 82B0     		sub	sp, sp, #8
 579              		.cfi_def_cfa_offset 16
 580 0004 00AF     		add	r7, sp, #0
 581              		.cfi_def_cfa_register 7
 582 0006 7860     		str	r0, [r7, #4]
 583              		.loc 3 76 0
 584 0008 024B     		ldr	r3, .L24
 585 000a 181C     		mov	r0, r3
 586 000c BD46     		mov	sp, r7
 587 000e 02B0     		add	sp, sp, #8
 588              		@ sp needed
 589 0010 80BD     		pop	{r7, pc}
 590              	.L25:
 591 0012 C046     		.align	2
 592              	.L24:
 593 0014 04000000 		.word	.LC4
 594              		.cfi_endproc
 595              	.LFE163:
 596              		.size	_ZN8std_msgs19MultiArrayDimension7getTypeEv, .-_ZN8std_msgs19MultiArrayDimension7getTypeEv
 597              		.section	.rodata
 598 0021 000000   		.align	2
 599              	.LC6:
 600 0024 34636430 		.ascii	"4cd0c83a8683deae40ecdac60e53bfa8\000"
 600      63383361 
 600      38363833 
 600      64656165 
 600      34306563 
 601              		.section	.text._ZN8std_msgs19MultiArrayDimension6getMD5Ev,"axG",%progbits,_ZN8std_msgs19MultiArray
 602              		.align	2
 603              		.weak	_ZN8std_msgs19MultiArrayDimension6getMD5Ev
 604              		.code	16
 605              		.thumb_func
 606              		.type	_ZN8std_msgs19MultiArrayDimension6getMD5Ev, %function
 607              	_ZN8std_msgs19MultiArrayDimension6getMD5Ev:
 608              	.LFB164:
  77:./ros_lib/std_msgs/MultiArrayDimension.h ****     const char * getMD5(){ return "4cd0c83a8683deae40ecdac60e53bfa8"; };
 609              		.loc 3 77 0
 610              		.cfi_startproc
 611 0000 80B5     		push	{r7, lr}
 612              		.cfi_def_cfa_offset 8
 613              		.cfi_offset 7, -8
 614              		.cfi_offset 14, -4
 615 0002 82B0     		sub	sp, sp, #8
 616              		.cfi_def_cfa_offset 16
ARM GAS  C:\Users\Chuck\AppData\Local\Temp\ccNCRqO6.s 			page 15


 617 0004 00AF     		add	r7, sp, #0
 618              		.cfi_def_cfa_register 7
 619 0006 7860     		str	r0, [r7, #4]
 620              		.loc 3 77 0
 621 0008 024B     		ldr	r3, .L28
 622 000a 181C     		mov	r0, r3
 623 000c BD46     		mov	sp, r7
 624 000e 02B0     		add	sp, sp, #8
 625              		@ sp needed
 626 0010 80BD     		pop	{r7, pc}
 627              	.L29:
 628 0012 C046     		.align	2
 629              	.L28:
 630 0014 24000000 		.word	.LC6
 631              		.cfi_endproc
 632              	.LFE164:
 633              		.size	_ZN8std_msgs19MultiArrayDimension6getMD5Ev, .-_ZN8std_msgs19MultiArrayDimension6getMD5Ev
 634              		.section	.text._ZN8std_msgs16MultiArrayLayoutC2Ev,"axG",%progbits,_ZN8std_msgs16MultiArrayLayoutC5
 635              		.align	2
 636              		.weak	_ZN8std_msgs16MultiArrayLayoutC2Ev
 637              		.code	16
 638              		.thumb_func
 639              		.type	_ZN8std_msgs16MultiArrayLayoutC2Ev, %function
 640              	_ZN8std_msgs16MultiArrayLayoutC2Ev:
 641              	.LFB166:
 642              		.file 4 "./ros_lib/std_msgs/MultiArrayLayout.h"
   1:./ros_lib/std_msgs/MultiArrayLayout.h **** #ifndef _ROS_std_msgs_MultiArrayLayout_h
   2:./ros_lib/std_msgs/MultiArrayLayout.h **** #define _ROS_std_msgs_MultiArrayLayout_h
   3:./ros_lib/std_msgs/MultiArrayLayout.h **** 
   4:./ros_lib/std_msgs/MultiArrayLayout.h **** #include <stdint.h>
   5:./ros_lib/std_msgs/MultiArrayLayout.h **** #include <string.h>
   6:./ros_lib/std_msgs/MultiArrayLayout.h **** #include <stdlib.h>
   7:./ros_lib/std_msgs/MultiArrayLayout.h **** #include "ros/msg.h"
   8:./ros_lib/std_msgs/MultiArrayLayout.h **** #include "std_msgs/MultiArrayDimension.h"
   9:./ros_lib/std_msgs/MultiArrayLayout.h **** 
  10:./ros_lib/std_msgs/MultiArrayLayout.h **** namespace std_msgs
  11:./ros_lib/std_msgs/MultiArrayLayout.h **** {
  12:./ros_lib/std_msgs/MultiArrayLayout.h **** 
  13:./ros_lib/std_msgs/MultiArrayLayout.h ****   class MultiArrayLayout : public ros::Msg
  14:./ros_lib/std_msgs/MultiArrayLayout.h ****   {
  15:./ros_lib/std_msgs/MultiArrayLayout.h ****     public:
  16:./ros_lib/std_msgs/MultiArrayLayout.h ****       uint8_t dim_length;
  17:./ros_lib/std_msgs/MultiArrayLayout.h ****       std_msgs::MultiArrayDimension st_dim;
  18:./ros_lib/std_msgs/MultiArrayLayout.h ****       std_msgs::MultiArrayDimension * dim;
  19:./ros_lib/std_msgs/MultiArrayLayout.h ****       uint32_t data_offset;
  20:./ros_lib/std_msgs/MultiArrayLayout.h **** 
  21:./ros_lib/std_msgs/MultiArrayLayout.h ****     MultiArrayLayout():
 643              		.loc 4 21 0
 644              		.cfi_startproc
 645 0000 80B5     		push	{r7, lr}
 646              		.cfi_def_cfa_offset 8
 647              		.cfi_offset 7, -8
 648              		.cfi_offset 14, -4
 649 0002 82B0     		sub	sp, sp, #8
 650              		.cfi_def_cfa_offset 16
 651 0004 00AF     		add	r7, sp, #0
 652              		.cfi_def_cfa_register 7
ARM GAS  C:\Users\Chuck\AppData\Local\Temp\ccNCRqO6.s 			page 16


 653 0006 7860     		str	r0, [r7, #4]
 654              	.LBB8:
  22:./ros_lib/std_msgs/MultiArrayLayout.h ****       dim_length(0), dim(NULL),
  23:./ros_lib/std_msgs/MultiArrayLayout.h ****       data_offset(0)
 655              		.loc 4 23 0
 656 0008 7B68     		ldr	r3, [r7, #4]
 657 000a 181C     		mov	r0, r3
 658 000c FFF7FEFF 		bl	_ZN3ros3MsgC2Ev
 659 0010 7B68     		ldr	r3, [r7, #4]
 660 0012 0A4A     		ldr	r2, .L33
 661 0014 1A60     		str	r2, [r3]
 662 0016 7B68     		ldr	r3, [r7, #4]
 663 0018 0022     		mov	r2, #0
 664 001a 1A71     		strb	r2, [r3, #4]
 665 001c 7B68     		ldr	r3, [r7, #4]
 666 001e 0833     		add	r3, r3, #8
 667 0020 181C     		mov	r0, r3
 668 0022 FFF7FEFF 		bl	_ZN8std_msgs19MultiArrayDimensionC1Ev
 669 0026 7B68     		ldr	r3, [r7, #4]
 670 0028 0022     		mov	r2, #0
 671 002a 9A61     		str	r2, [r3, #24]
 672 002c 7B68     		ldr	r3, [r7, #4]
 673 002e 0022     		mov	r2, #0
 674 0030 DA61     		str	r2, [r3, #28]
 675              	.LBE8:
  24:./ros_lib/std_msgs/MultiArrayLayout.h ****     {
  25:./ros_lib/std_msgs/MultiArrayLayout.h ****     }
 676              		.loc 4 25 0
 677 0032 7B68     		ldr	r3, [r7, #4]
 678 0034 181C     		mov	r0, r3
 679 0036 BD46     		mov	sp, r7
 680 0038 02B0     		add	sp, sp, #8
 681              		@ sp needed
 682 003a 80BD     		pop	{r7, pc}
 683              	.L34:
 684              		.align	2
 685              	.L33:
 686 003c 08000000 		.word	_ZTVN8std_msgs16MultiArrayLayoutE+8
 687              		.cfi_endproc
 688              	.LFE166:
 689              		.size	_ZN8std_msgs16MultiArrayLayoutC2Ev, .-_ZN8std_msgs16MultiArrayLayoutC2Ev
 690              		.weak	_ZN8std_msgs16MultiArrayLayoutC1Ev
 691              		.thumb_set _ZN8std_msgs16MultiArrayLayoutC1Ev,_ZN8std_msgs16MultiArrayLayoutC2Ev
 692              		.section	.text._ZNK8std_msgs16MultiArrayLayout9serializeEPh,"axG",%progbits,_ZNK8std_msgs16MultiAr
 693              		.align	2
 694              		.weak	_ZNK8std_msgs16MultiArrayLayout9serializeEPh
 695              		.code	16
 696              		.thumb_func
 697              		.type	_ZNK8std_msgs16MultiArrayLayout9serializeEPh, %function
 698              	_ZNK8std_msgs16MultiArrayLayout9serializeEPh:
 699              	.LFB168:
  26:./ros_lib/std_msgs/MultiArrayLayout.h **** 
  27:./ros_lib/std_msgs/MultiArrayLayout.h ****     virtual int serialize(unsigned char *outbuffer) const
 700              		.loc 4 27 0
 701              		.cfi_startproc
 702 0000 80B5     		push	{r7, lr}
 703              		.cfi_def_cfa_offset 8
ARM GAS  C:\Users\Chuck\AppData\Local\Temp\ccNCRqO6.s 			page 17


 704              		.cfi_offset 7, -8
 705              		.cfi_offset 14, -4
 706 0002 84B0     		sub	sp, sp, #16
 707              		.cfi_def_cfa_offset 24
 708 0004 00AF     		add	r7, sp, #0
 709              		.cfi_def_cfa_register 7
 710 0006 7860     		str	r0, [r7, #4]
 711 0008 3960     		str	r1, [r7]
 712              	.LBB9:
  28:./ros_lib/std_msgs/MultiArrayLayout.h ****     {
  29:./ros_lib/std_msgs/MultiArrayLayout.h ****       int offset = 0;
 713              		.loc 4 29 0
 714 000a 0023     		mov	r3, #0
 715 000c FB60     		str	r3, [r7, #12]
  30:./ros_lib/std_msgs/MultiArrayLayout.h **** #ifndef ROS_MSG_DONT_SERIALIZE
  31:./ros_lib/std_msgs/MultiArrayLayout.h ****       *(outbuffer + offset++) = dim_length;
 716              		.loc 4 31 0
 717 000e FB68     		ldr	r3, [r7, #12]
 718 0010 5A1C     		add	r2, r3, #1
 719 0012 FA60     		str	r2, [r7, #12]
 720 0014 1A1C     		mov	r2, r3
 721 0016 3B68     		ldr	r3, [r7]
 722 0018 9B18     		add	r3, r3, r2
 723 001a 7A68     		ldr	r2, [r7, #4]
 724 001c 1279     		ldrb	r2, [r2, #4]
 725 001e 1A70     		strb	r2, [r3]
  32:./ros_lib/std_msgs/MultiArrayLayout.h ****       *(outbuffer + offset++) = 0;
 726              		.loc 4 32 0
 727 0020 FB68     		ldr	r3, [r7, #12]
 728 0022 5A1C     		add	r2, r3, #1
 729 0024 FA60     		str	r2, [r7, #12]
 730 0026 1A1C     		mov	r2, r3
 731 0028 3B68     		ldr	r3, [r7]
 732 002a 9B18     		add	r3, r3, r2
 733 002c 0022     		mov	r2, #0
 734 002e 1A70     		strb	r2, [r3]
  33:./ros_lib/std_msgs/MultiArrayLayout.h ****       *(outbuffer + offset++) = 0;
 735              		.loc 4 33 0
 736 0030 FB68     		ldr	r3, [r7, #12]
 737 0032 5A1C     		add	r2, r3, #1
 738 0034 FA60     		str	r2, [r7, #12]
 739 0036 1A1C     		mov	r2, r3
 740 0038 3B68     		ldr	r3, [r7]
 741 003a 9B18     		add	r3, r3, r2
 742 003c 0022     		mov	r2, #0
 743 003e 1A70     		strb	r2, [r3]
  34:./ros_lib/std_msgs/MultiArrayLayout.h ****       *(outbuffer + offset++) = 0;
 744              		.loc 4 34 0
 745 0040 FB68     		ldr	r3, [r7, #12]
 746 0042 5A1C     		add	r2, r3, #1
 747 0044 FA60     		str	r2, [r7, #12]
 748 0046 1A1C     		mov	r2, r3
 749 0048 3B68     		ldr	r3, [r7]
 750 004a 9B18     		add	r3, r3, r2
 751 004c 0022     		mov	r2, #0
 752 004e 1A70     		strb	r2, [r3]
 753              	.LBB10:
ARM GAS  C:\Users\Chuck\AppData\Local\Temp\ccNCRqO6.s 			page 18


  35:./ros_lib/std_msgs/MultiArrayLayout.h ****       for( uint8_t i = 0; i < dim_length; i++){
 754              		.loc 4 35 0
 755 0050 0B23     		mov	r3, #11
 756 0052 FB18     		add	r3, r7, r3
 757 0054 0022     		mov	r2, #0
 758 0056 1A70     		strb	r2, [r3]
 759 0058 1FE0     		b	.L36
 760              	.L37:
  36:./ros_lib/std_msgs/MultiArrayLayout.h ****       offset += this->dim[i].serialize(outbuffer + offset);
 761              		.loc 4 36 0 discriminator 3
 762 005a 7B68     		ldr	r3, [r7, #4]
 763 005c 9A69     		ldr	r2, [r3, #24]
 764 005e 0B23     		mov	r3, #11
 765 0060 FB18     		add	r3, r7, r3
 766 0062 1B78     		ldrb	r3, [r3]
 767 0064 1B01     		lsl	r3, r3, #4
 768 0066 D318     		add	r3, r2, r3
 769 0068 1B68     		ldr	r3, [r3]
 770 006a 1A68     		ldr	r2, [r3]
 771 006c 7B68     		ldr	r3, [r7, #4]
 772 006e 9969     		ldr	r1, [r3, #24]
 773 0070 0B23     		mov	r3, #11
 774 0072 FB18     		add	r3, r7, r3
 775 0074 1B78     		ldrb	r3, [r3]
 776 0076 1B01     		lsl	r3, r3, #4
 777 0078 C818     		add	r0, r1, r3
 778 007a FB68     		ldr	r3, [r7, #12]
 779 007c 3968     		ldr	r1, [r7]
 780 007e CB18     		add	r3, r1, r3
 781 0080 191C     		mov	r1, r3
 782 0082 9047     		blx	r2
 783 0084 021C     		mov	r2, r0
 784 0086 FB68     		ldr	r3, [r7, #12]
 785 0088 9B18     		add	r3, r3, r2
 786 008a FB60     		str	r3, [r7, #12]
  35:./ros_lib/std_msgs/MultiArrayLayout.h ****       for( uint8_t i = 0; i < dim_length; i++){
 787              		.loc 4 35 0 discriminator 3
 788 008c 0B23     		mov	r3, #11
 789 008e FB18     		add	r3, r7, r3
 790 0090 1A78     		ldrb	r2, [r3]
 791 0092 0B23     		mov	r3, #11
 792 0094 FB18     		add	r3, r7, r3
 793 0096 0132     		add	r2, r2, #1
 794 0098 1A70     		strb	r2, [r3]
 795              	.L36:
  35:./ros_lib/std_msgs/MultiArrayLayout.h ****       for( uint8_t i = 0; i < dim_length; i++){
 796              		.loc 4 35 0 is_stmt 0 discriminator 1
 797 009a 7B68     		ldr	r3, [r7, #4]
 798 009c 1B79     		ldrb	r3, [r3, #4]
 799 009e 0B22     		mov	r2, #11
 800 00a0 BA18     		add	r2, r7, r2
 801 00a2 1278     		ldrb	r2, [r2]
 802 00a4 9A42     		cmp	r2, r3
 803 00a6 D8D3     		bcc	.L37
 804              	.LBE10:
  37:./ros_lib/std_msgs/MultiArrayLayout.h ****       }
  38:./ros_lib/std_msgs/MultiArrayLayout.h ****       *(outbuffer + offset + 0) = (this->data_offset >> (8 * 0)) & 0xFF;
ARM GAS  C:\Users\Chuck\AppData\Local\Temp\ccNCRqO6.s 			page 19


 805              		.loc 4 38 0 is_stmt 1
 806 00a8 FB68     		ldr	r3, [r7, #12]
 807 00aa 3A68     		ldr	r2, [r7]
 808 00ac D218     		add	r2, r2, r3
 809 00ae 7B68     		ldr	r3, [r7, #4]
 810 00b0 DB69     		ldr	r3, [r3, #28]
 811 00b2 DBB2     		uxtb	r3, r3
 812 00b4 1370     		strb	r3, [r2]
  39:./ros_lib/std_msgs/MultiArrayLayout.h ****       *(outbuffer + offset + 1) = (this->data_offset >> (8 * 1)) & 0xFF;
 813              		.loc 4 39 0
 814 00b6 FB68     		ldr	r3, [r7, #12]
 815 00b8 0133     		add	r3, r3, #1
 816 00ba 3A68     		ldr	r2, [r7]
 817 00bc D218     		add	r2, r2, r3
 818 00be 7B68     		ldr	r3, [r7, #4]
 819 00c0 DB69     		ldr	r3, [r3, #28]
 820 00c2 1B0A     		lsr	r3, r3, #8
 821 00c4 DBB2     		uxtb	r3, r3
 822 00c6 1370     		strb	r3, [r2]
  40:./ros_lib/std_msgs/MultiArrayLayout.h ****       *(outbuffer + offset + 2) = (this->data_offset >> (8 * 2)) & 0xFF;
 823              		.loc 4 40 0
 824 00c8 FB68     		ldr	r3, [r7, #12]
 825 00ca 0233     		add	r3, r3, #2
 826 00cc 3A68     		ldr	r2, [r7]
 827 00ce D218     		add	r2, r2, r3
 828 00d0 7B68     		ldr	r3, [r7, #4]
 829 00d2 DB69     		ldr	r3, [r3, #28]
 830 00d4 1B0C     		lsr	r3, r3, #16
 831 00d6 DBB2     		uxtb	r3, r3
 832 00d8 1370     		strb	r3, [r2]
  41:./ros_lib/std_msgs/MultiArrayLayout.h ****       *(outbuffer + offset + 3) = (this->data_offset >> (8 * 3)) & 0xFF;
 833              		.loc 4 41 0
 834 00da FB68     		ldr	r3, [r7, #12]
 835 00dc 0333     		add	r3, r3, #3
 836 00de 3A68     		ldr	r2, [r7]
 837 00e0 D218     		add	r2, r2, r3
 838 00e2 7B68     		ldr	r3, [r7, #4]
 839 00e4 DB69     		ldr	r3, [r3, #28]
 840 00e6 1B0E     		lsr	r3, r3, #24
 841 00e8 DBB2     		uxtb	r3, r3
 842 00ea 1370     		strb	r3, [r2]
  42:./ros_lib/std_msgs/MultiArrayLayout.h ****       offset += sizeof(this->data_offset);
 843              		.loc 4 42 0
 844 00ec FB68     		ldr	r3, [r7, #12]
 845 00ee 0433     		add	r3, r3, #4
 846 00f0 FB60     		str	r3, [r7, #12]
  43:./ros_lib/std_msgs/MultiArrayLayout.h **** #endif
  44:./ros_lib/std_msgs/MultiArrayLayout.h ****       return offset;
 847              		.loc 4 44 0
 848 00f2 FB68     		ldr	r3, [r7, #12]
 849              	.LBE9:
  45:./ros_lib/std_msgs/MultiArrayLayout.h ****     }
 850              		.loc 4 45 0
 851 00f4 181C     		mov	r0, r3
 852 00f6 BD46     		mov	sp, r7
 853 00f8 04B0     		add	sp, sp, #16
 854              		@ sp needed
ARM GAS  C:\Users\Chuck\AppData\Local\Temp\ccNCRqO6.s 			page 20


 855 00fa 80BD     		pop	{r7, pc}
 856              		.cfi_endproc
 857              	.LFE168:
 858              		.size	_ZNK8std_msgs16MultiArrayLayout9serializeEPh, .-_ZNK8std_msgs16MultiArrayLayout9serializeEPh
 859              		.section	.text._ZN8std_msgs16MultiArrayLayout11deserializeEPh,"axG",%progbits,_ZN8std_msgs16MultiA
 860              		.align	2
 861              		.weak	_ZN8std_msgs16MultiArrayLayout11deserializeEPh
 862              		.code	16
 863              		.thumb_func
 864              		.type	_ZN8std_msgs16MultiArrayLayout11deserializeEPh, %function
 865              	_ZN8std_msgs16MultiArrayLayout11deserializeEPh:
 866              	.LFB169:
  46:./ros_lib/std_msgs/MultiArrayLayout.h **** 
  47:./ros_lib/std_msgs/MultiArrayLayout.h ****     virtual int deserialize(unsigned char *inbuffer)
 867              		.loc 4 47 0
 868              		.cfi_startproc
 869 0000 80B5     		push	{r7, lr}
 870              		.cfi_def_cfa_offset 8
 871              		.cfi_offset 7, -8
 872              		.cfi_offset 14, -4
 873 0002 84B0     		sub	sp, sp, #16
 874              		.cfi_def_cfa_offset 24
 875 0004 00AF     		add	r7, sp, #0
 876              		.cfi_def_cfa_register 7
 877 0006 7860     		str	r0, [r7, #4]
 878 0008 3960     		str	r1, [r7]
 879              	.LBB11:
  48:./ros_lib/std_msgs/MultiArrayLayout.h ****     {
  49:./ros_lib/std_msgs/MultiArrayLayout.h ****       int offset = 0;
 880              		.loc 4 49 0
 881 000a 0023     		mov	r3, #0
 882 000c FB60     		str	r3, [r7, #12]
  50:./ros_lib/std_msgs/MultiArrayLayout.h **** #ifndef ROS_MSG_DONT_DESERIALIZE
  51:./ros_lib/std_msgs/MultiArrayLayout.h ****       uint8_t dim_lengthT = *(inbuffer + offset++);
 883              		.loc 4 51 0
 884 000e FB68     		ldr	r3, [r7, #12]
 885 0010 5A1C     		add	r2, r3, #1
 886 0012 FA60     		str	r2, [r7, #12]
 887 0014 1A1C     		mov	r2, r3
 888 0016 3B68     		ldr	r3, [r7]
 889 0018 9A18     		add	r2, r3, r2
 890 001a 0A23     		mov	r3, #10
 891 001c FB18     		add	r3, r7, r3
 892 001e 1278     		ldrb	r2, [r2]
 893 0020 1A70     		strb	r2, [r3]
  52:./ros_lib/std_msgs/MultiArrayLayout.h ****       if(dim_lengthT < dim_length)
 894              		.loc 4 52 0
 895 0022 7B68     		ldr	r3, [r7, #4]
 896 0024 1B79     		ldrb	r3, [r3, #4]
 897 0026 0A22     		mov	r2, #10
 898 0028 BA18     		add	r2, r7, r2
 899 002a 1278     		ldrb	r2, [r2]
 900 002c 9A42     		cmp	r2, r3
 901 002e 04D2     		bcs	.L40
  53:./ros_lib/std_msgs/MultiArrayLayout.h ****         dim_length = dim_lengthT;
 902              		.loc 4 53 0
 903 0030 7B68     		ldr	r3, [r7, #4]
ARM GAS  C:\Users\Chuck\AppData\Local\Temp\ccNCRqO6.s 			page 21


 904 0032 0A22     		mov	r2, #10
 905 0034 BA18     		add	r2, r7, r2
 906 0036 1278     		ldrb	r2, [r2]
 907 0038 1A71     		strb	r2, [r3, #4]
 908              	.L40:
  54:./ros_lib/std_msgs/MultiArrayLayout.h ****       offset += 3;
 909              		.loc 4 54 0
 910 003a FB68     		ldr	r3, [r7, #12]
 911 003c 0333     		add	r3, r3, #3
 912 003e FB60     		str	r3, [r7, #12]
 913              	.LBB12:
  55:./ros_lib/std_msgs/MultiArrayLayout.h ****       for( uint8_t i = 0; i < dim_lengthT; i++){
 914              		.loc 4 55 0
 915 0040 0B23     		mov	r3, #11
 916 0042 FB18     		add	r3, r7, r3
 917 0044 0022     		mov	r2, #0
 918 0046 1A70     		strb	r2, [r3]
 919 0048 29E0     		b	.L41
 920              	.L43:
  56:./ros_lib/std_msgs/MultiArrayLayout.h ****       offset += this->st_dim.deserialize(inbuffer + offset);
 921              		.loc 4 56 0
 922 004a 7B68     		ldr	r3, [r7, #4]
 923 004c 0833     		add	r3, r3, #8
 924 004e 191C     		mov	r1, r3
 925 0050 FB68     		ldr	r3, [r7, #12]
 926 0052 3A68     		ldr	r2, [r7]
 927 0054 D318     		add	r3, r2, r3
 928 0056 081C     		mov	r0, r1
 929 0058 191C     		mov	r1, r3
 930 005a FFF7FEFF 		bl	_ZN8std_msgs19MultiArrayDimension11deserializeEPh
 931 005e 021C     		mov	r2, r0
 932 0060 FB68     		ldr	r3, [r7, #12]
 933 0062 9B18     		add	r3, r3, r2
 934 0064 FB60     		str	r3, [r7, #12]
  57:./ros_lib/std_msgs/MultiArrayLayout.h ****       if (i < dim_length) {
 935              		.loc 4 57 0
 936 0066 7B68     		ldr	r3, [r7, #4]
 937 0068 1B79     		ldrb	r3, [r3, #4]
 938 006a 0B22     		mov	r2, #11
 939 006c BA18     		add	r2, r7, r2
 940 006e 1278     		ldrb	r2, [r2]
 941 0070 9A42     		cmp	r2, r3
 942 0072 0DD2     		bcs	.L42
  58:./ros_lib/std_msgs/MultiArrayLayout.h ****           memcpy( &(this->dim[i]), &(this->st_dim), sizeof(std_msgs::MultiArrayDimension));
 943              		.loc 4 58 0
 944 0074 7B68     		ldr	r3, [r7, #4]
 945 0076 9A69     		ldr	r2, [r3, #24]
 946 0078 0B23     		mov	r3, #11
 947 007a FB18     		add	r3, r7, r3
 948 007c 1B78     		ldrb	r3, [r3]
 949 007e 1B01     		lsl	r3, r3, #4
 950 0080 D218     		add	r2, r2, r3
 951 0082 7B68     		ldr	r3, [r7, #4]
 952 0084 0833     		add	r3, r3, #8
 953 0086 101C     		mov	r0, r2
 954 0088 191C     		mov	r1, r3
 955 008a 1022     		mov	r2, #16
ARM GAS  C:\Users\Chuck\AppData\Local\Temp\ccNCRqO6.s 			page 22


 956 008c FFF7FEFF 		bl	memcpy
 957              	.L42:
  55:./ros_lib/std_msgs/MultiArrayLayout.h ****       offset += this->st_dim.deserialize(inbuffer + offset);
 958              		.loc 4 55 0 discriminator 2
 959 0090 0B23     		mov	r3, #11
 960 0092 FB18     		add	r3, r7, r3
 961 0094 1A78     		ldrb	r2, [r3]
 962 0096 0B23     		mov	r3, #11
 963 0098 FB18     		add	r3, r7, r3
 964 009a 0132     		add	r2, r2, #1
 965 009c 1A70     		strb	r2, [r3]
 966              	.L41:
  55:./ros_lib/std_msgs/MultiArrayLayout.h ****       offset += this->st_dim.deserialize(inbuffer + offset);
 967              		.loc 4 55 0 is_stmt 0 discriminator 1
 968 009e 0B23     		mov	r3, #11
 969 00a0 FA18     		add	r2, r7, r3
 970 00a2 0A23     		mov	r3, #10
 971 00a4 FB18     		add	r3, r7, r3
 972 00a6 1278     		ldrb	r2, [r2]
 973 00a8 1B78     		ldrb	r3, [r3]
 974 00aa 9A42     		cmp	r2, r3
 975 00ac CDD3     		bcc	.L43
 976              	.LBE12:
  59:./ros_lib/std_msgs/MultiArrayLayout.h ****       }
  60:./ros_lib/std_msgs/MultiArrayLayout.h ****       }
  61:./ros_lib/std_msgs/MultiArrayLayout.h ****       this->data_offset =  ((uint32_t) (*(inbuffer + offset)));
 977              		.loc 4 61 0 is_stmt 1
 978 00ae FB68     		ldr	r3, [r7, #12]
 979 00b0 3A68     		ldr	r2, [r7]
 980 00b2 D318     		add	r3, r2, r3
 981 00b4 1B78     		ldrb	r3, [r3]
 982 00b6 1A1C     		mov	r2, r3
 983 00b8 7B68     		ldr	r3, [r7, #4]
 984 00ba DA61     		str	r2, [r3, #28]
  62:./ros_lib/std_msgs/MultiArrayLayout.h ****       this->data_offset |= ((uint32_t) (*(inbuffer + offset + 1))) << (8 * 1);
 985              		.loc 4 62 0
 986 00bc 7B68     		ldr	r3, [r7, #4]
 987 00be DA69     		ldr	r2, [r3, #28]
 988 00c0 FB68     		ldr	r3, [r7, #12]
 989 00c2 0133     		add	r3, r3, #1
 990 00c4 3968     		ldr	r1, [r7]
 991 00c6 CB18     		add	r3, r1, r3
 992 00c8 1B78     		ldrb	r3, [r3]
 993 00ca 1B02     		lsl	r3, r3, #8
 994 00cc 1A43     		orr	r2, r3
 995 00ce 7B68     		ldr	r3, [r7, #4]
 996 00d0 DA61     		str	r2, [r3, #28]
  63:./ros_lib/std_msgs/MultiArrayLayout.h ****       this->data_offset |= ((uint32_t) (*(inbuffer + offset + 2))) << (8 * 2);
 997              		.loc 4 63 0
 998 00d2 7B68     		ldr	r3, [r7, #4]
 999 00d4 DA69     		ldr	r2, [r3, #28]
 1000 00d6 FB68     		ldr	r3, [r7, #12]
 1001 00d8 0233     		add	r3, r3, #2
 1002 00da 3968     		ldr	r1, [r7]
 1003 00dc CB18     		add	r3, r1, r3
 1004 00de 1B78     		ldrb	r3, [r3]
 1005 00e0 1B04     		lsl	r3, r3, #16
ARM GAS  C:\Users\Chuck\AppData\Local\Temp\ccNCRqO6.s 			page 23


 1006 00e2 1A43     		orr	r2, r3
 1007 00e4 7B68     		ldr	r3, [r7, #4]
 1008 00e6 DA61     		str	r2, [r3, #28]
  64:./ros_lib/std_msgs/MultiArrayLayout.h ****       this->data_offset |= ((uint32_t) (*(inbuffer + offset + 3))) << (8 * 3);
 1009              		.loc 4 64 0
 1010 00e8 7B68     		ldr	r3, [r7, #4]
 1011 00ea DA69     		ldr	r2, [r3, #28]
 1012 00ec FB68     		ldr	r3, [r7, #12]
 1013 00ee 0333     		add	r3, r3, #3
 1014 00f0 3968     		ldr	r1, [r7]
 1015 00f2 CB18     		add	r3, r1, r3
 1016 00f4 1B78     		ldrb	r3, [r3]
 1017 00f6 1B06     		lsl	r3, r3, #24
 1018 00f8 1A43     		orr	r2, r3
 1019 00fa 7B68     		ldr	r3, [r7, #4]
 1020 00fc DA61     		str	r2, [r3, #28]
  65:./ros_lib/std_msgs/MultiArrayLayout.h ****       offset += sizeof(this->data_offset);
 1021              		.loc 4 65 0
 1022 00fe FB68     		ldr	r3, [r7, #12]
 1023 0100 0433     		add	r3, r3, #4
 1024 0102 FB60     		str	r3, [r7, #12]
  66:./ros_lib/std_msgs/MultiArrayLayout.h **** #endif
  67:./ros_lib/std_msgs/MultiArrayLayout.h ****      return offset;
 1025              		.loc 4 67 0
 1026 0104 FB68     		ldr	r3, [r7, #12]
 1027              	.LBE11:
  68:./ros_lib/std_msgs/MultiArrayLayout.h ****     }
 1028              		.loc 4 68 0
 1029 0106 181C     		mov	r0, r3
 1030 0108 BD46     		mov	sp, r7
 1031 010a 04B0     		add	sp, sp, #16
 1032              		@ sp needed
 1033 010c 80BD     		pop	{r7, pc}
 1034              		.cfi_endproc
 1035              	.LFE169:
 1036              		.size	_ZN8std_msgs16MultiArrayLayout11deserializeEPh, .-_ZN8std_msgs16MultiArrayLayout11deserializ
 1037 010e C046     		.section	.rodata
 1038 0045 000000   		.align	2
 1039              	.LC9:
 1040 0048 7374645F 		.ascii	"std_msgs/MultiArrayLayout\000"
 1040      6D736773 
 1040      2F4D756C 
 1040      74694172 
 1040      7261794C 
 1041              		.section	.text._ZN8std_msgs16MultiArrayLayout7getTypeEv,"axG",%progbits,_ZN8std_msgs16MultiArrayLa
 1042              		.align	2
 1043              		.weak	_ZN8std_msgs16MultiArrayLayout7getTypeEv
 1044              		.code	16
 1045              		.thumb_func
 1046              		.type	_ZN8std_msgs16MultiArrayLayout7getTypeEv, %function
 1047              	_ZN8std_msgs16MultiArrayLayout7getTypeEv:
 1048              	.LFB170:
  69:./ros_lib/std_msgs/MultiArrayLayout.h **** 
  70:./ros_lib/std_msgs/MultiArrayLayout.h ****     const char * getType(){ return "std_msgs/MultiArrayLayout"; };
 1049              		.loc 4 70 0
 1050              		.cfi_startproc
 1051 0000 80B5     		push	{r7, lr}
ARM GAS  C:\Users\Chuck\AppData\Local\Temp\ccNCRqO6.s 			page 24


 1052              		.cfi_def_cfa_offset 8
 1053              		.cfi_offset 7, -8
 1054              		.cfi_offset 14, -4
 1055 0002 82B0     		sub	sp, sp, #8
 1056              		.cfi_def_cfa_offset 16
 1057 0004 00AF     		add	r7, sp, #0
 1058              		.cfi_def_cfa_register 7
 1059 0006 7860     		str	r0, [r7, #4]
 1060              		.loc 4 70 0
 1061 0008 024B     		ldr	r3, .L47
 1062 000a 181C     		mov	r0, r3
 1063 000c BD46     		mov	sp, r7
 1064 000e 02B0     		add	sp, sp, #8
 1065              		@ sp needed
 1066 0010 80BD     		pop	{r7, pc}
 1067              	.L48:
 1068 0012 C046     		.align	2
 1069              	.L47:
 1070 0014 48000000 		.word	.LC9
 1071              		.cfi_endproc
 1072              	.LFE170:
 1073              		.size	_ZN8std_msgs16MultiArrayLayout7getTypeEv, .-_ZN8std_msgs16MultiArrayLayout7getTypeEv
 1074              		.section	.rodata
 1075 0062 0000     		.align	2
 1076              	.LC11:
 1077 0064 30666564 		.ascii	"0fed2a11c13e11c5571b4e2a995a91a3\000"
 1077      32613131 
 1077      63313365 
 1077      31316335 
 1077      35373162 
 1078              		.section	.text._ZN8std_msgs16MultiArrayLayout6getMD5Ev,"axG",%progbits,_ZN8std_msgs16MultiArrayLay
 1079              		.align	2
 1080              		.weak	_ZN8std_msgs16MultiArrayLayout6getMD5Ev
 1081              		.code	16
 1082              		.thumb_func
 1083              		.type	_ZN8std_msgs16MultiArrayLayout6getMD5Ev, %function
 1084              	_ZN8std_msgs16MultiArrayLayout6getMD5Ev:
 1085              	.LFB171:
  71:./ros_lib/std_msgs/MultiArrayLayout.h ****     const char * getMD5(){ return "0fed2a11c13e11c5571b4e2a995a91a3"; };
 1086              		.loc 4 71 0
 1087              		.cfi_startproc
 1088 0000 80B5     		push	{r7, lr}
 1089              		.cfi_def_cfa_offset 8
 1090              		.cfi_offset 7, -8
 1091              		.cfi_offset 14, -4
 1092 0002 82B0     		sub	sp, sp, #8
 1093              		.cfi_def_cfa_offset 16
 1094 0004 00AF     		add	r7, sp, #0
 1095              		.cfi_def_cfa_register 7
 1096 0006 7860     		str	r0, [r7, #4]
 1097              		.loc 4 71 0
 1098 0008 024B     		ldr	r3, .L51
 1099 000a 181C     		mov	r0, r3
 1100 000c BD46     		mov	sp, r7
 1101 000e 02B0     		add	sp, sp, #8
 1102              		@ sp needed
 1103 0010 80BD     		pop	{r7, pc}
ARM GAS  C:\Users\Chuck\AppData\Local\Temp\ccNCRqO6.s 			page 25


 1104              	.L52:
 1105 0012 C046     		.align	2
 1106              	.L51:
 1107 0014 64000000 		.word	.LC11
 1108              		.cfi_endproc
 1109              	.LFE171:
 1110              		.size	_ZN8std_msgs16MultiArrayLayout6getMD5Ev, .-_ZN8std_msgs16MultiArrayLayout6getMD5Ev
 1111              		.section	.text._ZN8std_msgs15UInt8MultiArrayC2Ev,"axG",%progbits,_ZN8std_msgs15UInt8MultiArrayC5Ev
 1112              		.align	2
 1113              		.weak	_ZN8std_msgs15UInt8MultiArrayC2Ev
 1114              		.code	16
 1115              		.thumb_func
 1116              		.type	_ZN8std_msgs15UInt8MultiArrayC2Ev, %function
 1117              	_ZN8std_msgs15UInt8MultiArrayC2Ev:
 1118              	.LFB173:
 1119              		.file 5 "./ros_lib/std_msgs/UInt8MultiArray.h"
   1:./ros_lib/std_msgs/UInt8MultiArray.h **** #ifndef _ROS_std_msgs_UInt8MultiArray_h
   2:./ros_lib/std_msgs/UInt8MultiArray.h **** #define _ROS_std_msgs_UInt8MultiArray_h
   3:./ros_lib/std_msgs/UInt8MultiArray.h **** 
   4:./ros_lib/std_msgs/UInt8MultiArray.h **** #include <stdint.h>
   5:./ros_lib/std_msgs/UInt8MultiArray.h **** #include <string.h>
   6:./ros_lib/std_msgs/UInt8MultiArray.h **** #include <stdlib.h>
   7:./ros_lib/std_msgs/UInt8MultiArray.h **** #include "ros/msg.h"
   8:./ros_lib/std_msgs/UInt8MultiArray.h **** #include "std_msgs/MultiArrayLayout.h"
   9:./ros_lib/std_msgs/UInt8MultiArray.h **** 
  10:./ros_lib/std_msgs/UInt8MultiArray.h **** namespace std_msgs
  11:./ros_lib/std_msgs/UInt8MultiArray.h **** {
  12:./ros_lib/std_msgs/UInt8MultiArray.h **** 
  13:./ros_lib/std_msgs/UInt8MultiArray.h ****   class UInt8MultiArray : public ros::Msg
  14:./ros_lib/std_msgs/UInt8MultiArray.h ****   {
  15:./ros_lib/std_msgs/UInt8MultiArray.h ****     public:
  16:./ros_lib/std_msgs/UInt8MultiArray.h ****       std_msgs::MultiArrayLayout layout;
  17:./ros_lib/std_msgs/UInt8MultiArray.h ****       uint8_t data_length;
  18:./ros_lib/std_msgs/UInt8MultiArray.h ****       uint8_t st_data;
  19:./ros_lib/std_msgs/UInt8MultiArray.h ****       uint8_t * data;
  20:./ros_lib/std_msgs/UInt8MultiArray.h **** 
  21:./ros_lib/std_msgs/UInt8MultiArray.h ****     UInt8MultiArray():
 1120              		.loc 5 21 0
 1121              		.cfi_startproc
 1122 0000 80B5     		push	{r7, lr}
 1123              		.cfi_def_cfa_offset 8
 1124              		.cfi_offset 7, -8
 1125              		.cfi_offset 14, -4
 1126 0002 82B0     		sub	sp, sp, #8
 1127              		.cfi_def_cfa_offset 16
 1128 0004 00AF     		add	r7, sp, #0
 1129              		.cfi_def_cfa_register 7
 1130 0006 7860     		str	r0, [r7, #4]
 1131              	.LBB13:
  22:./ros_lib/std_msgs/UInt8MultiArray.h ****       layout(),
  23:./ros_lib/std_msgs/UInt8MultiArray.h ****       data_length(0), data(NULL)
 1132              		.loc 5 23 0
 1133 0008 7B68     		ldr	r3, [r7, #4]
 1134 000a 181C     		mov	r0, r3
 1135 000c FFF7FEFF 		bl	_ZN3ros3MsgC2Ev
 1136 0010 7B68     		ldr	r3, [r7, #4]
 1137 0012 094A     		ldr	r2, .L56
ARM GAS  C:\Users\Chuck\AppData\Local\Temp\ccNCRqO6.s 			page 26


 1138 0014 1A60     		str	r2, [r3]
 1139 0016 7B68     		ldr	r3, [r7, #4]
 1140 0018 0433     		add	r3, r3, #4
 1141 001a 181C     		mov	r0, r3
 1142 001c FFF7FEFF 		bl	_ZN8std_msgs16MultiArrayLayoutC1Ev
 1143 0020 7B68     		ldr	r3, [r7, #4]
 1144 0022 2422     		mov	r2, #36
 1145 0024 0021     		mov	r1, #0
 1146 0026 9954     		strb	r1, [r3, r2]
 1147 0028 7B68     		ldr	r3, [r7, #4]
 1148 002a 0022     		mov	r2, #0
 1149 002c 9A62     		str	r2, [r3, #40]
 1150              	.LBE13:
  24:./ros_lib/std_msgs/UInt8MultiArray.h ****     {
  25:./ros_lib/std_msgs/UInt8MultiArray.h ****     }
 1151              		.loc 5 25 0
 1152 002e 7B68     		ldr	r3, [r7, #4]
 1153 0030 181C     		mov	r0, r3
 1154 0032 BD46     		mov	sp, r7
 1155 0034 02B0     		add	sp, sp, #8
 1156              		@ sp needed
 1157 0036 80BD     		pop	{r7, pc}
 1158              	.L57:
 1159              		.align	2
 1160              	.L56:
 1161 0038 08000000 		.word	_ZTVN8std_msgs15UInt8MultiArrayE+8
 1162              		.cfi_endproc
 1163              	.LFE173:
 1164              		.size	_ZN8std_msgs15UInt8MultiArrayC2Ev, .-_ZN8std_msgs15UInt8MultiArrayC2Ev
 1165              		.weak	_ZN8std_msgs15UInt8MultiArrayC1Ev
 1166              		.thumb_set _ZN8std_msgs15UInt8MultiArrayC1Ev,_ZN8std_msgs15UInt8MultiArrayC2Ev
 1167              		.section	.text._ZNK8std_msgs15UInt8MultiArray9serializeEPh,"axG",%progbits,_ZNK8std_msgs15UInt8Mul
 1168              		.align	2
 1169              		.weak	_ZNK8std_msgs15UInt8MultiArray9serializeEPh
 1170              		.code	16
 1171              		.thumb_func
 1172              		.type	_ZNK8std_msgs15UInt8MultiArray9serializeEPh, %function
 1173              	_ZNK8std_msgs15UInt8MultiArray9serializeEPh:
 1174              	.LFB175:
  26:./ros_lib/std_msgs/UInt8MultiArray.h **** 
  27:./ros_lib/std_msgs/UInt8MultiArray.h ****     virtual int serialize(unsigned char *outbuffer) const
 1175              		.loc 5 27 0
 1176              		.cfi_startproc
 1177 0000 80B5     		push	{r7, lr}
 1178              		.cfi_def_cfa_offset 8
 1179              		.cfi_offset 7, -8
 1180              		.cfi_offset 14, -4
 1181 0002 84B0     		sub	sp, sp, #16
 1182              		.cfi_def_cfa_offset 24
 1183 0004 00AF     		add	r7, sp, #0
 1184              		.cfi_def_cfa_register 7
 1185 0006 7860     		str	r0, [r7, #4]
 1186 0008 3960     		str	r1, [r7]
 1187              	.LBB14:
  28:./ros_lib/std_msgs/UInt8MultiArray.h ****     {
  29:./ros_lib/std_msgs/UInt8MultiArray.h ****       int offset = 0;
 1188              		.loc 5 29 0
ARM GAS  C:\Users\Chuck\AppData\Local\Temp\ccNCRqO6.s 			page 27


 1189 000a 0023     		mov	r3, #0
 1190 000c FB60     		str	r3, [r7, #12]
  30:./ros_lib/std_msgs/UInt8MultiArray.h **** #ifndef ROS_MSG_DONT_SERIALIZE
  31:./ros_lib/std_msgs/UInt8MultiArray.h ****       offset += this->layout.serialize(outbuffer + offset);
 1191              		.loc 5 31 0
 1192 000e 7B68     		ldr	r3, [r7, #4]
 1193 0010 191D     		add	r1, r3, #4
 1194 0012 FB68     		ldr	r3, [r7, #12]
 1195 0014 3A68     		ldr	r2, [r7]
 1196 0016 D318     		add	r3, r2, r3
 1197 0018 081C     		mov	r0, r1
 1198 001a 191C     		mov	r1, r3
 1199 001c FFF7FEFF 		bl	_ZNK8std_msgs16MultiArrayLayout9serializeEPh
 1200 0020 021C     		mov	r2, r0
 1201 0022 FB68     		ldr	r3, [r7, #12]
 1202 0024 9B18     		add	r3, r3, r2
 1203 0026 FB60     		str	r3, [r7, #12]
  32:./ros_lib/std_msgs/UInt8MultiArray.h ****       *(outbuffer + offset++) = data_length;
 1204              		.loc 5 32 0
 1205 0028 FB68     		ldr	r3, [r7, #12]
 1206 002a 5A1C     		add	r2, r3, #1
 1207 002c FA60     		str	r2, [r7, #12]
 1208 002e 1A1C     		mov	r2, r3
 1209 0030 3B68     		ldr	r3, [r7]
 1210 0032 9B18     		add	r3, r3, r2
 1211 0034 7A68     		ldr	r2, [r7, #4]
 1212 0036 2421     		mov	r1, #36
 1213 0038 525C     		ldrb	r2, [r2, r1]
 1214 003a 1A70     		strb	r2, [r3]
  33:./ros_lib/std_msgs/UInt8MultiArray.h ****       *(outbuffer + offset++) = 0;
 1215              		.loc 5 33 0
 1216 003c FB68     		ldr	r3, [r7, #12]
 1217 003e 5A1C     		add	r2, r3, #1
 1218 0040 FA60     		str	r2, [r7, #12]
 1219 0042 1A1C     		mov	r2, r3
 1220 0044 3B68     		ldr	r3, [r7]
 1221 0046 9B18     		add	r3, r3, r2
 1222 0048 0022     		mov	r2, #0
 1223 004a 1A70     		strb	r2, [r3]
  34:./ros_lib/std_msgs/UInt8MultiArray.h ****       *(outbuffer + offset++) = 0;
 1224              		.loc 5 34 0
 1225 004c FB68     		ldr	r3, [r7, #12]
 1226 004e 5A1C     		add	r2, r3, #1
 1227 0050 FA60     		str	r2, [r7, #12]
 1228 0052 1A1C     		mov	r2, r3
 1229 0054 3B68     		ldr	r3, [r7]
 1230 0056 9B18     		add	r3, r3, r2
 1231 0058 0022     		mov	r2, #0
 1232 005a 1A70     		strb	r2, [r3]
  35:./ros_lib/std_msgs/UInt8MultiArray.h ****       *(outbuffer + offset++) = 0;
 1233              		.loc 5 35 0
 1234 005c FB68     		ldr	r3, [r7, #12]
 1235 005e 5A1C     		add	r2, r3, #1
 1236 0060 FA60     		str	r2, [r7, #12]
 1237 0062 1A1C     		mov	r2, r3
 1238 0064 3B68     		ldr	r3, [r7]
 1239 0066 9B18     		add	r3, r3, r2
ARM GAS  C:\Users\Chuck\AppData\Local\Temp\ccNCRqO6.s 			page 28


 1240 0068 0022     		mov	r2, #0
 1241 006a 1A70     		strb	r2, [r3]
 1242              	.LBB15:
  36:./ros_lib/std_msgs/UInt8MultiArray.h ****       for( uint8_t i = 0; i < data_length; i++){
 1243              		.loc 5 36 0
 1244 006c 0B23     		mov	r3, #11
 1245 006e FB18     		add	r3, r7, r3
 1246 0070 0022     		mov	r2, #0
 1247 0072 1A70     		strb	r2, [r3]
 1248 0074 14E0     		b	.L59
 1249              	.L60:
  37:./ros_lib/std_msgs/UInt8MultiArray.h ****       *(outbuffer + offset + 0) = (this->data[i] >> (8 * 0)) & 0xFF;
 1250              		.loc 5 37 0 discriminator 3
 1251 0076 FB68     		ldr	r3, [r7, #12]
 1252 0078 3A68     		ldr	r2, [r7]
 1253 007a D218     		add	r2, r2, r3
 1254 007c 7B68     		ldr	r3, [r7, #4]
 1255 007e 996A     		ldr	r1, [r3, #40]
 1256 0080 0B23     		mov	r3, #11
 1257 0082 FB18     		add	r3, r7, r3
 1258 0084 1B78     		ldrb	r3, [r3]
 1259 0086 CB18     		add	r3, r1, r3
 1260 0088 1B78     		ldrb	r3, [r3]
 1261 008a 1370     		strb	r3, [r2]
  38:./ros_lib/std_msgs/UInt8MultiArray.h ****       offset += sizeof(this->data[i]);
 1262              		.loc 5 38 0 discriminator 3
 1263 008c FB68     		ldr	r3, [r7, #12]
 1264 008e 0133     		add	r3, r3, #1
 1265 0090 FB60     		str	r3, [r7, #12]
  36:./ros_lib/std_msgs/UInt8MultiArray.h ****       for( uint8_t i = 0; i < data_length; i++){
 1266              		.loc 5 36 0 discriminator 3
 1267 0092 0B23     		mov	r3, #11
 1268 0094 FB18     		add	r3, r7, r3
 1269 0096 1A78     		ldrb	r2, [r3]
 1270 0098 0B23     		mov	r3, #11
 1271 009a FB18     		add	r3, r7, r3
 1272 009c 0132     		add	r2, r2, #1
 1273 009e 1A70     		strb	r2, [r3]
 1274              	.L59:
  36:./ros_lib/std_msgs/UInt8MultiArray.h ****       for( uint8_t i = 0; i < data_length; i++){
 1275              		.loc 5 36 0 is_stmt 0 discriminator 1
 1276 00a0 7B68     		ldr	r3, [r7, #4]
 1277 00a2 2422     		mov	r2, #36
 1278 00a4 9B5C     		ldrb	r3, [r3, r2]
 1279 00a6 0B22     		mov	r2, #11
 1280 00a8 BA18     		add	r2, r7, r2
 1281 00aa 1278     		ldrb	r2, [r2]
 1282 00ac 9A42     		cmp	r2, r3
 1283 00ae E2D3     		bcc	.L60
 1284              	.LBE15:
  39:./ros_lib/std_msgs/UInt8MultiArray.h ****       }
  40:./ros_lib/std_msgs/UInt8MultiArray.h **** #endif
  41:./ros_lib/std_msgs/UInt8MultiArray.h ****       return offset;
 1285              		.loc 5 41 0 is_stmt 1
 1286 00b0 FB68     		ldr	r3, [r7, #12]
 1287              	.LBE14:
  42:./ros_lib/std_msgs/UInt8MultiArray.h ****     }
ARM GAS  C:\Users\Chuck\AppData\Local\Temp\ccNCRqO6.s 			page 29


 1288              		.loc 5 42 0
 1289 00b2 181C     		mov	r0, r3
 1290 00b4 BD46     		mov	sp, r7
 1291 00b6 04B0     		add	sp, sp, #16
 1292              		@ sp needed
 1293 00b8 80BD     		pop	{r7, pc}
 1294              		.cfi_endproc
 1295              	.LFE175:
 1296              		.size	_ZNK8std_msgs15UInt8MultiArray9serializeEPh, .-_ZNK8std_msgs15UInt8MultiArray9serializeEPh
 1297              		.section	.text._ZN8std_msgs15UInt8MultiArray11deserializeEPh,"axG",%progbits,_ZN8std_msgs15UInt8Mu
 1298              		.align	2
 1299              		.weak	_ZN8std_msgs15UInt8MultiArray11deserializeEPh
 1300              		.code	16
 1301              		.thumb_func
 1302              		.type	_ZN8std_msgs15UInt8MultiArray11deserializeEPh, %function
 1303              	_ZN8std_msgs15UInt8MultiArray11deserializeEPh:
 1304              	.LFB176:
  43:./ros_lib/std_msgs/UInt8MultiArray.h **** 
  44:./ros_lib/std_msgs/UInt8MultiArray.h ****     virtual int deserialize(unsigned char *inbuffer)
 1305              		.loc 5 44 0
 1306              		.cfi_startproc
 1307 0000 80B5     		push	{r7, lr}
 1308              		.cfi_def_cfa_offset 8
 1309              		.cfi_offset 7, -8
 1310              		.cfi_offset 14, -4
 1311 0002 84B0     		sub	sp, sp, #16
 1312              		.cfi_def_cfa_offset 24
 1313 0004 00AF     		add	r7, sp, #0
 1314              		.cfi_def_cfa_register 7
 1315 0006 7860     		str	r0, [r7, #4]
 1316 0008 3960     		str	r1, [r7]
 1317              	.LBB16:
  45:./ros_lib/std_msgs/UInt8MultiArray.h ****     {
  46:./ros_lib/std_msgs/UInt8MultiArray.h ****       int offset = 0;
 1318              		.loc 5 46 0
 1319 000a 0023     		mov	r3, #0
 1320 000c FB60     		str	r3, [r7, #12]
  47:./ros_lib/std_msgs/UInt8MultiArray.h **** #ifndef ROS_MSG_DONT_DESERIALIZE
  48:./ros_lib/std_msgs/UInt8MultiArray.h ****       offset += this->layout.deserialize(inbuffer + offset);
 1321              		.loc 5 48 0
 1322 000e 7B68     		ldr	r3, [r7, #4]
 1323 0010 191D     		add	r1, r3, #4
 1324 0012 FB68     		ldr	r3, [r7, #12]
 1325 0014 3A68     		ldr	r2, [r7]
 1326 0016 D318     		add	r3, r2, r3
 1327 0018 081C     		mov	r0, r1
 1328 001a 191C     		mov	r1, r3
 1329 001c FFF7FEFF 		bl	_ZN8std_msgs16MultiArrayLayout11deserializeEPh
 1330 0020 021C     		mov	r2, r0
 1331 0022 FB68     		ldr	r3, [r7, #12]
 1332 0024 9B18     		add	r3, r3, r2
 1333 0026 FB60     		str	r3, [r7, #12]
  49:./ros_lib/std_msgs/UInt8MultiArray.h ****       uint8_t data_lengthT = *(inbuffer + offset++);
 1334              		.loc 5 49 0
 1335 0028 FB68     		ldr	r3, [r7, #12]
 1336 002a 5A1C     		add	r2, r3, #1
 1337 002c FA60     		str	r2, [r7, #12]
ARM GAS  C:\Users\Chuck\AppData\Local\Temp\ccNCRqO6.s 			page 30


 1338 002e 1A1C     		mov	r2, r3
 1339 0030 3B68     		ldr	r3, [r7]
 1340 0032 9A18     		add	r2, r3, r2
 1341 0034 0A23     		mov	r3, #10
 1342 0036 FB18     		add	r3, r7, r3
 1343 0038 1278     		ldrb	r2, [r2]
 1344 003a 1A70     		strb	r2, [r3]
  50:./ros_lib/std_msgs/UInt8MultiArray.h ****       if(data_lengthT < data_length)
 1345              		.loc 5 50 0
 1346 003c 7B68     		ldr	r3, [r7, #4]
 1347 003e 2422     		mov	r2, #36
 1348 0040 9B5C     		ldrb	r3, [r3, r2]
 1349 0042 0A22     		mov	r2, #10
 1350 0044 BA18     		add	r2, r7, r2
 1351 0046 1278     		ldrb	r2, [r2]
 1352 0048 9A42     		cmp	r2, r3
 1353 004a 05D2     		bcs	.L63
  51:./ros_lib/std_msgs/UInt8MultiArray.h ****         data_length = data_lengthT;
 1354              		.loc 5 51 0
 1355 004c 7B68     		ldr	r3, [r7, #4]
 1356 004e 0A22     		mov	r2, #10
 1357 0050 BA18     		add	r2, r7, r2
 1358 0052 2421     		mov	r1, #36
 1359 0054 1278     		ldrb	r2, [r2]
 1360 0056 5A54     		strb	r2, [r3, r1]
 1361              	.L63:
  52:./ros_lib/std_msgs/UInt8MultiArray.h ****       offset += 3;
 1362              		.loc 5 52 0
 1363 0058 FB68     		ldr	r3, [r7, #12]
 1364 005a 0333     		add	r3, r3, #3
 1365 005c FB60     		str	r3, [r7, #12]
 1366              	.LBB17:
  53:./ros_lib/std_msgs/UInt8MultiArray.h ****       for( uint8_t i = 0; i < data_lengthT; i++){
 1367              		.loc 5 53 0
 1368 005e 0B23     		mov	r3, #11
 1369 0060 FB18     		add	r3, r7, r3
 1370 0062 0022     		mov	r2, #0
 1371 0064 1A70     		strb	r2, [r3]
 1372 0066 25E0     		b	.L64
 1373              	.L66:
  54:./ros_lib/std_msgs/UInt8MultiArray.h ****       this->st_data =  ((uint8_t) (*(inbuffer + offset)));
 1374              		.loc 5 54 0
 1375 0068 FB68     		ldr	r3, [r7, #12]
 1376 006a 3A68     		ldr	r2, [r7]
 1377 006c D318     		add	r3, r2, r3
 1378 006e 1978     		ldrb	r1, [r3]
 1379 0070 7B68     		ldr	r3, [r7, #4]
 1380 0072 2522     		mov	r2, #37
 1381 0074 9954     		strb	r1, [r3, r2]
  55:./ros_lib/std_msgs/UInt8MultiArray.h ****       offset += sizeof(this->st_data);
 1382              		.loc 5 55 0
 1383 0076 FB68     		ldr	r3, [r7, #12]
 1384 0078 0133     		add	r3, r3, #1
 1385 007a FB60     		str	r3, [r7, #12]
  56:./ros_lib/std_msgs/UInt8MultiArray.h ****       if (i < data_length) {
 1386              		.loc 5 56 0
 1387 007c 7B68     		ldr	r3, [r7, #4]
ARM GAS  C:\Users\Chuck\AppData\Local\Temp\ccNCRqO6.s 			page 31


 1388 007e 2422     		mov	r2, #36
 1389 0080 9B5C     		ldrb	r3, [r3, r2]
 1390 0082 0B22     		mov	r2, #11
 1391 0084 BA18     		add	r2, r7, r2
 1392 0086 1278     		ldrb	r2, [r2]
 1393 0088 9A42     		cmp	r2, r3
 1394 008a 0CD2     		bcs	.L65
  57:./ros_lib/std_msgs/UInt8MultiArray.h ****           memcpy( &(this->data[i]), &(this->st_data), sizeof(uint8_t));
 1395              		.loc 5 57 0
 1396 008c 7B68     		ldr	r3, [r7, #4]
 1397 008e 9A6A     		ldr	r2, [r3, #40]
 1398 0090 0B23     		mov	r3, #11
 1399 0092 FB18     		add	r3, r7, r3
 1400 0094 1B78     		ldrb	r3, [r3]
 1401 0096 D218     		add	r2, r2, r3
 1402 0098 7B68     		ldr	r3, [r7, #4]
 1403 009a 2533     		add	r3, r3, #37
 1404 009c 101C     		mov	r0, r2
 1405 009e 191C     		mov	r1, r3
 1406 00a0 0122     		mov	r2, #1
 1407 00a2 FFF7FEFF 		bl	memcpy
 1408              	.L65:
  53:./ros_lib/std_msgs/UInt8MultiArray.h ****       this->st_data =  ((uint8_t) (*(inbuffer + offset)));
 1409              		.loc 5 53 0 discriminator 2
 1410 00a6 0B23     		mov	r3, #11
 1411 00a8 FB18     		add	r3, r7, r3
 1412 00aa 1A78     		ldrb	r2, [r3]
 1413 00ac 0B23     		mov	r3, #11
 1414 00ae FB18     		add	r3, r7, r3
 1415 00b0 0132     		add	r2, r2, #1
 1416 00b2 1A70     		strb	r2, [r3]
 1417              	.L64:
  53:./ros_lib/std_msgs/UInt8MultiArray.h ****       this->st_data =  ((uint8_t) (*(inbuffer + offset)));
 1418              		.loc 5 53 0 is_stmt 0 discriminator 1
 1419 00b4 0B23     		mov	r3, #11
 1420 00b6 FA18     		add	r2, r7, r3
 1421 00b8 0A23     		mov	r3, #10
 1422 00ba FB18     		add	r3, r7, r3
 1423 00bc 1278     		ldrb	r2, [r2]
 1424 00be 1B78     		ldrb	r3, [r3]
 1425 00c0 9A42     		cmp	r2, r3
 1426 00c2 D1D3     		bcc	.L66
 1427              	.LBE17:
  58:./ros_lib/std_msgs/UInt8MultiArray.h ****       }
  59:./ros_lib/std_msgs/UInt8MultiArray.h ****       }
  60:./ros_lib/std_msgs/UInt8MultiArray.h **** #endif
  61:./ros_lib/std_msgs/UInt8MultiArray.h ****      return offset;
 1428              		.loc 5 61 0 is_stmt 1
 1429 00c4 FB68     		ldr	r3, [r7, #12]
 1430              	.LBE16:
  62:./ros_lib/std_msgs/UInt8MultiArray.h ****     }
 1431              		.loc 5 62 0
 1432 00c6 181C     		mov	r0, r3
 1433 00c8 BD46     		mov	sp, r7
 1434 00ca 04B0     		add	sp, sp, #16
 1435              		@ sp needed
 1436 00cc 80BD     		pop	{r7, pc}
ARM GAS  C:\Users\Chuck\AppData\Local\Temp\ccNCRqO6.s 			page 32


 1437              		.cfi_endproc
 1438              	.LFE176:
 1439              		.size	_ZN8std_msgs15UInt8MultiArray11deserializeEPh, .-_ZN8std_msgs15UInt8MultiArray11deserializeE
 1440 00ce C046     		.section	.rodata
 1441 0085 000000   		.align	2
 1442              	.LC14:
 1443 0088 7374645F 		.ascii	"std_msgs/UInt8MultiArray\000"
 1443      6D736773 
 1443      2F55496E 
 1443      74384D75 
 1443      6C746941 
 1444              		.section	.text._ZN8std_msgs15UInt8MultiArray7getTypeEv,"axG",%progbits,_ZN8std_msgs15UInt8MultiArr
 1445              		.align	2
 1446              		.weak	_ZN8std_msgs15UInt8MultiArray7getTypeEv
 1447              		.code	16
 1448              		.thumb_func
 1449              		.type	_ZN8std_msgs15UInt8MultiArray7getTypeEv, %function
 1450              	_ZN8std_msgs15UInt8MultiArray7getTypeEv:
 1451              	.LFB177:
  63:./ros_lib/std_msgs/UInt8MultiArray.h **** 
  64:./ros_lib/std_msgs/UInt8MultiArray.h ****     const char * getType(){ return "std_msgs/UInt8MultiArray"; };
 1452              		.loc 5 64 0
 1453              		.cfi_startproc
 1454 0000 80B5     		push	{r7, lr}
 1455              		.cfi_def_cfa_offset 8
 1456              		.cfi_offset 7, -8
 1457              		.cfi_offset 14, -4
 1458 0002 82B0     		sub	sp, sp, #8
 1459              		.cfi_def_cfa_offset 16
 1460 0004 00AF     		add	r7, sp, #0
 1461              		.cfi_def_cfa_register 7
 1462 0006 7860     		str	r0, [r7, #4]
 1463              		.loc 5 64 0
 1464 0008 024B     		ldr	r3, .L70
 1465 000a 181C     		mov	r0, r3
 1466 000c BD46     		mov	sp, r7
 1467 000e 02B0     		add	sp, sp, #8
 1468              		@ sp needed
 1469 0010 80BD     		pop	{r7, pc}
 1470              	.L71:
 1471 0012 C046     		.align	2
 1472              	.L70:
 1473 0014 88000000 		.word	.LC14
 1474              		.cfi_endproc
 1475              	.LFE177:
 1476              		.size	_ZN8std_msgs15UInt8MultiArray7getTypeEv, .-_ZN8std_msgs15UInt8MultiArray7getTypeEv
 1477              		.section	.rodata
 1478 00a1 000000   		.align	2
 1479              	.LC16:
 1480 00a4 38323337 		.ascii	"82373f1612381bb6ee473b5cd6f5d89c\000"
 1480      33663136 
 1480      31323338 
 1480      31626236 
 1480      65653437 
 1481              		.section	.text._ZN8std_msgs15UInt8MultiArray6getMD5Ev,"axG",%progbits,_ZN8std_msgs15UInt8MultiArra
 1482              		.align	2
 1483              		.weak	_ZN8std_msgs15UInt8MultiArray6getMD5Ev
ARM GAS  C:\Users\Chuck\AppData\Local\Temp\ccNCRqO6.s 			page 33


 1484              		.code	16
 1485              		.thumb_func
 1486              		.type	_ZN8std_msgs15UInt8MultiArray6getMD5Ev, %function
 1487              	_ZN8std_msgs15UInt8MultiArray6getMD5Ev:
 1488              	.LFB178:
  65:./ros_lib/std_msgs/UInt8MultiArray.h ****     const char * getMD5(){ return "82373f1612381bb6ee473b5cd6f5d89c"; };
 1489              		.loc 5 65 0
 1490              		.cfi_startproc
 1491 0000 80B5     		push	{r7, lr}
 1492              		.cfi_def_cfa_offset 8
 1493              		.cfi_offset 7, -8
 1494              		.cfi_offset 14, -4
 1495 0002 82B0     		sub	sp, sp, #8
 1496              		.cfi_def_cfa_offset 16
 1497 0004 00AF     		add	r7, sp, #0
 1498              		.cfi_def_cfa_register 7
 1499 0006 7860     		str	r0, [r7, #4]
 1500              		.loc 5 65 0
 1501 0008 024B     		ldr	r3, .L74
 1502 000a 181C     		mov	r0, r3
 1503 000c BD46     		mov	sp, r7
 1504 000e 02B0     		add	sp, sp, #8
 1505              		@ sp needed
 1506 0010 80BD     		pop	{r7, pc}
 1507              	.L75:
 1508 0012 C046     		.align	2
 1509              	.L74:
 1510 0014 A4000000 		.word	.LC16
 1511              		.cfi_endproc
 1512              	.LFE178:
 1513              		.size	_ZN8std_msgs15UInt8MultiArray6getMD5Ev, .-_ZN8std_msgs15UInt8MultiArray6getMD5Ev
 1514              		.global	_ZN10I2C_device9reply_msgE
 1515              		.bss
 1516              		.align	2
 1517              		.type	_ZN10I2C_device9reply_msgE, %object
 1518              		.size	_ZN10I2C_device9reply_msgE, 44
 1519              	_ZN10I2C_device9reply_msgE:
 1520 0000 00000000 		.space	44
 1520      00000000 
 1520      00000000 
 1520      00000000 
 1520      00000000 
 1521              		.global	_ZN10I2C_device9reply_dimE
 1522              		.align	2
 1523              		.type	_ZN10I2C_device9reply_dimE, %object
 1524              		.size	_ZN10I2C_device9reply_dimE, 16
 1525              	_ZN10I2C_device9reply_dimE:
 1526 002c 00000000 		.space	16
 1526      00000000 
 1526      00000000 
 1526      00000000 
 1527              		.global	_ZN10I2C_device10reply_dataE
 1528              		.align	2
 1529              		.type	_ZN10I2C_device10reply_dataE, %object
 1530              		.size	_ZN10I2C_device10reply_dataE, 8
 1531              	_ZN10I2C_device10reply_dataE:
 1532 003c 00000000 		.space	8
ARM GAS  C:\Users\Chuck\AppData\Local\Temp\ccNCRqO6.s 			page 34


 1532      00000000 
 1533              		.global	_ZN10I2C_device9reply_pubE
 1534              		.align	2
 1535              		.type	_ZN10I2C_device9reply_pubE, %object
 1536              		.size	_ZN10I2C_device9reply_pubE, 20
 1537              	_ZN10I2C_device9reply_pubE:
 1538 0044 00000000 		.space	20
 1538      00000000 
 1538      00000000 
 1538      00000000 
 1538      00000000 
 1539              		.global	_ZN10I2C_device7i2caddrE
 1540              		.type	_ZN10I2C_device7i2caddrE, %object
 1541              		.size	_ZN10I2C_device7i2caddrE, 1
 1542              	_ZN10I2C_device7i2caddrE:
 1543 0058 00       		.space	1
 1544              		.global	_ZN10I2C_device18max_readback_bytesE
 1545              		.type	_ZN10I2C_device18max_readback_bytesE, %object
 1546              		.size	_ZN10I2C_device18max_readback_bytesE, 1
 1547              	_ZN10I2C_device18max_readback_bytesE:
 1548 0059 00       		.space	1
 1549              		.global	_ZN10I2C_device5stateE
 1550              		.type	_ZN10I2C_device5stateE, %object
 1551              		.size	_ZN10I2C_device5stateE, 1
 1552              	_ZN10I2C_device5stateE:
 1553 005a 00       		.space	1
 1554              		.section	.text._ZN10I2C_device14writeMessageCbERKN8std_msgs15UInt8MultiArrayE,"ax",%progbits
 1555              		.align	2
 1556              		.global	_ZN10I2C_device14writeMessageCbERKN8std_msgs15UInt8MultiArrayE
 1557              		.code	16
 1558              		.thumb_func
 1559              		.type	_ZN10I2C_device14writeMessageCbERKN8std_msgs15UInt8MultiArrayE, %function
 1560              	_ZN10I2C_device14writeMessageCbERKN8std_msgs15UInt8MultiArrayE:
 1561              	.LFB179:
 1562              		.file 6 ".\\ros_lib\\examples\\I2C\\I2C_device.cpp"
   1:.\ros_lib\examples\I2C/I2C_device.cpp **** /* 
   2:.\ros_lib\examples\I2C/I2C_device.cpp ****  * rosserial I2C access for PSoC4
   3:.\ros_lib\examples\I2C/I2C_device.cpp ****  * 
   4:.\ros_lib\examples\I2C/I2C_device.cpp ****  * read/write to I2C device
   5:.\ros_lib\examples\I2C/I2C_device.cpp ****  *
   6:.\ros_lib\examples\I2C/I2C_device.cpp ****  * Copyright C Harrison
   7:.\ros_lib\examples\I2C/I2C_device.cpp ****  * BSD 2-clause license http://opensource.org/licenses/BSD-2-Clause
   8:.\ros_lib\examples\I2C/I2C_device.cpp ****  *
   9:.\ros_lib\examples\I2C/I2C_device.cpp ****  */
  10:.\ros_lib\examples\I2C/I2C_device.cpp **** 
  11:.\ros_lib\examples\I2C/I2C_device.cpp **** 
  12:.\ros_lib\examples\I2C/I2C_device.cpp **** extern "C" {
  13:.\ros_lib\examples\I2C/I2C_device.cpp **** #include "project.h"
  14:.\ros_lib\examples\I2C/I2C_device.cpp **** }
  15:.\ros_lib\examples\I2C/I2C_device.cpp **** #include <ros.h>
  16:.\ros_lib\examples\I2C/I2C_device.cpp **** #include <std_msgs/UInt8MultiArray.h>
  17:.\ros_lib\examples\I2C/I2C_device.cpp **** #include "I2C_device.h"
  18:.\ros_lib\examples\I2C/I2C_device.cpp **** 
  19:.\ros_lib\examples\I2C/I2C_device.cpp **** 
  20:.\ros_lib\examples\I2C/I2C_device.cpp **** extern ros::NodeHandle nh;
  21:.\ros_lib\examples\I2C/I2C_device.cpp **** 
  22:.\ros_lib\examples\I2C/I2C_device.cpp **** namespace I2C_device {
ARM GAS  C:\Users\Chuck\AppData\Local\Temp\ccNCRqO6.s 			page 35


  23:.\ros_lib\examples\I2C/I2C_device.cpp **** 
  24:.\ros_lib\examples\I2C/I2C_device.cpp **** 
  25:.\ros_lib\examples\I2C/I2C_device.cpp **** #define MAX_REPLY_BYTES 8
  26:.\ros_lib\examples\I2C/I2C_device.cpp **** std_msgs::UInt8MultiArray reply_msg;
  27:.\ros_lib\examples\I2C/I2C_device.cpp **** std_msgs::MultiArrayDimension reply_dim[1];
  28:.\ros_lib\examples\I2C/I2C_device.cpp **** uint8_t reply_data[MAX_REPLY_BYTES];
  29:.\ros_lib\examples\I2C/I2C_device.cpp **** ros::Publisher reply_pub("i2c_reply", &reply_msg);
  30:.\ros_lib\examples\I2C/I2C_device.cpp **** 
  31:.\ros_lib\examples\I2C/I2C_device.cpp **** uint8_t i2caddr;
  32:.\ros_lib\examples\I2C/I2C_device.cpp **** uint8_t max_readback_bytes;
  33:.\ros_lib\examples\I2C/I2C_device.cpp **** enum state {
  34:.\ros_lib\examples\I2C/I2C_device.cpp ****   state_idle,
  35:.\ros_lib\examples\I2C/I2C_device.cpp ****   state_writing,
  36:.\ros_lib\examples\I2C/I2C_device.cpp ****   state_read_setup,
  37:.\ros_lib\examples\I2C/I2C_device.cpp ****   state_reading
  38:.\ros_lib\examples\I2C/I2C_device.cpp **** } state;
  39:.\ros_lib\examples\I2C/I2C_device.cpp **** 
  40:.\ros_lib\examples\I2C/I2C_device.cpp **** #define MAX_CMD_BYTES MAX_REPLY_BYTES
  41:.\ros_lib\examples\I2C/I2C_device.cpp **** // typ write message array: <7-bit I2C wrt addr><data addr>[<data byte>...]
  42:.\ros_lib\examples\I2C/I2C_device.cpp **** void writeMessageCb(const std_msgs::UInt8MultiArray& msg) {
 1563              		.loc 6 42 0
 1564              		.cfi_startproc
 1565 0000 80B5     		push	{r7, lr}
 1566              		.cfi_def_cfa_offset 8
 1567              		.cfi_offset 7, -8
 1568              		.cfi_offset 14, -4
 1569 0002 84B0     		sub	sp, sp, #16
 1570              		.cfi_def_cfa_offset 24
 1571 0004 00AF     		add	r7, sp, #0
 1572              		.cfi_def_cfa_register 7
 1573 0006 7860     		str	r0, [r7, #4]
 1574              	.LBB18:
  43:.\ros_lib\examples\I2C/I2C_device.cpp ****     I2CMaster_Start(); // for testing
 1575              		.loc 6 43 0
 1576 0008 FFF7FEFF 		bl	I2CMaster_Start
  44:.\ros_lib\examples\I2C/I2C_device.cpp ****     uint32_t status = 
  45:.\ros_lib\examples\I2C/I2C_device.cpp ****       I2CMaster_I2CMasterWriteBuf(msg.data[0], msg.data+1, msg.data_length-1,
 1577              		.loc 6 45 0
 1578 000c 7B68     		ldr	r3, [r7, #4]
 1579 000e 9B6A     		ldr	r3, [r3, #40]
 1580 0010 1B78     		ldrb	r3, [r3]
  46:.\ros_lib\examples\I2C/I2C_device.cpp ****                                   I2CMaster_I2C_MODE_COMPLETE_XFER);
 1581              		.loc 6 46 0
 1582 0012 181C     		mov	r0, r3
 1583 0014 7B68     		ldr	r3, [r7, #4]
 1584 0016 9B6A     		ldr	r3, [r3, #40]
 1585 0018 591C     		add	r1, r3, #1
  45:.\ros_lib\examples\I2C/I2C_device.cpp ****                                   I2CMaster_I2C_MODE_COMPLETE_XFER);
 1586              		.loc 6 45 0
 1587 001a 7B68     		ldr	r3, [r7, #4]
 1588 001c 2422     		mov	r2, #36
 1589 001e 9B5C     		ldrb	r3, [r3, r2]
 1590 0020 013B     		sub	r3, r3, #1
 1591              		.loc 6 46 0
 1592 0022 1A1C     		mov	r2, r3
 1593 0024 0023     		mov	r3, #0
 1594 0026 FFF7FEFF 		bl	I2CMaster_I2CMasterWriteBuf
ARM GAS  C:\Users\Chuck\AppData\Local\Temp\ccNCRqO6.s 			page 36


 1595 002a 031C     		mov	r3, r0
 1596 002c FB60     		str	r3, [r7, #12]
  47:.\ros_lib\examples\I2C/I2C_device.cpp ****     if (status == I2CMaster_I2C_MSTR_NO_ERROR) {
 1597              		.loc 6 47 0
 1598 002e FB68     		ldr	r3, [r7, #12]
 1599 0030 002B     		cmp	r3, #0
 1600 0032 02D1     		bne	.L77
  48:.\ros_lib\examples\I2C/I2C_device.cpp ****         state = state_writing;
 1601              		.loc 6 48 0
 1602 0034 044B     		ldr	r3, .L78
 1603 0036 0122     		mov	r2, #1
 1604 0038 1A70     		strb	r2, [r3]
 1605              	.L77:
  49:.\ros_lib\examples\I2C/I2C_device.cpp ****     }
  50:.\ros_lib\examples\I2C/I2C_device.cpp ****     // restore cmd msg buffer max size
  51:.\ros_lib\examples\I2C/I2C_device.cpp ****     const_cast<std_msgs::UInt8MultiArray&>(msg).data_length = MAX_CMD_BYTES;
 1606              		.loc 6 51 0
 1607 003a 7B68     		ldr	r3, [r7, #4]
 1608 003c 2422     		mov	r2, #36
 1609 003e 0821     		mov	r1, #8
 1610 0040 9954     		strb	r1, [r3, r2]
 1611              	.LBE18:
  52:.\ros_lib\examples\I2C/I2C_device.cpp **** }
 1612              		.loc 6 52 0
 1613 0042 BD46     		mov	sp, r7
 1614 0044 04B0     		add	sp, sp, #16
 1615              		@ sp needed
 1616 0046 80BD     		pop	{r7, pc}
 1617              	.L79:
 1618              		.align	2
 1619              	.L78:
 1620 0048 00000000 		.word	_ZN10I2C_device5stateE
 1621              		.cfi_endproc
 1622              	.LFE179:
 1623              		.size	_ZN10I2C_device14writeMessageCbERKN8std_msgs15UInt8MultiArrayE, .-_ZN10I2C_device14writeMess
 1624              		.section	.text._ZN10I2C_device13readMessageCbERKN8std_msgs15UInt8MultiArrayE,"ax",%progbits
 1625              		.align	2
 1626              		.global	_ZN10I2C_device13readMessageCbERKN8std_msgs15UInt8MultiArrayE
 1627              		.code	16
 1628              		.thumb_func
 1629              		.type	_ZN10I2C_device13readMessageCbERKN8std_msgs15UInt8MultiArrayE, %function
 1630              	_ZN10I2C_device13readMessageCbERKN8std_msgs15UInt8MultiArrayE:
 1631              	.LFB180:
  53:.\ros_lib\examples\I2C/I2C_device.cpp **** // typ read message array <7-bit I2C addr><data addr><max num readback bytes>
  54:.\ros_lib\examples\I2C/I2C_device.cpp **** //  If message array is 2 bytes long, <data_addr> is assumed absent and simple read op is performed
  55:.\ros_lib\examples\I2C/I2C_device.cpp **** void readMessageCb(const std_msgs::UInt8MultiArray& msg) {
 1632              		.loc 6 55 0
 1633              		.cfi_startproc
 1634 0000 80B5     		push	{r7, lr}
 1635              		.cfi_def_cfa_offset 8
 1636              		.cfi_offset 7, -8
 1637              		.cfi_offset 14, -4
 1638 0002 84B0     		sub	sp, sp, #16
 1639              		.cfi_def_cfa_offset 24
 1640 0004 00AF     		add	r7, sp, #0
 1641              		.cfi_def_cfa_register 7
 1642 0006 7860     		str	r0, [r7, #4]
ARM GAS  C:\Users\Chuck\AppData\Local\Temp\ccNCRqO6.s 			page 37


 1643              	.LBB19:
  56:.\ros_lib\examples\I2C/I2C_device.cpp ****     I2CMaster_Start(); // for testing
 1644              		.loc 6 56 0
 1645 0008 FFF7FEFF 		bl	I2CMaster_Start
  57:.\ros_lib\examples\I2C/I2C_device.cpp ****     if (msg.data_length < 2) { return; } // invalid message
 1646              		.loc 6 57 0
 1647 000c 7B68     		ldr	r3, [r7, #4]
 1648 000e 2422     		mov	r2, #36
 1649 0010 9B5C     		ldrb	r3, [r3, r2]
 1650 0012 012B     		cmp	r3, #1
 1651 0014 00D8     		bhi	.L81
 1652 0016 43E0     		b	.L80
 1653              	.L81:
  58:.\ros_lib\examples\I2C/I2C_device.cpp ****     max_readback_bytes = msg.data[msg.data_length-1];
 1654              		.loc 6 58 0
 1655 0018 7B68     		ldr	r3, [r7, #4]
 1656 001a 9A6A     		ldr	r2, [r3, #40]
 1657 001c 7B68     		ldr	r3, [r7, #4]
 1658 001e 2421     		mov	r1, #36
 1659 0020 5B5C     		ldrb	r3, [r3, r1]
 1660 0022 013B     		sub	r3, r3, #1
 1661 0024 D318     		add	r3, r2, r3
 1662 0026 1A78     		ldrb	r2, [r3]
 1663 0028 1F4B     		ldr	r3, .L86
 1664 002a 1A70     		strb	r2, [r3]
  59:.\ros_lib\examples\I2C/I2C_device.cpp ****     i2caddr = msg.data[0];
 1665              		.loc 6 59 0
 1666 002c 7B68     		ldr	r3, [r7, #4]
 1667 002e 9B6A     		ldr	r3, [r3, #40]
 1668 0030 1A78     		ldrb	r2, [r3]
 1669 0032 1E4B     		ldr	r3, .L86+4
 1670 0034 1A70     		strb	r2, [r3]
 1671              	.LBB20:
  60:.\ros_lib\examples\I2C/I2C_device.cpp ****     if (msg.data_length > 2) { // do write address cycle
 1672              		.loc 6 60 0
 1673 0036 7B68     		ldr	r3, [r7, #4]
 1674 0038 2422     		mov	r2, #36
 1675 003a 9B5C     		ldrb	r3, [r3, r2]
 1676 003c 022B     		cmp	r3, #2
 1677 003e 16D9     		bls	.L83
 1678              	.LBB21:
  61:.\ros_lib\examples\I2C/I2C_device.cpp ****         uint32_t status = 
  62:.\ros_lib\examples\I2C/I2C_device.cpp ****           I2CMaster_I2CMasterWriteBuf(i2caddr, msg.data+1, msg.data_length-2, I2CMaster_I2C_MODE_CO
 1679              		.loc 6 62 0
 1680 0040 1A4B     		ldr	r3, .L86+4
 1681 0042 1B78     		ldrb	r3, [r3]
 1682 0044 181C     		mov	r0, r3
 1683 0046 7B68     		ldr	r3, [r7, #4]
 1684 0048 9B6A     		ldr	r3, [r3, #40]
 1685 004a 591C     		add	r1, r3, #1
 1686 004c 7B68     		ldr	r3, [r7, #4]
 1687 004e 2422     		mov	r2, #36
 1688 0050 9B5C     		ldrb	r3, [r3, r2]
 1689 0052 023B     		sub	r3, r3, #2
 1690 0054 1A1C     		mov	r2, r3
 1691 0056 0023     		mov	r3, #0
 1692 0058 FFF7FEFF 		bl	I2CMaster_I2CMasterWriteBuf
ARM GAS  C:\Users\Chuck\AppData\Local\Temp\ccNCRqO6.s 			page 38


 1693 005c 031C     		mov	r3, r0
 1694 005e FB60     		str	r3, [r7, #12]
  63:.\ros_lib\examples\I2C/I2C_device.cpp ****         if (status == I2CMaster_I2C_MSTR_NO_ERROR) {
 1695              		.loc 6 63 0
 1696 0060 FB68     		ldr	r3, [r7, #12]
 1697 0062 002B     		cmp	r3, #0
 1698 0064 02D1     		bne	.L84
  64:.\ros_lib\examples\I2C/I2C_device.cpp ****             state = state_read_setup;
 1699              		.loc 6 64 0
 1700 0066 124B     		ldr	r3, .L86+8
 1701 0068 0222     		mov	r2, #2
 1702 006a 1A70     		strb	r2, [r3]
 1703              	.L84:
 1704              	.LBE21:
 1705 006c 14E0     		b	.L85
 1706              	.L83:
 1707              	.LBB22:
  65:.\ros_lib\examples\I2C/I2C_device.cpp ****         }
  66:.\ros_lib\examples\I2C/I2C_device.cpp ****     } else { // simple read operation
  67:.\ros_lib\examples\I2C/I2C_device.cpp ****         uint32_t status = I2CMaster_I2CMasterReadBuf(i2caddr, reply_msg.data, max_readback_bytes,
  68:.\ros_lib\examples\I2C/I2C_device.cpp ****                                     I2CMaster_I2C_MODE_COMPLETE_XFER);
 1708              		.loc 6 68 0
 1709 006e 0F4B     		ldr	r3, .L86+4
 1710 0070 1B78     		ldrb	r3, [r3]
 1711 0072 191C     		mov	r1, r3
 1712 0074 0F4B     		ldr	r3, .L86+12
 1713 0076 9A6A     		ldr	r2, [r3, #40]
 1714 0078 0B4B     		ldr	r3, .L86
 1715 007a 1B78     		ldrb	r3, [r3]
 1716 007c 081C     		mov	r0, r1
 1717 007e 111C     		mov	r1, r2
 1718 0080 1A1C     		mov	r2, r3
 1719 0082 0023     		mov	r3, #0
 1720 0084 FFF7FEFF 		bl	I2CMaster_I2CMasterReadBuf
 1721 0088 031C     		mov	r3, r0
 1722 008a BB60     		str	r3, [r7, #8]
  69:.\ros_lib\examples\I2C/I2C_device.cpp ****         if (status == I2CMaster_I2C_MSTR_NO_ERROR) {
 1723              		.loc 6 69 0
 1724 008c BB68     		ldr	r3, [r7, #8]
 1725 008e 002B     		cmp	r3, #0
 1726 0090 02D1     		bne	.L85
  70:.\ros_lib\examples\I2C/I2C_device.cpp ****             state = state_reading;
 1727              		.loc 6 70 0
 1728 0092 074B     		ldr	r3, .L86+8
 1729 0094 0322     		mov	r2, #3
 1730 0096 1A70     		strb	r2, [r3]
 1731              	.L85:
 1732              	.LBE22:
 1733              	.LBE20:
  71:.\ros_lib\examples\I2C/I2C_device.cpp **** 		}
  72:.\ros_lib\examples\I2C/I2C_device.cpp ****     }
  73:.\ros_lib\examples\I2C/I2C_device.cpp ****     // restore cmd msg buffer max size
  74:.\ros_lib\examples\I2C/I2C_device.cpp ****     const_cast<std_msgs::UInt8MultiArray&>(msg).data_length = MAX_CMD_BYTES;
 1734              		.loc 6 74 0
 1735 0098 7B68     		ldr	r3, [r7, #4]
 1736 009a 2422     		mov	r2, #36
 1737 009c 0821     		mov	r1, #8
ARM GAS  C:\Users\Chuck\AppData\Local\Temp\ccNCRqO6.s 			page 39


 1738 009e 9954     		strb	r1, [r3, r2]
 1739              	.L80:
 1740              	.LBE19:
  75:.\ros_lib\examples\I2C/I2C_device.cpp **** }
 1741              		.loc 6 75 0
 1742 00a0 BD46     		mov	sp, r7
 1743 00a2 04B0     		add	sp, sp, #16
 1744              		@ sp needed
 1745 00a4 80BD     		pop	{r7, pc}
 1746              	.L87:
 1747 00a6 C046     		.align	2
 1748              	.L86:
 1749 00a8 00000000 		.word	_ZN10I2C_device18max_readback_bytesE
 1750 00ac 00000000 		.word	_ZN10I2C_device7i2caddrE
 1751 00b0 00000000 		.word	_ZN10I2C_device5stateE
 1752 00b4 00000000 		.word	_ZN10I2C_device9reply_msgE
 1753              		.cfi_endproc
 1754              	.LFE180:
 1755              		.size	_ZN10I2C_device13readMessageCbERKN8std_msgs15UInt8MultiArrayE, .-_ZN10I2C_device13readMessag
 1756              		.global	_ZN10I2C_device9cmd_sub_wE
 1757              		.bss
 1758 005b 00       		.align	2
 1759              		.type	_ZN10I2C_device9cmd_sub_wE, %object
 1760              		.size	_ZN10I2C_device9cmd_sub_wE, 68
 1761              	_ZN10I2C_device9cmd_sub_wE:
 1762 005c 00000000 		.space	68
 1762      00000000 
 1762      00000000 
 1762      00000000 
 1762      00000000 
 1763              		.global	_ZN10I2C_device9cmd_sub_rE
 1764              		.align	2
 1765              		.type	_ZN10I2C_device9cmd_sub_rE, %object
 1766              		.size	_ZN10I2C_device9cmd_sub_rE, 68
 1767              	_ZN10I2C_device9cmd_sub_rE:
 1768 00a0 00000000 		.space	68
 1768      00000000 
 1768      00000000 
 1768      00000000 
 1768      00000000 
 1769              		.global	_ZN10I2C_device7cmd_dimE
 1770              		.align	2
 1771              		.type	_ZN10I2C_device7cmd_dimE, %object
 1772              		.size	_ZN10I2C_device7cmd_dimE, 16
 1773              	_ZN10I2C_device7cmd_dimE:
 1774 00e4 00000000 		.space	16
 1774      00000000 
 1774      00000000 
 1774      00000000 
 1775              		.global	_ZN10I2C_device8cmd_dataE
 1776              		.align	2
 1777              		.type	_ZN10I2C_device8cmd_dataE, %object
 1778              		.size	_ZN10I2C_device8cmd_dataE, 8
 1779              	_ZN10I2C_device8cmd_dataE:
 1780 00f4 00000000 		.space	8
 1780      00000000 
 1781              		.section	.rodata
ARM GAS  C:\Users\Chuck\AppData\Local\Temp\ccNCRqO6.s 			page 40


 1782 00c5 000000   		.align	2
 1783              	.LC25:
 1784 00c8 7265706C 		.ascii	"reply\000"
 1784      7900
 1785              		.section	.text._ZN10I2C_device5setupEv,"ax",%progbits
 1786              		.align	2
 1787              		.global	_ZN10I2C_device5setupEv
 1788              		.code	16
 1789              		.thumb_func
 1790              		.type	_ZN10I2C_device5setupEv, %function
 1791              	_ZN10I2C_device5setupEv:
 1792              	.LFB181:
  76:.\ros_lib\examples\I2C/I2C_device.cpp **** 
  77:.\ros_lib\examples\I2C/I2C_device.cpp **** ros::Subscriber<std_msgs::UInt8MultiArray> cmd_sub_w("i2c_write", &writeMessageCb);
  78:.\ros_lib\examples\I2C/I2C_device.cpp **** ros::Subscriber<std_msgs::UInt8MultiArray> cmd_sub_r("i2c_read", &readMessageCb);
  79:.\ros_lib\examples\I2C/I2C_device.cpp **** std_msgs::MultiArrayDimension cmd_dim[1];
  80:.\ros_lib\examples\I2C/I2C_device.cpp **** uint8_t cmd_data[MAX_CMD_BYTES]; 
  81:.\ros_lib\examples\I2C/I2C_device.cpp **** 
  82:.\ros_lib\examples\I2C/I2C_device.cpp **** void setup() {
 1793              		.loc 6 82 0
 1794              		.cfi_startproc
 1795 0000 80B5     		push	{r7, lr}
 1796              		.cfi_def_cfa_offset 8
 1797              		.cfi_offset 7, -8
 1798              		.cfi_offset 14, -4
 1799 0002 00AF     		add	r7, sp, #0
 1800              		.cfi_def_cfa_register 7
  83:.\ros_lib\examples\I2C/I2C_device.cpp **** 
  84:.\ros_lib\examples\I2C/I2C_device.cpp ****     //I2CMaster_scl_SetDriveMode(I2CMaster_scl_DM_RES_UP);
  85:.\ros_lib\examples\I2C/I2C_device.cpp ****     //I2CMaster_sda_SetDriveMode(I2CMaster_sda_DM_RES_UP);
  86:.\ros_lib\examples\I2C/I2C_device.cpp ****     I2CMaster_Start();
 1801              		.loc 6 86 0
 1802 0004 FFF7FEFF 		bl	I2CMaster_Start
  87:.\ros_lib\examples\I2C/I2C_device.cpp **** 	
  88:.\ros_lib\examples\I2C/I2C_device.cpp **** 	// initialize 1-dimensional array message for SPI data reply
  89:.\ros_lib\examples\I2C/I2C_device.cpp **** 	reply_msg.layout.dim_length = 1;
 1803              		.loc 6 89 0
 1804 0008 244B     		ldr	r3, .L89
 1805 000a 0122     		mov	r2, #1
 1806 000c 1A72     		strb	r2, [r3, #8]
  90:.\ros_lib\examples\I2C/I2C_device.cpp **** 	reply_msg.layout.data_offset = 0;
 1807              		.loc 6 90 0
 1808 000e 234B     		ldr	r3, .L89
 1809 0010 0022     		mov	r2, #0
 1810 0012 1A62     		str	r2, [r3, #32]
  91:.\ros_lib\examples\I2C/I2C_device.cpp **** 	reply_msg.layout.dim = reply_dim;
 1811              		.loc 6 91 0
 1812 0014 214B     		ldr	r3, .L89
 1813 0016 224A     		ldr	r2, .L89+4
 1814 0018 DA61     		str	r2, [r3, #28]
  92:.\ros_lib\examples\I2C/I2C_device.cpp **** 	reply_msg.layout.dim[0].label = const_cast<char*>("reply");
 1815              		.loc 6 92 0
 1816 001a 204B     		ldr	r3, .L89
 1817 001c DB69     		ldr	r3, [r3, #28]
 1818 001e 214A     		ldr	r2, .L89+8
 1819 0020 5A60     		str	r2, [r3, #4]
  93:.\ros_lib\examples\I2C/I2C_device.cpp **** 	reply_msg.layout.dim[0].size = 0;
ARM GAS  C:\Users\Chuck\AppData\Local\Temp\ccNCRqO6.s 			page 41


 1820              		.loc 6 93 0
 1821 0022 1E4B     		ldr	r3, .L89
 1822 0024 DB69     		ldr	r3, [r3, #28]
 1823 0026 0022     		mov	r2, #0
 1824 0028 9A60     		str	r2, [r3, #8]
  94:.\ros_lib\examples\I2C/I2C_device.cpp **** 	reply_msg.layout.dim[0].stride = MAX_REPLY_BYTES;
 1825              		.loc 6 94 0
 1826 002a 1C4B     		ldr	r3, .L89
 1827 002c DB69     		ldr	r3, [r3, #28]
 1828 002e 0822     		mov	r2, #8
 1829 0030 DA60     		str	r2, [r3, #12]
  95:.\ros_lib\examples\I2C/I2C_device.cpp **** 	reply_msg.data = reply_data;
 1830              		.loc 6 95 0
 1831 0032 1A4B     		ldr	r3, .L89
 1832 0034 1C4A     		ldr	r2, .L89+12
 1833 0036 9A62     		str	r2, [r3, #40]
  96:.\ros_lib\examples\I2C/I2C_device.cpp **** 	reply_msg.data_length = MAX_REPLY_BYTES;
 1834              		.loc 6 96 0
 1835 0038 184B     		ldr	r3, .L89
 1836 003a 2422     		mov	r2, #36
 1837 003c 0821     		mov	r1, #8
 1838 003e 9954     		strb	r1, [r3, r2]
  97:.\ros_lib\examples\I2C/I2C_device.cpp **** 	nh.advertise(reply_pub);
 1839              		.loc 6 97 0
 1840 0040 1A4A     		ldr	r2, .L89+16
 1841 0042 1B4B     		ldr	r3, .L89+20
 1842 0044 101C     		mov	r0, r2
 1843 0046 191C     		mov	r1, r3
 1844 0048 FFF7FEFF 		bl	_ZN3ros11NodeHandle_I13Psoc4HardwareLi10ELi20ELi200ELi200EE9advertiseERNS_9PublisherE
  98:.\ros_lib\examples\I2C/I2C_device.cpp ****     // attach message storage to I2C command messages & set max size
  99:.\ros_lib\examples\I2C/I2C_device.cpp ****     cmd_sub_w.msg.data = cmd_data;
 1845              		.loc 6 99 0
 1846 004c 194B     		ldr	r3, .L89+24
 1847 004e 1A4A     		ldr	r2, .L89+28
 1848 0050 5A63     		str	r2, [r3, #52]
 100:.\ros_lib\examples\I2C/I2C_device.cpp ****     cmd_sub_w.msg.data_length = MAX_CMD_BYTES;
 1849              		.loc 6 100 0
 1850 0052 184B     		ldr	r3, .L89+24
 1851 0054 3022     		mov	r2, #48
 1852 0056 0821     		mov	r1, #8
 1853 0058 9954     		strb	r1, [r3, r2]
 101:.\ros_lib\examples\I2C/I2C_device.cpp ****     cmd_sub_w.msg.layout.dim = cmd_dim;
 1854              		.loc 6 101 0
 1855 005a 164B     		ldr	r3, .L89+24
 1856 005c 174A     		ldr	r2, .L89+32
 1857 005e 9A62     		str	r2, [r3, #40]
 102:.\ros_lib\examples\I2C/I2C_device.cpp ****     cmd_sub_w.msg.layout.dim_length = 1;
 1858              		.loc 6 102 0
 1859 0060 144B     		ldr	r3, .L89+24
 1860 0062 0122     		mov	r2, #1
 1861 0064 1A75     		strb	r2, [r3, #20]
 103:.\ros_lib\examples\I2C/I2C_device.cpp **** 	nh.subscribe(cmd_sub_w);
 1862              		.loc 6 103 0
 1863 0066 114A     		ldr	r2, .L89+16
 1864 0068 124B     		ldr	r3, .L89+24
 1865 006a 101C     		mov	r0, r2
 1866 006c 191C     		mov	r1, r3
ARM GAS  C:\Users\Chuck\AppData\Local\Temp\ccNCRqO6.s 			page 42


 1867 006e FFF7FEFF 		bl	_ZN3ros11NodeHandle_I13Psoc4HardwareLi10ELi20ELi200ELi200EE9subscribeIN8std_msgs15UInt8MultiArr
 104:.\ros_lib\examples\I2C/I2C_device.cpp ****     cmd_sub_r.msg.data = cmd_data;
 1868              		.loc 6 104 0
 1869 0072 134B     		ldr	r3, .L89+36
 1870 0074 104A     		ldr	r2, .L89+28
 1871 0076 5A63     		str	r2, [r3, #52]
 105:.\ros_lib\examples\I2C/I2C_device.cpp ****     cmd_sub_r.msg.data_length = MAX_CMD_BYTES;
 1872              		.loc 6 105 0
 1873 0078 114B     		ldr	r3, .L89+36
 1874 007a 3022     		mov	r2, #48
 1875 007c 0821     		mov	r1, #8
 1876 007e 9954     		strb	r1, [r3, r2]
 106:.\ros_lib\examples\I2C/I2C_device.cpp ****     cmd_sub_r.msg.layout.dim = cmd_dim;
 1877              		.loc 6 106 0
 1878 0080 0F4B     		ldr	r3, .L89+36
 1879 0082 0E4A     		ldr	r2, .L89+32
 1880 0084 9A62     		str	r2, [r3, #40]
 107:.\ros_lib\examples\I2C/I2C_device.cpp ****     cmd_sub_r.msg.layout.dim_length = 1;
 1881              		.loc 6 107 0
 1882 0086 0E4B     		ldr	r3, .L89+36
 1883 0088 0122     		mov	r2, #1
 1884 008a 1A75     		strb	r2, [r3, #20]
 108:.\ros_lib\examples\I2C/I2C_device.cpp **** 	nh.subscribe(cmd_sub_r);
 1885              		.loc 6 108 0
 1886 008c 074A     		ldr	r2, .L89+16
 1887 008e 0C4B     		ldr	r3, .L89+36
 1888 0090 101C     		mov	r0, r2
 1889 0092 191C     		mov	r1, r3
 1890 0094 FFF7FEFF 		bl	_ZN3ros11NodeHandle_I13Psoc4HardwareLi10ELi20ELi200ELi200EE9subscribeIN8std_msgs15UInt8MultiArr
 109:.\ros_lib\examples\I2C/I2C_device.cpp **** }
 1891              		.loc 6 109 0
 1892 0098 BD46     		mov	sp, r7
 1893              		@ sp needed
 1894 009a 80BD     		pop	{r7, pc}
 1895              	.L90:
 1896              		.align	2
 1897              	.L89:
 1898 009c 00000000 		.word	_ZN10I2C_device9reply_msgE
 1899 00a0 00000000 		.word	_ZN10I2C_device9reply_dimE
 1900 00a4 C8000000 		.word	.LC25
 1901 00a8 00000000 		.word	_ZN10I2C_device10reply_dataE
 1902 00ac 00000000 		.word	nh
 1903 00b0 00000000 		.word	_ZN10I2C_device9reply_pubE
 1904 00b4 00000000 		.word	_ZN10I2C_device9cmd_sub_wE
 1905 00b8 00000000 		.word	_ZN10I2C_device8cmd_dataE
 1906 00bc 00000000 		.word	_ZN10I2C_device7cmd_dimE
 1907 00c0 00000000 		.word	_ZN10I2C_device9cmd_sub_rE
 1908              		.cfi_endproc
 1909              	.LFE181:
 1910              		.size	_ZN10I2C_device5setupEv, .-_ZN10I2C_device5setupEv
 1911              		.section	.text._ZN10I2C_device4loopEv,"ax",%progbits
 1912              		.align	2
 1913              		.global	_ZN10I2C_device4loopEv
 1914              		.code	16
 1915              		.thumb_func
 1916              		.type	_ZN10I2C_device4loopEv, %function
 1917              	_ZN10I2C_device4loopEv:
ARM GAS  C:\Users\Chuck\AppData\Local\Temp\ccNCRqO6.s 			page 43


 1918              	.LFB182:
 110:.\ros_lib\examples\I2C/I2C_device.cpp **** 
 111:.\ros_lib\examples\I2C/I2C_device.cpp **** void loop() {
 1919              		.loc 6 111 0
 1920              		.cfi_startproc
 1921 0000 80B5     		push	{r7, lr}
 1922              		.cfi_def_cfa_offset 8
 1923              		.cfi_offset 7, -8
 1924              		.cfi_offset 14, -4
 1925 0002 82B0     		sub	sp, sp, #8
 1926              		.cfi_def_cfa_offset 16
 1927 0004 00AF     		add	r7, sp, #0
 1928              		.cfi_def_cfa_register 7
 1929              	.LBB23:
 1930              	.LBB24:
 112:.\ros_lib\examples\I2C/I2C_device.cpp **** 
 113:.\ros_lib\examples\I2C/I2C_device.cpp ****     if(state==state_read_setup && I2CMaster_I2CMasterStatus()==I2CMaster_I2C_MSTAT_WR_CMPLT) {
 1931              		.loc 6 113 0
 1932 0006 344B     		ldr	r3, .L102
 1933 0008 1B78     		ldrb	r3, [r3]
 1934 000a 022B     		cmp	r3, #2
 1935 000c 06D1     		bne	.L92
 1936              		.loc 6 113 0 is_stmt 0 discriminator 1
 1937 000e FFF7FEFF 		bl	I2CMaster_I2CMasterStatus
 1938 0012 031E     		sub	r3, r0, #0
 1939 0014 022B     		cmp	r3, #2
 1940 0016 01D1     		bne	.L92
 1941              		.loc 6 113 0 discriminator 3
 1942 0018 0123     		mov	r3, #1
 1943 001a 00E0     		b	.L93
 1944              	.L92:
 1945              		.loc 6 113 0 discriminator 4
 1946 001c 0023     		mov	r3, #0
 1947              	.L93:
 1948              		.loc 6 113 0 discriminator 6
 1949 001e 002B     		cmp	r3, #0
 1950 0020 17D0     		beq	.L94
 1951              	.LBB25:
 114:.\ros_lib\examples\I2C/I2C_device.cpp ****         // read transfer setup phase complete; start read data transfer
 115:.\ros_lib\examples\I2C/I2C_device.cpp **** 		
 116:.\ros_lib\examples\I2C/I2C_device.cpp ****         uint32_t status = I2CMaster_I2CMasterReadBuf(i2caddr, reply_msg.data, max_readback_bytes,
 117:.\ros_lib\examples\I2C/I2C_device.cpp ****                              I2CMaster_I2C_MODE_COMPLETE_XFER);
 1952              		.loc 6 117 0 is_stmt 1
 1953 0022 2E4B     		ldr	r3, .L102+4
 1954 0024 1B78     		ldrb	r3, [r3]
 1955 0026 191C     		mov	r1, r3
 1956 0028 2D4B     		ldr	r3, .L102+8
 1957 002a 9A6A     		ldr	r2, [r3, #40]
 1958 002c 2D4B     		ldr	r3, .L102+12
 1959 002e 1B78     		ldrb	r3, [r3]
 1960 0030 081C     		mov	r0, r1
 1961 0032 111C     		mov	r1, r2
 1962 0034 1A1C     		mov	r2, r3
 1963 0036 0023     		mov	r3, #0
 1964 0038 FFF7FEFF 		bl	I2CMaster_I2CMasterReadBuf
 1965 003c 031C     		mov	r3, r0
 1966 003e 7B60     		str	r3, [r7, #4]
ARM GAS  C:\Users\Chuck\AppData\Local\Temp\ccNCRqO6.s 			page 44


 118:.\ros_lib\examples\I2C/I2C_device.cpp ****         if (status == I2CMaster_I2C_MSTR_NO_ERROR) {
 1967              		.loc 6 118 0
 1968 0040 7B68     		ldr	r3, [r7, #4]
 1969 0042 002B     		cmp	r3, #0
 1970 0044 02D1     		bne	.L95
 119:.\ros_lib\examples\I2C/I2C_device.cpp ****             state = state_reading;
 1971              		.loc 6 119 0
 1972 0046 244B     		ldr	r3, .L102
 1973 0048 0322     		mov	r2, #3
 1974 004a 1A70     		strb	r2, [r3]
 1975              	.L95:
 120:.\ros_lib\examples\I2C/I2C_device.cpp ****         }
 121:.\ros_lib\examples\I2C/I2C_device.cpp ****         I2CMaster_I2CMasterClearStatus();
 1976              		.loc 6 121 0
 1977 004c FFF7FEFF 		bl	I2CMaster_I2CMasterClearStatus
 1978              	.LBE25:
 1979 0050 3FE0     		b	.L91
 1980              	.L94:
 122:.\ros_lib\examples\I2C/I2C_device.cpp ****     } else if (state==state_reading  && I2CMaster_I2CMasterStatus()==I2CMaster_I2C_MSTAT_RD_CMPLT) 
 1981              		.loc 6 122 0
 1982 0052 214B     		ldr	r3, .L102
 1983 0054 1B78     		ldrb	r3, [r3]
 1984 0056 032B     		cmp	r3, #3
 1985 0058 06D1     		bne	.L97
 1986              		.loc 6 122 0 is_stmt 0 discriminator 1
 1987 005a FFF7FEFF 		bl	I2CMaster_I2CMasterStatus
 1988 005e 031E     		sub	r3, r0, #0
 1989 0060 012B     		cmp	r3, #1
 1990 0062 01D1     		bne	.L97
 1991              		.loc 6 122 0 discriminator 3
 1992 0064 0123     		mov	r3, #1
 1993 0066 00E0     		b	.L98
 1994              	.L97:
 1995              		.loc 6 122 0 discriminator 4
 1996 0068 0023     		mov	r3, #0
 1997              	.L98:
 1998              		.loc 6 122 0 discriminator 6
 1999 006a 002B     		cmp	r3, #0
 2000 006c 1ED0     		beq	.L99
 123:.\ros_lib\examples\I2C/I2C_device.cpp ****         // read operation is complete; publish reply
 124:.\ros_lib\examples\I2C/I2C_device.cpp **** 	    reply_msg.data_length = I2CMaster_I2CMasterGetReadBufSize();
 2001              		.loc 6 124 0 is_stmt 1
 2002 006e FFF7FEFF 		bl	I2CMaster_I2CMasterGetReadBufSize
 2003 0072 031C     		mov	r3, r0
 2004 0074 D9B2     		uxtb	r1, r3
 2005 0076 1A4B     		ldr	r3, .L102+8
 2006 0078 2422     		mov	r2, #36
 2007 007a 9954     		strb	r1, [r3, r2]
 125:.\ros_lib\examples\I2C/I2C_device.cpp ****         I2CMaster_I2CMasterClearReadBuf();
 2008              		.loc 6 125 0
 2009 007c FFF7FEFF 		bl	I2CMaster_I2CMasterClearReadBuf
 126:.\ros_lib\examples\I2C/I2C_device.cpp **** 	    reply_msg.layout.dim[0].size = reply_msg.data_length;
 2010              		.loc 6 126 0
 2011 0080 174B     		ldr	r3, .L102+8
 2012 0082 DB69     		ldr	r3, [r3, #28]
 2013 0084 164A     		ldr	r2, .L102+8
 2014 0086 2421     		mov	r1, #36
ARM GAS  C:\Users\Chuck\AppData\Local\Temp\ccNCRqO6.s 			page 45


 2015 0088 525C     		ldrb	r2, [r2, r1]
 2016 008a 9A60     		str	r2, [r3, #8]
 127:.\ros_lib\examples\I2C/I2C_device.cpp **** 		reply_pub.publish(&reply_msg);
 2017              		.loc 6 127 0
 2018 008c 164A     		ldr	r2, .L102+16
 2019 008e 144B     		ldr	r3, .L102+8
 2020 0090 101C     		mov	r0, r2
 2021 0092 191C     		mov	r1, r3
 2022 0094 FFF7FEFF 		bl	_ZN3ros9Publisher7publishEPKNS_3MsgE
 128:.\ros_lib\examples\I2C/I2C_device.cpp **** 		reply_msg.data_length = MAX_REPLY_BYTES;
 2023              		.loc 6 128 0
 2024 0098 114B     		ldr	r3, .L102+8
 2025 009a 2422     		mov	r2, #36
 2026 009c 0821     		mov	r1, #8
 2027 009e 9954     		strb	r1, [r3, r2]
 129:.\ros_lib\examples\I2C/I2C_device.cpp **** 		state = state_idle;
 2028              		.loc 6 129 0
 2029 00a0 0D4B     		ldr	r3, .L102
 2030 00a2 0022     		mov	r2, #0
 2031 00a4 1A70     		strb	r2, [r3]
 130:.\ros_lib\examples\I2C/I2C_device.cpp ****         I2CMaster_I2CMasterClearStatus();
 2032              		.loc 6 130 0
 2033 00a6 FFF7FEFF 		bl	I2CMaster_I2CMasterClearStatus
 2034 00aa 12E0     		b	.L91
 2035              	.L99:
 131:.\ros_lib\examples\I2C/I2C_device.cpp **** 	} else if (state==state_writing && I2CMaster_I2CMasterStatus()==I2CMaster_I2C_MSTAT_WR_CMPLT) {
 2036              		.loc 6 131 0
 2037 00ac 0A4B     		ldr	r3, .L102
 2038 00ae 1B78     		ldrb	r3, [r3]
 2039 00b0 012B     		cmp	r3, #1
 2040 00b2 06D1     		bne	.L100
 2041              		.loc 6 131 0 is_stmt 0 discriminator 1
 2042 00b4 FFF7FEFF 		bl	I2CMaster_I2CMasterStatus
 2043 00b8 031E     		sub	r3, r0, #0
 2044 00ba 022B     		cmp	r3, #2
 2045 00bc 01D1     		bne	.L100
 2046              		.loc 6 131 0 discriminator 3
 2047 00be 0123     		mov	r3, #1
 2048 00c0 00E0     		b	.L101
 2049              	.L100:
 2050              		.loc 6 131 0 discriminator 4
 2051 00c2 0023     		mov	r3, #0
 2052              	.L101:
 2053              		.loc 6 131 0 discriminator 6
 2054 00c4 002B     		cmp	r3, #0
 2055 00c6 04D0     		beq	.L91
 132:.\ros_lib\examples\I2C/I2C_device.cpp ****         // write operation is complete
 133:.\ros_lib\examples\I2C/I2C_device.cpp ****         state = state_idle;
 2056              		.loc 6 133 0 is_stmt 1
 2057 00c8 034B     		ldr	r3, .L102
 2058 00ca 0022     		mov	r2, #0
 2059 00cc 1A70     		strb	r2, [r3]
 134:.\ros_lib\examples\I2C/I2C_device.cpp ****         I2CMaster_I2CMasterClearStatus();
 2060              		.loc 6 134 0
 2061 00ce FFF7FEFF 		bl	I2CMaster_I2CMasterClearStatus
 2062              	.L91:
 2063              	.LBE24:
ARM GAS  C:\Users\Chuck\AppData\Local\Temp\ccNCRqO6.s 			page 46


 2064              	.LBE23:
 135:.\ros_lib\examples\I2C/I2C_device.cpp ****     }
 136:.\ros_lib\examples\I2C/I2C_device.cpp ****            
 137:.\ros_lib\examples\I2C/I2C_device.cpp ****  }
 2065              		.loc 6 137 0
 2066 00d2 BD46     		mov	sp, r7
 2067 00d4 02B0     		add	sp, sp, #8
 2068              		@ sp needed
 2069 00d6 80BD     		pop	{r7, pc}
 2070              	.L103:
 2071              		.align	2
 2072              	.L102:
 2073 00d8 00000000 		.word	_ZN10I2C_device5stateE
 2074 00dc 00000000 		.word	_ZN10I2C_device7i2caddrE
 2075 00e0 00000000 		.word	_ZN10I2C_device9reply_msgE
 2076 00e4 00000000 		.word	_ZN10I2C_device18max_readback_bytesE
 2077 00e8 00000000 		.word	_ZN10I2C_device9reply_pubE
 2078              		.cfi_endproc
 2079              	.LFE182:
 2080              		.size	_ZN10I2C_device4loopEv, .-_ZN10I2C_device4loopEv
 2081              		.section	.text._ZN3ros11Subscriber_C2Ev,"axG",%progbits,_ZN3ros11Subscriber_C5Ev,comdat
 2082              		.align	2
 2083              		.weak	_ZN3ros11Subscriber_C2Ev
 2084              		.code	16
 2085              		.thumb_func
 2086              		.type	_ZN3ros11Subscriber_C2Ev, %function
 2087              	_ZN3ros11Subscriber_C2Ev:
 2088              	.LFB185:
 2089              		.file 7 "./ros_lib/ros/subscriber.h"
   1:./ros_lib/ros/subscriber.h **** /* 
   2:./ros_lib/ros/subscriber.h ****  * Software License Agreement (BSD License)
   3:./ros_lib/ros/subscriber.h ****  *
   4:./ros_lib/ros/subscriber.h ****  * Copyright (c) 2011, Willow Garage, Inc.
   5:./ros_lib/ros/subscriber.h ****  * All rights reserved.
   6:./ros_lib/ros/subscriber.h ****  *
   7:./ros_lib/ros/subscriber.h ****  * Redistribution and use in source and binary forms, with or without
   8:./ros_lib/ros/subscriber.h ****  * modification, are permitted provided that the following conditions
   9:./ros_lib/ros/subscriber.h ****  * are met:
  10:./ros_lib/ros/subscriber.h ****  *
  11:./ros_lib/ros/subscriber.h ****  *  * Redistributions of source code must retain the above copyright
  12:./ros_lib/ros/subscriber.h ****  *    notice, this list of conditions and the following disclaimer.
  13:./ros_lib/ros/subscriber.h ****  *  * Redistributions in binary form must reproduce the above
  14:./ros_lib/ros/subscriber.h ****  *    copyright notice, this list of conditions and the following
  15:./ros_lib/ros/subscriber.h ****  *    disclaimer in the documentation and/or other materials provided
  16:./ros_lib/ros/subscriber.h ****  *    with the distribution.
  17:./ros_lib/ros/subscriber.h ****  *  * Neither the name of Willow Garage, Inc. nor the names of its
  18:./ros_lib/ros/subscriber.h ****  *    contributors may be used to endorse or promote prducts derived
  19:./ros_lib/ros/subscriber.h ****  *    from this software without specific prior written permission.
  20:./ros_lib/ros/subscriber.h ****  *
  21:./ros_lib/ros/subscriber.h ****  * THIS SOFTWARE IS PROVIDED BY THE COPYRIGHT HOLDERS AND CONTRIBUTORS
  22:./ros_lib/ros/subscriber.h ****  * "AS IS" AND ANY EXPRESS OR IMPLIED WARRANTIES, INCLUDING, BUT NOT
  23:./ros_lib/ros/subscriber.h ****  * LIMITED TO, THE IMPLIED WARRANTIES OF MERCHANTABILITY AND FITNESS
  24:./ros_lib/ros/subscriber.h ****  * FOR A PARTICULAR PURPOSE ARE DISCLAIMED. IN NO EVENT SHALL THE
  25:./ros_lib/ros/subscriber.h ****  * COPYRIGHT OWNER OR CONTRIBUTORS BE LIABLE FOR ANY DIRECT, INDIRECT,
  26:./ros_lib/ros/subscriber.h ****  * INCIDENTAL, SPECIAL, EXEMPLARY, OR CONSEQUENTIAL DAMAGES (INCLUDING,
  27:./ros_lib/ros/subscriber.h ****  * BUT NOT LIMITED TO, PROCUREMENT OF SUBSTITUTE GOODS OR SERVICES;
  28:./ros_lib/ros/subscriber.h ****  * LOSS OF USE, DATA, OR PROFITS; OR BUSINESS INTERRUPTION) HOWEVER
ARM GAS  C:\Users\Chuck\AppData\Local\Temp\ccNCRqO6.s 			page 47


  29:./ros_lib/ros/subscriber.h ****  * CAUSED AND ON ANY THEORY OF LIABILITY, WHETHER IN CONTRACT, STRICT
  30:./ros_lib/ros/subscriber.h ****  * LIABILITY, OR TORT (INCLUDING NEGLIGENCE OR OTHERWISE) ARISING IN
  31:./ros_lib/ros/subscriber.h ****  * ANY WAY OUT OF THE USE OF THIS SOFTWARE, EVEN IF ADVISED OF THE
  32:./ros_lib/ros/subscriber.h ****  * POSSIBILITY OF SUCH DAMAGE.
  33:./ros_lib/ros/subscriber.h ****  */
  34:./ros_lib/ros/subscriber.h **** 
  35:./ros_lib/ros/subscriber.h **** #ifndef ROS_SUBSCRIBER_H_
  36:./ros_lib/ros/subscriber.h **** #define ROS_SUBSCRIBER_H_
  37:./ros_lib/ros/subscriber.h **** 
  38:./ros_lib/ros/subscriber.h **** #include "rosserial_msgs/TopicInfo.h"
  39:./ros_lib/ros/subscriber.h **** 
  40:./ros_lib/ros/subscriber.h **** namespace ros {
  41:./ros_lib/ros/subscriber.h **** 
  42:./ros_lib/ros/subscriber.h ****   /* Base class for objects subscribers. */
  43:./ros_lib/ros/subscriber.h ****   class Subscriber_
 2090              		.loc 7 43 0
 2091              		.cfi_startproc
 2092 0000 80B5     		push	{r7, lr}
 2093              		.cfi_def_cfa_offset 8
 2094              		.cfi_offset 7, -8
 2095              		.cfi_offset 14, -4
 2096 0002 82B0     		sub	sp, sp, #8
 2097              		.cfi_def_cfa_offset 16
 2098 0004 00AF     		add	r7, sp, #0
 2099              		.cfi_def_cfa_register 7
 2100 0006 7860     		str	r0, [r7, #4]
 2101              	.LBB26:
 2102              		.loc 7 43 0
 2103 0008 7B68     		ldr	r3, [r7, #4]
 2104 000a 034A     		ldr	r2, .L107
 2105 000c 1A60     		str	r2, [r3]
 2106              	.LBE26:
 2107 000e 7B68     		ldr	r3, [r7, #4]
 2108 0010 181C     		mov	r0, r3
 2109 0012 BD46     		mov	sp, r7
 2110 0014 02B0     		add	sp, sp, #8
 2111              		@ sp needed
 2112 0016 80BD     		pop	{r7, pc}
 2113              	.L108:
 2114              		.align	2
 2115              	.L107:
 2116 0018 08000000 		.word	_ZTVN3ros11Subscriber_E+8
 2117              		.cfi_endproc
 2118              	.LFE185:
 2119              		.size	_ZN3ros11Subscriber_C2Ev, .-_ZN3ros11Subscriber_C2Ev
 2120              		.weak	_ZN3ros11Subscriber_C1Ev
 2121              		.thumb_set _ZN3ros11Subscriber_C1Ev,_ZN3ros11Subscriber_C2Ev
 2122              		.section	.text._ZN3ros10SubscriberIN8std_msgs15UInt8MultiArrayEEC2EPKcPFvRKS2_Ei,"axG",%progbits,_
 2123              		.align	2
 2124              		.weak	_ZN3ros10SubscriberIN8std_msgs15UInt8MultiArrayEEC2EPKcPFvRKS2_Ei
 2125              		.code	16
 2126              		.thumb_func
 2127              		.type	_ZN3ros10SubscriberIN8std_msgs15UInt8MultiArrayEEC2EPKcPFvRKS2_Ei, %function
 2128              	_ZN3ros10SubscriberIN8std_msgs15UInt8MultiArrayEEC2EPKcPFvRKS2_Ei:
 2129              	.LFB187:
  44:./ros_lib/ros/subscriber.h ****   {
  45:./ros_lib/ros/subscriber.h ****     public:
ARM GAS  C:\Users\Chuck\AppData\Local\Temp\ccNCRqO6.s 			page 48


  46:./ros_lib/ros/subscriber.h ****       virtual void callback(unsigned char *data)=0;
  47:./ros_lib/ros/subscriber.h ****       virtual int getEndpointType()=0;
  48:./ros_lib/ros/subscriber.h **** 
  49:./ros_lib/ros/subscriber.h ****       // id_ is set by NodeHandle when we advertise 
  50:./ros_lib/ros/subscriber.h ****       int id_;
  51:./ros_lib/ros/subscriber.h **** 
  52:./ros_lib/ros/subscriber.h ****       virtual const char * getMsgType()=0;
  53:./ros_lib/ros/subscriber.h ****       virtual const char * getMsgMD5()=0;
  54:./ros_lib/ros/subscriber.h ****       const char * topic_;
  55:./ros_lib/ros/subscriber.h ****   };
  56:./ros_lib/ros/subscriber.h **** 
  57:./ros_lib/ros/subscriber.h **** 
  58:./ros_lib/ros/subscriber.h ****   /* Actual subscriber, templated on message type. */
  59:./ros_lib/ros/subscriber.h ****   template<typename MsgT>
  60:./ros_lib/ros/subscriber.h ****   class Subscriber: public Subscriber_{
  61:./ros_lib/ros/subscriber.h ****     public:
  62:./ros_lib/ros/subscriber.h ****       typedef void(*CallbackT)(const MsgT&);
  63:./ros_lib/ros/subscriber.h ****       MsgT msg;
  64:./ros_lib/ros/subscriber.h ****       // Rosserial standard callback
  65:./ros_lib/ros/subscriber.h ****       Subscriber(const char * topic_name, CallbackT cb, int endpoint=rosserial_msgs::TopicInfo::ID_
 2130              		.loc 7 65 0
 2131              		.cfi_startproc
 2132 0000 80B5     		push	{r7, lr}
 2133              		.cfi_def_cfa_offset 8
 2134              		.cfi_offset 7, -8
 2135              		.cfi_offset 14, -4
 2136 0002 84B0     		sub	sp, sp, #16
 2137              		.cfi_def_cfa_offset 24
 2138 0004 00AF     		add	r7, sp, #0
 2139              		.cfi_def_cfa_register 7
 2140 0006 F860     		str	r0, [r7, #12]
 2141 0008 B960     		str	r1, [r7, #8]
 2142 000a 7A60     		str	r2, [r7, #4]
 2143 000c 3B60     		str	r3, [r7]
 2144              	.LBB27:
  66:./ros_lib/ros/subscriber.h ****         cb_(cb), cbp_(NULL),
  67:./ros_lib/ros/subscriber.h ****         endpoint_(endpoint)
 2145              		.loc 7 67 0
 2146 000e FB68     		ldr	r3, [r7, #12]
 2147 0010 181C     		mov	r0, r3
 2148 0012 FFF7FEFF 		bl	_ZN3ros11Subscriber_C2Ev
 2149 0016 FB68     		ldr	r3, [r7, #12]
 2150 0018 0B4A     		ldr	r2, .L112
 2151 001a 1A60     		str	r2, [r3]
 2152 001c FB68     		ldr	r3, [r7, #12]
 2153 001e 0C33     		add	r3, r3, #12
 2154 0020 181C     		mov	r0, r3
 2155 0022 FFF7FEFF 		bl	_ZN8std_msgs15UInt8MultiArrayC1Ev
 2156 0026 FB68     		ldr	r3, [r7, #12]
 2157 0028 7A68     		ldr	r2, [r7, #4]
 2158 002a 9A63     		str	r2, [r3, #56]
 2159 002c FB68     		ldr	r3, [r7, #12]
 2160 002e 0022     		mov	r2, #0
 2161 0030 DA63     		str	r2, [r3, #60]
 2162 0032 FB68     		ldr	r3, [r7, #12]
 2163 0034 3A68     		ldr	r2, [r7]
 2164 0036 1A64     		str	r2, [r3, #64]
ARM GAS  C:\Users\Chuck\AppData\Local\Temp\ccNCRqO6.s 			page 49


  68:./ros_lib/ros/subscriber.h ****       {
  69:./ros_lib/ros/subscriber.h ****         topic_ = topic_name;
 2165              		.loc 7 69 0
 2166 0038 FB68     		ldr	r3, [r7, #12]
 2167 003a BA68     		ldr	r2, [r7, #8]
 2168 003c 9A60     		str	r2, [r3, #8]
 2169              	.LBE27:
  70:./ros_lib/ros/subscriber.h ****       };
 2170              		.loc 7 70 0
 2171 003e FB68     		ldr	r3, [r7, #12]
 2172 0040 181C     		mov	r0, r3
 2173 0042 BD46     		mov	sp, r7
 2174 0044 04B0     		add	sp, sp, #16
 2175              		@ sp needed
 2176 0046 80BD     		pop	{r7, pc}
 2177              	.L113:
 2178              		.align	2
 2179              	.L112:
 2180 0048 08000000 		.word	_ZTVN3ros10SubscriberIN8std_msgs15UInt8MultiArrayEEE+8
 2181              		.cfi_endproc
 2182              	.LFE187:
 2183              		.size	_ZN3ros10SubscriberIN8std_msgs15UInt8MultiArrayEEC2EPKcPFvRKS2_Ei, .-_ZN3ros10SubscriberIN8s
 2184              		.weak	_ZN3ros10SubscriberIN8std_msgs15UInt8MultiArrayEEC1EPKcPFvRKS2_Ei
 2185              		.thumb_set _ZN3ros10SubscriberIN8std_msgs15UInt8MultiArrayEEC1EPKcPFvRKS2_Ei,_ZN3ros10SubscriberIN
 2186              		.section	.text._ZN3ros11NodeHandle_I13Psoc4HardwareLi10ELi20ELi200ELi200EE9advertiseERNS_9Publishe
 2187              		.align	2
 2188              		.weak	_ZN3ros11NodeHandle_I13Psoc4HardwareLi10ELi20ELi200ELi200EE9advertiseERNS_9PublisherE
 2189              		.code	16
 2190              		.thumb_func
 2191              		.type	_ZN3ros11NodeHandle_I13Psoc4HardwareLi10ELi20ELi200ELi200EE9advertiseERNS_9PublisherE, %func
 2192              	_ZN3ros11NodeHandle_I13Psoc4HardwareLi10ELi20ELi200ELi200EE9advertiseERNS_9PublisherE:
 2193              	.LFB189:
 2194              		.file 8 "./ros_lib/ros/node_handle.h"
   1:./ros_lib/ros/node_handle.h **** /*
   2:./ros_lib/ros/node_handle.h ****  * Software License Agreement (BSD License)
   3:./ros_lib/ros/node_handle.h ****  *
   4:./ros_lib/ros/node_handle.h ****  * Copyright (c) 2011, Willow Garage, Inc.
   5:./ros_lib/ros/node_handle.h ****  * All rights reserved.
   6:./ros_lib/ros/node_handle.h ****  *
   7:./ros_lib/ros/node_handle.h ****  * Redistribution and use in source and binary forms, with or without
   8:./ros_lib/ros/node_handle.h ****  * modification, are permitted provided that the following conditions
   9:./ros_lib/ros/node_handle.h ****  * are met:
  10:./ros_lib/ros/node_handle.h ****  *
  11:./ros_lib/ros/node_handle.h ****  *  * Redistributions of source code must retain the above copyright
  12:./ros_lib/ros/node_handle.h ****  *    notice, this list of conditions and the following disclaimer.
  13:./ros_lib/ros/node_handle.h ****  *  * Redistributions in binary form must reproduce the above
  14:./ros_lib/ros/node_handle.h ****  *    copyright notice, this list of conditions and the following
  15:./ros_lib/ros/node_handle.h ****  *    disclaimer in the documentation and/or other materials provided
  16:./ros_lib/ros/node_handle.h ****  *    with the distribution.
  17:./ros_lib/ros/node_handle.h ****  *  * Neither the name of Willow Garage, Inc. nor the names of its
  18:./ros_lib/ros/node_handle.h ****  *    contributors may be used to endorse or promote prducts derived
  19:./ros_lib/ros/node_handle.h ****  *    from this software without specific prior written permission.
  20:./ros_lib/ros/node_handle.h ****  *
  21:./ros_lib/ros/node_handle.h ****  * THIS SOFTWARE IS PROVIDED BY THE COPYRIGHT HOLDERS AND CONTRIBUTORS
  22:./ros_lib/ros/node_handle.h ****  * "AS IS" AND ANY EXPRESS OR IMPLIED WARRANTIES, INCLUDING, BUT NOT
  23:./ros_lib/ros/node_handle.h ****  * LIMITED TO, THE IMPLIED WARRANTIES OF MERCHANTABILITY AND FITNESS
  24:./ros_lib/ros/node_handle.h ****  * FOR A PARTICULAR PURPOSE ARE DISCLAIMED. IN NO EVENT SHALL THE
ARM GAS  C:\Users\Chuck\AppData\Local\Temp\ccNCRqO6.s 			page 50


  25:./ros_lib/ros/node_handle.h ****  * COPYRIGHT OWNER OR CONTRIBUTORS BE LIABLE FOR ANY DIRECT, INDIRECT,
  26:./ros_lib/ros/node_handle.h ****  * INCIDENTAL, SPECIAL, EXEMPLARY, OR CONSEQUENTIAL DAMAGES (INCLUDING,
  27:./ros_lib/ros/node_handle.h ****  * BUT NOT LIMITED TO, PROCUREMENT OF SUBSTITUTE GOODS OR SERVICES;
  28:./ros_lib/ros/node_handle.h ****  * LOSS OF USE, DATA, OR PROFITS; OR BUSINESS INTERRUPTION) HOWEVER
  29:./ros_lib/ros/node_handle.h ****  * CAUSED AND ON ANY THEORY OF LIABILITY, WHETHER IN CONTRACT, STRICT
  30:./ros_lib/ros/node_handle.h ****  * LIABILITY, OR TORT (INCLUDING NEGLIGENCE OR OTHERWISE) ARISING IN
  31:./ros_lib/ros/node_handle.h ****  * ANY WAY OUT OF THE USE OF THIS SOFTWARE, EVEN IF ADVISED OF THE
  32:./ros_lib/ros/node_handle.h ****  * POSSIBILITY OF SUCH DAMAGE.
  33:./ros_lib/ros/node_handle.h ****  */
  34:./ros_lib/ros/node_handle.h **** 
  35:./ros_lib/ros/node_handle.h **** #ifndef ROS_NODE_HANDLE_H_
  36:./ros_lib/ros/node_handle.h **** #define ROS_NODE_HANDLE_H_
  37:./ros_lib/ros/node_handle.h **** 
  38:./ros_lib/ros/node_handle.h **** #ifndef PARAM_REQ_SUPPORT
  39:./ros_lib/ros/node_handle.h **** #define PARAM_REQ_SUPPORT 1
  40:./ros_lib/ros/node_handle.h **** #endif
  41:./ros_lib/ros/node_handle.h **** 
  42:./ros_lib/ros/node_handle.h **** #include "std_msgs/Time.h"
  43:./ros_lib/ros/node_handle.h **** #include "rosserial_msgs/TopicInfo.h"
  44:./ros_lib/ros/node_handle.h **** #include "rosserial_msgs/Log.h"
  45:./ros_lib/ros/node_handle.h **** #if PARAM_REQ_SUPPORT
  46:./ros_lib/ros/node_handle.h **** #include "rosserial_msgs/RequestParam.h"
  47:./ros_lib/ros/node_handle.h **** #endif
  48:./ros_lib/ros/node_handle.h **** 
  49:./ros_lib/ros/node_handle.h **** #define SYNC_SECONDS        2
  50:./ros_lib/ros/node_handle.h **** 
  51:./ros_lib/ros/node_handle.h **** #define MODE_FIRST_FF       0
  52:./ros_lib/ros/node_handle.h **** /*
  53:./ros_lib/ros/node_handle.h ****  * The second sync byte is a protocol version. It's value is 0xff for the first
  54:./ros_lib/ros/node_handle.h ****  * version of the rosserial protocol (used up to hydro), 0xfe for the second version
  55:./ros_lib/ros/node_handle.h ****  * (introduced in hydro), 0xfd for the next, and so on. Its purpose is to enable
  56:./ros_lib/ros/node_handle.h ****  * detection of mismatched protocol versions (e.g. hydro rosserial_python with groovy
  57:./ros_lib/ros/node_handle.h ****  * rosserial_arduino. It must be changed in both this file and in
  58:./ros_lib/ros/node_handle.h ****  * rosserial_python/src/rosserial_python/SerialClient.py
  59:./ros_lib/ros/node_handle.h ****  */
  60:./ros_lib/ros/node_handle.h **** #define MODE_PROTOCOL_VER   1
  61:./ros_lib/ros/node_handle.h **** #define PROTOCOL_VER1		0xff // through groovy
  62:./ros_lib/ros/node_handle.h **** #define PROTOCOL_VER2		0xfe // in hydro
  63:./ros_lib/ros/node_handle.h **** #define PROTOCOL_VER 		PROTOCOL_VER2
  64:./ros_lib/ros/node_handle.h **** #define MODE_SIZE_L         2   
  65:./ros_lib/ros/node_handle.h **** #define MODE_SIZE_H         3
  66:./ros_lib/ros/node_handle.h **** #define MODE_SIZE_CHECKSUM  4   // checksum for msg size received from size L and H
  67:./ros_lib/ros/node_handle.h **** #define MODE_TOPIC_L        5   // waiting for topic id
  68:./ros_lib/ros/node_handle.h **** #define MODE_TOPIC_H        6
  69:./ros_lib/ros/node_handle.h **** #define MODE_MESSAGE        7
  70:./ros_lib/ros/node_handle.h **** #define MODE_MSG_CHECKSUM   8   // checksum for msg and topic id 
  71:./ros_lib/ros/node_handle.h **** 
  72:./ros_lib/ros/node_handle.h **** 
  73:./ros_lib/ros/node_handle.h **** #define MSG_TIMEOUT 200  // was 20 milliseconds to recieve all of message data
  74:./ros_lib/ros/node_handle.h **** 
  75:./ros_lib/ros/node_handle.h **** #include "msg.h"
  76:./ros_lib/ros/node_handle.h **** 
  77:./ros_lib/ros/node_handle.h **** namespace ros {
  78:./ros_lib/ros/node_handle.h **** 
  79:./ros_lib/ros/node_handle.h ****   class NodeHandleBase_{
  80:./ros_lib/ros/node_handle.h ****     public:
  81:./ros_lib/ros/node_handle.h ****       virtual int publish(int id, const Msg* msg)=0;
ARM GAS  C:\Users\Chuck\AppData\Local\Temp\ccNCRqO6.s 			page 51


  82:./ros_lib/ros/node_handle.h ****       virtual int spinOnce()=0;
  83:./ros_lib/ros/node_handle.h ****       virtual bool connected()=0;
  84:./ros_lib/ros/node_handle.h ****     };
  85:./ros_lib/ros/node_handle.h **** }
  86:./ros_lib/ros/node_handle.h **** 
  87:./ros_lib/ros/node_handle.h **** #include "publisher.h"
  88:./ros_lib/ros/node_handle.h **** #include "subscriber.h"
  89:./ros_lib/ros/node_handle.h **** #include "service_server.h"
  90:./ros_lib/ros/node_handle.h **** #include "service_client.h"
  91:./ros_lib/ros/node_handle.h **** 
  92:./ros_lib/ros/node_handle.h **** namespace ros {
  93:./ros_lib/ros/node_handle.h **** 
  94:./ros_lib/ros/node_handle.h ****   using rosserial_msgs::TopicInfo;
  95:./ros_lib/ros/node_handle.h **** 
  96:./ros_lib/ros/node_handle.h ****   /* Node Handle */
  97:./ros_lib/ros/node_handle.h ****   template<class Hardware,
  98:./ros_lib/ros/node_handle.h ****            int MAX_SUBSCRIBERS=25,
  99:./ros_lib/ros/node_handle.h ****            int MAX_PUBLISHERS=25,
 100:./ros_lib/ros/node_handle.h ****            int INPUT_SIZE=512,
 101:./ros_lib/ros/node_handle.h ****            int OUTPUT_SIZE=512>
 102:./ros_lib/ros/node_handle.h ****   class NodeHandle_ : public NodeHandleBase_
 103:./ros_lib/ros/node_handle.h ****   {
 104:./ros_lib/ros/node_handle.h ****     protected:
 105:./ros_lib/ros/node_handle.h ****       Hardware hardware_;
 106:./ros_lib/ros/node_handle.h **** 
 107:./ros_lib/ros/node_handle.h ****       /* time used for syncing */
 108:./ros_lib/ros/node_handle.h ****       unsigned long rt_time;
 109:./ros_lib/ros/node_handle.h **** 
 110:./ros_lib/ros/node_handle.h ****       /* used for computing current time */
 111:./ros_lib/ros/node_handle.h ****       unsigned long sec_offset, nsec_offset;
 112:./ros_lib/ros/node_handle.h **** 
 113:./ros_lib/ros/node_handle.h ****       unsigned char message_in[INPUT_SIZE];
 114:./ros_lib/ros/node_handle.h ****       unsigned char message_out[OUTPUT_SIZE];
 115:./ros_lib/ros/node_handle.h **** 
 116:./ros_lib/ros/node_handle.h ****       Publisher * publishers[MAX_PUBLISHERS];
 117:./ros_lib/ros/node_handle.h ****       Subscriber_ * subscribers[MAX_SUBSCRIBERS];
 118:./ros_lib/ros/node_handle.h **** 
 119:./ros_lib/ros/node_handle.h ****       /*
 120:./ros_lib/ros/node_handle.h ****        * Setup Functions
 121:./ros_lib/ros/node_handle.h ****        */
 122:./ros_lib/ros/node_handle.h ****     public:
 123:./ros_lib/ros/node_handle.h ****       NodeHandle_() : configured_(false) {
 124:./ros_lib/ros/node_handle.h **** #if true
 125:./ros_lib/ros/node_handle.h ****         for(unsigned int i=0; i< MAX_PUBLISHERS; i++) 
 126:./ros_lib/ros/node_handle.h **** 	   publishers[i] = 0;
 127:./ros_lib/ros/node_handle.h **** 
 128:./ros_lib/ros/node_handle.h ****         for(unsigned int i=0; i< MAX_SUBSCRIBERS; i++) 
 129:./ros_lib/ros/node_handle.h **** 	   subscribers[i] = 0;
 130:./ros_lib/ros/node_handle.h **** 
 131:./ros_lib/ros/node_handle.h ****         for(unsigned int i=0; i< INPUT_SIZE; i++) 
 132:./ros_lib/ros/node_handle.h **** 	   message_in[i] = 0;
 133:./ros_lib/ros/node_handle.h **** 
 134:./ros_lib/ros/node_handle.h ****         for(unsigned int i=0; i< OUTPUT_SIZE; i++) 
 135:./ros_lib/ros/node_handle.h **** 	   message_out[i] = 0;
 136:./ros_lib/ros/node_handle.h **** 
 137:./ros_lib/ros/node_handle.h ****         req_param_resp.ints_length = 0;
 138:./ros_lib/ros/node_handle.h ****         req_param_resp.ints = NULL;
ARM GAS  C:\Users\Chuck\AppData\Local\Temp\ccNCRqO6.s 			page 52


 139:./ros_lib/ros/node_handle.h ****         req_param_resp.floats_length = 0;
 140:./ros_lib/ros/node_handle.h ****         req_param_resp.floats = NULL;
 141:./ros_lib/ros/node_handle.h ****         req_param_resp.ints_length = 0;
 142:./ros_lib/ros/node_handle.h ****         req_param_resp.ints = NULL;
 143:./ros_lib/ros/node_handle.h ****       }
 144:./ros_lib/ros/node_handle.h **** #endif      
 145:./ros_lib/ros/node_handle.h ****       Hardware* getHardware(){
 146:./ros_lib/ros/node_handle.h ****         return &hardware_;
 147:./ros_lib/ros/node_handle.h ****       }
 148:./ros_lib/ros/node_handle.h **** 
 149:./ros_lib/ros/node_handle.h ****       /* Start serial, initialize buffers */
 150:./ros_lib/ros/node_handle.h ****       void initNode(){
 151:./ros_lib/ros/node_handle.h ****         hardware_.init();
 152:./ros_lib/ros/node_handle.h ****         mode_ = 0;
 153:./ros_lib/ros/node_handle.h ****         bytes_ = 0;
 154:./ros_lib/ros/node_handle.h ****         index_ = 0;
 155:./ros_lib/ros/node_handle.h ****         topic_ = 0;
 156:./ros_lib/ros/node_handle.h ****       };
 157:./ros_lib/ros/node_handle.h **** 
 158:./ros_lib/ros/node_handle.h ****       /* Start a named port, which may be network server IP, initialize buffers */
 159:./ros_lib/ros/node_handle.h ****       void initNode(char *portName){
 160:./ros_lib/ros/node_handle.h ****         hardware_.init(portName);
 161:./ros_lib/ros/node_handle.h ****         mode_ = 0;
 162:./ros_lib/ros/node_handle.h ****         bytes_ = 0;
 163:./ros_lib/ros/node_handle.h ****         index_ = 0;
 164:./ros_lib/ros/node_handle.h ****         topic_ = 0;
 165:./ros_lib/ros/node_handle.h ****       };
 166:./ros_lib/ros/node_handle.h **** 
 167:./ros_lib/ros/node_handle.h ****     protected:
 168:./ros_lib/ros/node_handle.h ****       //State machine variables for spinOnce
 169:./ros_lib/ros/node_handle.h ****       int mode_;
 170:./ros_lib/ros/node_handle.h ****       int bytes_;
 171:./ros_lib/ros/node_handle.h ****       int topic_;
 172:./ros_lib/ros/node_handle.h ****       int index_;
 173:./ros_lib/ros/node_handle.h ****       int checksum_;
 174:./ros_lib/ros/node_handle.h **** 
 175:./ros_lib/ros/node_handle.h ****       bool configured_;
 176:./ros_lib/ros/node_handle.h **** 
 177:./ros_lib/ros/node_handle.h ****       /* used for syncing the time */
 178:./ros_lib/ros/node_handle.h ****       unsigned long last_sync_time;
 179:./ros_lib/ros/node_handle.h ****       unsigned long last_sync_receive_time;
 180:./ros_lib/ros/node_handle.h ****       unsigned long last_msg_timeout_time;
 181:./ros_lib/ros/node_handle.h **** 
 182:./ros_lib/ros/node_handle.h ****     public:
 183:./ros_lib/ros/node_handle.h ****       /* This function goes in your loop() function, it handles
 184:./ros_lib/ros/node_handle.h ****        *  serial input and callbacks for subscribers.
 185:./ros_lib/ros/node_handle.h ****        */
 186:./ros_lib/ros/node_handle.h **** 
 187:./ros_lib/ros/node_handle.h **** 
 188:./ros_lib/ros/node_handle.h ****       virtual int spinOnce(){
 189:./ros_lib/ros/node_handle.h **** 
 190:./ros_lib/ros/node_handle.h ****         /* restart if timed out */
 191:./ros_lib/ros/node_handle.h ****         unsigned long c_time = hardware_.time();
 192:./ros_lib/ros/node_handle.h ****         if( (c_time - last_sync_receive_time) > (SYNC_SECONDS*1100) ){
 193:./ros_lib/ros/node_handle.h ****             configured_ = false;
 194:./ros_lib/ros/node_handle.h ****          }
 195:./ros_lib/ros/node_handle.h ****          
ARM GAS  C:\Users\Chuck\AppData\Local\Temp\ccNCRqO6.s 			page 53


 196:./ros_lib/ros/node_handle.h ****         /* reset if message has timed out */
 197:./ros_lib/ros/node_handle.h ****         if ( mode_ != MODE_FIRST_FF){ 
 198:./ros_lib/ros/node_handle.h ****           if (c_time > last_msg_timeout_time){
 199:./ros_lib/ros/node_handle.h ****             mode_ = MODE_FIRST_FF;
 200:./ros_lib/ros/node_handle.h ****           }
 201:./ros_lib/ros/node_handle.h ****         }
 202:./ros_lib/ros/node_handle.h **** 
 203:./ros_lib/ros/node_handle.h ****         /* while available buffer, read data */
 204:./ros_lib/ros/node_handle.h ****         while( true )
 205:./ros_lib/ros/node_handle.h ****         {
 206:./ros_lib/ros/node_handle.h ****           int data = hardware_.read();
 207:./ros_lib/ros/node_handle.h ****           if( data < 0 )
 208:./ros_lib/ros/node_handle.h ****             break;
 209:./ros_lib/ros/node_handle.h ****           checksum_ += data;
 210:./ros_lib/ros/node_handle.h ****           if( mode_ == MODE_MESSAGE ){        /* message data being recieved */
 211:./ros_lib/ros/node_handle.h ****             message_in[index_++] = data;
 212:./ros_lib/ros/node_handle.h ****             bytes_--;
 213:./ros_lib/ros/node_handle.h ****             if(bytes_ == 0)                  /* is message complete? if so, checksum */
 214:./ros_lib/ros/node_handle.h ****               mode_ = MODE_MSG_CHECKSUM;
 215:./ros_lib/ros/node_handle.h ****           }else if( mode_ == MODE_FIRST_FF ){
 216:./ros_lib/ros/node_handle.h ****             if(data == 0xff){
 217:./ros_lib/ros/node_handle.h ****               mode_++;
 218:./ros_lib/ros/node_handle.h ****               last_msg_timeout_time = c_time + MSG_TIMEOUT;
 219:./ros_lib/ros/node_handle.h ****             }
 220:./ros_lib/ros/node_handle.h ****             else if( hardware_.time() - c_time > (SYNC_SECONDS)){
 221:./ros_lib/ros/node_handle.h ****               /* We have been stuck in spinOnce too long, return error */
 222:./ros_lib/ros/node_handle.h ****               configured_=false;
 223:./ros_lib/ros/node_handle.h ****               return -2;
 224:./ros_lib/ros/node_handle.h ****             }
 225:./ros_lib/ros/node_handle.h ****           }else if( mode_ == MODE_PROTOCOL_VER ){
 226:./ros_lib/ros/node_handle.h ****             if(data == PROTOCOL_VER){
 227:./ros_lib/ros/node_handle.h ****               mode_++;
 228:./ros_lib/ros/node_handle.h ****             }else{
 229:./ros_lib/ros/node_handle.h ****               mode_ = MODE_FIRST_FF;
 230:./ros_lib/ros/node_handle.h ****               if (configured_ == false)
 231:./ros_lib/ros/node_handle.h ****                   requestSyncTime(); 	/* send a msg back showing our protocol version */
 232:./ros_lib/ros/node_handle.h ****             }
 233:./ros_lib/ros/node_handle.h **** 	  }else if( mode_ == MODE_SIZE_L ){   /* bottom half of message size */
 234:./ros_lib/ros/node_handle.h ****             bytes_ = data;
 235:./ros_lib/ros/node_handle.h ****             index_ = 0;
 236:./ros_lib/ros/node_handle.h ****             mode_++;
 237:./ros_lib/ros/node_handle.h ****             checksum_ = data;               /* first byte for calculating size checksum */
 238:./ros_lib/ros/node_handle.h ****           }else if( mode_ == MODE_SIZE_H ){   /* top half of message size */
 239:./ros_lib/ros/node_handle.h ****             bytes_ += data<<8;
 240:./ros_lib/ros/node_handle.h **** 	    mode_++;
 241:./ros_lib/ros/node_handle.h ****           }else if( mode_ == MODE_SIZE_CHECKSUM ){  
 242:./ros_lib/ros/node_handle.h ****             if( (checksum_%256) == 255)
 243:./ros_lib/ros/node_handle.h **** 	      mode_++;
 244:./ros_lib/ros/node_handle.h **** 	    else 
 245:./ros_lib/ros/node_handle.h **** 	      mode_ = MODE_FIRST_FF;          /* Abandon the frame if the msg len is wrong */
 246:./ros_lib/ros/node_handle.h **** 	  }else if( mode_ == MODE_TOPIC_L ){  /* bottom half of topic id */
 247:./ros_lib/ros/node_handle.h ****             topic_ = data;
 248:./ros_lib/ros/node_handle.h ****             mode_++;
 249:./ros_lib/ros/node_handle.h ****             checksum_ = data;               /* first byte included in checksum */
 250:./ros_lib/ros/node_handle.h ****           }else if( mode_ == MODE_TOPIC_H ){  /* top half of topic id */
 251:./ros_lib/ros/node_handle.h ****             topic_ += data<<8;
 252:./ros_lib/ros/node_handle.h ****             mode_ = MODE_MESSAGE;
ARM GAS  C:\Users\Chuck\AppData\Local\Temp\ccNCRqO6.s 			page 54


 253:./ros_lib/ros/node_handle.h ****             if(bytes_ == 0)
 254:./ros_lib/ros/node_handle.h ****               mode_ = MODE_MSG_CHECKSUM;  
 255:./ros_lib/ros/node_handle.h ****           }else if( mode_ == MODE_MSG_CHECKSUM ){ /* do checksum */
 256:./ros_lib/ros/node_handle.h ****             mode_ = MODE_FIRST_FF;
 257:./ros_lib/ros/node_handle.h ****             if( (checksum_%256) == 255){
 258:./ros_lib/ros/node_handle.h ****               if(topic_ == TopicInfo::ID_PUBLISHER){
 259:./ros_lib/ros/node_handle.h ****                 requestSyncTime();
 260:./ros_lib/ros/node_handle.h ****                 negotiateTopics();
 261:./ros_lib/ros/node_handle.h ****                 last_sync_time = c_time;
 262:./ros_lib/ros/node_handle.h ****                 last_sync_receive_time = c_time;
 263:./ros_lib/ros/node_handle.h ****                 return -1;
 264:./ros_lib/ros/node_handle.h ****               }else if(topic_ == TopicInfo::ID_TIME){
 265:./ros_lib/ros/node_handle.h ****                 syncTime(message_in);
 266:./ros_lib/ros/node_handle.h ****               #if PARAM_REQ_SUPPORT
 267:./ros_lib/ros/node_handle.h ****               }else if (topic_ == TopicInfo::ID_PARAMETER_REQUEST){
 268:./ros_lib/ros/node_handle.h ****                   req_param_resp.deserialize(message_in);
 269:./ros_lib/ros/node_handle.h ****                   param_recieved= true;
 270:./ros_lib/ros/node_handle.h ****               #endif
 271:./ros_lib/ros/node_handle.h ****               }else if(topic_ == TopicInfo::ID_TX_STOP){
 272:./ros_lib/ros/node_handle.h ****                   configured_ = false;
 273:./ros_lib/ros/node_handle.h ****               }else{
 274:./ros_lib/ros/node_handle.h ****                 if(subscribers[topic_-100])
 275:./ros_lib/ros/node_handle.h ****                   subscribers[topic_-100]->callback( message_in );
 276:./ros_lib/ros/node_handle.h ****               }
 277:./ros_lib/ros/node_handle.h ****             }
 278:./ros_lib/ros/node_handle.h ****           }
 279:./ros_lib/ros/node_handle.h ****         }
 280:./ros_lib/ros/node_handle.h **** 
 281:./ros_lib/ros/node_handle.h ****         /* occasionally sync time */
 282:./ros_lib/ros/node_handle.h ****         if( configured_ && ((c_time-last_sync_time) > (SYNC_SECONDS*500) )){
 283:./ros_lib/ros/node_handle.h ****           requestSyncTime();
 284:./ros_lib/ros/node_handle.h ****           last_sync_time = c_time;
 285:./ros_lib/ros/node_handle.h ****         }
 286:./ros_lib/ros/node_handle.h **** 
 287:./ros_lib/ros/node_handle.h ****         return 0;
 288:./ros_lib/ros/node_handle.h ****       }
 289:./ros_lib/ros/node_handle.h **** 
 290:./ros_lib/ros/node_handle.h **** 
 291:./ros_lib/ros/node_handle.h ****       /* Are we connected to the PC? */
 292:./ros_lib/ros/node_handle.h ****       virtual bool connected() {
 293:./ros_lib/ros/node_handle.h ****         return configured_;
 294:./ros_lib/ros/node_handle.h ****       };
 295:./ros_lib/ros/node_handle.h **** 
 296:./ros_lib/ros/node_handle.h ****       /********************************************************************
 297:./ros_lib/ros/node_handle.h ****        * Time functions
 298:./ros_lib/ros/node_handle.h ****        */
 299:./ros_lib/ros/node_handle.h **** 
 300:./ros_lib/ros/node_handle.h ****       void requestSyncTime()
 301:./ros_lib/ros/node_handle.h ****       {
 302:./ros_lib/ros/node_handle.h ****         std_msgs::Time t;
 303:./ros_lib/ros/node_handle.h ****         publish(TopicInfo::ID_TIME, &t);
 304:./ros_lib/ros/node_handle.h ****         rt_time = hardware_.time();
 305:./ros_lib/ros/node_handle.h ****       }
 306:./ros_lib/ros/node_handle.h **** 
 307:./ros_lib/ros/node_handle.h ****       void syncTime( unsigned char * data )
 308:./ros_lib/ros/node_handle.h ****       {
 309:./ros_lib/ros/node_handle.h ****         std_msgs::Time t;
ARM GAS  C:\Users\Chuck\AppData\Local\Temp\ccNCRqO6.s 			page 55


 310:./ros_lib/ros/node_handle.h ****         unsigned long offset = hardware_.time() - rt_time;
 311:./ros_lib/ros/node_handle.h **** 
 312:./ros_lib/ros/node_handle.h ****         t.deserialize(data);
 313:./ros_lib/ros/node_handle.h ****         t.data.sec += offset/1000;
 314:./ros_lib/ros/node_handle.h ****         t.data.nsec += (offset%1000)*1000000UL;
 315:./ros_lib/ros/node_handle.h **** 
 316:./ros_lib/ros/node_handle.h ****         this->setNow(t.data);
 317:./ros_lib/ros/node_handle.h ****         last_sync_receive_time = hardware_.time();
 318:./ros_lib/ros/node_handle.h ****       }
 319:./ros_lib/ros/node_handle.h **** 
 320:./ros_lib/ros/node_handle.h ****       Time now(){
 321:./ros_lib/ros/node_handle.h ****         unsigned long ms = hardware_.time();
 322:./ros_lib/ros/node_handle.h ****         Time current_time;
 323:./ros_lib/ros/node_handle.h ****         current_time.sec = ms/1000 + sec_offset;
 324:./ros_lib/ros/node_handle.h ****         current_time.nsec = (ms%1000)*1000000UL + nsec_offset;
 325:./ros_lib/ros/node_handle.h ****         normalizeSecNSec(current_time.sec, current_time.nsec);
 326:./ros_lib/ros/node_handle.h ****         return current_time;
 327:./ros_lib/ros/node_handle.h ****       }
 328:./ros_lib/ros/node_handle.h **** 
 329:./ros_lib/ros/node_handle.h ****       void setNow( Time & new_now )
 330:./ros_lib/ros/node_handle.h ****       {
 331:./ros_lib/ros/node_handle.h ****         unsigned long ms = hardware_.time();
 332:./ros_lib/ros/node_handle.h ****         sec_offset = new_now.sec - ms/1000 - 1;
 333:./ros_lib/ros/node_handle.h ****         nsec_offset = new_now.nsec - (ms%1000)*1000000UL + 1000000000UL;
 334:./ros_lib/ros/node_handle.h ****         normalizeSecNSec(sec_offset, nsec_offset);
 335:./ros_lib/ros/node_handle.h ****       }
 336:./ros_lib/ros/node_handle.h **** 
 337:./ros_lib/ros/node_handle.h ****       /********************************************************************
 338:./ros_lib/ros/node_handle.h ****        * Topic Management 
 339:./ros_lib/ros/node_handle.h ****        */
 340:./ros_lib/ros/node_handle.h **** 
 341:./ros_lib/ros/node_handle.h ****       /* Register a new publisher */    
 342:./ros_lib/ros/node_handle.h ****       bool advertise(Publisher & p)
 2195              		.loc 8 342 0
 2196              		.cfi_startproc
 2197 0000 80B5     		push	{r7, lr}
 2198              		.cfi_def_cfa_offset 8
 2199              		.cfi_offset 7, -8
 2200              		.cfi_offset 14, -4
 2201 0002 84B0     		sub	sp, sp, #16
 2202              		.cfi_def_cfa_offset 24
 2203 0004 00AF     		add	r7, sp, #0
 2204              		.cfi_def_cfa_register 7
 2205 0006 7860     		str	r0, [r7, #4]
 2206 0008 3960     		str	r1, [r7]
 2207              	.LBB28:
 2208              	.LBB29:
 343:./ros_lib/ros/node_handle.h ****       {
 344:./ros_lib/ros/node_handle.h ****         for(int i = 0; i < MAX_PUBLISHERS; i++){
 2209              		.loc 8 344 0
 2210 000a 0023     		mov	r3, #0
 2211 000c FB60     		str	r3, [r7, #12]
 2212 000e 19E0     		b	.L115
 2213              	.L118:
 345:./ros_lib/ros/node_handle.h ****           if(publishers[i] == 0){ // empty slot
 2214              		.loc 8 345 0
 2215 0010 7B68     		ldr	r3, [r7, #4]
ARM GAS  C:\Users\Chuck\AppData\Local\Temp\ccNCRqO6.s 			page 56


 2216 0012 FA68     		ldr	r2, [r7, #12]
 2217 0014 6A32     		add	r2, r2, #106
 2218 0016 9200     		lsl	r2, r2, #2
 2219 0018 D358     		ldr	r3, [r2, r3]
 2220 001a 002B     		cmp	r3, #0
 2221 001c 0FD1     		bne	.L116
 346:./ros_lib/ros/node_handle.h ****             publishers[i] = &p;
 2222              		.loc 8 346 0
 2223 001e 7B68     		ldr	r3, [r7, #4]
 2224 0020 FA68     		ldr	r2, [r7, #12]
 2225 0022 6A32     		add	r2, r2, #106
 2226 0024 9200     		lsl	r2, r2, #2
 2227 0026 3968     		ldr	r1, [r7]
 2228 0028 D150     		str	r1, [r2, r3]
 347:./ros_lib/ros/node_handle.h ****             p.id_ = i+100+MAX_SUBSCRIBERS;
 2229              		.loc 8 347 0
 2230 002a FB68     		ldr	r3, [r7, #12]
 2231 002c 6E33     		add	r3, r3, #110
 2232 002e 1A1C     		mov	r2, r3
 2233 0030 3B68     		ldr	r3, [r7]
 2234 0032 9A60     		str	r2, [r3, #8]
 348:./ros_lib/ros/node_handle.h ****             p.nh_ = this;
 2235              		.loc 8 348 0
 2236 0034 7A68     		ldr	r2, [r7, #4]
 2237 0036 3B68     		ldr	r3, [r7]
 2238 0038 DA60     		str	r2, [r3, #12]
 349:./ros_lib/ros/node_handle.h ****             return true;
 2239              		.loc 8 349 0
 2240 003a 0123     		mov	r3, #1
 2241 003c 06E0     		b	.L117
 2242              	.L116:
 344:./ros_lib/ros/node_handle.h ****           if(publishers[i] == 0){ // empty slot
 2243              		.loc 8 344 0 discriminator 2
 2244 003e FB68     		ldr	r3, [r7, #12]
 2245 0040 0133     		add	r3, r3, #1
 2246 0042 FB60     		str	r3, [r7, #12]
 2247              	.L115:
 344:./ros_lib/ros/node_handle.h ****           if(publishers[i] == 0){ // empty slot
 2248              		.loc 8 344 0 is_stmt 0 discriminator 1
 2249 0044 FB68     		ldr	r3, [r7, #12]
 2250 0046 132B     		cmp	r3, #19
 2251 0048 E2DD     		ble	.L118
 2252              	.LBE29:
 350:./ros_lib/ros/node_handle.h ****           }
 351:./ros_lib/ros/node_handle.h ****         }
 352:./ros_lib/ros/node_handle.h ****         return false;
 2253              		.loc 8 352 0 is_stmt 1
 2254 004a 0023     		mov	r3, #0
 2255              	.L117:
 2256              	.LBE28:
 353:./ros_lib/ros/node_handle.h ****       }
 2257              		.loc 8 353 0
 2258 004c 181C     		mov	r0, r3
 2259 004e BD46     		mov	sp, r7
 2260 0050 04B0     		add	sp, sp, #16
 2261              		@ sp needed
 2262 0052 80BD     		pop	{r7, pc}
ARM GAS  C:\Users\Chuck\AppData\Local\Temp\ccNCRqO6.s 			page 57


 2263              		.cfi_endproc
 2264              	.LFE189:
 2265              		.size	_ZN3ros11NodeHandle_I13Psoc4HardwareLi10ELi20ELi200ELi200EE9advertiseERNS_9PublisherE, .-_ZN
 2266              		.section	.text._ZN3ros11NodeHandle_I13Psoc4HardwareLi10ELi20ELi200ELi200EE9subscribeIN8std_msgs15U
 2267              		.align	2
 2268              		.weak	_ZN3ros11NodeHandle_I13Psoc4HardwareLi10ELi20ELi200ELi200EE9subscribeIN8std_msgs15UInt8Multi
 2269              		.code	16
 2270              		.thumb_func
 2271              		.type	_ZN3ros11NodeHandle_I13Psoc4HardwareLi10ELi20ELi200ELi200EE9subscribeIN8std_msgs15UInt8Multi
 2272              	_ZN3ros11NodeHandle_I13Psoc4HardwareLi10ELi20ELi200ELi200EE9subscribeIN8std_msgs15UInt8MultiArrayEE
 2273              	.LFB190:
 354:./ros_lib/ros/node_handle.h **** 
 355:./ros_lib/ros/node_handle.h ****       /* Register a new subscriber */
 356:./ros_lib/ros/node_handle.h ****       template<typename MsgT>
 357:./ros_lib/ros/node_handle.h ****       bool subscribe(Subscriber< MsgT> & s){
 2274              		.loc 8 357 0
 2275              		.cfi_startproc
 2276 0000 80B5     		push	{r7, lr}
 2277              		.cfi_def_cfa_offset 8
 2278              		.cfi_offset 7, -8
 2279              		.cfi_offset 14, -4
 2280 0002 84B0     		sub	sp, sp, #16
 2281              		.cfi_def_cfa_offset 24
 2282 0004 00AF     		add	r7, sp, #0
 2283              		.cfi_def_cfa_register 7
 2284 0006 7860     		str	r0, [r7, #4]
 2285 0008 3960     		str	r1, [r7]
 2286              	.LBB30:
 2287              	.LBB31:
 358:./ros_lib/ros/node_handle.h ****         for(int i = 0; i < MAX_SUBSCRIBERS; i++){
 2288              		.loc 8 358 0
 2289 000a 0023     		mov	r3, #0
 2290 000c FB60     		str	r3, [r7, #12]
 2291 000e 16E0     		b	.L120
 2292              	.L123:
 359:./ros_lib/ros/node_handle.h ****           if(subscribers[i] == 0){ // empty slot
 2293              		.loc 8 359 0
 2294 0010 7B68     		ldr	r3, [r7, #4]
 2295 0012 FA68     		ldr	r2, [r7, #12]
 2296 0014 7E32     		add	r2, r2, #126
 2297 0016 9200     		lsl	r2, r2, #2
 2298 0018 D358     		ldr	r3, [r2, r3]
 2299 001a 002B     		cmp	r3, #0
 2300 001c 0CD1     		bne	.L121
 360:./ros_lib/ros/node_handle.h ****             subscribers[i] = (Subscriber_*) &s;
 2301              		.loc 8 360 0
 2302 001e 3968     		ldr	r1, [r7]
 2303 0020 7B68     		ldr	r3, [r7, #4]
 2304 0022 FA68     		ldr	r2, [r7, #12]
 2305 0024 7E32     		add	r2, r2, #126
 2306 0026 9200     		lsl	r2, r2, #2
 2307 0028 D150     		str	r1, [r2, r3]
 361:./ros_lib/ros/node_handle.h ****             s.id_ = i+100;
 2308              		.loc 8 361 0
 2309 002a FB68     		ldr	r3, [r7, #12]
 2310 002c 6433     		add	r3, r3, #100
 2311 002e 1A1C     		mov	r2, r3
ARM GAS  C:\Users\Chuck\AppData\Local\Temp\ccNCRqO6.s 			page 58


 2312 0030 3B68     		ldr	r3, [r7]
 2313 0032 5A60     		str	r2, [r3, #4]
 362:./ros_lib/ros/node_handle.h ****             return true;
 2314              		.loc 8 362 0
 2315 0034 0123     		mov	r3, #1
 2316 0036 06E0     		b	.L122
 2317              	.L121:
 358:./ros_lib/ros/node_handle.h ****           if(subscribers[i] == 0){ // empty slot
 2318              		.loc 8 358 0 discriminator 2
 2319 0038 FB68     		ldr	r3, [r7, #12]
 2320 003a 0133     		add	r3, r3, #1
 2321 003c FB60     		str	r3, [r7, #12]
 2322              	.L120:
 358:./ros_lib/ros/node_handle.h ****           if(subscribers[i] == 0){ // empty slot
 2323              		.loc 8 358 0 is_stmt 0 discriminator 1
 2324 003e FB68     		ldr	r3, [r7, #12]
 2325 0040 092B     		cmp	r3, #9
 2326 0042 E5DD     		ble	.L123
 2327              	.LBE31:
 363:./ros_lib/ros/node_handle.h ****           }
 364:./ros_lib/ros/node_handle.h ****         }
 365:./ros_lib/ros/node_handle.h ****         return false;
 2328              		.loc 8 365 0 is_stmt 1
 2329 0044 0023     		mov	r3, #0
 2330              	.L122:
 2331              	.LBE30:
 366:./ros_lib/ros/node_handle.h ****       }
 2332              		.loc 8 366 0
 2333 0046 181C     		mov	r0, r3
 2334 0048 BD46     		mov	sp, r7
 2335 004a 04B0     		add	sp, sp, #16
 2336              		@ sp needed
 2337 004c 80BD     		pop	{r7, pc}
 2338              		.cfi_endproc
 2339              	.LFE190:
 2340              		.size	_ZN3ros11NodeHandle_I13Psoc4HardwareLi10ELi20ELi200ELi200EE9subscribeIN8std_msgs15UInt8Multi
 2341              		.weak	_ZTVN3ros10SubscriberIN8std_msgs15UInt8MultiArrayEEE
 2342 004e C046     		.section	.rodata._ZTVN3ros10SubscriberIN8std_msgs15UInt8MultiArrayEEE,"aG",%progbits,_ZTVN3ros10Su
 2343              		.align	3
 2344              		.type	_ZTVN3ros10SubscriberIN8std_msgs15UInt8MultiArrayEEE, %object
 2345              		.size	_ZTVN3ros10SubscriberIN8std_msgs15UInt8MultiArrayEEE, 24
 2346              	_ZTVN3ros10SubscriberIN8std_msgs15UInt8MultiArrayEEE:
 2347 0000 00000000 		.word	0
 2348 0004 00000000 		.word	0
 2349 0008 00000000 		.word	_ZN3ros10SubscriberIN8std_msgs15UInt8MultiArrayEE8callbackEPh
 2350 000c 00000000 		.word	_ZN3ros10SubscriberIN8std_msgs15UInt8MultiArrayEE15getEndpointTypeEv
 2351 0010 00000000 		.word	_ZN3ros10SubscriberIN8std_msgs15UInt8MultiArrayEE10getMsgTypeEv
 2352 0014 00000000 		.word	_ZN3ros10SubscriberIN8std_msgs15UInt8MultiArrayEE9getMsgMD5Ev
 2353              		.weak	_ZTVN8std_msgs15UInt8MultiArrayE
 2354              		.section	.rodata._ZTVN8std_msgs15UInt8MultiArrayE,"aG",%progbits,_ZTVN8std_msgs15UInt8MultiArrayE,
 2355              		.align	3
 2356              		.type	_ZTVN8std_msgs15UInt8MultiArrayE, %object
 2357              		.size	_ZTVN8std_msgs15UInt8MultiArrayE, 24
 2358              	_ZTVN8std_msgs15UInt8MultiArrayE:
 2359 0000 00000000 		.word	0
 2360 0004 00000000 		.word	0
 2361 0008 00000000 		.word	_ZNK8std_msgs15UInt8MultiArray9serializeEPh
ARM GAS  C:\Users\Chuck\AppData\Local\Temp\ccNCRqO6.s 			page 59


 2362 000c 00000000 		.word	_ZN8std_msgs15UInt8MultiArray11deserializeEPh
 2363 0010 00000000 		.word	_ZN8std_msgs15UInt8MultiArray7getTypeEv
 2364 0014 00000000 		.word	_ZN8std_msgs15UInt8MultiArray6getMD5Ev
 2365              		.weak	_ZTVN8std_msgs16MultiArrayLayoutE
 2366              		.section	.rodata._ZTVN8std_msgs16MultiArrayLayoutE,"aG",%progbits,_ZTVN8std_msgs16MultiArrayLayout
 2367              		.align	3
 2368              		.type	_ZTVN8std_msgs16MultiArrayLayoutE, %object
 2369              		.size	_ZTVN8std_msgs16MultiArrayLayoutE, 24
 2370              	_ZTVN8std_msgs16MultiArrayLayoutE:
 2371 0000 00000000 		.word	0
 2372 0004 00000000 		.word	0
 2373 0008 00000000 		.word	_ZNK8std_msgs16MultiArrayLayout9serializeEPh
 2374 000c 00000000 		.word	_ZN8std_msgs16MultiArrayLayout11deserializeEPh
 2375 0010 00000000 		.word	_ZN8std_msgs16MultiArrayLayout7getTypeEv
 2376 0014 00000000 		.word	_ZN8std_msgs16MultiArrayLayout6getMD5Ev
 2377              		.weak	_ZTVN8std_msgs19MultiArrayDimensionE
 2378              		.section	.rodata._ZTVN8std_msgs19MultiArrayDimensionE,"aG",%progbits,_ZTVN8std_msgs19MultiArrayDim
 2379              		.align	3
 2380              		.type	_ZTVN8std_msgs19MultiArrayDimensionE, %object
 2381              		.size	_ZTVN8std_msgs19MultiArrayDimensionE, 24
 2382              	_ZTVN8std_msgs19MultiArrayDimensionE:
 2383 0000 00000000 		.word	0
 2384 0004 00000000 		.word	0
 2385 0008 00000000 		.word	_ZNK8std_msgs19MultiArrayDimension9serializeEPh
 2386 000c 00000000 		.word	_ZN8std_msgs19MultiArrayDimension11deserializeEPh
 2387 0010 00000000 		.word	_ZN8std_msgs19MultiArrayDimension7getTypeEv
 2388 0014 00000000 		.word	_ZN8std_msgs19MultiArrayDimension6getMD5Ev
 2389              		.weak	_ZTVN3ros11Subscriber_E
 2390              		.section	.rodata._ZTVN3ros11Subscriber_E,"aG",%progbits,_ZTVN3ros11Subscriber_E,comdat
 2391              		.align	3
 2392              		.type	_ZTVN3ros11Subscriber_E, %object
 2393              		.size	_ZTVN3ros11Subscriber_E, 24
 2394              	_ZTVN3ros11Subscriber_E:
 2395 0000 00000000 		.word	0
 2396 0004 00000000 		.word	0
 2397 0008 00000000 		.word	__cxa_pure_virtual
 2398 000c 00000000 		.word	__cxa_pure_virtual
 2399 0010 00000000 		.word	__cxa_pure_virtual
 2400 0014 00000000 		.word	__cxa_pure_virtual
 2401              		.weak	_ZTVN3ros3MsgE
 2402              		.section	.rodata._ZTVN3ros3MsgE,"aG",%progbits,_ZTVN3ros3MsgE,comdat
 2403              		.align	3
 2404              		.type	_ZTVN3ros3MsgE, %object
 2405              		.size	_ZTVN3ros3MsgE, 24
 2406              	_ZTVN3ros3MsgE:
 2407 0000 00000000 		.word	0
 2408 0004 00000000 		.word	0
 2409 0008 00000000 		.word	__cxa_pure_virtual
 2410 000c 00000000 		.word	__cxa_pure_virtual
 2411 0010 00000000 		.word	__cxa_pure_virtual
 2412 0014 00000000 		.word	__cxa_pure_virtual
 2413              		.section	.rodata
 2414 00ce 0000     		.align	2
 2415              	.LC44:
 2416 00d0 6932635F 		.ascii	"i2c_reply\000"
 2416      7265706C 
 2416      7900
ARM GAS  C:\Users\Chuck\AppData\Local\Temp\ccNCRqO6.s 			page 60


 2417 00da 0000     		.align	2
 2418              	.LC47:
 2419 00dc 6932635F 		.ascii	"i2c_write\000"
 2419      77726974 
 2419      6500
 2420 00e6 0000     		.align	2
 2421              	.LC51:
 2422 00e8 6932635F 		.ascii	"i2c_read\000"
 2422      72656164 
 2422      00
 2423              		.section	.text._Z41__static_initialization_and_destruction_0ii,"ax",%progbits
 2424              		.align	2
 2425              		.code	16
 2426              		.thumb_func
 2427              		.type	_Z41__static_initialization_and_destruction_0ii, %function
 2428              	_Z41__static_initialization_and_destruction_0ii:
 2429              	.LFB191:
 138:.\ros_lib\examples\I2C/I2C_device.cpp **** 
 139:.\ros_lib\examples\I2C/I2C_device.cpp **** } // namespace I2C_device
 2430              		.loc 6 139 0
 2431              		.cfi_startproc
 2432 0000 B0B5     		push	{r4, r5, r7, lr}
 2433              		.cfi_def_cfa_offset 16
 2434              		.cfi_offset 4, -16
 2435              		.cfi_offset 5, -12
 2436              		.cfi_offset 7, -8
 2437              		.cfi_offset 14, -4
 2438 0002 82B0     		sub	sp, sp, #8
 2439              		.cfi_def_cfa_offset 24
 2440 0004 00AF     		add	r7, sp, #0
 2441              		.cfi_def_cfa_register 7
 2442 0006 7860     		str	r0, [r7, #4]
 2443 0008 3960     		str	r1, [r7]
 2444              		.loc 6 139 0
 2445 000a 7B68     		ldr	r3, [r7, #4]
 2446 000c 012B     		cmp	r3, #1
 2447 000e 38D1     		bne	.L124
 2448              		.loc 6 139 0 is_stmt 0 discriminator 1
 2449 0010 3B68     		ldr	r3, [r7]
 2450 0012 1D4A     		ldr	r2, .L130
 2451 0014 9342     		cmp	r3, r2
 2452 0016 34D1     		bne	.L124
  26:.\ros_lib\examples\I2C/I2C_device.cpp **** std_msgs::MultiArrayDimension reply_dim[1];
 2453              		.loc 6 26 0 is_stmt 1
 2454 0018 1C4B     		ldr	r3, .L130+4
 2455 001a 181C     		mov	r0, r3
 2456 001c FFF7FEFF 		bl	_ZN8std_msgs15UInt8MultiArrayC1Ev
  27:.\ros_lib\examples\I2C/I2C_device.cpp **** uint8_t reply_data[MAX_REPLY_BYTES];
 2457              		.loc 6 27 0
 2458 0020 1B4B     		ldr	r3, .L130+8
 2459 0022 0024     		mov	r4, #0
 2460 0024 1D1C     		mov	r5, r3
 2461 0026 04E0     		b	.L126
 2462              	.L127:
  27:.\ros_lib\examples\I2C/I2C_device.cpp **** uint8_t reply_data[MAX_REPLY_BYTES];
 2463              		.loc 6 27 0 is_stmt 0 discriminator 3
 2464 0028 281C     		mov	r0, r5
ARM GAS  C:\Users\Chuck\AppData\Local\Temp\ccNCRqO6.s 			page 61


 2465 002a FFF7FEFF 		bl	_ZN8std_msgs19MultiArrayDimensionC1Ev
 2466 002e 1035     		add	r5, r5, #16
 2467 0030 013C     		sub	r4, r4, #1
 2468              	.L126:
  27:.\ros_lib\examples\I2C/I2C_device.cpp **** uint8_t reply_data[MAX_REPLY_BYTES];
 2469              		.loc 6 27 0 discriminator 1
 2470 0032 631C     		add	r3, r4, #1
 2471 0034 F8D1     		bne	.L127
  29:.\ros_lib\examples\I2C/I2C_device.cpp **** 
 2472              		.loc 6 29 0 is_stmt 1 discriminator 4
 2473 0036 1749     		ldr	r1, .L130+12
 2474 0038 174A     		ldr	r2, .L130+16
 2475 003a 144B     		ldr	r3, .L130+4
 2476 003c 081C     		mov	r0, r1
 2477 003e 111C     		mov	r1, r2
 2478 0040 1A1C     		mov	r2, r3
 2479 0042 0023     		mov	r3, #0
 2480 0044 FFF7FEFF 		bl	_ZN3ros9PublisherC1EPKcPNS_3MsgEi
  77:.\ros_lib\examples\I2C/I2C_device.cpp **** ros::Subscriber<std_msgs::UInt8MultiArray> cmd_sub_r("i2c_read", &readMessageCb);
 2481              		.loc 6 77 0 discriminator 4
 2482 0048 1449     		ldr	r1, .L130+20
 2483 004a 154A     		ldr	r2, .L130+24
 2484 004c 154B     		ldr	r3, .L130+28
 2485 004e 081C     		mov	r0, r1
 2486 0050 111C     		mov	r1, r2
 2487 0052 1A1C     		mov	r2, r3
 2488 0054 0123     		mov	r3, #1
 2489 0056 FFF7FEFF 		bl	_ZN3ros10SubscriberIN8std_msgs15UInt8MultiArrayEEC1EPKcPFvRKS2_Ei
  78:.\ros_lib\examples\I2C/I2C_device.cpp **** std_msgs::MultiArrayDimension cmd_dim[1];
 2490              		.loc 6 78 0 discriminator 4
 2491 005a 1349     		ldr	r1, .L130+32
 2492 005c 134A     		ldr	r2, .L130+36
 2493 005e 144B     		ldr	r3, .L130+40
 2494 0060 081C     		mov	r0, r1
 2495 0062 111C     		mov	r1, r2
 2496 0064 1A1C     		mov	r2, r3
 2497 0066 0123     		mov	r3, #1
 2498 0068 FFF7FEFF 		bl	_ZN3ros10SubscriberIN8std_msgs15UInt8MultiArrayEEC1EPKcPFvRKS2_Ei
  79:.\ros_lib\examples\I2C/I2C_device.cpp **** uint8_t cmd_data[MAX_CMD_BYTES]; 
 2499              		.loc 6 79 0 discriminator 4
 2500 006c 114B     		ldr	r3, .L130+44
 2501 006e 0024     		mov	r4, #0
 2502 0070 1D1C     		mov	r5, r3
 2503 0072 04E0     		b	.L128
 2504              	.L129:
  79:.\ros_lib\examples\I2C/I2C_device.cpp **** uint8_t cmd_data[MAX_CMD_BYTES]; 
 2505              		.loc 6 79 0 is_stmt 0 discriminator 3
 2506 0074 281C     		mov	r0, r5
 2507 0076 FFF7FEFF 		bl	_ZN8std_msgs19MultiArrayDimensionC1Ev
 2508 007a 1035     		add	r5, r5, #16
 2509 007c 013C     		sub	r4, r4, #1
 2510              	.L128:
  79:.\ros_lib\examples\I2C/I2C_device.cpp **** uint8_t cmd_data[MAX_CMD_BYTES]; 
 2511              		.loc 6 79 0 discriminator 1
 2512 007e 631C     		add	r3, r4, #1
 2513 0080 F8D1     		bne	.L129
 2514              	.L124:
ARM GAS  C:\Users\Chuck\AppData\Local\Temp\ccNCRqO6.s 			page 62


 2515              		.loc 6 139 0 is_stmt 1
 2516 0082 BD46     		mov	sp, r7
 2517 0084 02B0     		add	sp, sp, #8
 2518              		@ sp needed
 2519 0086 B0BD     		pop	{r4, r5, r7, pc}
 2520              	.L131:
 2521              		.align	2
 2522              	.L130:
 2523 0088 FFFF0000 		.word	65535
 2524 008c 00000000 		.word	_ZN10I2C_device9reply_msgE
 2525 0090 00000000 		.word	_ZN10I2C_device9reply_dimE
 2526 0094 00000000 		.word	_ZN10I2C_device9reply_pubE
 2527 0098 D0000000 		.word	.LC44
 2528 009c 00000000 		.word	_ZN10I2C_device9cmd_sub_wE
 2529 00a0 DC000000 		.word	.LC47
 2530 00a4 00000000 		.word	_ZN10I2C_device14writeMessageCbERKN8std_msgs15UInt8MultiArrayE
 2531 00a8 00000000 		.word	_ZN10I2C_device9cmd_sub_rE
 2532 00ac E8000000 		.word	.LC51
 2533 00b0 00000000 		.word	_ZN10I2C_device13readMessageCbERKN8std_msgs15UInt8MultiArrayE
 2534 00b4 00000000 		.word	_ZN10I2C_device7cmd_dimE
 2535              		.cfi_endproc
 2536              	.LFE191:
 2537              		.size	_Z41__static_initialization_and_destruction_0ii, .-_Z41__static_initialization_and_destructi
 2538              		.section	.rodata
 2539 00f1 000000   		.align	2
 2540              		.type	_ZN14rosserial_msgsL12REQUESTPARAME, %object
 2541              		.size	_ZN14rosserial_msgsL12REQUESTPARAME, 28
 2542              	_ZN14rosserial_msgsL12REQUESTPARAME:
 2543 00f4 726F7373 		.ascii	"rosserial_msgs/RequestParam\000"
 2543      65726961 
 2543      6C5F6D73 
 2543      67732F52 
 2543      65717565 
 2544              		.section	.text._ZN3ros10SubscriberIN8std_msgs15UInt8MultiArrayEE8callbackEPh,"axG",%progbits,_ZN3r
 2545              		.align	2
 2546              		.weak	_ZN3ros10SubscriberIN8std_msgs15UInt8MultiArrayEE8callbackEPh
 2547              		.code	16
 2548              		.thumb_func
 2549              		.type	_ZN3ros10SubscriberIN8std_msgs15UInt8MultiArrayEE8callbackEPh, %function
 2550              	_ZN3ros10SubscriberIN8std_msgs15UInt8MultiArrayEE8callbackEPh:
 2551              	.LFB192:
  71:./ros_lib/ros/subscriber.h ****       // callback with message pointer allows use of member-function callbacks
  72:./ros_lib/ros/subscriber.h ****       typedef void(*CallbackTPtr)(const MsgT*);
  73:./ros_lib/ros/subscriber.h ****       Subscriber(const char * topic_name, CallbackTPtr cbp, int endpoint=rosserial_msgs::TopicInfo:
  74:./ros_lib/ros/subscriber.h ****         cb_(NULL), cbp_(cbp),
  75:./ros_lib/ros/subscriber.h ****         endpoint_(endpoint)
  76:./ros_lib/ros/subscriber.h ****       {
  77:./ros_lib/ros/subscriber.h ****         topic_ = topic_name;
  78:./ros_lib/ros/subscriber.h ****       };
  79:./ros_lib/ros/subscriber.h ****       // uninitialized callback pointer
  80:./ros_lib/ros/subscriber.h ****       Subscriber(int endpoint=rosserial_msgs::TopicInfo::ID_SUBSCRIBER) :
  81:./ros_lib/ros/subscriber.h ****         cb_(NULL), cbp_(NULL),
  82:./ros_lib/ros/subscriber.h ****         endpoint_(endpoint)
  83:./ros_lib/ros/subscriber.h ****       {
  84:./ros_lib/ros/subscriber.h ****       };
  85:./ros_lib/ros/subscriber.h **** 
  86:./ros_lib/ros/subscriber.h ****       virtual void callback(unsigned char* data){
ARM GAS  C:\Users\Chuck\AppData\Local\Temp\ccNCRqO6.s 			page 63


 2552              		.loc 7 86 0
 2553              		.cfi_startproc
 2554 0000 80B5     		push	{r7, lr}
 2555              		.cfi_def_cfa_offset 8
 2556              		.cfi_offset 7, -8
 2557              		.cfi_offset 14, -4
 2558 0002 82B0     		sub	sp, sp, #8
 2559              		.cfi_def_cfa_offset 16
 2560 0004 00AF     		add	r7, sp, #0
 2561              		.cfi_def_cfa_register 7
 2562 0006 7860     		str	r0, [r7, #4]
 2563 0008 3960     		str	r1, [r7]
  87:./ros_lib/ros/subscriber.h ****         msg.deserialize(data);
 2564              		.loc 7 87 0
 2565 000a 7B68     		ldr	r3, [r7, #4]
 2566 000c 0C33     		add	r3, r3, #12
 2567 000e 1A1C     		mov	r2, r3
 2568 0010 3B68     		ldr	r3, [r7]
 2569 0012 101C     		mov	r0, r2
 2570 0014 191C     		mov	r1, r3
 2571 0016 FFF7FEFF 		bl	_ZN8std_msgs15UInt8MultiArray11deserializeEPh
  88:./ros_lib/ros/subscriber.h ****         if (cb_) {
 2572              		.loc 7 88 0
 2573 001a 7B68     		ldr	r3, [r7, #4]
 2574 001c 9B6B     		ldr	r3, [r3, #56]
 2575 001e 002B     		cmp	r3, #0
 2576 0020 06D0     		beq	.L133
  89:./ros_lib/ros/subscriber.h ****           this->cb_(msg);
 2577              		.loc 7 89 0
 2578 0022 7B68     		ldr	r3, [r7, #4]
 2579 0024 9B6B     		ldr	r3, [r3, #56]
 2580 0026 7A68     		ldr	r2, [r7, #4]
 2581 0028 0C32     		add	r2, r2, #12
 2582 002a 101C     		mov	r0, r2
 2583 002c 9847     		blx	r3
 2584 002e 09E0     		b	.L132
 2585              	.L133:
  90:./ros_lib/ros/subscriber.h ****         } else if (cbp_) {
 2586              		.loc 7 90 0
 2587 0030 7B68     		ldr	r3, [r7, #4]
 2588 0032 DB6B     		ldr	r3, [r3, #60]
 2589 0034 002B     		cmp	r3, #0
 2590 0036 05D0     		beq	.L132
  91:./ros_lib/ros/subscriber.h ****           this->cbp_(&msg);
 2591              		.loc 7 91 0
 2592 0038 7B68     		ldr	r3, [r7, #4]
 2593 003a DB6B     		ldr	r3, [r3, #60]
 2594 003c 7A68     		ldr	r2, [r7, #4]
 2595 003e 0C32     		add	r2, r2, #12
 2596 0040 101C     		mov	r0, r2
 2597 0042 9847     		blx	r3
 2598              	.L132:
  92:./ros_lib/ros/subscriber.h ****         }
  93:./ros_lib/ros/subscriber.h ****       }
 2599              		.loc 7 93 0
 2600 0044 BD46     		mov	sp, r7
 2601 0046 02B0     		add	sp, sp, #8
ARM GAS  C:\Users\Chuck\AppData\Local\Temp\ccNCRqO6.s 			page 64


 2602              		@ sp needed
 2603 0048 80BD     		pop	{r7, pc}
 2604              		.cfi_endproc
 2605              	.LFE192:
 2606              		.size	_ZN3ros10SubscriberIN8std_msgs15UInt8MultiArrayEE8callbackEPh, .-_ZN3ros10SubscriberIN8std_m
 2607 004a C046     		.section	.text._ZN3ros10SubscriberIN8std_msgs15UInt8MultiArrayEE15getEndpointTypeEv,"axG",%progbit
 2608              		.align	2
 2609              		.weak	_ZN3ros10SubscriberIN8std_msgs15UInt8MultiArrayEE15getEndpointTypeEv
 2610              		.code	16
 2611              		.thumb_func
 2612              		.type	_ZN3ros10SubscriberIN8std_msgs15UInt8MultiArrayEE15getEndpointTypeEv, %function
 2613              	_ZN3ros10SubscriberIN8std_msgs15UInt8MultiArrayEE15getEndpointTypeEv:
 2614              	.LFB193:
  94:./ros_lib/ros/subscriber.h **** 
  95:./ros_lib/ros/subscriber.h ****       virtual const char * getMsgType(){ return this->msg.getType(); }
  96:./ros_lib/ros/subscriber.h ****       virtual const char * getMsgMD5(){ return this->msg.getMD5(); }
  97:./ros_lib/ros/subscriber.h ****       virtual int getEndpointType(){ return endpoint_; }
 2615              		.loc 7 97 0
 2616              		.cfi_startproc
 2617 0000 80B5     		push	{r7, lr}
 2618              		.cfi_def_cfa_offset 8
 2619              		.cfi_offset 7, -8
 2620              		.cfi_offset 14, -4
 2621 0002 82B0     		sub	sp, sp, #8
 2622              		.cfi_def_cfa_offset 16
 2623 0004 00AF     		add	r7, sp, #0
 2624              		.cfi_def_cfa_register 7
 2625 0006 7860     		str	r0, [r7, #4]
 2626              		.loc 7 97 0
 2627 0008 7B68     		ldr	r3, [r7, #4]
 2628 000a 1B6C     		ldr	r3, [r3, #64]
 2629 000c 181C     		mov	r0, r3
 2630 000e BD46     		mov	sp, r7
 2631 0010 02B0     		add	sp, sp, #8
 2632              		@ sp needed
 2633 0012 80BD     		pop	{r7, pc}
 2634              		.cfi_endproc
 2635              	.LFE193:
 2636              		.size	_ZN3ros10SubscriberIN8std_msgs15UInt8MultiArrayEE15getEndpointTypeEv, .-_ZN3ros10SubscriberI
 2637              		.section	.text._ZN3ros10SubscriberIN8std_msgs15UInt8MultiArrayEE10getMsgTypeEv,"axG",%progbits,_ZN
 2638              		.align	2
 2639              		.weak	_ZN3ros10SubscriberIN8std_msgs15UInt8MultiArrayEE10getMsgTypeEv
 2640              		.code	16
 2641              		.thumb_func
 2642              		.type	_ZN3ros10SubscriberIN8std_msgs15UInt8MultiArrayEE10getMsgTypeEv, %function
 2643              	_ZN3ros10SubscriberIN8std_msgs15UInt8MultiArrayEE10getMsgTypeEv:
 2644              	.LFB194:
  95:./ros_lib/ros/subscriber.h ****       virtual const char * getMsgMD5(){ return this->msg.getMD5(); }
 2645              		.loc 7 95 0
 2646              		.cfi_startproc
 2647 0000 80B5     		push	{r7, lr}
 2648              		.cfi_def_cfa_offset 8
 2649              		.cfi_offset 7, -8
 2650              		.cfi_offset 14, -4
 2651 0002 82B0     		sub	sp, sp, #8
 2652              		.cfi_def_cfa_offset 16
 2653 0004 00AF     		add	r7, sp, #0
ARM GAS  C:\Users\Chuck\AppData\Local\Temp\ccNCRqO6.s 			page 65


 2654              		.cfi_def_cfa_register 7
 2655 0006 7860     		str	r0, [r7, #4]
  95:./ros_lib/ros/subscriber.h ****       virtual const char * getMsgMD5(){ return this->msg.getMD5(); }
 2656              		.loc 7 95 0
 2657 0008 7B68     		ldr	r3, [r7, #4]
 2658 000a 0C33     		add	r3, r3, #12
 2659 000c 181C     		mov	r0, r3
 2660 000e FFF7FEFF 		bl	_ZN8std_msgs15UInt8MultiArray7getTypeEv
 2661 0012 031C     		mov	r3, r0
 2662 0014 181C     		mov	r0, r3
 2663 0016 BD46     		mov	sp, r7
 2664 0018 02B0     		add	sp, sp, #8
 2665              		@ sp needed
 2666 001a 80BD     		pop	{r7, pc}
 2667              		.cfi_endproc
 2668              	.LFE194:
 2669              		.size	_ZN3ros10SubscriberIN8std_msgs15UInt8MultiArrayEE10getMsgTypeEv, .-_ZN3ros10SubscriberIN8std
 2670              		.section	.text._ZN3ros10SubscriberIN8std_msgs15UInt8MultiArrayEE9getMsgMD5Ev,"axG",%progbits,_ZN3r
 2671              		.align	2
 2672              		.weak	_ZN3ros10SubscriberIN8std_msgs15UInt8MultiArrayEE9getMsgMD5Ev
 2673              		.code	16
 2674              		.thumb_func
 2675              		.type	_ZN3ros10SubscriberIN8std_msgs15UInt8MultiArrayEE9getMsgMD5Ev, %function
 2676              	_ZN3ros10SubscriberIN8std_msgs15UInt8MultiArrayEE9getMsgMD5Ev:
 2677              	.LFB195:
  96:./ros_lib/ros/subscriber.h ****       virtual int getEndpointType(){ return endpoint_; }
 2678              		.loc 7 96 0
 2679              		.cfi_startproc
 2680 0000 80B5     		push	{r7, lr}
 2681              		.cfi_def_cfa_offset 8
 2682              		.cfi_offset 7, -8
 2683              		.cfi_offset 14, -4
 2684 0002 82B0     		sub	sp, sp, #8
 2685              		.cfi_def_cfa_offset 16
 2686 0004 00AF     		add	r7, sp, #0
 2687              		.cfi_def_cfa_register 7
 2688 0006 7860     		str	r0, [r7, #4]
  96:./ros_lib/ros/subscriber.h ****       virtual int getEndpointType(){ return endpoint_; }
 2689              		.loc 7 96 0
 2690 0008 7B68     		ldr	r3, [r7, #4]
 2691 000a 0C33     		add	r3, r3, #12
 2692 000c 181C     		mov	r0, r3
 2693 000e FFF7FEFF 		bl	_ZN8std_msgs15UInt8MultiArray6getMD5Ev
 2694 0012 031C     		mov	r3, r0
 2695 0014 181C     		mov	r0, r3
 2696 0016 BD46     		mov	sp, r7
 2697 0018 02B0     		add	sp, sp, #8
 2698              		@ sp needed
 2699 001a 80BD     		pop	{r7, pc}
 2700              		.cfi_endproc
 2701              	.LFE195:
 2702              		.size	_ZN3ros10SubscriberIN8std_msgs15UInt8MultiArrayEE9getMsgMD5Ev, .-_ZN3ros10SubscriberIN8std_m
 2703              		.section	.text._GLOBAL__sub_I__ZN10I2C_device9reply_msgE,"ax",%progbits
 2704              		.align	2
 2705              		.code	16
 2706              		.thumb_func
 2707              		.type	_GLOBAL__sub_I__ZN10I2C_device9reply_msgE, %function
ARM GAS  C:\Users\Chuck\AppData\Local\Temp\ccNCRqO6.s 			page 66


 2708              	_GLOBAL__sub_I__ZN10I2C_device9reply_msgE:
 2709              	.LFB196:
 2710              		.loc 6 139 0
 2711              		.cfi_startproc
 2712 0000 80B5     		push	{r7, lr}
 2713              		.cfi_def_cfa_offset 8
 2714              		.cfi_offset 7, -8
 2715              		.cfi_offset 14, -4
 2716 0002 00AF     		add	r7, sp, #0
 2717              		.cfi_def_cfa_register 7
 2718              		.loc 6 139 0
 2719 0004 034B     		ldr	r3, .L142
 2720 0006 0120     		mov	r0, #1
 2721 0008 191C     		mov	r1, r3
 2722 000a FFF7FEFF 		bl	_Z41__static_initialization_and_destruction_0ii
 2723 000e BD46     		mov	sp, r7
 2724              		@ sp needed
 2725 0010 80BD     		pop	{r7, pc}
 2726              	.L143:
 2727 0012 C046     		.align	2
 2728              	.L142:
 2729 0014 FFFF0000 		.word	65535
 2730              		.cfi_endproc
 2731              	.LFE196:
 2732              		.size	_GLOBAL__sub_I__ZN10I2C_device9reply_msgE, .-_GLOBAL__sub_I__ZN10I2C_device9reply_msgE
 2733              		.section	.init_array,"aw",%init_array
 2734              		.align	2
 2735 0000 00000000 		.word	_GLOBAL__sub_I__ZN10I2C_device9reply_msgE(target1)
 2736              		.text
 2737              	.Letext0:
 2738              		.file 9 "c:\\program files (x86)\\cypress\\psoc creator\\3.3\\psoc creator\\import\\gnu\\arm\\4.9.
 2739              		.file 10 "c:\\program files (x86)\\cypress\\psoc creator\\3.3\\psoc creator\\import\\gnu\\arm\\4.9
 2740              		.file 11 "Generated_Source\\PSoC4/cytypes.h"
 2741              		.file 12 "./ros_lib/ros.h"
 2742              		.file 13 "./ros_lib/rosserial_msgs/TopicInfo.h"
 2743              		.file 14 "./ros_lib/Psoc4Hardware.h"
 2744              		.file 15 ".\\ros_lib\\examples\\I2C\\I2C_device.h"
 2745              		.file 16 "./ros_lib/std_msgs/Time.h"
 2746              		.file 17 "./ros_lib/rosserial_msgs/RequestParam.h"
 2747              		.file 18 "./ros_lib/Uarts.h"
 2748              		.section	.debug_info,"",%progbits
 2749              	.Ldebug_info0:
 2750 0000 D6170000 		.4byte	0x17d6
 2751 0004 0400     		.2byte	0x4
 2752 0006 00000000 		.4byte	.Ldebug_abbrev0
 2753 000a 04       		.byte	0x4
 2754 000b 01       		.uleb128 0x1
 2755 000c 47000000 		.4byte	.LASF191
 2756 0010 04       		.byte	0x4
 2757 0011 C20D0000 		.4byte	.LASF192
 2758 0015 690C0000 		.4byte	.LASF193
 2759 0019 00000000 		.4byte	.Ldebug_ranges0+0
 2760 001d 00000000 		.4byte	0
 2761 0021 00000000 		.4byte	.Ldebug_line0
 2762 0025 02       		.uleb128 0x2
 2763 0026 01       		.byte	0x1
 2764 0027 06       		.byte	0x6
ARM GAS  C:\Users\Chuck\AppData\Local\Temp\ccNCRqO6.s 			page 67


 2765 0028 E80F0000 		.4byte	.LASF0
 2766 002c 03       		.uleb128 0x3
 2767 002d 650D0000 		.4byte	.LASF3
 2768 0031 09       		.byte	0x9
 2769 0032 1D       		.byte	0x1d
 2770 0033 37000000 		.4byte	0x37
 2771 0037 02       		.uleb128 0x2
 2772 0038 01       		.byte	0x1
 2773 0039 08       		.byte	0x8
 2774 003a D50E0000 		.4byte	.LASF1
 2775 003e 02       		.uleb128 0x2
 2776 003f 02       		.byte	0x2
 2777 0040 05       		.byte	0x5
 2778 0041 850B0000 		.4byte	.LASF2
 2779 0045 03       		.uleb128 0x3
 2780 0046 18050000 		.4byte	.LASF4
 2781 004a 09       		.byte	0x9
 2782 004b 2B       		.byte	0x2b
 2783 004c 50000000 		.4byte	0x50
 2784 0050 02       		.uleb128 0x2
 2785 0051 02       		.byte	0x2
 2786 0052 07       		.byte	0x7
 2787 0053 19100000 		.4byte	.LASF5
 2788 0057 03       		.uleb128 0x3
 2789 0058 43020000 		.4byte	.LASF6
 2790 005c 09       		.byte	0x9
 2791 005d 3F       		.byte	0x3f
 2792 005e 62000000 		.4byte	0x62
 2793 0062 02       		.uleb128 0x2
 2794 0063 04       		.byte	0x4
 2795 0064 05       		.byte	0x5
 2796 0065 DC0B0000 		.4byte	.LASF7
 2797 0069 03       		.uleb128 0x3
 2798 006a E90E0000 		.4byte	.LASF8
 2799 006e 09       		.byte	0x9
 2800 006f 41       		.byte	0x41
 2801 0070 74000000 		.4byte	0x74
 2802 0074 02       		.uleb128 0x2
 2803 0075 04       		.byte	0x4
 2804 0076 07       		.byte	0x7
 2805 0077 030E0000 		.4byte	.LASF9
 2806 007b 02       		.uleb128 0x2
 2807 007c 08       		.byte	0x8
 2808 007d 05       		.byte	0x5
 2809 007e 54070000 		.4byte	.LASF10
 2810 0082 02       		.uleb128 0x2
 2811 0083 08       		.byte	0x8
 2812 0084 07       		.byte	0x7
 2813 0085 9D040000 		.4byte	.LASF11
 2814 0089 04       		.uleb128 0x4
 2815 008a 04       		.byte	0x4
 2816 008b 05       		.byte	0x5
 2817 008c 696E7400 		.ascii	"int\000"
 2818 0090 02       		.uleb128 0x2
 2819 0091 04       		.byte	0x4
 2820 0092 07       		.byte	0x7
 2821 0093 36020000 		.4byte	.LASF12
ARM GAS  C:\Users\Chuck\AppData\Local\Temp\ccNCRqO6.s 			page 68


 2822 0097 03       		.uleb128 0x3
 2823 0098 09070000 		.4byte	.LASF13
 2824 009c 0A       		.byte	0xa
 2825 009d 15       		.byte	0x15
 2826 009e 2C000000 		.4byte	0x2c
 2827 00a2 03       		.uleb128 0x3
 2828 00a3 BD0A0000 		.4byte	.LASF14
 2829 00a7 0A       		.byte	0xa
 2830 00a8 21       		.byte	0x21
 2831 00a9 45000000 		.4byte	0x45
 2832 00ad 03       		.uleb128 0x3
 2833 00ae 4D0E0000 		.4byte	.LASF15
 2834 00b2 0A       		.byte	0xa
 2835 00b3 2C       		.byte	0x2c
 2836 00b4 57000000 		.4byte	0x57
 2837 00b8 03       		.uleb128 0x3
 2838 00b9 14040000 		.4byte	.LASF16
 2839 00bd 0A       		.byte	0xa
 2840 00be 2D       		.byte	0x2d
 2841 00bf 69000000 		.4byte	0x69
 2842 00c3 03       		.uleb128 0x3
 2843 00c4 DE060000 		.4byte	.LASF17
 2844 00c8 0B       		.byte	0xb
 2845 00c9 5C       		.byte	0x5c
 2846 00ca 50000000 		.4byte	0x50
 2847 00ce 02       		.uleb128 0x2
 2848 00cf 04       		.byte	0x4
 2849 00d0 04       		.byte	0x4
 2850 00d1 47040000 		.4byte	.LASF18
 2851 00d5 02       		.uleb128 0x2
 2852 00d6 08       		.byte	0x8
 2853 00d7 04       		.byte	0x4
 2854 00d8 43100000 		.4byte	.LASF19
 2855 00dc 02       		.uleb128 0x2
 2856 00dd 01       		.byte	0x1
 2857 00de 08       		.byte	0x8
 2858 00df BD060000 		.4byte	.LASF20
 2859 00e3 02       		.uleb128 0x2
 2860 00e4 04       		.byte	0x4
 2861 00e5 07       		.byte	0x7
 2862 00e6 FA0D0000 		.4byte	.LASF21
 2863 00ea 05       		.uleb128 0x5
 2864 00eb 04       		.byte	0x4
 2865 00ec 06       		.uleb128 0x6
 2866 00ed 04       		.byte	0x4
 2867 00ee 37000000 		.4byte	0x37
 2868 00f2 06       		.uleb128 0x6
 2869 00f3 04       		.byte	0x4
 2870 00f4 F8000000 		.4byte	0xf8
 2871 00f8 07       		.uleb128 0x7
 2872 00f9 DC000000 		.4byte	0xdc
 2873 00fd 02       		.uleb128 0x2
 2874 00fe 08       		.byte	0x8
 2875 00ff 04       		.byte	0x4
 2876 0100 B10A0000 		.4byte	.LASF22
 2877 0104 08       		.uleb128 0x8
 2878 0105 726F7300 		.ascii	"ros\000"
ARM GAS  C:\Users\Chuck\AppData\Local\Temp\ccNCRqO6.s 			page 69


 2879 0109 01       		.byte	0x1
 2880 010a 28       		.byte	0x28
 2881 010b 93060000 		.4byte	0x693
 2882 010f 09       		.uleb128 0x9
 2883 0110 23050000 		.4byte	.LASF28
 2884 0114 14       		.byte	0x14
 2885 0115 02       		.byte	0x2
 2886 0116 2C       		.byte	0x2c
 2887 0117 E5010000 		.4byte	0x1e5
 2888 011b 0A       		.uleb128 0xa
 2889 011c 31100000 		.4byte	.LASF23
 2890 0120 02       		.byte	0x2
 2891 0121 39       		.byte	0x39
 2892 0122 F2000000 		.4byte	0xf2
 2893 0126 00       		.byte	0
 2894 0127 01       		.byte	0x1
 2895 0128 0A       		.uleb128 0xa
 2896 0129 2C100000 		.4byte	.LASF24
 2897 012d 02       		.byte	0x2
 2898 012e 3A       		.byte	0x3a
 2899 012f E4070000 		.4byte	0x7e4
 2900 0133 04       		.byte	0x4
 2901 0134 01       		.byte	0x1
 2902 0135 0B       		.uleb128 0xb
 2903 0136 69645F00 		.ascii	"id_\000"
 2904 013a 02       		.byte	0x2
 2905 013b 3C       		.byte	0x3c
 2906 013c 89000000 		.4byte	0x89
 2907 0140 08       		.byte	0x8
 2908 0141 01       		.byte	0x1
 2909 0142 0B       		.uleb128 0xb
 2910 0143 6E685F00 		.ascii	"nh_\000"
 2911 0147 02       		.byte	0x2
 2912 0148 3D       		.byte	0x3d
 2913 0149 EA070000 		.4byte	0x7ea
 2914 014d 0C       		.byte	0xc
 2915 014e 01       		.byte	0x1
 2916 014f 0C       		.uleb128 0xc
 2917 0150 5B0D0000 		.4byte	.LASF30
 2918 0154 02       		.byte	0x2
 2919 0155 40       		.byte	0x40
 2920 0156 89000000 		.4byte	0x89
 2921 015a 10       		.byte	0x10
 2922 015b 0D       		.uleb128 0xd
 2923 015c 23050000 		.4byte	.LASF28
 2924 0160 02       		.byte	0x2
 2925 0161 2F       		.byte	0x2f
 2926 0162 F0070000 		.4byte	0x7f0
 2927 0166 01       		.byte	0x1
 2928 0167 6F010000 		.4byte	0x16f
 2929 016b 84010000 		.4byte	0x184
 2930 016f 0E       		.uleb128 0xe
 2931 0170 F0070000 		.4byte	0x7f0
 2932 0174 0F       		.uleb128 0xf
 2933 0175 F2000000 		.4byte	0xf2
 2934 0179 0F       		.uleb128 0xf
 2935 017a E4070000 		.4byte	0x7e4
ARM GAS  C:\Users\Chuck\AppData\Local\Temp\ccNCRqO6.s 			page 70


 2936 017e 0F       		.uleb128 0xf
 2937 017f 89000000 		.4byte	0x89
 2938 0183 00       		.byte	0
 2939 0184 10       		.uleb128 0x10
 2940 0185 00040000 		.4byte	.LASF25
 2941 0189 02       		.byte	0x2
 2942 018a 34       		.byte	0x34
 2943 018b 520F0000 		.4byte	.LASF26
 2944 018f 89000000 		.4byte	0x89
 2945 0193 01       		.byte	0x1
 2946 0194 9C010000 		.4byte	0x19c
 2947 0198 A7010000 		.4byte	0x1a7
 2948 019c 0E       		.uleb128 0xe
 2949 019d F0070000 		.4byte	0x7f0
 2950 01a1 0F       		.uleb128 0xf
 2951 01a2 F6070000 		.4byte	0x7f6
 2952 01a6 00       		.byte	0
 2953 01a7 10       		.uleb128 0x10
 2954 01a8 00040000 		.4byte	.LASF25
 2955 01ac 02       		.byte	0x2
 2956 01ad 36       		.byte	0x36
 2957 01ae D8050000 		.4byte	.LASF27
 2958 01b2 89000000 		.4byte	0x89
 2959 01b6 01       		.byte	0x1
 2960 01b7 BF010000 		.4byte	0x1bf
 2961 01bb CA010000 		.4byte	0x1ca
 2962 01bf 0E       		.uleb128 0xe
 2963 01c0 F0070000 		.4byte	0x7f0
 2964 01c4 0F       		.uleb128 0xf
 2965 01c5 FC070000 		.4byte	0x7fc
 2966 01c9 00       		.byte	0
 2967 01ca 11       		.uleb128 0x11
 2968 01cb 4A060000 		.4byte	.LASF29
 2969 01cf 02       		.byte	0x2
 2970 01d0 37       		.byte	0x37
 2971 01d1 B7090000 		.4byte	.LASF42
 2972 01d5 89000000 		.4byte	0x89
 2973 01d9 01       		.byte	0x1
 2974 01da DE010000 		.4byte	0x1de
 2975 01de 0E       		.uleb128 0xe
 2976 01df F0070000 		.4byte	0x7f0
 2977 01e3 00       		.byte	0
 2978 01e4 00       		.byte	0
 2979 01e5 12       		.uleb128 0x12
 2980 01e6 4D736700 		.ascii	"Msg\000"
 2981 01ea 04       		.byte	0x4
 2982 01eb 01       		.byte	0x1
 2983 01ec 2B       		.byte	0x2b
 2984 01ed E5010000 		.4byte	0x1e5
 2985 01f1 2F030000 		.4byte	0x32f
 2986 01f5 13       		.uleb128 0x13
 2987 01f6 150E0000 		.4byte	.LASF31
 2988 01fa A30E0000 		.4byte	0xea3
 2989 01fe 00       		.byte	0
 2990 01ff 01       		.byte	0x1
 2991 0200 14       		.uleb128 0x14
 2992 0201 C8050000 		.4byte	.LASF32
ARM GAS  C:\Users\Chuck\AppData\Local\Temp\ccNCRqO6.s 			page 71


 2993 0205 EA000000 		.4byte	0xea
 2994 0209 01       		.byte	0x1
 2995 020a 12020000 		.4byte	0x212
 2996 020e 1D020000 		.4byte	0x21d
 2997 0212 0E       		.uleb128 0xe
 2998 0213 E4070000 		.4byte	0x7e4
 2999 0217 0E       		.uleb128 0xe
 3000 0218 89000000 		.4byte	0x89
 3001 021c 00       		.byte	0
 3002 021d 15       		.uleb128 0x15
 3003 021e 4D736700 		.ascii	"Msg\000"
 3004 0222 E4070000 		.4byte	0x7e4
 3005 0226 01       		.byte	0x1
 3006 0227 2F020000 		.4byte	0x22f
 3007 022b 3A020000 		.4byte	0x23a
 3008 022f 0E       		.uleb128 0xe
 3009 0230 E4070000 		.4byte	0x7e4
 3010 0234 0F       		.uleb128 0xf
 3011 0235 FC070000 		.4byte	0x7fc
 3012 0239 00       		.byte	0
 3013 023a 15       		.uleb128 0x15
 3014 023b 4D736700 		.ascii	"Msg\000"
 3015 023f E4070000 		.4byte	0x7e4
 3016 0243 01       		.byte	0x1
 3017 0244 4C020000 		.4byte	0x24c
 3018 0248 52020000 		.4byte	0x252
 3019 024c 0E       		.uleb128 0xe
 3020 024d E4070000 		.4byte	0x7e4
 3021 0251 00       		.byte	0
 3022 0252 16       		.uleb128 0x16
 3023 0253 B8010000 		.4byte	.LASF33
 3024 0257 01       		.byte	0x1
 3025 0258 2E       		.byte	0x2e
 3026 0259 400A0000 		.4byte	.LASF35
 3027 025d 89000000 		.4byte	0x89
 3028 0261 01       		.byte	0x1
 3029 0262 02       		.uleb128 0x2
 3030 0263 10       		.byte	0x10
 3031 0264 00       		.uleb128 0
 3032 0265 E5010000 		.4byte	0x1e5
 3033 0269 01       		.byte	0x1
 3034 026a 72020000 		.4byte	0x272
 3035 026e 7D020000 		.4byte	0x27d
 3036 0272 0E       		.uleb128 0xe
 3037 0273 F6070000 		.4byte	0x7f6
 3038 0277 0F       		.uleb128 0xf
 3039 0278 EC000000 		.4byte	0xec
 3040 027c 00       		.byte	0
 3041 027d 16       		.uleb128 0x16
 3042 027e 48070000 		.4byte	.LASF34
 3043 0282 01       		.byte	0x1
 3044 0283 2F       		.byte	0x2f
 3045 0284 C2060000 		.4byte	.LASF36
 3046 0288 89000000 		.4byte	0x89
 3047 028c 01       		.byte	0x1
 3048 028d 02       		.uleb128 0x2
 3049 028e 10       		.byte	0x10
ARM GAS  C:\Users\Chuck\AppData\Local\Temp\ccNCRqO6.s 			page 72


 3050 028f 01       		.uleb128 0x1
 3051 0290 E5010000 		.4byte	0x1e5
 3052 0294 01       		.byte	0x1
 3053 0295 9D020000 		.4byte	0x29d
 3054 0299 A8020000 		.4byte	0x2a8
 3055 029d 0E       		.uleb128 0xe
 3056 029e E4070000 		.4byte	0x7e4
 3057 02a2 0F       		.uleb128 0xf
 3058 02a3 EC000000 		.4byte	0xec
 3059 02a7 00       		.byte	0
 3060 02a8 16       		.uleb128 0x16
 3061 02a9 D4080000 		.4byte	.LASF37
 3062 02ad 01       		.byte	0x1
 3063 02ae 30       		.byte	0x30
 3064 02af 4A100000 		.4byte	.LASF38
 3065 02b3 F2000000 		.4byte	0xf2
 3066 02b7 01       		.byte	0x1
 3067 02b8 02       		.uleb128 0x2
 3068 02b9 10       		.byte	0x10
 3069 02ba 02       		.uleb128 0x2
 3070 02bb E5010000 		.4byte	0x1e5
 3071 02bf 01       		.byte	0x1
 3072 02c0 C8020000 		.4byte	0x2c8
 3073 02c4 CE020000 		.4byte	0x2ce
 3074 02c8 0E       		.uleb128 0xe
 3075 02c9 E4070000 		.4byte	0x7e4
 3076 02cd 00       		.byte	0
 3077 02ce 16       		.uleb128 0x16
 3078 02cf 750B0000 		.4byte	.LASF39
 3079 02d3 01       		.byte	0x1
 3080 02d4 31       		.byte	0x31
 3081 02d5 E0040000 		.4byte	.LASF40
 3082 02d9 F2000000 		.4byte	0xf2
 3083 02dd 01       		.byte	0x1
 3084 02de 02       		.uleb128 0x2
 3085 02df 10       		.byte	0x10
 3086 02e0 03       		.uleb128 0x3
 3087 02e1 E5010000 		.4byte	0x1e5
 3088 02e5 01       		.byte	0x1
 3089 02e6 EE020000 		.4byte	0x2ee
 3090 02ea F4020000 		.4byte	0x2f4
 3091 02ee 0E       		.uleb128 0xe
 3092 02ef E4070000 		.4byte	0x7e4
 3093 02f3 00       		.byte	0
 3094 02f4 17       		.uleb128 0x17
 3095 02f5 770F0000 		.4byte	.LASF41
 3096 02f9 01       		.byte	0x1
 3097 02fa 3E       		.byte	0x3e
 3098 02fb 40080000 		.4byte	.LASF43
 3099 02ff 89000000 		.4byte	0x89
 3100 0303 01       		.byte	0x1
 3101 0304 13030000 		.4byte	0x313
 3102 0308 0F       		.uleb128 0xf
 3103 0309 EC000000 		.4byte	0xec
 3104 030d 0F       		.uleb128 0xf
 3105 030e CE000000 		.4byte	0xce
 3106 0312 00       		.byte	0
ARM GAS  C:\Users\Chuck\AppData\Local\Temp\ccNCRqO6.s 			page 73


 3107 0313 18       		.uleb128 0x18
 3108 0314 F5040000 		.4byte	.LASF44
 3109 0318 01       		.byte	0x1
 3110 0319 64       		.byte	0x64
 3111 031a A9070000 		.4byte	.LASF194
 3112 031e 89000000 		.4byte	0x89
 3113 0322 01       		.byte	0x1
 3114 0323 0F       		.uleb128 0xf
 3115 0324 D10E0000 		.4byte	0xed1
 3116 0328 0F       		.uleb128 0xf
 3117 0329 BF0E0000 		.4byte	0xebf
 3118 032d 00       		.byte	0
 3119 032e 00       		.byte	0
 3120 032f 19       		.uleb128 0x19
 3121 0330 1F060000 		.4byte	.LASF103
 3122 0334 07       		.uleb128 0x7
 3123 0335 E5010000 		.4byte	0x1e5
 3124 0339 1A       		.uleb128 0x1a
 3125 033a 08       		.byte	0x8
 3126 033b 5E       		.byte	0x5e
 3127 033c 9E060000 		.4byte	0x69e
 3128 0340 1B       		.uleb128 0x1b
 3129 0341 8B0F0000 		.4byte	.LASF45
 3130 0345 44       		.byte	0x44
 3131 0346 07       		.byte	0x7
 3132 0347 3C       		.byte	0x3c
 3133 0348 D4040000 		.4byte	0x4d4
 3134 034c D4040000 		.4byte	0x4d4
 3135 0350 1C       		.uleb128 0x1c
 3136 0351 D4040000 		.4byte	0x4d4
 3137 0355 00       		.byte	0
 3138 0356 01       		.byte	0x1
 3139 0357 0B       		.uleb128 0xb
 3140 0358 6D736700 		.ascii	"msg\000"
 3141 035c 07       		.byte	0x7
 3142 035d 3F       		.byte	0x3f
 3143 035e 770A0000 		.4byte	0xa77
 3144 0362 0C       		.byte	0xc
 3145 0363 01       		.byte	0x1
 3146 0364 1D       		.uleb128 0x1d
 3147 0365 59040000 		.4byte	.LASF46
 3148 0369 07       		.byte	0x7
 3149 036a 3E       		.byte	0x3e
 3150 036b 340E0000 		.4byte	0xe34
 3151 036f 01       		.byte	0x1
 3152 0370 0B       		.uleb128 0xb
 3153 0371 63625F00 		.ascii	"cb_\000"
 3154 0375 07       		.byte	0x7
 3155 0376 63       		.byte	0x63
 3156 0377 64030000 		.4byte	0x364
 3157 037b 38       		.byte	0x38
 3158 037c 01       		.byte	0x1
 3159 037d 1D       		.uleb128 0x1d
 3160 037e C3020000 		.4byte	.LASF47
 3161 0382 07       		.byte	0x7
 3162 0383 48       		.byte	0x48
 3163 0384 4B0E0000 		.4byte	0xe4b
ARM GAS  C:\Users\Chuck\AppData\Local\Temp\ccNCRqO6.s 			page 74


 3164 0388 01       		.byte	0x1
 3165 0389 0A       		.uleb128 0xa
 3166 038a 18110000 		.4byte	.LASF48
 3167 038e 07       		.byte	0x7
 3168 038f 64       		.byte	0x64
 3169 0390 7D030000 		.4byte	0x37d
 3170 0394 3C       		.byte	0x3c
 3171 0395 01       		.byte	0x1
 3172 0396 0A       		.uleb128 0xa
 3173 0397 5B0D0000 		.4byte	.LASF30
 3174 039b 07       		.byte	0x7
 3175 039c 65       		.byte	0x65
 3176 039d 89000000 		.4byte	0x89
 3177 03a1 40       		.byte	0x40
 3178 03a2 01       		.byte	0x1
 3179 03a3 14       		.uleb128 0x14
 3180 03a4 A60A0000 		.4byte	.LASF49
 3181 03a8 620E0000 		.4byte	0xe62
 3182 03ac 01       		.byte	0x1
 3183 03ad B5030000 		.4byte	0x3b5
 3184 03b1 C0030000 		.4byte	0x3c0
 3185 03b5 0E       		.uleb128 0xe
 3186 03b6 620E0000 		.4byte	0xe62
 3187 03ba 0F       		.uleb128 0xf
 3188 03bb 680E0000 		.4byte	0xe68
 3189 03bf 00       		.byte	0
 3190 03c0 0D       		.uleb128 0xd
 3191 03c1 A60A0000 		.4byte	.LASF49
 3192 03c5 07       		.byte	0x7
 3193 03c6 41       		.byte	0x41
 3194 03c7 620E0000 		.4byte	0xe62
 3195 03cb 01       		.byte	0x1
 3196 03cc D4030000 		.4byte	0x3d4
 3197 03d0 E9030000 		.4byte	0x3e9
 3198 03d4 0E       		.uleb128 0xe
 3199 03d5 620E0000 		.4byte	0xe62
 3200 03d9 0F       		.uleb128 0xf
 3201 03da F2000000 		.4byte	0xf2
 3202 03de 0F       		.uleb128 0xf
 3203 03df 64030000 		.4byte	0x364
 3204 03e3 0F       		.uleb128 0xf
 3205 03e4 89000000 		.4byte	0x89
 3206 03e8 00       		.byte	0
 3207 03e9 0D       		.uleb128 0xd
 3208 03ea A60A0000 		.4byte	.LASF49
 3209 03ee 07       		.byte	0x7
 3210 03ef 49       		.byte	0x49
 3211 03f0 620E0000 		.4byte	0xe62
 3212 03f4 01       		.byte	0x1
 3213 03f5 FD030000 		.4byte	0x3fd
 3214 03f9 12040000 		.4byte	0x412
 3215 03fd 0E       		.uleb128 0xe
 3216 03fe 620E0000 		.4byte	0xe62
 3217 0402 0F       		.uleb128 0xf
 3218 0403 F2000000 		.4byte	0xf2
 3219 0407 0F       		.uleb128 0xf
 3220 0408 7D030000 		.4byte	0x37d
ARM GAS  C:\Users\Chuck\AppData\Local\Temp\ccNCRqO6.s 			page 75


 3221 040c 0F       		.uleb128 0xf
 3222 040d 89000000 		.4byte	0x89
 3223 0411 00       		.byte	0
 3224 0412 0D       		.uleb128 0xd
 3225 0413 A60A0000 		.4byte	.LASF49
 3226 0417 07       		.byte	0x7
 3227 0418 50       		.byte	0x50
 3228 0419 620E0000 		.4byte	0xe62
 3229 041d 01       		.byte	0x1
 3230 041e 26040000 		.4byte	0x426
 3231 0422 31040000 		.4byte	0x431
 3232 0426 0E       		.uleb128 0xe
 3233 0427 620E0000 		.4byte	0xe62
 3234 042b 0F       		.uleb128 0xf
 3235 042c 89000000 		.4byte	0x89
 3236 0430 00       		.byte	0
 3237 0431 1E       		.uleb128 0x1e
 3238 0432 3F0F0000 		.4byte	.LASF58
 3239 0436 07       		.byte	0x7
 3240 0437 56       		.byte	0x56
 3241 0438 1D0C0000 		.4byte	.LASF59
 3242 043c 01       		.byte	0x1
 3243 043d 02       		.uleb128 0x2
 3244 043e 10       		.byte	0x10
 3245 043f 00       		.uleb128 0
 3246 0440 40030000 		.4byte	0x340
 3247 0444 01       		.byte	0x1
 3248 0445 4D040000 		.4byte	0x44d
 3249 0449 58040000 		.4byte	0x458
 3250 044d 0E       		.uleb128 0xe
 3251 044e 620E0000 		.4byte	0xe62
 3252 0452 0F       		.uleb128 0xf
 3253 0453 EC000000 		.4byte	0xec
 3254 0457 00       		.byte	0
 3255 0458 16       		.uleb128 0x16
 3256 0459 AE050000 		.4byte	.LASF50
 3257 045d 07       		.byte	0x7
 3258 045e 5F       		.byte	0x5f
 3259 045f 84030000 		.4byte	.LASF51
 3260 0463 F2000000 		.4byte	0xf2
 3261 0467 01       		.byte	0x1
 3262 0468 02       		.uleb128 0x2
 3263 0469 10       		.byte	0x10
 3264 046a 02       		.uleb128 0x2
 3265 046b 40030000 		.4byte	0x340
 3266 046f 01       		.byte	0x1
 3267 0470 78040000 		.4byte	0x478
 3268 0474 7E040000 		.4byte	0x47e
 3269 0478 0E       		.uleb128 0xe
 3270 0479 620E0000 		.4byte	0xe62
 3271 047d 00       		.byte	0
 3272 047e 16       		.uleb128 0x16
 3273 047f 32050000 		.4byte	.LASF52
 3274 0483 07       		.byte	0x7
 3275 0484 60       		.byte	0x60
 3276 0485 940B0000 		.4byte	.LASF53
 3277 0489 F2000000 		.4byte	0xf2
ARM GAS  C:\Users\Chuck\AppData\Local\Temp\ccNCRqO6.s 			page 76


 3278 048d 01       		.byte	0x1
 3279 048e 02       		.uleb128 0x2
 3280 048f 10       		.byte	0x10
 3281 0490 03       		.uleb128 0x3
 3282 0491 40030000 		.4byte	0x340
 3283 0495 01       		.byte	0x1
 3284 0496 9E040000 		.4byte	0x49e
 3285 049a A4040000 		.4byte	0x4a4
 3286 049e 0E       		.uleb128 0xe
 3287 049f 620E0000 		.4byte	0xe62
 3288 04a3 00       		.byte	0
 3289 04a4 16       		.uleb128 0x16
 3290 04a5 4A060000 		.4byte	.LASF29
 3291 04a9 07       		.byte	0x7
 3292 04aa 61       		.byte	0x61
 3293 04ab 8F0C0000 		.4byte	.LASF54
 3294 04af 89000000 		.4byte	0x89
 3295 04b3 01       		.byte	0x1
 3296 04b4 02       		.uleb128 0x2
 3297 04b5 10       		.byte	0x10
 3298 04b6 01       		.uleb128 0x1
 3299 04b7 40030000 		.4byte	0x340
 3300 04bb 01       		.byte	0x1
 3301 04bc C4040000 		.4byte	0x4c4
 3302 04c0 CA040000 		.4byte	0x4ca
 3303 04c4 0E       		.uleb128 0xe
 3304 04c5 620E0000 		.4byte	0xe62
 3305 04c9 00       		.byte	0
 3306 04ca 1F       		.uleb128 0x1f
 3307 04cb EA060000 		.4byte	.LASF68
 3308 04cf 770A0000 		.4byte	0xa77
 3309 04d3 00       		.byte	0
 3310 04d4 1B       		.uleb128 0x1b
 3311 04d5 550E0000 		.4byte	.LASF55
 3312 04d9 0C       		.byte	0xc
 3313 04da 07       		.byte	0x7
 3314 04db 2B       		.byte	0x2b
 3315 04dc D4040000 		.4byte	0x4d4
 3316 04e0 F1050000 		.4byte	0x5f1
 3317 04e4 13       		.uleb128 0x13
 3318 04e5 2E080000 		.4byte	.LASF56
 3319 04e9 A30E0000 		.4byte	0xea3
 3320 04ed 00       		.byte	0
 3321 04ee 01       		.byte	0x1
 3322 04ef 0B       		.uleb128 0xb
 3323 04f0 69645F00 		.ascii	"id_\000"
 3324 04f4 07       		.byte	0x7
 3325 04f5 32       		.byte	0x32
 3326 04f6 89000000 		.4byte	0x89
 3327 04fa 04       		.byte	0x4
 3328 04fb 01       		.byte	0x1
 3329 04fc 0A       		.uleb128 0xa
 3330 04fd 31100000 		.4byte	.LASF23
 3331 0501 07       		.byte	0x7
 3332 0502 36       		.byte	0x36
 3333 0503 F2000000 		.4byte	0xf2
 3334 0507 08       		.byte	0x8
ARM GAS  C:\Users\Chuck\AppData\Local\Temp\ccNCRqO6.s 			page 77


 3335 0508 01       		.byte	0x1
 3336 0509 14       		.uleb128 0x14
 3337 050a B0060000 		.4byte	.LASF57
 3338 050e EA000000 		.4byte	0xea
 3339 0512 01       		.byte	0x1
 3340 0513 1B050000 		.4byte	0x51b
 3341 0517 26050000 		.4byte	0x526
 3342 051b 0E       		.uleb128 0xe
 3343 051c B30E0000 		.4byte	0xeb3
 3344 0520 0E       		.uleb128 0xe
 3345 0521 89000000 		.4byte	0x89
 3346 0525 00       		.byte	0
 3347 0526 14       		.uleb128 0x14
 3348 0527 550E0000 		.4byte	.LASF55
 3349 052b B30E0000 		.4byte	0xeb3
 3350 052f 01       		.byte	0x1
 3351 0530 38050000 		.4byte	0x538
 3352 0534 43050000 		.4byte	0x543
 3353 0538 0E       		.uleb128 0xe
 3354 0539 B30E0000 		.4byte	0xeb3
 3355 053d 0F       		.uleb128 0xf
 3356 053e B90E0000 		.4byte	0xeb9
 3357 0542 00       		.byte	0
 3358 0543 14       		.uleb128 0x14
 3359 0544 550E0000 		.4byte	.LASF55
 3360 0548 B30E0000 		.4byte	0xeb3
 3361 054c 01       		.byte	0x1
 3362 054d 55050000 		.4byte	0x555
 3363 0551 5B050000 		.4byte	0x55b
 3364 0555 0E       		.uleb128 0xe
 3365 0556 B30E0000 		.4byte	0xeb3
 3366 055a 00       		.byte	0
 3367 055b 1E       		.uleb128 0x1e
 3368 055c 3F0F0000 		.4byte	.LASF58
 3369 0560 07       		.byte	0x7
 3370 0561 2E       		.byte	0x2e
 3371 0562 DF030000 		.4byte	.LASF60
 3372 0566 01       		.byte	0x1
 3373 0567 02       		.uleb128 0x2
 3374 0568 10       		.byte	0x10
 3375 0569 00       		.uleb128 0
 3376 056a D4040000 		.4byte	0x4d4
 3377 056e 01       		.byte	0x1
 3378 056f 77050000 		.4byte	0x577
 3379 0573 82050000 		.4byte	0x582
 3380 0577 0E       		.uleb128 0xe
 3381 0578 B30E0000 		.4byte	0xeb3
 3382 057c 0F       		.uleb128 0xf
 3383 057d EC000000 		.4byte	0xec
 3384 0581 00       		.byte	0
 3385 0582 16       		.uleb128 0x16
 3386 0583 4A060000 		.4byte	.LASF29
 3387 0587 07       		.byte	0x7
 3388 0588 2F       		.byte	0x2f
 3389 0589 77050000 		.4byte	.LASF61
 3390 058d 89000000 		.4byte	0x89
 3391 0591 01       		.byte	0x1
ARM GAS  C:\Users\Chuck\AppData\Local\Temp\ccNCRqO6.s 			page 78


 3392 0592 02       		.uleb128 0x2
 3393 0593 10       		.byte	0x10
 3394 0594 01       		.uleb128 0x1
 3395 0595 D4040000 		.4byte	0x4d4
 3396 0599 01       		.byte	0x1
 3397 059a A2050000 		.4byte	0x5a2
 3398 059e A8050000 		.4byte	0x5a8
 3399 05a2 0E       		.uleb128 0xe
 3400 05a3 B30E0000 		.4byte	0xeb3
 3401 05a7 00       		.byte	0
 3402 05a8 16       		.uleb128 0x16
 3403 05a9 AE050000 		.4byte	.LASF50
 3404 05ad 07       		.byte	0x7
 3405 05ae 34       		.byte	0x34
 3406 05af 680A0000 		.4byte	.LASF62
 3407 05b3 F2000000 		.4byte	0xf2
 3408 05b7 01       		.byte	0x1
 3409 05b8 02       		.uleb128 0x2
 3410 05b9 10       		.byte	0x10
 3411 05ba 02       		.uleb128 0x2
 3412 05bb D4040000 		.4byte	0x4d4
 3413 05bf 01       		.byte	0x1
 3414 05c0 C8050000 		.4byte	0x5c8
 3415 05c4 CE050000 		.4byte	0x5ce
 3416 05c8 0E       		.uleb128 0xe
 3417 05c9 B30E0000 		.4byte	0xeb3
 3418 05cd 00       		.byte	0
 3419 05ce 20       		.uleb128 0x20
 3420 05cf 32050000 		.4byte	.LASF52
 3421 05d3 07       		.byte	0x7
 3422 05d4 35       		.byte	0x35
 3423 05d5 F3010000 		.4byte	.LASF63
 3424 05d9 F2000000 		.4byte	0xf2
 3425 05dd 01       		.byte	0x1
 3426 05de 02       		.uleb128 0x2
 3427 05df 10       		.byte	0x10
 3428 05e0 03       		.uleb128 0x3
 3429 05e1 D4040000 		.4byte	0x4d4
 3430 05e5 01       		.byte	0x1
 3431 05e6 EA050000 		.4byte	0x5ea
 3432 05ea 0E       		.uleb128 0xe
 3433 05eb B30E0000 		.4byte	0xeb3
 3434 05ef 00       		.byte	0
 3435 05f0 00       		.byte	0
 3436 05f1 07       		.uleb128 0x7
 3437 05f2 40030000 		.4byte	0x340
 3438 05f6 07       		.uleb128 0x7
 3439 05f7 D4040000 		.4byte	0x4d4
 3440 05fb 21       		.uleb128 0x21
 3441 05fc 3A0B0000 		.4byte	.LASF195
 3442 0600 87060000 		.4byte	0x687
 3443 0604 22       		.uleb128 0x22
 3444 0605 DC080000 		.4byte	.LASF64
 3445 0609 08       		.byte	0x8
 3446 060a 5601     		.2byte	0x156
 3447 060c 61090000 		.4byte	.LASF66
 3448 0610 68150000 		.4byte	0x1568
ARM GAS  C:\Users\Chuck\AppData\Local\Temp\ccNCRqO6.s 			page 79


 3449 0614 01       		.byte	0x1
 3450 0615 1D060000 		.4byte	0x61d
 3451 0619 28060000 		.4byte	0x628
 3452 061d 0E       		.uleb128 0xe
 3453 061e 6F150000 		.4byte	0x156f
 3454 0622 0F       		.uleb128 0xf
 3455 0623 75150000 		.4byte	0x1575
 3456 0627 00       		.byte	0
 3457 0628 22       		.uleb128 0x22
 3458 0629 F40F0000 		.4byte	.LASF65
 3459 062d 08       		.byte	0x8
 3460 062e 6501     		.2byte	0x165
 3461 0630 E6080000 		.4byte	.LASF67
 3462 0634 68150000 		.4byte	0x1568
 3463 0638 01       		.byte	0x1
 3464 0639 4A060000 		.4byte	0x64a
 3465 063d 55060000 		.4byte	0x655
 3466 0641 1F       		.uleb128 0x1f
 3467 0642 EA060000 		.4byte	.LASF68
 3468 0646 770A0000 		.4byte	0xa77
 3469 064a 0E       		.uleb128 0xe
 3470 064b 6F150000 		.4byte	0x156f
 3471 064f 0F       		.uleb128 0xf
 3472 0650 CD150000 		.4byte	0x15cd
 3473 0654 00       		.byte	0
 3474 0655 1F       		.uleb128 0x1f
 3475 0656 070A0000 		.4byte	.LASF69
 3476 065a 02080000 		.4byte	0x802
 3477 065e 23       		.uleb128 0x23
 3478 065f 2F060000 		.4byte	.LASF70
 3479 0663 89000000 		.4byte	0x89
 3480 0667 0A       		.byte	0xa
 3481 0668 23       		.uleb128 0x23
 3482 0669 09110000 		.4byte	.LASF71
 3483 066d 89000000 		.4byte	0x89
 3484 0671 14       		.byte	0x14
 3485 0672 23       		.uleb128 0x23
 3486 0673 FE100000 		.4byte	.LASF72
 3487 0677 89000000 		.4byte	0x89
 3488 067b C8       		.byte	0xc8
 3489 067c 23       		.uleb128 0x23
 3490 067d 9D070000 		.4byte	.LASF73
 3491 0681 89000000 		.4byte	0x89
 3492 0685 C8       		.byte	0xc8
 3493 0686 00       		.byte	0
 3494 0687 03       		.uleb128 0x3
 3495 0688 3F060000 		.4byte	.LASF74
 3496 068c 0C       		.byte	0xc
 3497 068d 45       		.byte	0x45
 3498 068e FB050000 		.4byte	0x5fb
 3499 0692 00       		.byte	0
 3500 0693 24       		.uleb128 0x24
 3501 0694 E0020000 		.4byte	.LASF75
 3502 0698 0D       		.byte	0xd
 3503 0699 0A       		.byte	0xa
 3504 069a E4070000 		.4byte	0x7e4
 3505 069e 1B       		.uleb128 0x1b
ARM GAS  C:\Users\Chuck\AppData\Local\Temp\ccNCRqO6.s 			page 80


 3506 069f 18070000 		.4byte	.LASF76
 3507 06a3 18       		.byte	0x18
 3508 06a4 0D       		.byte	0xd
 3509 06a5 0C       		.byte	0xc
 3510 06a6 E5010000 		.4byte	0x1e5
 3511 06aa CF070000 		.4byte	0x7cf
 3512 06ae 25       		.uleb128 0x25
 3513 06af 01       		.byte	0x1
 3514 06b0 0D       		.byte	0xd
 3515 06b1 14       		.byte	0x14
 3516 06b2 01       		.byte	0x1
 3517 06b3 BE060000 		.4byte	0x6be
 3518 06b7 26       		.uleb128 0x26
 3519 06b8 220F0000 		.4byte	.LASF77
 3520 06bc 00       		.sleb128 0
 3521 06bd 00       		.byte	0
 3522 06be 25       		.uleb128 0x25
 3523 06bf 01       		.byte	0x1
 3524 06c0 0D       		.byte	0xd
 3525 06c1 15       		.byte	0x15
 3526 06c2 01       		.byte	0x1
 3527 06c3 CE060000 		.4byte	0x6ce
 3528 06c7 26       		.uleb128 0x26
 3529 06c8 28040000 		.4byte	.LASF78
 3530 06cc 01       		.sleb128 1
 3531 06cd 00       		.byte	0
 3532 06ce 1C       		.uleb128 0x1c
 3533 06cf E5010000 		.4byte	0x1e5
 3534 06d3 00       		.byte	0
 3535 06d4 01       		.byte	0x1
 3536 06d5 0A       		.uleb128 0xa
 3537 06d6 68070000 		.4byte	.LASF79
 3538 06da 0D       		.byte	0xd
 3539 06db 0F       		.byte	0xf
 3540 06dc A2000000 		.4byte	0xa2
 3541 06e0 04       		.byte	0x4
 3542 06e1 01       		.byte	0x1
 3543 06e2 0A       		.uleb128 0xa
 3544 06e3 F40E0000 		.4byte	.LASF80
 3545 06e7 0D       		.byte	0xd
 3546 06e8 10       		.byte	0x10
 3547 06e9 F2000000 		.4byte	0xf2
 3548 06ed 08       		.byte	0x8
 3549 06ee 01       		.byte	0x1
 3550 06ef 0A       		.uleb128 0xa
 3551 06f0 0B050000 		.4byte	.LASF81
 3552 06f4 0D       		.byte	0xd
 3553 06f5 11       		.byte	0x11
 3554 06f6 F2000000 		.4byte	0xf2
 3555 06fa 0C       		.byte	0xc
 3556 06fb 01       		.byte	0x1
 3557 06fc 0A       		.uleb128 0xa
 3558 06fd C4030000 		.4byte	.LASF82
 3559 0701 0D       		.byte	0xd
 3560 0702 12       		.byte	0x12
 3561 0703 F2000000 		.4byte	0xf2
 3562 0707 10       		.byte	0x10
ARM GAS  C:\Users\Chuck\AppData\Local\Temp\ccNCRqO6.s 			page 81


 3563 0708 01       		.byte	0x1
 3564 0709 0A       		.uleb128 0xa
 3565 070a 08040000 		.4byte	.LASF83
 3566 070e 0D       		.byte	0xd
 3567 070f 13       		.byte	0x13
 3568 0710 AD000000 		.4byte	0xad
 3569 0714 14       		.byte	0x14
 3570 0715 01       		.byte	0x1
 3571 0716 0D       		.uleb128 0xd
 3572 0717 18070000 		.4byte	.LASF76
 3573 071b 0D       		.byte	0xd
 3574 071c 1D       		.byte	0x1d
 3575 071d C50E0000 		.4byte	0xec5
 3576 0721 01       		.byte	0x1
 3577 0722 2A070000 		.4byte	0x72a
 3578 0726 30070000 		.4byte	0x730
 3579 072a 0E       		.uleb128 0xe
 3580 072b C50E0000 		.4byte	0xec5
 3581 072f 00       		.byte	0
 3582 0730 16       		.uleb128 0x16
 3583 0731 B8010000 		.4byte	.LASF33
 3584 0735 0D       		.byte	0xd
 3585 0736 26       		.byte	0x26
 3586 0737 90100000 		.4byte	.LASF84
 3587 073b 89000000 		.4byte	0x89
 3588 073f 01       		.byte	0x1
 3589 0740 02       		.uleb128 0x2
 3590 0741 10       		.byte	0x10
 3591 0742 00       		.uleb128 0
 3592 0743 9E060000 		.4byte	0x69e
 3593 0747 01       		.byte	0x1
 3594 0748 50070000 		.4byte	0x750
 3595 074c 5B070000 		.4byte	0x75b
 3596 0750 0E       		.uleb128 0xe
 3597 0751 CB0E0000 		.4byte	0xecb
 3598 0755 0F       		.uleb128 0xf
 3599 0756 EC000000 		.4byte	0xec
 3600 075a 00       		.byte	0
 3601 075b 16       		.uleb128 0x16
 3602 075c 48070000 		.4byte	.LASF34
 3603 0760 0D       		.byte	0xd
 3604 0761 4A       		.byte	0x4a
 3605 0762 1F0E0000 		.4byte	.LASF85
 3606 0766 89000000 		.4byte	0x89
 3607 076a 01       		.byte	0x1
 3608 076b 02       		.uleb128 0x2
 3609 076c 10       		.byte	0x10
 3610 076d 01       		.uleb128 0x1
 3611 076e 9E060000 		.4byte	0x69e
 3612 0772 01       		.byte	0x1
 3613 0773 7B070000 		.4byte	0x77b
 3614 0777 86070000 		.4byte	0x786
 3615 077b 0E       		.uleb128 0xe
 3616 077c C50E0000 		.4byte	0xec5
 3617 0780 0F       		.uleb128 0xf
 3618 0781 EC000000 		.4byte	0xec
 3619 0785 00       		.byte	0
ARM GAS  C:\Users\Chuck\AppData\Local\Temp\ccNCRqO6.s 			page 82


 3620 0786 16       		.uleb128 0x16
 3621 0787 D4080000 		.4byte	.LASF37
 3622 078b 0D       		.byte	0xd
 3623 078c 7B       		.byte	0x7b
 3624 078d 6B0E0000 		.4byte	.LASF86
 3625 0791 F2000000 		.4byte	0xf2
 3626 0795 01       		.byte	0x1
 3627 0796 02       		.uleb128 0x2
 3628 0797 10       		.byte	0x10
 3629 0798 02       		.uleb128 0x2
 3630 0799 9E060000 		.4byte	0x69e
 3631 079d 01       		.byte	0x1
 3632 079e A6070000 		.4byte	0x7a6
 3633 07a2 AC070000 		.4byte	0x7ac
 3634 07a6 0E       		.uleb128 0xe
 3635 07a7 C50E0000 		.4byte	0xec5
 3636 07ab 00       		.byte	0
 3637 07ac 20       		.uleb128 0x20
 3638 07ad 750B0000 		.4byte	.LASF39
 3639 07b1 0D       		.byte	0xd
 3640 07b2 7C       		.byte	0x7c
 3641 07b3 AE0E0000 		.4byte	.LASF87
 3642 07b7 F2000000 		.4byte	0xf2
 3643 07bb 01       		.byte	0x1
 3644 07bc 02       		.uleb128 0x2
 3645 07bd 10       		.byte	0x10
 3646 07be 03       		.uleb128 0x3
 3647 07bf 9E060000 		.4byte	0x69e
 3648 07c3 01       		.byte	0x1
 3649 07c4 C8070000 		.4byte	0x7c8
 3650 07c8 0E       		.uleb128 0xe
 3651 07c9 C50E0000 		.4byte	0xec5
 3652 07cd 00       		.byte	0
 3653 07ce 00       		.byte	0
 3654 07cf 07       		.uleb128 0x7
 3655 07d0 9E060000 		.4byte	0x69e
 3656 07d4 27       		.uleb128 0x27
 3657 07d5 41050000 		.4byte	.LASF189
 3658 07d9 11       		.byte	0x11
 3659 07da 0B       		.byte	0xb
 3660 07db C9170000 		.4byte	0x17c9
 3661 07df 14020000 		.4byte	.LASF196
 3662 07e3 00       		.byte	0
 3663 07e4 06       		.uleb128 0x6
 3664 07e5 04       		.byte	0x4
 3665 07e6 E5010000 		.4byte	0x1e5
 3666 07ea 06       		.uleb128 0x6
 3667 07eb 04       		.byte	0x4
 3668 07ec 2F030000 		.4byte	0x32f
 3669 07f0 06       		.uleb128 0x6
 3670 07f1 04       		.byte	0x4
 3671 07f2 0F010000 		.4byte	0x10f
 3672 07f6 06       		.uleb128 0x6
 3673 07f7 04       		.byte	0x4
 3674 07f8 34030000 		.4byte	0x334
 3675 07fc 28       		.uleb128 0x28
 3676 07fd 04       		.byte	0x4
ARM GAS  C:\Users\Chuck\AppData\Local\Temp\ccNCRqO6.s 			page 83


 3677 07fe 34030000 		.4byte	0x334
 3678 0802 09       		.uleb128 0x9
 3679 0803 5A0A0000 		.4byte	.LASF88
 3680 0807 08       		.byte	0x8
 3681 0808 0E       		.byte	0xe
 3682 0809 33       		.byte	0x33
 3683 080a 39090000 		.4byte	0x939
 3684 080e 0A       		.uleb128 0xa
 3685 080f CD100000 		.4byte	.LASF89
 3686 0813 0E       		.byte	0xe
 3687 0814 5B       		.byte	0x5b
 3688 0815 3E090000 		.4byte	0x93e
 3689 0819 00       		.byte	0
 3690 081a 02       		.byte	0x2
 3691 081b 0A       		.uleb128 0xa
 3692 081c 930E0000 		.4byte	.LASF90
 3693 0820 0E       		.byte	0xe
 3694 0821 5C       		.byte	0x5c
 3695 0822 62000000 		.4byte	0x62
 3696 0826 04       		.byte	0x4
 3697 0827 02       		.byte	0x2
 3698 0828 0D       		.uleb128 0xd
 3699 0829 5A0A0000 		.4byte	.LASF88
 3700 082d 0E       		.byte	0xe
 3701 082e 35       		.byte	0x35
 3702 082f 44090000 		.4byte	0x944
 3703 0833 01       		.byte	0x1
 3704 0834 3C080000 		.4byte	0x83c
 3705 0838 4C080000 		.4byte	0x84c
 3706 083c 0E       		.uleb128 0xe
 3707 083d 44090000 		.4byte	0x944
 3708 0841 0F       		.uleb128 0xf
 3709 0842 3E090000 		.4byte	0x93e
 3710 0846 0F       		.uleb128 0xf
 3711 0847 62000000 		.4byte	0x62
 3712 084b 00       		.byte	0
 3713 084c 0D       		.uleb128 0xd
 3714 084d 5A0A0000 		.4byte	.LASF88
 3715 0851 0E       		.byte	0xe
 3716 0852 3B       		.byte	0x3b
 3717 0853 44090000 		.4byte	0x944
 3718 0857 01       		.byte	0x1
 3719 0858 60080000 		.4byte	0x860
 3720 085c 66080000 		.4byte	0x866
 3721 0860 0E       		.uleb128 0xe
 3722 0861 44090000 		.4byte	0x944
 3723 0865 00       		.byte	0
 3724 0866 0D       		.uleb128 0xd
 3725 0867 5A0A0000 		.4byte	.LASF88
 3726 086b 0E       		.byte	0xe
 3727 086c 41       		.byte	0x41
 3728 086d 44090000 		.4byte	0x944
 3729 0871 01       		.byte	0x1
 3730 0872 7A080000 		.4byte	0x87a
 3731 0876 85080000 		.4byte	0x885
 3732 087a 0E       		.uleb128 0xe
 3733 087b 44090000 		.4byte	0x944
ARM GAS  C:\Users\Chuck\AppData\Local\Temp\ccNCRqO6.s 			page 84


 3734 087f 0F       		.uleb128 0xf
 3735 0880 4A090000 		.4byte	0x94a
 3736 0884 00       		.byte	0
 3737 0885 29       		.uleb128 0x29
 3738 0886 C60A0000 		.4byte	.LASF91
 3739 088a 0E       		.byte	0xe
 3740 088b 46       		.byte	0x46
 3741 088c 22070000 		.4byte	.LASF92
 3742 0890 01       		.byte	0x1
 3743 0891 99080000 		.4byte	0x899
 3744 0895 A4080000 		.4byte	0x8a4
 3745 0899 0E       		.uleb128 0xe
 3746 089a 44090000 		.4byte	0x944
 3747 089e 0F       		.uleb128 0xf
 3748 089f 62000000 		.4byte	0x62
 3749 08a3 00       		.byte	0
 3750 08a4 10       		.uleb128 0x10
 3751 08a5 C5100000 		.4byte	.LASF93
 3752 08a9 0E       		.byte	0xe
 3753 08aa 4A       		.byte	0x4a
 3754 08ab 63010000 		.4byte	.LASF94
 3755 08af 89000000 		.4byte	0x89
 3756 08b3 01       		.byte	0x1
 3757 08b4 BC080000 		.4byte	0x8bc
 3758 08b8 C2080000 		.4byte	0x8c2
 3759 08bc 0E       		.uleb128 0xe
 3760 08bd 44090000 		.4byte	0x944
 3761 08c1 00       		.byte	0
 3762 08c2 29       		.uleb128 0x29
 3763 08c3 F50D0000 		.4byte	.LASF95
 3764 08c7 0E       		.byte	0xe
 3765 08c8 4C       		.byte	0x4c
 3766 08c9 EF060000 		.4byte	.LASF96
 3767 08cd 01       		.byte	0x1
 3768 08ce D6080000 		.4byte	0x8d6
 3769 08d2 DC080000 		.4byte	0x8dc
 3770 08d6 0E       		.uleb128 0xe
 3771 08d7 44090000 		.4byte	0x944
 3772 08db 00       		.byte	0
 3773 08dc 10       		.uleb128 0x10
 3774 08dd 6F0D0000 		.4byte	.LASF97
 3775 08e1 0E       		.byte	0xe
 3776 08e2 50       		.byte	0x50
 3777 08e3 D2010000 		.4byte	.LASF98
 3778 08e7 89000000 		.4byte	0x89
 3779 08eb 01       		.byte	0x1
 3780 08ec F4080000 		.4byte	0x8f4
 3781 08f0 FA080000 		.4byte	0x8fa
 3782 08f4 0E       		.uleb128 0xe
 3783 08f5 44090000 		.4byte	0x944
 3784 08f9 00       		.byte	0
 3785 08fa 29       		.uleb128 0x29
 3786 08fb 62070000 		.4byte	.LASF99
 3787 08ff 0E       		.byte	0xe
 3788 0900 52       		.byte	0x52
 3789 0901 80040000 		.4byte	.LASF100
 3790 0905 01       		.byte	0x1
ARM GAS  C:\Users\Chuck\AppData\Local\Temp\ccNCRqO6.s 			page 85


 3791 0906 0E090000 		.4byte	0x90e
 3792 090a 1E090000 		.4byte	0x91e
 3793 090e 0E       		.uleb128 0xe
 3794 090f 44090000 		.4byte	0x944
 3795 0913 0F       		.uleb128 0xf
 3796 0914 50090000 		.4byte	0x950
 3797 0918 0F       		.uleb128 0xf
 3798 0919 89000000 		.4byte	0x89
 3799 091d 00       		.byte	0
 3800 091e 11       		.uleb128 0x11
 3801 091f 2D050000 		.4byte	.LASF101
 3802 0923 0E       		.byte	0xe
 3803 0924 58       		.byte	0x58
 3804 0925 EF020000 		.4byte	.LASF102
 3805 0929 74000000 		.4byte	0x74
 3806 092d 01       		.byte	0x1
 3807 092e 32090000 		.4byte	0x932
 3808 0932 0E       		.uleb128 0xe
 3809 0933 44090000 		.4byte	0x944
 3810 0937 00       		.byte	0
 3811 0938 00       		.byte	0
 3812 0939 19       		.uleb128 0x19
 3813 093a B9050000 		.4byte	.LASF104
 3814 093e 06       		.uleb128 0x6
 3815 093f 04       		.byte	0x4
 3816 0940 39090000 		.4byte	0x939
 3817 0944 06       		.uleb128 0x6
 3818 0945 04       		.byte	0x4
 3819 0946 02080000 		.4byte	0x802
 3820 094a 28       		.uleb128 0x28
 3821 094b 04       		.byte	0x4
 3822 094c 02080000 		.4byte	0x802
 3823 0950 06       		.uleb128 0x6
 3824 0951 04       		.byte	0x4
 3825 0952 97000000 		.4byte	0x97
 3826 0956 24       		.uleb128 0x24
 3827 0957 38100000 		.4byte	.LASF105
 3828 095b 0F       		.byte	0xf
 3829 095c 0C       		.byte	0xc
 3830 095d 6C0A0000 		.4byte	0xa6c
 3831 0961 2A       		.uleb128 0x2a
 3832 0962 2F0F0000 		.4byte	.LASF130
 3833 0966 01       		.byte	0x1
 3834 0967 06       		.byte	0x6
 3835 0968 21       		.byte	0x21
 3836 0969 86090000 		.4byte	0x986
 3837 096d 26       		.uleb128 0x26
 3838 096e B8020000 		.4byte	.LASF106
 3839 0972 00       		.sleb128 0
 3840 0973 26       		.uleb128 0x26
 3841 0974 5B0C0000 		.4byte	.LASF107
 3842 0978 01       		.sleb128 1
 3843 0979 26       		.uleb128 0x26
 3844 097a 4A0D0000 		.4byte	.LASF108
 3845 097e 02       		.sleb128 2
 3846 097f 26       		.uleb128 0x26
 3847 0980 670B0000 		.4byte	.LASF109
ARM GAS  C:\Users\Chuck\AppData\Local\Temp\ccNCRqO6.s 			page 86


 3848 0984 03       		.sleb128 3
 3849 0985 00       		.byte	0
 3850 0986 2B       		.uleb128 0x2b
 3851 0987 B10F0000 		.4byte	.LASF110
 3852 098b 06       		.byte	0x6
 3853 098c 2A       		.byte	0x2a
 3854 098d 24010000 		.4byte	.LASF112
 3855 0991 9B090000 		.4byte	0x99b
 3856 0995 0F       		.uleb128 0xf
 3857 0996 450E0000 		.4byte	0xe45
 3858 099a 00       		.byte	0
 3859 099b 2B       		.uleb128 0x2b
 3860 099c E50B0000 		.4byte	.LASF111
 3861 09a0 06       		.byte	0x6
 3862 09a1 37       		.byte	0x37
 3863 09a2 4D020000 		.4byte	.LASF113
 3864 09a6 B0090000 		.4byte	0x9b0
 3865 09aa 0F       		.uleb128 0xf
 3866 09ab 450E0000 		.4byte	0xe45
 3867 09af 00       		.byte	0
 3868 09b0 2C       		.uleb128 0x2c
 3869 09b1 E30E0000 		.4byte	.LASF114
 3870 09b5 06       		.byte	0x6
 3871 09b6 52       		.byte	0x52
 3872 09b7 B3080000 		.4byte	.LASF116
 3873 09bb 2C       		.uleb128 0x2c
 3874 09bc 3C050000 		.4byte	.LASF115
 3875 09c0 06       		.byte	0x6
 3876 09c1 6F       		.byte	0x6f
 3877 09c2 79100000 		.4byte	.LASF117
 3878 09c6 2D       		.uleb128 0x2d
 3879 09c7 610E0000 		.4byte	.LASF118
 3880 09cb 06       		.byte	0x6
 3881 09cc 1A       		.byte	0x1a
 3882 09cd 5A060000 		.4byte	.LASF120
 3883 09d1 770A0000 		.4byte	0xa77
 3884 09d5 2D       		.uleb128 0x2d
 3885 09d6 2B0A0000 		.4byte	.LASF119
 3886 09da 06       		.byte	0x6
 3887 09db 1B       		.byte	0x1b
 3888 09dc 8B0A0000 		.4byte	.LASF121
 3889 09e0 2B170000 		.4byte	0x172b
 3890 09e4 2D       		.uleb128 0x2d
 3891 09e5 1D040000 		.4byte	.LASF122
 3892 09e9 06       		.byte	0x6
 3893 09ea 1C       		.byte	0x1c
 3894 09eb 63040000 		.4byte	.LASF123
 3895 09ef 46170000 		.4byte	0x1746
 3896 09f3 2D       		.uleb128 0x2d
 3897 09f4 93020000 		.4byte	.LASF124
 3898 09f8 06       		.byte	0x6
 3899 09f9 1D       		.byte	0x1d
 3900 09fa 100A0000 		.4byte	.LASF125
 3901 09fe 0F010000 		.4byte	0x10f
 3902 0a02 2D       		.uleb128 0x2d
 3903 0a03 8B020000 		.4byte	.LASF126
 3904 0a07 06       		.byte	0x6
ARM GAS  C:\Users\Chuck\AppData\Local\Temp\ccNCRqO6.s 			page 87


 3905 0a08 1F       		.byte	0x1f
 3906 0a09 1B000000 		.4byte	.LASF127
 3907 0a0d 97000000 		.4byte	0x97
 3908 0a11 2D       		.uleb128 0x2d
 3909 0a12 34000000 		.4byte	.LASF128
 3910 0a16 06       		.byte	0x6
 3911 0a17 20       		.byte	0x20
 3912 0a18 740D0000 		.4byte	.LASF129
 3913 0a1c 97000000 		.4byte	0x97
 3914 0a20 2D       		.uleb128 0x2d
 3915 0a21 2F0F0000 		.4byte	.LASF130
 3916 0a25 06       		.byte	0x6
 3917 0a26 26       		.byte	0x26
 3918 0a27 FF0E0000 		.4byte	.LASF131
 3919 0a2b 61090000 		.4byte	0x961
 3920 0a2f 2D       		.uleb128 0x2d
 3921 0a30 480F0000 		.4byte	.LASF132
 3922 0a34 06       		.byte	0x6
 3923 0a35 4D       		.byte	0x4d
 3924 0a36 00000000 		.4byte	.LASF133
 3925 0a3a 40030000 		.4byte	0x340
 3926 0a3e 2D       		.uleb128 0x2d
 3927 0a3f 350F0000 		.4byte	.LASF134
 3928 0a43 06       		.byte	0x6
 3929 0a44 4E       		.byte	0x4e
 3930 0a45 9D020000 		.4byte	.LASF135
 3931 0a49 40030000 		.4byte	0x340
 3932 0a4d 2D       		.uleb128 0x2d
 3933 0a4e A6050000 		.4byte	.LASF136
 3934 0a52 06       		.byte	0x6
 3935 0a53 4F       		.byte	0x4f
 3936 0a54 D40C0000 		.4byte	.LASF137
 3937 0a58 2B170000 		.4byte	0x172b
 3938 0a5c 2D       		.uleb128 0x2d
 3939 0a5d CB080000 		.4byte	.LASF138
 3940 0a61 06       		.byte	0x6
 3941 0a62 50       		.byte	0x50
 3942 0a63 4E050000 		.4byte	.LASF139
 3943 0a67 46170000 		.4byte	0x1746
 3944 0a6b 00       		.byte	0
 3945 0a6c 24       		.uleb128 0x24
 3946 0a6d 7C0B0000 		.4byte	.LASF140
 3947 0a71 10       		.byte	0x10
 3948 0a72 0B       		.byte	0xb
 3949 0a73 340E0000 		.4byte	0xe34
 3950 0a77 1B       		.uleb128 0x1b
 3951 0a78 C2010000 		.4byte	.LASF141
 3952 0a7c 2C       		.byte	0x2c
 3953 0a7d 05       		.byte	0x5
 3954 0a7e 0D       		.byte	0xd
 3955 0a7f E5010000 		.4byte	0x1e5
 3956 0a83 B50B0000 		.4byte	0xbb5
 3957 0a87 1C       		.uleb128 0x1c
 3958 0a88 E5010000 		.4byte	0x1e5
 3959 0a8c 00       		.byte	0
 3960 0a8d 01       		.byte	0x1
 3961 0a8e 0A       		.uleb128 0xa
ARM GAS  C:\Users\Chuck\AppData\Local\Temp\ccNCRqO6.s 			page 88


 3962 0a8f 72100000 		.4byte	.LASF142
 3963 0a93 05       		.byte	0x5
 3964 0a94 10       		.byte	0x10
 3965 0a95 BA0B0000 		.4byte	0xbba
 3966 0a99 04       		.byte	0x4
 3967 0a9a 01       		.byte	0x1
 3968 0a9b 0A       		.uleb128 0xa
 3969 0a9c 4D040000 		.4byte	.LASF143
 3970 0aa0 05       		.byte	0x5
 3971 0aa1 11       		.byte	0x11
 3972 0aa2 97000000 		.4byte	0x97
 3973 0aa6 24       		.byte	0x24
 3974 0aa7 01       		.byte	0x1
 3975 0aa8 0A       		.uleb128 0xa
 3976 0aa9 320B0000 		.4byte	.LASF144
 3977 0aad 05       		.byte	0x5
 3978 0aae 12       		.byte	0x12
 3979 0aaf 97000000 		.4byte	0x97
 3980 0ab3 25       		.byte	0x25
 3981 0ab4 01       		.byte	0x1
 3982 0ab5 0A       		.uleb128 0xa
 3983 0ab6 E5060000 		.4byte	.LASF145
 3984 0aba 05       		.byte	0x5
 3985 0abb 13       		.byte	0x13
 3986 0abc 50090000 		.4byte	0x950
 3987 0ac0 28       		.byte	0x28
 3988 0ac1 01       		.byte	0x1
 3989 0ac2 14       		.uleb128 0x14
 3990 0ac3 36040000 		.4byte	.LASF146
 3991 0ac7 EA000000 		.4byte	0xea
 3992 0acb 01       		.byte	0x1
 3993 0acc D40A0000 		.4byte	0xad4
 3994 0ad0 DF0A0000 		.4byte	0xadf
 3995 0ad4 0E       		.uleb128 0xe
 3996 0ad5 6E0E0000 		.4byte	0xe6e
 3997 0ad9 0E       		.uleb128 0xe
 3998 0ada 89000000 		.4byte	0x89
 3999 0ade 00       		.byte	0
 4000 0adf 14       		.uleb128 0x14
 4001 0ae0 C2010000 		.4byte	.LASF141
 4002 0ae4 6E0E0000 		.4byte	0xe6e
 4003 0ae8 01       		.byte	0x1
 4004 0ae9 F10A0000 		.4byte	0xaf1
 4005 0aed FC0A0000 		.4byte	0xafc
 4006 0af1 0E       		.uleb128 0xe
 4007 0af2 6E0E0000 		.4byte	0xe6e
 4008 0af6 0F       		.uleb128 0xf
 4009 0af7 450E0000 		.4byte	0xe45
 4010 0afb 00       		.byte	0
 4011 0afc 0D       		.uleb128 0xd
 4012 0afd C2010000 		.4byte	.LASF141
 4013 0b01 05       		.byte	0x5
 4014 0b02 15       		.byte	0x15
 4015 0b03 6E0E0000 		.4byte	0xe6e
 4016 0b07 01       		.byte	0x1
 4017 0b08 100B0000 		.4byte	0xb10
 4018 0b0c 160B0000 		.4byte	0xb16
ARM GAS  C:\Users\Chuck\AppData\Local\Temp\ccNCRqO6.s 			page 89


 4019 0b10 0E       		.uleb128 0xe
 4020 0b11 6E0E0000 		.4byte	0xe6e
 4021 0b15 00       		.byte	0
 4022 0b16 16       		.uleb128 0x16
 4023 0b17 B8010000 		.4byte	.LASF33
 4024 0b1b 05       		.byte	0x5
 4025 0b1c 1B       		.byte	0x1b
 4026 0b1d B4040000 		.4byte	.LASF147
 4027 0b21 89000000 		.4byte	0x89
 4028 0b25 01       		.byte	0x1
 4029 0b26 02       		.uleb128 0x2
 4030 0b27 10       		.byte	0x10
 4031 0b28 00       		.uleb128 0
 4032 0b29 770A0000 		.4byte	0xa77
 4033 0b2d 01       		.byte	0x1
 4034 0b2e 360B0000 		.4byte	0xb36
 4035 0b32 410B0000 		.4byte	0xb41
 4036 0b36 0E       		.uleb128 0xe
 4037 0b37 5C0E0000 		.4byte	0xe5c
 4038 0b3b 0F       		.uleb128 0xf
 4039 0b3c EC000000 		.4byte	0xec
 4040 0b40 00       		.byte	0
 4041 0b41 16       		.uleb128 0x16
 4042 0b42 48070000 		.4byte	.LASF34
 4043 0b46 05       		.byte	0x5
 4044 0b47 2C       		.byte	0x2c
 4045 0b48 09030000 		.4byte	.LASF148
 4046 0b4c 89000000 		.4byte	0x89
 4047 0b50 01       		.byte	0x1
 4048 0b51 02       		.uleb128 0x2
 4049 0b52 10       		.byte	0x10
 4050 0b53 01       		.uleb128 0x1
 4051 0b54 770A0000 		.4byte	0xa77
 4052 0b58 01       		.byte	0x1
 4053 0b59 610B0000 		.4byte	0xb61
 4054 0b5d 6C0B0000 		.4byte	0xb6c
 4055 0b61 0E       		.uleb128 0xe
 4056 0b62 6E0E0000 		.4byte	0xe6e
 4057 0b66 0F       		.uleb128 0xf
 4058 0b67 EC000000 		.4byte	0xec
 4059 0b6b 00       		.byte	0
 4060 0b6c 16       		.uleb128 0x16
 4061 0b6d D4080000 		.4byte	.LASF37
 4062 0b71 05       		.byte	0x5
 4063 0b72 40       		.byte	0x40
 4064 0b73 D6100000 		.4byte	.LASF149
 4065 0b77 F2000000 		.4byte	0xf2
 4066 0b7b 01       		.byte	0x1
 4067 0b7c 02       		.uleb128 0x2
 4068 0b7d 10       		.byte	0x10
 4069 0b7e 02       		.uleb128 0x2
 4070 0b7f 770A0000 		.4byte	0xa77
 4071 0b83 01       		.byte	0x1
 4072 0b84 8C0B0000 		.4byte	0xb8c
 4073 0b88 920B0000 		.4byte	0xb92
 4074 0b8c 0E       		.uleb128 0xe
 4075 0b8d 6E0E0000 		.4byte	0xe6e
ARM GAS  C:\Users\Chuck\AppData\Local\Temp\ccNCRqO6.s 			page 90


 4076 0b91 00       		.byte	0
 4077 0b92 20       		.uleb128 0x20
 4078 0b93 750B0000 		.4byte	.LASF39
 4079 0b97 05       		.byte	0x5
 4080 0b98 41       		.byte	0x41
 4081 0b99 80010000 		.4byte	.LASF150
 4082 0b9d F2000000 		.4byte	0xf2
 4083 0ba1 01       		.byte	0x1
 4084 0ba2 02       		.uleb128 0x2
 4085 0ba3 10       		.byte	0x10
 4086 0ba4 03       		.uleb128 0x3
 4087 0ba5 770A0000 		.4byte	0xa77
 4088 0ba9 01       		.byte	0x1
 4089 0baa AE0B0000 		.4byte	0xbae
 4090 0bae 0E       		.uleb128 0xe
 4091 0baf 6E0E0000 		.4byte	0xe6e
 4092 0bb3 00       		.byte	0
 4093 0bb4 00       		.byte	0
 4094 0bb5 07       		.uleb128 0x7
 4095 0bb6 770A0000 		.4byte	0xa77
 4096 0bba 1B       		.uleb128 0x1b
 4097 0bbb A7010000 		.4byte	.LASF151
 4098 0bbf 20       		.byte	0x20
 4099 0bc0 04       		.byte	0x4
 4100 0bc1 0D       		.byte	0xd
 4101 0bc2 E5010000 		.4byte	0x1e5
 4102 0bc6 F80C0000 		.4byte	0xcf8
 4103 0bca 1C       		.uleb128 0x1c
 4104 0bcb E5010000 		.4byte	0x1e5
 4105 0bcf 00       		.byte	0
 4106 0bd0 01       		.byte	0x1
 4107 0bd1 0A       		.uleb128 0xa
 4108 0bd2 350A0000 		.4byte	.LASF152
 4109 0bd6 04       		.byte	0x4
 4110 0bd7 10       		.byte	0x10
 4111 0bd8 97000000 		.4byte	0x97
 4112 0bdc 04       		.byte	0x4
 4113 0bdd 01       		.byte	0x1
 4114 0bde 0A       		.uleb128 0xa
 4115 0bdf 67030000 		.4byte	.LASF153
 4116 0be3 04       		.byte	0x4
 4117 0be4 11       		.byte	0x11
 4118 0be5 F80C0000 		.4byte	0xcf8
 4119 0be9 08       		.byte	0x8
 4120 0bea 01       		.byte	0x1
 4121 0beb 0B       		.uleb128 0xb
 4122 0bec 64696D00 		.ascii	"dim\000"
 4123 0bf0 04       		.byte	0x4
 4124 0bf1 12       		.byte	0x12
 4125 0bf2 740E0000 		.4byte	0xe74
 4126 0bf6 18       		.byte	0x18
 4127 0bf7 01       		.byte	0x1
 4128 0bf8 0A       		.uleb128 0xa
 4129 0bf9 160F0000 		.4byte	.LASF154
 4130 0bfd 04       		.byte	0x4
 4131 0bfe 13       		.byte	0x13
 4132 0bff B8000000 		.4byte	0xb8
ARM GAS  C:\Users\Chuck\AppData\Local\Temp\ccNCRqO6.s 			page 91


 4133 0c03 1C       		.byte	0x1c
 4134 0c04 01       		.byte	0x1
 4135 0c05 14       		.uleb128 0x14
 4136 0c06 60100000 		.4byte	.LASF155
 4137 0c0a EA000000 		.4byte	0xea
 4138 0c0e 01       		.byte	0x1
 4139 0c0f 170C0000 		.4byte	0xc17
 4140 0c13 220C0000 		.4byte	0xc22
 4141 0c17 0E       		.uleb128 0xe
 4142 0c18 7A0E0000 		.4byte	0xe7a
 4143 0c1c 0E       		.uleb128 0xe
 4144 0c1d 89000000 		.4byte	0x89
 4145 0c21 00       		.byte	0
 4146 0c22 14       		.uleb128 0x14
 4147 0c23 A7010000 		.4byte	.LASF151
 4148 0c27 7A0E0000 		.4byte	0xe7a
 4149 0c2b 01       		.byte	0x1
 4150 0c2c 340C0000 		.4byte	0xc34
 4151 0c30 3F0C0000 		.4byte	0xc3f
 4152 0c34 0E       		.uleb128 0xe
 4153 0c35 7A0E0000 		.4byte	0xe7a
 4154 0c39 0F       		.uleb128 0xf
 4155 0c3a 800E0000 		.4byte	0xe80
 4156 0c3e 00       		.byte	0
 4157 0c3f 0D       		.uleb128 0xd
 4158 0c40 A7010000 		.4byte	.LASF151
 4159 0c44 04       		.byte	0x4
 4160 0c45 15       		.byte	0x15
 4161 0c46 7A0E0000 		.4byte	0xe7a
 4162 0c4a 01       		.byte	0x1
 4163 0c4b 530C0000 		.4byte	0xc53
 4164 0c4f 590C0000 		.4byte	0xc59
 4165 0c53 0E       		.uleb128 0xe
 4166 0c54 7A0E0000 		.4byte	0xe7a
 4167 0c58 00       		.byte	0
 4168 0c59 16       		.uleb128 0x16
 4169 0c5a B8010000 		.4byte	.LASF33
 4170 0c5e 04       		.byte	0x4
 4171 0c5f 1B       		.byte	0x1b
 4172 0c60 FC070000 		.4byte	.LASF156
 4173 0c64 89000000 		.4byte	0x89
 4174 0c68 01       		.byte	0x1
 4175 0c69 02       		.uleb128 0x2
 4176 0c6a 10       		.byte	0x10
 4177 0c6b 00       		.uleb128 0
 4178 0c6c BA0B0000 		.4byte	0xbba
 4179 0c70 01       		.byte	0x1
 4180 0c71 790C0000 		.4byte	0xc79
 4181 0c75 840C0000 		.4byte	0xc84
 4182 0c79 0E       		.uleb128 0xe
 4183 0c7a 860E0000 		.4byte	0xe86
 4184 0c7e 0F       		.uleb128 0xf
 4185 0c7f EC000000 		.4byte	0xec
 4186 0c83 00       		.byte	0
 4187 0c84 16       		.uleb128 0x16
 4188 0c85 48070000 		.4byte	.LASF34
 4189 0c89 04       		.byte	0x4
ARM GAS  C:\Users\Chuck\AppData\Local\Temp\ccNCRqO6.s 			page 92


 4190 0c8a 2F       		.byte	0x2f
 4191 0c8b 030B0000 		.4byte	.LASF157
 4192 0c8f 89000000 		.4byte	0x89
 4193 0c93 01       		.byte	0x1
 4194 0c94 02       		.uleb128 0x2
 4195 0c95 10       		.byte	0x10
 4196 0c96 01       		.uleb128 0x1
 4197 0c97 BA0B0000 		.4byte	0xbba
 4198 0c9b 01       		.byte	0x1
 4199 0c9c A40C0000 		.4byte	0xca4
 4200 0ca0 AF0C0000 		.4byte	0xcaf
 4201 0ca4 0E       		.uleb128 0xe
 4202 0ca5 7A0E0000 		.4byte	0xe7a
 4203 0ca9 0F       		.uleb128 0xf
 4204 0caa EC000000 		.4byte	0xec
 4205 0cae 00       		.byte	0
 4206 0caf 16       		.uleb128 0x16
 4207 0cb0 D4080000 		.4byte	.LASF37
 4208 0cb4 04       		.byte	0x4
 4209 0cb5 46       		.byte	0x46
 4210 0cb6 990D0000 		.4byte	.LASF158
 4211 0cba F2000000 		.4byte	0xf2
 4212 0cbe 01       		.byte	0x1
 4213 0cbf 02       		.uleb128 0x2
 4214 0cc0 10       		.byte	0x10
 4215 0cc1 02       		.uleb128 0x2
 4216 0cc2 BA0B0000 		.4byte	0xbba
 4217 0cc6 01       		.byte	0x1
 4218 0cc7 CF0C0000 		.4byte	0xccf
 4219 0ccb D50C0000 		.4byte	0xcd5
 4220 0ccf 0E       		.uleb128 0xe
 4221 0cd0 7A0E0000 		.4byte	0xe7a
 4222 0cd4 00       		.byte	0
 4223 0cd5 20       		.uleb128 0x20
 4224 0cd6 750B0000 		.4byte	.LASF39
 4225 0cda 04       		.byte	0x4
 4226 0cdb 47       		.byte	0x47
 4227 0cdc C00F0000 		.4byte	.LASF159
 4228 0ce0 F2000000 		.4byte	0xf2
 4229 0ce4 01       		.byte	0x1
 4230 0ce5 02       		.uleb128 0x2
 4231 0ce6 10       		.byte	0x10
 4232 0ce7 03       		.uleb128 0x3
 4233 0ce8 BA0B0000 		.4byte	0xbba
 4234 0cec 01       		.byte	0x1
 4235 0ced F10C0000 		.4byte	0xcf1
 4236 0cf1 0E       		.uleb128 0xe
 4237 0cf2 7A0E0000 		.4byte	0xe7a
 4238 0cf6 00       		.byte	0
 4239 0cf7 00       		.byte	0
 4240 0cf8 1B       		.uleb128 0x1b
 4241 0cf9 CB030000 		.4byte	.LASF160
 4242 0cfd 10       		.byte	0x10
 4243 0cfe 03       		.byte	0x3
 4244 0cff 0C       		.byte	0xc
 4245 0d00 E5010000 		.4byte	0x1e5
 4246 0d04 290E0000 		.4byte	0xe29
ARM GAS  C:\Users\Chuck\AppData\Local\Temp\ccNCRqO6.s 			page 93


 4247 0d08 1C       		.uleb128 0x1c
 4248 0d09 E5010000 		.4byte	0x1e5
 4249 0d0d 00       		.byte	0
 4250 0d0e 01       		.byte	0x1
 4251 0d0f 0A       		.uleb128 0xa
 4252 0d10 30020000 		.4byte	.LASF161
 4253 0d14 03       		.byte	0x3
 4254 0d15 0F       		.byte	0xf
 4255 0d16 F2000000 		.4byte	0xf2
 4256 0d1a 04       		.byte	0x4
 4257 0d1b 01       		.byte	0x1
 4258 0d1c 0A       		.uleb128 0xa
 4259 0d1d DC090000 		.4byte	.LASF162
 4260 0d21 03       		.byte	0x3
 4261 0d22 10       		.byte	0x10
 4262 0d23 B8000000 		.4byte	0xb8
 4263 0d27 08       		.byte	0x8
 4264 0d28 01       		.byte	0x1
 4265 0d29 0A       		.uleb128 0xa
 4266 0d2a EC010000 		.4byte	.LASF163
 4267 0d2e 03       		.byte	0x3
 4268 0d2f 11       		.byte	0x11
 4269 0d30 B8000000 		.4byte	0xb8
 4270 0d34 0C       		.byte	0xc
 4271 0d35 01       		.byte	0x1
 4272 0d36 14       		.uleb128 0x14
 4273 0d37 990E0000 		.4byte	.LASF164
 4274 0d3b EA000000 		.4byte	0xea
 4275 0d3f 01       		.byte	0x1
 4276 0d40 480D0000 		.4byte	0xd48
 4277 0d44 530D0000 		.4byte	0xd53
 4278 0d48 0E       		.uleb128 0xe
 4279 0d49 740E0000 		.4byte	0xe74
 4280 0d4d 0E       		.uleb128 0xe
 4281 0d4e 89000000 		.4byte	0x89
 4282 0d52 00       		.byte	0
 4283 0d53 14       		.uleb128 0x14
 4284 0d54 CB030000 		.4byte	.LASF160
 4285 0d58 740E0000 		.4byte	0xe74
 4286 0d5c 01       		.byte	0x1
 4287 0d5d 650D0000 		.4byte	0xd65
 4288 0d61 700D0000 		.4byte	0xd70
 4289 0d65 0E       		.uleb128 0xe
 4290 0d66 740E0000 		.4byte	0xe74
 4291 0d6a 0F       		.uleb128 0xf
 4292 0d6b 8C0E0000 		.4byte	0xe8c
 4293 0d6f 00       		.byte	0
 4294 0d70 0D       		.uleb128 0xd
 4295 0d71 CB030000 		.4byte	.LASF160
 4296 0d75 03       		.byte	0x3
 4297 0d76 13       		.byte	0x13
 4298 0d77 740E0000 		.4byte	0xe74
 4299 0d7b 01       		.byte	0x1
 4300 0d7c 840D0000 		.4byte	0xd84
 4301 0d80 8A0D0000 		.4byte	0xd8a
 4302 0d84 0E       		.uleb128 0xe
 4303 0d85 740E0000 		.4byte	0xe74
ARM GAS  C:\Users\Chuck\AppData\Local\Temp\ccNCRqO6.s 			page 94


 4304 0d89 00       		.byte	0
 4305 0d8a 16       		.uleb128 0x16
 4306 0d8b B8010000 		.4byte	.LASF33
 4307 0d8f 03       		.byte	0x3
 4308 0d90 1A       		.byte	0x1a
 4309 0d91 37030000 		.4byte	.LASF165
 4310 0d95 89000000 		.4byte	0x89
 4311 0d99 01       		.byte	0x1
 4312 0d9a 02       		.uleb128 0x2
 4313 0d9b 10       		.byte	0x10
 4314 0d9c 00       		.uleb128 0
 4315 0d9d F80C0000 		.4byte	0xcf8
 4316 0da1 01       		.byte	0x1
 4317 0da2 AA0D0000 		.4byte	0xdaa
 4318 0da6 B50D0000 		.4byte	0xdb5
 4319 0daa 0E       		.uleb128 0xe
 4320 0dab 920E0000 		.4byte	0xe92
 4321 0daf 0F       		.uleb128 0xf
 4322 0db0 EC000000 		.4byte	0xec
 4323 0db4 00       		.byte	0
 4324 0db5 16       		.uleb128 0x16
 4325 0db6 48070000 		.4byte	.LASF34
 4326 0dba 03       		.byte	0x3
 4327 0dbb 31       		.byte	0x31
 4328 0dbc 180D0000 		.4byte	.LASF166
 4329 0dc0 89000000 		.4byte	0x89
 4330 0dc4 01       		.byte	0x1
 4331 0dc5 02       		.uleb128 0x2
 4332 0dc6 10       		.byte	0x10
 4333 0dc7 01       		.uleb128 0x1
 4334 0dc8 F80C0000 		.4byte	0xcf8
 4335 0dcc 01       		.byte	0x1
 4336 0dcd D50D0000 		.4byte	0xdd5
 4337 0dd1 E00D0000 		.4byte	0xde0
 4338 0dd5 0E       		.uleb128 0xe
 4339 0dd6 740E0000 		.4byte	0xe74
 4340 0dda 0F       		.uleb128 0xf
 4341 0ddb EC000000 		.4byte	0xec
 4342 0ddf 00       		.byte	0
 4343 0de0 16       		.uleb128 0x16
 4344 0de1 D4080000 		.4byte	.LASF37
 4345 0de5 03       		.byte	0x3
 4346 0de6 4C       		.byte	0x4c
 4347 0de7 71070000 		.4byte	.LASF167
 4348 0deb F2000000 		.4byte	0xf2
 4349 0def 01       		.byte	0x1
 4350 0df0 02       		.uleb128 0x2
 4351 0df1 10       		.byte	0x10
 4352 0df2 02       		.uleb128 0x2
 4353 0df3 F80C0000 		.4byte	0xcf8
 4354 0df7 01       		.byte	0x1
 4355 0df8 000E0000 		.4byte	0xe00
 4356 0dfc 060E0000 		.4byte	0xe06
 4357 0e00 0E       		.uleb128 0xe
 4358 0e01 740E0000 		.4byte	0xe74
 4359 0e05 00       		.byte	0
 4360 0e06 20       		.uleb128 0x20
ARM GAS  C:\Users\Chuck\AppData\Local\Temp\ccNCRqO6.s 			page 95


 4361 0e07 750B0000 		.4byte	.LASF39
 4362 0e0b 03       		.byte	0x3
 4363 0e0c 4D       		.byte	0x4d
 4364 0e0d ED0C0000 		.4byte	.LASF168
 4365 0e11 F2000000 		.4byte	0xf2
 4366 0e15 01       		.byte	0x1
 4367 0e16 02       		.uleb128 0x2
 4368 0e17 10       		.byte	0x10
 4369 0e18 03       		.uleb128 0x3
 4370 0e19 F80C0000 		.4byte	0xcf8
 4371 0e1d 01       		.byte	0x1
 4372 0e1e 220E0000 		.4byte	0xe22
 4373 0e22 0E       		.uleb128 0xe
 4374 0e23 740E0000 		.4byte	0xe74
 4375 0e27 00       		.byte	0
 4376 0e28 00       		.byte	0
 4377 0e29 07       		.uleb128 0x7
 4378 0e2a BA0B0000 		.4byte	0xbba
 4379 0e2e 07       		.uleb128 0x7
 4380 0e2f F80C0000 		.4byte	0xcf8
 4381 0e33 00       		.byte	0
 4382 0e34 06       		.uleb128 0x6
 4383 0e35 04       		.byte	0x4
 4384 0e36 3A0E0000 		.4byte	0xe3a
 4385 0e3a 2E       		.uleb128 0x2e
 4386 0e3b 450E0000 		.4byte	0xe45
 4387 0e3f 0F       		.uleb128 0xf
 4388 0e40 450E0000 		.4byte	0xe45
 4389 0e44 00       		.byte	0
 4390 0e45 28       		.uleb128 0x28
 4391 0e46 04       		.byte	0x4
 4392 0e47 B50B0000 		.4byte	0xbb5
 4393 0e4b 06       		.uleb128 0x6
 4394 0e4c 04       		.byte	0x4
 4395 0e4d 510E0000 		.4byte	0xe51
 4396 0e51 2E       		.uleb128 0x2e
 4397 0e52 5C0E0000 		.4byte	0xe5c
 4398 0e56 0F       		.uleb128 0xf
 4399 0e57 5C0E0000 		.4byte	0xe5c
 4400 0e5b 00       		.byte	0
 4401 0e5c 06       		.uleb128 0x6
 4402 0e5d 04       		.byte	0x4
 4403 0e5e B50B0000 		.4byte	0xbb5
 4404 0e62 06       		.uleb128 0x6
 4405 0e63 04       		.byte	0x4
 4406 0e64 40030000 		.4byte	0x340
 4407 0e68 28       		.uleb128 0x28
 4408 0e69 04       		.byte	0x4
 4409 0e6a F1050000 		.4byte	0x5f1
 4410 0e6e 06       		.uleb128 0x6
 4411 0e6f 04       		.byte	0x4
 4412 0e70 770A0000 		.4byte	0xa77
 4413 0e74 06       		.uleb128 0x6
 4414 0e75 04       		.byte	0x4
 4415 0e76 F80C0000 		.4byte	0xcf8
 4416 0e7a 06       		.uleb128 0x6
 4417 0e7b 04       		.byte	0x4
ARM GAS  C:\Users\Chuck\AppData\Local\Temp\ccNCRqO6.s 			page 96


 4418 0e7c BA0B0000 		.4byte	0xbba
 4419 0e80 28       		.uleb128 0x28
 4420 0e81 04       		.byte	0x4
 4421 0e82 290E0000 		.4byte	0xe29
 4422 0e86 06       		.uleb128 0x6
 4423 0e87 04       		.byte	0x4
 4424 0e88 290E0000 		.4byte	0xe29
 4425 0e8c 28       		.uleb128 0x28
 4426 0e8d 04       		.byte	0x4
 4427 0e8e 2E0E0000 		.4byte	0xe2e
 4428 0e92 06       		.uleb128 0x6
 4429 0e93 04       		.byte	0x4
 4430 0e94 2E0E0000 		.4byte	0xe2e
 4431 0e98 2F       		.uleb128 0x2f
 4432 0e99 89000000 		.4byte	0x89
 4433 0e9d A30E0000 		.4byte	0xea3
 4434 0ea1 30       		.uleb128 0x30
 4435 0ea2 00       		.byte	0
 4436 0ea3 06       		.uleb128 0x6
 4437 0ea4 04       		.byte	0x4
 4438 0ea5 A90E0000 		.4byte	0xea9
 4439 0ea9 31       		.uleb128 0x31
 4440 0eaa 04       		.byte	0x4
 4441 0eab D0020000 		.4byte	.LASF197
 4442 0eaf 980E0000 		.4byte	0xe98
 4443 0eb3 06       		.uleb128 0x6
 4444 0eb4 04       		.byte	0x4
 4445 0eb5 D4040000 		.4byte	0x4d4
 4446 0eb9 28       		.uleb128 0x28
 4447 0eba 04       		.byte	0x4
 4448 0ebb F6050000 		.4byte	0x5f6
 4449 0ebf 06       		.uleb128 0x6
 4450 0ec0 04       		.byte	0x4
 4451 0ec1 CE000000 		.4byte	0xce
 4452 0ec5 06       		.uleb128 0x6
 4453 0ec6 04       		.byte	0x4
 4454 0ec7 9E060000 		.4byte	0x69e
 4455 0ecb 06       		.uleb128 0x6
 4456 0ecc 04       		.byte	0x4
 4457 0ecd CF070000 		.4byte	0x7cf
 4458 0ed1 06       		.uleb128 0x6
 4459 0ed2 04       		.byte	0x4
 4460 0ed3 D70E0000 		.4byte	0xed7
 4461 0ed7 07       		.uleb128 0x7
 4462 0ed8 37000000 		.4byte	0x37
 4463 0edc 32       		.uleb128 0x32
 4464 0edd 3A020000 		.4byte	0x23a
 4465 0ee1 01       		.byte	0x1
 4466 0ee2 2B       		.byte	0x2b
 4467 0ee3 02       		.byte	0x2
 4468 0ee4 EC0E0000 		.4byte	0xeec
 4469 0ee8 F60E0000 		.4byte	0xef6
 4470 0eec 33       		.uleb128 0x33
 4471 0eed FE0A0000 		.4byte	.LASF169
 4472 0ef1 F60E0000 		.4byte	0xef6
 4473 0ef5 00       		.byte	0
 4474 0ef6 07       		.uleb128 0x7
ARM GAS  C:\Users\Chuck\AppData\Local\Temp\ccNCRqO6.s 			page 97


 4475 0ef7 E4070000 		.4byte	0x7e4
 4476 0efb 34       		.uleb128 0x34
 4477 0efc DC0E0000 		.4byte	0xedc
 4478 0f00 74030000 		.4byte	.LASF171
 4479 0f04 00000000 		.4byte	.LFB54
 4480 0f08 1C000000 		.4byte	.LFE54-.LFB54
 4481 0f0c 01       		.uleb128 0x1
 4482 0f0d 9C       		.byte	0x9c
 4483 0f0e 160F0000 		.4byte	0xf16
 4484 0f12 1F0F0000 		.4byte	0xf1f
 4485 0f16 35       		.uleb128 0x35
 4486 0f17 EC0E0000 		.4byte	0xeec
 4487 0f1b 02       		.uleb128 0x2
 4488 0f1c 91       		.byte	0x91
 4489 0f1d 74       		.sleb128 -12
 4490 0f1e 00       		.byte	0
 4491 0f1f 36       		.uleb128 0x36
 4492 0f20 5B010000 		.4byte	0x15b
 4493 0f24 02       		.byte	0x2
 4494 0f25 2D0F0000 		.4byte	0xf2d
 4495 0f29 580F0000 		.4byte	0xf58
 4496 0f2d 33       		.uleb128 0x33
 4497 0f2e FE0A0000 		.4byte	.LASF169
 4498 0f32 580F0000 		.4byte	0xf58
 4499 0f36 37       		.uleb128 0x37
 4500 0f37 F40E0000 		.4byte	.LASF80
 4501 0f3b 02       		.byte	0x2
 4502 0f3c 2F       		.byte	0x2f
 4503 0f3d F2000000 		.4byte	0xf2
 4504 0f41 38       		.uleb128 0x38
 4505 0f42 6D736700 		.ascii	"msg\000"
 4506 0f46 02       		.byte	0x2
 4507 0f47 2F       		.byte	0x2f
 4508 0f48 E4070000 		.4byte	0x7e4
 4509 0f4c 37       		.uleb128 0x37
 4510 0f4d BC100000 		.4byte	.LASF170
 4511 0f51 02       		.byte	0x2
 4512 0f52 2F       		.byte	0x2f
 4513 0f53 89000000 		.4byte	0x89
 4514 0f57 00       		.byte	0
 4515 0f58 07       		.uleb128 0x7
 4516 0f59 F0070000 		.4byte	0x7f0
 4517 0f5d 34       		.uleb128 0x34
 4518 0f5e 1F0F0000 		.4byte	0xf1f
 4519 0f62 75060000 		.4byte	.LASF172
 4520 0f66 00000000 		.4byte	.LFB91
 4521 0f6a 2A000000 		.4byte	.LFE91-.LFB91
 4522 0f6e 01       		.uleb128 0x1
 4523 0f6f 9C       		.byte	0x9c
 4524 0f70 780F0000 		.4byte	0xf78
 4525 0f74 990F0000 		.4byte	0xf99
 4526 0f78 35       		.uleb128 0x35
 4527 0f79 2D0F0000 		.4byte	0xf2d
 4528 0f7d 02       		.uleb128 0x2
 4529 0f7e 91       		.byte	0x91
 4530 0f7f 74       		.sleb128 -12
 4531 0f80 35       		.uleb128 0x35
ARM GAS  C:\Users\Chuck\AppData\Local\Temp\ccNCRqO6.s 			page 98


 4532 0f81 360F0000 		.4byte	0xf36
 4533 0f85 02       		.uleb128 0x2
 4534 0f86 91       		.byte	0x91
 4535 0f87 70       		.sleb128 -16
 4536 0f88 35       		.uleb128 0x35
 4537 0f89 410F0000 		.4byte	0xf41
 4538 0f8d 02       		.uleb128 0x2
 4539 0f8e 91       		.byte	0x91
 4540 0f8f 6C       		.sleb128 -20
 4541 0f90 35       		.uleb128 0x35
 4542 0f91 4C0F0000 		.4byte	0xf4c
 4543 0f95 02       		.uleb128 0x2
 4544 0f96 91       		.byte	0x91
 4545 0f97 68       		.sleb128 -24
 4546 0f98 00       		.byte	0
 4547 0f99 39       		.uleb128 0x39
 4548 0f9a 84010000 		.4byte	0x184
 4549 0f9e 00000000 		.4byte	.LFB93
 4550 0fa2 2E000000 		.4byte	.LFE93-.LFB93
 4551 0fa6 01       		.uleb128 0x1
 4552 0fa7 9C       		.byte	0x9c
 4553 0fa8 B00F0000 		.4byte	0xfb0
 4554 0fac CB0F0000 		.4byte	0xfcb
 4555 0fb0 3A       		.uleb128 0x3a
 4556 0fb1 FE0A0000 		.4byte	.LASF169
 4557 0fb5 580F0000 		.4byte	0xf58
 4558 0fb9 02       		.uleb128 0x2
 4559 0fba 91       		.byte	0x91
 4560 0fbb 6C       		.sleb128 -20
 4561 0fbc 3B       		.uleb128 0x3b
 4562 0fbd 6D736700 		.ascii	"msg\000"
 4563 0fc1 02       		.byte	0x2
 4564 0fc2 34       		.byte	0x34
 4565 0fc3 F6070000 		.4byte	0x7f6
 4566 0fc7 02       		.uleb128 0x2
 4567 0fc8 91       		.byte	0x91
 4568 0fc9 68       		.sleb128 -24
 4569 0fca 00       		.byte	0
 4570 0fcb 36       		.uleb128 0x36
 4571 0fcc 700D0000 		.4byte	0xd70
 4572 0fd0 02       		.byte	0x2
 4573 0fd1 D90F0000 		.4byte	0xfd9
 4574 0fd5 E30F0000 		.4byte	0xfe3
 4575 0fd9 33       		.uleb128 0x33
 4576 0fda FE0A0000 		.4byte	.LASF169
 4577 0fde E30F0000 		.4byte	0xfe3
 4578 0fe2 00       		.byte	0
 4579 0fe3 07       		.uleb128 0x7
 4580 0fe4 740E0000 		.4byte	0xe74
 4581 0fe8 3C       		.uleb128 0x3c
 4582 0fe9 CB0F0000 		.4byte	0xfcb
 4583 0fed E1090000 		.4byte	.LASF173
 4584 0ff1 00000000 		.4byte	.LFB159
 4585 0ff5 3C000000 		.4byte	.LFE159-.LFB159
 4586 0ff9 01       		.uleb128 0x1
 4587 0ffa 9C       		.byte	0x9c
 4588 0ffb 03100000 		.4byte	0x1003
ARM GAS  C:\Users\Chuck\AppData\Local\Temp\ccNCRqO6.s 			page 99


 4589 0fff 0C100000 		.4byte	0x100c
 4590 1003 35       		.uleb128 0x35
 4591 1004 D90F0000 		.4byte	0xfd9
 4592 1008 02       		.uleb128 0x2
 4593 1009 91       		.byte	0x91
 4594 100a 74       		.sleb128 -12
 4595 100b 00       		.byte	0
 4596 100c 39       		.uleb128 0x39
 4597 100d 8A0D0000 		.4byte	0xd8a
 4598 1011 00000000 		.4byte	.LFB161
 4599 1015 F2000000 		.4byte	.LFE161-.LFB161
 4600 1019 01       		.uleb128 0x1
 4601 101a 9C       		.byte	0x9c
 4602 101b 23100000 		.4byte	0x1023
 4603 101f 64100000 		.4byte	0x1064
 4604 1023 3A       		.uleb128 0x3a
 4605 1024 FE0A0000 		.4byte	.LASF169
 4606 1028 64100000 		.4byte	0x1064
 4607 102c 02       		.uleb128 0x2
 4608 102d 91       		.byte	0x91
 4609 102e 6C       		.sleb128 -20
 4610 102f 3D       		.uleb128 0x3d
 4611 1030 D20B0000 		.4byte	.LASF174
 4612 1034 03       		.byte	0x3
 4613 1035 1A       		.byte	0x1a
 4614 1036 EC000000 		.4byte	0xec
 4615 103a 02       		.uleb128 0x2
 4616 103b 91       		.byte	0x91
 4617 103c 68       		.sleb128 -24
 4618 103d 3E       		.uleb128 0x3e
 4619 103e 0A000000 		.4byte	.LBB5
 4620 1042 E0000000 		.4byte	.LBE5-.LBB5
 4621 1046 3F       		.uleb128 0x3f
 4622 1047 9F050000 		.4byte	.LASF175
 4623 104b 03       		.byte	0x3
 4624 104c 1C       		.byte	0x1c
 4625 104d 89000000 		.4byte	0x89
 4626 1051 02       		.uleb128 0x2
 4627 1052 91       		.byte	0x91
 4628 1053 74       		.sleb128 -12
 4629 1054 3F       		.uleb128 0x3f
 4630 1055 E80D0000 		.4byte	.LASF176
 4631 1059 03       		.byte	0x3
 4632 105a 1E       		.byte	0x1e
 4633 105b B8000000 		.4byte	0xb8
 4634 105f 02       		.uleb128 0x2
 4635 1060 91       		.byte	0x91
 4636 1061 70       		.sleb128 -16
 4637 1062 00       		.byte	0
 4638 1063 00       		.byte	0
 4639 1064 07       		.uleb128 0x7
 4640 1065 920E0000 		.4byte	0xe92
 4641 1069 39       		.uleb128 0x39
 4642 106a B50D0000 		.4byte	0xdb5
 4643 106e 00000000 		.4byte	.LFB162
 4644 1072 2C010000 		.4byte	.LFE162-.LFB162
 4645 1076 01       		.uleb128 0x1
ARM GAS  C:\Users\Chuck\AppData\Local\Temp\ccNCRqO6.s 			page 100


 4646 1077 9C       		.byte	0x9c
 4647 1078 80100000 		.4byte	0x1080
 4648 107c D7100000 		.4byte	0x10d7
 4649 1080 3A       		.uleb128 0x3a
 4650 1081 FE0A0000 		.4byte	.LASF169
 4651 1085 E30F0000 		.4byte	0xfe3
 4652 1089 02       		.uleb128 0x2
 4653 108a 91       		.byte	0x91
 4654 108b 64       		.sleb128 -28
 4655 108c 3D       		.uleb128 0x3d
 4656 108d 3F070000 		.4byte	.LASF177
 4657 1091 03       		.byte	0x3
 4658 1092 31       		.byte	0x31
 4659 1093 EC000000 		.4byte	0xec
 4660 1097 02       		.uleb128 0x2
 4661 1098 91       		.byte	0x91
 4662 1099 60       		.sleb128 -32
 4663 109a 3E       		.uleb128 0x3e
 4664 109b 0A000000 		.4byte	.LBB6
 4665 109f 1A010000 		.4byte	.LBE6-.LBB6
 4666 10a3 3F       		.uleb128 0x3f
 4667 10a4 9F050000 		.4byte	.LASF175
 4668 10a8 03       		.byte	0x3
 4669 10a9 33       		.byte	0x33
 4670 10aa 89000000 		.4byte	0x89
 4671 10ae 02       		.uleb128 0x2
 4672 10af 91       		.byte	0x91
 4673 10b0 70       		.sleb128 -16
 4674 10b1 3F       		.uleb128 0x3f
 4675 10b2 E80D0000 		.4byte	.LASF176
 4676 10b6 03       		.byte	0x3
 4677 10b7 35       		.byte	0x35
 4678 10b8 B8000000 		.4byte	0xb8
 4679 10bc 02       		.uleb128 0x2
 4680 10bd 91       		.byte	0x91
 4681 10be 6C       		.sleb128 -20
 4682 10bf 3E       		.uleb128 0x3e
 4683 10c0 28000000 		.4byte	.LBB7
 4684 10c4 2A000000 		.4byte	.LBE7-.LBB7
 4685 10c8 40       		.uleb128 0x40
 4686 10c9 6B00     		.ascii	"k\000"
 4687 10cb 03       		.byte	0x3
 4688 10cc 38       		.byte	0x38
 4689 10cd 90000000 		.4byte	0x90
 4690 10d1 02       		.uleb128 0x2
 4691 10d2 91       		.byte	0x91
 4692 10d3 74       		.sleb128 -12
 4693 10d4 00       		.byte	0
 4694 10d5 00       		.byte	0
 4695 10d6 00       		.byte	0
 4696 10d7 41       		.uleb128 0x41
 4697 10d8 E00D0000 		.4byte	0xde0
 4698 10dc 00000000 		.4byte	.LFB163
 4699 10e0 18000000 		.4byte	.LFE163-.LFB163
 4700 10e4 01       		.uleb128 0x1
 4701 10e5 9C       		.byte	0x9c
 4702 10e6 EE100000 		.4byte	0x10ee
ARM GAS  C:\Users\Chuck\AppData\Local\Temp\ccNCRqO6.s 			page 101


 4703 10ea FB100000 		.4byte	0x10fb
 4704 10ee 3A       		.uleb128 0x3a
 4705 10ef FE0A0000 		.4byte	.LASF169
 4706 10f3 E30F0000 		.4byte	0xfe3
 4707 10f7 02       		.uleb128 0x2
 4708 10f8 91       		.byte	0x91
 4709 10f9 74       		.sleb128 -12
 4710 10fa 00       		.byte	0
 4711 10fb 41       		.uleb128 0x41
 4712 10fc 060E0000 		.4byte	0xe06
 4713 1100 00000000 		.4byte	.LFB164
 4714 1104 18000000 		.4byte	.LFE164-.LFB164
 4715 1108 01       		.uleb128 0x1
 4716 1109 9C       		.byte	0x9c
 4717 110a 12110000 		.4byte	0x1112
 4718 110e 1F110000 		.4byte	0x111f
 4719 1112 3A       		.uleb128 0x3a
 4720 1113 FE0A0000 		.4byte	.LASF169
 4721 1117 E30F0000 		.4byte	0xfe3
 4722 111b 02       		.uleb128 0x2
 4723 111c 91       		.byte	0x91
 4724 111d 74       		.sleb128 -12
 4725 111e 00       		.byte	0
 4726 111f 36       		.uleb128 0x36
 4727 1120 3F0C0000 		.4byte	0xc3f
 4728 1124 02       		.byte	0x2
 4729 1125 2D110000 		.4byte	0x112d
 4730 1129 37110000 		.4byte	0x1137
 4731 112d 33       		.uleb128 0x33
 4732 112e FE0A0000 		.4byte	.LASF169
 4733 1132 37110000 		.4byte	0x1137
 4734 1136 00       		.byte	0
 4735 1137 07       		.uleb128 0x7
 4736 1138 7A0E0000 		.4byte	0xe7a
 4737 113c 3C       		.uleb128 0x3c
 4738 113d 1F110000 		.4byte	0x111f
 4739 1141 DB0A0000 		.4byte	.LASF178
 4740 1145 00000000 		.4byte	.LFB166
 4741 1149 40000000 		.4byte	.LFE166-.LFB166
 4742 114d 01       		.uleb128 0x1
 4743 114e 9C       		.byte	0x9c
 4744 114f 57110000 		.4byte	0x1157
 4745 1153 60110000 		.4byte	0x1160
 4746 1157 35       		.uleb128 0x35
 4747 1158 2D110000 		.4byte	0x112d
 4748 115c 02       		.uleb128 0x2
 4749 115d 91       		.byte	0x91
 4750 115e 74       		.sleb128 -12
 4751 115f 00       		.byte	0
 4752 1160 39       		.uleb128 0x39
 4753 1161 590C0000 		.4byte	0xc59
 4754 1165 00000000 		.4byte	.LFB168
 4755 1169 FC000000 		.4byte	.LFE168-.LFB168
 4756 116d 01       		.uleb128 0x1
 4757 116e 9C       		.byte	0x9c
 4758 116f 77110000 		.4byte	0x1177
 4759 1173 C0110000 		.4byte	0x11c0
ARM GAS  C:\Users\Chuck\AppData\Local\Temp\ccNCRqO6.s 			page 102


 4760 1177 3A       		.uleb128 0x3a
 4761 1178 FE0A0000 		.4byte	.LASF169
 4762 117c C0110000 		.4byte	0x11c0
 4763 1180 02       		.uleb128 0x2
 4764 1181 91       		.byte	0x91
 4765 1182 6C       		.sleb128 -20
 4766 1183 3D       		.uleb128 0x3d
 4767 1184 D20B0000 		.4byte	.LASF174
 4768 1188 04       		.byte	0x4
 4769 1189 1B       		.byte	0x1b
 4770 118a EC000000 		.4byte	0xec
 4771 118e 02       		.uleb128 0x2
 4772 118f 91       		.byte	0x91
 4773 1190 68       		.sleb128 -24
 4774 1191 3E       		.uleb128 0x3e
 4775 1192 0A000000 		.4byte	.LBB9
 4776 1196 EA000000 		.4byte	.LBE9-.LBB9
 4777 119a 3F       		.uleb128 0x3f
 4778 119b 9F050000 		.4byte	.LASF175
 4779 119f 04       		.byte	0x4
 4780 11a0 1D       		.byte	0x1d
 4781 11a1 89000000 		.4byte	0x89
 4782 11a5 02       		.uleb128 0x2
 4783 11a6 91       		.byte	0x91
 4784 11a7 74       		.sleb128 -12
 4785 11a8 3E       		.uleb128 0x3e
 4786 11a9 50000000 		.4byte	.LBB10
 4787 11ad 58000000 		.4byte	.LBE10-.LBB10
 4788 11b1 40       		.uleb128 0x40
 4789 11b2 6900     		.ascii	"i\000"
 4790 11b4 04       		.byte	0x4
 4791 11b5 23       		.byte	0x23
 4792 11b6 97000000 		.4byte	0x97
 4793 11ba 02       		.uleb128 0x2
 4794 11bb 91       		.byte	0x91
 4795 11bc 73       		.sleb128 -13
 4796 11bd 00       		.byte	0
 4797 11be 00       		.byte	0
 4798 11bf 00       		.byte	0
 4799 11c0 07       		.uleb128 0x7
 4800 11c1 860E0000 		.4byte	0xe86
 4801 11c5 39       		.uleb128 0x39
 4802 11c6 840C0000 		.4byte	0xc84
 4803 11ca 00000000 		.4byte	.LFB169
 4804 11ce 0E010000 		.4byte	.LFE169-.LFB169
 4805 11d2 01       		.uleb128 0x1
 4806 11d3 9C       		.byte	0x9c
 4807 11d4 DC110000 		.4byte	0x11dc
 4808 11d8 33120000 		.4byte	0x1233
 4809 11dc 3A       		.uleb128 0x3a
 4810 11dd FE0A0000 		.4byte	.LASF169
 4811 11e1 37110000 		.4byte	0x1137
 4812 11e5 02       		.uleb128 0x2
 4813 11e6 91       		.byte	0x91
 4814 11e7 6C       		.sleb128 -20
 4815 11e8 3D       		.uleb128 0x3d
 4816 11e9 3F070000 		.4byte	.LASF177
ARM GAS  C:\Users\Chuck\AppData\Local\Temp\ccNCRqO6.s 			page 103


 4817 11ed 04       		.byte	0x4
 4818 11ee 2F       		.byte	0x2f
 4819 11ef EC000000 		.4byte	0xec
 4820 11f3 02       		.uleb128 0x2
 4821 11f4 91       		.byte	0x91
 4822 11f5 68       		.sleb128 -24
 4823 11f6 3E       		.uleb128 0x3e
 4824 11f7 0A000000 		.4byte	.LBB11
 4825 11fb FC000000 		.4byte	.LBE11-.LBB11
 4826 11ff 3F       		.uleb128 0x3f
 4827 1200 9F050000 		.4byte	.LASF175
 4828 1204 04       		.byte	0x4
 4829 1205 31       		.byte	0x31
 4830 1206 89000000 		.4byte	0x89
 4831 120a 02       		.uleb128 0x2
 4832 120b 91       		.byte	0x91
 4833 120c 74       		.sleb128 -12
 4834 120d 3F       		.uleb128 0x3f
 4835 120e 65080000 		.4byte	.LASF179
 4836 1212 04       		.byte	0x4
 4837 1213 33       		.byte	0x33
 4838 1214 97000000 		.4byte	0x97
 4839 1218 02       		.uleb128 0x2
 4840 1219 91       		.byte	0x91
 4841 121a 72       		.sleb128 -14
 4842 121b 3E       		.uleb128 0x3e
 4843 121c 40000000 		.4byte	.LBB12
 4844 1220 6E000000 		.4byte	.LBE12-.LBB12
 4845 1224 40       		.uleb128 0x40
 4846 1225 6900     		.ascii	"i\000"
 4847 1227 04       		.byte	0x4
 4848 1228 37       		.byte	0x37
 4849 1229 97000000 		.4byte	0x97
 4850 122d 02       		.uleb128 0x2
 4851 122e 91       		.byte	0x91
 4852 122f 73       		.sleb128 -13
 4853 1230 00       		.byte	0
 4854 1231 00       		.byte	0
 4855 1232 00       		.byte	0
 4856 1233 41       		.uleb128 0x41
 4857 1234 AF0C0000 		.4byte	0xcaf
 4858 1238 00000000 		.4byte	.LFB170
 4859 123c 18000000 		.4byte	.LFE170-.LFB170
 4860 1240 01       		.uleb128 0x1
 4861 1241 9C       		.byte	0x9c
 4862 1242 4A120000 		.4byte	0x124a
 4863 1246 57120000 		.4byte	0x1257
 4864 124a 3A       		.uleb128 0x3a
 4865 124b FE0A0000 		.4byte	.LASF169
 4866 124f 37110000 		.4byte	0x1137
 4867 1253 02       		.uleb128 0x2
 4868 1254 91       		.byte	0x91
 4869 1255 74       		.sleb128 -12
 4870 1256 00       		.byte	0
 4871 1257 41       		.uleb128 0x41
 4872 1258 D50C0000 		.4byte	0xcd5
 4873 125c 00000000 		.4byte	.LFB171
ARM GAS  C:\Users\Chuck\AppData\Local\Temp\ccNCRqO6.s 			page 104


 4874 1260 18000000 		.4byte	.LFE171-.LFB171
 4875 1264 01       		.uleb128 0x1
 4876 1265 9C       		.byte	0x9c
 4877 1266 6E120000 		.4byte	0x126e
 4878 126a 7B120000 		.4byte	0x127b
 4879 126e 3A       		.uleb128 0x3a
 4880 126f FE0A0000 		.4byte	.LASF169
 4881 1273 37110000 		.4byte	0x1137
 4882 1277 02       		.uleb128 0x2
 4883 1278 91       		.byte	0x91
 4884 1279 74       		.sleb128 -12
 4885 127a 00       		.byte	0
 4886 127b 36       		.uleb128 0x36
 4887 127c FC0A0000 		.4byte	0xafc
 4888 1280 02       		.byte	0x2
 4889 1281 89120000 		.4byte	0x1289
 4890 1285 93120000 		.4byte	0x1293
 4891 1289 33       		.uleb128 0x33
 4892 128a FE0A0000 		.4byte	.LASF169
 4893 128e 93120000 		.4byte	0x1293
 4894 1292 00       		.byte	0
 4895 1293 07       		.uleb128 0x7
 4896 1294 6E0E0000 		.4byte	0xe6e
 4897 1298 3C       		.uleb128 0x3c
 4898 1299 7B120000 		.4byte	0x127b
 4899 129d FD050000 		.4byte	.LASF180
 4900 12a1 00000000 		.4byte	.LFB173
 4901 12a5 3C000000 		.4byte	.LFE173-.LFB173
 4902 12a9 01       		.uleb128 0x1
 4903 12aa 9C       		.byte	0x9c
 4904 12ab B3120000 		.4byte	0x12b3
 4905 12af BC120000 		.4byte	0x12bc
 4906 12b3 35       		.uleb128 0x35
 4907 12b4 89120000 		.4byte	0x1289
 4908 12b8 02       		.uleb128 0x2
 4909 12b9 91       		.byte	0x91
 4910 12ba 74       		.sleb128 -12
 4911 12bb 00       		.byte	0
 4912 12bc 39       		.uleb128 0x39
 4913 12bd 160B0000 		.4byte	0xb16
 4914 12c1 00000000 		.4byte	.LFB175
 4915 12c5 BA000000 		.4byte	.LFE175-.LFB175
 4916 12c9 01       		.uleb128 0x1
 4917 12ca 9C       		.byte	0x9c
 4918 12cb D3120000 		.4byte	0x12d3
 4919 12cf 1C130000 		.4byte	0x131c
 4920 12d3 3A       		.uleb128 0x3a
 4921 12d4 FE0A0000 		.4byte	.LASF169
 4922 12d8 1C130000 		.4byte	0x131c
 4923 12dc 02       		.uleb128 0x2
 4924 12dd 91       		.byte	0x91
 4925 12de 6C       		.sleb128 -20
 4926 12df 3D       		.uleb128 0x3d
 4927 12e0 D20B0000 		.4byte	.LASF174
 4928 12e4 05       		.byte	0x5
 4929 12e5 1B       		.byte	0x1b
 4930 12e6 EC000000 		.4byte	0xec
ARM GAS  C:\Users\Chuck\AppData\Local\Temp\ccNCRqO6.s 			page 105


 4931 12ea 02       		.uleb128 0x2
 4932 12eb 91       		.byte	0x91
 4933 12ec 68       		.sleb128 -24
 4934 12ed 3E       		.uleb128 0x3e
 4935 12ee 0A000000 		.4byte	.LBB14
 4936 12f2 A8000000 		.4byte	.LBE14-.LBB14
 4937 12f6 3F       		.uleb128 0x3f
 4938 12f7 9F050000 		.4byte	.LASF175
 4939 12fb 05       		.byte	0x5
 4940 12fc 1D       		.byte	0x1d
 4941 12fd 89000000 		.4byte	0x89
 4942 1301 02       		.uleb128 0x2
 4943 1302 91       		.byte	0x91
 4944 1303 74       		.sleb128 -12
 4945 1304 3E       		.uleb128 0x3e
 4946 1305 6C000000 		.4byte	.LBB15
 4947 1309 44000000 		.4byte	.LBE15-.LBB15
 4948 130d 40       		.uleb128 0x40
 4949 130e 6900     		.ascii	"i\000"
 4950 1310 05       		.byte	0x5
 4951 1311 24       		.byte	0x24
 4952 1312 97000000 		.4byte	0x97
 4953 1316 02       		.uleb128 0x2
 4954 1317 91       		.byte	0x91
 4955 1318 73       		.sleb128 -13
 4956 1319 00       		.byte	0
 4957 131a 00       		.byte	0
 4958 131b 00       		.byte	0
 4959 131c 07       		.uleb128 0x7
 4960 131d 5C0E0000 		.4byte	0xe5c
 4961 1321 39       		.uleb128 0x39
 4962 1322 410B0000 		.4byte	0xb41
 4963 1326 00000000 		.4byte	.LFB176
 4964 132a CE000000 		.4byte	.LFE176-.LFB176
 4965 132e 01       		.uleb128 0x1
 4966 132f 9C       		.byte	0x9c
 4967 1330 38130000 		.4byte	0x1338
 4968 1334 8F130000 		.4byte	0x138f
 4969 1338 3A       		.uleb128 0x3a
 4970 1339 FE0A0000 		.4byte	.LASF169
 4971 133d 93120000 		.4byte	0x1293
 4972 1341 02       		.uleb128 0x2
 4973 1342 91       		.byte	0x91
 4974 1343 6C       		.sleb128 -20
 4975 1344 3D       		.uleb128 0x3d
 4976 1345 3F070000 		.4byte	.LASF177
 4977 1349 05       		.byte	0x5
 4978 134a 2C       		.byte	0x2c
 4979 134b EC000000 		.4byte	0xec
 4980 134f 02       		.uleb128 0x2
 4981 1350 91       		.byte	0x91
 4982 1351 68       		.sleb128 -24
 4983 1352 3E       		.uleb128 0x3e
 4984 1353 0A000000 		.4byte	.LBB16
 4985 1357 BC000000 		.4byte	.LBE16-.LBB16
 4986 135b 3F       		.uleb128 0x3f
 4987 135c 9F050000 		.4byte	.LASF175
ARM GAS  C:\Users\Chuck\AppData\Local\Temp\ccNCRqO6.s 			page 106


 4988 1360 05       		.byte	0x5
 4989 1361 2E       		.byte	0x2e
 4990 1362 89000000 		.4byte	0x89
 4991 1366 02       		.uleb128 0x2
 4992 1367 91       		.byte	0x91
 4993 1368 74       		.sleb128 -12
 4994 1369 3F       		.uleb128 0x3f
 4995 136a CE0A0000 		.4byte	.LASF181
 4996 136e 05       		.byte	0x5
 4997 136f 31       		.byte	0x31
 4998 1370 97000000 		.4byte	0x97
 4999 1374 02       		.uleb128 0x2
 5000 1375 91       		.byte	0x91
 5001 1376 72       		.sleb128 -14
 5002 1377 3E       		.uleb128 0x3e
 5003 1378 5E000000 		.4byte	.LBB17
 5004 137c 66000000 		.4byte	.LBE17-.LBB17
 5005 1380 40       		.uleb128 0x40
 5006 1381 6900     		.ascii	"i\000"
 5007 1383 05       		.byte	0x5
 5008 1384 35       		.byte	0x35
 5009 1385 97000000 		.4byte	0x97
 5010 1389 02       		.uleb128 0x2
 5011 138a 91       		.byte	0x91
 5012 138b 73       		.sleb128 -13
 5013 138c 00       		.byte	0
 5014 138d 00       		.byte	0
 5015 138e 00       		.byte	0
 5016 138f 41       		.uleb128 0x41
 5017 1390 6C0B0000 		.4byte	0xb6c
 5018 1394 00000000 		.4byte	.LFB177
 5019 1398 18000000 		.4byte	.LFE177-.LFB177
 5020 139c 01       		.uleb128 0x1
 5021 139d 9C       		.byte	0x9c
 5022 139e A6130000 		.4byte	0x13a6
 5023 13a2 B3130000 		.4byte	0x13b3
 5024 13a6 3A       		.uleb128 0x3a
 5025 13a7 FE0A0000 		.4byte	.LASF169
 5026 13ab 93120000 		.4byte	0x1293
 5027 13af 02       		.uleb128 0x2
 5028 13b0 91       		.byte	0x91
 5029 13b1 74       		.sleb128 -12
 5030 13b2 00       		.byte	0
 5031 13b3 41       		.uleb128 0x41
 5032 13b4 920B0000 		.4byte	0xb92
 5033 13b8 00000000 		.4byte	.LFB178
 5034 13bc 18000000 		.4byte	.LFE178-.LFB178
 5035 13c0 01       		.uleb128 0x1
 5036 13c1 9C       		.byte	0x9c
 5037 13c2 CA130000 		.4byte	0x13ca
 5038 13c6 D7130000 		.4byte	0x13d7
 5039 13ca 3A       		.uleb128 0x3a
 5040 13cb FE0A0000 		.4byte	.LASF169
 5041 13cf 93120000 		.4byte	0x1293
 5042 13d3 02       		.uleb128 0x2
 5043 13d4 91       		.byte	0x91
 5044 13d5 74       		.sleb128 -12
ARM GAS  C:\Users\Chuck\AppData\Local\Temp\ccNCRqO6.s 			page 107


 5045 13d6 00       		.byte	0
 5046 13d7 42       		.uleb128 0x42
 5047 13d8 86090000 		.4byte	0x986
 5048 13dc 00000000 		.4byte	.LFB179
 5049 13e0 4C000000 		.4byte	.LFE179-.LFB179
 5050 13e4 01       		.uleb128 0x1
 5051 13e5 9C       		.byte	0x9c
 5052 13e6 11140000 		.4byte	0x1411
 5053 13ea 3B       		.uleb128 0x3b
 5054 13eb 6D736700 		.ascii	"msg\000"
 5055 13ef 06       		.byte	0x6
 5056 13f0 2A       		.byte	0x2a
 5057 13f1 11140000 		.4byte	0x1411
 5058 13f5 02       		.uleb128 0x2
 5059 13f6 91       		.byte	0x91
 5060 13f7 6C       		.sleb128 -20
 5061 13f8 3E       		.uleb128 0x3e
 5062 13f9 08000000 		.4byte	.LBB18
 5063 13fd 3A000000 		.4byte	.LBE18-.LBB18
 5064 1401 3F       		.uleb128 0x3f
 5065 1402 11070000 		.4byte	.LASF182
 5066 1406 06       		.byte	0x6
 5067 1407 2C       		.byte	0x2c
 5068 1408 B8000000 		.4byte	0xb8
 5069 140c 02       		.uleb128 0x2
 5070 140d 91       		.byte	0x91
 5071 140e 74       		.sleb128 -12
 5072 140f 00       		.byte	0
 5073 1410 00       		.byte	0
 5074 1411 07       		.uleb128 0x7
 5075 1412 450E0000 		.4byte	0xe45
 5076 1416 42       		.uleb128 0x42
 5077 1417 9B090000 		.4byte	0x99b
 5078 141b 00000000 		.4byte	.LFB180
 5079 141f B8000000 		.4byte	.LFE180-.LFB180
 5080 1423 01       		.uleb128 0x1
 5081 1424 9C       		.byte	0x9c
 5082 1425 6C140000 		.4byte	0x146c
 5083 1429 3B       		.uleb128 0x3b
 5084 142a 6D736700 		.ascii	"msg\000"
 5085 142e 06       		.byte	0x6
 5086 142f 37       		.byte	0x37
 5087 1430 6C140000 		.4byte	0x146c
 5088 1434 02       		.uleb128 0x2
 5089 1435 91       		.byte	0x91
 5090 1436 6C       		.sleb128 -20
 5091 1437 43       		.uleb128 0x43
 5092 1438 40000000 		.4byte	.LBB21
 5093 143c 2C000000 		.4byte	.LBE21-.LBB21
 5094 1440 53140000 		.4byte	0x1453
 5095 1444 3F       		.uleb128 0x3f
 5096 1445 11070000 		.4byte	.LASF182
 5097 1449 06       		.byte	0x6
 5098 144a 3D       		.byte	0x3d
 5099 144b B8000000 		.4byte	0xb8
 5100 144f 02       		.uleb128 0x2
 5101 1450 91       		.byte	0x91
ARM GAS  C:\Users\Chuck\AppData\Local\Temp\ccNCRqO6.s 			page 108


 5102 1451 74       		.sleb128 -12
 5103 1452 00       		.byte	0
 5104 1453 3E       		.uleb128 0x3e
 5105 1454 6E000000 		.4byte	.LBB22
 5106 1458 2A000000 		.4byte	.LBE22-.LBB22
 5107 145c 3F       		.uleb128 0x3f
 5108 145d 11070000 		.4byte	.LASF182
 5109 1461 06       		.byte	0x6
 5110 1462 43       		.byte	0x43
 5111 1463 B8000000 		.4byte	0xb8
 5112 1467 02       		.uleb128 0x2
 5113 1468 91       		.byte	0x91
 5114 1469 70       		.sleb128 -16
 5115 146a 00       		.byte	0
 5116 146b 00       		.byte	0
 5117 146c 07       		.uleb128 0x7
 5118 146d 450E0000 		.4byte	0xe45
 5119 1471 44       		.uleb128 0x44
 5120 1472 B0090000 		.4byte	0x9b0
 5121 1476 00000000 		.4byte	.LFB181
 5122 147a C4000000 		.4byte	.LFE181-.LFB181
 5123 147e 01       		.uleb128 0x1
 5124 147f 9C       		.byte	0x9c
 5125 1480 42       		.uleb128 0x42
 5126 1481 BB090000 		.4byte	0x9bb
 5127 1485 00000000 		.4byte	.LFB182
 5128 1489 EC000000 		.4byte	.LFE182-.LFB182
 5129 148d 01       		.uleb128 0x1
 5130 148e 9C       		.byte	0x9c
 5131 148f AC140000 		.4byte	0x14ac
 5132 1493 3E       		.uleb128 0x3e
 5133 1494 22000000 		.4byte	.LBB25
 5134 1498 2E000000 		.4byte	.LBE25-.LBB25
 5135 149c 3F       		.uleb128 0x3f
 5136 149d 11070000 		.4byte	.LASF182
 5137 14a1 06       		.byte	0x6
 5138 14a2 74       		.byte	0x74
 5139 14a3 B8000000 		.4byte	0xb8
 5140 14a7 02       		.uleb128 0x2
 5141 14a8 91       		.byte	0x91
 5142 14a9 74       		.sleb128 -12
 5143 14aa 00       		.byte	0
 5144 14ab 00       		.byte	0
 5145 14ac 32       		.uleb128 0x32
 5146 14ad 43050000 		.4byte	0x543
 5147 14b1 07       		.byte	0x7
 5148 14b2 2B       		.byte	0x2b
 5149 14b3 02       		.byte	0x2
 5150 14b4 BC140000 		.4byte	0x14bc
 5151 14b8 C6140000 		.4byte	0x14c6
 5152 14bc 33       		.uleb128 0x33
 5153 14bd FE0A0000 		.4byte	.LASF169
 5154 14c1 C6140000 		.4byte	0x14c6
 5155 14c5 00       		.byte	0
 5156 14c6 07       		.uleb128 0x7
 5157 14c7 B30E0000 		.4byte	0xeb3
 5158 14cb 34       		.uleb128 0x34
ARM GAS  C:\Users\Chuck\AppData\Local\Temp\ccNCRqO6.s 			page 109


 5159 14cc AC140000 		.4byte	0x14ac
 5160 14d0 97060000 		.4byte	.LASF183
 5161 14d4 00000000 		.4byte	.LFB185
 5162 14d8 1C000000 		.4byte	.LFE185-.LFB185
 5163 14dc 01       		.uleb128 0x1
 5164 14dd 9C       		.byte	0x9c
 5165 14de E6140000 		.4byte	0x14e6
 5166 14e2 EF140000 		.4byte	0x14ef
 5167 14e6 35       		.uleb128 0x35
 5168 14e7 BC140000 		.4byte	0x14bc
 5169 14eb 02       		.uleb128 0x2
 5170 14ec 91       		.byte	0x91
 5171 14ed 74       		.sleb128 -12
 5172 14ee 00       		.byte	0
 5173 14ef 36       		.uleb128 0x36
 5174 14f0 C0030000 		.4byte	0x3c0
 5175 14f4 02       		.byte	0x2
 5176 14f5 FD140000 		.4byte	0x14fd
 5177 14f9 27150000 		.4byte	0x1527
 5178 14fd 33       		.uleb128 0x33
 5179 14fe FE0A0000 		.4byte	.LASF169
 5180 1502 27150000 		.4byte	0x1527
 5181 1506 37       		.uleb128 0x37
 5182 1507 F40E0000 		.4byte	.LASF80
 5183 150b 07       		.byte	0x7
 5184 150c 41       		.byte	0x41
 5185 150d F2000000 		.4byte	0xf2
 5186 1511 38       		.uleb128 0x38
 5187 1512 636200   		.ascii	"cb\000"
 5188 1515 07       		.byte	0x7
 5189 1516 41       		.byte	0x41
 5190 1517 64030000 		.4byte	0x364
 5191 151b 37       		.uleb128 0x37
 5192 151c BC100000 		.4byte	.LASF170
 5193 1520 07       		.byte	0x7
 5194 1521 41       		.byte	0x41
 5195 1522 89000000 		.4byte	0x89
 5196 1526 00       		.byte	0
 5197 1527 07       		.uleb128 0x7
 5198 1528 620E0000 		.4byte	0xe62
 5199 152c 3C       		.uleb128 0x3c
 5200 152d EF140000 		.4byte	0x14ef
 5201 1531 71080000 		.4byte	.LASF184
 5202 1535 00000000 		.4byte	.LFB187
 5203 1539 4C000000 		.4byte	.LFE187-.LFB187
 5204 153d 01       		.uleb128 0x1
 5205 153e 9C       		.byte	0x9c
 5206 153f 47150000 		.4byte	0x1547
 5207 1543 68150000 		.4byte	0x1568
 5208 1547 35       		.uleb128 0x35
 5209 1548 FD140000 		.4byte	0x14fd
 5210 154c 02       		.uleb128 0x2
 5211 154d 91       		.byte	0x91
 5212 154e 74       		.sleb128 -12
 5213 154f 35       		.uleb128 0x35
 5214 1550 06150000 		.4byte	0x1506
 5215 1554 02       		.uleb128 0x2
ARM GAS  C:\Users\Chuck\AppData\Local\Temp\ccNCRqO6.s 			page 110


 5216 1555 91       		.byte	0x91
 5217 1556 70       		.sleb128 -16
 5218 1557 35       		.uleb128 0x35
 5219 1558 11150000 		.4byte	0x1511
 5220 155c 02       		.uleb128 0x2
 5221 155d 91       		.byte	0x91
 5222 155e 6C       		.sleb128 -20
 5223 155f 35       		.uleb128 0x35
 5224 1560 1B150000 		.4byte	0x151b
 5225 1564 02       		.uleb128 0x2
 5226 1565 91       		.byte	0x91
 5227 1566 68       		.sleb128 -24
 5228 1567 00       		.byte	0
 5229 1568 02       		.uleb128 0x2
 5230 1569 01       		.byte	0x1
 5231 156a 02       		.byte	0x2
 5232 156b 29080000 		.4byte	.LASF185
 5233 156f 06       		.uleb128 0x6
 5234 1570 04       		.byte	0x4
 5235 1571 FB050000 		.4byte	0x5fb
 5236 1575 28       		.uleb128 0x28
 5237 1576 04       		.byte	0x4
 5238 1577 0F010000 		.4byte	0x10f
 5239 157b 41       		.uleb128 0x41
 5240 157c 04060000 		.4byte	0x604
 5241 1580 00000000 		.4byte	.LFB189
 5242 1584 54000000 		.4byte	.LFE189-.LFB189
 5243 1588 01       		.uleb128 0x1
 5244 1589 9C       		.byte	0x9c
 5245 158a 92150000 		.4byte	0x1592
 5246 158e C3150000 		.4byte	0x15c3
 5247 1592 3A       		.uleb128 0x3a
 5248 1593 FE0A0000 		.4byte	.LASF169
 5249 1597 C3150000 		.4byte	0x15c3
 5250 159b 02       		.uleb128 0x2
 5251 159c 91       		.byte	0x91
 5252 159d 6C       		.sleb128 -20
 5253 159e 45       		.uleb128 0x45
 5254 159f 7000     		.ascii	"p\000"
 5255 15a1 08       		.byte	0x8
 5256 15a2 5601     		.2byte	0x156
 5257 15a4 C8150000 		.4byte	0x15c8
 5258 15a8 02       		.uleb128 0x2
 5259 15a9 91       		.byte	0x91
 5260 15aa 68       		.sleb128 -24
 5261 15ab 3E       		.uleb128 0x3e
 5262 15ac 0A000000 		.4byte	.LBB29
 5263 15b0 40000000 		.4byte	.LBE29-.LBB29
 5264 15b4 46       		.uleb128 0x46
 5265 15b5 6900     		.ascii	"i\000"
 5266 15b7 08       		.byte	0x8
 5267 15b8 5801     		.2byte	0x158
 5268 15ba 89000000 		.4byte	0x89
 5269 15be 02       		.uleb128 0x2
 5270 15bf 91       		.byte	0x91
 5271 15c0 74       		.sleb128 -12
 5272 15c1 00       		.byte	0
ARM GAS  C:\Users\Chuck\AppData\Local\Temp\ccNCRqO6.s 			page 111


 5273 15c2 00       		.byte	0
 5274 15c3 07       		.uleb128 0x7
 5275 15c4 6F150000 		.4byte	0x156f
 5276 15c8 07       		.uleb128 0x7
 5277 15c9 75150000 		.4byte	0x1575
 5278 15cd 28       		.uleb128 0x28
 5279 15ce 04       		.byte	0x4
 5280 15cf 40030000 		.4byte	0x340
 5281 15d3 41       		.uleb128 0x41
 5282 15d4 28060000 		.4byte	0x628
 5283 15d8 00000000 		.4byte	.LFB190
 5284 15dc 4E000000 		.4byte	.LFE190-.LFB190
 5285 15e0 01       		.uleb128 0x1
 5286 15e1 9C       		.byte	0x9c
 5287 15e2 F3150000 		.4byte	0x15f3
 5288 15e6 24160000 		.4byte	0x1624
 5289 15ea 1F       		.uleb128 0x1f
 5290 15eb EA060000 		.4byte	.LASF68
 5291 15ef 770A0000 		.4byte	0xa77
 5292 15f3 3A       		.uleb128 0x3a
 5293 15f4 FE0A0000 		.4byte	.LASF169
 5294 15f8 C3150000 		.4byte	0x15c3
 5295 15fc 02       		.uleb128 0x2
 5296 15fd 91       		.byte	0x91
 5297 15fe 6C       		.sleb128 -20
 5298 15ff 45       		.uleb128 0x45
 5299 1600 7300     		.ascii	"s\000"
 5300 1602 08       		.byte	0x8
 5301 1603 6501     		.2byte	0x165
 5302 1605 24160000 		.4byte	0x1624
 5303 1609 02       		.uleb128 0x2
 5304 160a 91       		.byte	0x91
 5305 160b 68       		.sleb128 -24
 5306 160c 3E       		.uleb128 0x3e
 5307 160d 0A000000 		.4byte	.LBB31
 5308 1611 3A000000 		.4byte	.LBE31-.LBB31
 5309 1615 46       		.uleb128 0x46
 5310 1616 6900     		.ascii	"i\000"
 5311 1618 08       		.byte	0x8
 5312 1619 6601     		.2byte	0x166
 5313 161b 89000000 		.4byte	0x89
 5314 161f 02       		.uleb128 0x2
 5315 1620 91       		.byte	0x91
 5316 1621 74       		.sleb128 -12
 5317 1622 00       		.byte	0
 5318 1623 00       		.byte	0
 5319 1624 07       		.uleb128 0x7
 5320 1625 CD150000 		.4byte	0x15cd
 5321 1629 47       		.uleb128 0x47
 5322 162a F30B0000 		.4byte	.LASF198
 5323 162e 00000000 		.4byte	.LFB191
 5324 1632 B8000000 		.4byte	.LFE191-.LFB191
 5325 1636 01       		.uleb128 0x1
 5326 1637 9C       		.byte	0x9c
 5327 1638 59160000 		.4byte	0x1659
 5328 163c 3D       		.uleb128 0x3d
 5329 163d 68050000 		.4byte	.LASF186
ARM GAS  C:\Users\Chuck\AppData\Local\Temp\ccNCRqO6.s 			page 112


 5330 1641 06       		.byte	0x6
 5331 1642 8B       		.byte	0x8b
 5332 1643 89000000 		.4byte	0x89
 5333 1647 02       		.uleb128 0x2
 5334 1648 91       		.byte	0x91
 5335 1649 6C       		.sleb128 -20
 5336 164a 3D       		.uleb128 0x3d
 5337 164b CD050000 		.4byte	.LASF187
 5338 164f 06       		.byte	0x6
 5339 1650 8B       		.byte	0x8b
 5340 1651 89000000 		.4byte	0x89
 5341 1655 02       		.uleb128 0x2
 5342 1656 91       		.byte	0x91
 5343 1657 68       		.sleb128 -24
 5344 1658 00       		.byte	0
 5345 1659 39       		.uleb128 0x39
 5346 165a 31040000 		.4byte	0x431
 5347 165e 00000000 		.4byte	.LFB192
 5348 1662 4A000000 		.4byte	.LFE192-.LFB192
 5349 1666 01       		.uleb128 0x1
 5350 1667 9C       		.byte	0x9c
 5351 1668 70160000 		.4byte	0x1670
 5352 166c 8B160000 		.4byte	0x168b
 5353 1670 3A       		.uleb128 0x3a
 5354 1671 FE0A0000 		.4byte	.LASF169
 5355 1675 27150000 		.4byte	0x1527
 5356 1679 02       		.uleb128 0x2
 5357 167a 91       		.byte	0x91
 5358 167b 74       		.sleb128 -12
 5359 167c 3D       		.uleb128 0x3d
 5360 167d E5060000 		.4byte	.LASF145
 5361 1681 07       		.byte	0x7
 5362 1682 56       		.byte	0x56
 5363 1683 EC000000 		.4byte	0xec
 5364 1687 02       		.uleb128 0x2
 5365 1688 91       		.byte	0x91
 5366 1689 70       		.sleb128 -16
 5367 168a 00       		.byte	0
 5368 168b 41       		.uleb128 0x41
 5369 168c A4040000 		.4byte	0x4a4
 5370 1690 00000000 		.4byte	.LFB193
 5371 1694 14000000 		.4byte	.LFE193-.LFB193
 5372 1698 01       		.uleb128 0x1
 5373 1699 9C       		.byte	0x9c
 5374 169a A2160000 		.4byte	0x16a2
 5375 169e AF160000 		.4byte	0x16af
 5376 16a2 3A       		.uleb128 0x3a
 5377 16a3 FE0A0000 		.4byte	.LASF169
 5378 16a7 27150000 		.4byte	0x1527
 5379 16ab 02       		.uleb128 0x2
 5380 16ac 91       		.byte	0x91
 5381 16ad 74       		.sleb128 -12
 5382 16ae 00       		.byte	0
 5383 16af 39       		.uleb128 0x39
 5384 16b0 58040000 		.4byte	0x458
 5385 16b4 00000000 		.4byte	.LFB194
 5386 16b8 1C000000 		.4byte	.LFE194-.LFB194
ARM GAS  C:\Users\Chuck\AppData\Local\Temp\ccNCRqO6.s 			page 113


 5387 16bc 01       		.uleb128 0x1
 5388 16bd 9C       		.byte	0x9c
 5389 16be C6160000 		.4byte	0x16c6
 5390 16c2 D3160000 		.4byte	0x16d3
 5391 16c6 3A       		.uleb128 0x3a
 5392 16c7 FE0A0000 		.4byte	.LASF169
 5393 16cb 27150000 		.4byte	0x1527
 5394 16cf 02       		.uleb128 0x2
 5395 16d0 91       		.byte	0x91
 5396 16d1 74       		.sleb128 -12
 5397 16d2 00       		.byte	0
 5398 16d3 39       		.uleb128 0x39
 5399 16d4 7E040000 		.4byte	0x47e
 5400 16d8 00000000 		.4byte	.LFB195
 5401 16dc 1C000000 		.4byte	.LFE195-.LFB195
 5402 16e0 01       		.uleb128 0x1
 5403 16e1 9C       		.byte	0x9c
 5404 16e2 EA160000 		.4byte	0x16ea
 5405 16e6 F7160000 		.4byte	0x16f7
 5406 16ea 3A       		.uleb128 0x3a
 5407 16eb FE0A0000 		.4byte	.LASF169
 5408 16ef 27150000 		.4byte	0x1527
 5409 16f3 02       		.uleb128 0x2
 5410 16f4 91       		.byte	0x91
 5411 16f5 74       		.sleb128 -12
 5412 16f6 00       		.byte	0
 5413 16f7 48       		.uleb128 0x48
 5414 16f8 D2070000 		.4byte	.LASF199
 5415 16fc 00000000 		.4byte	.LFB196
 5416 1700 18000000 		.4byte	.LFE196-.LFB196
 5417 1704 01       		.uleb128 0x1
 5418 1705 9C       		.byte	0x9c
 5419 1706 19       		.uleb128 0x19
 5420 1707 8F0B0000 		.4byte	.LASF188
 5421 170b 49       		.uleb128 0x49
 5422 170c 6E030000 		.4byte	.LASF190
 5423 1710 12       		.byte	0x12
 5424 1711 1D       		.byte	0x1d
 5425 1712 06170000 		.4byte	0x1706
 5426 1716 4A       		.uleb128 0x4a
 5427 1717 6E6800   		.ascii	"nh\000"
 5428 171a 06       		.byte	0x6
 5429 171b 14       		.byte	0x14
 5430 171c 87060000 		.4byte	0x687
 5431 1720 4B       		.uleb128 0x4b
 5432 1721 C6090000 		.4byte	0x9c6
 5433 1725 05       		.uleb128 0x5
 5434 1726 03       		.byte	0x3
 5435 1727 00000000 		.4byte	_ZN10I2C_device9reply_msgE
 5436 172b 4C       		.uleb128 0x4c
 5437 172c F80C0000 		.4byte	0xcf8
 5438 1730 3B170000 		.4byte	0x173b
 5439 1734 4D       		.uleb128 0x4d
 5440 1735 E3000000 		.4byte	0xe3
 5441 1739 00       		.byte	0
 5442 173a 00       		.byte	0
 5443 173b 4B       		.uleb128 0x4b
ARM GAS  C:\Users\Chuck\AppData\Local\Temp\ccNCRqO6.s 			page 114


 5444 173c D5090000 		.4byte	0x9d5
 5445 1740 05       		.uleb128 0x5
 5446 1741 03       		.byte	0x3
 5447 1742 00000000 		.4byte	_ZN10I2C_device9reply_dimE
 5448 1746 4C       		.uleb128 0x4c
 5449 1747 37000000 		.4byte	0x37
 5450 174b 56170000 		.4byte	0x1756
 5451 174f 4D       		.uleb128 0x4d
 5452 1750 E3000000 		.4byte	0xe3
 5453 1754 07       		.byte	0x7
 5454 1755 00       		.byte	0
 5455 1756 4B       		.uleb128 0x4b
 5456 1757 E4090000 		.4byte	0x9e4
 5457 175b 05       		.uleb128 0x5
 5458 175c 03       		.byte	0x3
 5459 175d 00000000 		.4byte	_ZN10I2C_device10reply_dataE
 5460 1761 4B       		.uleb128 0x4b
 5461 1762 F3090000 		.4byte	0x9f3
 5462 1766 05       		.uleb128 0x5
 5463 1767 03       		.byte	0x3
 5464 1768 00000000 		.4byte	_ZN10I2C_device9reply_pubE
 5465 176c 4B       		.uleb128 0x4b
 5466 176d 020A0000 		.4byte	0xa02
 5467 1771 05       		.uleb128 0x5
 5468 1772 03       		.byte	0x3
 5469 1773 00000000 		.4byte	_ZN10I2C_device7i2caddrE
 5470 1777 4B       		.uleb128 0x4b
 5471 1778 110A0000 		.4byte	0xa11
 5472 177c 05       		.uleb128 0x5
 5473 177d 03       		.byte	0x3
 5474 177e 00000000 		.4byte	_ZN10I2C_device18max_readback_bytesE
 5475 1782 4B       		.uleb128 0x4b
 5476 1783 200A0000 		.4byte	0xa20
 5477 1787 05       		.uleb128 0x5
 5478 1788 03       		.byte	0x3
 5479 1789 00000000 		.4byte	_ZN10I2C_device5stateE
 5480 178d 4B       		.uleb128 0x4b
 5481 178e 2F0A0000 		.4byte	0xa2f
 5482 1792 05       		.uleb128 0x5
 5483 1793 03       		.byte	0x3
 5484 1794 00000000 		.4byte	_ZN10I2C_device9cmd_sub_wE
 5485 1798 4B       		.uleb128 0x4b
 5486 1799 3E0A0000 		.4byte	0xa3e
 5487 179d 05       		.uleb128 0x5
 5488 179e 03       		.byte	0x3
 5489 179f 00000000 		.4byte	_ZN10I2C_device9cmd_sub_rE
 5490 17a3 4B       		.uleb128 0x4b
 5491 17a4 4D0A0000 		.4byte	0xa4d
 5492 17a8 05       		.uleb128 0x5
 5493 17a9 03       		.byte	0x3
 5494 17aa 00000000 		.4byte	_ZN10I2C_device7cmd_dimE
 5495 17ae 4B       		.uleb128 0x4b
 5496 17af 5C0A0000 		.4byte	0xa5c
 5497 17b3 05       		.uleb128 0x5
 5498 17b4 03       		.byte	0x3
 5499 17b5 00000000 		.4byte	_ZN10I2C_device8cmd_dataE
 5500 17b9 4C       		.uleb128 0x4c
ARM GAS  C:\Users\Chuck\AppData\Local\Temp\ccNCRqO6.s 			page 115


 5501 17ba DC000000 		.4byte	0xdc
 5502 17be C9170000 		.4byte	0x17c9
 5503 17c2 4D       		.uleb128 0x4d
 5504 17c3 E3000000 		.4byte	0xe3
 5505 17c7 1B       		.byte	0x1b
 5506 17c8 00       		.byte	0
 5507 17c9 07       		.uleb128 0x7
 5508 17ca B9170000 		.4byte	0x17b9
 5509 17ce 4B       		.uleb128 0x4b
 5510 17cf D4070000 		.4byte	0x7d4
 5511 17d3 05       		.uleb128 0x5
 5512 17d4 03       		.byte	0x3
 5513 17d5 F4000000 		.4byte	_ZN14rosserial_msgsL12REQUESTPARAME
 5514 17d9 00       		.byte	0
 5515              		.section	.debug_abbrev,"",%progbits
 5516              	.Ldebug_abbrev0:
 5517 0000 01       		.uleb128 0x1
 5518 0001 11       		.uleb128 0x11
 5519 0002 01       		.byte	0x1
 5520 0003 25       		.uleb128 0x25
 5521 0004 0E       		.uleb128 0xe
 5522 0005 13       		.uleb128 0x13
 5523 0006 0B       		.uleb128 0xb
 5524 0007 03       		.uleb128 0x3
 5525 0008 0E       		.uleb128 0xe
 5526 0009 1B       		.uleb128 0x1b
 5527 000a 0E       		.uleb128 0xe
 5528 000b 55       		.uleb128 0x55
 5529 000c 17       		.uleb128 0x17
 5530 000d 11       		.uleb128 0x11
 5531 000e 01       		.uleb128 0x1
 5532 000f 10       		.uleb128 0x10
 5533 0010 17       		.uleb128 0x17
 5534 0011 00       		.byte	0
 5535 0012 00       		.byte	0
 5536 0013 02       		.uleb128 0x2
 5537 0014 24       		.uleb128 0x24
 5538 0015 00       		.byte	0
 5539 0016 0B       		.uleb128 0xb
 5540 0017 0B       		.uleb128 0xb
 5541 0018 3E       		.uleb128 0x3e
 5542 0019 0B       		.uleb128 0xb
 5543 001a 03       		.uleb128 0x3
 5544 001b 0E       		.uleb128 0xe
 5545 001c 00       		.byte	0
 5546 001d 00       		.byte	0
 5547 001e 03       		.uleb128 0x3
 5548 001f 16       		.uleb128 0x16
 5549 0020 00       		.byte	0
 5550 0021 03       		.uleb128 0x3
 5551 0022 0E       		.uleb128 0xe
 5552 0023 3A       		.uleb128 0x3a
 5553 0024 0B       		.uleb128 0xb
 5554 0025 3B       		.uleb128 0x3b
 5555 0026 0B       		.uleb128 0xb
 5556 0027 49       		.uleb128 0x49
 5557 0028 13       		.uleb128 0x13
ARM GAS  C:\Users\Chuck\AppData\Local\Temp\ccNCRqO6.s 			page 116


 5558 0029 00       		.byte	0
 5559 002a 00       		.byte	0
 5560 002b 04       		.uleb128 0x4
 5561 002c 24       		.uleb128 0x24
 5562 002d 00       		.byte	0
 5563 002e 0B       		.uleb128 0xb
 5564 002f 0B       		.uleb128 0xb
 5565 0030 3E       		.uleb128 0x3e
 5566 0031 0B       		.uleb128 0xb
 5567 0032 03       		.uleb128 0x3
 5568 0033 08       		.uleb128 0x8
 5569 0034 00       		.byte	0
 5570 0035 00       		.byte	0
 5571 0036 05       		.uleb128 0x5
 5572 0037 0F       		.uleb128 0xf
 5573 0038 00       		.byte	0
 5574 0039 0B       		.uleb128 0xb
 5575 003a 0B       		.uleb128 0xb
 5576 003b 00       		.byte	0
 5577 003c 00       		.byte	0
 5578 003d 06       		.uleb128 0x6
 5579 003e 0F       		.uleb128 0xf
 5580 003f 00       		.byte	0
 5581 0040 0B       		.uleb128 0xb
 5582 0041 0B       		.uleb128 0xb
 5583 0042 49       		.uleb128 0x49
 5584 0043 13       		.uleb128 0x13
 5585 0044 00       		.byte	0
 5586 0045 00       		.byte	0
 5587 0046 07       		.uleb128 0x7
 5588 0047 26       		.uleb128 0x26
 5589 0048 00       		.byte	0
 5590 0049 49       		.uleb128 0x49
 5591 004a 13       		.uleb128 0x13
 5592 004b 00       		.byte	0
 5593 004c 00       		.byte	0
 5594 004d 08       		.uleb128 0x8
 5595 004e 39       		.uleb128 0x39
 5596 004f 01       		.byte	0x1
 5597 0050 03       		.uleb128 0x3
 5598 0051 08       		.uleb128 0x8
 5599 0052 3A       		.uleb128 0x3a
 5600 0053 0B       		.uleb128 0xb
 5601 0054 3B       		.uleb128 0x3b
 5602 0055 0B       		.uleb128 0xb
 5603 0056 01       		.uleb128 0x1
 5604 0057 13       		.uleb128 0x13
 5605 0058 00       		.byte	0
 5606 0059 00       		.byte	0
 5607 005a 09       		.uleb128 0x9
 5608 005b 02       		.uleb128 0x2
 5609 005c 01       		.byte	0x1
 5610 005d 03       		.uleb128 0x3
 5611 005e 0E       		.uleb128 0xe
 5612 005f 0B       		.uleb128 0xb
 5613 0060 0B       		.uleb128 0xb
 5614 0061 3A       		.uleb128 0x3a
ARM GAS  C:\Users\Chuck\AppData\Local\Temp\ccNCRqO6.s 			page 117


 5615 0062 0B       		.uleb128 0xb
 5616 0063 3B       		.uleb128 0x3b
 5617 0064 0B       		.uleb128 0xb
 5618 0065 01       		.uleb128 0x1
 5619 0066 13       		.uleb128 0x13
 5620 0067 00       		.byte	0
 5621 0068 00       		.byte	0
 5622 0069 0A       		.uleb128 0xa
 5623 006a 0D       		.uleb128 0xd
 5624 006b 00       		.byte	0
 5625 006c 03       		.uleb128 0x3
 5626 006d 0E       		.uleb128 0xe
 5627 006e 3A       		.uleb128 0x3a
 5628 006f 0B       		.uleb128 0xb
 5629 0070 3B       		.uleb128 0x3b
 5630 0071 0B       		.uleb128 0xb
 5631 0072 49       		.uleb128 0x49
 5632 0073 13       		.uleb128 0x13
 5633 0074 38       		.uleb128 0x38
 5634 0075 0B       		.uleb128 0xb
 5635 0076 32       		.uleb128 0x32
 5636 0077 0B       		.uleb128 0xb
 5637 0078 00       		.byte	0
 5638 0079 00       		.byte	0
 5639 007a 0B       		.uleb128 0xb
 5640 007b 0D       		.uleb128 0xd
 5641 007c 00       		.byte	0
 5642 007d 03       		.uleb128 0x3
 5643 007e 08       		.uleb128 0x8
 5644 007f 3A       		.uleb128 0x3a
 5645 0080 0B       		.uleb128 0xb
 5646 0081 3B       		.uleb128 0x3b
 5647 0082 0B       		.uleb128 0xb
 5648 0083 49       		.uleb128 0x49
 5649 0084 13       		.uleb128 0x13
 5650 0085 38       		.uleb128 0x38
 5651 0086 0B       		.uleb128 0xb
 5652 0087 32       		.uleb128 0x32
 5653 0088 0B       		.uleb128 0xb
 5654 0089 00       		.byte	0
 5655 008a 00       		.byte	0
 5656 008b 0C       		.uleb128 0xc
 5657 008c 0D       		.uleb128 0xd
 5658 008d 00       		.byte	0
 5659 008e 03       		.uleb128 0x3
 5660 008f 0E       		.uleb128 0xe
 5661 0090 3A       		.uleb128 0x3a
 5662 0091 0B       		.uleb128 0xb
 5663 0092 3B       		.uleb128 0x3b
 5664 0093 0B       		.uleb128 0xb
 5665 0094 49       		.uleb128 0x49
 5666 0095 13       		.uleb128 0x13
 5667 0096 38       		.uleb128 0x38
 5668 0097 0B       		.uleb128 0xb
 5669 0098 00       		.byte	0
 5670 0099 00       		.byte	0
 5671 009a 0D       		.uleb128 0xd
ARM GAS  C:\Users\Chuck\AppData\Local\Temp\ccNCRqO6.s 			page 118


 5672 009b 2E       		.uleb128 0x2e
 5673 009c 01       		.byte	0x1
 5674 009d 3F       		.uleb128 0x3f
 5675 009e 19       		.uleb128 0x19
 5676 009f 03       		.uleb128 0x3
 5677 00a0 0E       		.uleb128 0xe
 5678 00a1 3A       		.uleb128 0x3a
 5679 00a2 0B       		.uleb128 0xb
 5680 00a3 3B       		.uleb128 0x3b
 5681 00a4 0B       		.uleb128 0xb
 5682 00a5 49       		.uleb128 0x49
 5683 00a6 13       		.uleb128 0x13
 5684 00a7 32       		.uleb128 0x32
 5685 00a8 0B       		.uleb128 0xb
 5686 00a9 3C       		.uleb128 0x3c
 5687 00aa 19       		.uleb128 0x19
 5688 00ab 64       		.uleb128 0x64
 5689 00ac 13       		.uleb128 0x13
 5690 00ad 01       		.uleb128 0x1
 5691 00ae 13       		.uleb128 0x13
 5692 00af 00       		.byte	0
 5693 00b0 00       		.byte	0
 5694 00b1 0E       		.uleb128 0xe
 5695 00b2 05       		.uleb128 0x5
 5696 00b3 00       		.byte	0
 5697 00b4 49       		.uleb128 0x49
 5698 00b5 13       		.uleb128 0x13
 5699 00b6 34       		.uleb128 0x34
 5700 00b7 19       		.uleb128 0x19
 5701 00b8 00       		.byte	0
 5702 00b9 00       		.byte	0
 5703 00ba 0F       		.uleb128 0xf
 5704 00bb 05       		.uleb128 0x5
 5705 00bc 00       		.byte	0
 5706 00bd 49       		.uleb128 0x49
 5707 00be 13       		.uleb128 0x13
 5708 00bf 00       		.byte	0
 5709 00c0 00       		.byte	0
 5710 00c1 10       		.uleb128 0x10
 5711 00c2 2E       		.uleb128 0x2e
 5712 00c3 01       		.byte	0x1
 5713 00c4 3F       		.uleb128 0x3f
 5714 00c5 19       		.uleb128 0x19
 5715 00c6 03       		.uleb128 0x3
 5716 00c7 0E       		.uleb128 0xe
 5717 00c8 3A       		.uleb128 0x3a
 5718 00c9 0B       		.uleb128 0xb
 5719 00ca 3B       		.uleb128 0x3b
 5720 00cb 0B       		.uleb128 0xb
 5721 00cc 6E       		.uleb128 0x6e
 5722 00cd 0E       		.uleb128 0xe
 5723 00ce 49       		.uleb128 0x49
 5724 00cf 13       		.uleb128 0x13
 5725 00d0 32       		.uleb128 0x32
 5726 00d1 0B       		.uleb128 0xb
 5727 00d2 3C       		.uleb128 0x3c
 5728 00d3 19       		.uleb128 0x19
ARM GAS  C:\Users\Chuck\AppData\Local\Temp\ccNCRqO6.s 			page 119


 5729 00d4 64       		.uleb128 0x64
 5730 00d5 13       		.uleb128 0x13
 5731 00d6 01       		.uleb128 0x1
 5732 00d7 13       		.uleb128 0x13
 5733 00d8 00       		.byte	0
 5734 00d9 00       		.byte	0
 5735 00da 11       		.uleb128 0x11
 5736 00db 2E       		.uleb128 0x2e
 5737 00dc 01       		.byte	0x1
 5738 00dd 3F       		.uleb128 0x3f
 5739 00de 19       		.uleb128 0x19
 5740 00df 03       		.uleb128 0x3
 5741 00e0 0E       		.uleb128 0xe
 5742 00e1 3A       		.uleb128 0x3a
 5743 00e2 0B       		.uleb128 0xb
 5744 00e3 3B       		.uleb128 0x3b
 5745 00e4 0B       		.uleb128 0xb
 5746 00e5 6E       		.uleb128 0x6e
 5747 00e6 0E       		.uleb128 0xe
 5748 00e7 49       		.uleb128 0x49
 5749 00e8 13       		.uleb128 0x13
 5750 00e9 32       		.uleb128 0x32
 5751 00ea 0B       		.uleb128 0xb
 5752 00eb 3C       		.uleb128 0x3c
 5753 00ec 19       		.uleb128 0x19
 5754 00ed 64       		.uleb128 0x64
 5755 00ee 13       		.uleb128 0x13
 5756 00ef 00       		.byte	0
 5757 00f0 00       		.byte	0
 5758 00f1 12       		.uleb128 0x12
 5759 00f2 02       		.uleb128 0x2
 5760 00f3 01       		.byte	0x1
 5761 00f4 03       		.uleb128 0x3
 5762 00f5 08       		.uleb128 0x8
 5763 00f6 0B       		.uleb128 0xb
 5764 00f7 0B       		.uleb128 0xb
 5765 00f8 3A       		.uleb128 0x3a
 5766 00f9 0B       		.uleb128 0xb
 5767 00fa 3B       		.uleb128 0x3b
 5768 00fb 0B       		.uleb128 0xb
 5769 00fc 1D       		.uleb128 0x1d
 5770 00fd 13       		.uleb128 0x13
 5771 00fe 01       		.uleb128 0x1
 5772 00ff 13       		.uleb128 0x13
 5773 0100 00       		.byte	0
 5774 0101 00       		.byte	0
 5775 0102 13       		.uleb128 0x13
 5776 0103 0D       		.uleb128 0xd
 5777 0104 00       		.byte	0
 5778 0105 03       		.uleb128 0x3
 5779 0106 0E       		.uleb128 0xe
 5780 0107 49       		.uleb128 0x49
 5781 0108 13       		.uleb128 0x13
 5782 0109 38       		.uleb128 0x38
 5783 010a 0B       		.uleb128 0xb
 5784 010b 34       		.uleb128 0x34
 5785 010c 19       		.uleb128 0x19
ARM GAS  C:\Users\Chuck\AppData\Local\Temp\ccNCRqO6.s 			page 120


 5786 010d 32       		.uleb128 0x32
 5787 010e 0B       		.uleb128 0xb
 5788 010f 00       		.byte	0
 5789 0110 00       		.byte	0
 5790 0111 14       		.uleb128 0x14
 5791 0112 2E       		.uleb128 0x2e
 5792 0113 01       		.byte	0x1
 5793 0114 3F       		.uleb128 0x3f
 5794 0115 19       		.uleb128 0x19
 5795 0116 03       		.uleb128 0x3
 5796 0117 0E       		.uleb128 0xe
 5797 0118 49       		.uleb128 0x49
 5798 0119 13       		.uleb128 0x13
 5799 011a 34       		.uleb128 0x34
 5800 011b 19       		.uleb128 0x19
 5801 011c 32       		.uleb128 0x32
 5802 011d 0B       		.uleb128 0xb
 5803 011e 3C       		.uleb128 0x3c
 5804 011f 19       		.uleb128 0x19
 5805 0120 64       		.uleb128 0x64
 5806 0121 13       		.uleb128 0x13
 5807 0122 01       		.uleb128 0x1
 5808 0123 13       		.uleb128 0x13
 5809 0124 00       		.byte	0
 5810 0125 00       		.byte	0
 5811 0126 15       		.uleb128 0x15
 5812 0127 2E       		.uleb128 0x2e
 5813 0128 01       		.byte	0x1
 5814 0129 3F       		.uleb128 0x3f
 5815 012a 19       		.uleb128 0x19
 5816 012b 03       		.uleb128 0x3
 5817 012c 08       		.uleb128 0x8
 5818 012d 49       		.uleb128 0x49
 5819 012e 13       		.uleb128 0x13
 5820 012f 34       		.uleb128 0x34
 5821 0130 19       		.uleb128 0x19
 5822 0131 32       		.uleb128 0x32
 5823 0132 0B       		.uleb128 0xb
 5824 0133 3C       		.uleb128 0x3c
 5825 0134 19       		.uleb128 0x19
 5826 0135 64       		.uleb128 0x64
 5827 0136 13       		.uleb128 0x13
 5828 0137 01       		.uleb128 0x1
 5829 0138 13       		.uleb128 0x13
 5830 0139 00       		.byte	0
 5831 013a 00       		.byte	0
 5832 013b 16       		.uleb128 0x16
 5833 013c 2E       		.uleb128 0x2e
 5834 013d 01       		.byte	0x1
 5835 013e 3F       		.uleb128 0x3f
 5836 013f 19       		.uleb128 0x19
 5837 0140 03       		.uleb128 0x3
 5838 0141 0E       		.uleb128 0xe
 5839 0142 3A       		.uleb128 0x3a
 5840 0143 0B       		.uleb128 0xb
 5841 0144 3B       		.uleb128 0x3b
 5842 0145 0B       		.uleb128 0xb
ARM GAS  C:\Users\Chuck\AppData\Local\Temp\ccNCRqO6.s 			page 121


 5843 0146 6E       		.uleb128 0x6e
 5844 0147 0E       		.uleb128 0xe
 5845 0148 49       		.uleb128 0x49
 5846 0149 13       		.uleb128 0x13
 5847 014a 4C       		.uleb128 0x4c
 5848 014b 0B       		.uleb128 0xb
 5849 014c 4D       		.uleb128 0x4d
 5850 014d 18       		.uleb128 0x18
 5851 014e 1D       		.uleb128 0x1d
 5852 014f 13       		.uleb128 0x13
 5853 0150 32       		.uleb128 0x32
 5854 0151 0B       		.uleb128 0xb
 5855 0152 3C       		.uleb128 0x3c
 5856 0153 19       		.uleb128 0x19
 5857 0154 64       		.uleb128 0x64
 5858 0155 13       		.uleb128 0x13
 5859 0156 01       		.uleb128 0x1
 5860 0157 13       		.uleb128 0x13
 5861 0158 00       		.byte	0
 5862 0159 00       		.byte	0
 5863 015a 17       		.uleb128 0x17
 5864 015b 2E       		.uleb128 0x2e
 5865 015c 01       		.byte	0x1
 5866 015d 3F       		.uleb128 0x3f
 5867 015e 19       		.uleb128 0x19
 5868 015f 03       		.uleb128 0x3
 5869 0160 0E       		.uleb128 0xe
 5870 0161 3A       		.uleb128 0x3a
 5871 0162 0B       		.uleb128 0xb
 5872 0163 3B       		.uleb128 0x3b
 5873 0164 0B       		.uleb128 0xb
 5874 0165 6E       		.uleb128 0x6e
 5875 0166 0E       		.uleb128 0xe
 5876 0167 49       		.uleb128 0x49
 5877 0168 13       		.uleb128 0x13
 5878 0169 32       		.uleb128 0x32
 5879 016a 0B       		.uleb128 0xb
 5880 016b 3C       		.uleb128 0x3c
 5881 016c 19       		.uleb128 0x19
 5882 016d 01       		.uleb128 0x1
 5883 016e 13       		.uleb128 0x13
 5884 016f 00       		.byte	0
 5885 0170 00       		.byte	0
 5886 0171 18       		.uleb128 0x18
 5887 0172 2E       		.uleb128 0x2e
 5888 0173 01       		.byte	0x1
 5889 0174 3F       		.uleb128 0x3f
 5890 0175 19       		.uleb128 0x19
 5891 0176 03       		.uleb128 0x3
 5892 0177 0E       		.uleb128 0xe
 5893 0178 3A       		.uleb128 0x3a
 5894 0179 0B       		.uleb128 0xb
 5895 017a 3B       		.uleb128 0x3b
 5896 017b 0B       		.uleb128 0xb
 5897 017c 6E       		.uleb128 0x6e
 5898 017d 0E       		.uleb128 0xe
 5899 017e 49       		.uleb128 0x49
ARM GAS  C:\Users\Chuck\AppData\Local\Temp\ccNCRqO6.s 			page 122


 5900 017f 13       		.uleb128 0x13
 5901 0180 32       		.uleb128 0x32
 5902 0181 0B       		.uleb128 0xb
 5903 0182 3C       		.uleb128 0x3c
 5904 0183 19       		.uleb128 0x19
 5905 0184 00       		.byte	0
 5906 0185 00       		.byte	0
 5907 0186 19       		.uleb128 0x19
 5908 0187 02       		.uleb128 0x2
 5909 0188 00       		.byte	0
 5910 0189 03       		.uleb128 0x3
 5911 018a 0E       		.uleb128 0xe
 5912 018b 3C       		.uleb128 0x3c
 5913 018c 19       		.uleb128 0x19
 5914 018d 00       		.byte	0
 5915 018e 00       		.byte	0
 5916 018f 1A       		.uleb128 0x1a
 5917 0190 08       		.uleb128 0x8
 5918 0191 00       		.byte	0
 5919 0192 3A       		.uleb128 0x3a
 5920 0193 0B       		.uleb128 0xb
 5921 0194 3B       		.uleb128 0x3b
 5922 0195 0B       		.uleb128 0xb
 5923 0196 18       		.uleb128 0x18
 5924 0197 13       		.uleb128 0x13
 5925 0198 00       		.byte	0
 5926 0199 00       		.byte	0
 5927 019a 1B       		.uleb128 0x1b
 5928 019b 02       		.uleb128 0x2
 5929 019c 01       		.byte	0x1
 5930 019d 03       		.uleb128 0x3
 5931 019e 0E       		.uleb128 0xe
 5932 019f 0B       		.uleb128 0xb
 5933 01a0 0B       		.uleb128 0xb
 5934 01a1 3A       		.uleb128 0x3a
 5935 01a2 0B       		.uleb128 0xb
 5936 01a3 3B       		.uleb128 0x3b
 5937 01a4 0B       		.uleb128 0xb
 5938 01a5 1D       		.uleb128 0x1d
 5939 01a6 13       		.uleb128 0x13
 5940 01a7 01       		.uleb128 0x1
 5941 01a8 13       		.uleb128 0x13
 5942 01a9 00       		.byte	0
 5943 01aa 00       		.byte	0
 5944 01ab 1C       		.uleb128 0x1c
 5945 01ac 1C       		.uleb128 0x1c
 5946 01ad 00       		.byte	0
 5947 01ae 49       		.uleb128 0x49
 5948 01af 13       		.uleb128 0x13
 5949 01b0 38       		.uleb128 0x38
 5950 01b1 0B       		.uleb128 0xb
 5951 01b2 32       		.uleb128 0x32
 5952 01b3 0B       		.uleb128 0xb
 5953 01b4 00       		.byte	0
 5954 01b5 00       		.byte	0
 5955 01b6 1D       		.uleb128 0x1d
 5956 01b7 16       		.uleb128 0x16
ARM GAS  C:\Users\Chuck\AppData\Local\Temp\ccNCRqO6.s 			page 123


 5957 01b8 00       		.byte	0
 5958 01b9 03       		.uleb128 0x3
 5959 01ba 0E       		.uleb128 0xe
 5960 01bb 3A       		.uleb128 0x3a
 5961 01bc 0B       		.uleb128 0xb
 5962 01bd 3B       		.uleb128 0x3b
 5963 01be 0B       		.uleb128 0xb
 5964 01bf 49       		.uleb128 0x49
 5965 01c0 13       		.uleb128 0x13
 5966 01c1 32       		.uleb128 0x32
 5967 01c2 0B       		.uleb128 0xb
 5968 01c3 00       		.byte	0
 5969 01c4 00       		.byte	0
 5970 01c5 1E       		.uleb128 0x1e
 5971 01c6 2E       		.uleb128 0x2e
 5972 01c7 01       		.byte	0x1
 5973 01c8 3F       		.uleb128 0x3f
 5974 01c9 19       		.uleb128 0x19
 5975 01ca 03       		.uleb128 0x3
 5976 01cb 0E       		.uleb128 0xe
 5977 01cc 3A       		.uleb128 0x3a
 5978 01cd 0B       		.uleb128 0xb
 5979 01ce 3B       		.uleb128 0x3b
 5980 01cf 0B       		.uleb128 0xb
 5981 01d0 6E       		.uleb128 0x6e
 5982 01d1 0E       		.uleb128 0xe
 5983 01d2 4C       		.uleb128 0x4c
 5984 01d3 0B       		.uleb128 0xb
 5985 01d4 4D       		.uleb128 0x4d
 5986 01d5 18       		.uleb128 0x18
 5987 01d6 1D       		.uleb128 0x1d
 5988 01d7 13       		.uleb128 0x13
 5989 01d8 32       		.uleb128 0x32
 5990 01d9 0B       		.uleb128 0xb
 5991 01da 3C       		.uleb128 0x3c
 5992 01db 19       		.uleb128 0x19
 5993 01dc 64       		.uleb128 0x64
 5994 01dd 13       		.uleb128 0x13
 5995 01de 01       		.uleb128 0x1
 5996 01df 13       		.uleb128 0x13
 5997 01e0 00       		.byte	0
 5998 01e1 00       		.byte	0
 5999 01e2 1F       		.uleb128 0x1f
 6000 01e3 2F       		.uleb128 0x2f
 6001 01e4 00       		.byte	0
 6002 01e5 03       		.uleb128 0x3
 6003 01e6 0E       		.uleb128 0xe
 6004 01e7 49       		.uleb128 0x49
 6005 01e8 13       		.uleb128 0x13
 6006 01e9 00       		.byte	0
 6007 01ea 00       		.byte	0
 6008 01eb 20       		.uleb128 0x20
 6009 01ec 2E       		.uleb128 0x2e
 6010 01ed 01       		.byte	0x1
 6011 01ee 3F       		.uleb128 0x3f
 6012 01ef 19       		.uleb128 0x19
 6013 01f0 03       		.uleb128 0x3
ARM GAS  C:\Users\Chuck\AppData\Local\Temp\ccNCRqO6.s 			page 124


 6014 01f1 0E       		.uleb128 0xe
 6015 01f2 3A       		.uleb128 0x3a
 6016 01f3 0B       		.uleb128 0xb
 6017 01f4 3B       		.uleb128 0x3b
 6018 01f5 0B       		.uleb128 0xb
 6019 01f6 6E       		.uleb128 0x6e
 6020 01f7 0E       		.uleb128 0xe
 6021 01f8 49       		.uleb128 0x49
 6022 01f9 13       		.uleb128 0x13
 6023 01fa 4C       		.uleb128 0x4c
 6024 01fb 0B       		.uleb128 0xb
 6025 01fc 4D       		.uleb128 0x4d
 6026 01fd 18       		.uleb128 0x18
 6027 01fe 1D       		.uleb128 0x1d
 6028 01ff 13       		.uleb128 0x13
 6029 0200 32       		.uleb128 0x32
 6030 0201 0B       		.uleb128 0xb
 6031 0202 3C       		.uleb128 0x3c
 6032 0203 19       		.uleb128 0x19
 6033 0204 64       		.uleb128 0x64
 6034 0205 13       		.uleb128 0x13
 6035 0206 00       		.byte	0
 6036 0207 00       		.byte	0
 6037 0208 21       		.uleb128 0x21
 6038 0209 02       		.uleb128 0x2
 6039 020a 01       		.byte	0x1
 6040 020b 03       		.uleb128 0x3
 6041 020c 0E       		.uleb128 0xe
 6042 020d 3C       		.uleb128 0x3c
 6043 020e 19       		.uleb128 0x19
 6044 020f 01       		.uleb128 0x1
 6045 0210 13       		.uleb128 0x13
 6046 0211 00       		.byte	0
 6047 0212 00       		.byte	0
 6048 0213 22       		.uleb128 0x22
 6049 0214 2E       		.uleb128 0x2e
 6050 0215 01       		.byte	0x1
 6051 0216 3F       		.uleb128 0x3f
 6052 0217 19       		.uleb128 0x19
 6053 0218 03       		.uleb128 0x3
 6054 0219 0E       		.uleb128 0xe
 6055 021a 3A       		.uleb128 0x3a
 6056 021b 0B       		.uleb128 0xb
 6057 021c 3B       		.uleb128 0x3b
 6058 021d 05       		.uleb128 0x5
 6059 021e 6E       		.uleb128 0x6e
 6060 021f 0E       		.uleb128 0xe
 6061 0220 49       		.uleb128 0x49
 6062 0221 13       		.uleb128 0x13
 6063 0222 32       		.uleb128 0x32
 6064 0223 0B       		.uleb128 0xb
 6065 0224 3C       		.uleb128 0x3c
 6066 0225 19       		.uleb128 0x19
 6067 0226 64       		.uleb128 0x64
 6068 0227 13       		.uleb128 0x13
 6069 0228 01       		.uleb128 0x1
 6070 0229 13       		.uleb128 0x13
ARM GAS  C:\Users\Chuck\AppData\Local\Temp\ccNCRqO6.s 			page 125


 6071 022a 00       		.byte	0
 6072 022b 00       		.byte	0
 6073 022c 23       		.uleb128 0x23
 6074 022d 30       		.uleb128 0x30
 6075 022e 00       		.byte	0
 6076 022f 03       		.uleb128 0x3
 6077 0230 0E       		.uleb128 0xe
 6078 0231 49       		.uleb128 0x49
 6079 0232 13       		.uleb128 0x13
 6080 0233 1C       		.uleb128 0x1c
 6081 0234 0B       		.uleb128 0xb
 6082 0235 00       		.byte	0
 6083 0236 00       		.byte	0
 6084 0237 24       		.uleb128 0x24
 6085 0238 39       		.uleb128 0x39
 6086 0239 01       		.byte	0x1
 6087 023a 03       		.uleb128 0x3
 6088 023b 0E       		.uleb128 0xe
 6089 023c 3A       		.uleb128 0x3a
 6090 023d 0B       		.uleb128 0xb
 6091 023e 3B       		.uleb128 0x3b
 6092 023f 0B       		.uleb128 0xb
 6093 0240 01       		.uleb128 0x1
 6094 0241 13       		.uleb128 0x13
 6095 0242 00       		.byte	0
 6096 0243 00       		.byte	0
 6097 0244 25       		.uleb128 0x25
 6098 0245 04       		.uleb128 0x4
 6099 0246 01       		.byte	0x1
 6100 0247 0B       		.uleb128 0xb
 6101 0248 0B       		.uleb128 0xb
 6102 0249 3A       		.uleb128 0x3a
 6103 024a 0B       		.uleb128 0xb
 6104 024b 3B       		.uleb128 0x3b
 6105 024c 0B       		.uleb128 0xb
 6106 024d 32       		.uleb128 0x32
 6107 024e 0B       		.uleb128 0xb
 6108 024f 01       		.uleb128 0x1
 6109 0250 13       		.uleb128 0x13
 6110 0251 00       		.byte	0
 6111 0252 00       		.byte	0
 6112 0253 26       		.uleb128 0x26
 6113 0254 28       		.uleb128 0x28
 6114 0255 00       		.byte	0
 6115 0256 03       		.uleb128 0x3
 6116 0257 0E       		.uleb128 0xe
 6117 0258 1C       		.uleb128 0x1c
 6118 0259 0D       		.uleb128 0xd
 6119 025a 00       		.byte	0
 6120 025b 00       		.byte	0
 6121 025c 27       		.uleb128 0x27
 6122 025d 34       		.uleb128 0x34
 6123 025e 00       		.byte	0
 6124 025f 03       		.uleb128 0x3
 6125 0260 0E       		.uleb128 0xe
 6126 0261 3A       		.uleb128 0x3a
 6127 0262 0B       		.uleb128 0xb
ARM GAS  C:\Users\Chuck\AppData\Local\Temp\ccNCRqO6.s 			page 126


 6128 0263 3B       		.uleb128 0x3b
 6129 0264 0B       		.uleb128 0xb
 6130 0265 49       		.uleb128 0x49
 6131 0266 13       		.uleb128 0x13
 6132 0267 3C       		.uleb128 0x3c
 6133 0268 19       		.uleb128 0x19
 6134 0269 1C       		.uleb128 0x1c
 6135 026a 0E       		.uleb128 0xe
 6136 026b 00       		.byte	0
 6137 026c 00       		.byte	0
 6138 026d 28       		.uleb128 0x28
 6139 026e 10       		.uleb128 0x10
 6140 026f 00       		.byte	0
 6141 0270 0B       		.uleb128 0xb
 6142 0271 0B       		.uleb128 0xb
 6143 0272 49       		.uleb128 0x49
 6144 0273 13       		.uleb128 0x13
 6145 0274 00       		.byte	0
 6146 0275 00       		.byte	0
 6147 0276 29       		.uleb128 0x29
 6148 0277 2E       		.uleb128 0x2e
 6149 0278 01       		.byte	0x1
 6150 0279 3F       		.uleb128 0x3f
 6151 027a 19       		.uleb128 0x19
 6152 027b 03       		.uleb128 0x3
 6153 027c 0E       		.uleb128 0xe
 6154 027d 3A       		.uleb128 0x3a
 6155 027e 0B       		.uleb128 0xb
 6156 027f 3B       		.uleb128 0x3b
 6157 0280 0B       		.uleb128 0xb
 6158 0281 6E       		.uleb128 0x6e
 6159 0282 0E       		.uleb128 0xe
 6160 0283 32       		.uleb128 0x32
 6161 0284 0B       		.uleb128 0xb
 6162 0285 3C       		.uleb128 0x3c
 6163 0286 19       		.uleb128 0x19
 6164 0287 64       		.uleb128 0x64
 6165 0288 13       		.uleb128 0x13
 6166 0289 01       		.uleb128 0x1
 6167 028a 13       		.uleb128 0x13
 6168 028b 00       		.byte	0
 6169 028c 00       		.byte	0
 6170 028d 2A       		.uleb128 0x2a
 6171 028e 04       		.uleb128 0x4
 6172 028f 01       		.byte	0x1
 6173 0290 03       		.uleb128 0x3
 6174 0291 0E       		.uleb128 0xe
 6175 0292 0B       		.uleb128 0xb
 6176 0293 0B       		.uleb128 0xb
 6177 0294 3A       		.uleb128 0x3a
 6178 0295 0B       		.uleb128 0xb
 6179 0296 3B       		.uleb128 0x3b
 6180 0297 0B       		.uleb128 0xb
 6181 0298 01       		.uleb128 0x1
 6182 0299 13       		.uleb128 0x13
 6183 029a 00       		.byte	0
 6184 029b 00       		.byte	0
ARM GAS  C:\Users\Chuck\AppData\Local\Temp\ccNCRqO6.s 			page 127


 6185 029c 2B       		.uleb128 0x2b
 6186 029d 2E       		.uleb128 0x2e
 6187 029e 01       		.byte	0x1
 6188 029f 3F       		.uleb128 0x3f
 6189 02a0 19       		.uleb128 0x19
 6190 02a1 03       		.uleb128 0x3
 6191 02a2 0E       		.uleb128 0xe
 6192 02a3 3A       		.uleb128 0x3a
 6193 02a4 0B       		.uleb128 0xb
 6194 02a5 3B       		.uleb128 0x3b
 6195 02a6 0B       		.uleb128 0xb
 6196 02a7 6E       		.uleb128 0x6e
 6197 02a8 0E       		.uleb128 0xe
 6198 02a9 3C       		.uleb128 0x3c
 6199 02aa 19       		.uleb128 0x19
 6200 02ab 01       		.uleb128 0x1
 6201 02ac 13       		.uleb128 0x13
 6202 02ad 00       		.byte	0
 6203 02ae 00       		.byte	0
 6204 02af 2C       		.uleb128 0x2c
 6205 02b0 2E       		.uleb128 0x2e
 6206 02b1 00       		.byte	0
 6207 02b2 3F       		.uleb128 0x3f
 6208 02b3 19       		.uleb128 0x19
 6209 02b4 03       		.uleb128 0x3
 6210 02b5 0E       		.uleb128 0xe
 6211 02b6 3A       		.uleb128 0x3a
 6212 02b7 0B       		.uleb128 0xb
 6213 02b8 3B       		.uleb128 0x3b
 6214 02b9 0B       		.uleb128 0xb
 6215 02ba 6E       		.uleb128 0x6e
 6216 02bb 0E       		.uleb128 0xe
 6217 02bc 3C       		.uleb128 0x3c
 6218 02bd 19       		.uleb128 0x19
 6219 02be 00       		.byte	0
 6220 02bf 00       		.byte	0
 6221 02c0 2D       		.uleb128 0x2d
 6222 02c1 34       		.uleb128 0x34
 6223 02c2 00       		.byte	0
 6224 02c3 03       		.uleb128 0x3
 6225 02c4 0E       		.uleb128 0xe
 6226 02c5 3A       		.uleb128 0x3a
 6227 02c6 0B       		.uleb128 0xb
 6228 02c7 3B       		.uleb128 0x3b
 6229 02c8 0B       		.uleb128 0xb
 6230 02c9 6E       		.uleb128 0x6e
 6231 02ca 0E       		.uleb128 0xe
 6232 02cb 49       		.uleb128 0x49
 6233 02cc 13       		.uleb128 0x13
 6234 02cd 3F       		.uleb128 0x3f
 6235 02ce 19       		.uleb128 0x19
 6236 02cf 3C       		.uleb128 0x3c
 6237 02d0 19       		.uleb128 0x19
 6238 02d1 00       		.byte	0
 6239 02d2 00       		.byte	0
 6240 02d3 2E       		.uleb128 0x2e
 6241 02d4 15       		.uleb128 0x15
ARM GAS  C:\Users\Chuck\AppData\Local\Temp\ccNCRqO6.s 			page 128


 6242 02d5 01       		.byte	0x1
 6243 02d6 01       		.uleb128 0x1
 6244 02d7 13       		.uleb128 0x13
 6245 02d8 00       		.byte	0
 6246 02d9 00       		.byte	0
 6247 02da 2F       		.uleb128 0x2f
 6248 02db 15       		.uleb128 0x15
 6249 02dc 01       		.byte	0x1
 6250 02dd 49       		.uleb128 0x49
 6251 02de 13       		.uleb128 0x13
 6252 02df 01       		.uleb128 0x1
 6253 02e0 13       		.uleb128 0x13
 6254 02e1 00       		.byte	0
 6255 02e2 00       		.byte	0
 6256 02e3 30       		.uleb128 0x30
 6257 02e4 18       		.uleb128 0x18
 6258 02e5 00       		.byte	0
 6259 02e6 00       		.byte	0
 6260 02e7 00       		.byte	0
 6261 02e8 31       		.uleb128 0x31
 6262 02e9 0F       		.uleb128 0xf
 6263 02ea 00       		.byte	0
 6264 02eb 0B       		.uleb128 0xb
 6265 02ec 0B       		.uleb128 0xb
 6266 02ed 03       		.uleb128 0x3
 6267 02ee 0E       		.uleb128 0xe
 6268 02ef 49       		.uleb128 0x49
 6269 02f0 13       		.uleb128 0x13
 6270 02f1 00       		.byte	0
 6271 02f2 00       		.byte	0
 6272 02f3 32       		.uleb128 0x32
 6273 02f4 2E       		.uleb128 0x2e
 6274 02f5 01       		.byte	0x1
 6275 02f6 47       		.uleb128 0x47
 6276 02f7 13       		.uleb128 0x13
 6277 02f8 3A       		.uleb128 0x3a
 6278 02f9 0B       		.uleb128 0xb
 6279 02fa 3B       		.uleb128 0x3b
 6280 02fb 0B       		.uleb128 0xb
 6281 02fc 20       		.uleb128 0x20
 6282 02fd 0B       		.uleb128 0xb
 6283 02fe 64       		.uleb128 0x64
 6284 02ff 13       		.uleb128 0x13
 6285 0300 01       		.uleb128 0x1
 6286 0301 13       		.uleb128 0x13
 6287 0302 00       		.byte	0
 6288 0303 00       		.byte	0
 6289 0304 33       		.uleb128 0x33
 6290 0305 05       		.uleb128 0x5
 6291 0306 00       		.byte	0
 6292 0307 03       		.uleb128 0x3
 6293 0308 0E       		.uleb128 0xe
 6294 0309 49       		.uleb128 0x49
 6295 030a 13       		.uleb128 0x13
 6296 030b 34       		.uleb128 0x34
 6297 030c 19       		.uleb128 0x19
 6298 030d 00       		.byte	0
ARM GAS  C:\Users\Chuck\AppData\Local\Temp\ccNCRqO6.s 			page 129


 6299 030e 00       		.byte	0
 6300 030f 34       		.uleb128 0x34
 6301 0310 2E       		.uleb128 0x2e
 6302 0311 01       		.byte	0x1
 6303 0312 31       		.uleb128 0x31
 6304 0313 13       		.uleb128 0x13
 6305 0314 6E       		.uleb128 0x6e
 6306 0315 0E       		.uleb128 0xe
 6307 0316 11       		.uleb128 0x11
 6308 0317 01       		.uleb128 0x1
 6309 0318 12       		.uleb128 0x12
 6310 0319 06       		.uleb128 0x6
 6311 031a 40       		.uleb128 0x40
 6312 031b 18       		.uleb128 0x18
 6313 031c 64       		.uleb128 0x64
 6314 031d 13       		.uleb128 0x13
 6315 031e 9742     		.uleb128 0x2117
 6316 0320 19       		.uleb128 0x19
 6317 0321 01       		.uleb128 0x1
 6318 0322 13       		.uleb128 0x13
 6319 0323 00       		.byte	0
 6320 0324 00       		.byte	0
 6321 0325 35       		.uleb128 0x35
 6322 0326 05       		.uleb128 0x5
 6323 0327 00       		.byte	0
 6324 0328 31       		.uleb128 0x31
 6325 0329 13       		.uleb128 0x13
 6326 032a 02       		.uleb128 0x2
 6327 032b 18       		.uleb128 0x18
 6328 032c 00       		.byte	0
 6329 032d 00       		.byte	0
 6330 032e 36       		.uleb128 0x36
 6331 032f 2E       		.uleb128 0x2e
 6332 0330 01       		.byte	0x1
 6333 0331 47       		.uleb128 0x47
 6334 0332 13       		.uleb128 0x13
 6335 0333 20       		.uleb128 0x20
 6336 0334 0B       		.uleb128 0xb
 6337 0335 64       		.uleb128 0x64
 6338 0336 13       		.uleb128 0x13
 6339 0337 01       		.uleb128 0x1
 6340 0338 13       		.uleb128 0x13
 6341 0339 00       		.byte	0
 6342 033a 00       		.byte	0
 6343 033b 37       		.uleb128 0x37
 6344 033c 05       		.uleb128 0x5
 6345 033d 00       		.byte	0
 6346 033e 03       		.uleb128 0x3
 6347 033f 0E       		.uleb128 0xe
 6348 0340 3A       		.uleb128 0x3a
 6349 0341 0B       		.uleb128 0xb
 6350 0342 3B       		.uleb128 0x3b
 6351 0343 0B       		.uleb128 0xb
 6352 0344 49       		.uleb128 0x49
 6353 0345 13       		.uleb128 0x13
 6354 0346 00       		.byte	0
 6355 0347 00       		.byte	0
ARM GAS  C:\Users\Chuck\AppData\Local\Temp\ccNCRqO6.s 			page 130


 6356 0348 38       		.uleb128 0x38
 6357 0349 05       		.uleb128 0x5
 6358 034a 00       		.byte	0
 6359 034b 03       		.uleb128 0x3
 6360 034c 08       		.uleb128 0x8
 6361 034d 3A       		.uleb128 0x3a
 6362 034e 0B       		.uleb128 0xb
 6363 034f 3B       		.uleb128 0x3b
 6364 0350 0B       		.uleb128 0xb
 6365 0351 49       		.uleb128 0x49
 6366 0352 13       		.uleb128 0x13
 6367 0353 00       		.byte	0
 6368 0354 00       		.byte	0
 6369 0355 39       		.uleb128 0x39
 6370 0356 2E       		.uleb128 0x2e
 6371 0357 01       		.byte	0x1
 6372 0358 47       		.uleb128 0x47
 6373 0359 13       		.uleb128 0x13
 6374 035a 11       		.uleb128 0x11
 6375 035b 01       		.uleb128 0x1
 6376 035c 12       		.uleb128 0x12
 6377 035d 06       		.uleb128 0x6
 6378 035e 40       		.uleb128 0x40
 6379 035f 18       		.uleb128 0x18
 6380 0360 64       		.uleb128 0x64
 6381 0361 13       		.uleb128 0x13
 6382 0362 9642     		.uleb128 0x2116
 6383 0364 19       		.uleb128 0x19
 6384 0365 01       		.uleb128 0x1
 6385 0366 13       		.uleb128 0x13
 6386 0367 00       		.byte	0
 6387 0368 00       		.byte	0
 6388 0369 3A       		.uleb128 0x3a
 6389 036a 05       		.uleb128 0x5
 6390 036b 00       		.byte	0
 6391 036c 03       		.uleb128 0x3
 6392 036d 0E       		.uleb128 0xe
 6393 036e 49       		.uleb128 0x49
 6394 036f 13       		.uleb128 0x13
 6395 0370 34       		.uleb128 0x34
 6396 0371 19       		.uleb128 0x19
 6397 0372 02       		.uleb128 0x2
 6398 0373 18       		.uleb128 0x18
 6399 0374 00       		.byte	0
 6400 0375 00       		.byte	0
 6401 0376 3B       		.uleb128 0x3b
 6402 0377 05       		.uleb128 0x5
 6403 0378 00       		.byte	0
 6404 0379 03       		.uleb128 0x3
 6405 037a 08       		.uleb128 0x8
 6406 037b 3A       		.uleb128 0x3a
 6407 037c 0B       		.uleb128 0xb
 6408 037d 3B       		.uleb128 0x3b
 6409 037e 0B       		.uleb128 0xb
 6410 037f 49       		.uleb128 0x49
 6411 0380 13       		.uleb128 0x13
 6412 0381 02       		.uleb128 0x2
ARM GAS  C:\Users\Chuck\AppData\Local\Temp\ccNCRqO6.s 			page 131


 6413 0382 18       		.uleb128 0x18
 6414 0383 00       		.byte	0
 6415 0384 00       		.byte	0
 6416 0385 3C       		.uleb128 0x3c
 6417 0386 2E       		.uleb128 0x2e
 6418 0387 01       		.byte	0x1
 6419 0388 31       		.uleb128 0x31
 6420 0389 13       		.uleb128 0x13
 6421 038a 6E       		.uleb128 0x6e
 6422 038b 0E       		.uleb128 0xe
 6423 038c 11       		.uleb128 0x11
 6424 038d 01       		.uleb128 0x1
 6425 038e 12       		.uleb128 0x12
 6426 038f 06       		.uleb128 0x6
 6427 0390 40       		.uleb128 0x40
 6428 0391 18       		.uleb128 0x18
 6429 0392 64       		.uleb128 0x64
 6430 0393 13       		.uleb128 0x13
 6431 0394 9642     		.uleb128 0x2116
 6432 0396 19       		.uleb128 0x19
 6433 0397 01       		.uleb128 0x1
 6434 0398 13       		.uleb128 0x13
 6435 0399 00       		.byte	0
 6436 039a 00       		.byte	0
 6437 039b 3D       		.uleb128 0x3d
 6438 039c 05       		.uleb128 0x5
 6439 039d 00       		.byte	0
 6440 039e 03       		.uleb128 0x3
 6441 039f 0E       		.uleb128 0xe
 6442 03a0 3A       		.uleb128 0x3a
 6443 03a1 0B       		.uleb128 0xb
 6444 03a2 3B       		.uleb128 0x3b
 6445 03a3 0B       		.uleb128 0xb
 6446 03a4 49       		.uleb128 0x49
 6447 03a5 13       		.uleb128 0x13
 6448 03a6 02       		.uleb128 0x2
 6449 03a7 18       		.uleb128 0x18
 6450 03a8 00       		.byte	0
 6451 03a9 00       		.byte	0
 6452 03aa 3E       		.uleb128 0x3e
 6453 03ab 0B       		.uleb128 0xb
 6454 03ac 01       		.byte	0x1
 6455 03ad 11       		.uleb128 0x11
 6456 03ae 01       		.uleb128 0x1
 6457 03af 12       		.uleb128 0x12
 6458 03b0 06       		.uleb128 0x6
 6459 03b1 00       		.byte	0
 6460 03b2 00       		.byte	0
 6461 03b3 3F       		.uleb128 0x3f
 6462 03b4 34       		.uleb128 0x34
 6463 03b5 00       		.byte	0
 6464 03b6 03       		.uleb128 0x3
 6465 03b7 0E       		.uleb128 0xe
 6466 03b8 3A       		.uleb128 0x3a
 6467 03b9 0B       		.uleb128 0xb
 6468 03ba 3B       		.uleb128 0x3b
 6469 03bb 0B       		.uleb128 0xb
ARM GAS  C:\Users\Chuck\AppData\Local\Temp\ccNCRqO6.s 			page 132


 6470 03bc 49       		.uleb128 0x49
 6471 03bd 13       		.uleb128 0x13
 6472 03be 02       		.uleb128 0x2
 6473 03bf 18       		.uleb128 0x18
 6474 03c0 00       		.byte	0
 6475 03c1 00       		.byte	0
 6476 03c2 40       		.uleb128 0x40
 6477 03c3 34       		.uleb128 0x34
 6478 03c4 00       		.byte	0
 6479 03c5 03       		.uleb128 0x3
 6480 03c6 08       		.uleb128 0x8
 6481 03c7 3A       		.uleb128 0x3a
 6482 03c8 0B       		.uleb128 0xb
 6483 03c9 3B       		.uleb128 0x3b
 6484 03ca 0B       		.uleb128 0xb
 6485 03cb 49       		.uleb128 0x49
 6486 03cc 13       		.uleb128 0x13
 6487 03cd 02       		.uleb128 0x2
 6488 03ce 18       		.uleb128 0x18
 6489 03cf 00       		.byte	0
 6490 03d0 00       		.byte	0
 6491 03d1 41       		.uleb128 0x41
 6492 03d2 2E       		.uleb128 0x2e
 6493 03d3 01       		.byte	0x1
 6494 03d4 47       		.uleb128 0x47
 6495 03d5 13       		.uleb128 0x13
 6496 03d6 11       		.uleb128 0x11
 6497 03d7 01       		.uleb128 0x1
 6498 03d8 12       		.uleb128 0x12
 6499 03d9 06       		.uleb128 0x6
 6500 03da 40       		.uleb128 0x40
 6501 03db 18       		.uleb128 0x18
 6502 03dc 64       		.uleb128 0x64
 6503 03dd 13       		.uleb128 0x13
 6504 03de 9742     		.uleb128 0x2117
 6505 03e0 19       		.uleb128 0x19
 6506 03e1 01       		.uleb128 0x1
 6507 03e2 13       		.uleb128 0x13
 6508 03e3 00       		.byte	0
 6509 03e4 00       		.byte	0
 6510 03e5 42       		.uleb128 0x42
 6511 03e6 2E       		.uleb128 0x2e
 6512 03e7 01       		.byte	0x1
 6513 03e8 47       		.uleb128 0x47
 6514 03e9 13       		.uleb128 0x13
 6515 03ea 11       		.uleb128 0x11
 6516 03eb 01       		.uleb128 0x1
 6517 03ec 12       		.uleb128 0x12
 6518 03ed 06       		.uleb128 0x6
 6519 03ee 40       		.uleb128 0x40
 6520 03ef 18       		.uleb128 0x18
 6521 03f0 9642     		.uleb128 0x2116
 6522 03f2 19       		.uleb128 0x19
 6523 03f3 01       		.uleb128 0x1
 6524 03f4 13       		.uleb128 0x13
 6525 03f5 00       		.byte	0
 6526 03f6 00       		.byte	0
ARM GAS  C:\Users\Chuck\AppData\Local\Temp\ccNCRqO6.s 			page 133


 6527 03f7 43       		.uleb128 0x43
 6528 03f8 0B       		.uleb128 0xb
 6529 03f9 01       		.byte	0x1
 6530 03fa 11       		.uleb128 0x11
 6531 03fb 01       		.uleb128 0x1
 6532 03fc 12       		.uleb128 0x12
 6533 03fd 06       		.uleb128 0x6
 6534 03fe 01       		.uleb128 0x1
 6535 03ff 13       		.uleb128 0x13
 6536 0400 00       		.byte	0
 6537 0401 00       		.byte	0
 6538 0402 44       		.uleb128 0x44
 6539 0403 2E       		.uleb128 0x2e
 6540 0404 00       		.byte	0
 6541 0405 47       		.uleb128 0x47
 6542 0406 13       		.uleb128 0x13
 6543 0407 11       		.uleb128 0x11
 6544 0408 01       		.uleb128 0x1
 6545 0409 12       		.uleb128 0x12
 6546 040a 06       		.uleb128 0x6
 6547 040b 40       		.uleb128 0x40
 6548 040c 18       		.uleb128 0x18
 6549 040d 9642     		.uleb128 0x2116
 6550 040f 19       		.uleb128 0x19
 6551 0410 00       		.byte	0
 6552 0411 00       		.byte	0
 6553 0412 45       		.uleb128 0x45
 6554 0413 05       		.uleb128 0x5
 6555 0414 00       		.byte	0
 6556 0415 03       		.uleb128 0x3
 6557 0416 08       		.uleb128 0x8
 6558 0417 3A       		.uleb128 0x3a
 6559 0418 0B       		.uleb128 0xb
 6560 0419 3B       		.uleb128 0x3b
 6561 041a 05       		.uleb128 0x5
 6562 041b 49       		.uleb128 0x49
 6563 041c 13       		.uleb128 0x13
 6564 041d 02       		.uleb128 0x2
 6565 041e 18       		.uleb128 0x18
 6566 041f 00       		.byte	0
 6567 0420 00       		.byte	0
 6568 0421 46       		.uleb128 0x46
 6569 0422 34       		.uleb128 0x34
 6570 0423 00       		.byte	0
 6571 0424 03       		.uleb128 0x3
 6572 0425 08       		.uleb128 0x8
 6573 0426 3A       		.uleb128 0x3a
 6574 0427 0B       		.uleb128 0xb
 6575 0428 3B       		.uleb128 0x3b
 6576 0429 05       		.uleb128 0x5
 6577 042a 49       		.uleb128 0x49
 6578 042b 13       		.uleb128 0x13
 6579 042c 02       		.uleb128 0x2
 6580 042d 18       		.uleb128 0x18
 6581 042e 00       		.byte	0
 6582 042f 00       		.byte	0
 6583 0430 47       		.uleb128 0x47
ARM GAS  C:\Users\Chuck\AppData\Local\Temp\ccNCRqO6.s 			page 134


 6584 0431 2E       		.uleb128 0x2e
 6585 0432 01       		.byte	0x1
 6586 0433 03       		.uleb128 0x3
 6587 0434 0E       		.uleb128 0xe
 6588 0435 34       		.uleb128 0x34
 6589 0436 19       		.uleb128 0x19
 6590 0437 11       		.uleb128 0x11
 6591 0438 01       		.uleb128 0x1
 6592 0439 12       		.uleb128 0x12
 6593 043a 06       		.uleb128 0x6
 6594 043b 40       		.uleb128 0x40
 6595 043c 18       		.uleb128 0x18
 6596 043d 9642     		.uleb128 0x2116
 6597 043f 19       		.uleb128 0x19
 6598 0440 01       		.uleb128 0x1
 6599 0441 13       		.uleb128 0x13
 6600 0442 00       		.byte	0
 6601 0443 00       		.byte	0
 6602 0444 48       		.uleb128 0x48
 6603 0445 2E       		.uleb128 0x2e
 6604 0446 00       		.byte	0
 6605 0447 03       		.uleb128 0x3
 6606 0448 0E       		.uleb128 0xe
 6607 0449 34       		.uleb128 0x34
 6608 044a 19       		.uleb128 0x19
 6609 044b 11       		.uleb128 0x11
 6610 044c 01       		.uleb128 0x1
 6611 044d 12       		.uleb128 0x12
 6612 044e 06       		.uleb128 0x6
 6613 044f 40       		.uleb128 0x40
 6614 0450 18       		.uleb128 0x18
 6615 0451 9642     		.uleb128 0x2116
 6616 0453 19       		.uleb128 0x19
 6617 0454 00       		.byte	0
 6618 0455 00       		.byte	0
 6619 0456 49       		.uleb128 0x49
 6620 0457 34       		.uleb128 0x34
 6621 0458 00       		.byte	0
 6622 0459 03       		.uleb128 0x3
 6623 045a 0E       		.uleb128 0xe
 6624 045b 3A       		.uleb128 0x3a
 6625 045c 0B       		.uleb128 0xb
 6626 045d 3B       		.uleb128 0x3b
 6627 045e 0B       		.uleb128 0xb
 6628 045f 49       		.uleb128 0x49
 6629 0460 13       		.uleb128 0x13
 6630 0461 3F       		.uleb128 0x3f
 6631 0462 19       		.uleb128 0x19
 6632 0463 3C       		.uleb128 0x3c
 6633 0464 19       		.uleb128 0x19
 6634 0465 00       		.byte	0
 6635 0466 00       		.byte	0
 6636 0467 4A       		.uleb128 0x4a
 6637 0468 34       		.uleb128 0x34
 6638 0469 00       		.byte	0
 6639 046a 03       		.uleb128 0x3
 6640 046b 08       		.uleb128 0x8
ARM GAS  C:\Users\Chuck\AppData\Local\Temp\ccNCRqO6.s 			page 135


 6641 046c 3A       		.uleb128 0x3a
 6642 046d 0B       		.uleb128 0xb
 6643 046e 3B       		.uleb128 0x3b
 6644 046f 0B       		.uleb128 0xb
 6645 0470 49       		.uleb128 0x49
 6646 0471 13       		.uleb128 0x13
 6647 0472 3F       		.uleb128 0x3f
 6648 0473 19       		.uleb128 0x19
 6649 0474 3C       		.uleb128 0x3c
 6650 0475 19       		.uleb128 0x19
 6651 0476 00       		.byte	0
 6652 0477 00       		.byte	0
 6653 0478 4B       		.uleb128 0x4b
 6654 0479 34       		.uleb128 0x34
 6655 047a 00       		.byte	0
 6656 047b 47       		.uleb128 0x47
 6657 047c 13       		.uleb128 0x13
 6658 047d 02       		.uleb128 0x2
 6659 047e 18       		.uleb128 0x18
 6660 047f 00       		.byte	0
 6661 0480 00       		.byte	0
 6662 0481 4C       		.uleb128 0x4c
 6663 0482 01       		.uleb128 0x1
 6664 0483 01       		.byte	0x1
 6665 0484 49       		.uleb128 0x49
 6666 0485 13       		.uleb128 0x13
 6667 0486 01       		.uleb128 0x1
 6668 0487 13       		.uleb128 0x13
 6669 0488 00       		.byte	0
 6670 0489 00       		.byte	0
 6671 048a 4D       		.uleb128 0x4d
 6672 048b 21       		.uleb128 0x21
 6673 048c 00       		.byte	0
 6674 048d 49       		.uleb128 0x49
 6675 048e 13       		.uleb128 0x13
 6676 048f 2F       		.uleb128 0x2f
 6677 0490 0B       		.uleb128 0xb
 6678 0491 00       		.byte	0
 6679 0492 00       		.byte	0
 6680 0493 00       		.byte	0
 6681              		.section	.debug_aranges,"",%progbits
 6682 0000 14010000 		.4byte	0x114
 6683 0004 0200     		.2byte	0x2
 6684 0006 00000000 		.4byte	.Ldebug_info0
 6685 000a 04       		.byte	0x4
 6686 000b 00       		.byte	0
 6687 000c 0000     		.2byte	0
 6688 000e 0000     		.2byte	0
 6689 0010 00000000 		.4byte	.LFB54
 6690 0014 1C000000 		.4byte	.LFE54-.LFB54
 6691 0018 00000000 		.4byte	.LFB91
 6692 001c 2A000000 		.4byte	.LFE91-.LFB91
 6693 0020 00000000 		.4byte	.LFB93
 6694 0024 2E000000 		.4byte	.LFE93-.LFB93
 6695 0028 00000000 		.4byte	.LFB159
 6696 002c 3C000000 		.4byte	.LFE159-.LFB159
 6697 0030 00000000 		.4byte	.LFB161
ARM GAS  C:\Users\Chuck\AppData\Local\Temp\ccNCRqO6.s 			page 136


 6698 0034 F2000000 		.4byte	.LFE161-.LFB161
 6699 0038 00000000 		.4byte	.LFB162
 6700 003c 2C010000 		.4byte	.LFE162-.LFB162
 6701 0040 00000000 		.4byte	.LFB163
 6702 0044 18000000 		.4byte	.LFE163-.LFB163
 6703 0048 00000000 		.4byte	.LFB164
 6704 004c 18000000 		.4byte	.LFE164-.LFB164
 6705 0050 00000000 		.4byte	.LFB166
 6706 0054 40000000 		.4byte	.LFE166-.LFB166
 6707 0058 00000000 		.4byte	.LFB168
 6708 005c FC000000 		.4byte	.LFE168-.LFB168
 6709 0060 00000000 		.4byte	.LFB169
 6710 0064 0E010000 		.4byte	.LFE169-.LFB169
 6711 0068 00000000 		.4byte	.LFB170
 6712 006c 18000000 		.4byte	.LFE170-.LFB170
 6713 0070 00000000 		.4byte	.LFB171
 6714 0074 18000000 		.4byte	.LFE171-.LFB171
 6715 0078 00000000 		.4byte	.LFB173
 6716 007c 3C000000 		.4byte	.LFE173-.LFB173
 6717 0080 00000000 		.4byte	.LFB175
 6718 0084 BA000000 		.4byte	.LFE175-.LFB175
 6719 0088 00000000 		.4byte	.LFB176
 6720 008c CE000000 		.4byte	.LFE176-.LFB176
 6721 0090 00000000 		.4byte	.LFB177
 6722 0094 18000000 		.4byte	.LFE177-.LFB177
 6723 0098 00000000 		.4byte	.LFB178
 6724 009c 18000000 		.4byte	.LFE178-.LFB178
 6725 00a0 00000000 		.4byte	.LFB179
 6726 00a4 4C000000 		.4byte	.LFE179-.LFB179
 6727 00a8 00000000 		.4byte	.LFB180
 6728 00ac B8000000 		.4byte	.LFE180-.LFB180
 6729 00b0 00000000 		.4byte	.LFB181
 6730 00b4 C4000000 		.4byte	.LFE181-.LFB181
 6731 00b8 00000000 		.4byte	.LFB182
 6732 00bc EC000000 		.4byte	.LFE182-.LFB182
 6733 00c0 00000000 		.4byte	.LFB185
 6734 00c4 1C000000 		.4byte	.LFE185-.LFB185
 6735 00c8 00000000 		.4byte	.LFB187
 6736 00cc 4C000000 		.4byte	.LFE187-.LFB187
 6737 00d0 00000000 		.4byte	.LFB189
 6738 00d4 54000000 		.4byte	.LFE189-.LFB189
 6739 00d8 00000000 		.4byte	.LFB190
 6740 00dc 4E000000 		.4byte	.LFE190-.LFB190
 6741 00e0 00000000 		.4byte	.LFB191
 6742 00e4 B8000000 		.4byte	.LFE191-.LFB191
 6743 00e8 00000000 		.4byte	.LFB192
 6744 00ec 4A000000 		.4byte	.LFE192-.LFB192
 6745 00f0 00000000 		.4byte	.LFB193
 6746 00f4 14000000 		.4byte	.LFE193-.LFB193
 6747 00f8 00000000 		.4byte	.LFB194
 6748 00fc 1C000000 		.4byte	.LFE194-.LFB194
 6749 0100 00000000 		.4byte	.LFB195
 6750 0104 1C000000 		.4byte	.LFE195-.LFB195
 6751 0108 00000000 		.4byte	.LFB196
 6752 010c 18000000 		.4byte	.LFE196-.LFB196
 6753 0110 00000000 		.4byte	0
 6754 0114 00000000 		.4byte	0
ARM GAS  C:\Users\Chuck\AppData\Local\Temp\ccNCRqO6.s 			page 137


 6755              		.section	.debug_ranges,"",%progbits
 6756              	.Ldebug_ranges0:
 6757 0000 00000000 		.4byte	.LFB54
 6758 0004 1C000000 		.4byte	.LFE54
 6759 0008 00000000 		.4byte	.LFB91
 6760 000c 2A000000 		.4byte	.LFE91
 6761 0010 00000000 		.4byte	.LFB93
 6762 0014 2E000000 		.4byte	.LFE93
 6763 0018 00000000 		.4byte	.LFB159
 6764 001c 3C000000 		.4byte	.LFE159
 6765 0020 00000000 		.4byte	.LFB161
 6766 0024 F2000000 		.4byte	.LFE161
 6767 0028 00000000 		.4byte	.LFB162
 6768 002c 2C010000 		.4byte	.LFE162
 6769 0030 00000000 		.4byte	.LFB163
 6770 0034 18000000 		.4byte	.LFE163
 6771 0038 00000000 		.4byte	.LFB164
 6772 003c 18000000 		.4byte	.LFE164
 6773 0040 00000000 		.4byte	.LFB166
 6774 0044 40000000 		.4byte	.LFE166
 6775 0048 00000000 		.4byte	.LFB168
 6776 004c FC000000 		.4byte	.LFE168
 6777 0050 00000000 		.4byte	.LFB169
 6778 0054 0E010000 		.4byte	.LFE169
 6779 0058 00000000 		.4byte	.LFB170
 6780 005c 18000000 		.4byte	.LFE170
 6781 0060 00000000 		.4byte	.LFB171
 6782 0064 18000000 		.4byte	.LFE171
 6783 0068 00000000 		.4byte	.LFB173
 6784 006c 3C000000 		.4byte	.LFE173
 6785 0070 00000000 		.4byte	.LFB175
 6786 0074 BA000000 		.4byte	.LFE175
 6787 0078 00000000 		.4byte	.LFB176
 6788 007c CE000000 		.4byte	.LFE176
 6789 0080 00000000 		.4byte	.LFB177
 6790 0084 18000000 		.4byte	.LFE177
 6791 0088 00000000 		.4byte	.LFB178
 6792 008c 18000000 		.4byte	.LFE178
 6793 0090 00000000 		.4byte	.LFB179
 6794 0094 4C000000 		.4byte	.LFE179
 6795 0098 00000000 		.4byte	.LFB180
 6796 009c B8000000 		.4byte	.LFE180
 6797 00a0 00000000 		.4byte	.LFB181
 6798 00a4 C4000000 		.4byte	.LFE181
 6799 00a8 00000000 		.4byte	.LFB182
 6800 00ac EC000000 		.4byte	.LFE182
 6801 00b0 00000000 		.4byte	.LFB185
 6802 00b4 1C000000 		.4byte	.LFE185
 6803 00b8 00000000 		.4byte	.LFB187
 6804 00bc 4C000000 		.4byte	.LFE187
 6805 00c0 00000000 		.4byte	.LFB189
 6806 00c4 54000000 		.4byte	.LFE189
 6807 00c8 00000000 		.4byte	.LFB190
 6808 00cc 4E000000 		.4byte	.LFE190
 6809 00d0 00000000 		.4byte	.LFB191
 6810 00d4 B8000000 		.4byte	.LFE191
 6811 00d8 00000000 		.4byte	.LFB192
ARM GAS  C:\Users\Chuck\AppData\Local\Temp\ccNCRqO6.s 			page 138


 6812 00dc 4A000000 		.4byte	.LFE192
 6813 00e0 00000000 		.4byte	.LFB193
 6814 00e4 14000000 		.4byte	.LFE193
 6815 00e8 00000000 		.4byte	.LFB194
 6816 00ec 1C000000 		.4byte	.LFE194
 6817 00f0 00000000 		.4byte	.LFB195
 6818 00f4 1C000000 		.4byte	.LFE195
 6819 00f8 00000000 		.4byte	.LFB196
 6820 00fc 18000000 		.4byte	.LFE196
 6821 0100 00000000 		.4byte	0
 6822 0104 00000000 		.4byte	0
 6823              		.section	.debug_line,"",%progbits
 6824              	.Ldebug_line0:
 6825 0000 5B060000 		.section	.debug_str,"MS",%progbits,1
 6825      02007B02 
 6825      00000201 
 6825      FB0E0D00 
 6825      01010101 
 6826              	.LASF133:
 6827 0000 5F5A4E31 		.ascii	"_ZN10I2C_device9cmd_sub_wE\000"
 6827      30493243 
 6827      5F646576 
 6827      69636539 
 6827      636D645F 
 6828              	.LASF127:
 6829 001b 5F5A4E31 		.ascii	"_ZN10I2C_device7i2caddrE\000"
 6829      30493243 
 6829      5F646576 
 6829      69636537 
 6829      69326361 
 6830              	.LASF128:
 6831 0034 6D61785F 		.ascii	"max_readback_bytes\000"
 6831      72656164 
 6831      6261636B 
 6831      5F627974 
 6831      657300
 6832              	.LASF191:
 6833 0047 474E5520 		.ascii	"GNU C++ 4.9.3 20150303 (release) [ARM/embedded-4_9-"
 6833      432B2B20 
 6833      342E392E 
 6833      33203230 
 6833      31353033 
 6834 007a 6272616E 		.ascii	"branch revision 221220] -mcpu=cortex-m0 -mthumb -g "
 6834      63682072 
 6834      65766973 
 6834      696F6E20 
 6834      32323132 
 6835 00ad 2D4F3020 		.ascii	"-O0 -ffunction-sections -ffat-lto-objects -fno-rtti"
 6835      2D666675 
 6835      6E637469 
 6835      6F6E2D73 
 6835      65637469 
 6836 00e0 202D666E 		.ascii	" -fno-exceptions -funsigned-char -funsigned-bitfiel"
 6836      6F2D6578 
 6836      63657074 
 6836      696F6E73 
 6836      202D6675 
ARM GAS  C:\Users\Chuck\AppData\Local\Temp\ccNCRqO6.s 			page 139


 6837 0113 6473202D 		.ascii	"ds -fshort-enums\000"
 6837      6673686F 
 6837      72742D65 
 6837      6E756D73 
 6837      00
 6838              	.LASF112:
 6839 0124 5F5A4E31 		.ascii	"_ZN10I2C_device14writeMessageCbERKN8std_msgs15UInt8"
 6839      30493243 
 6839      5F646576 
 6839      69636531 
 6839      34777269 
 6840 0157 4D756C74 		.ascii	"MultiArrayE\000"
 6840      69417272 
 6840      61794500 
 6841              	.LASF94:
 6842 0163 5F5A4E31 		.ascii	"_ZN13Psoc4Hardware7getBaudEv\000"
 6842      3350736F 
 6842      63344861 
 6842      72647761 
 6842      72653767 
 6843              	.LASF150:
 6844 0180 5F5A4E38 		.ascii	"_ZN8std_msgs15UInt8MultiArray6getMD5Ev\000"
 6844      7374645F 
 6844      6D736773 
 6844      31355549 
 6844      6E74384D 
 6845              	.LASF151:
 6846 01a7 4D756C74 		.ascii	"MultiArrayLayout\000"
 6846      69417272 
 6846      61794C61 
 6846      796F7574 
 6846      00
 6847              	.LASF33:
 6848 01b8 73657269 		.ascii	"serialize\000"
 6848      616C697A 
 6848      6500
 6849              	.LASF141:
 6850 01c2 55496E74 		.ascii	"UInt8MultiArray\000"
 6850      384D756C 
 6850      74694172 
 6850      72617900 
 6851              	.LASF98:
 6852 01d2 5F5A4E31 		.ascii	"_ZN13Psoc4Hardware4readEv\000"
 6852      3350736F 
 6852      63344861 
 6852      72647761 
 6852      72653472 
 6853              	.LASF163:
 6854 01ec 73747269 		.ascii	"stride\000"
 6854      646500
 6855              	.LASF63:
 6856 01f3 5F5A4E33 		.ascii	"_ZN3ros11Subscriber_9getMsgMD5Ev\000"
 6856      726F7331 
 6856      31537562 
 6856      73637269 
 6856      6265725F 
 6857              	.LASF196:
ARM GAS  C:\Users\Chuck\AppData\Local\Temp\ccNCRqO6.s 			page 140


 6858 0214 726F7373 		.ascii	"rosserial_msgs/RequestParam\000"
 6858      65726961 
 6858      6C5F6D73 
 6858      67732F52 
 6858      65717565 
 6859              	.LASF161:
 6860 0230 6C616265 		.ascii	"label\000"
 6860      6C00
 6861              	.LASF12:
 6862 0236 756E7369 		.ascii	"unsigned int\000"
 6862      676E6564 
 6862      20696E74 
 6862      00
 6863              	.LASF6:
 6864 0243 5F5F696E 		.ascii	"__int32_t\000"
 6864      7433325F 
 6864      7400
 6865              	.LASF113:
 6866 024d 5F5A4E31 		.ascii	"_ZN10I2C_device13readMessageCbERKN8std_msgs15UInt8M"
 6866      30493243 
 6866      5F646576 
 6866      69636531 
 6866      33726561 
 6867 0280 756C7469 		.ascii	"ultiArrayE\000"
 6867      41727261 
 6867      794500
 6868              	.LASF126:
 6869 028b 69326361 		.ascii	"i2caddr\000"
 6869      64647200 
 6870              	.LASF124:
 6871 0293 7265706C 		.ascii	"reply_pub\000"
 6871      795F7075 
 6871      6200
 6872              	.LASF135:
 6873 029d 5F5A4E31 		.ascii	"_ZN10I2C_device9cmd_sub_rE\000"
 6873      30493243 
 6873      5F646576 
 6873      69636539 
 6873      636D645F 
 6874              	.LASF106:
 6875 02b8 73746174 		.ascii	"state_idle\000"
 6875      655F6964 
 6875      6C6500
 6876              	.LASF47:
 6877 02c3 43616C6C 		.ascii	"CallbackTPtr\000"
 6877      6261636B 
 6877      54507472 
 6877      00
 6878              	.LASF197:
 6879 02d0 5F5F7674 		.ascii	"__vtbl_ptr_type\000"
 6879      626C5F70 
 6879      74725F74 
 6879      79706500 
 6880              	.LASF75:
 6881 02e0 726F7373 		.ascii	"rosserial_msgs\000"
 6881      65726961 
 6881      6C5F6D73 
ARM GAS  C:\Users\Chuck\AppData\Local\Temp\ccNCRqO6.s 			page 141


 6881      677300
 6882              	.LASF102:
 6883 02ef 5F5A4E31 		.ascii	"_ZN13Psoc4Hardware4timeEv\000"
 6883      3350736F 
 6883      63344861 
 6883      72647761 
 6883      72653474 
 6884              	.LASF148:
 6885 0309 5F5A4E38 		.ascii	"_ZN8std_msgs15UInt8MultiArray11deserializeEPh\000"
 6885      7374645F 
 6885      6D736773 
 6885      31355549 
 6885      6E74384D 
 6886              	.LASF165:
 6887 0337 5F5A4E4B 		.ascii	"_ZNK8std_msgs19MultiArrayDimension9serializeEPh\000"
 6887      38737464 
 6887      5F6D7367 
 6887      7331394D 
 6887      756C7469 
 6888              	.LASF153:
 6889 0367 73745F64 		.ascii	"st_dim\000"
 6889      696D00
 6890              	.LASF190:
 6891 036e 55617274 		.ascii	"Uart0\000"
 6891      3000
 6892              	.LASF171:
 6893 0374 5F5A4E33 		.ascii	"_ZN3ros3MsgC2Ev\000"
 6893      726F7333 
 6893      4D736743 
 6893      32457600 
 6894              	.LASF51:
 6895 0384 5F5A4E33 		.ascii	"_ZN3ros10SubscriberIN8std_msgs15UInt8MultiArrayEE10"
 6895      726F7331 
 6895      30537562 
 6895      73637269 
 6895      62657249 
 6896 03b7 6765744D 		.ascii	"getMsgTypeEv\000"
 6896      73675479 
 6896      70654576 
 6896      00
 6897              	.LASF82:
 6898 03c4 6D643573 		.ascii	"md5sum\000"
 6898      756D00
 6899              	.LASF160:
 6900 03cb 4D756C74 		.ascii	"MultiArrayDimension\000"
 6900      69417272 
 6900      61794469 
 6900      6D656E73 
 6900      696F6E00 
 6901              	.LASF60:
 6902 03df 5F5A4E33 		.ascii	"_ZN3ros11Subscriber_8callbackEPh\000"
 6902      726F7331 
 6902      31537562 
 6902      73637269 
 6902      6265725F 
 6903              	.LASF25:
 6904 0400 7075626C 		.ascii	"publish\000"
ARM GAS  C:\Users\Chuck\AppData\Local\Temp\ccNCRqO6.s 			page 142


 6904      69736800 
 6905              	.LASF83:
 6906 0408 62756666 		.ascii	"buffer_size\000"
 6906      65725F73 
 6906      697A6500 
 6907              	.LASF16:
 6908 0414 75696E74 		.ascii	"uint32_t\000"
 6908      33325F74 
 6908      00
 6909              	.LASF122:
 6910 041d 7265706C 		.ascii	"reply_data\000"
 6910      795F6461 
 6910      746100
 6911              	.LASF78:
 6912 0428 49445F53 		.ascii	"ID_SUBSCRIBER\000"
 6912      55425343 
 6912      52494245 
 6912      5200
 6913              	.LASF146:
 6914 0436 7E55496E 		.ascii	"~UInt8MultiArray\000"
 6914      74384D75 
 6914      6C746941 
 6914      72726179 
 6914      00
 6915              	.LASF18:
 6916 0447 666C6F61 		.ascii	"float\000"
 6916      7400
 6917              	.LASF143:
 6918 044d 64617461 		.ascii	"data_length\000"
 6918      5F6C656E 
 6918      67746800 
 6919              	.LASF46:
 6920 0459 43616C6C 		.ascii	"CallbackT\000"
 6920      6261636B 
 6920      5400
 6921              	.LASF123:
 6922 0463 5F5A4E31 		.ascii	"_ZN10I2C_device10reply_dataE\000"
 6922      30493243 
 6922      5F646576 
 6922      69636531 
 6922      30726570 
 6923              	.LASF100:
 6924 0480 5F5A4E31 		.ascii	"_ZN13Psoc4Hardware5writeEPhi\000"
 6924      3350736F 
 6924      63344861 
 6924      72647761 
 6924      72653577 
 6925              	.LASF11:
 6926 049d 6C6F6E67 		.ascii	"long long unsigned int\000"
 6926      206C6F6E 
 6926      6720756E 
 6926      7369676E 
 6926      65642069 
 6927              	.LASF147:
 6928 04b4 5F5A4E4B 		.ascii	"_ZNK8std_msgs15UInt8MultiArray9serializeEPh\000"
 6928      38737464 
 6928      5F6D7367 
ARM GAS  C:\Users\Chuck\AppData\Local\Temp\ccNCRqO6.s 			page 143


 6928      73313555 
 6928      496E7438 
 6929              	.LASF40:
 6930 04e0 5F5A4E33 		.ascii	"_ZN3ros3Msg6getMD5Ev\000"
 6930      726F7333 
 6930      4D736736 
 6930      6765744D 
 6930      44354576 
 6931              	.LASF44:
 6932 04f5 64657365 		.ascii	"deserializeAvrFloat64\000"
 6932      7269616C 
 6932      697A6541 
 6932      7672466C 
 6932      6F617436 
 6933              	.LASF81:
 6934 050b 6D657373 		.ascii	"message_type\000"
 6934      6167655F 
 6934      74797065 
 6934      00
 6935              	.LASF4:
 6936 0518 5F5F7569 		.ascii	"__uint16_t\000"
 6936      6E743136 
 6936      5F7400
 6937              	.LASF28:
 6938 0523 5075626C 		.ascii	"Publisher\000"
 6938      69736865 
 6938      7200
 6939              	.LASF101:
 6940 052d 74696D65 		.ascii	"time\000"
 6940      00
 6941              	.LASF52:
 6942 0532 6765744D 		.ascii	"getMsgMD5\000"
 6942      73674D44 
 6942      3500
 6943              	.LASF115:
 6944 053c 6C6F6F70 		.ascii	"loop\000"
 6944      00
 6945              	.LASF189:
 6946 0541 52455155 		.ascii	"REQUESTPARAM\000"
 6946      45535450 
 6946      4152414D 
 6946      00
 6947              	.LASF139:
 6948 054e 5F5A4E31 		.ascii	"_ZN10I2C_device8cmd_dataE\000"
 6948      30493243 
 6948      5F646576 
 6948      69636538 
 6948      636D645F 
 6949              	.LASF186:
 6950 0568 5F5F696E 		.ascii	"__initialize_p\000"
 6950      69746961 
 6950      6C697A65 
 6950      5F7000
 6951              	.LASF61:
 6952 0577 5F5A4E33 		.ascii	"_ZN3ros11Subscriber_15getEndpointTypeEv\000"
 6952      726F7331 
 6952      31537562 
ARM GAS  C:\Users\Chuck\AppData\Local\Temp\ccNCRqO6.s 			page 144


 6952      73637269 
 6952      6265725F 
 6953              	.LASF175:
 6954 059f 6F666673 		.ascii	"offset\000"
 6954      657400
 6955              	.LASF136:
 6956 05a6 636D645F 		.ascii	"cmd_dim\000"
 6956      64696D00 
 6957              	.LASF50:
 6958 05ae 6765744D 		.ascii	"getMsgType\000"
 6958      73675479 
 6958      706500
 6959              	.LASF104:
 6960 05b9 48617264 		.ascii	"HardwareSerial\000"
 6960      77617265 
 6960      53657269 
 6960      616C00
 6961              	.LASF32:
 6962 05c8 7E4D7367 		.ascii	"~Msg\000"
 6962      00
 6963              	.LASF187:
 6964 05cd 5F5F7072 		.ascii	"__priority\000"
 6964      696F7269 
 6964      747900
 6965              	.LASF27:
 6966 05d8 5F5A4E33 		.ascii	"_ZN3ros9Publisher7publishERKNS_3MsgE\000"
 6966      726F7339 
 6966      5075626C 
 6966      69736865 
 6966      72377075 
 6967              	.LASF180:
 6968 05fd 5F5A4E38 		.ascii	"_ZN8std_msgs15UInt8MultiArrayC2Ev\000"
 6968      7374645F 
 6968      6D736773 
 6968      31355549 
 6968      6E74384D 
 6969              	.LASF103:
 6970 061f 4E6F6465 		.ascii	"NodeHandleBase_\000"
 6970      48616E64 
 6970      6C654261 
 6970      73655F00 
 6971              	.LASF70:
 6972 062f 4D41585F 		.ascii	"MAX_SUBSCRIBERS\000"
 6972      53554253 
 6972      43524942 
 6972      45525300 
 6973              	.LASF74:
 6974 063f 4E6F6465 		.ascii	"NodeHandle\000"
 6974      48616E64 
 6974      6C6500
 6975              	.LASF29:
 6976 064a 67657445 		.ascii	"getEndpointType\000"
 6976      6E64706F 
 6976      696E7454 
 6976      79706500 
 6977              	.LASF120:
 6978 065a 5F5A4E31 		.ascii	"_ZN10I2C_device9reply_msgE\000"
ARM GAS  C:\Users\Chuck\AppData\Local\Temp\ccNCRqO6.s 			page 145


 6978      30493243 
 6978      5F646576 
 6978      69636539 
 6978      7265706C 
 6979              	.LASF172:
 6980 0675 5F5A4E33 		.ascii	"_ZN3ros9PublisherC2EPKcPNS_3MsgEi\000"
 6980      726F7339 
 6980      5075626C 
 6980      69736865 
 6980      72433245 
 6981              	.LASF183:
 6982 0697 5F5A4E33 		.ascii	"_ZN3ros11Subscriber_C2Ev\000"
 6982      726F7331 
 6982      31537562 
 6982      73637269 
 6982      6265725F 
 6983              	.LASF57:
 6984 06b0 7E537562 		.ascii	"~Subscriber_\000"
 6984      73637269 
 6984      6265725F 
 6984      00
 6985              	.LASF20:
 6986 06bd 63686172 		.ascii	"char\000"
 6986      00
 6987              	.LASF36:
 6988 06c2 5F5A4E33 		.ascii	"_ZN3ros3Msg11deserializeEPh\000"
 6988      726F7333 
 6988      4D736731 
 6988      31646573 
 6988      65726961 
 6989              	.LASF17:
 6990 06de 75696E74 		.ascii	"uint16\000"
 6990      313600
 6991              	.LASF145:
 6992 06e5 64617461 		.ascii	"data\000"
 6992      00
 6993              	.LASF68:
 6994 06ea 4D736754 		.ascii	"MsgT\000"
 6994      00
 6995              	.LASF96:
 6996 06ef 5F5A4E31 		.ascii	"_ZN13Psoc4Hardware4initEv\000"
 6996      3350736F 
 6996      63344861 
 6996      72647761 
 6996      72653469 
 6997              	.LASF13:
 6998 0709 75696E74 		.ascii	"uint8_t\000"
 6998      385F7400 
 6999              	.LASF182:
 7000 0711 73746174 		.ascii	"status\000"
 7000      757300
 7001              	.LASF76:
 7002 0718 546F7069 		.ascii	"TopicInfo\000"
 7002      63496E66 
 7002      6F00
 7003              	.LASF92:
 7004 0722 5F5A4E31 		.ascii	"_ZN13Psoc4Hardware7setBaudEl\000"
ARM GAS  C:\Users\Chuck\AppData\Local\Temp\ccNCRqO6.s 			page 146


 7004      3350736F 
 7004      63344861 
 7004      72647761 
 7004      72653773 
 7005              	.LASF177:
 7006 073f 696E6275 		.ascii	"inbuffer\000"
 7006      66666572 
 7006      00
 7007              	.LASF34:
 7008 0748 64657365 		.ascii	"deserialize\000"
 7008      7269616C 
 7008      697A6500 
 7009              	.LASF10:
 7010 0754 6C6F6E67 		.ascii	"long long int\000"
 7010      206C6F6E 
 7010      6720696E 
 7010      7400
 7011              	.LASF99:
 7012 0762 77726974 		.ascii	"write\000"
 7012      6500
 7013              	.LASF79:
 7014 0768 746F7069 		.ascii	"topic_id\000"
 7014      635F6964 
 7014      00
 7015              	.LASF167:
 7016 0771 5F5A4E38 		.ascii	"_ZN8std_msgs19MultiArrayDimension7getTypeEv\000"
 7016      7374645F 
 7016      6D736773 
 7016      31394D75 
 7016      6C746941 
 7017              	.LASF73:
 7018 079d 4F555450 		.ascii	"OUTPUT_SIZE\000"
 7018      55545F53 
 7018      495A4500 
 7019              	.LASF194:
 7020 07a9 5F5A4E33 		.ascii	"_ZN3ros3Msg21deserializeAvrFloat64EPKhPf\000"
 7020      726F7333 
 7020      4D736732 
 7020      31646573 
 7020      65726961 
 7021              	.LASF199:
 7022 07d2 5F474C4F 		.ascii	"_GLOBAL__sub_I__ZN10I2C_device9reply_msgE\000"
 7022      42414C5F 
 7022      5F737562 
 7022      5F495F5F 
 7022      5A4E3130 
 7023              	.LASF156:
 7024 07fc 5F5A4E4B 		.ascii	"_ZNK8std_msgs16MultiArrayLayout9serializeEPh\000"
 7024      38737464 
 7024      5F6D7367 
 7024      7331364D 
 7024      756C7469 
 7025              	.LASF185:
 7026 0829 626F6F6C 		.ascii	"bool\000"
 7026      00
 7027              	.LASF56:
 7028 082e 5F767074 		.ascii	"_vptr.Subscriber_\000"
ARM GAS  C:\Users\Chuck\AppData\Local\Temp\ccNCRqO6.s 			page 147


 7028      722E5375 
 7028      62736372 
 7028      69626572 
 7028      5F00
 7029              	.LASF43:
 7030 0840 5F5A4E33 		.ascii	"_ZN3ros3Msg19serializeAvrFloat64EPhf\000"
 7030      726F7333 
 7030      4D736731 
 7030      39736572 
 7030      69616C69 
 7031              	.LASF179:
 7032 0865 64696D5F 		.ascii	"dim_lengthT\000"
 7032      6C656E67 
 7032      74685400 
 7033              	.LASF184:
 7034 0871 5F5A4E33 		.ascii	"_ZN3ros10SubscriberIN8std_msgs15UInt8MultiArrayEEC2"
 7034      726F7331 
 7034      30537562 
 7034      73637269 
 7034      62657249 
 7035 08a4 45504B63 		.ascii	"EPKcPFvRKS2_Ei\000"
 7035      50467652 
 7035      4B53325F 
 7035      456900
 7036              	.LASF116:
 7037 08b3 5F5A4E31 		.ascii	"_ZN10I2C_device5setupEv\000"
 7037      30493243 
 7037      5F646576 
 7037      69636535 
 7037      73657475 
 7038              	.LASF138:
 7039 08cb 636D645F 		.ascii	"cmd_data\000"
 7039      64617461 
 7039      00
 7040              	.LASF37:
 7041 08d4 67657454 		.ascii	"getType\000"
 7041      79706500 
 7042              	.LASF64:
 7043 08dc 61647665 		.ascii	"advertise\000"
 7043      72746973 
 7043      6500
 7044              	.LASF67:
 7045 08e6 5F5A4E33 		.ascii	"_ZN3ros11NodeHandle_I13Psoc4HardwareLi10ELi20ELi200"
 7045      726F7331 
 7045      314E6F64 
 7045      6548616E 
 7045      646C655F 
 7046 0919 454C6932 		.ascii	"ELi200EE9subscribeIN8std_msgs15UInt8MultiArrayEEEbR"
 7046      30304545 
 7046      39737562 
 7046      73637269 
 7046      6265494E 
 7047 094c 4E535F31 		.ascii	"NS_10SubscriberIT_EE\000"
 7047      30537562 
 7047      73637269 
 7047      62657249 
 7047      545F4545 
ARM GAS  C:\Users\Chuck\AppData\Local\Temp\ccNCRqO6.s 			page 148


 7048              	.LASF66:
 7049 0961 5F5A4E33 		.ascii	"_ZN3ros11NodeHandle_I13Psoc4HardwareLi10ELi20ELi200"
 7049      726F7331 
 7049      314E6F64 
 7049      6548616E 
 7049      646C655F 
 7050 0994 454C6932 		.ascii	"ELi200EE9advertiseERNS_9PublisherE\000"
 7050      30304545 
 7050      39616476 
 7050      65727469 
 7050      73654552 
 7051              	.LASF42:
 7052 09b7 5F5A4E33 		.ascii	"_ZN3ros9Publisher15getEndpointTypeEv\000"
 7052      726F7339 
 7052      5075626C 
 7052      69736865 
 7052      72313567 
 7053              	.LASF162:
 7054 09dc 73697A65 		.ascii	"size\000"
 7054      00
 7055              	.LASF173:
 7056 09e1 5F5A4E38 		.ascii	"_ZN8std_msgs19MultiArrayDimensionC2Ev\000"
 7056      7374645F 
 7056      6D736773 
 7056      31394D75 
 7056      6C746941 
 7057              	.LASF69:
 7058 0a07 48617264 		.ascii	"Hardware\000"
 7058      77617265 
 7058      00
 7059              	.LASF125:
 7060 0a10 5F5A4E31 		.ascii	"_ZN10I2C_device9reply_pubE\000"
 7060      30493243 
 7060      5F646576 
 7060      69636539 
 7060      7265706C 
 7061              	.LASF119:
 7062 0a2b 7265706C 		.ascii	"reply_dim\000"
 7062      795F6469 
 7062      6D00
 7063              	.LASF152:
 7064 0a35 64696D5F 		.ascii	"dim_length\000"
 7064      6C656E67 
 7064      746800
 7065              	.LASF35:
 7066 0a40 5F5A4E4B 		.ascii	"_ZNK3ros3Msg9serializeEPh\000"
 7066      33726F73 
 7066      334D7367 
 7066      39736572 
 7066      69616C69 
 7067              	.LASF88:
 7068 0a5a 50736F63 		.ascii	"Psoc4Hardware\000"
 7068      34486172 
 7068      64776172 
 7068      6500
 7069              	.LASF62:
 7070 0a68 5F5A4E33 		.ascii	"_ZN3ros11Subscriber_10getMsgTypeEv\000"
ARM GAS  C:\Users\Chuck\AppData\Local\Temp\ccNCRqO6.s 			page 149


 7070      726F7331 
 7070      31537562 
 7070      73637269 
 7070      6265725F 
 7071              	.LASF121:
 7072 0a8b 5F5A4E31 		.ascii	"_ZN10I2C_device9reply_dimE\000"
 7072      30493243 
 7072      5F646576 
 7072      69636539 
 7072      7265706C 
 7073              	.LASF49:
 7074 0aa6 53756273 		.ascii	"Subscriber\000"
 7074      63726962 
 7074      657200
 7075              	.LASF22:
 7076 0ab1 6C6F6E67 		.ascii	"long double\000"
 7076      20646F75 
 7076      626C6500 
 7077              	.LASF14:
 7078 0abd 75696E74 		.ascii	"uint16_t\000"
 7078      31365F74 
 7078      00
 7079              	.LASF91:
 7080 0ac6 73657442 		.ascii	"setBaud\000"
 7080      61756400 
 7081              	.LASF181:
 7082 0ace 64617461 		.ascii	"data_lengthT\000"
 7082      5F6C656E 
 7082      67746854 
 7082      00
 7083              	.LASF178:
 7084 0adb 5F5A4E38 		.ascii	"_ZN8std_msgs16MultiArrayLayoutC2Ev\000"
 7084      7374645F 
 7084      6D736773 
 7084      31364D75 
 7084      6C746941 
 7085              	.LASF169:
 7086 0afe 74686973 		.ascii	"this\000"
 7086      00
 7087              	.LASF157:
 7088 0b03 5F5A4E38 		.ascii	"_ZN8std_msgs16MultiArrayLayout11deserializeEPh\000"
 7088      7374645F 
 7088      6D736773 
 7088      31364D75 
 7088      6C746941 
 7089              	.LASF144:
 7090 0b32 73745F64 		.ascii	"st_data\000"
 7090      61746100 
 7091              	.LASF195:
 7092 0b3a 4E6F6465 		.ascii	"NodeHandle_<Psoc4Hardware, 10, 20, 200, 200>\000"
 7092      48616E64 
 7092      6C655F3C 
 7092      50736F63 
 7092      34486172 
 7093              	.LASF109:
 7094 0b67 73746174 		.ascii	"state_reading\000"
 7094      655F7265 
ARM GAS  C:\Users\Chuck\AppData\Local\Temp\ccNCRqO6.s 			page 150


 7094      6164696E 
 7094      6700
 7095              	.LASF39:
 7096 0b75 6765744D 		.ascii	"getMD5\000"
 7096      443500
 7097              	.LASF140:
 7098 0b7c 7374645F 		.ascii	"std_msgs\000"
 7098      6D736773 
 7098      00
 7099              	.LASF2:
 7100 0b85 73686F72 		.ascii	"short int\000"
 7100      7420696E 
 7100      7400
 7101              	.LASF188:
 7102 0b8f 55617274 		.ascii	"Uart\000"
 7102      00
 7103              	.LASF53:
 7104 0b94 5F5A4E33 		.ascii	"_ZN3ros10SubscriberIN8std_msgs15UInt8MultiArrayEE9g"
 7104      726F7331 
 7104      30537562 
 7104      73637269 
 7104      62657249 
 7105 0bc7 65744D73 		.ascii	"etMsgMD5Ev\000"
 7105      674D4435 
 7105      457600
 7106              	.LASF174:
 7107 0bd2 6F757462 		.ascii	"outbuffer\000"
 7107      75666665 
 7107      7200
 7108              	.LASF7:
 7109 0bdc 6C6F6E67 		.ascii	"long int\000"
 7109      20696E74 
 7109      00
 7110              	.LASF111:
 7111 0be5 72656164 		.ascii	"readMessageCb\000"
 7111      4D657373 
 7111      61676543 
 7111      6200
 7112              	.LASF198:
 7113 0bf3 5F5F7374 		.ascii	"__static_initialization_and_destruction_0\000"
 7113      61746963 
 7113      5F696E69 
 7113      7469616C 
 7113      697A6174 
 7114              	.LASF59:
 7115 0c1d 5F5A4E33 		.ascii	"_ZN3ros10SubscriberIN8std_msgs15UInt8MultiArrayEE8c"
 7115      726F7331 
 7115      30537562 
 7115      73637269 
 7115      62657249 
 7116 0c50 616C6C62 		.ascii	"allbackEPh\000"
 7116      61636B45 
 7116      506800
 7117              	.LASF107:
 7118 0c5b 73746174 		.ascii	"state_writing\000"
 7118      655F7772 
 7118      6974696E 
ARM GAS  C:\Users\Chuck\AppData\Local\Temp\ccNCRqO6.s 			page 151


 7118      6700
 7119              	.LASF193:
 7120 0c69 453A5C50 		.ascii	"E:\\PSoC\\RosOnAStick\\RosOnAStick.cydsn\000"
 7120      536F435C 
 7120      526F734F 
 7120      6E415374 
 7120      69636B5C 
 7121              	.LASF54:
 7122 0c8f 5F5A4E33 		.ascii	"_ZN3ros10SubscriberIN8std_msgs15UInt8MultiArrayEE15"
 7122      726F7331 
 7122      30537562 
 7122      73637269 
 7122      62657249 
 7123 0cc2 67657445 		.ascii	"getEndpointTypeEv\000"
 7123      6E64706F 
 7123      696E7454 
 7123      79706545 
 7123      7600
 7124              	.LASF137:
 7125 0cd4 5F5A4E31 		.ascii	"_ZN10I2C_device7cmd_dimE\000"
 7125      30493243 
 7125      5F646576 
 7125      69636537 
 7125      636D645F 
 7126              	.LASF168:
 7127 0ced 5F5A4E38 		.ascii	"_ZN8std_msgs19MultiArrayDimension6getMD5Ev\000"
 7127      7374645F 
 7127      6D736773 
 7127      31394D75 
 7127      6C746941 
 7128              	.LASF166:
 7129 0d18 5F5A4E38 		.ascii	"_ZN8std_msgs19MultiArrayDimension11deserializeEPh\000"
 7129      7374645F 
 7129      6D736773 
 7129      31394D75 
 7129      6C746941 
 7130              	.LASF108:
 7131 0d4a 73746174 		.ascii	"state_read_setup\000"
 7131      655F7265 
 7131      61645F73 
 7131      65747570 
 7131      00
 7132              	.LASF30:
 7133 0d5b 656E6470 		.ascii	"endpoint_\000"
 7133      6F696E74 
 7133      5F00
 7134              	.LASF3:
 7135 0d65 5F5F7569 		.ascii	"__uint8_t\000"
 7135      6E74385F 
 7135      7400
 7136              	.LASF97:
 7137 0d6f 72656164 		.ascii	"read\000"
 7137      00
 7138              	.LASF129:
 7139 0d74 5F5A4E31 		.ascii	"_ZN10I2C_device18max_readback_bytesE\000"
 7139      30493243 
 7139      5F646576 
ARM GAS  C:\Users\Chuck\AppData\Local\Temp\ccNCRqO6.s 			page 152


 7139      69636531 
 7139      386D6178 
 7140              	.LASF158:
 7141 0d99 5F5A4E38 		.ascii	"_ZN8std_msgs16MultiArrayLayout7getTypeEv\000"
 7141      7374645F 
 7141      6D736773 
 7141      31364D75 
 7141      6C746941 
 7142              	.LASF192:
 7143 0dc2 2E5C726F 		.ascii	".\\ros_lib\\examples\\I2C\\I2C_device.cpp\000"
 7143      735F6C69 
 7143      625C6578 
 7143      616D706C 
 7143      65735C49 
 7144              	.LASF176:
 7145 0de8 6C656E67 		.ascii	"length_label\000"
 7145      74685F6C 
 7145      6162656C 
 7145      00
 7146              	.LASF95:
 7147 0df5 696E6974 		.ascii	"init\000"
 7147      00
 7148              	.LASF21:
 7149 0dfa 73697A65 		.ascii	"sizetype\000"
 7149      74797065 
 7149      00
 7150              	.LASF9:
 7151 0e03 6C6F6E67 		.ascii	"long unsigned int\000"
 7151      20756E73 
 7151      69676E65 
 7151      6420696E 
 7151      7400
 7152              	.LASF31:
 7153 0e15 5F767074 		.ascii	"_vptr.Msg\000"
 7153      722E4D73 
 7153      6700
 7154              	.LASF85:
 7155 0e1f 5F5A4E31 		.ascii	"_ZN14rosserial_msgs9TopicInfo11deserializeEPh\000"
 7155      34726F73 
 7155      73657269 
 7155      616C5F6D 
 7155      73677339 
 7156              	.LASF15:
 7157 0e4d 696E7433 		.ascii	"int32_t\000"
 7157      325F7400 
 7158              	.LASF55:
 7159 0e55 53756273 		.ascii	"Subscriber_\000"
 7159      63726962 
 7159      65725F00 
 7160              	.LASF118:
 7161 0e61 7265706C 		.ascii	"reply_msg\000"
 7161      795F6D73 
 7161      6700
 7162              	.LASF86:
 7163 0e6b 5F5A4E31 		.ascii	"_ZN14rosserial_msgs9TopicInfo7getTypeEv\000"
 7163      34726F73 
 7163      73657269 
ARM GAS  C:\Users\Chuck\AppData\Local\Temp\ccNCRqO6.s 			page 153


 7163      616C5F6D 
 7163      73677339 
 7164              	.LASF90:
 7165 0e93 62617564 		.ascii	"baud_\000"
 7165      5F00
 7166              	.LASF164:
 7167 0e99 7E4D756C 		.ascii	"~MultiArrayDimension\000"
 7167      74694172 
 7167      72617944 
 7167      696D656E 
 7167      73696F6E 
 7168              	.LASF87:
 7169 0eae 5F5A4E31 		.ascii	"_ZN14rosserial_msgs9TopicInfo6getMD5Ev\000"
 7169      34726F73 
 7169      73657269 
 7169      616C5F6D 
 7169      73677339 
 7170              	.LASF1:
 7171 0ed5 756E7369 		.ascii	"unsigned char\000"
 7171      676E6564 
 7171      20636861 
 7171      7200
 7172              	.LASF114:
 7173 0ee3 73657475 		.ascii	"setup\000"
 7173      7000
 7174              	.LASF8:
 7175 0ee9 5F5F7569 		.ascii	"__uint32_t\000"
 7175      6E743332 
 7175      5F7400
 7176              	.LASF80:
 7177 0ef4 746F7069 		.ascii	"topic_name\000"
 7177      635F6E61 
 7177      6D6500
 7178              	.LASF131:
 7179 0eff 5F5A4E31 		.ascii	"_ZN10I2C_device5stateE\000"
 7179      30493243 
 7179      5F646576 
 7179      69636535 
 7179      73746174 
 7180              	.LASF154:
 7181 0f16 64617461 		.ascii	"data_offset\000"
 7181      5F6F6666 
 7181      73657400 
 7182              	.LASF77:
 7183 0f22 49445F50 		.ascii	"ID_PUBLISHER\000"
 7183      55424C49 
 7183      53484552 
 7183      00
 7184              	.LASF130:
 7185 0f2f 73746174 		.ascii	"state\000"
 7185      6500
 7186              	.LASF134:
 7187 0f35 636D645F 		.ascii	"cmd_sub_r\000"
 7187      7375625F 
 7187      7200
 7188              	.LASF58:
 7189 0f3f 63616C6C 		.ascii	"callback\000"
ARM GAS  C:\Users\Chuck\AppData\Local\Temp\ccNCRqO6.s 			page 154


 7189      6261636B 
 7189      00
 7190              	.LASF132:
 7191 0f48 636D645F 		.ascii	"cmd_sub_w\000"
 7191      7375625F 
 7191      7700
 7192              	.LASF26:
 7193 0f52 5F5A4E33 		.ascii	"_ZN3ros9Publisher7publishEPKNS_3MsgE\000"
 7193      726F7339 
 7193      5075626C 
 7193      69736865 
 7193      72377075 
 7194              	.LASF41:
 7195 0f77 73657269 		.ascii	"serializeAvrFloat64\000"
 7195      616C697A 
 7195      65417672 
 7195      466C6F61 
 7195      74363400 
 7196              	.LASF45:
 7197 0f8b 53756273 		.ascii	"Subscriber<std_msgs::UInt8MultiArray>\000"
 7197      63726962 
 7197      65723C73 
 7197      74645F6D 
 7197      7367733A 
 7198              	.LASF110:
 7199 0fb1 77726974 		.ascii	"writeMessageCb\000"
 7199      654D6573 
 7199      73616765 
 7199      436200
 7200              	.LASF159:
 7201 0fc0 5F5A4E38 		.ascii	"_ZN8std_msgs16MultiArrayLayout6getMD5Ev\000"
 7201      7374645F 
 7201      6D736773 
 7201      31364D75 
 7201      6C746941 
 7202              	.LASF0:
 7203 0fe8 7369676E 		.ascii	"signed char\000"
 7203      65642063 
 7203      68617200 
 7204              	.LASF65:
 7205 0ff4 73756273 		.ascii	"subscribe<std_msgs::UInt8MultiArray>\000"
 7205      63726962 
 7205      653C7374 
 7205      645F6D73 
 7205      67733A3A 
 7206              	.LASF5:
 7207 1019 73686F72 		.ascii	"short unsigned int\000"
 7207      7420756E 
 7207      7369676E 
 7207      65642069 
 7207      6E7400
 7208              	.LASF24:
 7209 102c 6D73675F 		.ascii	"msg_\000"
 7209      00
 7210              	.LASF23:
 7211 1031 746F7069 		.ascii	"topic_\000"
 7211      635F00
ARM GAS  C:\Users\Chuck\AppData\Local\Temp\ccNCRqO6.s 			page 155


 7212              	.LASF105:
 7213 1038 4932435F 		.ascii	"I2C_device\000"
 7213      64657669 
 7213      636500
 7214              	.LASF19:
 7215 1043 646F7562 		.ascii	"double\000"
 7215      6C6500
 7216              	.LASF38:
 7217 104a 5F5A4E33 		.ascii	"_ZN3ros3Msg7getTypeEv\000"
 7217      726F7333 
 7217      4D736737 
 7217      67657454 
 7217      79706545 
 7218              	.LASF155:
 7219 1060 7E4D756C 		.ascii	"~MultiArrayLayout\000"
 7219      74694172 
 7219      7261794C 
 7219      61796F75 
 7219      7400
 7220              	.LASF142:
 7221 1072 6C61796F 		.ascii	"layout\000"
 7221      757400
 7222              	.LASF117:
 7223 1079 5F5A4E31 		.ascii	"_ZN10I2C_device4loopEv\000"
 7223      30493243 
 7223      5F646576 
 7223      69636534 
 7223      6C6F6F70 
 7224              	.LASF84:
 7225 1090 5F5A4E4B 		.ascii	"_ZNK14rosserial_msgs9TopicInfo9serializeEPh\000"
 7225      3134726F 
 7225      73736572 
 7225      69616C5F 
 7225      6D736773 
 7226              	.LASF170:
 7227 10bc 656E6470 		.ascii	"endpoint\000"
 7227      6F696E74 
 7227      00
 7228              	.LASF93:
 7229 10c5 67657442 		.ascii	"getBaud\000"
 7229      61756400 
 7230              	.LASF89:
 7231 10cd 696F7374 		.ascii	"iostream\000"
 7231      7265616D 
 7231      00
 7232              	.LASF149:
 7233 10d6 5F5A4E38 		.ascii	"_ZN8std_msgs15UInt8MultiArray7getTypeEv\000"
 7233      7374645F 
 7233      6D736773 
 7233      31355549 
 7233      6E74384D 
 7234              	.LASF72:
 7235 10fe 494E5055 		.ascii	"INPUT_SIZE\000"
 7235      545F5349 
 7235      5A4500
 7236              	.LASF71:
 7237 1109 4D41585F 		.ascii	"MAX_PUBLISHERS\000"
ARM GAS  C:\Users\Chuck\AppData\Local\Temp\ccNCRqO6.s 			page 156


 7237      5055424C 
 7237      49534845 
 7237      525300
 7238              	.LASF48:
 7239 1118 6362705F 		.ascii	"cbp_\000"
 7239      00
 7240              		.ident	"GCC: (GNU Tools for ARM Embedded Processors) 4.9.3 20150303 (release) [ARM/embedded-4_9-br
