ARM GAS  C:\Users\Chuck\AppData\Local\Temp\cc5X170Y.s 			page 1


   1              		.cpu cortex-m0
   2              		.fpu softvfp
   3              		.eabi_attribute 20, 1
   4              		.eabi_attribute 21, 1
   5              		.eabi_attribute 23, 3
   6              		.eabi_attribute 24, 1
   7              		.eabi_attribute 25, 1
   8              		.eabi_attribute 26, 1
   9              		.eabi_attribute 30, 6
  10              		.eabi_attribute 34, 0
  11              		.eabi_attribute 18, 4
  12              		.code	16
  13              		.file	"main.cpp"
  14              		.text
  15              	.Ltext0:
  16              		.cfi_sections	.debug_frame
  17              		.section	.text._ZN3ros4TimeC2Ev,"axG",%progbits,_ZN3ros4TimeC5Ev,comdat
  18              		.align	2
  19              		.weak	_ZN3ros4TimeC2Ev
  20              		.code	16
  21              		.thumb_func
  22              		.type	_ZN3ros4TimeC2Ev, %function
  23              	_ZN3ros4TimeC2Ev:
  24              	.LFB11:
  25              		.file 1 "./ros_lib/ros/time.h"
   1:./ros_lib/ros/time.h **** /* 
   2:./ros_lib/ros/time.h ****  * Software License Agreement (BSD License)
   3:./ros_lib/ros/time.h ****  *
   4:./ros_lib/ros/time.h ****  * Copyright (c) 2011, Willow Garage, Inc.
   5:./ros_lib/ros/time.h ****  * All rights reserved.
   6:./ros_lib/ros/time.h ****  *
   7:./ros_lib/ros/time.h ****  * Redistribution and use in source and binary forms, with or without
   8:./ros_lib/ros/time.h ****  * modification, are permitted provided that the following conditions
   9:./ros_lib/ros/time.h ****  * are met:
  10:./ros_lib/ros/time.h ****  *
  11:./ros_lib/ros/time.h ****  *  * Redistributions of source code must retain the above copyright
  12:./ros_lib/ros/time.h ****  *    notice, this list of conditions and the following disclaimer.
  13:./ros_lib/ros/time.h ****  *  * Redistributions in binary form must reproduce the above
  14:./ros_lib/ros/time.h ****  *    copyright notice, this list of conditions and the following
  15:./ros_lib/ros/time.h ****  *    disclaimer in the documentation and/or other materials provided
  16:./ros_lib/ros/time.h ****  *    with the distribution.
  17:./ros_lib/ros/time.h ****  *  * Neither the name of Willow Garage, Inc. nor the names of its
  18:./ros_lib/ros/time.h ****  *    contributors may be used to endorse or promote prducts derived
  19:./ros_lib/ros/time.h ****  *    from this software without specific prior written permission.
  20:./ros_lib/ros/time.h ****  *
  21:./ros_lib/ros/time.h ****  * THIS SOFTWARE IS PROVIDED BY THE COPYRIGHT HOLDERS AND CONTRIBUTORS
  22:./ros_lib/ros/time.h ****  * "AS IS" AND ANY EXPRESS OR IMPLIED WARRANTIES, INCLUDING, BUT NOT
  23:./ros_lib/ros/time.h ****  * LIMITED TO, THE IMPLIED WARRANTIES OF MERCHANTABILITY AND FITNESS
  24:./ros_lib/ros/time.h ****  * FOR A PARTICULAR PURPOSE ARE DISCLAIMED. IN NO EVENT SHALL THE
  25:./ros_lib/ros/time.h ****  * COPYRIGHT OWNER OR CONTRIBUTORS BE LIABLE FOR ANY DIRECT, INDIRECT,
  26:./ros_lib/ros/time.h ****  * INCIDENTAL, SPECIAL, EXEMPLARY, OR CONSEQUENTIAL DAMAGES (INCLUDING,
  27:./ros_lib/ros/time.h ****  * BUT NOT LIMITED TO, PROCUREMENT OF SUBSTITUTE GOODS OR SERVICES;
  28:./ros_lib/ros/time.h ****  * LOSS OF USE, DATA, OR PROFITS; OR BUSINESS INTERRUPTION) HOWEVER
  29:./ros_lib/ros/time.h ****  * CAUSED AND ON ANY THEORY OF LIABILITY, WHETHER IN CONTRACT, STRICT
  30:./ros_lib/ros/time.h ****  * LIABILITY, OR TORT (INCLUDING NEGLIGENCE OR OTHERWISE) ARISING IN
  31:./ros_lib/ros/time.h ****  * ANY WAY OUT OF THE USE OF THIS SOFTWARE, EVEN IF ADVISED OF THE
  32:./ros_lib/ros/time.h ****  * POSSIBILITY OF SUCH DAMAGE.
ARM GAS  C:\Users\Chuck\AppData\Local\Temp\cc5X170Y.s 			page 2


  33:./ros_lib/ros/time.h ****  */
  34:./ros_lib/ros/time.h **** 
  35:./ros_lib/ros/time.h **** #ifndef ROS_TIME_H_
  36:./ros_lib/ros/time.h **** #define ROS_TIME_H_
  37:./ros_lib/ros/time.h **** 
  38:./ros_lib/ros/time.h **** #include <ros/duration.h>
  39:./ros_lib/ros/time.h **** #include <math.h>
  40:./ros_lib/ros/time.h **** 
  41:./ros_lib/ros/time.h **** 
  42:./ros_lib/ros/time.h **** namespace ros
  43:./ros_lib/ros/time.h **** {
  44:./ros_lib/ros/time.h ****   void normalizeSecNSec(unsigned long &sec, unsigned long &nsec);
  45:./ros_lib/ros/time.h **** 
  46:./ros_lib/ros/time.h ****   class Time
  47:./ros_lib/ros/time.h ****   {
  48:./ros_lib/ros/time.h ****     public:
  49:./ros_lib/ros/time.h ****       unsigned long sec, nsec;
  50:./ros_lib/ros/time.h **** 
  51:./ros_lib/ros/time.h ****       Time() : sec(0), nsec(0) {}
  26              		.loc 1 51 0
  27              		.cfi_startproc
  28 0000 80B5     		push	{r7, lr}
  29              		.cfi_def_cfa_offset 8
  30              		.cfi_offset 7, -8
  31              		.cfi_offset 14, -4
  32 0002 82B0     		sub	sp, sp, #8
  33              		.cfi_def_cfa_offset 16
  34 0004 00AF     		add	r7, sp, #0
  35              		.cfi_def_cfa_register 7
  36 0006 7860     		str	r0, [r7, #4]
  37              	.LBB2:
  38              		.loc 1 51 0
  39 0008 7B68     		ldr	r3, [r7, #4]
  40 000a 0022     		mov	r2, #0
  41 000c 1A60     		str	r2, [r3]
  42 000e 7B68     		ldr	r3, [r7, #4]
  43 0010 0022     		mov	r2, #0
  44 0012 5A60     		str	r2, [r3, #4]
  45              	.LBE2:
  46 0014 7B68     		ldr	r3, [r7, #4]
  47 0016 181C     		mov	r0, r3
  48 0018 BD46     		mov	sp, r7
  49 001a 02B0     		add	sp, sp, #8
  50              		@ sp needed
  51 001c 80BD     		pop	{r7, pc}
  52              		.cfi_endproc
  53              	.LFE11:
  54              		.size	_ZN3ros4TimeC2Ev, .-_ZN3ros4TimeC2Ev
  55              		.weak	_ZN3ros4TimeC1Ev
  56              		.thumb_set _ZN3ros4TimeC1Ev,_ZN3ros4TimeC2Ev
  57 001e C046     		.section	.text._ZN3ros3MsgC2Ev,"axG",%progbits,_ZN3ros3MsgC5Ev,comdat
  58              		.align	2
  59              		.weak	_ZN3ros3MsgC2Ev
  60              		.code	16
  61              		.thumb_func
  62              		.type	_ZN3ros3MsgC2Ev, %function
  63              	_ZN3ros3MsgC2Ev:
ARM GAS  C:\Users\Chuck\AppData\Local\Temp\cc5X170Y.s 			page 3


  64              	.LFB21:
  65              		.file 2 "./ros_lib/ros/msg.h"
   1:./ros_lib/ros/msg.h **** /* 
   2:./ros_lib/ros/msg.h ****  * Software License Agreement (BSD License)
   3:./ros_lib/ros/msg.h ****  *
   4:./ros_lib/ros/msg.h ****  * Copyright (c) 2011, Willow Garage, Inc.
   5:./ros_lib/ros/msg.h ****  * All rights reserved.
   6:./ros_lib/ros/msg.h ****  *
   7:./ros_lib/ros/msg.h ****  * Redistribution and use in source and binary forms, with or without
   8:./ros_lib/ros/msg.h ****  * modification, are permitted provided that the following conditions
   9:./ros_lib/ros/msg.h ****  * are met:
  10:./ros_lib/ros/msg.h ****  *
  11:./ros_lib/ros/msg.h ****  *  * Redistributions of source code must retain the above copyright
  12:./ros_lib/ros/msg.h ****  *    notice, this list of conditions and the following disclaimer.
  13:./ros_lib/ros/msg.h ****  *  * Redistributions in binary form must reproduce the above
  14:./ros_lib/ros/msg.h ****  *    copyright notice, this list of conditions and the following
  15:./ros_lib/ros/msg.h ****  *    disclaimer in the documentation and/or other materials provided
  16:./ros_lib/ros/msg.h ****  *    with the distribution.
  17:./ros_lib/ros/msg.h ****  *  * Neither the name of Willow Garage, Inc. nor the names of its
  18:./ros_lib/ros/msg.h ****  *    contributors may be used to endorse or promote prducts derived
  19:./ros_lib/ros/msg.h ****  *    from this software without specific prior written permission.
  20:./ros_lib/ros/msg.h ****  *
  21:./ros_lib/ros/msg.h ****  * THIS SOFTWARE IS PROVIDED BY THE COPYRIGHT HOLDERS AND CONTRIBUTORS
  22:./ros_lib/ros/msg.h ****  * "AS IS" AND ANY EXPRESS OR IMPLIED WARRANTIES, INCLUDING, BUT NOT
  23:./ros_lib/ros/msg.h ****  * LIMITED TO, THE IMPLIED WARRANTIES OF MERCHANTABILITY AND FITNESS
  24:./ros_lib/ros/msg.h ****  * FOR A PARTICULAR PURPOSE ARE DISCLAIMED. IN NO EVENT SHALL THE
  25:./ros_lib/ros/msg.h ****  * COPYRIGHT OWNER OR CONTRIBUTORS BE LIABLE FOR ANY DIRECT, INDIRECT,
  26:./ros_lib/ros/msg.h ****  * INCIDENTAL, SPECIAL, EXEMPLARY, OR CONSEQUENTIAL DAMAGES (INCLUDING,
  27:./ros_lib/ros/msg.h ****  * BUT NOT LIMITED TO, PROCUREMENT OF SUBSTITUTE GOODS OR SERVICES;
  28:./ros_lib/ros/msg.h ****  * LOSS OF USE, DATA, OR PROFITS; OR BUSINESS INTERRUPTION) HOWEVER
  29:./ros_lib/ros/msg.h ****  * CAUSED AND ON ANY THEORY OF LIABILITY, WHETHER IN CONTRACT, STRICT
  30:./ros_lib/ros/msg.h ****  * LIABILITY, OR TORT (INCLUDING NEGLIGENCE OR OTHERWISE) ARISING IN
  31:./ros_lib/ros/msg.h ****  * ANY WAY OUT OF THE USE OF THIS SOFTWARE, EVEN IF ADVISED OF THE
  32:./ros_lib/ros/msg.h ****  * POSSIBILITY OF SUCH DAMAGE.
  33:./ros_lib/ros/msg.h ****  */
  34:./ros_lib/ros/msg.h **** 
  35:./ros_lib/ros/msg.h **** #ifndef _ROS_MSG_H_
  36:./ros_lib/ros/msg.h **** #define _ROS_MSG_H_
  37:./ros_lib/ros/msg.h **** 
  38:./ros_lib/ros/msg.h **** #include <stdint.h>
  39:./ros_lib/ros/msg.h **** 
  40:./ros_lib/ros/msg.h **** namespace ros {
  41:./ros_lib/ros/msg.h **** 
  42:./ros_lib/ros/msg.h **** /* Base Message Type */
  43:./ros_lib/ros/msg.h **** class Msg
  66              		.loc 2 43 0
  67              		.cfi_startproc
  68 0000 80B5     		push	{r7, lr}
  69              		.cfi_def_cfa_offset 8
  70              		.cfi_offset 7, -8
  71              		.cfi_offset 14, -4
  72 0002 82B0     		sub	sp, sp, #8
  73              		.cfi_def_cfa_offset 16
  74 0004 00AF     		add	r7, sp, #0
  75              		.cfi_def_cfa_register 7
  76 0006 7860     		str	r0, [r7, #4]
  77              	.LBB3:
ARM GAS  C:\Users\Chuck\AppData\Local\Temp\cc5X170Y.s 			page 4


  78              		.loc 2 43 0
  79 0008 7B68     		ldr	r3, [r7, #4]
  80 000a 034A     		ldr	r2, .L7
  81 000c 1A60     		str	r2, [r3]
  82              	.LBE3:
  83 000e 7B68     		ldr	r3, [r7, #4]
  84 0010 181C     		mov	r0, r3
  85 0012 BD46     		mov	sp, r7
  86 0014 02B0     		add	sp, sp, #8
  87              		@ sp needed
  88 0016 80BD     		pop	{r7, pc}
  89              	.L8:
  90              		.align	2
  91              	.L7:
  92 0018 08000000 		.word	_ZTVN3ros3MsgE+8
  93              		.cfi_endproc
  94              	.LFE21:
  95              		.size	_ZN3ros3MsgC2Ev, .-_ZN3ros3MsgC2Ev
  96              		.weak	_ZN3ros3MsgC1Ev
  97              		.thumb_set _ZN3ros3MsgC1Ev,_ZN3ros3MsgC2Ev
  98              		.section	.text._ZN8std_msgs4TimeC2Ev,"axG",%progbits,_ZN8std_msgs4TimeC5Ev,comdat
  99              		.align	2
 100              		.weak	_ZN8std_msgs4TimeC2Ev
 101              		.code	16
 102              		.thumb_func
 103              		.type	_ZN8std_msgs4TimeC2Ev, %function
 104              	_ZN8std_msgs4TimeC2Ev:
 105              	.LFB23:
 106              		.file 3 "./ros_lib/std_msgs/Time.h"
   1:./ros_lib/std_msgs/Time.h **** #ifndef _ROS_std_msgs_Time_h
   2:./ros_lib/std_msgs/Time.h **** #define _ROS_std_msgs_Time_h
   3:./ros_lib/std_msgs/Time.h **** 
   4:./ros_lib/std_msgs/Time.h **** #include <stdint.h>
   5:./ros_lib/std_msgs/Time.h **** #include <string.h>
   6:./ros_lib/std_msgs/Time.h **** #include <stdlib.h>
   7:./ros_lib/std_msgs/Time.h **** #include "ros/msg.h"
   8:./ros_lib/std_msgs/Time.h **** #include "ros/time.h"
   9:./ros_lib/std_msgs/Time.h **** 
  10:./ros_lib/std_msgs/Time.h **** namespace std_msgs
  11:./ros_lib/std_msgs/Time.h **** {
  12:./ros_lib/std_msgs/Time.h **** 
  13:./ros_lib/std_msgs/Time.h ****   class Time : public ros::Msg
  14:./ros_lib/std_msgs/Time.h ****   {
  15:./ros_lib/std_msgs/Time.h ****     public:
  16:./ros_lib/std_msgs/Time.h ****       ros::Time data;
  17:./ros_lib/std_msgs/Time.h **** 
  18:./ros_lib/std_msgs/Time.h ****     Time():
 107              		.loc 3 18 0
 108              		.cfi_startproc
 109 0000 80B5     		push	{r7, lr}
 110              		.cfi_def_cfa_offset 8
 111              		.cfi_offset 7, -8
 112              		.cfi_offset 14, -4
 113 0002 82B0     		sub	sp, sp, #8
 114              		.cfi_def_cfa_offset 16
 115 0004 00AF     		add	r7, sp, #0
 116              		.cfi_def_cfa_register 7
ARM GAS  C:\Users\Chuck\AppData\Local\Temp\cc5X170Y.s 			page 5


 117 0006 7860     		str	r0, [r7, #4]
 118              	.LBB4:
  19:./ros_lib/std_msgs/Time.h ****       data()
 119              		.loc 3 19 0
 120 0008 7B68     		ldr	r3, [r7, #4]
 121 000a 181C     		mov	r0, r3
 122 000c FFF7FEFF 		bl	_ZN3ros3MsgC2Ev
 123 0010 7B68     		ldr	r3, [r7, #4]
 124 0012 064A     		ldr	r2, .L12
 125 0014 1A60     		str	r2, [r3]
 126 0016 7B68     		ldr	r3, [r7, #4]
 127 0018 0433     		add	r3, r3, #4
 128 001a 181C     		mov	r0, r3
 129 001c FFF7FEFF 		bl	_ZN3ros4TimeC1Ev
 130              	.LBE4:
  20:./ros_lib/std_msgs/Time.h ****     {
  21:./ros_lib/std_msgs/Time.h ****     }
 131              		.loc 3 21 0
 132 0020 7B68     		ldr	r3, [r7, #4]
 133 0022 181C     		mov	r0, r3
 134 0024 BD46     		mov	sp, r7
 135 0026 02B0     		add	sp, sp, #8
 136              		@ sp needed
 137 0028 80BD     		pop	{r7, pc}
 138              	.L13:
 139 002a C046     		.align	2
 140              	.L12:
 141 002c 08000000 		.word	_ZTVN8std_msgs4TimeE+8
 142              		.cfi_endproc
 143              	.LFE23:
 144              		.size	_ZN8std_msgs4TimeC2Ev, .-_ZN8std_msgs4TimeC2Ev
 145              		.weak	_ZN8std_msgs4TimeC1Ev
 146              		.thumb_set _ZN8std_msgs4TimeC1Ev,_ZN8std_msgs4TimeC2Ev
 147              		.section	.text._ZNK8std_msgs4Time9serializeEPh,"axG",%progbits,_ZNK8std_msgs4Time9serializeEPh,com
 148              		.align	2
 149              		.weak	_ZNK8std_msgs4Time9serializeEPh
 150              		.code	16
 151              		.thumb_func
 152              		.type	_ZNK8std_msgs4Time9serializeEPh, %function
 153              	_ZNK8std_msgs4Time9serializeEPh:
 154              	.LFB25:
  22:./ros_lib/std_msgs/Time.h **** 
  23:./ros_lib/std_msgs/Time.h ****     virtual int serialize(unsigned char *outbuffer) const
 155              		.loc 3 23 0
 156              		.cfi_startproc
 157 0000 80B5     		push	{r7, lr}
 158              		.cfi_def_cfa_offset 8
 159              		.cfi_offset 7, -8
 160              		.cfi_offset 14, -4
 161 0002 84B0     		sub	sp, sp, #16
 162              		.cfi_def_cfa_offset 24
 163 0004 00AF     		add	r7, sp, #0
 164              		.cfi_def_cfa_register 7
 165 0006 7860     		str	r0, [r7, #4]
 166 0008 3960     		str	r1, [r7]
 167              	.LBB5:
  24:./ros_lib/std_msgs/Time.h ****     {
ARM GAS  C:\Users\Chuck\AppData\Local\Temp\cc5X170Y.s 			page 6


  25:./ros_lib/std_msgs/Time.h ****       int offset = 0;
 168              		.loc 3 25 0
 169 000a 0023     		mov	r3, #0
 170 000c FB60     		str	r3, [r7, #12]
  26:./ros_lib/std_msgs/Time.h **** #ifndef ROS_MSG_DONT_SERIALIZE
  27:./ros_lib/std_msgs/Time.h ****       *(outbuffer + offset + 0) = (this->data.sec >> (8 * 0)) & 0xFF;
 171              		.loc 3 27 0
 172 000e FB68     		ldr	r3, [r7, #12]
 173 0010 3A68     		ldr	r2, [r7]
 174 0012 D218     		add	r2, r2, r3
 175 0014 7B68     		ldr	r3, [r7, #4]
 176 0016 5B68     		ldr	r3, [r3, #4]
 177 0018 DBB2     		uxtb	r3, r3
 178 001a 1370     		strb	r3, [r2]
  28:./ros_lib/std_msgs/Time.h ****       *(outbuffer + offset + 1) = (this->data.sec >> (8 * 1)) & 0xFF;
 179              		.loc 3 28 0
 180 001c FB68     		ldr	r3, [r7, #12]
 181 001e 0133     		add	r3, r3, #1
 182 0020 3A68     		ldr	r2, [r7]
 183 0022 D218     		add	r2, r2, r3
 184 0024 7B68     		ldr	r3, [r7, #4]
 185 0026 5B68     		ldr	r3, [r3, #4]
 186 0028 1B0A     		lsr	r3, r3, #8
 187 002a DBB2     		uxtb	r3, r3
 188 002c 1370     		strb	r3, [r2]
  29:./ros_lib/std_msgs/Time.h ****       *(outbuffer + offset + 2) = (this->data.sec >> (8 * 2)) & 0xFF;
 189              		.loc 3 29 0
 190 002e FB68     		ldr	r3, [r7, #12]
 191 0030 0233     		add	r3, r3, #2
 192 0032 3A68     		ldr	r2, [r7]
 193 0034 D218     		add	r2, r2, r3
 194 0036 7B68     		ldr	r3, [r7, #4]
 195 0038 5B68     		ldr	r3, [r3, #4]
 196 003a 1B0C     		lsr	r3, r3, #16
 197 003c DBB2     		uxtb	r3, r3
 198 003e 1370     		strb	r3, [r2]
  30:./ros_lib/std_msgs/Time.h ****       *(outbuffer + offset + 3) = (this->data.sec >> (8 * 3)) & 0xFF;
 199              		.loc 3 30 0
 200 0040 FB68     		ldr	r3, [r7, #12]
 201 0042 0333     		add	r3, r3, #3
 202 0044 3A68     		ldr	r2, [r7]
 203 0046 D218     		add	r2, r2, r3
 204 0048 7B68     		ldr	r3, [r7, #4]
 205 004a 5B68     		ldr	r3, [r3, #4]
 206 004c 1B0E     		lsr	r3, r3, #24
 207 004e DBB2     		uxtb	r3, r3
 208 0050 1370     		strb	r3, [r2]
  31:./ros_lib/std_msgs/Time.h ****       offset += sizeof(this->data.sec);
 209              		.loc 3 31 0
 210 0052 FB68     		ldr	r3, [r7, #12]
 211 0054 0433     		add	r3, r3, #4
 212 0056 FB60     		str	r3, [r7, #12]
  32:./ros_lib/std_msgs/Time.h ****       *(outbuffer + offset + 0) = (this->data.nsec >> (8 * 0)) & 0xFF;
 213              		.loc 3 32 0
 214 0058 FB68     		ldr	r3, [r7, #12]
 215 005a 3A68     		ldr	r2, [r7]
 216 005c D218     		add	r2, r2, r3
ARM GAS  C:\Users\Chuck\AppData\Local\Temp\cc5X170Y.s 			page 7


 217 005e 7B68     		ldr	r3, [r7, #4]
 218 0060 9B68     		ldr	r3, [r3, #8]
 219 0062 DBB2     		uxtb	r3, r3
 220 0064 1370     		strb	r3, [r2]
  33:./ros_lib/std_msgs/Time.h ****       *(outbuffer + offset + 1) = (this->data.nsec >> (8 * 1)) & 0xFF;
 221              		.loc 3 33 0
 222 0066 FB68     		ldr	r3, [r7, #12]
 223 0068 0133     		add	r3, r3, #1
 224 006a 3A68     		ldr	r2, [r7]
 225 006c D218     		add	r2, r2, r3
 226 006e 7B68     		ldr	r3, [r7, #4]
 227 0070 9B68     		ldr	r3, [r3, #8]
 228 0072 1B0A     		lsr	r3, r3, #8
 229 0074 DBB2     		uxtb	r3, r3
 230 0076 1370     		strb	r3, [r2]
  34:./ros_lib/std_msgs/Time.h ****       *(outbuffer + offset + 2) = (this->data.nsec >> (8 * 2)) & 0xFF;
 231              		.loc 3 34 0
 232 0078 FB68     		ldr	r3, [r7, #12]
 233 007a 0233     		add	r3, r3, #2
 234 007c 3A68     		ldr	r2, [r7]
 235 007e D218     		add	r2, r2, r3
 236 0080 7B68     		ldr	r3, [r7, #4]
 237 0082 9B68     		ldr	r3, [r3, #8]
 238 0084 1B0C     		lsr	r3, r3, #16
 239 0086 DBB2     		uxtb	r3, r3
 240 0088 1370     		strb	r3, [r2]
  35:./ros_lib/std_msgs/Time.h ****       *(outbuffer + offset + 3) = (this->data.nsec >> (8 * 3)) & 0xFF;
 241              		.loc 3 35 0
 242 008a FB68     		ldr	r3, [r7, #12]
 243 008c 0333     		add	r3, r3, #3
 244 008e 3A68     		ldr	r2, [r7]
 245 0090 D218     		add	r2, r2, r3
 246 0092 7B68     		ldr	r3, [r7, #4]
 247 0094 9B68     		ldr	r3, [r3, #8]
 248 0096 1B0E     		lsr	r3, r3, #24
 249 0098 DBB2     		uxtb	r3, r3
 250 009a 1370     		strb	r3, [r2]
  36:./ros_lib/std_msgs/Time.h ****       offset += sizeof(this->data.nsec);
 251              		.loc 3 36 0
 252 009c FB68     		ldr	r3, [r7, #12]
 253 009e 0433     		add	r3, r3, #4
 254 00a0 FB60     		str	r3, [r7, #12]
  37:./ros_lib/std_msgs/Time.h **** #endif
  38:./ros_lib/std_msgs/Time.h ****       return offset;
 255              		.loc 3 38 0
 256 00a2 FB68     		ldr	r3, [r7, #12]
 257              	.LBE5:
  39:./ros_lib/std_msgs/Time.h ****     }
 258              		.loc 3 39 0
 259 00a4 181C     		mov	r0, r3
 260 00a6 BD46     		mov	sp, r7
 261 00a8 04B0     		add	sp, sp, #16
 262              		@ sp needed
 263 00aa 80BD     		pop	{r7, pc}
 264              		.cfi_endproc
 265              	.LFE25:
 266              		.size	_ZNK8std_msgs4Time9serializeEPh, .-_ZNK8std_msgs4Time9serializeEPh
ARM GAS  C:\Users\Chuck\AppData\Local\Temp\cc5X170Y.s 			page 8


 267              		.section	.text._ZN8std_msgs4Time11deserializeEPh,"axG",%progbits,_ZN8std_msgs4Time11deserializeEPh
 268              		.align	2
 269              		.weak	_ZN8std_msgs4Time11deserializeEPh
 270              		.code	16
 271              		.thumb_func
 272              		.type	_ZN8std_msgs4Time11deserializeEPh, %function
 273              	_ZN8std_msgs4Time11deserializeEPh:
 274              	.LFB26:
  40:./ros_lib/std_msgs/Time.h **** 
  41:./ros_lib/std_msgs/Time.h ****     virtual int deserialize(unsigned char *inbuffer)
 275              		.loc 3 41 0
 276              		.cfi_startproc
 277 0000 80B5     		push	{r7, lr}
 278              		.cfi_def_cfa_offset 8
 279              		.cfi_offset 7, -8
 280              		.cfi_offset 14, -4
 281 0002 84B0     		sub	sp, sp, #16
 282              		.cfi_def_cfa_offset 24
 283 0004 00AF     		add	r7, sp, #0
 284              		.cfi_def_cfa_register 7
 285 0006 7860     		str	r0, [r7, #4]
 286 0008 3960     		str	r1, [r7]
 287              	.LBB6:
  42:./ros_lib/std_msgs/Time.h ****     {
  43:./ros_lib/std_msgs/Time.h ****       int offset = 0;
 288              		.loc 3 43 0
 289 000a 0023     		mov	r3, #0
 290 000c FB60     		str	r3, [r7, #12]
  44:./ros_lib/std_msgs/Time.h **** #ifndef ROS_MSG_DONT_DESERIALIZE
  45:./ros_lib/std_msgs/Time.h ****       this->data.sec =  ((uint32_t) (*(inbuffer + offset)));
 291              		.loc 3 45 0
 292 000e FB68     		ldr	r3, [r7, #12]
 293 0010 3A68     		ldr	r2, [r7]
 294 0012 D318     		add	r3, r2, r3
 295 0014 1B78     		ldrb	r3, [r3]
 296 0016 1A1C     		mov	r2, r3
 297 0018 7B68     		ldr	r3, [r7, #4]
 298 001a 5A60     		str	r2, [r3, #4]
  46:./ros_lib/std_msgs/Time.h ****       this->data.sec |= ((uint32_t) (*(inbuffer + offset + 1))) << (8 * 1);
 299              		.loc 3 46 0
 300 001c 7B68     		ldr	r3, [r7, #4]
 301 001e 5A68     		ldr	r2, [r3, #4]
 302 0020 FB68     		ldr	r3, [r7, #12]
 303 0022 0133     		add	r3, r3, #1
 304 0024 3968     		ldr	r1, [r7]
 305 0026 CB18     		add	r3, r1, r3
 306 0028 1B78     		ldrb	r3, [r3]
 307 002a 1B02     		lsl	r3, r3, #8
 308 002c 1A43     		orr	r2, r3
 309 002e 7B68     		ldr	r3, [r7, #4]
 310 0030 5A60     		str	r2, [r3, #4]
  47:./ros_lib/std_msgs/Time.h ****       this->data.sec |= ((uint32_t) (*(inbuffer + offset + 2))) << (8 * 2);
 311              		.loc 3 47 0
 312 0032 7B68     		ldr	r3, [r7, #4]
 313 0034 5A68     		ldr	r2, [r3, #4]
 314 0036 FB68     		ldr	r3, [r7, #12]
 315 0038 0233     		add	r3, r3, #2
ARM GAS  C:\Users\Chuck\AppData\Local\Temp\cc5X170Y.s 			page 9


 316 003a 3968     		ldr	r1, [r7]
 317 003c CB18     		add	r3, r1, r3
 318 003e 1B78     		ldrb	r3, [r3]
 319 0040 1B04     		lsl	r3, r3, #16
 320 0042 1A43     		orr	r2, r3
 321 0044 7B68     		ldr	r3, [r7, #4]
 322 0046 5A60     		str	r2, [r3, #4]
  48:./ros_lib/std_msgs/Time.h ****       this->data.sec |= ((uint32_t) (*(inbuffer + offset + 3))) << (8 * 3);
 323              		.loc 3 48 0
 324 0048 7B68     		ldr	r3, [r7, #4]
 325 004a 5A68     		ldr	r2, [r3, #4]
 326 004c FB68     		ldr	r3, [r7, #12]
 327 004e 0333     		add	r3, r3, #3
 328 0050 3968     		ldr	r1, [r7]
 329 0052 CB18     		add	r3, r1, r3
 330 0054 1B78     		ldrb	r3, [r3]
 331 0056 1B06     		lsl	r3, r3, #24
 332 0058 1A43     		orr	r2, r3
 333 005a 7B68     		ldr	r3, [r7, #4]
 334 005c 5A60     		str	r2, [r3, #4]
  49:./ros_lib/std_msgs/Time.h ****       offset += sizeof(this->data.sec);
 335              		.loc 3 49 0
 336 005e FB68     		ldr	r3, [r7, #12]
 337 0060 0433     		add	r3, r3, #4
 338 0062 FB60     		str	r3, [r7, #12]
  50:./ros_lib/std_msgs/Time.h ****       this->data.nsec =  ((uint32_t) (*(inbuffer + offset)));
 339              		.loc 3 50 0
 340 0064 FB68     		ldr	r3, [r7, #12]
 341 0066 3A68     		ldr	r2, [r7]
 342 0068 D318     		add	r3, r2, r3
 343 006a 1B78     		ldrb	r3, [r3]
 344 006c 1A1C     		mov	r2, r3
 345 006e 7B68     		ldr	r3, [r7, #4]
 346 0070 9A60     		str	r2, [r3, #8]
  51:./ros_lib/std_msgs/Time.h ****       this->data.nsec |= ((uint32_t) (*(inbuffer + offset + 1))) << (8 * 1);
 347              		.loc 3 51 0
 348 0072 7B68     		ldr	r3, [r7, #4]
 349 0074 9A68     		ldr	r2, [r3, #8]
 350 0076 FB68     		ldr	r3, [r7, #12]
 351 0078 0133     		add	r3, r3, #1
 352 007a 3968     		ldr	r1, [r7]
 353 007c CB18     		add	r3, r1, r3
 354 007e 1B78     		ldrb	r3, [r3]
 355 0080 1B02     		lsl	r3, r3, #8
 356 0082 1A43     		orr	r2, r3
 357 0084 7B68     		ldr	r3, [r7, #4]
 358 0086 9A60     		str	r2, [r3, #8]
  52:./ros_lib/std_msgs/Time.h ****       this->data.nsec |= ((uint32_t) (*(inbuffer + offset + 2))) << (8 * 2);
 359              		.loc 3 52 0
 360 0088 7B68     		ldr	r3, [r7, #4]
 361 008a 9A68     		ldr	r2, [r3, #8]
 362 008c FB68     		ldr	r3, [r7, #12]
 363 008e 0233     		add	r3, r3, #2
 364 0090 3968     		ldr	r1, [r7]
 365 0092 CB18     		add	r3, r1, r3
 366 0094 1B78     		ldrb	r3, [r3]
 367 0096 1B04     		lsl	r3, r3, #16
ARM GAS  C:\Users\Chuck\AppData\Local\Temp\cc5X170Y.s 			page 10


 368 0098 1A43     		orr	r2, r3
 369 009a 7B68     		ldr	r3, [r7, #4]
 370 009c 9A60     		str	r2, [r3, #8]
  53:./ros_lib/std_msgs/Time.h ****       this->data.nsec |= ((uint32_t) (*(inbuffer + offset + 3))) << (8 * 3);
 371              		.loc 3 53 0
 372 009e 7B68     		ldr	r3, [r7, #4]
 373 00a0 9A68     		ldr	r2, [r3, #8]
 374 00a2 FB68     		ldr	r3, [r7, #12]
 375 00a4 0333     		add	r3, r3, #3
 376 00a6 3968     		ldr	r1, [r7]
 377 00a8 CB18     		add	r3, r1, r3
 378 00aa 1B78     		ldrb	r3, [r3]
 379 00ac 1B06     		lsl	r3, r3, #24
 380 00ae 1A43     		orr	r2, r3
 381 00b0 7B68     		ldr	r3, [r7, #4]
 382 00b2 9A60     		str	r2, [r3, #8]
  54:./ros_lib/std_msgs/Time.h ****       offset += sizeof(this->data.nsec);
 383              		.loc 3 54 0
 384 00b4 FB68     		ldr	r3, [r7, #12]
 385 00b6 0433     		add	r3, r3, #4
 386 00b8 FB60     		str	r3, [r7, #12]
  55:./ros_lib/std_msgs/Time.h **** #endif
  56:./ros_lib/std_msgs/Time.h ****      return offset;
 387              		.loc 3 56 0
 388 00ba FB68     		ldr	r3, [r7, #12]
 389              	.LBE6:
  57:./ros_lib/std_msgs/Time.h ****     }
 390              		.loc 3 57 0
 391 00bc 181C     		mov	r0, r3
 392 00be BD46     		mov	sp, r7
 393 00c0 04B0     		add	sp, sp, #16
 394              		@ sp needed
 395 00c2 80BD     		pop	{r7, pc}
 396              		.cfi_endproc
 397              	.LFE26:
 398              		.size	_ZN8std_msgs4Time11deserializeEPh, .-_ZN8std_msgs4Time11deserializeEPh
 399              		.section	.rodata
 400              		.align	2
 401              	.LC2:
 402 0000 7374645F 		.ascii	"std_msgs/Time\000"
 402      6D736773 
 402      2F54696D 
 402      6500
 403              		.section	.text._ZN8std_msgs4Time7getTypeEv,"axG",%progbits,_ZN8std_msgs4Time7getTypeEv,comdat
 404              		.align	2
 405              		.weak	_ZN8std_msgs4Time7getTypeEv
 406              		.code	16
 407              		.thumb_func
 408              		.type	_ZN8std_msgs4Time7getTypeEv, %function
 409              	_ZN8std_msgs4Time7getTypeEv:
 410              	.LFB27:
  58:./ros_lib/std_msgs/Time.h **** 
  59:./ros_lib/std_msgs/Time.h ****     const char * getType(){ return "std_msgs/Time"; };
 411              		.loc 3 59 0
 412              		.cfi_startproc
 413 0000 80B5     		push	{r7, lr}
 414              		.cfi_def_cfa_offset 8
ARM GAS  C:\Users\Chuck\AppData\Local\Temp\cc5X170Y.s 			page 11


 415              		.cfi_offset 7, -8
 416              		.cfi_offset 14, -4
 417 0002 82B0     		sub	sp, sp, #8
 418              		.cfi_def_cfa_offset 16
 419 0004 00AF     		add	r7, sp, #0
 420              		.cfi_def_cfa_register 7
 421 0006 7860     		str	r0, [r7, #4]
 422              		.loc 3 59 0
 423 0008 024B     		ldr	r3, .L20
 424 000a 181C     		mov	r0, r3
 425 000c BD46     		mov	sp, r7
 426 000e 02B0     		add	sp, sp, #8
 427              		@ sp needed
 428 0010 80BD     		pop	{r7, pc}
 429              	.L21:
 430 0012 C046     		.align	2
 431              	.L20:
 432 0014 00000000 		.word	.LC2
 433              		.cfi_endproc
 434              	.LFE27:
 435              		.size	_ZN8std_msgs4Time7getTypeEv, .-_ZN8std_msgs4Time7getTypeEv
 436              		.section	.rodata
 437 000e 0000     		.align	2
 438              	.LC4:
 439 0010 63643731 		.ascii	"cd7166c74c552c311fbcc2fe5a7bc289\000"
 439      36366337 
 439      34633535 
 439      32633331 
 439      31666263 
 440              		.section	.text._ZN8std_msgs4Time6getMD5Ev,"axG",%progbits,_ZN8std_msgs4Time6getMD5Ev,comdat
 441              		.align	2
 442              		.weak	_ZN8std_msgs4Time6getMD5Ev
 443              		.code	16
 444              		.thumb_func
 445              		.type	_ZN8std_msgs4Time6getMD5Ev, %function
 446              	_ZN8std_msgs4Time6getMD5Ev:
 447              	.LFB28:
  60:./ros_lib/std_msgs/Time.h ****     const char * getMD5(){ return "cd7166c74c552c311fbcc2fe5a7bc289"; };
 448              		.loc 3 60 0
 449              		.cfi_startproc
 450 0000 80B5     		push	{r7, lr}
 451              		.cfi_def_cfa_offset 8
 452              		.cfi_offset 7, -8
 453              		.cfi_offset 14, -4
 454 0002 82B0     		sub	sp, sp, #8
 455              		.cfi_def_cfa_offset 16
 456 0004 00AF     		add	r7, sp, #0
 457              		.cfi_def_cfa_register 7
 458 0006 7860     		str	r0, [r7, #4]
 459              		.loc 3 60 0
 460 0008 024B     		ldr	r3, .L24
 461 000a 181C     		mov	r0, r3
 462 000c BD46     		mov	sp, r7
 463 000e 02B0     		add	sp, sp, #8
 464              		@ sp needed
 465 0010 80BD     		pop	{r7, pc}
 466              	.L25:
ARM GAS  C:\Users\Chuck\AppData\Local\Temp\cc5X170Y.s 			page 12


 467 0012 C046     		.align	2
 468              	.L24:
 469 0014 10000000 		.word	.LC4
 470              		.cfi_endproc
 471              	.LFE28:
 472              		.size	_ZN8std_msgs4Time6getMD5Ev, .-_ZN8std_msgs4Time6getMD5Ev
 473              		.section	.rodata
 474 0031 000000   		.align	2
 475              	.LC7:
 476 0034 00       		.ascii	"\000"
 477              		.section	.text._ZN14rosserial_msgs9TopicInfoC2Ev,"axG",%progbits,_ZN14rosserial_msgs9TopicInfoC5Ev
 478              		.align	2
 479              		.weak	_ZN14rosserial_msgs9TopicInfoC2Ev
 480              		.code	16
 481              		.thumb_func
 482              		.type	_ZN14rosserial_msgs9TopicInfoC2Ev, %function
 483              	_ZN14rosserial_msgs9TopicInfoC2Ev:
 484              	.LFB30:
 485              		.file 4 "./ros_lib/rosserial_msgs/TopicInfo.h"
   1:./ros_lib/rosserial_msgs/TopicInfo.h **** #ifndef _ROS_rosserial_msgs_TopicInfo_h
   2:./ros_lib/rosserial_msgs/TopicInfo.h **** #define _ROS_rosserial_msgs_TopicInfo_h
   3:./ros_lib/rosserial_msgs/TopicInfo.h **** 
   4:./ros_lib/rosserial_msgs/TopicInfo.h **** #include <stdint.h>
   5:./ros_lib/rosserial_msgs/TopicInfo.h **** #include <string.h>
   6:./ros_lib/rosserial_msgs/TopicInfo.h **** #include <stdlib.h>
   7:./ros_lib/rosserial_msgs/TopicInfo.h **** #include "ros/msg.h"
   8:./ros_lib/rosserial_msgs/TopicInfo.h **** 
   9:./ros_lib/rosserial_msgs/TopicInfo.h **** namespace rosserial_msgs
  10:./ros_lib/rosserial_msgs/TopicInfo.h **** {
  11:./ros_lib/rosserial_msgs/TopicInfo.h **** 
  12:./ros_lib/rosserial_msgs/TopicInfo.h ****   class TopicInfo : public ros::Msg
  13:./ros_lib/rosserial_msgs/TopicInfo.h ****   {
  14:./ros_lib/rosserial_msgs/TopicInfo.h ****     public:
  15:./ros_lib/rosserial_msgs/TopicInfo.h ****       uint16_t topic_id;
  16:./ros_lib/rosserial_msgs/TopicInfo.h ****       const char* topic_name;
  17:./ros_lib/rosserial_msgs/TopicInfo.h ****       const char* message_type;
  18:./ros_lib/rosserial_msgs/TopicInfo.h ****       const char* md5sum;
  19:./ros_lib/rosserial_msgs/TopicInfo.h ****       int32_t buffer_size;
  20:./ros_lib/rosserial_msgs/TopicInfo.h ****       enum { ID_PUBLISHER = 0 };
  21:./ros_lib/rosserial_msgs/TopicInfo.h ****       enum { ID_SUBSCRIBER = 1 };
  22:./ros_lib/rosserial_msgs/TopicInfo.h ****       enum { ID_SERVICE_SERVER = 2 };
  23:./ros_lib/rosserial_msgs/TopicInfo.h ****       enum { ID_SERVICE_CLIENT = 4 };
  24:./ros_lib/rosserial_msgs/TopicInfo.h ****       enum { ID_PARAMETER_REQUEST = 6 };
  25:./ros_lib/rosserial_msgs/TopicInfo.h ****       enum { ID_LOG = 7 };
  26:./ros_lib/rosserial_msgs/TopicInfo.h ****       enum { ID_TIME = 10 };
  27:./ros_lib/rosserial_msgs/TopicInfo.h ****       enum { ID_TX_STOP = 11 };
  28:./ros_lib/rosserial_msgs/TopicInfo.h **** 
  29:./ros_lib/rosserial_msgs/TopicInfo.h ****     TopicInfo():
 486              		.loc 4 29 0
 487              		.cfi_startproc
 488 0000 80B5     		push	{r7, lr}
 489              		.cfi_def_cfa_offset 8
 490              		.cfi_offset 7, -8
 491              		.cfi_offset 14, -4
 492 0002 82B0     		sub	sp, sp, #8
 493              		.cfi_def_cfa_offset 16
 494 0004 00AF     		add	r7, sp, #0
ARM GAS  C:\Users\Chuck\AppData\Local\Temp\cc5X170Y.s 			page 13


 495              		.cfi_def_cfa_register 7
 496 0006 7860     		str	r0, [r7, #4]
 497              	.LBB7:
  30:./ros_lib/rosserial_msgs/TopicInfo.h ****       topic_id(0),
  31:./ros_lib/rosserial_msgs/TopicInfo.h ****       topic_name(""),
  32:./ros_lib/rosserial_msgs/TopicInfo.h ****       message_type(""),
  33:./ros_lib/rosserial_msgs/TopicInfo.h ****       md5sum(""),
  34:./ros_lib/rosserial_msgs/TopicInfo.h ****       buffer_size(0)
 498              		.loc 4 34 0
 499 0008 7B68     		ldr	r3, [r7, #4]
 500 000a 181C     		mov	r0, r3
 501 000c FFF7FEFF 		bl	_ZN3ros3MsgC2Ev
 502 0010 7B68     		ldr	r3, [r7, #4]
 503 0012 0B4A     		ldr	r2, .L29
 504 0014 1A60     		str	r2, [r3]
 505 0016 7B68     		ldr	r3, [r7, #4]
 506 0018 0022     		mov	r2, #0
 507 001a 9A80     		strh	r2, [r3, #4]
 508 001c 7B68     		ldr	r3, [r7, #4]
 509 001e 094A     		ldr	r2, .L29+4
 510 0020 9A60     		str	r2, [r3, #8]
 511 0022 7B68     		ldr	r3, [r7, #4]
 512 0024 074A     		ldr	r2, .L29+4
 513 0026 DA60     		str	r2, [r3, #12]
 514 0028 7B68     		ldr	r3, [r7, #4]
 515 002a 064A     		ldr	r2, .L29+4
 516 002c 1A61     		str	r2, [r3, #16]
 517 002e 7B68     		ldr	r3, [r7, #4]
 518 0030 0022     		mov	r2, #0
 519 0032 5A61     		str	r2, [r3, #20]
 520              	.LBE7:
  35:./ros_lib/rosserial_msgs/TopicInfo.h ****     {
  36:./ros_lib/rosserial_msgs/TopicInfo.h ****     }
 521              		.loc 4 36 0
 522 0034 7B68     		ldr	r3, [r7, #4]
 523 0036 181C     		mov	r0, r3
 524 0038 BD46     		mov	sp, r7
 525 003a 02B0     		add	sp, sp, #8
 526              		@ sp needed
 527 003c 80BD     		pop	{r7, pc}
 528              	.L30:
 529 003e C046     		.align	2
 530              	.L29:
 531 0040 08000000 		.word	_ZTVN14rosserial_msgs9TopicInfoE+8
 532 0044 34000000 		.word	.LC7
 533              		.cfi_endproc
 534              	.LFE30:
 535              		.size	_ZN14rosserial_msgs9TopicInfoC2Ev, .-_ZN14rosserial_msgs9TopicInfoC2Ev
 536              		.weak	_ZN14rosserial_msgs9TopicInfoC1Ev
 537              		.thumb_set _ZN14rosserial_msgs9TopicInfoC1Ev,_ZN14rosserial_msgs9TopicInfoC2Ev
 538              		.section	.text._ZNK14rosserial_msgs9TopicInfo9serializeEPh,"axG",%progbits,_ZNK14rosserial_msgs9To
 539              		.align	2
 540              		.weak	_ZNK14rosserial_msgs9TopicInfo9serializeEPh
 541              		.code	16
 542              		.thumb_func
 543              		.type	_ZNK14rosserial_msgs9TopicInfo9serializeEPh, %function
 544              	_ZNK14rosserial_msgs9TopicInfo9serializeEPh:
ARM GAS  C:\Users\Chuck\AppData\Local\Temp\cc5X170Y.s 			page 14


 545              	.LFB32:
  37:./ros_lib/rosserial_msgs/TopicInfo.h **** 
  38:./ros_lib/rosserial_msgs/TopicInfo.h ****     virtual int serialize(unsigned char *outbuffer) const
 546              		.loc 4 38 0
 547              		.cfi_startproc
 548 0000 80B5     		push	{r7, lr}
 549              		.cfi_def_cfa_offset 8
 550              		.cfi_offset 7, -8
 551              		.cfi_offset 14, -4
 552 0002 88B0     		sub	sp, sp, #32
 553              		.cfi_def_cfa_offset 40
 554 0004 00AF     		add	r7, sp, #0
 555              		.cfi_def_cfa_register 7
 556 0006 7860     		str	r0, [r7, #4]
 557 0008 3960     		str	r1, [r7]
 558              	.LBB8:
  39:./ros_lib/rosserial_msgs/TopicInfo.h ****     {
  40:./ros_lib/rosserial_msgs/TopicInfo.h ****       int offset = 0;
 559              		.loc 4 40 0
 560 000a 0023     		mov	r3, #0
 561 000c FB61     		str	r3, [r7, #28]
  41:./ros_lib/rosserial_msgs/TopicInfo.h **** #ifndef ROS_MSG_DONT_SERIALIZE
  42:./ros_lib/rosserial_msgs/TopicInfo.h ****       *(outbuffer + offset + 0) = (this->topic_id >> (8 * 0)) & 0xFF;
 562              		.loc 4 42 0
 563 000e FB69     		ldr	r3, [r7, #28]
 564 0010 3A68     		ldr	r2, [r7]
 565 0012 D318     		add	r3, r2, r3
 566 0014 7A68     		ldr	r2, [r7, #4]
 567 0016 9288     		ldrh	r2, [r2, #4]
 568 0018 D2B2     		uxtb	r2, r2
 569 001a 1A70     		strb	r2, [r3]
  43:./ros_lib/rosserial_msgs/TopicInfo.h ****       *(outbuffer + offset + 1) = (this->topic_id >> (8 * 1)) & 0xFF;
 570              		.loc 4 43 0
 571 001c FB69     		ldr	r3, [r7, #28]
 572 001e 0133     		add	r3, r3, #1
 573 0020 3A68     		ldr	r2, [r7]
 574 0022 D318     		add	r3, r2, r3
 575 0024 7A68     		ldr	r2, [r7, #4]
 576 0026 9288     		ldrh	r2, [r2, #4]
 577 0028 120A     		lsr	r2, r2, #8
 578 002a 92B2     		uxth	r2, r2
 579 002c D2B2     		uxtb	r2, r2
 580 002e 1A70     		strb	r2, [r3]
  44:./ros_lib/rosserial_msgs/TopicInfo.h ****       offset += sizeof(this->topic_id);
 581              		.loc 4 44 0
 582 0030 FB69     		ldr	r3, [r7, #28]
 583 0032 0233     		add	r3, r3, #2
 584 0034 FB61     		str	r3, [r7, #28]
  45:./ros_lib/rosserial_msgs/TopicInfo.h ****       uint32_t length_topic_name = strlen( (const char*) this->topic_name);
 585              		.loc 4 45 0
 586 0036 7B68     		ldr	r3, [r7, #4]
 587 0038 9B68     		ldr	r3, [r3, #8]
 588 003a 181C     		mov	r0, r3
 589 003c FFF7FEFF 		bl	strlen
 590 0040 031C     		mov	r3, r0
 591 0042 BB61     		str	r3, [r7, #24]
  46:./ros_lib/rosserial_msgs/TopicInfo.h ****       memcpy(outbuffer + offset, &length_topic_name, sizeof(uint32_t));
ARM GAS  C:\Users\Chuck\AppData\Local\Temp\cc5X170Y.s 			page 15


 592              		.loc 4 46 0
 593 0044 FB69     		ldr	r3, [r7, #28]
 594 0046 3A68     		ldr	r2, [r7]
 595 0048 D218     		add	r2, r2, r3
 596 004a 1823     		mov	r3, #24
 597 004c FB18     		add	r3, r7, r3
 598 004e 101C     		mov	r0, r2
 599 0050 191C     		mov	r1, r3
 600 0052 0422     		mov	r2, #4
 601 0054 FFF7FEFF 		bl	memcpy
  47:./ros_lib/rosserial_msgs/TopicInfo.h ****       offset += 4;
 602              		.loc 4 47 0
 603 0058 FB69     		ldr	r3, [r7, #28]
 604 005a 0433     		add	r3, r3, #4
 605 005c FB61     		str	r3, [r7, #28]
  48:./ros_lib/rosserial_msgs/TopicInfo.h ****       memcpy(outbuffer + offset, this->topic_name, length_topic_name);
 606              		.loc 4 48 0
 607 005e FB69     		ldr	r3, [r7, #28]
 608 0060 3A68     		ldr	r2, [r7]
 609 0062 D118     		add	r1, r2, r3
 610 0064 7B68     		ldr	r3, [r7, #4]
 611 0066 9A68     		ldr	r2, [r3, #8]
 612 0068 BB69     		ldr	r3, [r7, #24]
 613 006a 081C     		mov	r0, r1
 614 006c 111C     		mov	r1, r2
 615 006e 1A1C     		mov	r2, r3
 616 0070 FFF7FEFF 		bl	memcpy
  49:./ros_lib/rosserial_msgs/TopicInfo.h ****       offset += length_topic_name;
 617              		.loc 4 49 0
 618 0074 FA69     		ldr	r2, [r7, #28]
 619 0076 BB69     		ldr	r3, [r7, #24]
 620 0078 D318     		add	r3, r2, r3
 621 007a FB61     		str	r3, [r7, #28]
  50:./ros_lib/rosserial_msgs/TopicInfo.h ****       uint32_t length_message_type = strlen( (const char*) this->message_type);
 622              		.loc 4 50 0
 623 007c 7B68     		ldr	r3, [r7, #4]
 624 007e DB68     		ldr	r3, [r3, #12]
 625 0080 181C     		mov	r0, r3
 626 0082 FFF7FEFF 		bl	strlen
 627 0086 031C     		mov	r3, r0
 628 0088 7B61     		str	r3, [r7, #20]
  51:./ros_lib/rosserial_msgs/TopicInfo.h ****       memcpy(outbuffer + offset, &length_message_type, sizeof(uint32_t));
 629              		.loc 4 51 0
 630 008a FB69     		ldr	r3, [r7, #28]
 631 008c 3A68     		ldr	r2, [r7]
 632 008e D218     		add	r2, r2, r3
 633 0090 1423     		mov	r3, #20
 634 0092 FB18     		add	r3, r7, r3
 635 0094 101C     		mov	r0, r2
 636 0096 191C     		mov	r1, r3
 637 0098 0422     		mov	r2, #4
 638 009a FFF7FEFF 		bl	memcpy
  52:./ros_lib/rosserial_msgs/TopicInfo.h ****       offset += 4;
 639              		.loc 4 52 0
 640 009e FB69     		ldr	r3, [r7, #28]
 641 00a0 0433     		add	r3, r3, #4
 642 00a2 FB61     		str	r3, [r7, #28]
ARM GAS  C:\Users\Chuck\AppData\Local\Temp\cc5X170Y.s 			page 16


  53:./ros_lib/rosserial_msgs/TopicInfo.h ****       memcpy(outbuffer + offset, this->message_type, length_message_type);
 643              		.loc 4 53 0
 644 00a4 FB69     		ldr	r3, [r7, #28]
 645 00a6 3A68     		ldr	r2, [r7]
 646 00a8 D118     		add	r1, r2, r3
 647 00aa 7B68     		ldr	r3, [r7, #4]
 648 00ac DA68     		ldr	r2, [r3, #12]
 649 00ae 7B69     		ldr	r3, [r7, #20]
 650 00b0 081C     		mov	r0, r1
 651 00b2 111C     		mov	r1, r2
 652 00b4 1A1C     		mov	r2, r3
 653 00b6 FFF7FEFF 		bl	memcpy
  54:./ros_lib/rosserial_msgs/TopicInfo.h ****       offset += length_message_type;
 654              		.loc 4 54 0
 655 00ba FA69     		ldr	r2, [r7, #28]
 656 00bc 7B69     		ldr	r3, [r7, #20]
 657 00be D318     		add	r3, r2, r3
 658 00c0 FB61     		str	r3, [r7, #28]
  55:./ros_lib/rosserial_msgs/TopicInfo.h ****       uint32_t length_md5sum = strlen( (const char*) this->md5sum);
 659              		.loc 4 55 0
 660 00c2 7B68     		ldr	r3, [r7, #4]
 661 00c4 1B69     		ldr	r3, [r3, #16]
 662 00c6 181C     		mov	r0, r3
 663 00c8 FFF7FEFF 		bl	strlen
 664 00cc 031C     		mov	r3, r0
 665 00ce 3B61     		str	r3, [r7, #16]
  56:./ros_lib/rosserial_msgs/TopicInfo.h ****       memcpy(outbuffer + offset, &length_md5sum, sizeof(uint32_t));
 666              		.loc 4 56 0
 667 00d0 FB69     		ldr	r3, [r7, #28]
 668 00d2 3A68     		ldr	r2, [r7]
 669 00d4 D218     		add	r2, r2, r3
 670 00d6 1023     		mov	r3, #16
 671 00d8 FB18     		add	r3, r7, r3
 672 00da 101C     		mov	r0, r2
 673 00dc 191C     		mov	r1, r3
 674 00de 0422     		mov	r2, #4
 675 00e0 FFF7FEFF 		bl	memcpy
  57:./ros_lib/rosserial_msgs/TopicInfo.h ****       offset += 4;
 676              		.loc 4 57 0
 677 00e4 FB69     		ldr	r3, [r7, #28]
 678 00e6 0433     		add	r3, r3, #4
 679 00e8 FB61     		str	r3, [r7, #28]
  58:./ros_lib/rosserial_msgs/TopicInfo.h ****       memcpy(outbuffer + offset, this->md5sum, length_md5sum);
 680              		.loc 4 58 0
 681 00ea FB69     		ldr	r3, [r7, #28]
 682 00ec 3A68     		ldr	r2, [r7]
 683 00ee D118     		add	r1, r2, r3
 684 00f0 7B68     		ldr	r3, [r7, #4]
 685 00f2 1A69     		ldr	r2, [r3, #16]
 686 00f4 3B69     		ldr	r3, [r7, #16]
 687 00f6 081C     		mov	r0, r1
 688 00f8 111C     		mov	r1, r2
 689 00fa 1A1C     		mov	r2, r3
 690 00fc FFF7FEFF 		bl	memcpy
  59:./ros_lib/rosserial_msgs/TopicInfo.h ****       offset += length_md5sum;
 691              		.loc 4 59 0
 692 0100 FA69     		ldr	r2, [r7, #28]
ARM GAS  C:\Users\Chuck\AppData\Local\Temp\cc5X170Y.s 			page 17


 693 0102 3B69     		ldr	r3, [r7, #16]
 694 0104 D318     		add	r3, r2, r3
 695 0106 FB61     		str	r3, [r7, #28]
  60:./ros_lib/rosserial_msgs/TopicInfo.h ****       union {
  61:./ros_lib/rosserial_msgs/TopicInfo.h ****         int32_t real;
  62:./ros_lib/rosserial_msgs/TopicInfo.h ****         uint32_t base;
  63:./ros_lib/rosserial_msgs/TopicInfo.h ****       } u_buffer_size;
  64:./ros_lib/rosserial_msgs/TopicInfo.h ****       u_buffer_size.real = this->buffer_size;
 696              		.loc 4 64 0
 697 0108 7B68     		ldr	r3, [r7, #4]
 698 010a 5B69     		ldr	r3, [r3, #20]
 699 010c FB60     		str	r3, [r7, #12]
  65:./ros_lib/rosserial_msgs/TopicInfo.h ****       *(outbuffer + offset + 0) = (u_buffer_size.base >> (8 * 0)) & 0xFF;
 700              		.loc 4 65 0
 701 010e FB69     		ldr	r3, [r7, #28]
 702 0110 3A68     		ldr	r2, [r7]
 703 0112 D318     		add	r3, r2, r3
 704 0114 FA68     		ldr	r2, [r7, #12]
 705 0116 D2B2     		uxtb	r2, r2
 706 0118 1A70     		strb	r2, [r3]
  66:./ros_lib/rosserial_msgs/TopicInfo.h ****       *(outbuffer + offset + 1) = (u_buffer_size.base >> (8 * 1)) & 0xFF;
 707              		.loc 4 66 0
 708 011a FB69     		ldr	r3, [r7, #28]
 709 011c 0133     		add	r3, r3, #1
 710 011e 3A68     		ldr	r2, [r7]
 711 0120 D318     		add	r3, r2, r3
 712 0122 FA68     		ldr	r2, [r7, #12]
 713 0124 120A     		lsr	r2, r2, #8
 714 0126 D2B2     		uxtb	r2, r2
 715 0128 1A70     		strb	r2, [r3]
  67:./ros_lib/rosserial_msgs/TopicInfo.h ****       *(outbuffer + offset + 2) = (u_buffer_size.base >> (8 * 2)) & 0xFF;
 716              		.loc 4 67 0
 717 012a FB69     		ldr	r3, [r7, #28]
 718 012c 0233     		add	r3, r3, #2
 719 012e 3A68     		ldr	r2, [r7]
 720 0130 D318     		add	r3, r2, r3
 721 0132 FA68     		ldr	r2, [r7, #12]
 722 0134 120C     		lsr	r2, r2, #16
 723 0136 D2B2     		uxtb	r2, r2
 724 0138 1A70     		strb	r2, [r3]
  68:./ros_lib/rosserial_msgs/TopicInfo.h ****       *(outbuffer + offset + 3) = (u_buffer_size.base >> (8 * 3)) & 0xFF;
 725              		.loc 4 68 0
 726 013a FB69     		ldr	r3, [r7, #28]
 727 013c 0333     		add	r3, r3, #3
 728 013e 3A68     		ldr	r2, [r7]
 729 0140 D318     		add	r3, r2, r3
 730 0142 FA68     		ldr	r2, [r7, #12]
 731 0144 120E     		lsr	r2, r2, #24
 732 0146 D2B2     		uxtb	r2, r2
 733 0148 1A70     		strb	r2, [r3]
  69:./ros_lib/rosserial_msgs/TopicInfo.h ****       offset += sizeof(this->buffer_size);
 734              		.loc 4 69 0
 735 014a FB69     		ldr	r3, [r7, #28]
 736 014c 0433     		add	r3, r3, #4
 737 014e FB61     		str	r3, [r7, #28]
  70:./ros_lib/rosserial_msgs/TopicInfo.h **** #endif
  71:./ros_lib/rosserial_msgs/TopicInfo.h ****       return offset;
ARM GAS  C:\Users\Chuck\AppData\Local\Temp\cc5X170Y.s 			page 18


 738              		.loc 4 71 0
 739 0150 FB69     		ldr	r3, [r7, #28]
 740              	.LBE8:
  72:./ros_lib/rosserial_msgs/TopicInfo.h ****     }
 741              		.loc 4 72 0
 742 0152 181C     		mov	r0, r3
 743 0154 BD46     		mov	sp, r7
 744 0156 08B0     		add	sp, sp, #32
 745              		@ sp needed
 746 0158 80BD     		pop	{r7, pc}
 747              		.cfi_endproc
 748              	.LFE32:
 749              		.size	_ZNK14rosserial_msgs9TopicInfo9serializeEPh, .-_ZNK14rosserial_msgs9TopicInfo9serializeEPh
 750 015a C046     		.section	.text._ZN14rosserial_msgs9TopicInfo11deserializeEPh,"axG",%progbits,_ZN14rosserial_msgs9T
 751              		.align	2
 752              		.weak	_ZN14rosserial_msgs9TopicInfo11deserializeEPh
 753              		.code	16
 754              		.thumb_func
 755              		.type	_ZN14rosserial_msgs9TopicInfo11deserializeEPh, %function
 756              	_ZN14rosserial_msgs9TopicInfo11deserializeEPh:
 757              	.LFB33:
  73:./ros_lib/rosserial_msgs/TopicInfo.h **** 
  74:./ros_lib/rosserial_msgs/TopicInfo.h ****     virtual int deserialize(unsigned char *inbuffer)
 758              		.loc 4 74 0
 759              		.cfi_startproc
 760 0000 80B5     		push	{r7, lr}
 761              		.cfi_def_cfa_offset 8
 762              		.cfi_offset 7, -8
 763              		.cfi_offset 14, -4
 764 0002 8AB0     		sub	sp, sp, #40
 765              		.cfi_def_cfa_offset 48
 766 0004 00AF     		add	r7, sp, #0
 767              		.cfi_def_cfa_register 7
 768 0006 7860     		str	r0, [r7, #4]
 769 0008 3960     		str	r1, [r7]
 770              	.LBB9:
  75:./ros_lib/rosserial_msgs/TopicInfo.h ****     {
  76:./ros_lib/rosserial_msgs/TopicInfo.h ****       int offset = 0;
 771              		.loc 4 76 0
 772 000a 0023     		mov	r3, #0
 773 000c BB61     		str	r3, [r7, #24]
  77:./ros_lib/rosserial_msgs/TopicInfo.h **** #ifndef ROS_MSG_DONT_DESERIALIZE
  78:./ros_lib/rosserial_msgs/TopicInfo.h ****       this->topic_id =  ((uint16_t) (*(inbuffer + offset)));
 774              		.loc 4 78 0
 775 000e BB69     		ldr	r3, [r7, #24]
 776 0010 3A68     		ldr	r2, [r7]
 777 0012 D318     		add	r3, r2, r3
 778 0014 1B78     		ldrb	r3, [r3]
 779 0016 9AB2     		uxth	r2, r3
 780 0018 7B68     		ldr	r3, [r7, #4]
 781 001a 9A80     		strh	r2, [r3, #4]
  79:./ros_lib/rosserial_msgs/TopicInfo.h ****       this->topic_id |= ((uint16_t) (*(inbuffer + offset + 1))) << (8 * 1);
 782              		.loc 4 79 0
 783 001c 7B68     		ldr	r3, [r7, #4]
 784 001e 9B88     		ldrh	r3, [r3, #4]
 785 0020 99B2     		uxth	r1, r3
 786 0022 BB69     		ldr	r3, [r7, #24]
ARM GAS  C:\Users\Chuck\AppData\Local\Temp\cc5X170Y.s 			page 19


 787 0024 0133     		add	r3, r3, #1
 788 0026 3A68     		ldr	r2, [r7]
 789 0028 D318     		add	r3, r2, r3
 790 002a 1B78     		ldrb	r3, [r3]
 791 002c 1B02     		lsl	r3, r3, #8
 792 002e 9BB2     		uxth	r3, r3
 793 0030 0A1C     		add	r2, r1, #0
 794 0032 1343     		orr	r3, r2
 795 0034 9BB2     		uxth	r3, r3
 796 0036 9AB2     		uxth	r2, r3
 797 0038 7B68     		ldr	r3, [r7, #4]
 798 003a 9A80     		strh	r2, [r3, #4]
  80:./ros_lib/rosserial_msgs/TopicInfo.h ****       offset += sizeof(this->topic_id);
 799              		.loc 4 80 0
 800 003c BB69     		ldr	r3, [r7, #24]
 801 003e 0233     		add	r3, r3, #2
 802 0040 BB61     		str	r3, [r7, #24]
  81:./ros_lib/rosserial_msgs/TopicInfo.h ****       uint32_t length_topic_name;
  82:./ros_lib/rosserial_msgs/TopicInfo.h ****       memcpy(&length_topic_name, (inbuffer + offset), sizeof(uint32_t));
 803              		.loc 4 82 0
 804 0042 BB69     		ldr	r3, [r7, #24]
 805 0044 3A68     		ldr	r2, [r7]
 806 0046 D318     		add	r3, r2, r3
 807 0048 1422     		mov	r2, #20
 808 004a BA18     		add	r2, r7, r2
 809 004c 101C     		mov	r0, r2
 810 004e 191C     		mov	r1, r3
 811 0050 0422     		mov	r2, #4
 812 0052 FFF7FEFF 		bl	memcpy
  83:./ros_lib/rosserial_msgs/TopicInfo.h ****       offset += 4;
 813              		.loc 4 83 0
 814 0056 BB69     		ldr	r3, [r7, #24]
 815 0058 0433     		add	r3, r3, #4
 816 005a BB61     		str	r3, [r7, #24]
 817              	.LBB10:
  84:./ros_lib/rosserial_msgs/TopicInfo.h ****       for(unsigned int k= offset; k< offset+length_topic_name; ++k){
 818              		.loc 4 84 0
 819 005c BB69     		ldr	r3, [r7, #24]
 820 005e 7B62     		str	r3, [r7, #36]
 821 0060 0BE0     		b	.L34
 822              	.L35:
  85:./ros_lib/rosserial_msgs/TopicInfo.h ****           inbuffer[k-1]=inbuffer[k];
 823              		.loc 4 85 0 discriminator 3
 824 0062 7B6A     		ldr	r3, [r7, #36]
 825 0064 013B     		sub	r3, r3, #1
 826 0066 3A68     		ldr	r2, [r7]
 827 0068 D318     		add	r3, r2, r3
 828 006a 3968     		ldr	r1, [r7]
 829 006c 7A6A     		ldr	r2, [r7, #36]
 830 006e 8A18     		add	r2, r1, r2
 831 0070 1278     		ldrb	r2, [r2]
 832 0072 1A70     		strb	r2, [r3]
  84:./ros_lib/rosserial_msgs/TopicInfo.h ****       for(unsigned int k= offset; k< offset+length_topic_name; ++k){
 833              		.loc 4 84 0 discriminator 3
 834 0074 7B6A     		ldr	r3, [r7, #36]
 835 0076 0133     		add	r3, r3, #1
 836 0078 7B62     		str	r3, [r7, #36]
ARM GAS  C:\Users\Chuck\AppData\Local\Temp\cc5X170Y.s 			page 20


 837              	.L34:
  84:./ros_lib/rosserial_msgs/TopicInfo.h ****       for(unsigned int k= offset; k< offset+length_topic_name; ++k){
 838              		.loc 4 84 0 is_stmt 0 discriminator 1
 839 007a BA69     		ldr	r2, [r7, #24]
 840 007c 7B69     		ldr	r3, [r7, #20]
 841 007e D218     		add	r2, r2, r3
 842 0080 7B6A     		ldr	r3, [r7, #36]
 843 0082 9A42     		cmp	r2, r3
 844 0084 EDD8     		bhi	.L35
 845              	.LBE10:
  86:./ros_lib/rosserial_msgs/TopicInfo.h ****       }
  87:./ros_lib/rosserial_msgs/TopicInfo.h ****       inbuffer[offset+length_topic_name-1]=0;
 846              		.loc 4 87 0 is_stmt 1
 847 0086 BA69     		ldr	r2, [r7, #24]
 848 0088 7B69     		ldr	r3, [r7, #20]
 849 008a D318     		add	r3, r2, r3
 850 008c 013B     		sub	r3, r3, #1
 851 008e 3A68     		ldr	r2, [r7]
 852 0090 D318     		add	r3, r2, r3
 853 0092 0022     		mov	r2, #0
 854 0094 1A70     		strb	r2, [r3]
  88:./ros_lib/rosserial_msgs/TopicInfo.h ****       this->topic_name = (char *)(inbuffer + offset-1);
 855              		.loc 4 88 0
 856 0096 BB69     		ldr	r3, [r7, #24]
 857 0098 013B     		sub	r3, r3, #1
 858 009a 3A68     		ldr	r2, [r7]
 859 009c D218     		add	r2, r2, r3
 860 009e 7B68     		ldr	r3, [r7, #4]
 861 00a0 9A60     		str	r2, [r3, #8]
  89:./ros_lib/rosserial_msgs/TopicInfo.h ****       offset += length_topic_name;
 862              		.loc 4 89 0
 863 00a2 BA69     		ldr	r2, [r7, #24]
 864 00a4 7B69     		ldr	r3, [r7, #20]
 865 00a6 D318     		add	r3, r2, r3
 866 00a8 BB61     		str	r3, [r7, #24]
  90:./ros_lib/rosserial_msgs/TopicInfo.h ****       uint32_t length_message_type;
  91:./ros_lib/rosserial_msgs/TopicInfo.h ****       memcpy(&length_message_type, (inbuffer + offset), sizeof(uint32_t));
 867              		.loc 4 91 0
 868 00aa BB69     		ldr	r3, [r7, #24]
 869 00ac 3A68     		ldr	r2, [r7]
 870 00ae D318     		add	r3, r2, r3
 871 00b0 1022     		mov	r2, #16
 872 00b2 BA18     		add	r2, r7, r2
 873 00b4 101C     		mov	r0, r2
 874 00b6 191C     		mov	r1, r3
 875 00b8 0422     		mov	r2, #4
 876 00ba FFF7FEFF 		bl	memcpy
  92:./ros_lib/rosserial_msgs/TopicInfo.h ****       offset += 4;
 877              		.loc 4 92 0
 878 00be BB69     		ldr	r3, [r7, #24]
 879 00c0 0433     		add	r3, r3, #4
 880 00c2 BB61     		str	r3, [r7, #24]
 881              	.LBB11:
  93:./ros_lib/rosserial_msgs/TopicInfo.h ****       for(unsigned int k= offset; k< offset+length_message_type; ++k){
 882              		.loc 4 93 0
 883 00c4 BB69     		ldr	r3, [r7, #24]
 884 00c6 3B62     		str	r3, [r7, #32]
ARM GAS  C:\Users\Chuck\AppData\Local\Temp\cc5X170Y.s 			page 21


 885 00c8 0BE0     		b	.L36
 886              	.L37:
  94:./ros_lib/rosserial_msgs/TopicInfo.h ****           inbuffer[k-1]=inbuffer[k];
 887              		.loc 4 94 0 discriminator 3
 888 00ca 3B6A     		ldr	r3, [r7, #32]
 889 00cc 013B     		sub	r3, r3, #1
 890 00ce 3A68     		ldr	r2, [r7]
 891 00d0 D318     		add	r3, r2, r3
 892 00d2 3968     		ldr	r1, [r7]
 893 00d4 3A6A     		ldr	r2, [r7, #32]
 894 00d6 8A18     		add	r2, r1, r2
 895 00d8 1278     		ldrb	r2, [r2]
 896 00da 1A70     		strb	r2, [r3]
  93:./ros_lib/rosserial_msgs/TopicInfo.h ****       for(unsigned int k= offset; k< offset+length_message_type; ++k){
 897              		.loc 4 93 0 discriminator 3
 898 00dc 3B6A     		ldr	r3, [r7, #32]
 899 00de 0133     		add	r3, r3, #1
 900 00e0 3B62     		str	r3, [r7, #32]
 901              	.L36:
  93:./ros_lib/rosserial_msgs/TopicInfo.h ****       for(unsigned int k= offset; k< offset+length_message_type; ++k){
 902              		.loc 4 93 0 is_stmt 0 discriminator 1
 903 00e2 BA69     		ldr	r2, [r7, #24]
 904 00e4 3B69     		ldr	r3, [r7, #16]
 905 00e6 D218     		add	r2, r2, r3
 906 00e8 3B6A     		ldr	r3, [r7, #32]
 907 00ea 9A42     		cmp	r2, r3
 908 00ec EDD8     		bhi	.L37
 909              	.LBE11:
  95:./ros_lib/rosserial_msgs/TopicInfo.h ****       }
  96:./ros_lib/rosserial_msgs/TopicInfo.h ****       inbuffer[offset+length_message_type-1]=0;
 910              		.loc 4 96 0 is_stmt 1
 911 00ee BA69     		ldr	r2, [r7, #24]
 912 00f0 3B69     		ldr	r3, [r7, #16]
 913 00f2 D318     		add	r3, r2, r3
 914 00f4 013B     		sub	r3, r3, #1
 915 00f6 3A68     		ldr	r2, [r7]
 916 00f8 D318     		add	r3, r2, r3
 917 00fa 0022     		mov	r2, #0
 918 00fc 1A70     		strb	r2, [r3]
  97:./ros_lib/rosserial_msgs/TopicInfo.h ****       this->message_type = (char *)(inbuffer + offset-1);
 919              		.loc 4 97 0
 920 00fe BB69     		ldr	r3, [r7, #24]
 921 0100 013B     		sub	r3, r3, #1
 922 0102 3A68     		ldr	r2, [r7]
 923 0104 D218     		add	r2, r2, r3
 924 0106 7B68     		ldr	r3, [r7, #4]
 925 0108 DA60     		str	r2, [r3, #12]
  98:./ros_lib/rosserial_msgs/TopicInfo.h ****       offset += length_message_type;
 926              		.loc 4 98 0
 927 010a BA69     		ldr	r2, [r7, #24]
 928 010c 3B69     		ldr	r3, [r7, #16]
 929 010e D318     		add	r3, r2, r3
 930 0110 BB61     		str	r3, [r7, #24]
  99:./ros_lib/rosserial_msgs/TopicInfo.h ****       uint32_t length_md5sum;
 100:./ros_lib/rosserial_msgs/TopicInfo.h ****       memcpy(&length_md5sum, (inbuffer + offset), sizeof(uint32_t));
 931              		.loc 4 100 0
 932 0112 BB69     		ldr	r3, [r7, #24]
ARM GAS  C:\Users\Chuck\AppData\Local\Temp\cc5X170Y.s 			page 22


 933 0114 3A68     		ldr	r2, [r7]
 934 0116 D318     		add	r3, r2, r3
 935 0118 0C22     		mov	r2, #12
 936 011a BA18     		add	r2, r7, r2
 937 011c 101C     		mov	r0, r2
 938 011e 191C     		mov	r1, r3
 939 0120 0422     		mov	r2, #4
 940 0122 FFF7FEFF 		bl	memcpy
 101:./ros_lib/rosserial_msgs/TopicInfo.h ****       offset += 4;
 941              		.loc 4 101 0
 942 0126 BB69     		ldr	r3, [r7, #24]
 943 0128 0433     		add	r3, r3, #4
 944 012a BB61     		str	r3, [r7, #24]
 945              	.LBB12:
 102:./ros_lib/rosserial_msgs/TopicInfo.h ****       for(unsigned int k= offset; k< offset+length_md5sum; ++k){
 946              		.loc 4 102 0
 947 012c BB69     		ldr	r3, [r7, #24]
 948 012e FB61     		str	r3, [r7, #28]
 949 0130 0BE0     		b	.L38
 950              	.L39:
 103:./ros_lib/rosserial_msgs/TopicInfo.h ****           inbuffer[k-1]=inbuffer[k];
 951              		.loc 4 103 0 discriminator 3
 952 0132 FB69     		ldr	r3, [r7, #28]
 953 0134 013B     		sub	r3, r3, #1
 954 0136 3A68     		ldr	r2, [r7]
 955 0138 D318     		add	r3, r2, r3
 956 013a 3968     		ldr	r1, [r7]
 957 013c FA69     		ldr	r2, [r7, #28]
 958 013e 8A18     		add	r2, r1, r2
 959 0140 1278     		ldrb	r2, [r2]
 960 0142 1A70     		strb	r2, [r3]
 102:./ros_lib/rosserial_msgs/TopicInfo.h ****       for(unsigned int k= offset; k< offset+length_md5sum; ++k){
 961              		.loc 4 102 0 discriminator 3
 962 0144 FB69     		ldr	r3, [r7, #28]
 963 0146 0133     		add	r3, r3, #1
 964 0148 FB61     		str	r3, [r7, #28]
 965              	.L38:
 102:./ros_lib/rosserial_msgs/TopicInfo.h ****       for(unsigned int k= offset; k< offset+length_md5sum; ++k){
 966              		.loc 4 102 0 is_stmt 0 discriminator 1
 967 014a BA69     		ldr	r2, [r7, #24]
 968 014c FB68     		ldr	r3, [r7, #12]
 969 014e D218     		add	r2, r2, r3
 970 0150 FB69     		ldr	r3, [r7, #28]
 971 0152 9A42     		cmp	r2, r3
 972 0154 EDD8     		bhi	.L39
 973              	.LBE12:
 104:./ros_lib/rosserial_msgs/TopicInfo.h ****       }
 105:./ros_lib/rosserial_msgs/TopicInfo.h ****       inbuffer[offset+length_md5sum-1]=0;
 974              		.loc 4 105 0 is_stmt 1
 975 0156 BA69     		ldr	r2, [r7, #24]
 976 0158 FB68     		ldr	r3, [r7, #12]
 977 015a D318     		add	r3, r2, r3
 978 015c 013B     		sub	r3, r3, #1
 979 015e 3A68     		ldr	r2, [r7]
 980 0160 D318     		add	r3, r2, r3
 981 0162 0022     		mov	r2, #0
 982 0164 1A70     		strb	r2, [r3]
ARM GAS  C:\Users\Chuck\AppData\Local\Temp\cc5X170Y.s 			page 23


 106:./ros_lib/rosserial_msgs/TopicInfo.h ****       this->md5sum = (char *)(inbuffer + offset-1);
 983              		.loc 4 106 0
 984 0166 BB69     		ldr	r3, [r7, #24]
 985 0168 013B     		sub	r3, r3, #1
 986 016a 3A68     		ldr	r2, [r7]
 987 016c D218     		add	r2, r2, r3
 988 016e 7B68     		ldr	r3, [r7, #4]
 989 0170 1A61     		str	r2, [r3, #16]
 107:./ros_lib/rosserial_msgs/TopicInfo.h ****       offset += length_md5sum;
 990              		.loc 4 107 0
 991 0172 BA69     		ldr	r2, [r7, #24]
 992 0174 FB68     		ldr	r3, [r7, #12]
 993 0176 D318     		add	r3, r2, r3
 994 0178 BB61     		str	r3, [r7, #24]
 108:./ros_lib/rosserial_msgs/TopicInfo.h ****       union {
 109:./ros_lib/rosserial_msgs/TopicInfo.h ****         int32_t real;
 110:./ros_lib/rosserial_msgs/TopicInfo.h ****         uint32_t base;
 111:./ros_lib/rosserial_msgs/TopicInfo.h ****       } u_buffer_size;
 112:./ros_lib/rosserial_msgs/TopicInfo.h ****       u_buffer_size.base = 0;
 995              		.loc 4 112 0
 996 017a 0023     		mov	r3, #0
 997 017c BB60     		str	r3, [r7, #8]
 113:./ros_lib/rosserial_msgs/TopicInfo.h ****       u_buffer_size.base |= ((uint32_t) (*(inbuffer + offset + 0))) << (8 * 0);
 998              		.loc 4 113 0
 999 017e BB68     		ldr	r3, [r7, #8]
 1000 0180 BA69     		ldr	r2, [r7, #24]
 1001 0182 3968     		ldr	r1, [r7]
 1002 0184 8A18     		add	r2, r1, r2
 1003 0186 1278     		ldrb	r2, [r2]
 1004 0188 1343     		orr	r3, r2
 1005 018a BB60     		str	r3, [r7, #8]
 114:./ros_lib/rosserial_msgs/TopicInfo.h ****       u_buffer_size.base |= ((uint32_t) (*(inbuffer + offset + 1))) << (8 * 1);
 1006              		.loc 4 114 0
 1007 018c BA68     		ldr	r2, [r7, #8]
 1008 018e BB69     		ldr	r3, [r7, #24]
 1009 0190 0133     		add	r3, r3, #1
 1010 0192 3968     		ldr	r1, [r7]
 1011 0194 CB18     		add	r3, r1, r3
 1012 0196 1B78     		ldrb	r3, [r3]
 1013 0198 1B02     		lsl	r3, r3, #8
 1014 019a 1343     		orr	r3, r2
 1015 019c BB60     		str	r3, [r7, #8]
 115:./ros_lib/rosserial_msgs/TopicInfo.h ****       u_buffer_size.base |= ((uint32_t) (*(inbuffer + offset + 2))) << (8 * 2);
 1016              		.loc 4 115 0
 1017 019e BA68     		ldr	r2, [r7, #8]
 1018 01a0 BB69     		ldr	r3, [r7, #24]
 1019 01a2 0233     		add	r3, r3, #2
 1020 01a4 3968     		ldr	r1, [r7]
 1021 01a6 CB18     		add	r3, r1, r3
 1022 01a8 1B78     		ldrb	r3, [r3]
 1023 01aa 1B04     		lsl	r3, r3, #16
 1024 01ac 1343     		orr	r3, r2
 1025 01ae BB60     		str	r3, [r7, #8]
 116:./ros_lib/rosserial_msgs/TopicInfo.h ****       u_buffer_size.base |= ((uint32_t) (*(inbuffer + offset + 3))) << (8 * 3);
 1026              		.loc 4 116 0
 1027 01b0 BA68     		ldr	r2, [r7, #8]
 1028 01b2 BB69     		ldr	r3, [r7, #24]
ARM GAS  C:\Users\Chuck\AppData\Local\Temp\cc5X170Y.s 			page 24


 1029 01b4 0333     		add	r3, r3, #3
 1030 01b6 3968     		ldr	r1, [r7]
 1031 01b8 CB18     		add	r3, r1, r3
 1032 01ba 1B78     		ldrb	r3, [r3]
 1033 01bc 1B06     		lsl	r3, r3, #24
 1034 01be 1343     		orr	r3, r2
 1035 01c0 BB60     		str	r3, [r7, #8]
 117:./ros_lib/rosserial_msgs/TopicInfo.h ****       this->buffer_size = u_buffer_size.real;
 1036              		.loc 4 117 0
 1037 01c2 BA68     		ldr	r2, [r7, #8]
 1038 01c4 7B68     		ldr	r3, [r7, #4]
 1039 01c6 5A61     		str	r2, [r3, #20]
 118:./ros_lib/rosserial_msgs/TopicInfo.h ****       offset += sizeof(this->buffer_size);
 1040              		.loc 4 118 0
 1041 01c8 BB69     		ldr	r3, [r7, #24]
 1042 01ca 0433     		add	r3, r3, #4
 1043 01cc BB61     		str	r3, [r7, #24]
 119:./ros_lib/rosserial_msgs/TopicInfo.h **** #endif
 120:./ros_lib/rosserial_msgs/TopicInfo.h ****      return offset;
 1044              		.loc 4 120 0
 1045 01ce BB69     		ldr	r3, [r7, #24]
 1046              	.LBE9:
 121:./ros_lib/rosserial_msgs/TopicInfo.h ****     }
 1047              		.loc 4 121 0
 1048 01d0 181C     		mov	r0, r3
 1049 01d2 BD46     		mov	sp, r7
 1050 01d4 0AB0     		add	sp, sp, #40
 1051              		@ sp needed
 1052 01d6 80BD     		pop	{r7, pc}
 1053              		.cfi_endproc
 1054              	.LFE33:
 1055              		.size	_ZN14rosserial_msgs9TopicInfo11deserializeEPh, .-_ZN14rosserial_msgs9TopicInfo11deserializeE
 1056              		.section	.rodata
 1057 0035 000000   		.align	2
 1058              	.LC9:
 1059 0038 726F7373 		.ascii	"rosserial_msgs/TopicInfo\000"
 1059      65726961 
 1059      6C5F6D73 
 1059      67732F54 
 1059      6F706963 
 1060              		.section	.text._ZN14rosserial_msgs9TopicInfo7getTypeEv,"axG",%progbits,_ZN14rosserial_msgs9TopicIn
 1061              		.align	2
 1062              		.weak	_ZN14rosserial_msgs9TopicInfo7getTypeEv
 1063              		.code	16
 1064              		.thumb_func
 1065              		.type	_ZN14rosserial_msgs9TopicInfo7getTypeEv, %function
 1066              	_ZN14rosserial_msgs9TopicInfo7getTypeEv:
 1067              	.LFB34:
 122:./ros_lib/rosserial_msgs/TopicInfo.h **** 
 123:./ros_lib/rosserial_msgs/TopicInfo.h ****     const char * getType(){ return "rosserial_msgs/TopicInfo"; };
 1068              		.loc 4 123 0
 1069              		.cfi_startproc
 1070 0000 80B5     		push	{r7, lr}
 1071              		.cfi_def_cfa_offset 8
 1072              		.cfi_offset 7, -8
 1073              		.cfi_offset 14, -4
 1074 0002 82B0     		sub	sp, sp, #8
ARM GAS  C:\Users\Chuck\AppData\Local\Temp\cc5X170Y.s 			page 25


 1075              		.cfi_def_cfa_offset 16
 1076 0004 00AF     		add	r7, sp, #0
 1077              		.cfi_def_cfa_register 7
 1078 0006 7860     		str	r0, [r7, #4]
 1079              		.loc 4 123 0
 1080 0008 024B     		ldr	r3, .L43
 1081 000a 181C     		mov	r0, r3
 1082 000c BD46     		mov	sp, r7
 1083 000e 02B0     		add	sp, sp, #8
 1084              		@ sp needed
 1085 0010 80BD     		pop	{r7, pc}
 1086              	.L44:
 1087 0012 C046     		.align	2
 1088              	.L43:
 1089 0014 38000000 		.word	.LC9
 1090              		.cfi_endproc
 1091              	.LFE34:
 1092              		.size	_ZN14rosserial_msgs9TopicInfo7getTypeEv, .-_ZN14rosserial_msgs9TopicInfo7getTypeEv
 1093              		.section	.rodata
 1094 0051 000000   		.align	2
 1095              	.LC11:
 1096 0054 30616435 		.ascii	"0ad51f88fc44892f8c10684077646005\000"
 1096      31663838 
 1096      66633434 
 1096      38393266 
 1096      38633130 
 1097              		.section	.text._ZN14rosserial_msgs9TopicInfo6getMD5Ev,"axG",%progbits,_ZN14rosserial_msgs9TopicInf
 1098              		.align	2
 1099              		.weak	_ZN14rosserial_msgs9TopicInfo6getMD5Ev
 1100              		.code	16
 1101              		.thumb_func
 1102              		.type	_ZN14rosserial_msgs9TopicInfo6getMD5Ev, %function
 1103              	_ZN14rosserial_msgs9TopicInfo6getMD5Ev:
 1104              	.LFB35:
 124:./ros_lib/rosserial_msgs/TopicInfo.h ****     const char * getMD5(){ return "0ad51f88fc44892f8c10684077646005"; };
 1105              		.loc 4 124 0
 1106              		.cfi_startproc
 1107 0000 80B5     		push	{r7, lr}
 1108              		.cfi_def_cfa_offset 8
 1109              		.cfi_offset 7, -8
 1110              		.cfi_offset 14, -4
 1111 0002 82B0     		sub	sp, sp, #8
 1112              		.cfi_def_cfa_offset 16
 1113 0004 00AF     		add	r7, sp, #0
 1114              		.cfi_def_cfa_register 7
 1115 0006 7860     		str	r0, [r7, #4]
 1116              		.loc 4 124 0
 1117 0008 024B     		ldr	r3, .L47
 1118 000a 181C     		mov	r0, r3
 1119 000c BD46     		mov	sp, r7
 1120 000e 02B0     		add	sp, sp, #8
 1121              		@ sp needed
 1122 0010 80BD     		pop	{r7, pc}
 1123              	.L48:
 1124 0012 C046     		.align	2
 1125              	.L47:
 1126 0014 54000000 		.word	.LC11
ARM GAS  C:\Users\Chuck\AppData\Local\Temp\cc5X170Y.s 			page 26


 1127              		.cfi_endproc
 1128              	.LFE35:
 1129              		.size	_ZN14rosserial_msgs9TopicInfo6getMD5Ev, .-_ZN14rosserial_msgs9TopicInfo6getMD5Ev
 1130              		.section	.text._ZN14rosserial_msgs3LogC2Ev,"axG",%progbits,_ZN14rosserial_msgs3LogC5Ev,comdat
 1131              		.align	2
 1132              		.weak	_ZN14rosserial_msgs3LogC2Ev
 1133              		.code	16
 1134              		.thumb_func
 1135              		.type	_ZN14rosserial_msgs3LogC2Ev, %function
 1136              	_ZN14rosserial_msgs3LogC2Ev:
 1137              	.LFB37:
 1138              		.file 5 "./ros_lib/rosserial_msgs/Log.h"
   1:./ros_lib/rosserial_msgs/Log.h **** #ifndef _ROS_rosserial_msgs_Log_h
   2:./ros_lib/rosserial_msgs/Log.h **** #define _ROS_rosserial_msgs_Log_h
   3:./ros_lib/rosserial_msgs/Log.h **** 
   4:./ros_lib/rosserial_msgs/Log.h **** #include <stdint.h>
   5:./ros_lib/rosserial_msgs/Log.h **** #include <string.h>
   6:./ros_lib/rosserial_msgs/Log.h **** #include <stdlib.h>
   7:./ros_lib/rosserial_msgs/Log.h **** #include "ros/msg.h"
   8:./ros_lib/rosserial_msgs/Log.h **** 
   9:./ros_lib/rosserial_msgs/Log.h **** namespace rosserial_msgs
  10:./ros_lib/rosserial_msgs/Log.h **** {
  11:./ros_lib/rosserial_msgs/Log.h **** 
  12:./ros_lib/rosserial_msgs/Log.h ****   class Log : public ros::Msg
  13:./ros_lib/rosserial_msgs/Log.h ****   {
  14:./ros_lib/rosserial_msgs/Log.h ****     public:
  15:./ros_lib/rosserial_msgs/Log.h ****       uint8_t level;
  16:./ros_lib/rosserial_msgs/Log.h ****       const char* msg;
  17:./ros_lib/rosserial_msgs/Log.h ****       enum { ROSDEBUG = 0 };
  18:./ros_lib/rosserial_msgs/Log.h ****       enum { INFO = 1 };
  19:./ros_lib/rosserial_msgs/Log.h ****       enum { WARN = 2 };
  20:./ros_lib/rosserial_msgs/Log.h ****       enum { ERROR = 3 };
  21:./ros_lib/rosserial_msgs/Log.h ****       enum { FATAL = 4 };
  22:./ros_lib/rosserial_msgs/Log.h **** 
  23:./ros_lib/rosserial_msgs/Log.h ****     Log():
 1139              		.loc 5 23 0
 1140              		.cfi_startproc
 1141 0000 80B5     		push	{r7, lr}
 1142              		.cfi_def_cfa_offset 8
 1143              		.cfi_offset 7, -8
 1144              		.cfi_offset 14, -4
 1145 0002 82B0     		sub	sp, sp, #8
 1146              		.cfi_def_cfa_offset 16
 1147 0004 00AF     		add	r7, sp, #0
 1148              		.cfi_def_cfa_register 7
 1149 0006 7860     		str	r0, [r7, #4]
 1150              	.LBB13:
  24:./ros_lib/rosserial_msgs/Log.h ****       level(0),
  25:./ros_lib/rosserial_msgs/Log.h ****       msg("")
 1151              		.loc 5 25 0
 1152 0008 7B68     		ldr	r3, [r7, #4]
 1153 000a 181C     		mov	r0, r3
 1154 000c FFF7FEFF 		bl	_ZN3ros3MsgC2Ev
 1155 0010 7B68     		ldr	r3, [r7, #4]
 1156 0012 064A     		ldr	r2, .L52
 1157 0014 1A60     		str	r2, [r3]
 1158 0016 7B68     		ldr	r3, [r7, #4]
ARM GAS  C:\Users\Chuck\AppData\Local\Temp\cc5X170Y.s 			page 27


 1159 0018 0022     		mov	r2, #0
 1160 001a 1A71     		strb	r2, [r3, #4]
 1161 001c 7B68     		ldr	r3, [r7, #4]
 1162 001e 044A     		ldr	r2, .L52+4
 1163 0020 9A60     		str	r2, [r3, #8]
 1164              	.LBE13:
  26:./ros_lib/rosserial_msgs/Log.h ****     {
  27:./ros_lib/rosserial_msgs/Log.h ****     }
 1165              		.loc 5 27 0
 1166 0022 7B68     		ldr	r3, [r7, #4]
 1167 0024 181C     		mov	r0, r3
 1168 0026 BD46     		mov	sp, r7
 1169 0028 02B0     		add	sp, sp, #8
 1170              		@ sp needed
 1171 002a 80BD     		pop	{r7, pc}
 1172              	.L53:
 1173              		.align	2
 1174              	.L52:
 1175 002c 08000000 		.word	_ZTVN14rosserial_msgs3LogE+8
 1176 0030 34000000 		.word	.LC7
 1177              		.cfi_endproc
 1178              	.LFE37:
 1179              		.size	_ZN14rosserial_msgs3LogC2Ev, .-_ZN14rosserial_msgs3LogC2Ev
 1180              		.weak	_ZN14rosserial_msgs3LogC1Ev
 1181              		.thumb_set _ZN14rosserial_msgs3LogC1Ev,_ZN14rosserial_msgs3LogC2Ev
 1182              		.section	.text._ZNK14rosserial_msgs3Log9serializeEPh,"axG",%progbits,_ZNK14rosserial_msgs3Log9seri
 1183              		.align	2
 1184              		.weak	_ZNK14rosserial_msgs3Log9serializeEPh
 1185              		.code	16
 1186              		.thumb_func
 1187              		.type	_ZNK14rosserial_msgs3Log9serializeEPh, %function
 1188              	_ZNK14rosserial_msgs3Log9serializeEPh:
 1189              	.LFB39:
  28:./ros_lib/rosserial_msgs/Log.h **** 
  29:./ros_lib/rosserial_msgs/Log.h ****     virtual int serialize(unsigned char *outbuffer) const
 1190              		.loc 5 29 0
 1191              		.cfi_startproc
 1192 0000 80B5     		push	{r7, lr}
 1193              		.cfi_def_cfa_offset 8
 1194              		.cfi_offset 7, -8
 1195              		.cfi_offset 14, -4
 1196 0002 84B0     		sub	sp, sp, #16
 1197              		.cfi_def_cfa_offset 24
 1198 0004 00AF     		add	r7, sp, #0
 1199              		.cfi_def_cfa_register 7
 1200 0006 7860     		str	r0, [r7, #4]
 1201 0008 3960     		str	r1, [r7]
 1202              	.LBB14:
  30:./ros_lib/rosserial_msgs/Log.h ****     {
  31:./ros_lib/rosserial_msgs/Log.h ****       int offset = 0;
 1203              		.loc 5 31 0
 1204 000a 0023     		mov	r3, #0
 1205 000c FB60     		str	r3, [r7, #12]
  32:./ros_lib/rosserial_msgs/Log.h **** #ifndef ROS_MSG_DONT_SERIALIZE
  33:./ros_lib/rosserial_msgs/Log.h ****       *(outbuffer + offset + 0) = (this->level >> (8 * 0)) & 0xFF;
 1206              		.loc 5 33 0
 1207 000e FB68     		ldr	r3, [r7, #12]
ARM GAS  C:\Users\Chuck\AppData\Local\Temp\cc5X170Y.s 			page 28


 1208 0010 3A68     		ldr	r2, [r7]
 1209 0012 D318     		add	r3, r2, r3
 1210 0014 7A68     		ldr	r2, [r7, #4]
 1211 0016 1279     		ldrb	r2, [r2, #4]
 1212 0018 1A70     		strb	r2, [r3]
  34:./ros_lib/rosserial_msgs/Log.h ****       offset += sizeof(this->level);
 1213              		.loc 5 34 0
 1214 001a FB68     		ldr	r3, [r7, #12]
 1215 001c 0133     		add	r3, r3, #1
 1216 001e FB60     		str	r3, [r7, #12]
  35:./ros_lib/rosserial_msgs/Log.h ****       uint32_t length_msg = strlen( (const char*) this->msg);
 1217              		.loc 5 35 0
 1218 0020 7B68     		ldr	r3, [r7, #4]
 1219 0022 9B68     		ldr	r3, [r3, #8]
 1220 0024 181C     		mov	r0, r3
 1221 0026 FFF7FEFF 		bl	strlen
 1222 002a 031C     		mov	r3, r0
 1223 002c BB60     		str	r3, [r7, #8]
  36:./ros_lib/rosserial_msgs/Log.h ****       memcpy(outbuffer + offset, &length_msg, sizeof(uint32_t));
 1224              		.loc 5 36 0
 1225 002e FB68     		ldr	r3, [r7, #12]
 1226 0030 3A68     		ldr	r2, [r7]
 1227 0032 D218     		add	r2, r2, r3
 1228 0034 0823     		mov	r3, #8
 1229 0036 FB18     		add	r3, r7, r3
 1230 0038 101C     		mov	r0, r2
 1231 003a 191C     		mov	r1, r3
 1232 003c 0422     		mov	r2, #4
 1233 003e FFF7FEFF 		bl	memcpy
  37:./ros_lib/rosserial_msgs/Log.h ****       offset += 4;
 1234              		.loc 5 37 0
 1235 0042 FB68     		ldr	r3, [r7, #12]
 1236 0044 0433     		add	r3, r3, #4
 1237 0046 FB60     		str	r3, [r7, #12]
  38:./ros_lib/rosserial_msgs/Log.h ****       memcpy(outbuffer + offset, this->msg, length_msg);
 1238              		.loc 5 38 0
 1239 0048 FB68     		ldr	r3, [r7, #12]
 1240 004a 3A68     		ldr	r2, [r7]
 1241 004c D118     		add	r1, r2, r3
 1242 004e 7B68     		ldr	r3, [r7, #4]
 1243 0050 9A68     		ldr	r2, [r3, #8]
 1244 0052 BB68     		ldr	r3, [r7, #8]
 1245 0054 081C     		mov	r0, r1
 1246 0056 111C     		mov	r1, r2
 1247 0058 1A1C     		mov	r2, r3
 1248 005a FFF7FEFF 		bl	memcpy
  39:./ros_lib/rosserial_msgs/Log.h ****       offset += length_msg;
 1249              		.loc 5 39 0
 1250 005e FA68     		ldr	r2, [r7, #12]
 1251 0060 BB68     		ldr	r3, [r7, #8]
 1252 0062 D318     		add	r3, r2, r3
 1253 0064 FB60     		str	r3, [r7, #12]
  40:./ros_lib/rosserial_msgs/Log.h **** #endif
  41:./ros_lib/rosserial_msgs/Log.h ****       return offset;
 1254              		.loc 5 41 0
 1255 0066 FB68     		ldr	r3, [r7, #12]
 1256              	.LBE14:
ARM GAS  C:\Users\Chuck\AppData\Local\Temp\cc5X170Y.s 			page 29


  42:./ros_lib/rosserial_msgs/Log.h ****     }
 1257              		.loc 5 42 0
 1258 0068 181C     		mov	r0, r3
 1259 006a BD46     		mov	sp, r7
 1260 006c 04B0     		add	sp, sp, #16
 1261              		@ sp needed
 1262 006e 80BD     		pop	{r7, pc}
 1263              		.cfi_endproc
 1264              	.LFE39:
 1265              		.size	_ZNK14rosserial_msgs3Log9serializeEPh, .-_ZNK14rosserial_msgs3Log9serializeEPh
 1266              		.section	.text._ZN14rosserial_msgs3Log11deserializeEPh,"axG",%progbits,_ZN14rosserial_msgs3Log11de
 1267              		.align	2
 1268              		.weak	_ZN14rosserial_msgs3Log11deserializeEPh
 1269              		.code	16
 1270              		.thumb_func
 1271              		.type	_ZN14rosserial_msgs3Log11deserializeEPh, %function
 1272              	_ZN14rosserial_msgs3Log11deserializeEPh:
 1273              	.LFB40:
  43:./ros_lib/rosserial_msgs/Log.h **** 
  44:./ros_lib/rosserial_msgs/Log.h ****     virtual int deserialize(unsigned char *inbuffer)
 1274              		.loc 5 44 0
 1275              		.cfi_startproc
 1276 0000 80B5     		push	{r7, lr}
 1277              		.cfi_def_cfa_offset 8
 1278              		.cfi_offset 7, -8
 1279              		.cfi_offset 14, -4
 1280 0002 86B0     		sub	sp, sp, #24
 1281              		.cfi_def_cfa_offset 32
 1282 0004 00AF     		add	r7, sp, #0
 1283              		.cfi_def_cfa_register 7
 1284 0006 7860     		str	r0, [r7, #4]
 1285 0008 3960     		str	r1, [r7]
 1286              	.LBB15:
  45:./ros_lib/rosserial_msgs/Log.h ****     {
  46:./ros_lib/rosserial_msgs/Log.h ****       int offset = 0;
 1287              		.loc 5 46 0
 1288 000a 0023     		mov	r3, #0
 1289 000c 3B61     		str	r3, [r7, #16]
  47:./ros_lib/rosserial_msgs/Log.h **** #ifndef ROS_MSG_DONT_DESERIALIZE
  48:./ros_lib/rosserial_msgs/Log.h ****       this->level =  ((uint8_t) (*(inbuffer + offset)));
 1290              		.loc 5 48 0
 1291 000e 3B69     		ldr	r3, [r7, #16]
 1292 0010 3A68     		ldr	r2, [r7]
 1293 0012 D318     		add	r3, r2, r3
 1294 0014 1A78     		ldrb	r2, [r3]
 1295 0016 7B68     		ldr	r3, [r7, #4]
 1296 0018 1A71     		strb	r2, [r3, #4]
  49:./ros_lib/rosserial_msgs/Log.h ****       offset += sizeof(this->level);
 1297              		.loc 5 49 0
 1298 001a 3B69     		ldr	r3, [r7, #16]
 1299 001c 0133     		add	r3, r3, #1
 1300 001e 3B61     		str	r3, [r7, #16]
  50:./ros_lib/rosserial_msgs/Log.h ****       uint32_t length_msg;
  51:./ros_lib/rosserial_msgs/Log.h ****       memcpy(&length_msg, (inbuffer + offset), sizeof(uint32_t));
 1301              		.loc 5 51 0
 1302 0020 3B69     		ldr	r3, [r7, #16]
 1303 0022 3A68     		ldr	r2, [r7]
ARM GAS  C:\Users\Chuck\AppData\Local\Temp\cc5X170Y.s 			page 30


 1304 0024 D318     		add	r3, r2, r3
 1305 0026 0C22     		mov	r2, #12
 1306 0028 BA18     		add	r2, r7, r2
 1307 002a 101C     		mov	r0, r2
 1308 002c 191C     		mov	r1, r3
 1309 002e 0422     		mov	r2, #4
 1310 0030 FFF7FEFF 		bl	memcpy
  52:./ros_lib/rosserial_msgs/Log.h ****       offset += 4;
 1311              		.loc 5 52 0
 1312 0034 3B69     		ldr	r3, [r7, #16]
 1313 0036 0433     		add	r3, r3, #4
 1314 0038 3B61     		str	r3, [r7, #16]
 1315              	.LBB16:
  53:./ros_lib/rosserial_msgs/Log.h ****       for(unsigned int k= offset; k< offset+length_msg; ++k){
 1316              		.loc 5 53 0
 1317 003a 3B69     		ldr	r3, [r7, #16]
 1318 003c 7B61     		str	r3, [r7, #20]
 1319 003e 0BE0     		b	.L57
 1320              	.L58:
  54:./ros_lib/rosserial_msgs/Log.h ****           inbuffer[k-1]=inbuffer[k];
 1321              		.loc 5 54 0 discriminator 3
 1322 0040 7B69     		ldr	r3, [r7, #20]
 1323 0042 013B     		sub	r3, r3, #1
 1324 0044 3A68     		ldr	r2, [r7]
 1325 0046 D318     		add	r3, r2, r3
 1326 0048 3968     		ldr	r1, [r7]
 1327 004a 7A69     		ldr	r2, [r7, #20]
 1328 004c 8A18     		add	r2, r1, r2
 1329 004e 1278     		ldrb	r2, [r2]
 1330 0050 1A70     		strb	r2, [r3]
  53:./ros_lib/rosserial_msgs/Log.h ****       for(unsigned int k= offset; k< offset+length_msg; ++k){
 1331              		.loc 5 53 0 discriminator 3
 1332 0052 7B69     		ldr	r3, [r7, #20]
 1333 0054 0133     		add	r3, r3, #1
 1334 0056 7B61     		str	r3, [r7, #20]
 1335              	.L57:
  53:./ros_lib/rosserial_msgs/Log.h ****       for(unsigned int k= offset; k< offset+length_msg; ++k){
 1336              		.loc 5 53 0 is_stmt 0 discriminator 1
 1337 0058 3A69     		ldr	r2, [r7, #16]
 1338 005a FB68     		ldr	r3, [r7, #12]
 1339 005c D218     		add	r2, r2, r3
 1340 005e 7B69     		ldr	r3, [r7, #20]
 1341 0060 9A42     		cmp	r2, r3
 1342 0062 EDD8     		bhi	.L58
 1343              	.LBE16:
  55:./ros_lib/rosserial_msgs/Log.h ****       }
  56:./ros_lib/rosserial_msgs/Log.h ****       inbuffer[offset+length_msg-1]=0;
 1344              		.loc 5 56 0 is_stmt 1
 1345 0064 3A69     		ldr	r2, [r7, #16]
 1346 0066 FB68     		ldr	r3, [r7, #12]
 1347 0068 D318     		add	r3, r2, r3
 1348 006a 013B     		sub	r3, r3, #1
 1349 006c 3A68     		ldr	r2, [r7]
 1350 006e D318     		add	r3, r2, r3
 1351 0070 0022     		mov	r2, #0
 1352 0072 1A70     		strb	r2, [r3]
  57:./ros_lib/rosserial_msgs/Log.h ****       this->msg = (char *)(inbuffer + offset-1);
ARM GAS  C:\Users\Chuck\AppData\Local\Temp\cc5X170Y.s 			page 31


 1353              		.loc 5 57 0
 1354 0074 3B69     		ldr	r3, [r7, #16]
 1355 0076 013B     		sub	r3, r3, #1
 1356 0078 3A68     		ldr	r2, [r7]
 1357 007a D218     		add	r2, r2, r3
 1358 007c 7B68     		ldr	r3, [r7, #4]
 1359 007e 9A60     		str	r2, [r3, #8]
  58:./ros_lib/rosserial_msgs/Log.h ****       offset += length_msg;
 1360              		.loc 5 58 0
 1361 0080 3A69     		ldr	r2, [r7, #16]
 1362 0082 FB68     		ldr	r3, [r7, #12]
 1363 0084 D318     		add	r3, r2, r3
 1364 0086 3B61     		str	r3, [r7, #16]
  59:./ros_lib/rosserial_msgs/Log.h **** #endif
  60:./ros_lib/rosserial_msgs/Log.h ****      return offset;
 1365              		.loc 5 60 0
 1366 0088 3B69     		ldr	r3, [r7, #16]
 1367              	.LBE15:
  61:./ros_lib/rosserial_msgs/Log.h ****     }
 1368              		.loc 5 61 0
 1369 008a 181C     		mov	r0, r3
 1370 008c BD46     		mov	sp, r7
 1371 008e 06B0     		add	sp, sp, #24
 1372              		@ sp needed
 1373 0090 80BD     		pop	{r7, pc}
 1374              		.cfi_endproc
 1375              	.LFE40:
 1376              		.size	_ZN14rosserial_msgs3Log11deserializeEPh, .-_ZN14rosserial_msgs3Log11deserializeEPh
 1377 0092 C046     		.section	.rodata
 1378 0075 000000   		.align	2
 1379              	.LC15:
 1380 0078 726F7373 		.ascii	"rosserial_msgs/Log\000"
 1380      65726961 
 1380      6C5F6D73 
 1380      67732F4C 
 1380      6F6700
 1381              		.section	.text._ZN14rosserial_msgs3Log7getTypeEv,"axG",%progbits,_ZN14rosserial_msgs3Log7getTypeEv
 1382              		.align	2
 1383              		.weak	_ZN14rosserial_msgs3Log7getTypeEv
 1384              		.code	16
 1385              		.thumb_func
 1386              		.type	_ZN14rosserial_msgs3Log7getTypeEv, %function
 1387              	_ZN14rosserial_msgs3Log7getTypeEv:
 1388              	.LFB41:
  62:./ros_lib/rosserial_msgs/Log.h **** 
  63:./ros_lib/rosserial_msgs/Log.h ****     const char * getType(){ return "rosserial_msgs/Log"; };
 1389              		.loc 5 63 0
 1390              		.cfi_startproc
 1391 0000 80B5     		push	{r7, lr}
 1392              		.cfi_def_cfa_offset 8
 1393              		.cfi_offset 7, -8
 1394              		.cfi_offset 14, -4
 1395 0002 82B0     		sub	sp, sp, #8
 1396              		.cfi_def_cfa_offset 16
 1397 0004 00AF     		add	r7, sp, #0
 1398              		.cfi_def_cfa_register 7
 1399 0006 7860     		str	r0, [r7, #4]
ARM GAS  C:\Users\Chuck\AppData\Local\Temp\cc5X170Y.s 			page 32


 1400              		.loc 5 63 0
 1401 0008 024B     		ldr	r3, .L62
 1402 000a 181C     		mov	r0, r3
 1403 000c BD46     		mov	sp, r7
 1404 000e 02B0     		add	sp, sp, #8
 1405              		@ sp needed
 1406 0010 80BD     		pop	{r7, pc}
 1407              	.L63:
 1408 0012 C046     		.align	2
 1409              	.L62:
 1410 0014 78000000 		.word	.LC15
 1411              		.cfi_endproc
 1412              	.LFE41:
 1413              		.size	_ZN14rosserial_msgs3Log7getTypeEv, .-_ZN14rosserial_msgs3Log7getTypeEv
 1414              		.section	.rodata
 1415 008b 00       		.align	2
 1416              	.LC17:
 1417 008c 31316162 		.ascii	"11abd731c25933261cd6183bd12d6295\000"
 1417      64373331 
 1417      63323539 
 1417      33333236 
 1417      31636436 
 1418              		.section	.text._ZN14rosserial_msgs3Log6getMD5Ev,"axG",%progbits,_ZN14rosserial_msgs3Log6getMD5Ev,c
 1419              		.align	2
 1420              		.weak	_ZN14rosserial_msgs3Log6getMD5Ev
 1421              		.code	16
 1422              		.thumb_func
 1423              		.type	_ZN14rosserial_msgs3Log6getMD5Ev, %function
 1424              	_ZN14rosserial_msgs3Log6getMD5Ev:
 1425              	.LFB42:
  64:./ros_lib/rosserial_msgs/Log.h ****     const char * getMD5(){ return "11abd731c25933261cd6183bd12d6295"; };
 1426              		.loc 5 64 0
 1427              		.cfi_startproc
 1428 0000 80B5     		push	{r7, lr}
 1429              		.cfi_def_cfa_offset 8
 1430              		.cfi_offset 7, -8
 1431              		.cfi_offset 14, -4
 1432 0002 82B0     		sub	sp, sp, #8
 1433              		.cfi_def_cfa_offset 16
 1434 0004 00AF     		add	r7, sp, #0
 1435              		.cfi_def_cfa_register 7
 1436 0006 7860     		str	r0, [r7, #4]
 1437              		.loc 5 64 0
 1438 0008 024B     		ldr	r3, .L66
 1439 000a 181C     		mov	r0, r3
 1440 000c BD46     		mov	sp, r7
 1441 000e 02B0     		add	sp, sp, #8
 1442              		@ sp needed
 1443 0010 80BD     		pop	{r7, pc}
 1444              	.L67:
 1445 0012 C046     		.align	2
 1446              	.L66:
 1447 0014 8C000000 		.word	.LC17
 1448              		.cfi_endproc
 1449              	.LFE42:
 1450              		.size	_ZN14rosserial_msgs3Log6getMD5Ev, .-_ZN14rosserial_msgs3Log6getMD5Ev
 1451              		.section	.text._ZN14rosserial_msgs20RequestParamResponseC2Ev,"axG",%progbits,_ZN14rosserial_msgs20
ARM GAS  C:\Users\Chuck\AppData\Local\Temp\cc5X170Y.s 			page 33


 1452              		.align	2
 1453              		.weak	_ZN14rosserial_msgs20RequestParamResponseC2Ev
 1454              		.code	16
 1455              		.thumb_func
 1456              		.type	_ZN14rosserial_msgs20RequestParamResponseC2Ev, %function
 1457              	_ZN14rosserial_msgs20RequestParamResponseC2Ev:
 1458              	.LFB51:
 1459              		.file 6 "./ros_lib/rosserial_msgs/RequestParam.h"
   1:./ros_lib/rosserial_msgs/RequestParam.h **** #ifndef _ROS_SERVICE_RequestParam_h
   2:./ros_lib/rosserial_msgs/RequestParam.h **** #define _ROS_SERVICE_RequestParam_h
   3:./ros_lib/rosserial_msgs/RequestParam.h **** #include <stdint.h>
   4:./ros_lib/rosserial_msgs/RequestParam.h **** #include <string.h>
   5:./ros_lib/rosserial_msgs/RequestParam.h **** #include <stdlib.h>
   6:./ros_lib/rosserial_msgs/RequestParam.h **** #include "ros/msg.h"
   7:./ros_lib/rosserial_msgs/RequestParam.h **** 
   8:./ros_lib/rosserial_msgs/RequestParam.h **** namespace rosserial_msgs
   9:./ros_lib/rosserial_msgs/RequestParam.h **** {
  10:./ros_lib/rosserial_msgs/RequestParam.h **** 
  11:./ros_lib/rosserial_msgs/RequestParam.h **** static const char REQUESTPARAM[] = "rosserial_msgs/RequestParam";
  12:./ros_lib/rosserial_msgs/RequestParam.h **** 
  13:./ros_lib/rosserial_msgs/RequestParam.h ****   class RequestParamRequest : public ros::Msg
  14:./ros_lib/rosserial_msgs/RequestParam.h ****   {
  15:./ros_lib/rosserial_msgs/RequestParam.h ****     public:
  16:./ros_lib/rosserial_msgs/RequestParam.h ****       const char* name;
  17:./ros_lib/rosserial_msgs/RequestParam.h **** 
  18:./ros_lib/rosserial_msgs/RequestParam.h ****     RequestParamRequest():
  19:./ros_lib/rosserial_msgs/RequestParam.h ****       name("")
  20:./ros_lib/rosserial_msgs/RequestParam.h ****     {
  21:./ros_lib/rosserial_msgs/RequestParam.h ****     }
  22:./ros_lib/rosserial_msgs/RequestParam.h **** 
  23:./ros_lib/rosserial_msgs/RequestParam.h ****     virtual int serialize(unsigned char *outbuffer) const
  24:./ros_lib/rosserial_msgs/RequestParam.h ****     {
  25:./ros_lib/rosserial_msgs/RequestParam.h ****       int offset = 0;
  26:./ros_lib/rosserial_msgs/RequestParam.h **** #ifndef ROS_MSG_DONT_SERIALIZE
  27:./ros_lib/rosserial_msgs/RequestParam.h ****       uint32_t length_name = strlen( (const char*) this->name);
  28:./ros_lib/rosserial_msgs/RequestParam.h ****       memcpy(outbuffer + offset, &length_name, sizeof(uint32_t));
  29:./ros_lib/rosserial_msgs/RequestParam.h ****       offset += 4;
  30:./ros_lib/rosserial_msgs/RequestParam.h ****       memcpy(outbuffer + offset, this->name, length_name);
  31:./ros_lib/rosserial_msgs/RequestParam.h ****       offset += length_name;
  32:./ros_lib/rosserial_msgs/RequestParam.h **** #endif
  33:./ros_lib/rosserial_msgs/RequestParam.h ****       return offset;
  34:./ros_lib/rosserial_msgs/RequestParam.h ****     }
  35:./ros_lib/rosserial_msgs/RequestParam.h **** 
  36:./ros_lib/rosserial_msgs/RequestParam.h ****     virtual int deserialize(unsigned char *inbuffer)
  37:./ros_lib/rosserial_msgs/RequestParam.h ****     {
  38:./ros_lib/rosserial_msgs/RequestParam.h ****       int offset = 0;
  39:./ros_lib/rosserial_msgs/RequestParam.h **** #ifndef ROS_MSG_DONT_DESERIALIZE
  40:./ros_lib/rosserial_msgs/RequestParam.h ****       uint32_t length_name;
  41:./ros_lib/rosserial_msgs/RequestParam.h ****       memcpy(&length_name, (inbuffer + offset), sizeof(uint32_t));
  42:./ros_lib/rosserial_msgs/RequestParam.h ****       offset += 4;
  43:./ros_lib/rosserial_msgs/RequestParam.h ****       for(unsigned int k= offset; k< offset+length_name; ++k){
  44:./ros_lib/rosserial_msgs/RequestParam.h ****           inbuffer[k-1]=inbuffer[k];
  45:./ros_lib/rosserial_msgs/RequestParam.h ****       }
  46:./ros_lib/rosserial_msgs/RequestParam.h ****       inbuffer[offset+length_name-1]=0;
  47:./ros_lib/rosserial_msgs/RequestParam.h ****       this->name = (char *)(inbuffer + offset-1);
  48:./ros_lib/rosserial_msgs/RequestParam.h ****       offset += length_name;
  49:./ros_lib/rosserial_msgs/RequestParam.h **** #endif
ARM GAS  C:\Users\Chuck\AppData\Local\Temp\cc5X170Y.s 			page 34


  50:./ros_lib/rosserial_msgs/RequestParam.h ****      return offset;
  51:./ros_lib/rosserial_msgs/RequestParam.h ****     }
  52:./ros_lib/rosserial_msgs/RequestParam.h **** 
  53:./ros_lib/rosserial_msgs/RequestParam.h ****     const char * getType(){ return REQUESTPARAM; };
  54:./ros_lib/rosserial_msgs/RequestParam.h ****     const char * getMD5(){ return "c1f3d28f1b044c871e6eff2e9fc3c667"; };
  55:./ros_lib/rosserial_msgs/RequestParam.h **** 
  56:./ros_lib/rosserial_msgs/RequestParam.h ****   };
  57:./ros_lib/rosserial_msgs/RequestParam.h **** 
  58:./ros_lib/rosserial_msgs/RequestParam.h ****   class RequestParamResponse : public ros::Msg
  59:./ros_lib/rosserial_msgs/RequestParam.h ****   {
  60:./ros_lib/rosserial_msgs/RequestParam.h ****     public:
  61:./ros_lib/rosserial_msgs/RequestParam.h ****       uint8_t ints_length;
  62:./ros_lib/rosserial_msgs/RequestParam.h ****       int32_t st_ints;
  63:./ros_lib/rosserial_msgs/RequestParam.h ****       int32_t * ints;
  64:./ros_lib/rosserial_msgs/RequestParam.h ****       uint8_t floats_length;
  65:./ros_lib/rosserial_msgs/RequestParam.h ****       float st_floats;
  66:./ros_lib/rosserial_msgs/RequestParam.h ****       float * floats;
  67:./ros_lib/rosserial_msgs/RequestParam.h ****       uint8_t strings_length;
  68:./ros_lib/rosserial_msgs/RequestParam.h ****       char* st_strings;
  69:./ros_lib/rosserial_msgs/RequestParam.h ****       char* * strings;
  70:./ros_lib/rosserial_msgs/RequestParam.h **** 
  71:./ros_lib/rosserial_msgs/RequestParam.h ****     RequestParamResponse():
 1460              		.loc 6 71 0
 1461              		.cfi_startproc
 1462 0000 80B5     		push	{r7, lr}
 1463              		.cfi_def_cfa_offset 8
 1464              		.cfi_offset 7, -8
 1465              		.cfi_offset 14, -4
 1466 0002 82B0     		sub	sp, sp, #8
 1467              		.cfi_def_cfa_offset 16
 1468 0004 00AF     		add	r7, sp, #0
 1469              		.cfi_def_cfa_register 7
 1470 0006 7860     		str	r0, [r7, #4]
 1471              	.LBB17:
  72:./ros_lib/rosserial_msgs/RequestParam.h ****       ints_length(0), ints(NULL),
  73:./ros_lib/rosserial_msgs/RequestParam.h ****       floats_length(0), floats(NULL),
  74:./ros_lib/rosserial_msgs/RequestParam.h ****       strings_length(0), strings(NULL)
 1472              		.loc 6 74 0
 1473 0008 7B68     		ldr	r3, [r7, #4]
 1474 000a 181C     		mov	r0, r3
 1475 000c FFF7FEFF 		bl	_ZN3ros3MsgC2Ev
 1476 0010 7B68     		ldr	r3, [r7, #4]
 1477 0012 0C4A     		ldr	r2, .L71
 1478 0014 1A60     		str	r2, [r3]
 1479 0016 7B68     		ldr	r3, [r7, #4]
 1480 0018 0022     		mov	r2, #0
 1481 001a 1A71     		strb	r2, [r3, #4]
 1482 001c 7B68     		ldr	r3, [r7, #4]
 1483 001e 0022     		mov	r2, #0
 1484 0020 DA60     		str	r2, [r3, #12]
 1485 0022 7B68     		ldr	r3, [r7, #4]
 1486 0024 0022     		mov	r2, #0
 1487 0026 1A74     		strb	r2, [r3, #16]
 1488 0028 7B68     		ldr	r3, [r7, #4]
 1489 002a 0022     		mov	r2, #0
 1490 002c 9A61     		str	r2, [r3, #24]
 1491 002e 7B68     		ldr	r3, [r7, #4]
ARM GAS  C:\Users\Chuck\AppData\Local\Temp\cc5X170Y.s 			page 35


 1492 0030 0022     		mov	r2, #0
 1493 0032 1A77     		strb	r2, [r3, #28]
 1494 0034 7B68     		ldr	r3, [r7, #4]
 1495 0036 0022     		mov	r2, #0
 1496 0038 5A62     		str	r2, [r3, #36]
 1497              	.LBE17:
  75:./ros_lib/rosserial_msgs/RequestParam.h ****     {
  76:./ros_lib/rosserial_msgs/RequestParam.h ****     }
 1498              		.loc 6 76 0
 1499 003a 7B68     		ldr	r3, [r7, #4]
 1500 003c 181C     		mov	r0, r3
 1501 003e BD46     		mov	sp, r7
 1502 0040 02B0     		add	sp, sp, #8
 1503              		@ sp needed
 1504 0042 80BD     		pop	{r7, pc}
 1505              	.L72:
 1506              		.align	2
 1507              	.L71:
 1508 0044 08000000 		.word	_ZTVN14rosserial_msgs20RequestParamResponseE+8
 1509              		.cfi_endproc
 1510              	.LFE51:
 1511              		.size	_ZN14rosserial_msgs20RequestParamResponseC2Ev, .-_ZN14rosserial_msgs20RequestParamResponseC2
 1512              		.weak	_ZN14rosserial_msgs20RequestParamResponseC1Ev
 1513              		.thumb_set _ZN14rosserial_msgs20RequestParamResponseC1Ev,_ZN14rosserial_msgs20RequestParamResponse
 1514              		.section	.text._ZNK14rosserial_msgs20RequestParamResponse9serializeEPh,"axG",%progbits,_ZNK14rosse
 1515              		.align	2
 1516              		.weak	_ZNK14rosserial_msgs20RequestParamResponse9serializeEPh
 1517              		.code	16
 1518              		.thumb_func
 1519              		.type	_ZNK14rosserial_msgs20RequestParamResponse9serializeEPh, %function
 1520              	_ZNK14rosserial_msgs20RequestParamResponse9serializeEPh:
 1521              	.LFB53:
  77:./ros_lib/rosserial_msgs/RequestParam.h **** 
  78:./ros_lib/rosserial_msgs/RequestParam.h ****     virtual int serialize(unsigned char *outbuffer) const
 1522              		.loc 6 78 0
 1523              		.cfi_startproc
 1524 0000 80B5     		push	{r7, lr}
 1525              		.cfi_def_cfa_offset 8
 1526              		.cfi_offset 7, -8
 1527              		.cfi_offset 14, -4
 1528 0002 88B0     		sub	sp, sp, #32
 1529              		.cfi_def_cfa_offset 40
 1530 0004 00AF     		add	r7, sp, #0
 1531              		.cfi_def_cfa_register 7
 1532 0006 7860     		str	r0, [r7, #4]
 1533 0008 3960     		str	r1, [r7]
 1534              	.LBB18:
  79:./ros_lib/rosserial_msgs/RequestParam.h ****     {
  80:./ros_lib/rosserial_msgs/RequestParam.h ****       int offset = 0;
 1535              		.loc 6 80 0
 1536 000a 0023     		mov	r3, #0
 1537 000c FB61     		str	r3, [r7, #28]
  81:./ros_lib/rosserial_msgs/RequestParam.h **** #ifndef ROS_MSG_DONT_SERIALIZE
  82:./ros_lib/rosserial_msgs/RequestParam.h ****       *(outbuffer + offset++) = ints_length;
 1538              		.loc 6 82 0
 1539 000e FB69     		ldr	r3, [r7, #28]
 1540 0010 5A1C     		add	r2, r3, #1
ARM GAS  C:\Users\Chuck\AppData\Local\Temp\cc5X170Y.s 			page 36


 1541 0012 FA61     		str	r2, [r7, #28]
 1542 0014 1A1C     		mov	r2, r3
 1543 0016 3B68     		ldr	r3, [r7]
 1544 0018 9B18     		add	r3, r3, r2
 1545 001a 7A68     		ldr	r2, [r7, #4]
 1546 001c 1279     		ldrb	r2, [r2, #4]
 1547 001e 1A70     		strb	r2, [r3]
  83:./ros_lib/rosserial_msgs/RequestParam.h ****       *(outbuffer + offset++) = 0;
 1548              		.loc 6 83 0
 1549 0020 FB69     		ldr	r3, [r7, #28]
 1550 0022 5A1C     		add	r2, r3, #1
 1551 0024 FA61     		str	r2, [r7, #28]
 1552 0026 1A1C     		mov	r2, r3
 1553 0028 3B68     		ldr	r3, [r7]
 1554 002a 9B18     		add	r3, r3, r2
 1555 002c 0022     		mov	r2, #0
 1556 002e 1A70     		strb	r2, [r3]
  84:./ros_lib/rosserial_msgs/RequestParam.h ****       *(outbuffer + offset++) = 0;
 1557              		.loc 6 84 0
 1558 0030 FB69     		ldr	r3, [r7, #28]
 1559 0032 5A1C     		add	r2, r3, #1
 1560 0034 FA61     		str	r2, [r7, #28]
 1561 0036 1A1C     		mov	r2, r3
 1562 0038 3B68     		ldr	r3, [r7]
 1563 003a 9B18     		add	r3, r3, r2
 1564 003c 0022     		mov	r2, #0
 1565 003e 1A70     		strb	r2, [r3]
  85:./ros_lib/rosserial_msgs/RequestParam.h ****       *(outbuffer + offset++) = 0;
 1566              		.loc 6 85 0
 1567 0040 FB69     		ldr	r3, [r7, #28]
 1568 0042 5A1C     		add	r2, r3, #1
 1569 0044 FA61     		str	r2, [r7, #28]
 1570 0046 1A1C     		mov	r2, r3
 1571 0048 3B68     		ldr	r3, [r7]
 1572 004a 9B18     		add	r3, r3, r2
 1573 004c 0022     		mov	r2, #0
 1574 004e 1A70     		strb	r2, [r3]
 1575              	.LBB19:
  86:./ros_lib/rosserial_msgs/RequestParam.h ****       for( uint8_t i = 0; i < ints_length; i++){
 1576              		.loc 6 86 0
 1577 0050 1B23     		mov	r3, #27
 1578 0052 FB18     		add	r3, r7, r3
 1579 0054 0022     		mov	r2, #0
 1580 0056 1A70     		strb	r2, [r3]
 1581 0058 30E0     		b	.L74
 1582              	.L75:
 1583              	.LBB20:
  87:./ros_lib/rosserial_msgs/RequestParam.h ****       union {
  88:./ros_lib/rosserial_msgs/RequestParam.h ****         int32_t real;
  89:./ros_lib/rosserial_msgs/RequestParam.h ****         uint32_t base;
  90:./ros_lib/rosserial_msgs/RequestParam.h ****       } u_intsi;
  91:./ros_lib/rosserial_msgs/RequestParam.h ****       u_intsi.real = this->ints[i];
 1584              		.loc 6 91 0 discriminator 3
 1585 005a 7B68     		ldr	r3, [r7, #4]
 1586 005c DA68     		ldr	r2, [r3, #12]
 1587 005e 1B23     		mov	r3, #27
 1588 0060 FB18     		add	r3, r7, r3
ARM GAS  C:\Users\Chuck\AppData\Local\Temp\cc5X170Y.s 			page 37


 1589 0062 1B78     		ldrb	r3, [r3]
 1590 0064 9B00     		lsl	r3, r3, #2
 1591 0066 D318     		add	r3, r2, r3
 1592 0068 1B68     		ldr	r3, [r3]
 1593 006a 7B61     		str	r3, [r7, #20]
  92:./ros_lib/rosserial_msgs/RequestParam.h ****       *(outbuffer + offset + 0) = (u_intsi.base >> (8 * 0)) & 0xFF;
 1594              		.loc 6 92 0 discriminator 3
 1595 006c FB69     		ldr	r3, [r7, #28]
 1596 006e 3A68     		ldr	r2, [r7]
 1597 0070 D318     		add	r3, r2, r3
 1598 0072 7A69     		ldr	r2, [r7, #20]
 1599 0074 D2B2     		uxtb	r2, r2
 1600 0076 1A70     		strb	r2, [r3]
  93:./ros_lib/rosserial_msgs/RequestParam.h ****       *(outbuffer + offset + 1) = (u_intsi.base >> (8 * 1)) & 0xFF;
 1601              		.loc 6 93 0 discriminator 3
 1602 0078 FB69     		ldr	r3, [r7, #28]
 1603 007a 0133     		add	r3, r3, #1
 1604 007c 3A68     		ldr	r2, [r7]
 1605 007e D318     		add	r3, r2, r3
 1606 0080 7A69     		ldr	r2, [r7, #20]
 1607 0082 120A     		lsr	r2, r2, #8
 1608 0084 D2B2     		uxtb	r2, r2
 1609 0086 1A70     		strb	r2, [r3]
  94:./ros_lib/rosserial_msgs/RequestParam.h ****       *(outbuffer + offset + 2) = (u_intsi.base >> (8 * 2)) & 0xFF;
 1610              		.loc 6 94 0 discriminator 3
 1611 0088 FB69     		ldr	r3, [r7, #28]
 1612 008a 0233     		add	r3, r3, #2
 1613 008c 3A68     		ldr	r2, [r7]
 1614 008e D318     		add	r3, r2, r3
 1615 0090 7A69     		ldr	r2, [r7, #20]
 1616 0092 120C     		lsr	r2, r2, #16
 1617 0094 D2B2     		uxtb	r2, r2
 1618 0096 1A70     		strb	r2, [r3]
  95:./ros_lib/rosserial_msgs/RequestParam.h ****       *(outbuffer + offset + 3) = (u_intsi.base >> (8 * 3)) & 0xFF;
 1619              		.loc 6 95 0 discriminator 3
 1620 0098 FB69     		ldr	r3, [r7, #28]
 1621 009a 0333     		add	r3, r3, #3
 1622 009c 3A68     		ldr	r2, [r7]
 1623 009e D318     		add	r3, r2, r3
 1624 00a0 7A69     		ldr	r2, [r7, #20]
 1625 00a2 120E     		lsr	r2, r2, #24
 1626 00a4 D2B2     		uxtb	r2, r2
 1627 00a6 1A70     		strb	r2, [r3]
  96:./ros_lib/rosserial_msgs/RequestParam.h ****       offset += sizeof(this->ints[i]);
 1628              		.loc 6 96 0 discriminator 3
 1629 00a8 FB69     		ldr	r3, [r7, #28]
 1630 00aa 0433     		add	r3, r3, #4
 1631 00ac FB61     		str	r3, [r7, #28]
 1632              	.LBE20:
  86:./ros_lib/rosserial_msgs/RequestParam.h ****       union {
 1633              		.loc 6 86 0 discriminator 3
 1634 00ae 1B23     		mov	r3, #27
 1635 00b0 FB18     		add	r3, r7, r3
 1636 00b2 1A78     		ldrb	r2, [r3]
 1637 00b4 1B23     		mov	r3, #27
 1638 00b6 FB18     		add	r3, r7, r3
 1639 00b8 0132     		add	r2, r2, #1
ARM GAS  C:\Users\Chuck\AppData\Local\Temp\cc5X170Y.s 			page 38


 1640 00ba 1A70     		strb	r2, [r3]
 1641              	.L74:
  86:./ros_lib/rosserial_msgs/RequestParam.h ****       union {
 1642              		.loc 6 86 0 is_stmt 0 discriminator 1
 1643 00bc 7B68     		ldr	r3, [r7, #4]
 1644 00be 1B79     		ldrb	r3, [r3, #4]
 1645 00c0 1B22     		mov	r2, #27
 1646 00c2 BA18     		add	r2, r7, r2
 1647 00c4 1278     		ldrb	r2, [r2]
 1648 00c6 9A42     		cmp	r2, r3
 1649 00c8 C7D3     		bcc	.L75
 1650              	.LBE19:
  97:./ros_lib/rosserial_msgs/RequestParam.h ****       }
  98:./ros_lib/rosserial_msgs/RequestParam.h ****       *(outbuffer + offset++) = floats_length;
 1651              		.loc 6 98 0 is_stmt 1
 1652 00ca FB69     		ldr	r3, [r7, #28]
 1653 00cc 5A1C     		add	r2, r3, #1
 1654 00ce FA61     		str	r2, [r7, #28]
 1655 00d0 1A1C     		mov	r2, r3
 1656 00d2 3B68     		ldr	r3, [r7]
 1657 00d4 9B18     		add	r3, r3, r2
 1658 00d6 7A68     		ldr	r2, [r7, #4]
 1659 00d8 127C     		ldrb	r2, [r2, #16]
 1660 00da 1A70     		strb	r2, [r3]
  99:./ros_lib/rosserial_msgs/RequestParam.h ****       *(outbuffer + offset++) = 0;
 1661              		.loc 6 99 0
 1662 00dc FB69     		ldr	r3, [r7, #28]
 1663 00de 5A1C     		add	r2, r3, #1
 1664 00e0 FA61     		str	r2, [r7, #28]
 1665 00e2 1A1C     		mov	r2, r3
 1666 00e4 3B68     		ldr	r3, [r7]
 1667 00e6 9B18     		add	r3, r3, r2
 1668 00e8 0022     		mov	r2, #0
 1669 00ea 1A70     		strb	r2, [r3]
 100:./ros_lib/rosserial_msgs/RequestParam.h ****       *(outbuffer + offset++) = 0;
 1670              		.loc 6 100 0
 1671 00ec FB69     		ldr	r3, [r7, #28]
 1672 00ee 5A1C     		add	r2, r3, #1
 1673 00f0 FA61     		str	r2, [r7, #28]
 1674 00f2 1A1C     		mov	r2, r3
 1675 00f4 3B68     		ldr	r3, [r7]
 1676 00f6 9B18     		add	r3, r3, r2
 1677 00f8 0022     		mov	r2, #0
 1678 00fa 1A70     		strb	r2, [r3]
 101:./ros_lib/rosserial_msgs/RequestParam.h ****       *(outbuffer + offset++) = 0;
 1679              		.loc 6 101 0
 1680 00fc FB69     		ldr	r3, [r7, #28]
 1681 00fe 5A1C     		add	r2, r3, #1
 1682 0100 FA61     		str	r2, [r7, #28]
 1683 0102 1A1C     		mov	r2, r3
 1684 0104 3B68     		ldr	r3, [r7]
 1685 0106 9B18     		add	r3, r3, r2
 1686 0108 0022     		mov	r2, #0
 1687 010a 1A70     		strb	r2, [r3]
 1688              	.LBB21:
 102:./ros_lib/rosserial_msgs/RequestParam.h ****       for( uint8_t i = 0; i < floats_length; i++){
 1689              		.loc 6 102 0
ARM GAS  C:\Users\Chuck\AppData\Local\Temp\cc5X170Y.s 			page 39


 1690 010c 1A23     		mov	r3, #26
 1691 010e FB18     		add	r3, r7, r3
 1692 0110 0022     		mov	r2, #0
 1693 0112 1A70     		strb	r2, [r3]
 1694 0114 30E0     		b	.L76
 1695              	.L77:
 1696              	.LBB22:
 103:./ros_lib/rosserial_msgs/RequestParam.h ****       union {
 104:./ros_lib/rosserial_msgs/RequestParam.h ****         float real;
 105:./ros_lib/rosserial_msgs/RequestParam.h ****         uint32_t base;
 106:./ros_lib/rosserial_msgs/RequestParam.h ****       } u_floatsi;
 107:./ros_lib/rosserial_msgs/RequestParam.h ****       u_floatsi.real = this->floats[i];
 1697              		.loc 6 107 0 discriminator 3
 1698 0116 7B68     		ldr	r3, [r7, #4]
 1699 0118 9A69     		ldr	r2, [r3, #24]
 1700 011a 1A23     		mov	r3, #26
 1701 011c FB18     		add	r3, r7, r3
 1702 011e 1B78     		ldrb	r3, [r3]
 1703 0120 9B00     		lsl	r3, r3, #2
 1704 0122 D318     		add	r3, r2, r3
 1705 0124 1B68     		ldr	r3, [r3]
 1706 0126 3B61     		str	r3, [r7, #16]
 108:./ros_lib/rosserial_msgs/RequestParam.h ****       *(outbuffer + offset + 0) = (u_floatsi.base >> (8 * 0)) & 0xFF;
 1707              		.loc 6 108 0 discriminator 3
 1708 0128 FB69     		ldr	r3, [r7, #28]
 1709 012a 3A68     		ldr	r2, [r7]
 1710 012c D318     		add	r3, r2, r3
 1711 012e 3A69     		ldr	r2, [r7, #16]
 1712 0130 D2B2     		uxtb	r2, r2
 1713 0132 1A70     		strb	r2, [r3]
 109:./ros_lib/rosserial_msgs/RequestParam.h ****       *(outbuffer + offset + 1) = (u_floatsi.base >> (8 * 1)) & 0xFF;
 1714              		.loc 6 109 0 discriminator 3
 1715 0134 FB69     		ldr	r3, [r7, #28]
 1716 0136 0133     		add	r3, r3, #1
 1717 0138 3A68     		ldr	r2, [r7]
 1718 013a D318     		add	r3, r2, r3
 1719 013c 3A69     		ldr	r2, [r7, #16]
 1720 013e 120A     		lsr	r2, r2, #8
 1721 0140 D2B2     		uxtb	r2, r2
 1722 0142 1A70     		strb	r2, [r3]
 110:./ros_lib/rosserial_msgs/RequestParam.h ****       *(outbuffer + offset + 2) = (u_floatsi.base >> (8 * 2)) & 0xFF;
 1723              		.loc 6 110 0 discriminator 3
 1724 0144 FB69     		ldr	r3, [r7, #28]
 1725 0146 0233     		add	r3, r3, #2
 1726 0148 3A68     		ldr	r2, [r7]
 1727 014a D318     		add	r3, r2, r3
 1728 014c 3A69     		ldr	r2, [r7, #16]
 1729 014e 120C     		lsr	r2, r2, #16
 1730 0150 D2B2     		uxtb	r2, r2
 1731 0152 1A70     		strb	r2, [r3]
 111:./ros_lib/rosserial_msgs/RequestParam.h ****       *(outbuffer + offset + 3) = (u_floatsi.base >> (8 * 3)) & 0xFF;
 1732              		.loc 6 111 0 discriminator 3
 1733 0154 FB69     		ldr	r3, [r7, #28]
 1734 0156 0333     		add	r3, r3, #3
 1735 0158 3A68     		ldr	r2, [r7]
 1736 015a D318     		add	r3, r2, r3
 1737 015c 3A69     		ldr	r2, [r7, #16]
ARM GAS  C:\Users\Chuck\AppData\Local\Temp\cc5X170Y.s 			page 40


 1738 015e 120E     		lsr	r2, r2, #24
 1739 0160 D2B2     		uxtb	r2, r2
 1740 0162 1A70     		strb	r2, [r3]
 112:./ros_lib/rosserial_msgs/RequestParam.h ****       offset += sizeof(this->floats[i]);
 1741              		.loc 6 112 0 discriminator 3
 1742 0164 FB69     		ldr	r3, [r7, #28]
 1743 0166 0433     		add	r3, r3, #4
 1744 0168 FB61     		str	r3, [r7, #28]
 1745              	.LBE22:
 102:./ros_lib/rosserial_msgs/RequestParam.h ****       union {
 1746              		.loc 6 102 0 discriminator 3
 1747 016a 1A23     		mov	r3, #26
 1748 016c FB18     		add	r3, r7, r3
 1749 016e 1A78     		ldrb	r2, [r3]
 1750 0170 1A23     		mov	r3, #26
 1751 0172 FB18     		add	r3, r7, r3
 1752 0174 0132     		add	r2, r2, #1
 1753 0176 1A70     		strb	r2, [r3]
 1754              	.L76:
 102:./ros_lib/rosserial_msgs/RequestParam.h ****       union {
 1755              		.loc 6 102 0 is_stmt 0 discriminator 1
 1756 0178 7B68     		ldr	r3, [r7, #4]
 1757 017a 1B7C     		ldrb	r3, [r3, #16]
 1758 017c 1A22     		mov	r2, #26
 1759 017e BA18     		add	r2, r7, r2
 1760 0180 1278     		ldrb	r2, [r2]
 1761 0182 9A42     		cmp	r2, r3
 1762 0184 C7D3     		bcc	.L77
 1763              	.LBE21:
 113:./ros_lib/rosserial_msgs/RequestParam.h ****       }
 114:./ros_lib/rosserial_msgs/RequestParam.h ****       *(outbuffer + offset++) = strings_length;
 1764              		.loc 6 114 0 is_stmt 1
 1765 0186 FB69     		ldr	r3, [r7, #28]
 1766 0188 5A1C     		add	r2, r3, #1
 1767 018a FA61     		str	r2, [r7, #28]
 1768 018c 1A1C     		mov	r2, r3
 1769 018e 3B68     		ldr	r3, [r7]
 1770 0190 9B18     		add	r3, r3, r2
 1771 0192 7A68     		ldr	r2, [r7, #4]
 1772 0194 127F     		ldrb	r2, [r2, #28]
 1773 0196 1A70     		strb	r2, [r3]
 115:./ros_lib/rosserial_msgs/RequestParam.h ****       *(outbuffer + offset++) = 0;
 1774              		.loc 6 115 0
 1775 0198 FB69     		ldr	r3, [r7, #28]
 1776 019a 5A1C     		add	r2, r3, #1
 1777 019c FA61     		str	r2, [r7, #28]
 1778 019e 1A1C     		mov	r2, r3
 1779 01a0 3B68     		ldr	r3, [r7]
 1780 01a2 9B18     		add	r3, r3, r2
 1781 01a4 0022     		mov	r2, #0
 1782 01a6 1A70     		strb	r2, [r3]
 116:./ros_lib/rosserial_msgs/RequestParam.h ****       *(outbuffer + offset++) = 0;
 1783              		.loc 6 116 0
 1784 01a8 FB69     		ldr	r3, [r7, #28]
 1785 01aa 5A1C     		add	r2, r3, #1
 1786 01ac FA61     		str	r2, [r7, #28]
 1787 01ae 1A1C     		mov	r2, r3
ARM GAS  C:\Users\Chuck\AppData\Local\Temp\cc5X170Y.s 			page 41


 1788 01b0 3B68     		ldr	r3, [r7]
 1789 01b2 9B18     		add	r3, r3, r2
 1790 01b4 0022     		mov	r2, #0
 1791 01b6 1A70     		strb	r2, [r3]
 117:./ros_lib/rosserial_msgs/RequestParam.h ****       *(outbuffer + offset++) = 0;
 1792              		.loc 6 117 0
 1793 01b8 FB69     		ldr	r3, [r7, #28]
 1794 01ba 5A1C     		add	r2, r3, #1
 1795 01bc FA61     		str	r2, [r7, #28]
 1796 01be 1A1C     		mov	r2, r3
 1797 01c0 3B68     		ldr	r3, [r7]
 1798 01c2 9B18     		add	r3, r3, r2
 1799 01c4 0022     		mov	r2, #0
 1800 01c6 1A70     		strb	r2, [r3]
 1801              	.LBB23:
 118:./ros_lib/rosserial_msgs/RequestParam.h ****       for( uint8_t i = 0; i < strings_length; i++){
 1802              		.loc 6 118 0
 1803 01c8 1923     		mov	r3, #25
 1804 01ca FB18     		add	r3, r7, r3
 1805 01cc 0022     		mov	r2, #0
 1806 01ce 1A70     		strb	r2, [r3]
 1807 01d0 35E0     		b	.L78
 1808              	.L79:
 1809              	.LBB24:
 119:./ros_lib/rosserial_msgs/RequestParam.h ****       uint32_t length_stringsi = strlen( (const char*) this->strings[i]);
 1810              		.loc 6 119 0 discriminator 3
 1811 01d2 7B68     		ldr	r3, [r7, #4]
 1812 01d4 5A6A     		ldr	r2, [r3, #36]
 1813 01d6 1923     		mov	r3, #25
 1814 01d8 FB18     		add	r3, r7, r3
 1815 01da 1B78     		ldrb	r3, [r3]
 1816 01dc 9B00     		lsl	r3, r3, #2
 1817 01de D318     		add	r3, r2, r3
 1818 01e0 1B68     		ldr	r3, [r3]
 1819 01e2 181C     		mov	r0, r3
 1820 01e4 FFF7FEFF 		bl	strlen
 1821 01e8 031C     		mov	r3, r0
 1822 01ea FB60     		str	r3, [r7, #12]
 120:./ros_lib/rosserial_msgs/RequestParam.h ****       memcpy(outbuffer + offset, &length_stringsi, sizeof(uint32_t));
 1823              		.loc 6 120 0 discriminator 3
 1824 01ec FB69     		ldr	r3, [r7, #28]
 1825 01ee 3A68     		ldr	r2, [r7]
 1826 01f0 D218     		add	r2, r2, r3
 1827 01f2 0C23     		mov	r3, #12
 1828 01f4 FB18     		add	r3, r7, r3
 1829 01f6 101C     		mov	r0, r2
 1830 01f8 191C     		mov	r1, r3
 1831 01fa 0422     		mov	r2, #4
 1832 01fc FFF7FEFF 		bl	memcpy
 121:./ros_lib/rosserial_msgs/RequestParam.h ****       offset += 4;
 1833              		.loc 6 121 0 discriminator 3
 1834 0200 FB69     		ldr	r3, [r7, #28]
 1835 0202 0433     		add	r3, r3, #4
 1836 0204 FB61     		str	r3, [r7, #28]
 122:./ros_lib/rosserial_msgs/RequestParam.h ****       memcpy(outbuffer + offset, this->strings[i], length_stringsi);
 1837              		.loc 6 122 0 discriminator 3
 1838 0206 FB69     		ldr	r3, [r7, #28]
ARM GAS  C:\Users\Chuck\AppData\Local\Temp\cc5X170Y.s 			page 42


 1839 0208 3A68     		ldr	r2, [r7]
 1840 020a D118     		add	r1, r2, r3
 1841 020c 7B68     		ldr	r3, [r7, #4]
 1842 020e 5A6A     		ldr	r2, [r3, #36]
 1843 0210 1923     		mov	r3, #25
 1844 0212 FB18     		add	r3, r7, r3
 1845 0214 1B78     		ldrb	r3, [r3]
 1846 0216 9B00     		lsl	r3, r3, #2
 1847 0218 D318     		add	r3, r2, r3
 1848 021a 1A68     		ldr	r2, [r3]
 1849 021c FB68     		ldr	r3, [r7, #12]
 1850 021e 081C     		mov	r0, r1
 1851 0220 111C     		mov	r1, r2
 1852 0222 1A1C     		mov	r2, r3
 1853 0224 FFF7FEFF 		bl	memcpy
 123:./ros_lib/rosserial_msgs/RequestParam.h ****       offset += length_stringsi;
 1854              		.loc 6 123 0 discriminator 3
 1855 0228 FA69     		ldr	r2, [r7, #28]
 1856 022a FB68     		ldr	r3, [r7, #12]
 1857 022c D318     		add	r3, r2, r3
 1858 022e FB61     		str	r3, [r7, #28]
 1859              	.LBE24:
 118:./ros_lib/rosserial_msgs/RequestParam.h ****       uint32_t length_stringsi = strlen( (const char*) this->strings[i]);
 1860              		.loc 6 118 0 discriminator 3
 1861 0230 1923     		mov	r3, #25
 1862 0232 FB18     		add	r3, r7, r3
 1863 0234 1A78     		ldrb	r2, [r3]
 1864 0236 1923     		mov	r3, #25
 1865 0238 FB18     		add	r3, r7, r3
 1866 023a 0132     		add	r2, r2, #1
 1867 023c 1A70     		strb	r2, [r3]
 1868              	.L78:
 118:./ros_lib/rosserial_msgs/RequestParam.h ****       uint32_t length_stringsi = strlen( (const char*) this->strings[i]);
 1869              		.loc 6 118 0 is_stmt 0 discriminator 1
 1870 023e 7B68     		ldr	r3, [r7, #4]
 1871 0240 1B7F     		ldrb	r3, [r3, #28]
 1872 0242 1922     		mov	r2, #25
 1873 0244 BA18     		add	r2, r7, r2
 1874 0246 1278     		ldrb	r2, [r2]
 1875 0248 9A42     		cmp	r2, r3
 1876 024a C2D3     		bcc	.L79
 1877              	.LBE23:
 124:./ros_lib/rosserial_msgs/RequestParam.h ****       }
 125:./ros_lib/rosserial_msgs/RequestParam.h **** #endif
 126:./ros_lib/rosserial_msgs/RequestParam.h ****       return offset;
 1878              		.loc 6 126 0 is_stmt 1
 1879 024c FB69     		ldr	r3, [r7, #28]
 1880              	.LBE18:
 127:./ros_lib/rosserial_msgs/RequestParam.h ****     }
 1881              		.loc 6 127 0
 1882 024e 181C     		mov	r0, r3
 1883 0250 BD46     		mov	sp, r7
 1884 0252 08B0     		add	sp, sp, #32
 1885              		@ sp needed
 1886 0254 80BD     		pop	{r7, pc}
 1887              		.cfi_endproc
 1888              	.LFE53:
ARM GAS  C:\Users\Chuck\AppData\Local\Temp\cc5X170Y.s 			page 43


 1889              		.size	_ZNK14rosserial_msgs20RequestParamResponse9serializeEPh, .-_ZNK14rosserial_msgs20RequestPara
 1890 0256 C046     		.section	.text._ZN14rosserial_msgs20RequestParamResponse11deserializeEPh,"axG",%progbits,_ZN14ross
 1891              		.align	2
 1892              		.weak	_ZN14rosserial_msgs20RequestParamResponse11deserializeEPh
 1893              		.code	16
 1894              		.thumb_func
 1895              		.type	_ZN14rosserial_msgs20RequestParamResponse11deserializeEPh, %function
 1896              	_ZN14rosserial_msgs20RequestParamResponse11deserializeEPh:
 1897              	.LFB54:
 128:./ros_lib/rosserial_msgs/RequestParam.h **** 
 129:./ros_lib/rosserial_msgs/RequestParam.h ****     virtual int deserialize(unsigned char *inbuffer)
 1898              		.loc 6 129 0
 1899              		.cfi_startproc
 1900 0000 80B5     		push	{r7, lr}
 1901              		.cfi_def_cfa_offset 8
 1902              		.cfi_offset 7, -8
 1903              		.cfi_offset 14, -4
 1904 0002 8AB0     		sub	sp, sp, #40
 1905              		.cfi_def_cfa_offset 48
 1906 0004 00AF     		add	r7, sp, #0
 1907              		.cfi_def_cfa_register 7
 1908 0006 7860     		str	r0, [r7, #4]
 1909 0008 3960     		str	r1, [r7]
 1910              	.LBB25:
 130:./ros_lib/rosserial_msgs/RequestParam.h ****     {
 131:./ros_lib/rosserial_msgs/RequestParam.h ****       int offset = 0;
 1911              		.loc 6 131 0
 1912 000a 0023     		mov	r3, #0
 1913 000c 7B62     		str	r3, [r7, #36]
 132:./ros_lib/rosserial_msgs/RequestParam.h **** #ifndef ROS_MSG_DONT_DESERIALIZE
 133:./ros_lib/rosserial_msgs/RequestParam.h ****       uint8_t ints_lengthT = *(inbuffer + offset++);
 1914              		.loc 6 133 0
 1915 000e 7B6A     		ldr	r3, [r7, #36]
 1916 0010 5A1C     		add	r2, r3, #1
 1917 0012 7A62     		str	r2, [r7, #36]
 1918 0014 1A1C     		mov	r2, r3
 1919 0016 3B68     		ldr	r3, [r7]
 1920 0018 9A18     		add	r2, r3, r2
 1921 001a 1B23     		mov	r3, #27
 1922 001c FB18     		add	r3, r7, r3
 1923 001e 1278     		ldrb	r2, [r2]
 1924 0020 1A70     		strb	r2, [r3]
 134:./ros_lib/rosserial_msgs/RequestParam.h ****       if(ints_lengthT < ints_length)
 1925              		.loc 6 134 0
 1926 0022 7B68     		ldr	r3, [r7, #4]
 1927 0024 1B79     		ldrb	r3, [r3, #4]
 1928 0026 1B22     		mov	r2, #27
 1929 0028 BA18     		add	r2, r7, r2
 1930 002a 1278     		ldrb	r2, [r2]
 1931 002c 9A42     		cmp	r2, r3
 1932 002e 04D2     		bcs	.L82
 135:./ros_lib/rosserial_msgs/RequestParam.h ****         ints_length = ints_lengthT;
 1933              		.loc 6 135 0
 1934 0030 7B68     		ldr	r3, [r7, #4]
 1935 0032 1B22     		mov	r2, #27
 1936 0034 BA18     		add	r2, r7, r2
 1937 0036 1278     		ldrb	r2, [r2]
ARM GAS  C:\Users\Chuck\AppData\Local\Temp\cc5X170Y.s 			page 44


 1938 0038 1A71     		strb	r2, [r3, #4]
 1939              	.L82:
 136:./ros_lib/rosserial_msgs/RequestParam.h ****       offset += 3;
 1940              		.loc 6 136 0
 1941 003a 7B6A     		ldr	r3, [r7, #36]
 1942 003c 0333     		add	r3, r3, #3
 1943 003e 7B62     		str	r3, [r7, #36]
 1944              	.LBB26:
 137:./ros_lib/rosserial_msgs/RequestParam.h ****       for( uint8_t i = 0; i < ints_lengthT; i++){
 1945              		.loc 6 137 0
 1946 0040 2323     		mov	r3, #35
 1947 0042 FB18     		add	r3, r7, r3
 1948 0044 0022     		mov	r2, #0
 1949 0046 1A70     		strb	r2, [r3]
 1950 0048 45E0     		b	.L83
 1951              	.L85:
 1952              	.LBB27:
 138:./ros_lib/rosserial_msgs/RequestParam.h ****       union {
 139:./ros_lib/rosserial_msgs/RequestParam.h ****         int32_t real;
 140:./ros_lib/rosserial_msgs/RequestParam.h ****         uint32_t base;
 141:./ros_lib/rosserial_msgs/RequestParam.h ****       } u_st_ints;
 142:./ros_lib/rosserial_msgs/RequestParam.h ****       u_st_ints.base = 0;
 1953              		.loc 6 142 0
 1954 004a 0023     		mov	r3, #0
 1955 004c 7B61     		str	r3, [r7, #20]
 143:./ros_lib/rosserial_msgs/RequestParam.h ****       u_st_ints.base |= ((uint32_t) (*(inbuffer + offset + 0))) << (8 * 0);
 1956              		.loc 6 143 0
 1957 004e 7B69     		ldr	r3, [r7, #20]
 1958 0050 7A6A     		ldr	r2, [r7, #36]
 1959 0052 3968     		ldr	r1, [r7]
 1960 0054 8A18     		add	r2, r1, r2
 1961 0056 1278     		ldrb	r2, [r2]
 1962 0058 1343     		orr	r3, r2
 1963 005a 7B61     		str	r3, [r7, #20]
 144:./ros_lib/rosserial_msgs/RequestParam.h ****       u_st_ints.base |= ((uint32_t) (*(inbuffer + offset + 1))) << (8 * 1);
 1964              		.loc 6 144 0
 1965 005c 7A69     		ldr	r2, [r7, #20]
 1966 005e 7B6A     		ldr	r3, [r7, #36]
 1967 0060 0133     		add	r3, r3, #1
 1968 0062 3968     		ldr	r1, [r7]
 1969 0064 CB18     		add	r3, r1, r3
 1970 0066 1B78     		ldrb	r3, [r3]
 1971 0068 1B02     		lsl	r3, r3, #8
 1972 006a 1343     		orr	r3, r2
 1973 006c 7B61     		str	r3, [r7, #20]
 145:./ros_lib/rosserial_msgs/RequestParam.h ****       u_st_ints.base |= ((uint32_t) (*(inbuffer + offset + 2))) << (8 * 2);
 1974              		.loc 6 145 0
 1975 006e 7A69     		ldr	r2, [r7, #20]
 1976 0070 7B6A     		ldr	r3, [r7, #36]
 1977 0072 0233     		add	r3, r3, #2
 1978 0074 3968     		ldr	r1, [r7]
 1979 0076 CB18     		add	r3, r1, r3
 1980 0078 1B78     		ldrb	r3, [r3]
 1981 007a 1B04     		lsl	r3, r3, #16
 1982 007c 1343     		orr	r3, r2
 1983 007e 7B61     		str	r3, [r7, #20]
 146:./ros_lib/rosserial_msgs/RequestParam.h ****       u_st_ints.base |= ((uint32_t) (*(inbuffer + offset + 3))) << (8 * 3);
ARM GAS  C:\Users\Chuck\AppData\Local\Temp\cc5X170Y.s 			page 45


 1984              		.loc 6 146 0
 1985 0080 7A69     		ldr	r2, [r7, #20]
 1986 0082 7B6A     		ldr	r3, [r7, #36]
 1987 0084 0333     		add	r3, r3, #3
 1988 0086 3968     		ldr	r1, [r7]
 1989 0088 CB18     		add	r3, r1, r3
 1990 008a 1B78     		ldrb	r3, [r3]
 1991 008c 1B06     		lsl	r3, r3, #24
 1992 008e 1343     		orr	r3, r2
 1993 0090 7B61     		str	r3, [r7, #20]
 147:./ros_lib/rosserial_msgs/RequestParam.h ****       this->st_ints = u_st_ints.real;
 1994              		.loc 6 147 0
 1995 0092 7A69     		ldr	r2, [r7, #20]
 1996 0094 7B68     		ldr	r3, [r7, #4]
 1997 0096 9A60     		str	r2, [r3, #8]
 148:./ros_lib/rosserial_msgs/RequestParam.h ****       offset += sizeof(this->st_ints);
 1998              		.loc 6 148 0
 1999 0098 7B6A     		ldr	r3, [r7, #36]
 2000 009a 0433     		add	r3, r3, #4
 2001 009c 7B62     		str	r3, [r7, #36]
 149:./ros_lib/rosserial_msgs/RequestParam.h ****       if (i < ints_length) {
 2002              		.loc 6 149 0
 2003 009e 7B68     		ldr	r3, [r7, #4]
 2004 00a0 1B79     		ldrb	r3, [r3, #4]
 2005 00a2 2322     		mov	r2, #35
 2006 00a4 BA18     		add	r2, r7, r2
 2007 00a6 1278     		ldrb	r2, [r2]
 2008 00a8 9A42     		cmp	r2, r3
 2009 00aa 0DD2     		bcs	.L84
 150:./ros_lib/rosserial_msgs/RequestParam.h ****           memcpy( &(this->ints[i]), &(this->st_ints), sizeof(int32_t));
 2010              		.loc 6 150 0
 2011 00ac 7B68     		ldr	r3, [r7, #4]
 2012 00ae DA68     		ldr	r2, [r3, #12]
 2013 00b0 2323     		mov	r3, #35
 2014 00b2 FB18     		add	r3, r7, r3
 2015 00b4 1B78     		ldrb	r3, [r3]
 2016 00b6 9B00     		lsl	r3, r3, #2
 2017 00b8 D218     		add	r2, r2, r3
 2018 00ba 7B68     		ldr	r3, [r7, #4]
 2019 00bc 0833     		add	r3, r3, #8
 2020 00be 101C     		mov	r0, r2
 2021 00c0 191C     		mov	r1, r3
 2022 00c2 0422     		mov	r2, #4
 2023 00c4 FFF7FEFF 		bl	memcpy
 2024              	.L84:
 2025              	.LBE27:
 137:./ros_lib/rosserial_msgs/RequestParam.h ****       union {
 2026              		.loc 6 137 0 discriminator 2
 2027 00c8 2323     		mov	r3, #35
 2028 00ca FB18     		add	r3, r7, r3
 2029 00cc 1A78     		ldrb	r2, [r3]
 2030 00ce 2323     		mov	r3, #35
 2031 00d0 FB18     		add	r3, r7, r3
 2032 00d2 0132     		add	r2, r2, #1
 2033 00d4 1A70     		strb	r2, [r3]
 2034              	.L83:
 137:./ros_lib/rosserial_msgs/RequestParam.h ****       union {
ARM GAS  C:\Users\Chuck\AppData\Local\Temp\cc5X170Y.s 			page 46


 2035              		.loc 6 137 0 is_stmt 0 discriminator 1
 2036 00d6 2323     		mov	r3, #35
 2037 00d8 FA18     		add	r2, r7, r3
 2038 00da 1B23     		mov	r3, #27
 2039 00dc FB18     		add	r3, r7, r3
 2040 00de 1278     		ldrb	r2, [r2]
 2041 00e0 1B78     		ldrb	r3, [r3]
 2042 00e2 9A42     		cmp	r2, r3
 2043 00e4 B1D3     		bcc	.L85
 2044              	.LBE26:
 151:./ros_lib/rosserial_msgs/RequestParam.h ****       }
 152:./ros_lib/rosserial_msgs/RequestParam.h ****       }
 153:./ros_lib/rosserial_msgs/RequestParam.h ****       uint8_t floats_lengthT = *(inbuffer + offset++);
 2045              		.loc 6 153 0 is_stmt 1
 2046 00e6 7B6A     		ldr	r3, [r7, #36]
 2047 00e8 5A1C     		add	r2, r3, #1
 2048 00ea 7A62     		str	r2, [r7, #36]
 2049 00ec 1A1C     		mov	r2, r3
 2050 00ee 3B68     		ldr	r3, [r7]
 2051 00f0 9A18     		add	r2, r3, r2
 2052 00f2 1A23     		mov	r3, #26
 2053 00f4 FB18     		add	r3, r7, r3
 2054 00f6 1278     		ldrb	r2, [r2]
 2055 00f8 1A70     		strb	r2, [r3]
 154:./ros_lib/rosserial_msgs/RequestParam.h ****       if(floats_lengthT < floats_length)
 2056              		.loc 6 154 0
 2057 00fa 7B68     		ldr	r3, [r7, #4]
 2058 00fc 1B7C     		ldrb	r3, [r3, #16]
 2059 00fe 1A22     		mov	r2, #26
 2060 0100 BA18     		add	r2, r7, r2
 2061 0102 1278     		ldrb	r2, [r2]
 2062 0104 9A42     		cmp	r2, r3
 2063 0106 04D2     		bcs	.L86
 155:./ros_lib/rosserial_msgs/RequestParam.h ****         floats_length = floats_lengthT;
 2064              		.loc 6 155 0
 2065 0108 7B68     		ldr	r3, [r7, #4]
 2066 010a 1A22     		mov	r2, #26
 2067 010c BA18     		add	r2, r7, r2
 2068 010e 1278     		ldrb	r2, [r2]
 2069 0110 1A74     		strb	r2, [r3, #16]
 2070              	.L86:
 156:./ros_lib/rosserial_msgs/RequestParam.h ****       offset += 3;
 2071              		.loc 6 156 0
 2072 0112 7B6A     		ldr	r3, [r7, #36]
 2073 0114 0333     		add	r3, r3, #3
 2074 0116 7B62     		str	r3, [r7, #36]
 2075              	.LBB28:
 157:./ros_lib/rosserial_msgs/RequestParam.h ****       for( uint8_t i = 0; i < floats_lengthT; i++){
 2076              		.loc 6 157 0
 2077 0118 2223     		mov	r3, #34
 2078 011a FB18     		add	r3, r7, r3
 2079 011c 0022     		mov	r2, #0
 2080 011e 1A70     		strb	r2, [r3]
 2081 0120 45E0     		b	.L87
 2082              	.L89:
 2083              	.LBB29:
 158:./ros_lib/rosserial_msgs/RequestParam.h ****       union {
ARM GAS  C:\Users\Chuck\AppData\Local\Temp\cc5X170Y.s 			page 47


 159:./ros_lib/rosserial_msgs/RequestParam.h ****         float real;
 160:./ros_lib/rosserial_msgs/RequestParam.h ****         uint32_t base;
 161:./ros_lib/rosserial_msgs/RequestParam.h ****       } u_st_floats;
 162:./ros_lib/rosserial_msgs/RequestParam.h ****       u_st_floats.base = 0;
 2084              		.loc 6 162 0
 2085 0122 0023     		mov	r3, #0
 2086 0124 3B61     		str	r3, [r7, #16]
 163:./ros_lib/rosserial_msgs/RequestParam.h ****       u_st_floats.base |= ((uint32_t) (*(inbuffer + offset + 0))) << (8 * 0);
 2087              		.loc 6 163 0
 2088 0126 3B69     		ldr	r3, [r7, #16]
 2089 0128 7A6A     		ldr	r2, [r7, #36]
 2090 012a 3968     		ldr	r1, [r7]
 2091 012c 8A18     		add	r2, r1, r2
 2092 012e 1278     		ldrb	r2, [r2]
 2093 0130 1343     		orr	r3, r2
 2094 0132 3B61     		str	r3, [r7, #16]
 164:./ros_lib/rosserial_msgs/RequestParam.h ****       u_st_floats.base |= ((uint32_t) (*(inbuffer + offset + 1))) << (8 * 1);
 2095              		.loc 6 164 0
 2096 0134 3A69     		ldr	r2, [r7, #16]
 2097 0136 7B6A     		ldr	r3, [r7, #36]
 2098 0138 0133     		add	r3, r3, #1
 2099 013a 3968     		ldr	r1, [r7]
 2100 013c CB18     		add	r3, r1, r3
 2101 013e 1B78     		ldrb	r3, [r3]
 2102 0140 1B02     		lsl	r3, r3, #8
 2103 0142 1343     		orr	r3, r2
 2104 0144 3B61     		str	r3, [r7, #16]
 165:./ros_lib/rosserial_msgs/RequestParam.h ****       u_st_floats.base |= ((uint32_t) (*(inbuffer + offset + 2))) << (8 * 2);
 2105              		.loc 6 165 0
 2106 0146 3A69     		ldr	r2, [r7, #16]
 2107 0148 7B6A     		ldr	r3, [r7, #36]
 2108 014a 0233     		add	r3, r3, #2
 2109 014c 3968     		ldr	r1, [r7]
 2110 014e CB18     		add	r3, r1, r3
 2111 0150 1B78     		ldrb	r3, [r3]
 2112 0152 1B04     		lsl	r3, r3, #16
 2113 0154 1343     		orr	r3, r2
 2114 0156 3B61     		str	r3, [r7, #16]
 166:./ros_lib/rosserial_msgs/RequestParam.h ****       u_st_floats.base |= ((uint32_t) (*(inbuffer + offset + 3))) << (8 * 3);
 2115              		.loc 6 166 0
 2116 0158 3A69     		ldr	r2, [r7, #16]
 2117 015a 7B6A     		ldr	r3, [r7, #36]
 2118 015c 0333     		add	r3, r3, #3
 2119 015e 3968     		ldr	r1, [r7]
 2120 0160 CB18     		add	r3, r1, r3
 2121 0162 1B78     		ldrb	r3, [r3]
 2122 0164 1B06     		lsl	r3, r3, #24
 2123 0166 1343     		orr	r3, r2
 2124 0168 3B61     		str	r3, [r7, #16]
 167:./ros_lib/rosserial_msgs/RequestParam.h ****       this->st_floats = u_st_floats.real;
 2125              		.loc 6 167 0
 2126 016a 3A69     		ldr	r2, [r7, #16]
 2127 016c 7B68     		ldr	r3, [r7, #4]
 2128 016e 5A61     		str	r2, [r3, #20]
 168:./ros_lib/rosserial_msgs/RequestParam.h ****       offset += sizeof(this->st_floats);
 2129              		.loc 6 168 0
 2130 0170 7B6A     		ldr	r3, [r7, #36]
ARM GAS  C:\Users\Chuck\AppData\Local\Temp\cc5X170Y.s 			page 48


 2131 0172 0433     		add	r3, r3, #4
 2132 0174 7B62     		str	r3, [r7, #36]
 169:./ros_lib/rosserial_msgs/RequestParam.h ****       if (i < floats_length) {
 2133              		.loc 6 169 0
 2134 0176 7B68     		ldr	r3, [r7, #4]
 2135 0178 1B7C     		ldrb	r3, [r3, #16]
 2136 017a 2222     		mov	r2, #34
 2137 017c BA18     		add	r2, r7, r2
 2138 017e 1278     		ldrb	r2, [r2]
 2139 0180 9A42     		cmp	r2, r3
 2140 0182 0DD2     		bcs	.L88
 170:./ros_lib/rosserial_msgs/RequestParam.h ****           memcpy( &(this->floats[i]), &(this->st_floats), sizeof(float));
 2141              		.loc 6 170 0
 2142 0184 7B68     		ldr	r3, [r7, #4]
 2143 0186 9A69     		ldr	r2, [r3, #24]
 2144 0188 2223     		mov	r3, #34
 2145 018a FB18     		add	r3, r7, r3
 2146 018c 1B78     		ldrb	r3, [r3]
 2147 018e 9B00     		lsl	r3, r3, #2
 2148 0190 D218     		add	r2, r2, r3
 2149 0192 7B68     		ldr	r3, [r7, #4]
 2150 0194 1433     		add	r3, r3, #20
 2151 0196 101C     		mov	r0, r2
 2152 0198 191C     		mov	r1, r3
 2153 019a 0422     		mov	r2, #4
 2154 019c FFF7FEFF 		bl	memcpy
 2155              	.L88:
 2156              	.LBE29:
 157:./ros_lib/rosserial_msgs/RequestParam.h ****       union {
 2157              		.loc 6 157 0 discriminator 2
 2158 01a0 2223     		mov	r3, #34
 2159 01a2 FB18     		add	r3, r7, r3
 2160 01a4 1A78     		ldrb	r2, [r3]
 2161 01a6 2223     		mov	r3, #34
 2162 01a8 FB18     		add	r3, r7, r3
 2163 01aa 0132     		add	r2, r2, #1
 2164 01ac 1A70     		strb	r2, [r3]
 2165              	.L87:
 157:./ros_lib/rosserial_msgs/RequestParam.h ****       union {
 2166              		.loc 6 157 0 is_stmt 0 discriminator 1
 2167 01ae 2223     		mov	r3, #34
 2168 01b0 FA18     		add	r2, r7, r3
 2169 01b2 1A23     		mov	r3, #26
 2170 01b4 FB18     		add	r3, r7, r3
 2171 01b6 1278     		ldrb	r2, [r2]
 2172 01b8 1B78     		ldrb	r3, [r3]
 2173 01ba 9A42     		cmp	r2, r3
 2174 01bc B1D3     		bcc	.L89
 2175              	.LBE28:
 171:./ros_lib/rosserial_msgs/RequestParam.h ****       }
 172:./ros_lib/rosserial_msgs/RequestParam.h ****       }
 173:./ros_lib/rosserial_msgs/RequestParam.h ****       uint8_t strings_lengthT = *(inbuffer + offset++);
 2176              		.loc 6 173 0 is_stmt 1
 2177 01be 7B6A     		ldr	r3, [r7, #36]
 2178 01c0 5A1C     		add	r2, r3, #1
 2179 01c2 7A62     		str	r2, [r7, #36]
 2180 01c4 1A1C     		mov	r2, r3
ARM GAS  C:\Users\Chuck\AppData\Local\Temp\cc5X170Y.s 			page 49


 2181 01c6 3B68     		ldr	r3, [r7]
 2182 01c8 9A18     		add	r2, r3, r2
 2183 01ca 1923     		mov	r3, #25
 2184 01cc FB18     		add	r3, r7, r3
 2185 01ce 1278     		ldrb	r2, [r2]
 2186 01d0 1A70     		strb	r2, [r3]
 174:./ros_lib/rosserial_msgs/RequestParam.h ****       if(strings_lengthT < strings_length)
 2187              		.loc 6 174 0
 2188 01d2 7B68     		ldr	r3, [r7, #4]
 2189 01d4 1B7F     		ldrb	r3, [r3, #28]
 2190 01d6 1922     		mov	r2, #25
 2191 01d8 BA18     		add	r2, r7, r2
 2192 01da 1278     		ldrb	r2, [r2]
 2193 01dc 9A42     		cmp	r2, r3
 2194 01de 04D2     		bcs	.L90
 175:./ros_lib/rosserial_msgs/RequestParam.h ****         strings_length = strings_lengthT;
 2195              		.loc 6 175 0
 2196 01e0 7B68     		ldr	r3, [r7, #4]
 2197 01e2 1922     		mov	r2, #25
 2198 01e4 BA18     		add	r2, r7, r2
 2199 01e6 1278     		ldrb	r2, [r2]
 2200 01e8 1A77     		strb	r2, [r3, #28]
 2201              	.L90:
 176:./ros_lib/rosserial_msgs/RequestParam.h ****       offset += 3;
 2202              		.loc 6 176 0
 2203 01ea 7B6A     		ldr	r3, [r7, #36]
 2204 01ec 0333     		add	r3, r3, #3
 2205 01ee 7B62     		str	r3, [r7, #36]
 2206              	.LBB30:
 177:./ros_lib/rosserial_msgs/RequestParam.h ****       for( uint8_t i = 0; i < strings_lengthT; i++){
 2207              		.loc 6 177 0
 2208 01f0 2123     		mov	r3, #33
 2209 01f2 FB18     		add	r3, r7, r3
 2210 01f4 0022     		mov	r2, #0
 2211 01f6 1A70     		strb	r2, [r3]
 2212 01f8 4FE0     		b	.L91
 2213              	.L95:
 2214              	.LBB31:
 178:./ros_lib/rosserial_msgs/RequestParam.h ****       uint32_t length_st_strings;
 179:./ros_lib/rosserial_msgs/RequestParam.h ****       memcpy(&length_st_strings, (inbuffer + offset), sizeof(uint32_t));
 2215              		.loc 6 179 0
 2216 01fa 7B6A     		ldr	r3, [r7, #36]
 2217 01fc 3A68     		ldr	r2, [r7]
 2218 01fe D318     		add	r3, r2, r3
 2219 0200 0C22     		mov	r2, #12
 2220 0202 BA18     		add	r2, r7, r2
 2221 0204 101C     		mov	r0, r2
 2222 0206 191C     		mov	r1, r3
 2223 0208 0422     		mov	r2, #4
 2224 020a FFF7FEFF 		bl	memcpy
 180:./ros_lib/rosserial_msgs/RequestParam.h ****       offset += 4;
 2225              		.loc 6 180 0
 2226 020e 7B6A     		ldr	r3, [r7, #36]
 2227 0210 0433     		add	r3, r3, #4
 2228 0212 7B62     		str	r3, [r7, #36]
 2229              	.LBB32:
 181:./ros_lib/rosserial_msgs/RequestParam.h ****       for(unsigned int k= offset; k< offset+length_st_strings; ++k){
ARM GAS  C:\Users\Chuck\AppData\Local\Temp\cc5X170Y.s 			page 50


 2230              		.loc 6 181 0
 2231 0214 7B6A     		ldr	r3, [r7, #36]
 2232 0216 FB61     		str	r3, [r7, #28]
 2233 0218 0BE0     		b	.L92
 2234              	.L93:
 182:./ros_lib/rosserial_msgs/RequestParam.h ****           inbuffer[k-1]=inbuffer[k];
 2235              		.loc 6 182 0 discriminator 3
 2236 021a FB69     		ldr	r3, [r7, #28]
 2237 021c 013B     		sub	r3, r3, #1
 2238 021e 3A68     		ldr	r2, [r7]
 2239 0220 D318     		add	r3, r2, r3
 2240 0222 3968     		ldr	r1, [r7]
 2241 0224 FA69     		ldr	r2, [r7, #28]
 2242 0226 8A18     		add	r2, r1, r2
 2243 0228 1278     		ldrb	r2, [r2]
 2244 022a 1A70     		strb	r2, [r3]
 181:./ros_lib/rosserial_msgs/RequestParam.h ****       for(unsigned int k= offset; k< offset+length_st_strings; ++k){
 2245              		.loc 6 181 0 discriminator 3
 2246 022c FB69     		ldr	r3, [r7, #28]
 2247 022e 0133     		add	r3, r3, #1
 2248 0230 FB61     		str	r3, [r7, #28]
 2249              	.L92:
 181:./ros_lib/rosserial_msgs/RequestParam.h ****       for(unsigned int k= offset; k< offset+length_st_strings; ++k){
 2250              		.loc 6 181 0 is_stmt 0 discriminator 1
 2251 0232 7A6A     		ldr	r2, [r7, #36]
 2252 0234 FB68     		ldr	r3, [r7, #12]
 2253 0236 D218     		add	r2, r2, r3
 2254 0238 FB69     		ldr	r3, [r7, #28]
 2255 023a 9A42     		cmp	r2, r3
 2256 023c EDD8     		bhi	.L93
 2257              	.LBE32:
 183:./ros_lib/rosserial_msgs/RequestParam.h ****       }
 184:./ros_lib/rosserial_msgs/RequestParam.h ****       inbuffer[offset+length_st_strings-1]=0;
 2258              		.loc 6 184 0 is_stmt 1
 2259 023e 7A6A     		ldr	r2, [r7, #36]
 2260 0240 FB68     		ldr	r3, [r7, #12]
 2261 0242 D318     		add	r3, r2, r3
 2262 0244 013B     		sub	r3, r3, #1
 2263 0246 3A68     		ldr	r2, [r7]
 2264 0248 D318     		add	r3, r2, r3
 2265 024a 0022     		mov	r2, #0
 2266 024c 1A70     		strb	r2, [r3]
 185:./ros_lib/rosserial_msgs/RequestParam.h ****       this->st_strings = (char *)(inbuffer + offset-1);
 2267              		.loc 6 185 0
 2268 024e 7B6A     		ldr	r3, [r7, #36]
 2269 0250 013B     		sub	r3, r3, #1
 2270 0252 3A68     		ldr	r2, [r7]
 2271 0254 D218     		add	r2, r2, r3
 2272 0256 7B68     		ldr	r3, [r7, #4]
 2273 0258 1A62     		str	r2, [r3, #32]
 186:./ros_lib/rosserial_msgs/RequestParam.h ****       offset += length_st_strings;
 2274              		.loc 6 186 0
 2275 025a 7A6A     		ldr	r2, [r7, #36]
 2276 025c FB68     		ldr	r3, [r7, #12]
 2277 025e D318     		add	r3, r2, r3
 2278 0260 7B62     		str	r3, [r7, #36]
 187:./ros_lib/rosserial_msgs/RequestParam.h ****       if (i < strings_length) {
ARM GAS  C:\Users\Chuck\AppData\Local\Temp\cc5X170Y.s 			page 51


 2279              		.loc 6 187 0
 2280 0262 7B68     		ldr	r3, [r7, #4]
 2281 0264 1B7F     		ldrb	r3, [r3, #28]
 2282 0266 2122     		mov	r2, #33
 2283 0268 BA18     		add	r2, r7, r2
 2284 026a 1278     		ldrb	r2, [r2]
 2285 026c 9A42     		cmp	r2, r3
 2286 026e 0DD2     		bcs	.L94
 188:./ros_lib/rosserial_msgs/RequestParam.h ****           memcpy( &(this->strings[i]), &(this->st_strings), sizeof(char*));
 2287              		.loc 6 188 0
 2288 0270 7B68     		ldr	r3, [r7, #4]
 2289 0272 5A6A     		ldr	r2, [r3, #36]
 2290 0274 2123     		mov	r3, #33
 2291 0276 FB18     		add	r3, r7, r3
 2292 0278 1B78     		ldrb	r3, [r3]
 2293 027a 9B00     		lsl	r3, r3, #2
 2294 027c D218     		add	r2, r2, r3
 2295 027e 7B68     		ldr	r3, [r7, #4]
 2296 0280 2033     		add	r3, r3, #32
 2297 0282 101C     		mov	r0, r2
 2298 0284 191C     		mov	r1, r3
 2299 0286 0422     		mov	r2, #4
 2300 0288 FFF7FEFF 		bl	memcpy
 2301              	.L94:
 2302              	.LBE31:
 177:./ros_lib/rosserial_msgs/RequestParam.h ****       uint32_t length_st_strings;
 2303              		.loc 6 177 0 discriminator 2
 2304 028c 2123     		mov	r3, #33
 2305 028e FB18     		add	r3, r7, r3
 2306 0290 1A78     		ldrb	r2, [r3]
 2307 0292 2123     		mov	r3, #33
 2308 0294 FB18     		add	r3, r7, r3
 2309 0296 0132     		add	r2, r2, #1
 2310 0298 1A70     		strb	r2, [r3]
 2311              	.L91:
 177:./ros_lib/rosserial_msgs/RequestParam.h ****       uint32_t length_st_strings;
 2312              		.loc 6 177 0 is_stmt 0 discriminator 1
 2313 029a 2123     		mov	r3, #33
 2314 029c FA18     		add	r2, r7, r3
 2315 029e 1923     		mov	r3, #25
 2316 02a0 FB18     		add	r3, r7, r3
 2317 02a2 1278     		ldrb	r2, [r2]
 2318 02a4 1B78     		ldrb	r3, [r3]
 2319 02a6 9A42     		cmp	r2, r3
 2320 02a8 A7D3     		bcc	.L95
 2321              	.LBE30:
 189:./ros_lib/rosserial_msgs/RequestParam.h ****       }
 190:./ros_lib/rosserial_msgs/RequestParam.h ****       }
 191:./ros_lib/rosserial_msgs/RequestParam.h **** #endif
 192:./ros_lib/rosserial_msgs/RequestParam.h ****      return offset;
 2322              		.loc 6 192 0 is_stmt 1
 2323 02aa 7B6A     		ldr	r3, [r7, #36]
 2324              	.LBE25:
 193:./ros_lib/rosserial_msgs/RequestParam.h ****     }
 2325              		.loc 6 193 0
 2326 02ac 181C     		mov	r0, r3
 2327 02ae BD46     		mov	sp, r7
ARM GAS  C:\Users\Chuck\AppData\Local\Temp\cc5X170Y.s 			page 52


 2328 02b0 0AB0     		add	sp, sp, #40
 2329              		@ sp needed
 2330 02b2 80BD     		pop	{r7, pc}
 2331              		.cfi_endproc
 2332              	.LFE54:
 2333              		.size	_ZN14rosserial_msgs20RequestParamResponse11deserializeEPh, .-_ZN14rosserial_msgs20RequestPar
 2334              		.section	.text._ZN14rosserial_msgs20RequestParamResponse7getTypeEv,"axG",%progbits,_ZN14rosserial_
 2335              		.align	2
 2336              		.weak	_ZN14rosserial_msgs20RequestParamResponse7getTypeEv
 2337              		.code	16
 2338              		.thumb_func
 2339              		.type	_ZN14rosserial_msgs20RequestParamResponse7getTypeEv, %function
 2340              	_ZN14rosserial_msgs20RequestParamResponse7getTypeEv:
 2341              	.LFB55:
 194:./ros_lib/rosserial_msgs/RequestParam.h **** 
 195:./ros_lib/rosserial_msgs/RequestParam.h ****     const char * getType(){ return REQUESTPARAM; };
 2342              		.loc 6 195 0
 2343              		.cfi_startproc
 2344 0000 80B5     		push	{r7, lr}
 2345              		.cfi_def_cfa_offset 8
 2346              		.cfi_offset 7, -8
 2347              		.cfi_offset 14, -4
 2348 0002 82B0     		sub	sp, sp, #8
 2349              		.cfi_def_cfa_offset 16
 2350 0004 00AF     		add	r7, sp, #0
 2351              		.cfi_def_cfa_register 7
 2352 0006 7860     		str	r0, [r7, #4]
 2353              		.loc 6 195 0
 2354 0008 024B     		ldr	r3, .L99
 2355 000a 181C     		mov	r0, r3
 2356 000c BD46     		mov	sp, r7
 2357 000e 02B0     		add	sp, sp, #8
 2358              		@ sp needed
 2359 0010 80BD     		pop	{r7, pc}
 2360              	.L100:
 2361 0012 C046     		.align	2
 2362              	.L99:
 2363 0014 10010000 		.word	_ZN14rosserial_msgsL12REQUESTPARAME
 2364              		.cfi_endproc
 2365              	.LFE55:
 2366              		.size	_ZN14rosserial_msgs20RequestParamResponse7getTypeEv, .-_ZN14rosserial_msgs20RequestParamResp
 2367              		.section	.rodata
 2368 00ad 000000   		.align	2
 2369              	.LC21:
 2370 00b0 39663065 		.ascii	"9f0e98bda65981986ddf53afa7a40e49\000"
 2370      39386264 
 2370      61363539 
 2370      38313938 
 2370      36646466 
 2371              		.section	.text._ZN14rosserial_msgs20RequestParamResponse6getMD5Ev,"axG",%progbits,_ZN14rosserial_m
 2372              		.align	2
 2373              		.weak	_ZN14rosserial_msgs20RequestParamResponse6getMD5Ev
 2374              		.code	16
 2375              		.thumb_func
 2376              		.type	_ZN14rosserial_msgs20RequestParamResponse6getMD5Ev, %function
 2377              	_ZN14rosserial_msgs20RequestParamResponse6getMD5Ev:
 2378              	.LFB56:
ARM GAS  C:\Users\Chuck\AppData\Local\Temp\cc5X170Y.s 			page 53


 196:./ros_lib/rosserial_msgs/RequestParam.h ****     const char * getMD5(){ return "9f0e98bda65981986ddf53afa7a40e49"; };
 2379              		.loc 6 196 0
 2380              		.cfi_startproc
 2381 0000 80B5     		push	{r7, lr}
 2382              		.cfi_def_cfa_offset 8
 2383              		.cfi_offset 7, -8
 2384              		.cfi_offset 14, -4
 2385 0002 82B0     		sub	sp, sp, #8
 2386              		.cfi_def_cfa_offset 16
 2387 0004 00AF     		add	r7, sp, #0
 2388              		.cfi_def_cfa_register 7
 2389 0006 7860     		str	r0, [r7, #4]
 2390              		.loc 6 196 0
 2391 0008 024B     		ldr	r3, .L103
 2392 000a 181C     		mov	r0, r3
 2393 000c BD46     		mov	sp, r7
 2394 000e 02B0     		add	sp, sp, #8
 2395              		@ sp needed
 2396 0010 80BD     		pop	{r7, pc}
 2397              	.L104:
 2398 0012 C046     		.align	2
 2399              	.L103:
 2400 0014 B0000000 		.word	.LC21
 2401              		.cfi_endproc
 2402              	.LFE56:
 2403              		.size	_ZN14rosserial_msgs20RequestParamResponse6getMD5Ev, .-_ZN14rosserial_msgs20RequestParamRespo
 2404              		.section	.text._ZN3ros9Publisher15getEndpointTypeEv,"axG",%progbits,_ZN3ros9Publisher15getEndpoint
 2405              		.align	2
 2406              		.weak	_ZN3ros9Publisher15getEndpointTypeEv
 2407              		.code	16
 2408              		.thumb_func
 2409              		.type	_ZN3ros9Publisher15getEndpointTypeEv, %function
 2410              	_ZN3ros9Publisher15getEndpointTypeEv:
 2411              	.LFB62:
 2412              		.file 7 "./ros_lib/ros/publisher.h"
   1:./ros_lib/ros/publisher.h **** /* 
   2:./ros_lib/ros/publisher.h ****  * Software License Agreement (BSD License)
   3:./ros_lib/ros/publisher.h ****  *
   4:./ros_lib/ros/publisher.h ****  * Copyright (c) 2011, Willow Garage, Inc.
   5:./ros_lib/ros/publisher.h ****  * All rights reserved.
   6:./ros_lib/ros/publisher.h ****  *
   7:./ros_lib/ros/publisher.h ****  * Redistribution and use in source and binary forms, with or without
   8:./ros_lib/ros/publisher.h ****  * modification, are permitted provided that the following conditions
   9:./ros_lib/ros/publisher.h ****  * are met:
  10:./ros_lib/ros/publisher.h ****  *
  11:./ros_lib/ros/publisher.h ****  *  * Redistributions of source code must retain the above copyright
  12:./ros_lib/ros/publisher.h ****  *    notice, this list of conditions and the following disclaimer.
  13:./ros_lib/ros/publisher.h ****  *  * Redistributions in binary form must reproduce the above
  14:./ros_lib/ros/publisher.h ****  *    copyright notice, this list of conditions and the following
  15:./ros_lib/ros/publisher.h ****  *    disclaimer in the documentation and/or other materials provided
  16:./ros_lib/ros/publisher.h ****  *    with the distribution.
  17:./ros_lib/ros/publisher.h ****  *  * Neither the name of Willow Garage, Inc. nor the names of its
  18:./ros_lib/ros/publisher.h ****  *    contributors may be used to endorse or promote prducts derived
  19:./ros_lib/ros/publisher.h ****  *    from this software without specific prior written permission.
  20:./ros_lib/ros/publisher.h ****  *
  21:./ros_lib/ros/publisher.h ****  * THIS SOFTWARE IS PROVIDED BY THE COPYRIGHT HOLDERS AND CONTRIBUTORS
  22:./ros_lib/ros/publisher.h ****  * "AS IS" AND ANY EXPRESS OR IMPLIED WARRANTIES, INCLUDING, BUT NOT
ARM GAS  C:\Users\Chuck\AppData\Local\Temp\cc5X170Y.s 			page 54


  23:./ros_lib/ros/publisher.h ****  * LIMITED TO, THE IMPLIED WARRANTIES OF MERCHANTABILITY AND FITNESS
  24:./ros_lib/ros/publisher.h ****  * FOR A PARTICULAR PURPOSE ARE DISCLAIMED. IN NO EVENT SHALL THE
  25:./ros_lib/ros/publisher.h ****  * COPYRIGHT OWNER OR CONTRIBUTORS BE LIABLE FOR ANY DIRECT, INDIRECT,
  26:./ros_lib/ros/publisher.h ****  * INCIDENTAL, SPECIAL, EXEMPLARY, OR CONSEQUENTIAL DAMAGES (INCLUDING,
  27:./ros_lib/ros/publisher.h ****  * BUT NOT LIMITED TO, PROCUREMENT OF SUBSTITUTE GOODS OR SERVICES;
  28:./ros_lib/ros/publisher.h ****  * LOSS OF USE, DATA, OR PROFITS; OR BUSINESS INTERRUPTION) HOWEVER
  29:./ros_lib/ros/publisher.h ****  * CAUSED AND ON ANY THEORY OF LIABILITY, WHETHER IN CONTRACT, STRICT
  30:./ros_lib/ros/publisher.h ****  * LIABILITY, OR TORT (INCLUDING NEGLIGENCE OR OTHERWISE) ARISING IN
  31:./ros_lib/ros/publisher.h ****  * ANY WAY OUT OF THE USE OF THIS SOFTWARE, EVEN IF ADVISED OF THE
  32:./ros_lib/ros/publisher.h ****  * POSSIBILITY OF SUCH DAMAGE.
  33:./ros_lib/ros/publisher.h ****  */
  34:./ros_lib/ros/publisher.h **** 
  35:./ros_lib/ros/publisher.h **** #ifndef _ROS_PUBLISHER_H_
  36:./ros_lib/ros/publisher.h **** #define _ROS_PUBLISHER_H_
  37:./ros_lib/ros/publisher.h **** 
  38:./ros_lib/ros/publisher.h **** #include "rosserial_msgs/TopicInfo.h"
  39:./ros_lib/ros/publisher.h **** #include "node_handle.h"
  40:./ros_lib/ros/publisher.h **** 
  41:./ros_lib/ros/publisher.h **** namespace ros {
  42:./ros_lib/ros/publisher.h **** 
  43:./ros_lib/ros/publisher.h ****   /* Generic Publisher */
  44:./ros_lib/ros/publisher.h ****   class Publisher
  45:./ros_lib/ros/publisher.h ****   {
  46:./ros_lib/ros/publisher.h ****     public:
  47:./ros_lib/ros/publisher.h ****       Publisher( const char * topic_name, Msg * msg, int endpoint=rosserial_msgs::TopicInfo::ID_PUB
  48:./ros_lib/ros/publisher.h ****         topic_(topic_name), 
  49:./ros_lib/ros/publisher.h ****         msg_(msg),
  50:./ros_lib/ros/publisher.h ****         endpoint_(endpoint) {};
  51:./ros_lib/ros/publisher.h ****       // rosserial standard signature
  52:./ros_lib/ros/publisher.h ****       int publish( const Msg * msg ) { return nh_->publish(id_, msg); };
  53:./ros_lib/ros/publisher.h ****       // roscpp-compatible signature
  54:./ros_lib/ros/publisher.h ****       int publish( const Msg & msg ) { return nh_->publish(id_, &msg); }; 
  55:./ros_lib/ros/publisher.h ****       int getEndpointType(){ return endpoint_; }
 2413              		.loc 7 55 0
 2414              		.cfi_startproc
 2415 0000 80B5     		push	{r7, lr}
 2416              		.cfi_def_cfa_offset 8
 2417              		.cfi_offset 7, -8
 2418              		.cfi_offset 14, -4
 2419 0002 82B0     		sub	sp, sp, #8
 2420              		.cfi_def_cfa_offset 16
 2421 0004 00AF     		add	r7, sp, #0
 2422              		.cfi_def_cfa_register 7
 2423 0006 7860     		str	r0, [r7, #4]
 2424              		.loc 7 55 0
 2425 0008 7B68     		ldr	r3, [r7, #4]
 2426 000a 1B69     		ldr	r3, [r3, #16]
 2427 000c 181C     		mov	r0, r3
 2428 000e BD46     		mov	sp, r7
 2429 0010 02B0     		add	sp, sp, #8
 2430              		@ sp needed
 2431 0012 80BD     		pop	{r7, pc}
 2432              		.cfi_endproc
 2433              	.LFE62:
 2434              		.size	_ZN3ros9Publisher15getEndpointTypeEv, .-_ZN3ros9Publisher15getEndpointTypeEv
 2435              		.section	.text._ZN8SysTimer6millisEv,"axG",%progbits,_ZN8SysTimer6millisEv,comdat
 2436              		.align	2
ARM GAS  C:\Users\Chuck\AppData\Local\Temp\cc5X170Y.s 			page 55


 2437              		.weak	_ZN8SysTimer6millisEv
 2438              		.code	16
 2439              		.thumb_func
 2440              		.type	_ZN8SysTimer6millisEv, %function
 2441              	_ZN8SysTimer6millisEv:
 2442              	.LFB109:
 2443              		.file 8 "./ros_lib/SysTimer.h"
   1:./ros_lib/SysTimer.h **** /* ========================================
   2:./ros_lib/SysTimer.h ****  *
   3:./ros_lib/SysTimer.h ****  * The following firmware was developed by Chuck Harrison
   4:./ros_lib/SysTimer.h ****  * This work is licensed under a Creative Commons Attribution 3.0 Unported License.
   5:./ros_lib/SysTimer.h ****  * 
   6:./ros_lib/SysTimer.h ****  * http://creativecommons.org/licenses/by/3.0/deed.en_US
   7:./ros_lib/SysTimer.h ****  * 
   8:./ros_lib/SysTimer.h ****  * You are free to:
   9:./ros_lib/SysTimer.h ****  * -To Share  to copy, distribute and transmit the work 
  10:./ros_lib/SysTimer.h ****  * -To Remix  to adapt the work 
  11:./ros_lib/SysTimer.h ****  * -To make commercial use of the work
  12:./ros_lib/SysTimer.h ****  *
  13:./ros_lib/SysTimer.h ****  * ========================================
  14:./ros_lib/SysTimer.h ****  */
  15:./ros_lib/SysTimer.h **** 
  16:./ros_lib/SysTimer.h **** #ifndef ROS_SYSTIMER_H_
  17:./ros_lib/SysTimer.h **** #define ROS_SYSTIMER_H_
  18:./ros_lib/SysTimer.h **** 
  19:./ros_lib/SysTimer.h **** typedef void (* cyisraddress)(void); // should we #include the whole cytypes.h?
  20:./ros_lib/SysTimer.h **** #define CY_ISR(FuncName)        void FuncName (void)
  21:./ros_lib/SysTimer.h **** 
  22:./ros_lib/SysTimer.h **** extern "C" {
  23:./ros_lib/SysTimer.h **** cyisraddress CyIntSetSysVector(uint8_t number, cyisraddress address);
  24:./ros_lib/SysTimer.h **** }
  25:./ros_lib/SysTimer.h **** 
  26:./ros_lib/SysTimer.h **** CY_ISR(SysTick_ISR); //forward declaration for SysTimer::init()
  27:./ros_lib/SysTimer.h **** 
  28:./ros_lib/SysTimer.h **** #define SYSTICK_INTERRUPT_VECTOR_NUMBER 15u /* Cortex-M0 hard vector */
  29:./ros_lib/SysTimer.h **** 
  30:./ros_lib/SysTimer.h **** /* clock and interrupt rates, in Hz */
  31:./ros_lib/SysTimer.h **** #define CLOCK_FREQ     24000000u
  32:./ros_lib/SysTimer.h **** #define INTERRUPT_FREQ 1000u
  33:./ros_lib/SysTimer.h **** 
  34:./ros_lib/SysTimer.h **** 
  35:./ros_lib/SysTimer.h **** class SysTimer
  36:./ros_lib/SysTimer.h **** {
  37:./ros_lib/SysTimer.h ****   public:
  38:./ros_lib/SysTimer.h ****     static void init() {
  39:./ros_lib/SysTimer.h ****       CyIntSetSysVector(SYSTICK_INTERRUPT_VECTOR_NUMBER, SysTick_ISR);
  40:./ros_lib/SysTimer.h ****       // must eventually do this:
  41:./ros_lib/SysTimer.h ****       //  SysTick_Config(CLOCK_FREQ / INTERRUPT_FREQ); /* defined in auto-generated core_cm0.h */
  42:./ros_lib/SysTimer.h ****       //  CyGlobalIntEnable;
  43:./ros_lib/SysTimer.h ****       millis_ = 0;
  44:./ros_lib/SysTimer.h ****     };
  45:./ros_lib/SysTimer.h ****     static uint32_t millis() { return millis_; };
 2444              		.loc 8 45 0
 2445              		.cfi_startproc
 2446 0000 80B5     		push	{r7, lr}
 2447              		.cfi_def_cfa_offset 8
 2448              		.cfi_offset 7, -8
ARM GAS  C:\Users\Chuck\AppData\Local\Temp\cc5X170Y.s 			page 56


 2449              		.cfi_offset 14, -4
 2450 0002 00AF     		add	r7, sp, #0
 2451              		.cfi_def_cfa_register 7
 2452              		.loc 8 45 0
 2453 0004 024B     		ldr	r3, .L109
 2454 0006 1B68     		ldr	r3, [r3]
 2455 0008 181C     		mov	r0, r3
 2456 000a BD46     		mov	sp, r7
 2457              		@ sp needed
 2458 000c 80BD     		pop	{r7, pc}
 2459              	.L110:
 2460 000e C046     		.align	2
 2461              	.L109:
 2462 0010 00000000 		.word	_ZN8SysTimer7millis_E
 2463              		.cfi_endproc
 2464              	.LFE109:
 2465              		.size	_ZN8SysTimer6millisEv, .-_ZN8SysTimer6millisEv
 2466              		.section	.text._ZN13Psoc4HardwareC2Ev,"axG",%progbits,_ZN13Psoc4HardwareC5Ev,comdat
 2467              		.align	2
 2468              		.weak	_ZN13Psoc4HardwareC2Ev
 2469              		.code	16
 2470              		.thumb_func
 2471              		.type	_ZN13Psoc4HardwareC2Ev, %function
 2472              	_ZN13Psoc4HardwareC2Ev:
 2473              	.LFB114:
 2474              		.file 9 "./ros_lib/Psoc4Hardware.h"
   1:./ros_lib/Psoc4Hardware.h **** /* 
   2:./ros_lib/Psoc4Hardware.h ****  * Software License Agreement (BSD License)
   3:./ros_lib/Psoc4Hardware.h ****  *
   4:./ros_lib/Psoc4Hardware.h ****  * Copyright (c) 2011, Willow Garage, Inc.
   5:./ros_lib/Psoc4Hardware.h ****  * All rights reserved.
   6:./ros_lib/Psoc4Hardware.h ****  * Mods from ArduinoHardware.h for Cypress PSoC4  (c) 2013 C. Harrison
   7:./ros_lib/Psoc4Hardware.h ****  * All rights reserved.
   8:./ros_lib/Psoc4Hardware.h ****  *
   9:./ros_lib/Psoc4Hardware.h ****  * Redistribution and use in source and binary forms, with or without
  10:./ros_lib/Psoc4Hardware.h ****  * modification, are permitted provided that the following conditions
  11:./ros_lib/Psoc4Hardware.h ****  * are met:
  12:./ros_lib/Psoc4Hardware.h ****  *
  13:./ros_lib/Psoc4Hardware.h ****  *  * Redistributions of source code must retain the above copyright
  14:./ros_lib/Psoc4Hardware.h ****  *    notice, this list of conditions and the following disclaimer.
  15:./ros_lib/Psoc4Hardware.h ****  *  * Redistributions in binary form must reproduce the above
  16:./ros_lib/Psoc4Hardware.h ****  *    copyright notice, this list of conditions and the following
  17:./ros_lib/Psoc4Hardware.h ****  *    disclaimer in the documentation and/or other materials provided
  18:./ros_lib/Psoc4Hardware.h ****  *    with the distribution.
  19:./ros_lib/Psoc4Hardware.h ****  *  * Neither the name of Willow Garage, Inc. nor the names of its
  20:./ros_lib/Psoc4Hardware.h ****  *    contributors may be used to endorse or promote prducts derived
  21:./ros_lib/Psoc4Hardware.h ****  *    from this software without specific prior written permission.
  22:./ros_lib/Psoc4Hardware.h ****  *
  23:./ros_lib/Psoc4Hardware.h ****  * THIS SOFTWARE IS PROVIDED BY THE COPYRIGHT HOLDERS AND CONTRIBUTORS
  24:./ros_lib/Psoc4Hardware.h ****  * "AS IS" AND ANY EXPRESS OR IMPLIED WARRANTIES, INCLUDING, BUT NOT
  25:./ros_lib/Psoc4Hardware.h ****  * LIMITED TO, THE IMPLIED WARRANTIES OF MERCHANTABILITY AND FITNESS
  26:./ros_lib/Psoc4Hardware.h ****  * FOR A PARTICULAR PURPOSE ARE DISCLAIMED. IN NO EVENT SHALL THE
  27:./ros_lib/Psoc4Hardware.h ****  * COPYRIGHT OWNER OR CONTRIBUTORS BE LIABLE FOR ANY DIRECT, INDIRECT,
  28:./ros_lib/Psoc4Hardware.h ****  * INCIDENTAL, SPECIAL, EXEMPLARY, OR CONSEQUENTIAL DAMAGES (INCLUDING,
  29:./ros_lib/Psoc4Hardware.h ****  * BUT NOT LIMITED TO, PROCUREMENT OF SUBSTITUTE GOODS OR SERVICES;
  30:./ros_lib/Psoc4Hardware.h ****  * LOSS OF USE, DATA, OR PROFITS; OR BUSINESS INTERRUPTION) HOWEVER
  31:./ros_lib/Psoc4Hardware.h ****  * CAUSED AND ON ANY THEORY OF LIABILITY, WHETHER IN CONTRACT, STRICT
ARM GAS  C:\Users\Chuck\AppData\Local\Temp\cc5X170Y.s 			page 57


  32:./ros_lib/Psoc4Hardware.h ****  * LIABILITY, OR TORT (INCLUDING NEGLIGENCE OR OTHERWISE) ARISING IN
  33:./ros_lib/Psoc4Hardware.h ****  * ANY WAY OUT OF THE USE OF THIS SOFTWARE, EVEN IF ADVISED OF THE
  34:./ros_lib/Psoc4Hardware.h ****  * POSSIBILITY OF SUCH DAMAGE.
  35:./ros_lib/Psoc4Hardware.h ****  */
  36:./ros_lib/Psoc4Hardware.h **** 
  37:./ros_lib/Psoc4Hardware.h **** #ifndef ROS_PSOC4_HARDWARE_H_
  38:./ros_lib/Psoc4Hardware.h **** #define ROS_PSOC4_HARDWARE_H_
  39:./ros_lib/Psoc4Hardware.h **** 
  40:./ros_lib/Psoc4Hardware.h **** extern "C" {
  41:./ros_lib/Psoc4Hardware.h **** void  CyDelay(uint32_t milliseconds);
  42:./ros_lib/Psoc4Hardware.h **** }
  43:./ros_lib/Psoc4Hardware.h **** inline void delay(uint32_t milliseconds) { CyDelay(milliseconds); };
  44:./ros_lib/Psoc4Hardware.h **** 
  45:./ros_lib/Psoc4Hardware.h **** #include "HardwareSerial.h"
  46:./ros_lib/Psoc4Hardware.h **** #include "Uarts.h"
  47:./ros_lib/Psoc4Hardware.h **** #include "SysTimer.h"
  48:./ros_lib/Psoc4Hardware.h **** 
  49:./ros_lib/Psoc4Hardware.h **** #define DEFAULT_SERIAL Uart0
  50:./ros_lib/Psoc4Hardware.h **** 
  51:./ros_lib/Psoc4Hardware.h **** class Psoc4Hardware {
  52:./ros_lib/Psoc4Hardware.h ****   public:
  53:./ros_lib/Psoc4Hardware.h ****     Psoc4Hardware(HardwareSerial* io , long baud= 57600){
  54:./ros_lib/Psoc4Hardware.h ****       iostream = io;
  55:./ros_lib/Psoc4Hardware.h ****       baud_ = baud;
  56:./ros_lib/Psoc4Hardware.h ****     }
  57:./ros_lib/Psoc4Hardware.h **** 
  58:./ros_lib/Psoc4Hardware.h **** 
  59:./ros_lib/Psoc4Hardware.h ****     Psoc4Hardware() 
 2475              		.loc 9 59 0
 2476              		.cfi_startproc
 2477 0000 80B5     		push	{r7, lr}
 2478              		.cfi_def_cfa_offset 8
 2479              		.cfi_offset 7, -8
 2480              		.cfi_offset 14, -4
 2481 0002 82B0     		sub	sp, sp, #8
 2482              		.cfi_def_cfa_offset 16
 2483 0004 00AF     		add	r7, sp, #0
 2484              		.cfi_def_cfa_register 7
 2485 0006 7860     		str	r0, [r7, #4]
 2486              	.LBB33:
  60:./ros_lib/Psoc4Hardware.h ****     {
  61:./ros_lib/Psoc4Hardware.h ****       iostream = &DEFAULT_SERIAL;
 2487              		.loc 9 61 0
 2488 0008 7B68     		ldr	r3, [r7, #4]
 2489 000a 054A     		ldr	r2, .L114
 2490 000c 1A60     		str	r2, [r3]
  62:./ros_lib/Psoc4Hardware.h ****       baud_ = 57600;
 2491              		.loc 9 62 0
 2492 000e 7B68     		ldr	r3, [r7, #4]
 2493 0010 E122     		mov	r2, #225
 2494 0012 1202     		lsl	r2, r2, #8
 2495 0014 5A60     		str	r2, [r3, #4]
 2496              	.LBE33:
  63:./ros_lib/Psoc4Hardware.h ****     }
 2497              		.loc 9 63 0
 2498 0016 7B68     		ldr	r3, [r7, #4]
 2499 0018 181C     		mov	r0, r3
ARM GAS  C:\Users\Chuck\AppData\Local\Temp\cc5X170Y.s 			page 58


 2500 001a BD46     		mov	sp, r7
 2501 001c 02B0     		add	sp, sp, #8
 2502              		@ sp needed
 2503 001e 80BD     		pop	{r7, pc}
 2504              	.L115:
 2505              		.align	2
 2506              	.L114:
 2507 0020 00000000 		.word	Uart0
 2508              		.cfi_endproc
 2509              	.LFE114:
 2510              		.size	_ZN13Psoc4HardwareC2Ev, .-_ZN13Psoc4HardwareC2Ev
 2511              		.weak	_ZN13Psoc4HardwareC1Ev
 2512              		.thumb_set _ZN13Psoc4HardwareC1Ev,_ZN13Psoc4HardwareC2Ev
 2513              		.section	.text._ZN13Psoc4Hardware4initEv,"axG",%progbits,_ZN13Psoc4Hardware4initEv,comdat
 2514              		.align	2
 2515              		.weak	_ZN13Psoc4Hardware4initEv
 2516              		.code	16
 2517              		.thumb_func
 2518              		.type	_ZN13Psoc4Hardware4initEv, %function
 2519              	_ZN13Psoc4Hardware4initEv:
 2520              	.LFB121:
  64:./ros_lib/Psoc4Hardware.h **** 
  65:./ros_lib/Psoc4Hardware.h ****     Psoc4Hardware(Psoc4Hardware& h){
  66:./ros_lib/Psoc4Hardware.h ****       this->iostream = iostream;
  67:./ros_lib/Psoc4Hardware.h ****       this->baud_ = h.baud_;
  68:./ros_lib/Psoc4Hardware.h ****     }
  69:./ros_lib/Psoc4Hardware.h ****   
  70:./ros_lib/Psoc4Hardware.h ****     void setBaud(long baud){
  71:./ros_lib/Psoc4Hardware.h ****       this->baud_= baud;
  72:./ros_lib/Psoc4Hardware.h ****     }
  73:./ros_lib/Psoc4Hardware.h ****   
  74:./ros_lib/Psoc4Hardware.h ****     int getBaud(){return baud_;}
  75:./ros_lib/Psoc4Hardware.h **** 
  76:./ros_lib/Psoc4Hardware.h ****     void init(){
 2521              		.loc 9 76 0
 2522              		.cfi_startproc
 2523 0000 80B5     		push	{r7, lr}
 2524              		.cfi_def_cfa_offset 8
 2525              		.cfi_offset 7, -8
 2526              		.cfi_offset 14, -4
 2527 0002 82B0     		sub	sp, sp, #8
 2528              		.cfi_def_cfa_offset 16
 2529 0004 00AF     		add	r7, sp, #0
 2530              		.cfi_def_cfa_register 7
 2531 0006 7860     		str	r0, [r7, #4]
  77:./ros_lib/Psoc4Hardware.h ****       iostream->begin(baud_);
 2532              		.loc 9 77 0
 2533 0008 7B68     		ldr	r3, [r7, #4]
 2534 000a 1B68     		ldr	r3, [r3]
 2535 000c 1B68     		ldr	r3, [r3]
 2536 000e 1A68     		ldr	r2, [r3]
 2537 0010 7B68     		ldr	r3, [r7, #4]
 2538 0012 1968     		ldr	r1, [r3]
 2539 0014 7B68     		ldr	r3, [r7, #4]
 2540 0016 5B68     		ldr	r3, [r3, #4]
 2541 0018 081C     		mov	r0, r1
 2542 001a 191C     		mov	r1, r3
ARM GAS  C:\Users\Chuck\AppData\Local\Temp\cc5X170Y.s 			page 59


 2543 001c 9047     		blx	r2
  78:./ros_lib/Psoc4Hardware.h ****     }
 2544              		.loc 9 78 0
 2545 001e BD46     		mov	sp, r7
 2546 0020 02B0     		add	sp, sp, #8
 2547              		@ sp needed
 2548 0022 80BD     		pop	{r7, pc}
 2549              		.cfi_endproc
 2550              	.LFE121:
 2551              		.size	_ZN13Psoc4Hardware4initEv, .-_ZN13Psoc4Hardware4initEv
 2552              		.section	.text._ZN13Psoc4Hardware4readEv,"axG",%progbits,_ZN13Psoc4Hardware4readEv,comdat
 2553              		.align	2
 2554              		.weak	_ZN13Psoc4Hardware4readEv
 2555              		.code	16
 2556              		.thumb_func
 2557              		.type	_ZN13Psoc4Hardware4readEv, %function
 2558              	_ZN13Psoc4Hardware4readEv:
 2559              	.LFB122:
  79:./ros_lib/Psoc4Hardware.h **** 
  80:./ros_lib/Psoc4Hardware.h ****     int read() { return iostream->read(); }
 2560              		.loc 9 80 0
 2561              		.cfi_startproc
 2562 0000 80B5     		push	{r7, lr}
 2563              		.cfi_def_cfa_offset 8
 2564              		.cfi_offset 7, -8
 2565              		.cfi_offset 14, -4
 2566 0002 82B0     		sub	sp, sp, #8
 2567              		.cfi_def_cfa_offset 16
 2568 0004 00AF     		add	r7, sp, #0
 2569              		.cfi_def_cfa_register 7
 2570 0006 7860     		str	r0, [r7, #4]
 2571              		.loc 9 80 0
 2572 0008 7B68     		ldr	r3, [r7, #4]
 2573 000a 1B68     		ldr	r3, [r3]
 2574 000c 1B68     		ldr	r3, [r3]
 2575 000e 0433     		add	r3, r3, #4
 2576 0010 1A68     		ldr	r2, [r3]
 2577 0012 7B68     		ldr	r3, [r7, #4]
 2578 0014 1B68     		ldr	r3, [r3]
 2579 0016 181C     		mov	r0, r3
 2580 0018 9047     		blx	r2
 2581 001a 031C     		mov	r3, r0
 2582 001c 181C     		mov	r0, r3
 2583 001e BD46     		mov	sp, r7
 2584 0020 02B0     		add	sp, sp, #8
 2585              		@ sp needed
 2586 0022 80BD     		pop	{r7, pc}
 2587              		.cfi_endproc
 2588              	.LFE122:
 2589              		.size	_ZN13Psoc4Hardware4readEv, .-_ZN13Psoc4Hardware4readEv
 2590              		.section	.text._ZN13Psoc4Hardware5writeEPhi,"axG",%progbits,_ZN13Psoc4Hardware5writeEPhi,comdat
 2591              		.align	2
 2592              		.weak	_ZN13Psoc4Hardware5writeEPhi
 2593              		.code	16
 2594              		.thumb_func
 2595              		.type	_ZN13Psoc4Hardware5writeEPhi, %function
 2596              	_ZN13Psoc4Hardware5writeEPhi:
ARM GAS  C:\Users\Chuck\AppData\Local\Temp\cc5X170Y.s 			page 60


 2597              	.LFB123:
  81:./ros_lib/Psoc4Hardware.h **** 
  82:./ros_lib/Psoc4Hardware.h ****     void write(uint8_t* data, int length){
 2598              		.loc 9 82 0
 2599              		.cfi_startproc
 2600 0000 80B5     		push	{r7, lr}
 2601              		.cfi_def_cfa_offset 8
 2602              		.cfi_offset 7, -8
 2603              		.cfi_offset 14, -4
 2604 0002 86B0     		sub	sp, sp, #24
 2605              		.cfi_def_cfa_offset 32
 2606 0004 00AF     		add	r7, sp, #0
 2607              		.cfi_def_cfa_register 7
 2608 0006 F860     		str	r0, [r7, #12]
 2609 0008 B960     		str	r1, [r7, #8]
 2610 000a 7A60     		str	r2, [r7, #4]
 2611              	.LBB34:
 2612              	.LBB35:
  83:./ros_lib/Psoc4Hardware.h ****       for(int i=0; i<length; i++)
 2613              		.loc 9 83 0
 2614 000c 0023     		mov	r3, #0
 2615 000e 7B61     		str	r3, [r7, #20]
 2616 0010 0FE0     		b	.L120
 2617              	.L121:
  84:./ros_lib/Psoc4Hardware.h ****         iostream->write(data[i]);
 2618              		.loc 9 84 0 discriminator 3
 2619 0012 FB68     		ldr	r3, [r7, #12]
 2620 0014 1B68     		ldr	r3, [r3]
 2621 0016 1B68     		ldr	r3, [r3]
 2622 0018 0833     		add	r3, r3, #8
 2623 001a 1A68     		ldr	r2, [r3]
 2624 001c FB68     		ldr	r3, [r7, #12]
 2625 001e 1868     		ldr	r0, [r3]
 2626 0020 7B69     		ldr	r3, [r7, #20]
 2627 0022 B968     		ldr	r1, [r7, #8]
 2628 0024 CB18     		add	r3, r1, r3
 2629 0026 1B78     		ldrb	r3, [r3]
 2630 0028 191C     		mov	r1, r3
 2631 002a 9047     		blx	r2
  83:./ros_lib/Psoc4Hardware.h ****       for(int i=0; i<length; i++)
 2632              		.loc 9 83 0 discriminator 3
 2633 002c 7B69     		ldr	r3, [r7, #20]
 2634 002e 0133     		add	r3, r3, #1
 2635 0030 7B61     		str	r3, [r7, #20]
 2636              	.L120:
  83:./ros_lib/Psoc4Hardware.h ****       for(int i=0; i<length; i++)
 2637              		.loc 9 83 0 is_stmt 0 discriminator 1
 2638 0032 7A69     		ldr	r2, [r7, #20]
 2639 0034 7B68     		ldr	r3, [r7, #4]
 2640 0036 9A42     		cmp	r2, r3
 2641 0038 EBDB     		blt	.L121
 2642              	.LBE35:
 2643              	.LBE34:
  85:./ros_lib/Psoc4Hardware.h ****     }
 2644              		.loc 9 85 0 is_stmt 1
 2645 003a BD46     		mov	sp, r7
 2646 003c 06B0     		add	sp, sp, #24
ARM GAS  C:\Users\Chuck\AppData\Local\Temp\cc5X170Y.s 			page 61


 2647              		@ sp needed
 2648 003e 80BD     		pop	{r7, pc}
 2649              		.cfi_endproc
 2650              	.LFE123:
 2651              		.size	_ZN13Psoc4Hardware5writeEPhi, .-_ZN13Psoc4Hardware5writeEPhi
 2652              		.section	.text._ZN13Psoc4Hardware4timeEv,"axG",%progbits,_ZN13Psoc4Hardware4timeEv,comdat
 2653              		.align	2
 2654              		.weak	_ZN13Psoc4Hardware4timeEv
 2655              		.code	16
 2656              		.thumb_func
 2657              		.type	_ZN13Psoc4Hardware4timeEv, %function
 2658              	_ZN13Psoc4Hardware4timeEv:
 2659              	.LFB124:
  86:./ros_lib/Psoc4Hardware.h **** 
  87:./ros_lib/Psoc4Hardware.h **** 
  88:./ros_lib/Psoc4Hardware.h ****     unsigned long time() {return SysTimer::millis();}
 2660              		.loc 9 88 0
 2661              		.cfi_startproc
 2662 0000 80B5     		push	{r7, lr}
 2663              		.cfi_def_cfa_offset 8
 2664              		.cfi_offset 7, -8
 2665              		.cfi_offset 14, -4
 2666 0002 82B0     		sub	sp, sp, #8
 2667              		.cfi_def_cfa_offset 16
 2668 0004 00AF     		add	r7, sp, #0
 2669              		.cfi_def_cfa_register 7
 2670 0006 7860     		str	r0, [r7, #4]
 2671              		.loc 9 88 0
 2672 0008 FFF7FEFF 		bl	_ZN8SysTimer6millisEv
 2673 000c 031C     		mov	r3, r0
 2674 000e 181C     		mov	r0, r3
 2675 0010 BD46     		mov	sp, r7
 2676 0012 02B0     		add	sp, sp, #8
 2677              		@ sp needed
 2678 0014 80BD     		pop	{r7, pc}
 2679              		.cfi_endproc
 2680              	.LFE124:
 2681              		.size	_ZN13Psoc4Hardware4timeEv, .-_ZN13Psoc4Hardware4timeEv
 2682              		.global	nh
 2683 0016 C046     		.bss
 2684              		.align	2
 2685              		.type	nh, %object
 2686              		.size	nh, 624
 2687              	nh:
 2688 0000 00000000 		.space	624
 2688      00000000 
 2688      00000000 
 2688      00000000 
 2688      00000000 
 2689              		.section	.text.main,"ax",%progbits
 2690              		.align	2
 2691              		.global	main
 2692              		.code	16
 2693              		.thumb_func
 2694              		.type	main, %function
 2695              	main:
 2696              	.LFB158:
ARM GAS  C:\Users\Chuck\AppData\Local\Temp\cc5X170Y.s 			page 62


 2697              		.file 10 ".\\main.cpp"
   1:.\main.cpp    **** /* ========================================
   2:.\main.cpp    ****  *
   3:.\main.cpp    ****  * PSoC4 "RosOnAStick" demo code
   4:.\main.cpp    ****  *
   5:.\main.cpp    ****  * Copyright C. Harrison
   6:.\main.cpp    ****  * BSD 2-clause license http://opensource.org/licenses/BSD-2-Clause
   7:.\main.cpp    ****  *
   8:.\main.cpp    ****  * ========================================
   9:.\main.cpp    **** */
  10:.\main.cpp    **** 
  11:.\main.cpp    **** #include <ros.h>
  12:.\main.cpp    **** #include "examples/examples.h"
  13:.\main.cpp    **** 
  14:.\main.cpp    **** extern void init(void);
  15:.\main.cpp    **** 
  16:.\main.cpp    **** ros::NodeHandle  nh;
  17:.\main.cpp    **** 
  18:.\main.cpp    **** int main()
  19:.\main.cpp    **** {
 2698              		.loc 10 19 0
 2699              		.cfi_startproc
 2700 0000 80B5     		push	{r7, lr}
 2701              		.cfi_def_cfa_offset 8
 2702              		.cfi_offset 7, -8
 2703              		.cfi_offset 14, -4
 2704 0002 00AF     		add	r7, sp, #0
 2705              		.cfi_def_cfa_register 7
  20:.\main.cpp    ****     init(); // start millisec clock
 2706              		.loc 10 20 0
 2707 0004 FFF7FEFF 		bl	_Z4initv
  21:.\main.cpp    **** 
  22:.\main.cpp    ****     nh.initNode();
 2708              		.loc 10 22 0
 2709 0008 144B     		ldr	r3, .L126
 2710 000a 181C     		mov	r0, r3
 2711 000c FFF7FEFF 		bl	_ZN3ros11NodeHandle_I13Psoc4HardwareLi10ELi20ELi200ELi200EE8initNodeEv
  23:.\main.cpp    ****     Blink::setup();
 2712              		.loc 10 23 0
 2713 0010 FFF7FEFF 		bl	_ZN5Blink5setupEv
  24:.\main.cpp    ****     HelloWorld::setup();
 2714              		.loc 10 24 0
 2715 0014 FFF7FEFF 		bl	_ZN10HelloWorld5setupEv
  25:.\main.cpp    ****     //ADC::setup();
  26:.\main.cpp    ****     Button::setup();
 2716              		.loc 10 26 0
 2717 0018 FFF7FEFF 		bl	_ZN6Button5setupEv
  27:.\main.cpp    ****     ServoControl::setup();
 2718              		.loc 10 27 0
 2719 001c FFF7FEFF 		bl	_ZN12ServoControl5setupEv
  28:.\main.cpp    ****     StepperControl::setup();
 2720              		.loc 10 28 0
 2721 0020 FFF7FEFF 		bl	_ZN14StepperControl5setupEv
  29:.\main.cpp    ****     Encoder::setup();
 2722              		.loc 10 29 0
 2723 0024 FFF7FEFF 		bl	_ZN7Encoder5setupEv
  30:.\main.cpp    ****     //Capsense::setup();
ARM GAS  C:\Users\Chuck\AppData\Local\Temp\cc5X170Y.s 			page 63


  31:.\main.cpp    ****     UpDownCount::setup();
 2724              		.loc 10 31 0
 2725 0028 FFF7FEFF 		bl	_ZN11UpDownCount5setupEv
  32:.\main.cpp    **** 	I2C_device::setup();
 2726              		.loc 10 32 0
 2727 002c FFF7FEFF 		bl	_ZN10I2C_device5setupEv
 2728              	.L125:
  33:.\main.cpp    **** 
  34:.\main.cpp    ****     for(;;)
  35:.\main.cpp    ****     {
  36:.\main.cpp    ****         Blink::loop();
 2729              		.loc 10 36 0 discriminator 1
 2730 0030 FFF7FEFF 		bl	_ZN5Blink4loopEv
  37:.\main.cpp    ****         HelloWorld::loop();
 2731              		.loc 10 37 0 discriminator 1
 2732 0034 FFF7FEFF 		bl	_ZN10HelloWorld4loopEv
  38:.\main.cpp    ****         //ADC::loop();
  39:.\main.cpp    ****         Button::loop();
 2733              		.loc 10 39 0 discriminator 1
 2734 0038 FFF7FEFF 		bl	_ZN6Button4loopEv
  40:.\main.cpp    ****         ServoControl::loop();
 2735              		.loc 10 40 0 discriminator 1
 2736 003c FFF7FEFF 		bl	_ZN12ServoControl4loopEv
  41:.\main.cpp    ****         StepperControl::loop();
 2737              		.loc 10 41 0 discriminator 1
 2738 0040 FFF7FEFF 		bl	_ZN14StepperControl4loopEv
  42:.\main.cpp    ****         Encoder::loop();
 2739              		.loc 10 42 0 discriminator 1
 2740 0044 FFF7FEFF 		bl	_ZN7Encoder4loopEv
  43:.\main.cpp    ****         //Capsense::loop();
  44:.\main.cpp    ****         UpDownCount::loop();
 2741              		.loc 10 44 0 discriminator 1
 2742 0048 FFF7FEFF 		bl	_ZN11UpDownCount4loopEv
  45:.\main.cpp    **** 		I2C_device::loop();
 2743              		.loc 10 45 0 discriminator 1
 2744 004c FFF7FEFF 		bl	_ZN10I2C_device4loopEv
  46:.\main.cpp    ****         
  47:.\main.cpp    ****         nh.spinOnce();
 2745              		.loc 10 47 0 discriminator 1
 2746 0050 024B     		ldr	r3, .L126
 2747 0052 181C     		mov	r0, r3
 2748 0054 FFF7FEFF 		bl	_ZN3ros11NodeHandle_I13Psoc4HardwareLi10ELi20ELi200ELi200EE8spinOnceEv
  18:.\main.cpp    **** {
 2749              		.loc 10 18 0 discriminator 1
 2750 0058 EAE7     		b	.L125
 2751              	.L127:
 2752 005a C046     		.align	2
 2753              	.L126:
 2754 005c 00000000 		.word	nh
 2755              		.cfi_endproc
 2756              	.LFE158:
 2757              		.size	main, .-main
 2758              		.section	.text._ZN3ros15NodeHandleBase_C2Ev,"axG",%progbits,_ZN3ros15NodeHandleBase_C5Ev,comdat
 2759              		.align	2
 2760              		.weak	_ZN3ros15NodeHandleBase_C2Ev
 2761              		.code	16
 2762              		.thumb_func
ARM GAS  C:\Users\Chuck\AppData\Local\Temp\cc5X170Y.s 			page 64


 2763              		.type	_ZN3ros15NodeHandleBase_C2Ev, %function
 2764              	_ZN3ros15NodeHandleBase_C2Ev:
 2765              	.LFB161:
 2766              		.file 11 "./ros_lib/ros/node_handle.h"
   1:./ros_lib/ros/node_handle.h **** /*
   2:./ros_lib/ros/node_handle.h ****  * Software License Agreement (BSD License)
   3:./ros_lib/ros/node_handle.h ****  *
   4:./ros_lib/ros/node_handle.h ****  * Copyright (c) 2011, Willow Garage, Inc.
   5:./ros_lib/ros/node_handle.h ****  * All rights reserved.
   6:./ros_lib/ros/node_handle.h ****  *
   7:./ros_lib/ros/node_handle.h ****  * Redistribution and use in source and binary forms, with or without
   8:./ros_lib/ros/node_handle.h ****  * modification, are permitted provided that the following conditions
   9:./ros_lib/ros/node_handle.h ****  * are met:
  10:./ros_lib/ros/node_handle.h ****  *
  11:./ros_lib/ros/node_handle.h ****  *  * Redistributions of source code must retain the above copyright
  12:./ros_lib/ros/node_handle.h ****  *    notice, this list of conditions and the following disclaimer.
  13:./ros_lib/ros/node_handle.h ****  *  * Redistributions in binary form must reproduce the above
  14:./ros_lib/ros/node_handle.h ****  *    copyright notice, this list of conditions and the following
  15:./ros_lib/ros/node_handle.h ****  *    disclaimer in the documentation and/or other materials provided
  16:./ros_lib/ros/node_handle.h ****  *    with the distribution.
  17:./ros_lib/ros/node_handle.h ****  *  * Neither the name of Willow Garage, Inc. nor the names of its
  18:./ros_lib/ros/node_handle.h ****  *    contributors may be used to endorse or promote prducts derived
  19:./ros_lib/ros/node_handle.h ****  *    from this software without specific prior written permission.
  20:./ros_lib/ros/node_handle.h ****  *
  21:./ros_lib/ros/node_handle.h ****  * THIS SOFTWARE IS PROVIDED BY THE COPYRIGHT HOLDERS AND CONTRIBUTORS
  22:./ros_lib/ros/node_handle.h ****  * "AS IS" AND ANY EXPRESS OR IMPLIED WARRANTIES, INCLUDING, BUT NOT
  23:./ros_lib/ros/node_handle.h ****  * LIMITED TO, THE IMPLIED WARRANTIES OF MERCHANTABILITY AND FITNESS
  24:./ros_lib/ros/node_handle.h ****  * FOR A PARTICULAR PURPOSE ARE DISCLAIMED. IN NO EVENT SHALL THE
  25:./ros_lib/ros/node_handle.h ****  * COPYRIGHT OWNER OR CONTRIBUTORS BE LIABLE FOR ANY DIRECT, INDIRECT,
  26:./ros_lib/ros/node_handle.h ****  * INCIDENTAL, SPECIAL, EXEMPLARY, OR CONSEQUENTIAL DAMAGES (INCLUDING,
  27:./ros_lib/ros/node_handle.h ****  * BUT NOT LIMITED TO, PROCUREMENT OF SUBSTITUTE GOODS OR SERVICES;
  28:./ros_lib/ros/node_handle.h ****  * LOSS OF USE, DATA, OR PROFITS; OR BUSINESS INTERRUPTION) HOWEVER
  29:./ros_lib/ros/node_handle.h ****  * CAUSED AND ON ANY THEORY OF LIABILITY, WHETHER IN CONTRACT, STRICT
  30:./ros_lib/ros/node_handle.h ****  * LIABILITY, OR TORT (INCLUDING NEGLIGENCE OR OTHERWISE) ARISING IN
  31:./ros_lib/ros/node_handle.h ****  * ANY WAY OUT OF THE USE OF THIS SOFTWARE, EVEN IF ADVISED OF THE
  32:./ros_lib/ros/node_handle.h ****  * POSSIBILITY OF SUCH DAMAGE.
  33:./ros_lib/ros/node_handle.h ****  */
  34:./ros_lib/ros/node_handle.h **** 
  35:./ros_lib/ros/node_handle.h **** #ifndef ROS_NODE_HANDLE_H_
  36:./ros_lib/ros/node_handle.h **** #define ROS_NODE_HANDLE_H_
  37:./ros_lib/ros/node_handle.h **** 
  38:./ros_lib/ros/node_handle.h **** #ifndef PARAM_REQ_SUPPORT
  39:./ros_lib/ros/node_handle.h **** #define PARAM_REQ_SUPPORT 1
  40:./ros_lib/ros/node_handle.h **** #endif
  41:./ros_lib/ros/node_handle.h **** 
  42:./ros_lib/ros/node_handle.h **** #include "std_msgs/Time.h"
  43:./ros_lib/ros/node_handle.h **** #include "rosserial_msgs/TopicInfo.h"
  44:./ros_lib/ros/node_handle.h **** #include "rosserial_msgs/Log.h"
  45:./ros_lib/ros/node_handle.h **** #if PARAM_REQ_SUPPORT
  46:./ros_lib/ros/node_handle.h **** #include "rosserial_msgs/RequestParam.h"
  47:./ros_lib/ros/node_handle.h **** #endif
  48:./ros_lib/ros/node_handle.h **** 
  49:./ros_lib/ros/node_handle.h **** #define SYNC_SECONDS        2
  50:./ros_lib/ros/node_handle.h **** 
  51:./ros_lib/ros/node_handle.h **** #define MODE_FIRST_FF       0
  52:./ros_lib/ros/node_handle.h **** /*
  53:./ros_lib/ros/node_handle.h ****  * The second sync byte is a protocol version. It's value is 0xff for the first
ARM GAS  C:\Users\Chuck\AppData\Local\Temp\cc5X170Y.s 			page 65


  54:./ros_lib/ros/node_handle.h ****  * version of the rosserial protocol (used up to hydro), 0xfe for the second version
  55:./ros_lib/ros/node_handle.h ****  * (introduced in hydro), 0xfd for the next, and so on. Its purpose is to enable
  56:./ros_lib/ros/node_handle.h ****  * detection of mismatched protocol versions (e.g. hydro rosserial_python with groovy
  57:./ros_lib/ros/node_handle.h ****  * rosserial_arduino. It must be changed in both this file and in
  58:./ros_lib/ros/node_handle.h ****  * rosserial_python/src/rosserial_python/SerialClient.py
  59:./ros_lib/ros/node_handle.h ****  */
  60:./ros_lib/ros/node_handle.h **** #define MODE_PROTOCOL_VER   1
  61:./ros_lib/ros/node_handle.h **** #define PROTOCOL_VER1		0xff // through groovy
  62:./ros_lib/ros/node_handle.h **** #define PROTOCOL_VER2		0xfe // in hydro
  63:./ros_lib/ros/node_handle.h **** #define PROTOCOL_VER 		PROTOCOL_VER2
  64:./ros_lib/ros/node_handle.h **** #define MODE_SIZE_L         2   
  65:./ros_lib/ros/node_handle.h **** #define MODE_SIZE_H         3
  66:./ros_lib/ros/node_handle.h **** #define MODE_SIZE_CHECKSUM  4   // checksum for msg size received from size L and H
  67:./ros_lib/ros/node_handle.h **** #define MODE_TOPIC_L        5   // waiting for topic id
  68:./ros_lib/ros/node_handle.h **** #define MODE_TOPIC_H        6
  69:./ros_lib/ros/node_handle.h **** #define MODE_MESSAGE        7
  70:./ros_lib/ros/node_handle.h **** #define MODE_MSG_CHECKSUM   8   // checksum for msg and topic id 
  71:./ros_lib/ros/node_handle.h **** 
  72:./ros_lib/ros/node_handle.h **** 
  73:./ros_lib/ros/node_handle.h **** #define MSG_TIMEOUT 200  // was 20 milliseconds to recieve all of message data
  74:./ros_lib/ros/node_handle.h **** 
  75:./ros_lib/ros/node_handle.h **** #include "msg.h"
  76:./ros_lib/ros/node_handle.h **** 
  77:./ros_lib/ros/node_handle.h **** namespace ros {
  78:./ros_lib/ros/node_handle.h **** 
  79:./ros_lib/ros/node_handle.h ****   class NodeHandleBase_{
 2767              		.loc 11 79 0
 2768              		.cfi_startproc
 2769 0000 80B5     		push	{r7, lr}
 2770              		.cfi_def_cfa_offset 8
 2771              		.cfi_offset 7, -8
 2772              		.cfi_offset 14, -4
 2773 0002 82B0     		sub	sp, sp, #8
 2774              		.cfi_def_cfa_offset 16
 2775 0004 00AF     		add	r7, sp, #0
 2776              		.cfi_def_cfa_register 7
 2777 0006 7860     		str	r0, [r7, #4]
 2778              	.LBB36:
 2779              		.loc 11 79 0
 2780 0008 7B68     		ldr	r3, [r7, #4]
 2781 000a 034A     		ldr	r2, .L131
 2782 000c 1A60     		str	r2, [r3]
 2783              	.LBE36:
 2784 000e 7B68     		ldr	r3, [r7, #4]
 2785 0010 181C     		mov	r0, r3
 2786 0012 BD46     		mov	sp, r7
 2787 0014 02B0     		add	sp, sp, #8
 2788              		@ sp needed
 2789 0016 80BD     		pop	{r7, pc}
 2790              	.L132:
 2791              		.align	2
 2792              	.L131:
 2793 0018 08000000 		.word	_ZTVN3ros15NodeHandleBase_E+8
 2794              		.cfi_endproc
 2795              	.LFE161:
 2796              		.size	_ZN3ros15NodeHandleBase_C2Ev, .-_ZN3ros15NodeHandleBase_C2Ev
 2797              		.weak	_ZN3ros15NodeHandleBase_C1Ev
ARM GAS  C:\Users\Chuck\AppData\Local\Temp\cc5X170Y.s 			page 66


 2798              		.thumb_set _ZN3ros15NodeHandleBase_C1Ev,_ZN3ros15NodeHandleBase_C2Ev
 2799              		.section	.text._ZN3ros11NodeHandle_I13Psoc4HardwareLi10ELi20ELi200ELi200EEC2Ev,"axG",%progbits,_ZN
 2800              		.align	2
 2801              		.weak	_ZN3ros11NodeHandle_I13Psoc4HardwareLi10ELi20ELi200ELi200EEC2Ev
 2802              		.code	16
 2803              		.thumb_func
 2804              		.type	_ZN3ros11NodeHandle_I13Psoc4HardwareLi10ELi20ELi200ELi200EEC2Ev, %function
 2805              	_ZN3ros11NodeHandle_I13Psoc4HardwareLi10ELi20ELi200ELi200EEC2Ev:
 2806              	.LFB163:
  80:./ros_lib/ros/node_handle.h ****     public:
  81:./ros_lib/ros/node_handle.h ****       virtual int publish(int id, const Msg* msg)=0;
  82:./ros_lib/ros/node_handle.h ****       virtual int spinOnce()=0;
  83:./ros_lib/ros/node_handle.h ****       virtual bool connected()=0;
  84:./ros_lib/ros/node_handle.h ****     };
  85:./ros_lib/ros/node_handle.h **** }
  86:./ros_lib/ros/node_handle.h **** 
  87:./ros_lib/ros/node_handle.h **** #include "publisher.h"
  88:./ros_lib/ros/node_handle.h **** #include "subscriber.h"
  89:./ros_lib/ros/node_handle.h **** #include "service_server.h"
  90:./ros_lib/ros/node_handle.h **** #include "service_client.h"
  91:./ros_lib/ros/node_handle.h **** 
  92:./ros_lib/ros/node_handle.h **** namespace ros {
  93:./ros_lib/ros/node_handle.h **** 
  94:./ros_lib/ros/node_handle.h ****   using rosserial_msgs::TopicInfo;
  95:./ros_lib/ros/node_handle.h **** 
  96:./ros_lib/ros/node_handle.h ****   /* Node Handle */
  97:./ros_lib/ros/node_handle.h ****   template<class Hardware,
  98:./ros_lib/ros/node_handle.h ****            int MAX_SUBSCRIBERS=25,
  99:./ros_lib/ros/node_handle.h ****            int MAX_PUBLISHERS=25,
 100:./ros_lib/ros/node_handle.h ****            int INPUT_SIZE=512,
 101:./ros_lib/ros/node_handle.h ****            int OUTPUT_SIZE=512>
 102:./ros_lib/ros/node_handle.h ****   class NodeHandle_ : public NodeHandleBase_
 103:./ros_lib/ros/node_handle.h ****   {
 104:./ros_lib/ros/node_handle.h ****     protected:
 105:./ros_lib/ros/node_handle.h ****       Hardware hardware_;
 106:./ros_lib/ros/node_handle.h **** 
 107:./ros_lib/ros/node_handle.h ****       /* time used for syncing */
 108:./ros_lib/ros/node_handle.h ****       unsigned long rt_time;
 109:./ros_lib/ros/node_handle.h **** 
 110:./ros_lib/ros/node_handle.h ****       /* used for computing current time */
 111:./ros_lib/ros/node_handle.h ****       unsigned long sec_offset, nsec_offset;
 112:./ros_lib/ros/node_handle.h **** 
 113:./ros_lib/ros/node_handle.h ****       unsigned char message_in[INPUT_SIZE];
 114:./ros_lib/ros/node_handle.h ****       unsigned char message_out[OUTPUT_SIZE];
 115:./ros_lib/ros/node_handle.h **** 
 116:./ros_lib/ros/node_handle.h ****       Publisher * publishers[MAX_PUBLISHERS];
 117:./ros_lib/ros/node_handle.h ****       Subscriber_ * subscribers[MAX_SUBSCRIBERS];
 118:./ros_lib/ros/node_handle.h **** 
 119:./ros_lib/ros/node_handle.h ****       /*
 120:./ros_lib/ros/node_handle.h ****        * Setup Functions
 121:./ros_lib/ros/node_handle.h ****        */
 122:./ros_lib/ros/node_handle.h ****     public:
 123:./ros_lib/ros/node_handle.h ****       NodeHandle_() : configured_(false) {
 2807              		.loc 11 123 0
 2808              		.cfi_startproc
 2809 0000 80B5     		push	{r7, lr}
 2810              		.cfi_def_cfa_offset 8
ARM GAS  C:\Users\Chuck\AppData\Local\Temp\cc5X170Y.s 			page 67


 2811              		.cfi_offset 7, -8
 2812              		.cfi_offset 14, -4
 2813 0002 86B0     		sub	sp, sp, #24
 2814              		.cfi_def_cfa_offset 32
 2815 0004 00AF     		add	r7, sp, #0
 2816              		.cfi_def_cfa_register 7
 2817 0006 7860     		str	r0, [r7, #4]
 2818              	.LBB37:
 2819              		.loc 11 123 0
 2820 0008 7B68     		ldr	r3, [r7, #4]
 2821 000a 181C     		mov	r0, r3
 2822 000c FFF7FEFF 		bl	_ZN3ros15NodeHandleBase_C2Ev
 2823 0010 7B68     		ldr	r3, [r7, #4]
 2824 0012 3A4A     		ldr	r2, .L144
 2825 0014 1A60     		str	r2, [r3]
 2826 0016 7B68     		ldr	r3, [r7, #4]
 2827 0018 0433     		add	r3, r3, #4
 2828 001a 181C     		mov	r0, r3
 2829 001c FFF7FEFF 		bl	_ZN13Psoc4HardwareC1Ev
 2830 0020 7A68     		ldr	r2, [r7, #4]
 2831 0022 8D23     		mov	r3, #141
 2832 0024 9B00     		lsl	r3, r3, #2
 2833 0026 0021     		mov	r1, #0
 2834 0028 D154     		strb	r1, [r2, r3]
 2835 002a 7B68     		ldr	r3, [r7, #4]
 2836 002c 9222     		mov	r2, #146
 2837 002e 9200     		lsl	r2, r2, #2
 2838 0030 9446     		mov	ip, r2
 2839 0032 6344     		add	r3, r3, ip
 2840 0034 181C     		mov	r0, r3
 2841 0036 FFF7FEFF 		bl	_ZN14rosserial_msgs20RequestParamResponseC1Ev
 2842              	.LBB38:
 2843              	.LBB39:
 124:./ros_lib/ros/node_handle.h **** #if true
 125:./ros_lib/ros/node_handle.h ****         for(unsigned int i=0; i< MAX_PUBLISHERS; i++) 
 2844              		.loc 11 125 0
 2845 003a 0023     		mov	r3, #0
 2846 003c 7B61     		str	r3, [r7, #20]
 2847 003e 08E0     		b	.L134
 2848              	.L135:
 126:./ros_lib/ros/node_handle.h **** 	   publishers[i] = 0;
 2849              		.loc 11 126 0 discriminator 3
 2850 0040 7B68     		ldr	r3, [r7, #4]
 2851 0042 7A69     		ldr	r2, [r7, #20]
 2852 0044 6A32     		add	r2, r2, #106
 2853 0046 9200     		lsl	r2, r2, #2
 2854 0048 0021     		mov	r1, #0
 2855 004a D150     		str	r1, [r2, r3]
 125:./ros_lib/ros/node_handle.h **** 	   publishers[i] = 0;
 2856              		.loc 11 125 0 discriminator 3
 2857 004c 7B69     		ldr	r3, [r7, #20]
 2858 004e 0133     		add	r3, r3, #1
 2859 0050 7B61     		str	r3, [r7, #20]
 2860              	.L134:
 125:./ros_lib/ros/node_handle.h **** 	   publishers[i] = 0;
 2861              		.loc 11 125 0 is_stmt 0 discriminator 1
 2862 0052 7B69     		ldr	r3, [r7, #20]
ARM GAS  C:\Users\Chuck\AppData\Local\Temp\cc5X170Y.s 			page 68


 2863 0054 132B     		cmp	r3, #19
 2864 0056 F3D9     		bls	.L135
 2865              	.LBE39:
 2866              	.LBB40:
 127:./ros_lib/ros/node_handle.h **** 
 128:./ros_lib/ros/node_handle.h ****         for(unsigned int i=0; i< MAX_SUBSCRIBERS; i++) 
 2867              		.loc 11 128 0 is_stmt 1
 2868 0058 0023     		mov	r3, #0
 2869 005a 3B61     		str	r3, [r7, #16]
 2870 005c 08E0     		b	.L136
 2871              	.L137:
 129:./ros_lib/ros/node_handle.h **** 	   subscribers[i] = 0;
 2872              		.loc 11 129 0 discriminator 3
 2873 005e 7B68     		ldr	r3, [r7, #4]
 2874 0060 3A69     		ldr	r2, [r7, #16]
 2875 0062 7E32     		add	r2, r2, #126
 2876 0064 9200     		lsl	r2, r2, #2
 2877 0066 0021     		mov	r1, #0
 2878 0068 D150     		str	r1, [r2, r3]
 128:./ros_lib/ros/node_handle.h **** 	   subscribers[i] = 0;
 2879              		.loc 11 128 0 discriminator 3
 2880 006a 3B69     		ldr	r3, [r7, #16]
 2881 006c 0133     		add	r3, r3, #1
 2882 006e 3B61     		str	r3, [r7, #16]
 2883              	.L136:
 128:./ros_lib/ros/node_handle.h **** 	   subscribers[i] = 0;
 2884              		.loc 11 128 0 is_stmt 0 discriminator 1
 2885 0070 3B69     		ldr	r3, [r7, #16]
 2886 0072 092B     		cmp	r3, #9
 2887 0074 F3D9     		bls	.L137
 2888              	.LBE40:
 2889              	.LBB41:
 130:./ros_lib/ros/node_handle.h **** 
 131:./ros_lib/ros/node_handle.h ****         for(unsigned int i=0; i< INPUT_SIZE; i++) 
 2890              		.loc 11 131 0 is_stmt 1
 2891 0076 0023     		mov	r3, #0
 2892 0078 FB60     		str	r3, [r7, #12]
 2893 007a 08E0     		b	.L138
 2894              	.L139:
 132:./ros_lib/ros/node_handle.h **** 	   message_in[i] = 0;
 2895              		.loc 11 132 0 discriminator 3
 2896 007c 7A68     		ldr	r2, [r7, #4]
 2897 007e FB68     		ldr	r3, [r7, #12]
 2898 0080 D318     		add	r3, r2, r3
 2899 0082 1833     		add	r3, r3, #24
 2900 0084 0022     		mov	r2, #0
 2901 0086 1A70     		strb	r2, [r3]
 131:./ros_lib/ros/node_handle.h **** 	   message_in[i] = 0;
 2902              		.loc 11 131 0 discriminator 3
 2903 0088 FB68     		ldr	r3, [r7, #12]
 2904 008a 0133     		add	r3, r3, #1
 2905 008c FB60     		str	r3, [r7, #12]
 2906              	.L138:
 131:./ros_lib/ros/node_handle.h **** 	   message_in[i] = 0;
 2907              		.loc 11 131 0 is_stmt 0 discriminator 1
 2908 008e FB68     		ldr	r3, [r7, #12]
 2909 0090 C72B     		cmp	r3, #199
ARM GAS  C:\Users\Chuck\AppData\Local\Temp\cc5X170Y.s 			page 69


 2910 0092 F3D9     		bls	.L139
 2911              	.LBE41:
 2912              	.LBB42:
 133:./ros_lib/ros/node_handle.h **** 
 134:./ros_lib/ros/node_handle.h ****         for(unsigned int i=0; i< OUTPUT_SIZE; i++) 
 2913              		.loc 11 134 0 is_stmt 1
 2914 0094 0023     		mov	r3, #0
 2915 0096 BB60     		str	r3, [r7, #8]
 2916 0098 09E0     		b	.L140
 2917              	.L141:
 135:./ros_lib/ros/node_handle.h **** 	   message_out[i] = 0;
 2918              		.loc 11 135 0 discriminator 3
 2919 009a 7A68     		ldr	r2, [r7, #4]
 2920 009c E021     		mov	r1, #224
 2921 009e BB68     		ldr	r3, [r7, #8]
 2922 00a0 D318     		add	r3, r2, r3
 2923 00a2 5B18     		add	r3, r3, r1
 2924 00a4 0022     		mov	r2, #0
 2925 00a6 1A70     		strb	r2, [r3]
 134:./ros_lib/ros/node_handle.h **** 	   message_out[i] = 0;
 2926              		.loc 11 134 0 discriminator 3
 2927 00a8 BB68     		ldr	r3, [r7, #8]
 2928 00aa 0133     		add	r3, r3, #1
 2929 00ac BB60     		str	r3, [r7, #8]
 2930              	.L140:
 134:./ros_lib/ros/node_handle.h **** 	   message_out[i] = 0;
 2931              		.loc 11 134 0 is_stmt 0 discriminator 1
 2932 00ae BB68     		ldr	r3, [r7, #8]
 2933 00b0 C72B     		cmp	r3, #199
 2934 00b2 F2D9     		bls	.L141
 2935              	.LBE42:
 136:./ros_lib/ros/node_handle.h **** 
 137:./ros_lib/ros/node_handle.h ****         req_param_resp.ints_length = 0;
 2936              		.loc 11 137 0 is_stmt 1
 2937 00b4 7A68     		ldr	r2, [r7, #4]
 2938 00b6 9323     		mov	r3, #147
 2939 00b8 9B00     		lsl	r3, r3, #2
 2940 00ba 0021     		mov	r1, #0
 2941 00bc D154     		strb	r1, [r2, r3]
 138:./ros_lib/ros/node_handle.h ****         req_param_resp.ints = NULL;
 2942              		.loc 11 138 0
 2943 00be 7A68     		ldr	r2, [r7, #4]
 2944 00c0 9523     		mov	r3, #149
 2945 00c2 9B00     		lsl	r3, r3, #2
 2946 00c4 0021     		mov	r1, #0
 2947 00c6 D150     		str	r1, [r2, r3]
 139:./ros_lib/ros/node_handle.h ****         req_param_resp.floats_length = 0;
 2948              		.loc 11 139 0
 2949 00c8 7A68     		ldr	r2, [r7, #4]
 2950 00ca 9623     		mov	r3, #150
 2951 00cc 9B00     		lsl	r3, r3, #2
 2952 00ce 0021     		mov	r1, #0
 2953 00d0 D154     		strb	r1, [r2, r3]
 140:./ros_lib/ros/node_handle.h ****         req_param_resp.floats = NULL;
 2954              		.loc 11 140 0
 2955 00d2 7A68     		ldr	r2, [r7, #4]
 2956 00d4 9823     		mov	r3, #152
ARM GAS  C:\Users\Chuck\AppData\Local\Temp\cc5X170Y.s 			page 70


 2957 00d6 9B00     		lsl	r3, r3, #2
 2958 00d8 0021     		mov	r1, #0
 2959 00da D150     		str	r1, [r2, r3]
 141:./ros_lib/ros/node_handle.h ****         req_param_resp.ints_length = 0;
 2960              		.loc 11 141 0
 2961 00dc 7A68     		ldr	r2, [r7, #4]
 2962 00de 9323     		mov	r3, #147
 2963 00e0 9B00     		lsl	r3, r3, #2
 2964 00e2 0021     		mov	r1, #0
 2965 00e4 D154     		strb	r1, [r2, r3]
 142:./ros_lib/ros/node_handle.h ****         req_param_resp.ints = NULL;
 2966              		.loc 11 142 0
 2967 00e6 7A68     		ldr	r2, [r7, #4]
 2968 00e8 9523     		mov	r3, #149
 2969 00ea 9B00     		lsl	r3, r3, #2
 2970 00ec 0021     		mov	r1, #0
 2971 00ee D150     		str	r1, [r2, r3]
 2972              	.LBE38:
 2973              	.LBE37:
 143:./ros_lib/ros/node_handle.h ****       }
 2974              		.loc 11 143 0
 2975 00f0 7B68     		ldr	r3, [r7, #4]
 2976 00f2 181C     		mov	r0, r3
 2977 00f4 BD46     		mov	sp, r7
 2978 00f6 06B0     		add	sp, sp, #24
 2979              		@ sp needed
 2980 00f8 80BD     		pop	{r7, pc}
 2981              	.L145:
 2982 00fa C046     		.align	2
 2983              	.L144:
 2984 00fc 08000000 		.word	_ZTVN3ros11NodeHandle_I13Psoc4HardwareLi10ELi20ELi200ELi200EEE+8
 2985              		.cfi_endproc
 2986              	.LFE163:
 2987              		.size	_ZN3ros11NodeHandle_I13Psoc4HardwareLi10ELi20ELi200ELi200EEC2Ev, .-_ZN3ros11NodeHandle_I13Ps
 2988              		.weak	_ZN3ros11NodeHandle_I13Psoc4HardwareLi10ELi20ELi200ELi200EEC1Ev
 2989              		.thumb_set _ZN3ros11NodeHandle_I13Psoc4HardwareLi10ELi20ELi200ELi200EEC1Ev,_ZN3ros11NodeHandle_I13
 2990              		.section	.text._ZN3ros11NodeHandle_I13Psoc4HardwareLi10ELi20ELi200ELi200EE8initNodeEv,"axG",%progb
 2991              		.align	2
 2992              		.weak	_ZN3ros11NodeHandle_I13Psoc4HardwareLi10ELi20ELi200ELi200EE8initNodeEv
 2993              		.code	16
 2994              		.thumb_func
 2995              		.type	_ZN3ros11NodeHandle_I13Psoc4HardwareLi10ELi20ELi200ELi200EE8initNodeEv, %function
 2996              	_ZN3ros11NodeHandle_I13Psoc4HardwareLi10ELi20ELi200ELi200EE8initNodeEv:
 2997              	.LFB165:
 144:./ros_lib/ros/node_handle.h **** #endif      
 145:./ros_lib/ros/node_handle.h ****       Hardware* getHardware(){
 146:./ros_lib/ros/node_handle.h ****         return &hardware_;
 147:./ros_lib/ros/node_handle.h ****       }
 148:./ros_lib/ros/node_handle.h **** 
 149:./ros_lib/ros/node_handle.h ****       /* Start serial, initialize buffers */
 150:./ros_lib/ros/node_handle.h ****       void initNode(){
 2998              		.loc 11 150 0
 2999              		.cfi_startproc
 3000 0000 80B5     		push	{r7, lr}
 3001              		.cfi_def_cfa_offset 8
 3002              		.cfi_offset 7, -8
 3003              		.cfi_offset 14, -4
ARM GAS  C:\Users\Chuck\AppData\Local\Temp\cc5X170Y.s 			page 71


 3004 0002 82B0     		sub	sp, sp, #8
 3005              		.cfi_def_cfa_offset 16
 3006 0004 00AF     		add	r7, sp, #0
 3007              		.cfi_def_cfa_register 7
 3008 0006 7860     		str	r0, [r7, #4]
 151:./ros_lib/ros/node_handle.h ****         hardware_.init();
 3009              		.loc 11 151 0
 3010 0008 7B68     		ldr	r3, [r7, #4]
 3011 000a 0433     		add	r3, r3, #4
 3012 000c 181C     		mov	r0, r3
 3013 000e FFF7FEFF 		bl	_ZN13Psoc4Hardware4initEv
 152:./ros_lib/ros/node_handle.h ****         mode_ = 0;
 3014              		.loc 11 152 0
 3015 0012 7A68     		ldr	r2, [r7, #4]
 3016 0014 8823     		mov	r3, #136
 3017 0016 9B00     		lsl	r3, r3, #2
 3018 0018 0021     		mov	r1, #0
 3019 001a D150     		str	r1, [r2, r3]
 153:./ros_lib/ros/node_handle.h ****         bytes_ = 0;
 3020              		.loc 11 153 0
 3021 001c 7A68     		ldr	r2, [r7, #4]
 3022 001e 8923     		mov	r3, #137
 3023 0020 9B00     		lsl	r3, r3, #2
 3024 0022 0021     		mov	r1, #0
 3025 0024 D150     		str	r1, [r2, r3]
 154:./ros_lib/ros/node_handle.h ****         index_ = 0;
 3026              		.loc 11 154 0
 3027 0026 7A68     		ldr	r2, [r7, #4]
 3028 0028 8B23     		mov	r3, #139
 3029 002a 9B00     		lsl	r3, r3, #2
 3030 002c 0021     		mov	r1, #0
 3031 002e D150     		str	r1, [r2, r3]
 155:./ros_lib/ros/node_handle.h ****         topic_ = 0;
 3032              		.loc 11 155 0
 3033 0030 7A68     		ldr	r2, [r7, #4]
 3034 0032 8A23     		mov	r3, #138
 3035 0034 9B00     		lsl	r3, r3, #2
 3036 0036 0021     		mov	r1, #0
 3037 0038 D150     		str	r1, [r2, r3]
 156:./ros_lib/ros/node_handle.h ****       };
 3038              		.loc 11 156 0
 3039 003a BD46     		mov	sp, r7
 3040 003c 02B0     		add	sp, sp, #8
 3041              		@ sp needed
 3042 003e 80BD     		pop	{r7, pc}
 3043              		.cfi_endproc
 3044              	.LFE165:
 3045              		.size	_ZN3ros11NodeHandle_I13Psoc4HardwareLi10ELi20ELi200ELi200EE8initNodeEv, .-_ZN3ros11NodeHandl
 3046              		.section	.text._ZN3ros11NodeHandle_I13Psoc4HardwareLi10ELi20ELi200ELi200EE8spinOnceEv,"axG",%progb
 3047              		.align	2
 3048              		.weak	_ZN3ros11NodeHandle_I13Psoc4HardwareLi10ELi20ELi200ELi200EE8spinOnceEv
 3049              		.code	16
 3050              		.thumb_func
 3051              		.type	_ZN3ros11NodeHandle_I13Psoc4HardwareLi10ELi20ELi200ELi200EE8spinOnceEv, %function
 3052              	_ZN3ros11NodeHandle_I13Psoc4HardwareLi10ELi20ELi200ELi200EE8spinOnceEv:
 3053              	.LFB166:
 157:./ros_lib/ros/node_handle.h **** 
ARM GAS  C:\Users\Chuck\AppData\Local\Temp\cc5X170Y.s 			page 72


 158:./ros_lib/ros/node_handle.h ****       /* Start a named port, which may be network server IP, initialize buffers */
 159:./ros_lib/ros/node_handle.h ****       void initNode(char *portName){
 160:./ros_lib/ros/node_handle.h ****         hardware_.init(portName);
 161:./ros_lib/ros/node_handle.h ****         mode_ = 0;
 162:./ros_lib/ros/node_handle.h ****         bytes_ = 0;
 163:./ros_lib/ros/node_handle.h ****         index_ = 0;
 164:./ros_lib/ros/node_handle.h ****         topic_ = 0;
 165:./ros_lib/ros/node_handle.h ****       };
 166:./ros_lib/ros/node_handle.h **** 
 167:./ros_lib/ros/node_handle.h ****     protected:
 168:./ros_lib/ros/node_handle.h ****       //State machine variables for spinOnce
 169:./ros_lib/ros/node_handle.h ****       int mode_;
 170:./ros_lib/ros/node_handle.h ****       int bytes_;
 171:./ros_lib/ros/node_handle.h ****       int topic_;
 172:./ros_lib/ros/node_handle.h ****       int index_;
 173:./ros_lib/ros/node_handle.h ****       int checksum_;
 174:./ros_lib/ros/node_handle.h **** 
 175:./ros_lib/ros/node_handle.h ****       bool configured_;
 176:./ros_lib/ros/node_handle.h **** 
 177:./ros_lib/ros/node_handle.h ****       /* used for syncing the time */
 178:./ros_lib/ros/node_handle.h ****       unsigned long last_sync_time;
 179:./ros_lib/ros/node_handle.h ****       unsigned long last_sync_receive_time;
 180:./ros_lib/ros/node_handle.h ****       unsigned long last_msg_timeout_time;
 181:./ros_lib/ros/node_handle.h **** 
 182:./ros_lib/ros/node_handle.h ****     public:
 183:./ros_lib/ros/node_handle.h ****       /* This function goes in your loop() function, it handles
 184:./ros_lib/ros/node_handle.h ****        *  serial input and callbacks for subscribers.
 185:./ros_lib/ros/node_handle.h ****        */
 186:./ros_lib/ros/node_handle.h **** 
 187:./ros_lib/ros/node_handle.h **** 
 188:./ros_lib/ros/node_handle.h ****       virtual int spinOnce(){
 3054              		.loc 11 188 0
 3055              		.cfi_startproc
 3056 0000 80B5     		push	{r7, lr}
 3057              		.cfi_def_cfa_offset 8
 3058              		.cfi_offset 7, -8
 3059              		.cfi_offset 14, -4
 3060 0002 84B0     		sub	sp, sp, #16
 3061              		.cfi_def_cfa_offset 24
 3062 0004 00AF     		add	r7, sp, #0
 3063              		.cfi_def_cfa_register 7
 3064 0006 7860     		str	r0, [r7, #4]
 3065              	.LBB43:
 189:./ros_lib/ros/node_handle.h **** 
 190:./ros_lib/ros/node_handle.h ****         /* restart if timed out */
 191:./ros_lib/ros/node_handle.h ****         unsigned long c_time = hardware_.time();
 3066              		.loc 11 191 0
 3067 0008 7B68     		ldr	r3, [r7, #4]
 3068 000a 0433     		add	r3, r3, #4
 3069 000c 181C     		mov	r0, r3
 3070 000e FFF7FEFF 		bl	_ZN13Psoc4Hardware4timeEv
 3071 0012 031C     		mov	r3, r0
 3072 0014 FB60     		str	r3, [r7, #12]
 192:./ros_lib/ros/node_handle.h ****         if( (c_time - last_sync_receive_time) > (SYNC_SECONDS*1100) ){
 3073              		.loc 11 192 0
 3074 0016 7A68     		ldr	r2, [r7, #4]
 3075 0018 8F23     		mov	r3, #143
ARM GAS  C:\Users\Chuck\AppData\Local\Temp\cc5X170Y.s 			page 73


 3076 001a 9B00     		lsl	r3, r3, #2
 3077 001c D358     		ldr	r3, [r2, r3]
 3078 001e FA68     		ldr	r2, [r7, #12]
 3079 0020 D31A     		sub	r3, r2, r3
 3080 0022 D74A     		ldr	r2, .L174
 3081 0024 9342     		cmp	r3, r2
 3082 0026 04D9     		bls	.L148
 193:./ros_lib/ros/node_handle.h ****             configured_ = false;
 3083              		.loc 11 193 0
 3084 0028 7A68     		ldr	r2, [r7, #4]
 3085 002a 8D23     		mov	r3, #141
 3086 002c 9B00     		lsl	r3, r3, #2
 3087 002e 0021     		mov	r1, #0
 3088 0030 D154     		strb	r1, [r2, r3]
 3089              	.L148:
 194:./ros_lib/ros/node_handle.h ****          }
 195:./ros_lib/ros/node_handle.h ****          
 196:./ros_lib/ros/node_handle.h ****         /* reset if message has timed out */
 197:./ros_lib/ros/node_handle.h ****         if ( mode_ != MODE_FIRST_FF){ 
 3090              		.loc 11 197 0
 3091 0032 7A68     		ldr	r2, [r7, #4]
 3092 0034 8823     		mov	r3, #136
 3093 0036 9B00     		lsl	r3, r3, #2
 3094 0038 D358     		ldr	r3, [r2, r3]
 3095 003a 002B     		cmp	r3, #0
 3096 003c 0BD0     		beq	.L149
 198:./ros_lib/ros/node_handle.h ****           if (c_time > last_msg_timeout_time){
 3097              		.loc 11 198 0
 3098 003e 7A68     		ldr	r2, [r7, #4]
 3099 0040 9023     		mov	r3, #144
 3100 0042 9B00     		lsl	r3, r3, #2
 3101 0044 D258     		ldr	r2, [r2, r3]
 3102 0046 FB68     		ldr	r3, [r7, #12]
 3103 0048 9A42     		cmp	r2, r3
 3104 004a 04D2     		bcs	.L149
 199:./ros_lib/ros/node_handle.h ****             mode_ = MODE_FIRST_FF;
 3105              		.loc 11 199 0
 3106 004c 7A68     		ldr	r2, [r7, #4]
 3107 004e 8823     		mov	r3, #136
 3108 0050 9B00     		lsl	r3, r3, #2
 3109 0052 0021     		mov	r1, #0
 3110 0054 D150     		str	r1, [r2, r3]
 3111              	.L149:
 3112              	.LBB44:
 200:./ros_lib/ros/node_handle.h ****           }
 201:./ros_lib/ros/node_handle.h ****         }
 202:./ros_lib/ros/node_handle.h **** 
 203:./ros_lib/ros/node_handle.h ****         /* while available buffer, read data */
 204:./ros_lib/ros/node_handle.h ****         while( true )
 205:./ros_lib/ros/node_handle.h ****         {
 206:./ros_lib/ros/node_handle.h ****           int data = hardware_.read();
 3113              		.loc 11 206 0
 3114 0056 7B68     		ldr	r3, [r7, #4]
 3115 0058 0433     		add	r3, r3, #4
 3116 005a 181C     		mov	r0, r3
 3117 005c FFF7FEFF 		bl	_ZN13Psoc4Hardware4readEv
 3118 0060 031C     		mov	r3, r0
ARM GAS  C:\Users\Chuck\AppData\Local\Temp\cc5X170Y.s 			page 74


 3119 0062 BB60     		str	r3, [r7, #8]
 207:./ros_lib/ros/node_handle.h ****           if( data < 0 )
 3120              		.loc 11 207 0
 3121 0064 BB68     		ldr	r3, [r7, #8]
 3122 0066 002B     		cmp	r3, #0
 3123 0068 08DA     		bge	.L150
 208:./ros_lib/ros/node_handle.h ****             break;
 3124              		.loc 11 208 0
 3125 006a C046     		mov	r8, r8
 3126              	.LBE44:
 209:./ros_lib/ros/node_handle.h ****           checksum_ += data;
 210:./ros_lib/ros/node_handle.h ****           if( mode_ == MODE_MESSAGE ){        /* message data being recieved */
 211:./ros_lib/ros/node_handle.h ****             message_in[index_++] = data;
 212:./ros_lib/ros/node_handle.h ****             bytes_--;
 213:./ros_lib/ros/node_handle.h ****             if(bytes_ == 0)                  /* is message complete? if so, checksum */
 214:./ros_lib/ros/node_handle.h ****               mode_ = MODE_MSG_CHECKSUM;
 215:./ros_lib/ros/node_handle.h ****           }else if( mode_ == MODE_FIRST_FF ){
 216:./ros_lib/ros/node_handle.h ****             if(data == 0xff){
 217:./ros_lib/ros/node_handle.h ****               mode_++;
 218:./ros_lib/ros/node_handle.h ****               last_msg_timeout_time = c_time + MSG_TIMEOUT;
 219:./ros_lib/ros/node_handle.h ****             }
 220:./ros_lib/ros/node_handle.h ****             else if( hardware_.time() - c_time > (SYNC_SECONDS)){
 221:./ros_lib/ros/node_handle.h ****               /* We have been stuck in spinOnce too long, return error */
 222:./ros_lib/ros/node_handle.h ****               configured_=false;
 223:./ros_lib/ros/node_handle.h ****               return -2;
 224:./ros_lib/ros/node_handle.h ****             }
 225:./ros_lib/ros/node_handle.h ****           }else if( mode_ == MODE_PROTOCOL_VER ){
 226:./ros_lib/ros/node_handle.h ****             if(data == PROTOCOL_VER){
 227:./ros_lib/ros/node_handle.h ****               mode_++;
 228:./ros_lib/ros/node_handle.h ****             }else{
 229:./ros_lib/ros/node_handle.h ****               mode_ = MODE_FIRST_FF;
 230:./ros_lib/ros/node_handle.h ****               if (configured_ == false)
 231:./ros_lib/ros/node_handle.h ****                   requestSyncTime(); 	/* send a msg back showing our protocol version */
 232:./ros_lib/ros/node_handle.h ****             }
 233:./ros_lib/ros/node_handle.h **** 	  }else if( mode_ == MODE_SIZE_L ){   /* bottom half of message size */
 234:./ros_lib/ros/node_handle.h ****             bytes_ = data;
 235:./ros_lib/ros/node_handle.h ****             index_ = 0;
 236:./ros_lib/ros/node_handle.h ****             mode_++;
 237:./ros_lib/ros/node_handle.h ****             checksum_ = data;               /* first byte for calculating size checksum */
 238:./ros_lib/ros/node_handle.h ****           }else if( mode_ == MODE_SIZE_H ){   /* top half of message size */
 239:./ros_lib/ros/node_handle.h ****             bytes_ += data<<8;
 240:./ros_lib/ros/node_handle.h **** 	    mode_++;
 241:./ros_lib/ros/node_handle.h ****           }else if( mode_ == MODE_SIZE_CHECKSUM ){  
 242:./ros_lib/ros/node_handle.h ****             if( (checksum_%256) == 255)
 243:./ros_lib/ros/node_handle.h **** 	      mode_++;
 244:./ros_lib/ros/node_handle.h **** 	    else 
 245:./ros_lib/ros/node_handle.h **** 	      mode_ = MODE_FIRST_FF;          /* Abandon the frame if the msg len is wrong */
 246:./ros_lib/ros/node_handle.h **** 	  }else if( mode_ == MODE_TOPIC_L ){  /* bottom half of topic id */
 247:./ros_lib/ros/node_handle.h ****             topic_ = data;
 248:./ros_lib/ros/node_handle.h ****             mode_++;
 249:./ros_lib/ros/node_handle.h ****             checksum_ = data;               /* first byte included in checksum */
 250:./ros_lib/ros/node_handle.h ****           }else if( mode_ == MODE_TOPIC_H ){  /* top half of topic id */
 251:./ros_lib/ros/node_handle.h ****             topic_ += data<<8;
 252:./ros_lib/ros/node_handle.h ****             mode_ = MODE_MESSAGE;
 253:./ros_lib/ros/node_handle.h ****             if(bytes_ == 0)
 254:./ros_lib/ros/node_handle.h ****               mode_ = MODE_MSG_CHECKSUM;  
 255:./ros_lib/ros/node_handle.h ****           }else if( mode_ == MODE_MSG_CHECKSUM ){ /* do checksum */
ARM GAS  C:\Users\Chuck\AppData\Local\Temp\cc5X170Y.s 			page 75


 256:./ros_lib/ros/node_handle.h ****             mode_ = MODE_FIRST_FF;
 257:./ros_lib/ros/node_handle.h ****             if( (checksum_%256) == 255){
 258:./ros_lib/ros/node_handle.h ****               if(topic_ == TopicInfo::ID_PUBLISHER){
 259:./ros_lib/ros/node_handle.h ****                 requestSyncTime();
 260:./ros_lib/ros/node_handle.h ****                 negotiateTopics();
 261:./ros_lib/ros/node_handle.h ****                 last_sync_time = c_time;
 262:./ros_lib/ros/node_handle.h ****                 last_sync_receive_time = c_time;
 263:./ros_lib/ros/node_handle.h ****                 return -1;
 264:./ros_lib/ros/node_handle.h ****               }else if(topic_ == TopicInfo::ID_TIME){
 265:./ros_lib/ros/node_handle.h ****                 syncTime(message_in);
 266:./ros_lib/ros/node_handle.h ****               #if PARAM_REQ_SUPPORT
 267:./ros_lib/ros/node_handle.h ****               }else if (topic_ == TopicInfo::ID_PARAMETER_REQUEST){
 268:./ros_lib/ros/node_handle.h ****                   req_param_resp.deserialize(message_in);
 269:./ros_lib/ros/node_handle.h ****                   param_recieved= true;
 270:./ros_lib/ros/node_handle.h ****               #endif
 271:./ros_lib/ros/node_handle.h ****               }else if(topic_ == TopicInfo::ID_TX_STOP){
 272:./ros_lib/ros/node_handle.h ****                   configured_ = false;
 273:./ros_lib/ros/node_handle.h ****               }else{
 274:./ros_lib/ros/node_handle.h ****                 if(subscribers[topic_-100])
 275:./ros_lib/ros/node_handle.h ****                   subscribers[topic_-100]->callback( message_in );
 276:./ros_lib/ros/node_handle.h ****               }
 277:./ros_lib/ros/node_handle.h ****             }
 278:./ros_lib/ros/node_handle.h ****           }
 279:./ros_lib/ros/node_handle.h ****         }
 280:./ros_lib/ros/node_handle.h **** 
 281:./ros_lib/ros/node_handle.h ****         /* occasionally sync time */
 282:./ros_lib/ros/node_handle.h ****         if( configured_ && ((c_time-last_sync_time) > (SYNC_SECONDS*500) )){
 3127              		.loc 11 282 0
 3128 006c 7A68     		ldr	r2, [r7, #4]
 3129 006e 8D23     		mov	r3, #141
 3130 0070 9B00     		lsl	r3, r3, #2
 3131 0072 D35C     		ldrb	r3, [r2, r3]
 3132 0074 002B     		cmp	r3, #0
 3133 0076 00D1     		bne	.LCB2740
 3134 0078 CFE1     		b	.L172	@long jump
 3135              	.LCB2740:
 3136 007a BBE1     		b	.L173
 3137              	.L150:
 3138              	.LBB45:
 209:./ros_lib/ros/node_handle.h ****           checksum_ += data;
 3139              		.loc 11 209 0
 3140 007c 7A68     		ldr	r2, [r7, #4]
 3141 007e 8C23     		mov	r3, #140
 3142 0080 9B00     		lsl	r3, r3, #2
 3143 0082 D258     		ldr	r2, [r2, r3]
 3144 0084 BB68     		ldr	r3, [r7, #8]
 3145 0086 D118     		add	r1, r2, r3
 3146 0088 7A68     		ldr	r2, [r7, #4]
 3147 008a 8C23     		mov	r3, #140
 3148 008c 9B00     		lsl	r3, r3, #2
 3149 008e D150     		str	r1, [r2, r3]
 210:./ros_lib/ros/node_handle.h ****             message_in[index_++] = data;
 3150              		.loc 11 210 0
 3151 0090 7A68     		ldr	r2, [r7, #4]
 3152 0092 8823     		mov	r3, #136
 3153 0094 9B00     		lsl	r3, r3, #2
 3154 0096 D358     		ldr	r3, [r2, r3]
ARM GAS  C:\Users\Chuck\AppData\Local\Temp\cc5X170Y.s 			page 76


 3155 0098 072B     		cmp	r3, #7
 3156 009a 24D1     		bne	.L152
 211:./ros_lib/ros/node_handle.h ****             bytes_--;
 3157              		.loc 11 211 0
 3158 009c 7A68     		ldr	r2, [r7, #4]
 3159 009e 8B23     		mov	r3, #139
 3160 00a0 9B00     		lsl	r3, r3, #2
 3161 00a2 D358     		ldr	r3, [r2, r3]
 3162 00a4 581C     		add	r0, r3, #1
 3163 00a6 7968     		ldr	r1, [r7, #4]
 3164 00a8 8B22     		mov	r2, #139
 3165 00aa 9200     		lsl	r2, r2, #2
 3166 00ac 8850     		str	r0, [r1, r2]
 3167 00ae BA68     		ldr	r2, [r7, #8]
 3168 00b0 D1B2     		uxtb	r1, r2
 3169 00b2 7A68     		ldr	r2, [r7, #4]
 3170 00b4 D318     		add	r3, r2, r3
 3171 00b6 0A1C     		add	r2, r1, #0
 3172 00b8 1A76     		strb	r2, [r3, #24]
 212:./ros_lib/ros/node_handle.h ****             if(bytes_ == 0)                  /* is message complete? if so, checksum */
 3173              		.loc 11 212 0
 3174 00ba 7A68     		ldr	r2, [r7, #4]
 3175 00bc 8923     		mov	r3, #137
 3176 00be 9B00     		lsl	r3, r3, #2
 3177 00c0 D358     		ldr	r3, [r2, r3]
 3178 00c2 591E     		sub	r1, r3, #1
 3179 00c4 7A68     		ldr	r2, [r7, #4]
 3180 00c6 8923     		mov	r3, #137
 3181 00c8 9B00     		lsl	r3, r3, #2
 3182 00ca D150     		str	r1, [r2, r3]
 213:./ros_lib/ros/node_handle.h ****               mode_ = MODE_MSG_CHECKSUM;
 3183              		.loc 11 213 0
 3184 00cc 7A68     		ldr	r2, [r7, #4]
 3185 00ce 8923     		mov	r3, #137
 3186 00d0 9B00     		lsl	r3, r3, #2
 3187 00d2 D358     		ldr	r3, [r2, r3]
 3188 00d4 002B     		cmp	r3, #0
 3189 00d6 00D0     		beq	.LCB2791
 3190 00d8 8BE1     		b	.L153	@long jump
 3191              	.LCB2791:
 214:./ros_lib/ros/node_handle.h ****           }else if( mode_ == MODE_FIRST_FF ){
 3192              		.loc 11 214 0
 3193 00da 7A68     		ldr	r2, [r7, #4]
 3194 00dc 8823     		mov	r3, #136
 3195 00de 9B00     		lsl	r3, r3, #2
 3196 00e0 0821     		mov	r1, #8
 3197 00e2 D150     		str	r1, [r2, r3]
 3198 00e4 85E1     		b	.L153
 3199              	.L152:
 215:./ros_lib/ros/node_handle.h ****             if(data == 0xff){
 3200              		.loc 11 215 0
 3201 00e6 7A68     		ldr	r2, [r7, #4]
 3202 00e8 8823     		mov	r3, #136
 3203 00ea 9B00     		lsl	r3, r3, #2
 3204 00ec D358     		ldr	r3, [r2, r3]
 3205 00ee 002B     		cmp	r3, #0
 3206 00f0 2BD1     		bne	.L154
ARM GAS  C:\Users\Chuck\AppData\Local\Temp\cc5X170Y.s 			page 77


 216:./ros_lib/ros/node_handle.h ****               mode_++;
 3207              		.loc 11 216 0
 3208 00f2 BB68     		ldr	r3, [r7, #8]
 3209 00f4 FF2B     		cmp	r3, #255
 3210 00f6 10D1     		bne	.L155
 217:./ros_lib/ros/node_handle.h ****               last_msg_timeout_time = c_time + MSG_TIMEOUT;
 3211              		.loc 11 217 0
 3212 00f8 7A68     		ldr	r2, [r7, #4]
 3213 00fa 8823     		mov	r3, #136
 3214 00fc 9B00     		lsl	r3, r3, #2
 3215 00fe D358     		ldr	r3, [r2, r3]
 3216 0100 591C     		add	r1, r3, #1
 3217 0102 7A68     		ldr	r2, [r7, #4]
 3218 0104 8823     		mov	r3, #136
 3219 0106 9B00     		lsl	r3, r3, #2
 3220 0108 D150     		str	r1, [r2, r3]
 218:./ros_lib/ros/node_handle.h ****             }
 3221              		.loc 11 218 0
 3222 010a FB68     		ldr	r3, [r7, #12]
 3223 010c C833     		add	r3, r3, #200
 3224 010e 191C     		mov	r1, r3
 3225 0110 7A68     		ldr	r2, [r7, #4]
 3226 0112 9023     		mov	r3, #144
 3227 0114 9B00     		lsl	r3, r3, #2
 3228 0116 D150     		str	r1, [r2, r3]
 3229 0118 6BE1     		b	.L153
 3230              	.L155:
 220:./ros_lib/ros/node_handle.h ****               /* We have been stuck in spinOnce too long, return error */
 3231              		.loc 11 220 0
 3232 011a 7B68     		ldr	r3, [r7, #4]
 3233 011c 0433     		add	r3, r3, #4
 3234 011e 181C     		mov	r0, r3
 3235 0120 FFF7FEFF 		bl	_ZN13Psoc4Hardware4timeEv
 3236 0124 021C     		mov	r2, r0
 3237 0126 FB68     		ldr	r3, [r7, #12]
 3238 0128 D31A     		sub	r3, r2, r3
 3239 012a 0222     		mov	r2, #2
 3240 012c 9A42     		cmp	r2, r3
 3241 012e 9B41     		sbc	r3, r3, r3
 3242 0130 5B42     		neg	r3, r3
 3243 0132 DBB2     		uxtb	r3, r3
 3244 0134 002B     		cmp	r3, #0
 3245 0136 00D1     		bne	.LCB2842
 3246 0138 5BE1     		b	.L153	@long jump
 3247              	.LCB2842:
 222:./ros_lib/ros/node_handle.h ****               return -2;
 3248              		.loc 11 222 0
 3249 013a 7A68     		ldr	r2, [r7, #4]
 3250 013c 8D23     		mov	r3, #141
 3251 013e 9B00     		lsl	r3, r3, #2
 3252 0140 0021     		mov	r1, #0
 3253 0142 D154     		strb	r1, [r2, r3]
 223:./ros_lib/ros/node_handle.h ****             }
 3254              		.loc 11 223 0
 3255 0144 0223     		mov	r3, #2
 3256 0146 5B42     		neg	r3, r3
 3257 0148 68E1     		b	.L156
ARM GAS  C:\Users\Chuck\AppData\Local\Temp\cc5X170Y.s 			page 78


 3258              	.L154:
 225:./ros_lib/ros/node_handle.h ****             if(data == PROTOCOL_VER){
 3259              		.loc 11 225 0
 3260 014a 7A68     		ldr	r2, [r7, #4]
 3261 014c 8823     		mov	r3, #136
 3262 014e 9B00     		lsl	r3, r3, #2
 3263 0150 D358     		ldr	r3, [r2, r3]
 3264 0152 012B     		cmp	r3, #1
 3265 0154 20D1     		bne	.L157
 226:./ros_lib/ros/node_handle.h ****               mode_++;
 3266              		.loc 11 226 0
 3267 0156 BB68     		ldr	r3, [r7, #8]
 3268 0158 FE2B     		cmp	r3, #254
 3269 015a 09D1     		bne	.L158
 227:./ros_lib/ros/node_handle.h ****             }else{
 3270              		.loc 11 227 0
 3271 015c 7A68     		ldr	r2, [r7, #4]
 3272 015e 8823     		mov	r3, #136
 3273 0160 9B00     		lsl	r3, r3, #2
 3274 0162 D358     		ldr	r3, [r2, r3]
 3275 0164 591C     		add	r1, r3, #1
 3276 0166 7A68     		ldr	r2, [r7, #4]
 3277 0168 8823     		mov	r3, #136
 3278 016a 9B00     		lsl	r3, r3, #2
 3279 016c D150     		str	r1, [r2, r3]
 3280 016e 40E1     		b	.L153
 3281              	.L158:
 229:./ros_lib/ros/node_handle.h ****               if (configured_ == false)
 3282              		.loc 11 229 0
 3283 0170 7A68     		ldr	r2, [r7, #4]
 3284 0172 8823     		mov	r3, #136
 3285 0174 9B00     		lsl	r3, r3, #2
 3286 0176 0021     		mov	r1, #0
 3287 0178 D150     		str	r1, [r2, r3]
 230:./ros_lib/ros/node_handle.h ****                   requestSyncTime(); 	/* send a msg back showing our protocol version */
 3288              		.loc 11 230 0
 3289 017a 7A68     		ldr	r2, [r7, #4]
 3290 017c 8D23     		mov	r3, #141
 3291 017e 9B00     		lsl	r3, r3, #2
 3292 0180 D35C     		ldrb	r3, [r2, r3]
 3293 0182 0122     		mov	r2, #1
 3294 0184 5340     		eor	r3, r2
 3295 0186 DBB2     		uxtb	r3, r3
 3296 0188 002B     		cmp	r3, #0
 3297 018a 00D1     		bne	.LCB2889
 3298 018c 31E1     		b	.L153	@long jump
 3299              	.LCB2889:
 231:./ros_lib/ros/node_handle.h ****             }
 3300              		.loc 11 231 0
 3301 018e 7B68     		ldr	r3, [r7, #4]
 3302 0190 181C     		mov	r0, r3
 3303 0192 FFF7FEFF 		bl	_ZN3ros11NodeHandle_I13Psoc4HardwareLi10ELi20ELi200ELi200EE15requestSyncTimeEv
 3304 0196 2CE1     		b	.L153
 3305              	.L157:
 233:./ros_lib/ros/node_handle.h ****             bytes_ = data;
 3306              		.loc 11 233 0
 3307 0198 7A68     		ldr	r2, [r7, #4]
ARM GAS  C:\Users\Chuck\AppData\Local\Temp\cc5X170Y.s 			page 79


 3308 019a 8823     		mov	r3, #136
 3309 019c 9B00     		lsl	r3, r3, #2
 3310 019e D358     		ldr	r3, [r2, r3]
 3311 01a0 022B     		cmp	r3, #2
 3312 01a2 18D1     		bne	.L159
 234:./ros_lib/ros/node_handle.h ****             index_ = 0;
 3313              		.loc 11 234 0
 3314 01a4 7A68     		ldr	r2, [r7, #4]
 3315 01a6 8923     		mov	r3, #137
 3316 01a8 9B00     		lsl	r3, r3, #2
 3317 01aa B968     		ldr	r1, [r7, #8]
 3318 01ac D150     		str	r1, [r2, r3]
 235:./ros_lib/ros/node_handle.h ****             mode_++;
 3319              		.loc 11 235 0
 3320 01ae 7A68     		ldr	r2, [r7, #4]
 3321 01b0 8B23     		mov	r3, #139
 3322 01b2 9B00     		lsl	r3, r3, #2
 3323 01b4 0021     		mov	r1, #0
 3324 01b6 D150     		str	r1, [r2, r3]
 236:./ros_lib/ros/node_handle.h ****             checksum_ = data;               /* first byte for calculating size checksum */
 3325              		.loc 11 236 0
 3326 01b8 7A68     		ldr	r2, [r7, #4]
 3327 01ba 8823     		mov	r3, #136
 3328 01bc 9B00     		lsl	r3, r3, #2
 3329 01be D358     		ldr	r3, [r2, r3]
 3330 01c0 591C     		add	r1, r3, #1
 3331 01c2 7A68     		ldr	r2, [r7, #4]
 3332 01c4 8823     		mov	r3, #136
 3333 01c6 9B00     		lsl	r3, r3, #2
 3334 01c8 D150     		str	r1, [r2, r3]
 237:./ros_lib/ros/node_handle.h ****           }else if( mode_ == MODE_SIZE_H ){   /* top half of message size */
 3335              		.loc 11 237 0
 3336 01ca 7A68     		ldr	r2, [r7, #4]
 3337 01cc 8C23     		mov	r3, #140
 3338 01ce 9B00     		lsl	r3, r3, #2
 3339 01d0 B968     		ldr	r1, [r7, #8]
 3340 01d2 D150     		str	r1, [r2, r3]
 3341 01d4 0DE1     		b	.L153
 3342              	.L159:
 238:./ros_lib/ros/node_handle.h ****             bytes_ += data<<8;
 3343              		.loc 11 238 0
 3344 01d6 7A68     		ldr	r2, [r7, #4]
 3345 01d8 8823     		mov	r3, #136
 3346 01da 9B00     		lsl	r3, r3, #2
 3347 01dc D358     		ldr	r3, [r2, r3]
 3348 01de 032B     		cmp	r3, #3
 3349 01e0 14D1     		bne	.L160
 239:./ros_lib/ros/node_handle.h **** 	    mode_++;
 3350              		.loc 11 239 0
 3351 01e2 7A68     		ldr	r2, [r7, #4]
 3352 01e4 8923     		mov	r3, #137
 3353 01e6 9B00     		lsl	r3, r3, #2
 3354 01e8 D258     		ldr	r2, [r2, r3]
 3355 01ea BB68     		ldr	r3, [r7, #8]
 3356 01ec 1B02     		lsl	r3, r3, #8
 3357 01ee D118     		add	r1, r2, r3
 3358 01f0 7A68     		ldr	r2, [r7, #4]
ARM GAS  C:\Users\Chuck\AppData\Local\Temp\cc5X170Y.s 			page 80


 3359 01f2 8923     		mov	r3, #137
 3360 01f4 9B00     		lsl	r3, r3, #2
 3361 01f6 D150     		str	r1, [r2, r3]
 240:./ros_lib/ros/node_handle.h ****           }else if( mode_ == MODE_SIZE_CHECKSUM ){  
 3362              		.loc 11 240 0
 3363 01f8 7A68     		ldr	r2, [r7, #4]
 3364 01fa 8823     		mov	r3, #136
 3365 01fc 9B00     		lsl	r3, r3, #2
 3366 01fe D358     		ldr	r3, [r2, r3]
 3367 0200 591C     		add	r1, r3, #1
 3368 0202 7A68     		ldr	r2, [r7, #4]
 3369 0204 8823     		mov	r3, #136
 3370 0206 9B00     		lsl	r3, r3, #2
 3371 0208 D150     		str	r1, [r2, r3]
 3372 020a F2E0     		b	.L153
 3373              	.L160:
 241:./ros_lib/ros/node_handle.h ****             if( (checksum_%256) == 255)
 3374              		.loc 11 241 0
 3375 020c 7A68     		ldr	r2, [r7, #4]
 3376 020e 8823     		mov	r3, #136
 3377 0210 9B00     		lsl	r3, r3, #2
 3378 0212 D358     		ldr	r3, [r2, r3]
 3379 0214 042B     		cmp	r3, #4
 3380 0216 1CD1     		bne	.L161
 242:./ros_lib/ros/node_handle.h **** 	      mode_++;
 3381              		.loc 11 242 0
 3382 0218 7A68     		ldr	r2, [r7, #4]
 3383 021a 8C23     		mov	r3, #140
 3384 021c 9B00     		lsl	r3, r3, #2
 3385 021e D358     		ldr	r3, [r2, r3]
 3386 0220 584A     		ldr	r2, .L174+4
 3387 0222 1340     		and	r3, r2
 3388 0224 03D5     		bpl	.L162
 3389 0226 013B     		sub	r3, r3, #1
 3390 0228 574A     		ldr	r2, .L174+8
 3391 022a 1343     		orr	r3, r2
 3392 022c 0133     		add	r3, r3, #1
 3393              	.L162:
 3394 022e FF2B     		cmp	r3, #255
 3395 0230 09D1     		bne	.L163
 243:./ros_lib/ros/node_handle.h **** 	    else 
 3396              		.loc 11 243 0
 3397 0232 7A68     		ldr	r2, [r7, #4]
 3398 0234 8823     		mov	r3, #136
 3399 0236 9B00     		lsl	r3, r3, #2
 3400 0238 D358     		ldr	r3, [r2, r3]
 3401 023a 591C     		add	r1, r3, #1
 3402 023c 7A68     		ldr	r2, [r7, #4]
 3403 023e 8823     		mov	r3, #136
 3404 0240 9B00     		lsl	r3, r3, #2
 3405 0242 D150     		str	r1, [r2, r3]
 3406 0244 D5E0     		b	.L153
 3407              	.L163:
 245:./ros_lib/ros/node_handle.h **** 	  }else if( mode_ == MODE_TOPIC_L ){  /* bottom half of topic id */
 3408              		.loc 11 245 0
 3409 0246 7A68     		ldr	r2, [r7, #4]
 3410 0248 8823     		mov	r3, #136
ARM GAS  C:\Users\Chuck\AppData\Local\Temp\cc5X170Y.s 			page 81


 3411 024a 9B00     		lsl	r3, r3, #2
 3412 024c 0021     		mov	r1, #0
 3413 024e D150     		str	r1, [r2, r3]
 3414 0250 01E7     		b	.L149
 3415              	.L161:
 246:./ros_lib/ros/node_handle.h ****             topic_ = data;
 3416              		.loc 11 246 0
 3417 0252 7A68     		ldr	r2, [r7, #4]
 3418 0254 8823     		mov	r3, #136
 3419 0256 9B00     		lsl	r3, r3, #2
 3420 0258 D358     		ldr	r3, [r2, r3]
 3421 025a 052B     		cmp	r3, #5
 3422 025c 13D1     		bne	.L165
 247:./ros_lib/ros/node_handle.h ****             mode_++;
 3423              		.loc 11 247 0
 3424 025e 7A68     		ldr	r2, [r7, #4]
 3425 0260 8A23     		mov	r3, #138
 3426 0262 9B00     		lsl	r3, r3, #2
 3427 0264 B968     		ldr	r1, [r7, #8]
 3428 0266 D150     		str	r1, [r2, r3]
 248:./ros_lib/ros/node_handle.h ****             checksum_ = data;               /* first byte included in checksum */
 3429              		.loc 11 248 0
 3430 0268 7A68     		ldr	r2, [r7, #4]
 3431 026a 8823     		mov	r3, #136
 3432 026c 9B00     		lsl	r3, r3, #2
 3433 026e D358     		ldr	r3, [r2, r3]
 3434 0270 591C     		add	r1, r3, #1
 3435 0272 7A68     		ldr	r2, [r7, #4]
 3436 0274 8823     		mov	r3, #136
 3437 0276 9B00     		lsl	r3, r3, #2
 3438 0278 D150     		str	r1, [r2, r3]
 249:./ros_lib/ros/node_handle.h ****           }else if( mode_ == MODE_TOPIC_H ){  /* top half of topic id */
 3439              		.loc 11 249 0
 3440 027a 7A68     		ldr	r2, [r7, #4]
 3441 027c 8C23     		mov	r3, #140
 3442 027e 9B00     		lsl	r3, r3, #2
 3443 0280 B968     		ldr	r1, [r7, #8]
 3444 0282 D150     		str	r1, [r2, r3]
 3445 0284 B5E0     		b	.L153
 3446              	.L165:
 250:./ros_lib/ros/node_handle.h ****             topic_ += data<<8;
 3447              		.loc 11 250 0
 3448 0286 7A68     		ldr	r2, [r7, #4]
 3449 0288 8823     		mov	r3, #136
 3450 028a 9B00     		lsl	r3, r3, #2
 3451 028c D358     		ldr	r3, [r2, r3]
 3452 028e 062B     		cmp	r3, #6
 3453 0290 1CD1     		bne	.L166
 251:./ros_lib/ros/node_handle.h ****             mode_ = MODE_MESSAGE;
 3454              		.loc 11 251 0
 3455 0292 7A68     		ldr	r2, [r7, #4]
 3456 0294 8A23     		mov	r3, #138
 3457 0296 9B00     		lsl	r3, r3, #2
 3458 0298 D258     		ldr	r2, [r2, r3]
 3459 029a BB68     		ldr	r3, [r7, #8]
 3460 029c 1B02     		lsl	r3, r3, #8
 3461 029e D118     		add	r1, r2, r3
ARM GAS  C:\Users\Chuck\AppData\Local\Temp\cc5X170Y.s 			page 82


 3462 02a0 7A68     		ldr	r2, [r7, #4]
 3463 02a2 8A23     		mov	r3, #138
 3464 02a4 9B00     		lsl	r3, r3, #2
 3465 02a6 D150     		str	r1, [r2, r3]
 252:./ros_lib/ros/node_handle.h ****             if(bytes_ == 0)
 3466              		.loc 11 252 0
 3467 02a8 7A68     		ldr	r2, [r7, #4]
 3468 02aa 8823     		mov	r3, #136
 3469 02ac 9B00     		lsl	r3, r3, #2
 3470 02ae 0721     		mov	r1, #7
 3471 02b0 D150     		str	r1, [r2, r3]
 253:./ros_lib/ros/node_handle.h ****               mode_ = MODE_MSG_CHECKSUM;  
 3472              		.loc 11 253 0
 3473 02b2 7A68     		ldr	r2, [r7, #4]
 3474 02b4 8923     		mov	r3, #137
 3475 02b6 9B00     		lsl	r3, r3, #2
 3476 02b8 D358     		ldr	r3, [r2, r3]
 3477 02ba 002B     		cmp	r3, #0
 3478 02bc 00D0     		beq	.LCB3061
 3479 02be 98E0     		b	.L153	@long jump
 3480              	.LCB3061:
 254:./ros_lib/ros/node_handle.h ****           }else if( mode_ == MODE_MSG_CHECKSUM ){ /* do checksum */
 3481              		.loc 11 254 0
 3482 02c0 7A68     		ldr	r2, [r7, #4]
 3483 02c2 8823     		mov	r3, #136
 3484 02c4 9B00     		lsl	r3, r3, #2
 3485 02c6 0821     		mov	r1, #8
 3486 02c8 D150     		str	r1, [r2, r3]
 3487 02ca 92E0     		b	.L153
 3488              	.L166:
 255:./ros_lib/ros/node_handle.h ****             mode_ = MODE_FIRST_FF;
 3489              		.loc 11 255 0
 3490 02cc 7A68     		ldr	r2, [r7, #4]
 3491 02ce 8823     		mov	r3, #136
 3492 02d0 9B00     		lsl	r3, r3, #2
 3493 02d2 D358     		ldr	r3, [r2, r3]
 3494 02d4 082B     		cmp	r3, #8
 3495 02d6 00D0     		beq	.LCB3076
 3496 02d8 8BE0     		b	.L153	@long jump
 3497              	.LCB3076:
 256:./ros_lib/ros/node_handle.h ****             if( (checksum_%256) == 255){
 3498              		.loc 11 256 0
 3499 02da 7A68     		ldr	r2, [r7, #4]
 3500 02dc 8823     		mov	r3, #136
 3501 02de 9B00     		lsl	r3, r3, #2
 3502 02e0 0021     		mov	r1, #0
 3503 02e2 D150     		str	r1, [r2, r3]
 257:./ros_lib/ros/node_handle.h ****               if(topic_ == TopicInfo::ID_PUBLISHER){
 3504              		.loc 11 257 0
 3505 02e4 7A68     		ldr	r2, [r7, #4]
 3506 02e6 8C23     		mov	r3, #140
 3507 02e8 9B00     		lsl	r3, r3, #2
 3508 02ea D358     		ldr	r3, [r2, r3]
 3509 02ec 254A     		ldr	r2, .L174+4
 3510 02ee 1340     		and	r3, r2
 3511 02f0 03D5     		bpl	.L167
 3512 02f2 013B     		sub	r3, r3, #1
ARM GAS  C:\Users\Chuck\AppData\Local\Temp\cc5X170Y.s 			page 83


 3513 02f4 244A     		ldr	r2, .L174+8
 3514 02f6 1343     		orr	r3, r2
 3515 02f8 0133     		add	r3, r3, #1
 3516              	.L167:
 3517 02fa FF2B     		cmp	r3, #255
 3518 02fc 00D0     		beq	.LCB3097
 3519 02fe 78E0     		b	.L153	@long jump
 3520              	.LCB3097:
 258:./ros_lib/ros/node_handle.h ****                 requestSyncTime();
 3521              		.loc 11 258 0
 3522 0300 7A68     		ldr	r2, [r7, #4]
 3523 0302 8A23     		mov	r3, #138
 3524 0304 9B00     		lsl	r3, r3, #2
 3525 0306 D358     		ldr	r3, [r2, r3]
 3526 0308 002B     		cmp	r3, #0
 3527 030a 14D1     		bne	.L168
 259:./ros_lib/ros/node_handle.h ****                 negotiateTopics();
 3528              		.loc 11 259 0
 3529 030c 7B68     		ldr	r3, [r7, #4]
 3530 030e 181C     		mov	r0, r3
 3531 0310 FFF7FEFF 		bl	_ZN3ros11NodeHandle_I13Psoc4HardwareLi10ELi20ELi200ELi200EE15requestSyncTimeEv
 260:./ros_lib/ros/node_handle.h ****                 last_sync_time = c_time;
 3532              		.loc 11 260 0
 3533 0314 7B68     		ldr	r3, [r7, #4]
 3534 0316 181C     		mov	r0, r3
 3535 0318 FFF7FEFF 		bl	_ZN3ros11NodeHandle_I13Psoc4HardwareLi10ELi20ELi200ELi200EE15negotiateTopicsEv
 261:./ros_lib/ros/node_handle.h ****                 last_sync_receive_time = c_time;
 3536              		.loc 11 261 0
 3537 031c 7A68     		ldr	r2, [r7, #4]
 3538 031e 8E23     		mov	r3, #142
 3539 0320 9B00     		lsl	r3, r3, #2
 3540 0322 F968     		ldr	r1, [r7, #12]
 3541 0324 D150     		str	r1, [r2, r3]
 262:./ros_lib/ros/node_handle.h ****                 return -1;
 3542              		.loc 11 262 0
 3543 0326 7A68     		ldr	r2, [r7, #4]
 3544 0328 8F23     		mov	r3, #143
 3545 032a 9B00     		lsl	r3, r3, #2
 3546 032c F968     		ldr	r1, [r7, #12]
 3547 032e D150     		str	r1, [r2, r3]
 263:./ros_lib/ros/node_handle.h ****               }else if(topic_ == TopicInfo::ID_TIME){
 3548              		.loc 11 263 0
 3549 0330 0123     		mov	r3, #1
 3550 0332 5B42     		neg	r3, r3
 3551 0334 72E0     		b	.L156
 3552              	.L168:
 264:./ros_lib/ros/node_handle.h ****                 syncTime(message_in);
 3553              		.loc 11 264 0
 3554 0336 7A68     		ldr	r2, [r7, #4]
 3555 0338 8A23     		mov	r3, #138
 3556 033a 9B00     		lsl	r3, r3, #2
 3557 033c D358     		ldr	r3, [r2, r3]
 3558 033e 0A2B     		cmp	r3, #10
 3559 0340 07D1     		bne	.L169
 265:./ros_lib/ros/node_handle.h ****               #if PARAM_REQ_SUPPORT
 3560              		.loc 11 265 0
 3561 0342 7B68     		ldr	r3, [r7, #4]
ARM GAS  C:\Users\Chuck\AppData\Local\Temp\cc5X170Y.s 			page 84


 3562 0344 1833     		add	r3, r3, #24
 3563 0346 7A68     		ldr	r2, [r7, #4]
 3564 0348 101C     		mov	r0, r2
 3565 034a 191C     		mov	r1, r3
 3566 034c FFF7FEFF 		bl	_ZN3ros11NodeHandle_I13Psoc4HardwareLi10ELi20ELi200ELi200EE8syncTimeEPh
 3567 0350 4FE0     		b	.L153
 3568              	.L169:
 267:./ros_lib/ros/node_handle.h ****                   req_param_resp.deserialize(message_in);
 3569              		.loc 11 267 0
 3570 0352 7A68     		ldr	r2, [r7, #4]
 3571 0354 8A23     		mov	r3, #138
 3572 0356 9B00     		lsl	r3, r3, #2
 3573 0358 D358     		ldr	r3, [r2, r3]
 3574 035a 062B     		cmp	r3, #6
 3575 035c 16D1     		bne	.L170
 268:./ros_lib/ros/node_handle.h ****                   param_recieved= true;
 3576              		.loc 11 268 0
 3577 035e 7B68     		ldr	r3, [r7, #4]
 3578 0360 9222     		mov	r2, #146
 3579 0362 9200     		lsl	r2, r2, #2
 3580 0364 9A18     		add	r2, r3, r2
 3581 0366 7B68     		ldr	r3, [r7, #4]
 3582 0368 1833     		add	r3, r3, #24
 3583 036a 101C     		mov	r0, r2
 3584 036c 191C     		mov	r1, r3
 3585 036e FFF7FEFF 		bl	_ZN14rosserial_msgs20RequestParamResponse11deserializeEPh
 269:./ros_lib/ros/node_handle.h ****               #endif
 3586              		.loc 11 269 0
 3587 0372 7A68     		ldr	r2, [r7, #4]
 3588 0374 9123     		mov	r3, #145
 3589 0376 9B00     		lsl	r3, r3, #2
 3590 0378 0121     		mov	r1, #1
 3591 037a D154     		strb	r1, [r2, r3]
 3592 037c 39E0     		b	.L153
 3593              	.L175:
 3594 037e C046     		.align	2
 3595              	.L174:
 3596 0380 98080000 		.word	2200
 3597 0384 FF000080 		.word	-2147483393
 3598 0388 00FFFFFF 		.word	-256
 3599              	.L170:
 271:./ros_lib/ros/node_handle.h ****                   configured_ = false;
 3600              		.loc 11 271 0
 3601 038c 7A68     		ldr	r2, [r7, #4]
 3602 038e 8A23     		mov	r3, #138
 3603 0390 9B00     		lsl	r3, r3, #2
 3604 0392 D358     		ldr	r3, [r2, r3]
 3605 0394 0B2B     		cmp	r3, #11
 3606 0396 05D1     		bne	.L171
 272:./ros_lib/ros/node_handle.h ****               }else{
 3607              		.loc 11 272 0
 3608 0398 7A68     		ldr	r2, [r7, #4]
 3609 039a 8D23     		mov	r3, #141
 3610 039c 9B00     		lsl	r3, r3, #2
 3611 039e 0021     		mov	r1, #0
 3612 03a0 D154     		strb	r1, [r2, r3]
 3613 03a2 26E0     		b	.L153
ARM GAS  C:\Users\Chuck\AppData\Local\Temp\cc5X170Y.s 			page 85


 3614              	.L171:
 274:./ros_lib/ros/node_handle.h ****                   subscribers[topic_-100]->callback( message_in );
 3615              		.loc 11 274 0
 3616 03a4 7A68     		ldr	r2, [r7, #4]
 3617 03a6 8A23     		mov	r3, #138
 3618 03a8 9B00     		lsl	r3, r3, #2
 3619 03aa D358     		ldr	r3, [r2, r3]
 3620 03ac 643B     		sub	r3, r3, #100
 3621 03ae 1A1C     		mov	r2, r3
 3622 03b0 7B68     		ldr	r3, [r7, #4]
 3623 03b2 7E32     		add	r2, r2, #126
 3624 03b4 9200     		lsl	r2, r2, #2
 3625 03b6 D358     		ldr	r3, [r2, r3]
 3626 03b8 002B     		cmp	r3, #0
 3627 03ba 1AD0     		beq	.L153
 275:./ros_lib/ros/node_handle.h ****               }
 3628              		.loc 11 275 0
 3629 03bc 7A68     		ldr	r2, [r7, #4]
 3630 03be 8A23     		mov	r3, #138
 3631 03c0 9B00     		lsl	r3, r3, #2
 3632 03c2 D358     		ldr	r3, [r2, r3]
 3633 03c4 643B     		sub	r3, r3, #100
 3634 03c6 1A1C     		mov	r2, r3
 3635 03c8 7B68     		ldr	r3, [r7, #4]
 3636 03ca 7E32     		add	r2, r2, #126
 3637 03cc 9200     		lsl	r2, r2, #2
 3638 03ce D358     		ldr	r3, [r2, r3]
 3639 03d0 1B68     		ldr	r3, [r3]
 3640 03d2 1B68     		ldr	r3, [r3]
 3641 03d4 7968     		ldr	r1, [r7, #4]
 3642 03d6 8A22     		mov	r2, #138
 3643 03d8 9200     		lsl	r2, r2, #2
 3644 03da 8A58     		ldr	r2, [r1, r2]
 3645 03dc 643A     		sub	r2, r2, #100
 3646 03de 111C     		mov	r1, r2
 3647 03e0 7A68     		ldr	r2, [r7, #4]
 3648 03e2 7E31     		add	r1, r1, #126
 3649 03e4 8900     		lsl	r1, r1, #2
 3650 03e6 8958     		ldr	r1, [r1, r2]
 3651 03e8 7A68     		ldr	r2, [r7, #4]
 3652 03ea 1832     		add	r2, r2, #24
 3653 03ec 081C     		mov	r0, r1
 3654 03ee 111C     		mov	r1, r2
 3655 03f0 9847     		blx	r3
 3656              	.L153:
 3657              	.LBE45:
 283:./ros_lib/ros/node_handle.h ****           requestSyncTime();
 284:./ros_lib/ros/node_handle.h ****           last_sync_time = c_time;
 285:./ros_lib/ros/node_handle.h ****         }
 286:./ros_lib/ros/node_handle.h **** 
 287:./ros_lib/ros/node_handle.h ****         return 0;
 3658              		.loc 11 287 0 discriminator 7
 3659 03f2 30E6     		b	.L149
 3660              	.L173:
 282:./ros_lib/ros/node_handle.h ****           requestSyncTime();
 3661              		.loc 11 282 0 discriminator 1
 3662 03f4 7A68     		ldr	r2, [r7, #4]
ARM GAS  C:\Users\Chuck\AppData\Local\Temp\cc5X170Y.s 			page 86


 3663 03f6 8E23     		mov	r3, #142
 3664 03f8 9B00     		lsl	r3, r3, #2
 3665 03fa D358     		ldr	r3, [r2, r3]
 3666 03fc FA68     		ldr	r2, [r7, #12]
 3667 03fe D21A     		sub	r2, r2, r3
 3668 0400 FA23     		mov	r3, #250
 3669 0402 9B00     		lsl	r3, r3, #2
 3670 0404 9A42     		cmp	r2, r3
 3671 0406 08D9     		bls	.L172
 283:./ros_lib/ros/node_handle.h ****           requestSyncTime();
 3672              		.loc 11 283 0
 3673 0408 7B68     		ldr	r3, [r7, #4]
 3674 040a 181C     		mov	r0, r3
 3675 040c FFF7FEFF 		bl	_ZN3ros11NodeHandle_I13Psoc4HardwareLi10ELi20ELi200ELi200EE15requestSyncTimeEv
 284:./ros_lib/ros/node_handle.h ****         }
 3676              		.loc 11 284 0
 3677 0410 7A68     		ldr	r2, [r7, #4]
 3678 0412 8E23     		mov	r3, #142
 3679 0414 9B00     		lsl	r3, r3, #2
 3680 0416 F968     		ldr	r1, [r7, #12]
 3681 0418 D150     		str	r1, [r2, r3]
 3682              	.L172:
 3683              		.loc 11 287 0
 3684 041a 0023     		mov	r3, #0
 3685              	.L156:
 3686              	.LBE43:
 288:./ros_lib/ros/node_handle.h ****       }
 3687              		.loc 11 288 0
 3688 041c 181C     		mov	r0, r3
 3689 041e BD46     		mov	sp, r7
 3690 0420 04B0     		add	sp, sp, #16
 3691              		@ sp needed
 3692 0422 80BD     		pop	{r7, pc}
 3693              		.cfi_endproc
 3694              	.LFE166:
 3695              		.size	_ZN3ros11NodeHandle_I13Psoc4HardwareLi10ELi20ELi200ELi200EE8spinOnceEv, .-_ZN3ros11NodeHandl
 3696              		.section	.text._ZN3ros11NodeHandle_I13Psoc4HardwareLi10ELi20ELi200ELi200EE15requestSyncTimeEv,"axG
 3697              		.align	2
 3698              		.weak	_ZN3ros11NodeHandle_I13Psoc4HardwareLi10ELi20ELi200ELi200EE15requestSyncTimeEv
 3699              		.code	16
 3700              		.thumb_func
 3701              		.type	_ZN3ros11NodeHandle_I13Psoc4HardwareLi10ELi20ELi200ELi200EE15requestSyncTimeEv, %function
 3702              	_ZN3ros11NodeHandle_I13Psoc4HardwareLi10ELi20ELi200ELi200EE15requestSyncTimeEv:
 3703              	.LFB167:
 289:./ros_lib/ros/node_handle.h **** 
 290:./ros_lib/ros/node_handle.h **** 
 291:./ros_lib/ros/node_handle.h ****       /* Are we connected to the PC? */
 292:./ros_lib/ros/node_handle.h ****       virtual bool connected() {
 293:./ros_lib/ros/node_handle.h ****         return configured_;
 294:./ros_lib/ros/node_handle.h ****       };
 295:./ros_lib/ros/node_handle.h **** 
 296:./ros_lib/ros/node_handle.h ****       /********************************************************************
 297:./ros_lib/ros/node_handle.h ****        * Time functions
 298:./ros_lib/ros/node_handle.h ****        */
 299:./ros_lib/ros/node_handle.h **** 
 300:./ros_lib/ros/node_handle.h ****       void requestSyncTime()
 3704              		.loc 11 300 0
ARM GAS  C:\Users\Chuck\AppData\Local\Temp\cc5X170Y.s 			page 87


 3705              		.cfi_startproc
 3706 0000 80B5     		push	{r7, lr}
 3707              		.cfi_def_cfa_offset 8
 3708              		.cfi_offset 7, -8
 3709              		.cfi_offset 14, -4
 3710 0002 86B0     		sub	sp, sp, #24
 3711              		.cfi_def_cfa_offset 32
 3712 0004 00AF     		add	r7, sp, #0
 3713              		.cfi_def_cfa_register 7
 3714 0006 7860     		str	r0, [r7, #4]
 3715              	.LBB46:
 301:./ros_lib/ros/node_handle.h ****       {
 302:./ros_lib/ros/node_handle.h ****         std_msgs::Time t;
 3716              		.loc 11 302 0
 3717 0008 0C23     		mov	r3, #12
 3718 000a FB18     		add	r3, r7, r3
 3719 000c 181C     		mov	r0, r3
 3720 000e FFF7FEFF 		bl	_ZN8std_msgs4TimeC1Ev
 303:./ros_lib/ros/node_handle.h ****         publish(TopicInfo::ID_TIME, &t);
 3721              		.loc 11 303 0
 3722 0012 7B68     		ldr	r3, [r7, #4]
 3723 0014 1B68     		ldr	r3, [r3]
 3724 0016 1B68     		ldr	r3, [r3]
 3725 0018 7968     		ldr	r1, [r7, #4]
 3726 001a 0C22     		mov	r2, #12
 3727 001c BA18     		add	r2, r7, r2
 3728 001e 081C     		mov	r0, r1
 3729 0020 0A21     		mov	r1, #10
 3730 0022 9847     		blx	r3
 304:./ros_lib/ros/node_handle.h ****         rt_time = hardware_.time();
 3731              		.loc 11 304 0
 3732 0024 7B68     		ldr	r3, [r7, #4]
 3733 0026 0433     		add	r3, r3, #4
 3734 0028 181C     		mov	r0, r3
 3735 002a FFF7FEFF 		bl	_ZN13Psoc4Hardware4timeEv
 3736 002e 021C     		mov	r2, r0
 3737 0030 7B68     		ldr	r3, [r7, #4]
 3738 0032 DA60     		str	r2, [r3, #12]
 3739              	.LBE46:
 305:./ros_lib/ros/node_handle.h ****       }
 3740              		.loc 11 305 0
 3741 0034 BD46     		mov	sp, r7
 3742 0036 06B0     		add	sp, sp, #24
 3743              		@ sp needed
 3744 0038 80BD     		pop	{r7, pc}
 3745              		.cfi_endproc
 3746              	.LFE167:
 3747              		.size	_ZN3ros11NodeHandle_I13Psoc4HardwareLi10ELi20ELi200ELi200EE15requestSyncTimeEv, .-_ZN3ros11N
 3748              		.section	.text._ZN3ros11NodeHandle_I13Psoc4HardwareLi10ELi20ELi200ELi200EE15negotiateTopicsEv,"axG
 3749              		.align	2
 3750              		.weak	_ZN3ros11NodeHandle_I13Psoc4HardwareLi10ELi20ELi200ELi200EE15negotiateTopicsEv
 3751              		.code	16
 3752              		.thumb_func
 3753              		.type	_ZN3ros11NodeHandle_I13Psoc4HardwareLi10ELi20ELi200ELi200EE15negotiateTopicsEv, %function
 3754              	_ZN3ros11NodeHandle_I13Psoc4HardwareLi10ELi20ELi200ELi200EE15negotiateTopicsEv:
 3755              	.LFB168:
 306:./ros_lib/ros/node_handle.h **** 
ARM GAS  C:\Users\Chuck\AppData\Local\Temp\cc5X170Y.s 			page 88


 307:./ros_lib/ros/node_handle.h ****       void syncTime( unsigned char * data )
 308:./ros_lib/ros/node_handle.h ****       {
 309:./ros_lib/ros/node_handle.h ****         std_msgs::Time t;
 310:./ros_lib/ros/node_handle.h ****         unsigned long offset = hardware_.time() - rt_time;
 311:./ros_lib/ros/node_handle.h **** 
 312:./ros_lib/ros/node_handle.h ****         t.deserialize(data);
 313:./ros_lib/ros/node_handle.h ****         t.data.sec += offset/1000;
 314:./ros_lib/ros/node_handle.h ****         t.data.nsec += (offset%1000)*1000000UL;
 315:./ros_lib/ros/node_handle.h **** 
 316:./ros_lib/ros/node_handle.h ****         this->setNow(t.data);
 317:./ros_lib/ros/node_handle.h ****         last_sync_receive_time = hardware_.time();
 318:./ros_lib/ros/node_handle.h ****       }
 319:./ros_lib/ros/node_handle.h **** 
 320:./ros_lib/ros/node_handle.h ****       Time now(){
 321:./ros_lib/ros/node_handle.h ****         unsigned long ms = hardware_.time();
 322:./ros_lib/ros/node_handle.h ****         Time current_time;
 323:./ros_lib/ros/node_handle.h ****         current_time.sec = ms/1000 + sec_offset;
 324:./ros_lib/ros/node_handle.h ****         current_time.nsec = (ms%1000)*1000000UL + nsec_offset;
 325:./ros_lib/ros/node_handle.h ****         normalizeSecNSec(current_time.sec, current_time.nsec);
 326:./ros_lib/ros/node_handle.h ****         return current_time;
 327:./ros_lib/ros/node_handle.h ****       }
 328:./ros_lib/ros/node_handle.h **** 
 329:./ros_lib/ros/node_handle.h ****       void setNow( Time & new_now )
 330:./ros_lib/ros/node_handle.h ****       {
 331:./ros_lib/ros/node_handle.h ****         unsigned long ms = hardware_.time();
 332:./ros_lib/ros/node_handle.h ****         sec_offset = new_now.sec - ms/1000 - 1;
 333:./ros_lib/ros/node_handle.h ****         nsec_offset = new_now.nsec - (ms%1000)*1000000UL + 1000000000UL;
 334:./ros_lib/ros/node_handle.h ****         normalizeSecNSec(sec_offset, nsec_offset);
 335:./ros_lib/ros/node_handle.h ****       }
 336:./ros_lib/ros/node_handle.h **** 
 337:./ros_lib/ros/node_handle.h ****       /********************************************************************
 338:./ros_lib/ros/node_handle.h ****        * Topic Management 
 339:./ros_lib/ros/node_handle.h ****        */
 340:./ros_lib/ros/node_handle.h **** 
 341:./ros_lib/ros/node_handle.h ****       /* Register a new publisher */    
 342:./ros_lib/ros/node_handle.h ****       bool advertise(Publisher & p)
 343:./ros_lib/ros/node_handle.h ****       {
 344:./ros_lib/ros/node_handle.h ****         for(int i = 0; i < MAX_PUBLISHERS; i++){
 345:./ros_lib/ros/node_handle.h ****           if(publishers[i] == 0){ // empty slot
 346:./ros_lib/ros/node_handle.h ****             publishers[i] = &p;
 347:./ros_lib/ros/node_handle.h ****             p.id_ = i+100+MAX_SUBSCRIBERS;
 348:./ros_lib/ros/node_handle.h ****             p.nh_ = this;
 349:./ros_lib/ros/node_handle.h ****             return true;
 350:./ros_lib/ros/node_handle.h ****           }
 351:./ros_lib/ros/node_handle.h ****         }
 352:./ros_lib/ros/node_handle.h ****         return false;
 353:./ros_lib/ros/node_handle.h ****       }
 354:./ros_lib/ros/node_handle.h **** 
 355:./ros_lib/ros/node_handle.h ****       /* Register a new subscriber */
 356:./ros_lib/ros/node_handle.h ****       template<typename MsgT>
 357:./ros_lib/ros/node_handle.h ****       bool subscribe(Subscriber< MsgT> & s){
 358:./ros_lib/ros/node_handle.h ****         for(int i = 0; i < MAX_SUBSCRIBERS; i++){
 359:./ros_lib/ros/node_handle.h ****           if(subscribers[i] == 0){ // empty slot
 360:./ros_lib/ros/node_handle.h ****             subscribers[i] = (Subscriber_*) &s;
 361:./ros_lib/ros/node_handle.h ****             s.id_ = i+100;
 362:./ros_lib/ros/node_handle.h ****             return true;
 363:./ros_lib/ros/node_handle.h ****           }
ARM GAS  C:\Users\Chuck\AppData\Local\Temp\cc5X170Y.s 			page 89


 364:./ros_lib/ros/node_handle.h ****         }
 365:./ros_lib/ros/node_handle.h ****         return false;
 366:./ros_lib/ros/node_handle.h ****       }
 367:./ros_lib/ros/node_handle.h **** 
 368:./ros_lib/ros/node_handle.h ****       /* Register a new Service Server */
 369:./ros_lib/ros/node_handle.h ****       template<typename MReq, typename MRes>
 370:./ros_lib/ros/node_handle.h ****       bool advertiseService(ServiceServer<MReq,MRes>& srv){
 371:./ros_lib/ros/node_handle.h ****         bool v = advertise(srv.pub);
 372:./ros_lib/ros/node_handle.h ****         for(int i = 0; i < MAX_SUBSCRIBERS; i++){
 373:./ros_lib/ros/node_handle.h ****           if(subscribers[i] == 0){ // empty slot
 374:./ros_lib/ros/node_handle.h ****             subscribers[i] = (Subscriber_*) &srv;
 375:./ros_lib/ros/node_handle.h ****             srv.id_ = i+100;
 376:./ros_lib/ros/node_handle.h ****             return v;
 377:./ros_lib/ros/node_handle.h ****           }
 378:./ros_lib/ros/node_handle.h ****         }
 379:./ros_lib/ros/node_handle.h ****         return false;
 380:./ros_lib/ros/node_handle.h ****       }
 381:./ros_lib/ros/node_handle.h **** 
 382:./ros_lib/ros/node_handle.h ****       /* Register a new Service Client */
 383:./ros_lib/ros/node_handle.h ****       template<typename MReq, typename MRes>
 384:./ros_lib/ros/node_handle.h ****       bool serviceClient(ServiceClient<MReq, MRes>& srv){
 385:./ros_lib/ros/node_handle.h ****         bool v = advertise(srv.pub);
 386:./ros_lib/ros/node_handle.h ****         for(int i = 0; i < MAX_SUBSCRIBERS; i++){
 387:./ros_lib/ros/node_handle.h ****           if(subscribers[i] == 0){ // empty slot
 388:./ros_lib/ros/node_handle.h ****             subscribers[i] = (Subscriber_*) &srv;
 389:./ros_lib/ros/node_handle.h ****             srv.id_ = i+100;
 390:./ros_lib/ros/node_handle.h ****             return v;
 391:./ros_lib/ros/node_handle.h ****           }
 392:./ros_lib/ros/node_handle.h ****         }
 393:./ros_lib/ros/node_handle.h ****         return false;
 394:./ros_lib/ros/node_handle.h ****       }
 395:./ros_lib/ros/node_handle.h **** 
 396:./ros_lib/ros/node_handle.h ****       void negotiateTopics()
 3756              		.loc 11 396 0
 3757              		.cfi_startproc
 3758 0000 90B5     		push	{r4, r7, lr}
 3759              		.cfi_def_cfa_offset 12
 3760              		.cfi_offset 4, -12
 3761              		.cfi_offset 7, -8
 3762              		.cfi_offset 14, -4
 3763 0002 8BB0     		sub	sp, sp, #44
 3764              		.cfi_def_cfa_offset 56
 3765 0004 00AF     		add	r7, sp, #0
 3766              		.cfi_def_cfa_register 7
 3767 0006 7860     		str	r0, [r7, #4]
 3768              	.LBB47:
 397:./ros_lib/ros/node_handle.h ****       {
 398:./ros_lib/ros/node_handle.h ****         rosserial_msgs::TopicInfo ti;
 3769              		.loc 11 398 0
 3770 0008 0C23     		mov	r3, #12
 3771 000a FB18     		add	r3, r7, r3
 3772 000c 181C     		mov	r0, r3
 3773 000e FFF7FEFF 		bl	_ZN14rosserial_msgs9TopicInfoC1Ev
 399:./ros_lib/ros/node_handle.h ****         int i;
 400:./ros_lib/ros/node_handle.h ****         for(i = 0; i < MAX_PUBLISHERS; i++)
 3774              		.loc 11 400 0
 3775 0012 0023     		mov	r3, #0
ARM GAS  C:\Users\Chuck\AppData\Local\Temp\cc5X170Y.s 			page 90


 3776 0014 7B62     		str	r3, [r7, #36]
 3777 0016 5CE0     		b	.L178
 3778              	.L180:
 401:./ros_lib/ros/node_handle.h ****         {
 402:./ros_lib/ros/node_handle.h ****           if(publishers[i] != 0) // non-empty slot
 3779              		.loc 11 402 0
 3780 0018 7B68     		ldr	r3, [r7, #4]
 3781 001a 7A6A     		ldr	r2, [r7, #36]
 3782 001c 6A32     		add	r2, r2, #106
 3783 001e 9200     		lsl	r2, r2, #2
 3784 0020 D358     		ldr	r3, [r2, r3]
 3785 0022 002B     		cmp	r3, #0
 3786 0024 52D0     		beq	.L179
 403:./ros_lib/ros/node_handle.h ****           {
 404:./ros_lib/ros/node_handle.h ****             ti.topic_id = publishers[i]->id_;
 3787              		.loc 11 404 0
 3788 0026 7B68     		ldr	r3, [r7, #4]
 3789 0028 7A6A     		ldr	r2, [r7, #36]
 3790 002a 6A32     		add	r2, r2, #106
 3791 002c 9200     		lsl	r2, r2, #2
 3792 002e D358     		ldr	r3, [r2, r3]
