ARM GAS  C:\Users\Chuck\AppData\Local\Temp\cc5X170Y.s 			page 1


   1              		.cpu cortex-m0
   2              		.fpu softvfp
   3              		.eabi_attribute 20, 1
   4              		.eabi_attribute 21, 1
   5              		.eabi_attribute 23, 3
   6              		.eabi_attribute 24, 1
   7              		.eabi_attribute 25, 1
   8              		.eabi_attribute 26, 1
   9              		.eabi_attribute 30, 6
  10              		.eabi_attribute 34, 0
  11              		.eabi_attribute 18, 4
  12              		.code	16
  13              		.file	"main.cpp"
  14              		.text
  15              	.Ltext0:
  16              		.cfi_sections	.debug_frame
  17              		.section	.text._ZN3ros4TimeC2Ev,"axG",%progbits,_ZN3ros4TimeC5Ev,comdat
  18              		.align	2
  19              		.weak	_ZN3ros4TimeC2Ev
  20              		.code	16
  21              		.thumb_func
  22              		.type	_ZN3ros4TimeC2Ev, %function
  23              	_ZN3ros4TimeC2Ev:
  24              	.LFB11:
  25              		.file 1 "./ros_lib/ros/time.h"
   1:./ros_lib/ros/time.h **** /* 
   2:./ros_lib/ros/time.h ****  * Software License Agreement (BSD License)
   3:./ros_lib/ros/time.h ****  *
   4:./ros_lib/ros/time.h ****  * Copyright (c) 2011, Willow Garage, Inc.
   5:./ros_lib/ros/time.h ****  * All rights reserved.
   6:./ros_lib/ros/time.h ****  *
   7:./ros_lib/ros/time.h ****  * Redistribution and use in source and binary forms, with or without
   8:./ros_lib/ros/time.h ****  * modification, are permitted provided that the following conditions
   9:./ros_lib/ros/time.h ****  * are met:
  10:./ros_lib/ros/time.h ****  *
  11:./ros_lib/ros/time.h ****  *  * Redistributions of source code must retain the above copyright
  12:./ros_lib/ros/time.h ****  *    notice, this list of conditions and the following disclaimer.
  13:./ros_lib/ros/time.h ****  *  * Redistributions in binary form must reproduce the above
  14:./ros_lib/ros/time.h ****  *    copyright notice, this list of conditions and the following
  15:./ros_lib/ros/time.h ****  *    disclaimer in the documentation and/or other materials provided
  16:./ros_lib/ros/time.h ****  *    with the distribution.
  17:./ros_lib/ros/time.h ****  *  * Neither the name of Willow Garage, Inc. nor the names of its
  18:./ros_lib/ros/time.h ****  *    contributors may be used to endorse or promote prducts derived
  19:./ros_lib/ros/time.h ****  *    from this software without specific prior written permission.
  20:./ros_lib/ros/time.h ****  *
  21:./ros_lib/ros/time.h ****  * THIS SOFTWARE IS PROVIDED BY THE COPYRIGHT HOLDERS AND CONTRIBUTORS
  22:./ros_lib/ros/time.h ****  * "AS IS" AND ANY EXPRESS OR IMPLIED WARRANTIES, INCLUDING, BUT NOT
  23:./ros_lib/ros/time.h ****  * LIMITED TO, THE IMPLIED WARRANTIES OF MERCHANTABILITY AND FITNESS
  24:./ros_lib/ros/time.h ****  * FOR A PARTICULAR PURPOSE ARE DISCLAIMED. IN NO EVENT SHALL THE
  25:./ros_lib/ros/time.h ****  * COPYRIGHT OWNER OR CONTRIBUTORS BE LIABLE FOR ANY DIRECT, INDIRECT,
  26:./ros_lib/ros/time.h ****  * INCIDENTAL, SPECIAL, EXEMPLARY, OR CONSEQUENTIAL DAMAGES (INCLUDING,
  27:./ros_lib/ros/time.h ****  * BUT NOT LIMITED TO, PROCUREMENT OF SUBSTITUTE GOODS OR SERVICES;
  28:./ros_lib/ros/time.h ****  * LOSS OF USE, DATA, OR PROFITS; OR BUSINESS INTERRUPTION) HOWEVER
  29:./ros_lib/ros/time.h ****  * CAUSED AND ON ANY THEORY OF LIABILITY, WHETHER IN CONTRACT, STRICT
  30:./ros_lib/ros/time.h ****  * LIABILITY, OR TORT (INCLUDING NEGLIGENCE OR OTHERWISE) ARISING IN
  31:./ros_lib/ros/time.h ****  * ANY WAY OUT OF THE USE OF THIS SOFTWARE, EVEN IF ADVISED OF THE
  32:./ros_lib/ros/time.h ****  * POSSIBILITY OF SUCH DAMAGE.
ARM GAS  C:\Users\Chuck\AppData\Local\Temp\cc5X170Y.s 			page 2


  33:./ros_lib/ros/time.h ****  */
  34:./ros_lib/ros/time.h **** 
  35:./ros_lib/ros/time.h **** #ifndef ROS_TIME_H_
  36:./ros_lib/ros/time.h **** #define ROS_TIME_H_
  37:./ros_lib/ros/time.h **** 
  38:./ros_lib/ros/time.h **** #include <ros/duration.h>
  39:./ros_lib/ros/time.h **** #include <math.h>
  40:./ros_lib/ros/time.h **** 
  41:./ros_lib/ros/time.h **** 
  42:./ros_lib/ros/time.h **** namespace ros
  43:./ros_lib/ros/time.h **** {
  44:./ros_lib/ros/time.h ****   void normalizeSecNSec(unsigned long &sec, unsigned long &nsec);
  45:./ros_lib/ros/time.h **** 
  46:./ros_lib/ros/time.h ****   class Time
  47:./ros_lib/ros/time.h ****   {
  48:./ros_lib/ros/time.h ****     public:
  49:./ros_lib/ros/time.h ****       unsigned long sec, nsec;
  50:./ros_lib/ros/time.h **** 
  51:./ros_lib/ros/time.h ****       Time() : sec(0), nsec(0) {}
  26              		.loc 1 51 0
  27              		.cfi_startproc
  28 0000 80B5     		push	{r7, lr}
  29              		.cfi_def_cfa_offset 8
  30              		.cfi_offset 7, -8
  31              		.cfi_offset 14, -4
  32 0002 82B0     		sub	sp, sp, #8
  33              		.cfi_def_cfa_offset 16
  34 0004 00AF     		add	r7, sp, #0
  35              		.cfi_def_cfa_register 7
  36 0006 7860     		str	r0, [r7, #4]
  37              	.LBB2:
  38              		.loc 1 51 0
  39 0008 7B68     		ldr	r3, [r7, #4]
  40 000a 0022     		mov	r2, #0
  41 000c 1A60     		str	r2, [r3]
  42 000e 7B68     		ldr	r3, [r7, #4]
  43 0010 0022     		mov	r2, #0
  44 0012 5A60     		str	r2, [r3, #4]
  45              	.LBE2:
  46 0014 7B68     		ldr	r3, [r7, #4]
  47 0016 181C     		mov	r0, r3
  48 0018 BD46     		mov	sp, r7
  49 001a 02B0     		add	sp, sp, #8
  50              		@ sp needed
  51 001c 80BD     		pop	{r7, pc}
  52              		.cfi_endproc
  53              	.LFE11:
  54              		.size	_ZN3ros4TimeC2Ev, .-_ZN3ros4TimeC2Ev
  55              		.weak	_ZN3ros4TimeC1Ev
  56              		.thumb_set _ZN3ros4TimeC1Ev,_ZN3ros4TimeC2Ev
  57 001e C046     		.section	.text._ZN3ros3MsgC2Ev,"axG",%progbits,_ZN3ros3MsgC5Ev,comdat
  58              		.align	2
  59              		.weak	_ZN3ros3MsgC2Ev
  60              		.code	16
  61              		.thumb_func
  62              		.type	_ZN3ros3MsgC2Ev, %function
  63              	_ZN3ros3MsgC2Ev:
ARM GAS  C:\Users\Chuck\AppData\Local\Temp\cc5X170Y.s 			page 3


  64              	.LFB21:
  65              		.file 2 "./ros_lib/ros/msg.h"
   1:./ros_lib/ros/msg.h **** /* 
   2:./ros_lib/ros/msg.h ****  * Software License Agreement (BSD License)
   3:./ros_lib/ros/msg.h ****  *
   4:./ros_lib/ros/msg.h ****  * Copyright (c) 2011, Willow Garage, Inc.
   5:./ros_lib/ros/msg.h ****  * All rights reserved.
   6:./ros_lib/ros/msg.h ****  *
   7:./ros_lib/ros/msg.h ****  * Redistribution and use in source and binary forms, with or without
   8:./ros_lib/ros/msg.h ****  * modification, are permitted provided that the following conditions
   9:./ros_lib/ros/msg.h ****  * are met:
  10:./ros_lib/ros/msg.h ****  *
  11:./ros_lib/ros/msg.h ****  *  * Redistributions of source code must retain the above copyright
  12:./ros_lib/ros/msg.h ****  *    notice, this list of conditions and the following disclaimer.
  13:./ros_lib/ros/msg.h ****  *  * Redistributions in binary form must reproduce the above
  14:./ros_lib/ros/msg.h ****  *    copyright notice, this list of conditions and the following
  15:./ros_lib/ros/msg.h ****  *    disclaimer in the documentation and/or other materials provided
  16:./ros_lib/ros/msg.h ****  *    with the distribution.
  17:./ros_lib/ros/msg.h ****  *  * Neither the name of Willow Garage, Inc. nor the names of its
  18:./ros_lib/ros/msg.h ****  *    contributors may be used to endorse or promote prducts derived
  19:./ros_lib/ros/msg.h ****  *    from this software without specific prior written permission.
  20:./ros_lib/ros/msg.h ****  *
  21:./ros_lib/ros/msg.h ****  * THIS SOFTWARE IS PROVIDED BY THE COPYRIGHT HOLDERS AND CONTRIBUTORS
  22:./ros_lib/ros/msg.h ****  * "AS IS" AND ANY EXPRESS OR IMPLIED WARRANTIES, INCLUDING, BUT NOT
  23:./ros_lib/ros/msg.h ****  * LIMITED TO, THE IMPLIED WARRANTIES OF MERCHANTABILITY AND FITNESS
  24:./ros_lib/ros/msg.h ****  * FOR A PARTICULAR PURPOSE ARE DISCLAIMED. IN NO EVENT SHALL THE
  25:./ros_lib/ros/msg.h ****  * COPYRIGHT OWNER OR CONTRIBUTORS BE LIABLE FOR ANY DIRECT, INDIRECT,
  26:./ros_lib/ros/msg.h ****  * INCIDENTAL, SPECIAL, EXEMPLARY, OR CONSEQUENTIAL DAMAGES (INCLUDING,
  27:./ros_lib/ros/msg.h ****  * BUT NOT LIMITED TO, PROCUREMENT OF SUBSTITUTE GOODS OR SERVICES;
  28:./ros_lib/ros/msg.h ****  * LOSS OF USE, DATA, OR PROFITS; OR BUSINESS INTERRUPTION) HOWEVER
  29:./ros_lib/ros/msg.h ****  * CAUSED AND ON ANY THEORY OF LIABILITY, WHETHER IN CONTRACT, STRICT
  30:./ros_lib/ros/msg.h ****  * LIABILITY, OR TORT (INCLUDING NEGLIGENCE OR OTHERWISE) ARISING IN
  31:./ros_lib/ros/msg.h ****  * ANY WAY OUT OF THE USE OF THIS SOFTWARE, EVEN IF ADVISED OF THE
  32:./ros_lib/ros/msg.h ****  * POSSIBILITY OF SUCH DAMAGE.
  33:./ros_lib/ros/msg.h ****  */
  34:./ros_lib/ros/msg.h **** 
  35:./ros_lib/ros/msg.h **** #ifndef _ROS_MSG_H_
  36:./ros_lib/ros/msg.h **** #define _ROS_MSG_H_
  37:./ros_lib/ros/msg.h **** 
  38:./ros_lib/ros/msg.h **** #include <stdint.h>
  39:./ros_lib/ros/msg.h **** 
  40:./ros_lib/ros/msg.h **** namespace ros {
  41:./ros_lib/ros/msg.h **** 
  42:./ros_lib/ros/msg.h **** /* Base Message Type */
  43:./ros_lib/ros/msg.h **** class Msg
  66              		.loc 2 43 0
  67              		.cfi_startproc
  68 0000 80B5     		push	{r7, lr}
  69              		.cfi_def_cfa_offset 8
  70              		.cfi_offset 7, -8
  71              		.cfi_offset 14, -4
  72 0002 82B0     		sub	sp, sp, #8
  73              		.cfi_def_cfa_offset 16
  74 0004 00AF     		add	r7, sp, #0
  75              		.cfi_def_cfa_register 7
  76 0006 7860     		str	r0, [r7, #4]
  77              	.LBB3:
ARM GAS  C:\Users\Chuck\AppData\Local\Temp\cc5X170Y.s 			page 4


  78              		.loc 2 43 0
  79 0008 7B68     		ldr	r3, [r7, #4]
  80 000a 034A     		ldr	r2, .L7
  81 000c 1A60     		str	r2, [r3]
  82              	.LBE3:
  83 000e 7B68     		ldr	r3, [r7, #4]
  84 0010 181C     		mov	r0, r3
  85 0012 BD46     		mov	sp, r7
  86 0014 02B0     		add	sp, sp, #8
  87              		@ sp needed
  88 0016 80BD     		pop	{r7, pc}
  89              	.L8:
  90              		.align	2
  91              	.L7:
  92 0018 08000000 		.word	_ZTVN3ros3MsgE+8
  93              		.cfi_endproc
  94              	.LFE21:
  95              		.size	_ZN3ros3MsgC2Ev, .-_ZN3ros3MsgC2Ev
  96              		.weak	_ZN3ros3MsgC1Ev
  97              		.thumb_set _ZN3ros3MsgC1Ev,_ZN3ros3MsgC2Ev
  98              		.section	.text._ZN8std_msgs4TimeC2Ev,"axG",%progbits,_ZN8std_msgs4TimeC5Ev,comdat
  99              		.align	2
 100              		.weak	_ZN8std_msgs4TimeC2Ev
 101              		.code	16
 102              		.thumb_func
 103              		.type	_ZN8std_msgs4TimeC2Ev, %function
 104              	_ZN8std_msgs4TimeC2Ev:
 105              	.LFB23:
 106              		.file 3 "./ros_lib/std_msgs/Time.h"
   1:./ros_lib/std_msgs/Time.h **** #ifndef _ROS_std_msgs_Time_h
   2:./ros_lib/std_msgs/Time.h **** #define _ROS_std_msgs_Time_h
   3:./ros_lib/std_msgs/Time.h **** 
   4:./ros_lib/std_msgs/Time.h **** #include <stdint.h>
   5:./ros_lib/std_msgs/Time.h **** #include <string.h>
   6:./ros_lib/std_msgs/Time.h **** #include <stdlib.h>
   7:./ros_lib/std_msgs/Time.h **** #include "ros/msg.h"
   8:./ros_lib/std_msgs/Time.h **** #include "ros/time.h"
   9:./ros_lib/std_msgs/Time.h **** 
  10:./ros_lib/std_msgs/Time.h **** namespace std_msgs
  11:./ros_lib/std_msgs/Time.h **** {
  12:./ros_lib/std_msgs/Time.h **** 
  13:./ros_lib/std_msgs/Time.h ****   class Time : public ros::Msg
  14:./ros_lib/std_msgs/Time.h ****   {
  15:./ros_lib/std_msgs/Time.h ****     public:
  16:./ros_lib/std_msgs/Time.h ****       ros::Time data;
  17:./ros_lib/std_msgs/Time.h **** 
  18:./ros_lib/std_msgs/Time.h ****     Time():
 107              		.loc 3 18 0
 108              		.cfi_startproc
 109 0000 80B5     		push	{r7, lr}
 110              		.cfi_def_cfa_offset 8
 111              		.cfi_offset 7, -8
 112              		.cfi_offset 14, -4
 113 0002 82B0     		sub	sp, sp, #8
 114              		.cfi_def_cfa_offset 16
 115 0004 00AF     		add	r7, sp, #0
 116              		.cfi_def_cfa_register 7
ARM GAS  C:\Users\Chuck\AppData\Local\Temp\cc5X170Y.s 			page 5


 117 0006 7860     		str	r0, [r7, #4]
 118              	.LBB4:
  19:./ros_lib/std_msgs/Time.h ****       data()
 119              		.loc 3 19 0
 120 0008 7B68     		ldr	r3, [r7, #4]
 121 000a 181C     		mov	r0, r3
 122 000c FFF7FEFF 		bl	_ZN3ros3MsgC2Ev
 123 0010 7B68     		ldr	r3, [r7, #4]
 124 0012 064A     		ldr	r2, .L12
 125 0014 1A60     		str	r2, [r3]
 126 0016 7B68     		ldr	r3, [r7, #4]
 127 0018 0433     		add	r3, r3, #4
 128 001a 181C     		mov	r0, r3
 129 001c FFF7FEFF 		bl	_ZN3ros4TimeC1Ev
 130              	.LBE4:
  20:./ros_lib/std_msgs/Time.h ****     {
  21:./ros_lib/std_msgs/Time.h ****     }
 131              		.loc 3 21 0
 132 0020 7B68     		ldr	r3, [r7, #4]
 133 0022 181C     		mov	r0, r3
 134 0024 BD46     		mov	sp, r7
 135 0026 02B0     		add	sp, sp, #8
 136              		@ sp needed
 137 0028 80BD     		pop	{r7, pc}
 138              	.L13:
 139 002a C046     		.align	2
 140              	.L12:
 141 002c 08000000 		.word	_ZTVN8std_msgs4TimeE+8
 142              		.cfi_endproc
 143              	.LFE23:
 144              		.size	_ZN8std_msgs4TimeC2Ev, .-_ZN8std_msgs4TimeC2Ev
 145              		.weak	_ZN8std_msgs4TimeC1Ev
 146              		.thumb_set _ZN8std_msgs4TimeC1Ev,_ZN8std_msgs4TimeC2Ev
 147              		.section	.text._ZNK8std_msgs4Time9serializeEPh,"axG",%progbits,_ZNK8std_msgs4Time9serializeEPh,com
 148              		.align	2
 149              		.weak	_ZNK8std_msgs4Time9serializeEPh
 150              		.code	16
 151              		.thumb_func
 152              		.type	_ZNK8std_msgs4Time9serializeEPh, %function
 153              	_ZNK8std_msgs4Time9serializeEPh:
 154              	.LFB25:
  22:./ros_lib/std_msgs/Time.h **** 
  23:./ros_lib/std_msgs/Time.h ****     virtual int serialize(unsigned char *outbuffer) const
 155              		.loc 3 23 0
 156              		.cfi_startproc
 157 0000 80B5     		push	{r7, lr}
 158              		.cfi_def_cfa_offset 8
 159              		.cfi_offset 7, -8
 160              		.cfi_offset 14, -4
 161 0002 84B0     		sub	sp, sp, #16
 162              		.cfi_def_cfa_offset 24
 163 0004 00AF     		add	r7, sp, #0
 164              		.cfi_def_cfa_register 7
 165 0006 7860     		str	r0, [r7, #4]
 166 0008 3960     		str	r1, [r7]
 167              	.LBB5:
  24:./ros_lib/std_msgs/Time.h ****     {
ARM GAS  C:\Users\Chuck\AppData\Local\Temp\cc5X170Y.s 			page 6


  25:./ros_lib/std_msgs/Time.h ****       int offset = 0;
 168              		.loc 3 25 0
 169 000a 0023     		mov	r3, #0
 170 000c FB60     		str	r3, [r7, #12]
  26:./ros_lib/std_msgs/Time.h **** #ifndef ROS_MSG_DONT_SERIALIZE
  27:./ros_lib/std_msgs/Time.h ****       *(outbuffer + offset + 0) = (this->data.sec >> (8 * 0)) & 0xFF;
 171              		.loc 3 27 0
 172 000e FB68     		ldr	r3, [r7, #12]
 173 0010 3A68     		ldr	r2, [r7]
 174 0012 D218     		add	r2, r2, r3
 175 0014 7B68     		ldr	r3, [r7, #4]
 176 0016 5B68     		ldr	r3, [r3, #4]
 177 0018 DBB2     		uxtb	r3, r3
 178 001a 1370     		strb	r3, [r2]
  28:./ros_lib/std_msgs/Time.h ****       *(outbuffer + offset + 1) = (this->data.sec >> (8 * 1)) & 0xFF;
 179              		.loc 3 28 0
 180 001c FB68     		ldr	r3, [r7, #12]
 181 001e 0133     		add	r3, r3, #1
 182 0020 3A68     		ldr	r2, [r7]
 183 0022 D218     		add	r2, r2, r3
 184 0024 7B68     		ldr	r3, [r7, #4]
 185 0026 5B68     		ldr	r3, [r3, #4]
 186 0028 1B0A     		lsr	r3, r3, #8
 187 002a DBB2     		uxtb	r3, r3
 188 002c 1370     		strb	r3, [r2]
  29:./ros_lib/std_msgs/Time.h ****       *(outbuffer + offset + 2) = (this->data.sec >> (8 * 2)) & 0xFF;
 189              		.loc 3 29 0
 190 002e FB68     		ldr	r3, [r7, #12]
 191 0030 0233     		add	r3, r3, #2
 192 0032 3A68     		ldr	r2, [r7]
 193 0034 D218     		add	r2, r2, r3
 194 0036 7B68     		ldr	r3, [r7, #4]
 195 0038 5B68     		ldr	r3, [r3, #4]
 196 003a 1B0C     		lsr	r3, r3, #16
 197 003c DBB2     		uxtb	r3, r3
 198 003e 1370     		strb	r3, [r2]
  30:./ros_lib/std_msgs/Time.h ****       *(outbuffer + offset + 3) = (this->data.sec >> (8 * 3)) & 0xFF;
 199              		.loc 3 30 0
 200 0040 FB68     		ldr	r3, [r7, #12]
 201 0042 0333     		add	r3, r3, #3
 202 0044 3A68     		ldr	r2, [r7]
 203 0046 D218     		add	r2, r2, r3
 204 0048 7B68     		ldr	r3, [r7, #4]
 205 004a 5B68     		ldr	r3, [r3, #4]
 206 004c 1B0E     		lsr	r3, r3, #24
 207 004e DBB2     		uxtb	r3, r3
 208 0050 1370     		strb	r3, [r2]
  31:./ros_lib/std_msgs/Time.h ****       offset += sizeof(this->data.sec);
 209              		.loc 3 31 0
 210 0052 FB68     		ldr	r3, [r7, #12]
 211 0054 0433     		add	r3, r3, #4
 212 0056 FB60     		str	r3, [r7, #12]
  32:./ros_lib/std_msgs/Time.h ****       *(outbuffer + offset + 0) = (this->data.nsec >> (8 * 0)) & 0xFF;
 213              		.loc 3 32 0
 214 0058 FB68     		ldr	r3, [r7, #12]
 215 005a 3A68     		ldr	r2, [r7]
 216 005c D218     		add	r2, r2, r3
ARM GAS  C:\Users\Chuck\AppData\Local\Temp\cc5X170Y.s 			page 7


 217 005e 7B68     		ldr	r3, [r7, #4]
 218 0060 9B68     		ldr	r3, [r3, #8]
 219 0062 DBB2     		uxtb	r3, r3
 220 0064 1370     		strb	r3, [r2]
  33:./ros_lib/std_msgs/Time.h ****       *(outbuffer + offset + 1) = (this->data.nsec >> (8 * 1)) & 0xFF;
 221              		.loc 3 33 0
 222 0066 FB68     		ldr	r3, [r7, #12]
 223 0068 0133     		add	r3, r3, #1
 224 006a 3A68     		ldr	r2, [r7]
 225 006c D218     		add	r2, r2, r3
 226 006e 7B68     		ldr	r3, [r7, #4]
 227 0070 9B68     		ldr	r3, [r3, #8]
 228 0072 1B0A     		lsr	r3, r3, #8
 229 0074 DBB2     		uxtb	r3, r3
 230 0076 1370     		strb	r3, [r2]
  34:./ros_lib/std_msgs/Time.h ****       *(outbuffer + offset + 2) = (this->data.nsec >> (8 * 2)) & 0xFF;
 231              		.loc 3 34 0
 232 0078 FB68     		ldr	r3, [r7, #12]
 233 007a 0233     		add	r3, r3, #2
 234 007c 3A68     		ldr	r2, [r7]
 235 007e D218     		add	r2, r2, r3
 236 0080 7B68     		ldr	r3, [r7, #4]
 237 0082 9B68     		ldr	r3, [r3, #8]
 238 0084 1B0C     		lsr	r3, r3, #16
 239 0086 DBB2     		uxtb	r3, r3
 240 0088 1370     		strb	r3, [r2]
  35:./ros_lib/std_msgs/Time.h ****       *(outbuffer + offset + 3) = (this->data.nsec >> (8 * 3)) & 0xFF;
 241              		.loc 3 35 0
 242 008a FB68     		ldr	r3, [r7, #12]
 243 008c 0333     		add	r3, r3, #3
 244 008e 3A68     		ldr	r2, [r7]
 245 0090 D218     		add	r2, r2, r3
 246 0092 7B68     		ldr	r3, [r7, #4]
 247 0094 9B68     		ldr	r3, [r3, #8]
 248 0096 1B0E     		lsr	r3, r3, #24
 249 0098 DBB2     		uxtb	r3, r3
 250 009a 1370     		strb	r3, [r2]
  36:./ros_lib/std_msgs/Time.h ****       offset += sizeof(this->data.nsec);
 251              		.loc 3 36 0
 252 009c FB68     		ldr	r3, [r7, #12]
 253 009e 0433     		add	r3, r3, #4
 254 00a0 FB60     		str	r3, [r7, #12]
  37:./ros_lib/std_msgs/Time.h **** #endif
  38:./ros_lib/std_msgs/Time.h ****       return offset;
 255              		.loc 3 38 0
 256 00a2 FB68     		ldr	r3, [r7, #12]
 257              	.LBE5:
  39:./ros_lib/std_msgs/Time.h ****     }
 258              		.loc 3 39 0
 259 00a4 181C     		mov	r0, r3
 260 00a6 BD46     		mov	sp, r7
 261 00a8 04B0     		add	sp, sp, #16
 262              		@ sp needed
 263 00aa 80BD     		pop	{r7, pc}
 264              		.cfi_endproc
 265              	.LFE25:
 266              		.size	_ZNK8std_msgs4Time9serializeEPh, .-_ZNK8std_msgs4Time9serializeEPh
ARM GAS  C:\Users\Chuck\AppData\Local\Temp\cc5X170Y.s 			page 8


 267              		.section	.text._ZN8std_msgs4Time11deserializeEPh,"axG",%progbits,_ZN8std_msgs4Time11deserializeEPh
 268              		.align	2
 269              		.weak	_ZN8std_msgs4Time11deserializeEPh
 270              		.code	16
 271              		.thumb_func
 272              		.type	_ZN8std_msgs4Time11deserializeEPh, %function
 273              	_ZN8std_msgs4Time11deserializeEPh:
 274              	.LFB26:
  40:./ros_lib/std_msgs/Time.h **** 
  41:./ros_lib/std_msgs/Time.h ****     virtual int deserialize(unsigned char *inbuffer)
 275              		.loc 3 41 0
 276              		.cfi_startproc
 277 0000 80B5     		push	{r7, lr}
 278              		.cfi_def_cfa_offset 8
 279              		.cfi_offset 7, -8
 280              		.cfi_offset 14, -4
 281 0002 84B0     		sub	sp, sp, #16
 282              		.cfi_def_cfa_offset 24
 283 0004 00AF     		add	r7, sp, #0
 284              		.cfi_def_cfa_register 7
 285 0006 7860     		str	r0, [r7, #4]
 286 0008 3960     		str	r1, [r7]
 287              	.LBB6:
  42:./ros_lib/std_msgs/Time.h ****     {
  43:./ros_lib/std_msgs/Time.h ****       int offset = 0;
 288              		.loc 3 43 0
 289 000a 0023     		mov	r3, #0
 290 000c FB60     		str	r3, [r7, #12]
  44:./ros_lib/std_msgs/Time.h **** #ifndef ROS_MSG_DONT_DESERIALIZE
  45:./ros_lib/std_msgs/Time.h ****       this->data.sec =  ((uint32_t) (*(inbuffer + offset)));
 291              		.loc 3 45 0
 292 000e FB68     		ldr	r3, [r7, #12]
 293 0010 3A68     		ldr	r2, [r7]
 294 0012 D318     		add	r3, r2, r3
 295 0014 1B78     		ldrb	r3, [r3]
 296 0016 1A1C     		mov	r2, r3
 297 0018 7B68     		ldr	r3, [r7, #4]
 298 001a 5A60     		str	r2, [r3, #4]
  46:./ros_lib/std_msgs/Time.h ****       this->data.sec |= ((uint32_t) (*(inbuffer + offset + 1))) << (8 * 1);
 299              		.loc 3 46 0
 300 001c 7B68     		ldr	r3, [r7, #4]
 301 001e 5A68     		ldr	r2, [r3, #4]
 302 0020 FB68     		ldr	r3, [r7, #12]
 303 0022 0133     		add	r3, r3, #1
 304 0024 3968     		ldr	r1, [r7]
 305 0026 CB18     		add	r3, r1, r3
 306 0028 1B78     		ldrb	r3, [r3]
 307 002a 1B02     		lsl	r3, r3, #8
 308 002c 1A43     		orr	r2, r3
 309 002e 7B68     		ldr	r3, [r7, #4]
 310 0030 5A60     		str	r2, [r3, #4]
  47:./ros_lib/std_msgs/Time.h ****       this->data.sec |= ((uint32_t) (*(inbuffer + offset + 2))) << (8 * 2);
 311              		.loc 3 47 0
 312 0032 7B68     		ldr	r3, [r7, #4]
 313 0034 5A68     		ldr	r2, [r3, #4]
 314 0036 FB68     		ldr	r3, [r7, #12]
 315 0038 0233     		add	r3, r3, #2
ARM GAS  C:\Users\Chuck\AppData\Local\Temp\cc5X170Y.s 			page 9


 316 003a 3968     		ldr	r1, [r7]
 317 003c CB18     		add	r3, r1, r3
 318 003e 1B78     		ldrb	r3, [r3]
 319 0040 1B04     		lsl	r3, r3, #16
 320 0042 1A43     		orr	r2, r3
 321 0044 7B68     		ldr	r3, [r7, #4]
 322 0046 5A60     		str	r2, [r3, #4]
  48:./ros_lib/std_msgs/Time.h ****       this->data.sec |= ((uint32_t) (*(inbuffer + offset + 3))) << (8 * 3);
 323              		.loc 3 48 0
 324 0048 7B68     		ldr	r3, [r7, #4]
 325 004a 5A68     		ldr	r2, [r3, #4]
 326 004c FB68     		ldr	r3, [r7, #12]
 327 004e 0333     		add	r3, r3, #3
 328 0050 3968     		ldr	r1, [r7]
 329 0052 CB18     		add	r3, r1, r3
 330 0054 1B78     		ldrb	r3, [r3]
 331 0056 1B06     		lsl	r3, r3, #24
 332 0058 1A43     		orr	r2, r3
 333 005a 7B68     		ldr	r3, [r7, #4]
 334 005c 5A60     		str	r2, [r3, #4]
  49:./ros_lib/std_msgs/Time.h ****       offset += sizeof(this->data.sec);
 335              		.loc 3 49 0
 336 005e FB68     		ldr	r3, [r7, #12]
 337 0060 0433     		add	r3, r3, #4
 338 0062 FB60     		str	r3, [r7, #12]
  50:./ros_lib/std_msgs/Time.h ****       this->data.nsec =  ((uint32_t) (*(inbuffer + offset)));
 339              		.loc 3 50 0
 340 0064 FB68     		ldr	r3, [r7, #12]
 341 0066 3A68     		ldr	r2, [r7]
 342 0068 D318     		add	r3, r2, r3
 343 006a 1B78     		ldrb	r3, [r3]
 344 006c 1A1C     		mov	r2, r3
 345 006e 7B68     		ldr	r3, [r7, #4]
 346 0070 9A60     		str	r2, [r3, #8]
  51:./ros_lib/std_msgs/Time.h ****       this->data.nsec |= ((uint32_t) (*(inbuffer + offset + 1))) << (8 * 1);
 347              		.loc 3 51 0
 348 0072 7B68     		ldr	r3, [r7, #4]
 349 0074 9A68     		ldr	r2, [r3, #8]
 350 0076 FB68     		ldr	r3, [r7, #12]
 351 0078 0133     		add	r3, r3, #1
 352 007a 3968     		ldr	r1, [r7]
 353 007c CB18     		add	r3, r1, r3
 354 007e 1B78     		ldrb	r3, [r3]
 355 0080 1B02     		lsl	r3, r3, #8
 356 0082 1A43     		orr	r2, r3
 357 0084 7B68     		ldr	r3, [r7, #4]
 358 0086 9A60     		str	r2, [r3, #8]
  52:./ros_lib/std_msgs/Time.h ****       this->data.nsec |= ((uint32_t) (*(inbuffer + offset + 2))) << (8 * 2);
 359              		.loc 3 52 0
 360 0088 7B68     		ldr	r3, [r7, #4]
 361 008a 9A68     		ldr	r2, [r3, #8]
 362 008c FB68     		ldr	r3, [r7, #12]
 363 008e 0233     		add	r3, r3, #2
 364 0090 3968     		ldr	r1, [r7]
 365 0092 CB18     		add	r3, r1, r3
 366 0094 1B78     		ldrb	r3, [r3]
 367 0096 1B04     		lsl	r3, r3, #16
ARM GAS  C:\Users\Chuck\AppData\Local\Temp\cc5X170Y.s 			page 10


 368 0098 1A43     		orr	r2, r3
 369 009a 7B68     		ldr	r3, [r7, #4]
 370 009c 9A60     		str	r2, [r3, #8]
  53:./ros_lib/std_msgs/Time.h ****       this->data.nsec |= ((uint32_t) (*(inbuffer + offset + 3))) << (8 * 3);
 371              		.loc 3 53 0
 372 009e 7B68     		ldr	r3, [r7, #4]
 373 00a0 9A68     		ldr	r2, [r3, #8]
 374 00a2 FB68     		ldr	r3, [r7, #12]
 375 00a4 0333     		add	r3, r3, #3
 376 00a6 3968     		ldr	r1, [r7]
 377 00a8 CB18     		add	r3, r1, r3
 378 00aa 1B78     		ldrb	r3, [r3]
 379 00ac 1B06     		lsl	r3, r3, #24
 380 00ae 1A43     		orr	r2, r3
 381 00b0 7B68     		ldr	r3, [r7, #4]
 382 00b2 9A60     		str	r2, [r3, #8]
  54:./ros_lib/std_msgs/Time.h ****       offset += sizeof(this->data.nsec);
 383              		.loc 3 54 0
 384 00b4 FB68     		ldr	r3, [r7, #12]
 385 00b6 0433     		add	r3, r3, #4
 386 00b8 FB60     		str	r3, [r7, #12]
  55:./ros_lib/std_msgs/Time.h **** #endif
  56:./ros_lib/std_msgs/Time.h ****      return offset;
 387              		.loc 3 56 0
 388 00ba FB68     		ldr	r3, [r7, #12]
 389              	.LBE6:
  57:./ros_lib/std_msgs/Time.h ****     }
 390              		.loc 3 57 0
 391 00bc 181C     		mov	r0, r3
 392 00be BD46     		mov	sp, r7
 393 00c0 04B0     		add	sp, sp, #16
 394              		@ sp needed
 395 00c2 80BD     		pop	{r7, pc}
 396              		.cfi_endproc
 397              	.LFE26:
 398              		.size	_ZN8std_msgs4Time11deserializeEPh, .-_ZN8std_msgs4Time11deserializeEPh
 399              		.section	.rodata
 400              		.align	2
 401              	.LC2:
 402 0000 7374645F 		.ascii	"std_msgs/Time\000"
 402      6D736773 
 402      2F54696D 
 402      6500
 403              		.section	.text._ZN8std_msgs4Time7getTypeEv,"axG",%progbits,_ZN8std_msgs4Time7getTypeEv,comdat
 404              		.align	2
 405              		.weak	_ZN8std_msgs4Time7getTypeEv
 406              		.code	16
 407              		.thumb_func
 408              		.type	_ZN8std_msgs4Time7getTypeEv, %function
 409              	_ZN8std_msgs4Time7getTypeEv:
 410              	.LFB27:
  58:./ros_lib/std_msgs/Time.h **** 
  59:./ros_lib/std_msgs/Time.h ****     const char * getType(){ return "std_msgs/Time"; };
 411              		.loc 3 59 0
 412              		.cfi_startproc
 413 0000 80B5     		push	{r7, lr}
 414              		.cfi_def_cfa_offset 8
ARM GAS  C:\Users\Chuck\AppData\Local\Temp\cc5X170Y.s 			page 11


 415              		.cfi_offset 7, -8
 416              		.cfi_offset 14, -4
 417 0002 82B0     		sub	sp, sp, #8
 418              		.cfi_def_cfa_offset 16
 419 0004 00AF     		add	r7, sp, #0
 420              		.cfi_def_cfa_register 7
 421 0006 7860     		str	r0, [r7, #4]
 422              		.loc 3 59 0
 423 0008 024B     		ldr	r3, .L20
 424 000a 181C     		mov	r0, r3
 425 000c BD46     		mov	sp, r7
 426 000e 02B0     		add	sp, sp, #8
 427              		@ sp needed
 428 0010 80BD     		pop	{r7, pc}
 429              	.L21:
 430 0012 C046     		.align	2
 431              	.L20:
 432 0014 00000000 		.word	.LC2
 433              		.cfi_endproc
 434              	.LFE27:
 435              		.size	_ZN8std_msgs4Time7getTypeEv, .-_ZN8std_msgs4Time7getTypeEv
 436              		.section	.rodata
 437 000e 0000     		.align	2
 438              	.LC4:
 439 0010 63643731 		.ascii	"cd7166c74c552c311fbcc2fe5a7bc289\000"
 439      36366337 
 439      34633535 
 439      32633331 
 439      31666263 
 440              		.section	.text._ZN8std_msgs4Time6getMD5Ev,"axG",%progbits,_ZN8std_msgs4Time6getMD5Ev,comdat
 441              		.align	2
 442              		.weak	_ZN8std_msgs4Time6getMD5Ev
 443              		.code	16
 444              		.thumb_func
 445              		.type	_ZN8std_msgs4Time6getMD5Ev, %function
 446              	_ZN8std_msgs4Time6getMD5Ev:
 447              	.LFB28:
  60:./ros_lib/std_msgs/Time.h ****     const char * getMD5(){ return "cd7166c74c552c311fbcc2fe5a7bc289"; };
 448              		.loc 3 60 0
 449              		.cfi_startproc
 450 0000 80B5     		push	{r7, lr}
 451              		.cfi_def_cfa_offset 8
 452              		.cfi_offset 7, -8
 453              		.cfi_offset 14, -4
 454 0002 82B0     		sub	sp, sp, #8
 455              		.cfi_def_cfa_offset 16
 456 0004 00AF     		add	r7, sp, #0
 457              		.cfi_def_cfa_register 7
 458 0006 7860     		str	r0, [r7, #4]
 459              		.loc 3 60 0
 460 0008 024B     		ldr	r3, .L24
 461 000a 181C     		mov	r0, r3
 462 000c BD46     		mov	sp, r7
 463 000e 02B0     		add	sp, sp, #8
 464              		@ sp needed
 465 0010 80BD     		pop	{r7, pc}
 466              	.L25:
ARM GAS  C:\Users\Chuck\AppData\Local\Temp\cc5X170Y.s 			page 12


 467 0012 C046     		.align	2
 468              	.L24:
 469 0014 10000000 		.word	.LC4
 470              		.cfi_endproc
 471              	.LFE28:
 472              		.size	_ZN8std_msgs4Time6getMD5Ev, .-_ZN8std_msgs4Time6getMD5Ev
 473              		.section	.rodata
 474 0031 000000   		.align	2
 475              	.LC7:
 476 0034 00       		.ascii	"\000"
 477              		.section	.text._ZN14rosserial_msgs9TopicInfoC2Ev,"axG",%progbits,_ZN14rosserial_msgs9TopicInfoC5Ev
 478              		.align	2
 479              		.weak	_ZN14rosserial_msgs9TopicInfoC2Ev
 480              		.code	16
 481              		.thumb_func
 482              		.type	_ZN14rosserial_msgs9TopicInfoC2Ev, %function
 483              	_ZN14rosserial_msgs9TopicInfoC2Ev:
 484              	.LFB30:
 485              		.file 4 "./ros_lib/rosserial_msgs/TopicInfo.h"
   1:./ros_lib/rosserial_msgs/TopicInfo.h **** #ifndef _ROS_rosserial_msgs_TopicInfo_h
   2:./ros_lib/rosserial_msgs/TopicInfo.h **** #define _ROS_rosserial_msgs_TopicInfo_h
   3:./ros_lib/rosserial_msgs/TopicInfo.h **** 
   4:./ros_lib/rosserial_msgs/TopicInfo.h **** #include <stdint.h>
   5:./ros_lib/rosserial_msgs/TopicInfo.h **** #include <string.h>
   6:./ros_lib/rosserial_msgs/TopicInfo.h **** #include <stdlib.h>
   7:./ros_lib/rosserial_msgs/TopicInfo.h **** #include "ros/msg.h"
   8:./ros_lib/rosserial_msgs/TopicInfo.h **** 
   9:./ros_lib/rosserial_msgs/TopicInfo.h **** namespace rosserial_msgs
  10:./ros_lib/rosserial_msgs/TopicInfo.h **** {
  11:./ros_lib/rosserial_msgs/TopicInfo.h **** 
  12:./ros_lib/rosserial_msgs/TopicInfo.h ****   class TopicInfo : public ros::Msg
  13:./ros_lib/rosserial_msgs/TopicInfo.h ****   {
  14:./ros_lib/rosserial_msgs/TopicInfo.h ****     public:
  15:./ros_lib/rosserial_msgs/TopicInfo.h ****       uint16_t topic_id;
  16:./ros_lib/rosserial_msgs/TopicInfo.h ****       const char* topic_name;
  17:./ros_lib/rosserial_msgs/TopicInfo.h ****       const char* message_type;
  18:./ros_lib/rosserial_msgs/TopicInfo.h ****       const char* md5sum;
  19:./ros_lib/rosserial_msgs/TopicInfo.h ****       int32_t buffer_size;
  20:./ros_lib/rosserial_msgs/TopicInfo.h ****       enum { ID_PUBLISHER = 0 };
  21:./ros_lib/rosserial_msgs/TopicInfo.h ****       enum { ID_SUBSCRIBER = 1 };
  22:./ros_lib/rosserial_msgs/TopicInfo.h ****       enum { ID_SERVICE_SERVER = 2 };
  23:./ros_lib/rosserial_msgs/TopicInfo.h ****       enum { ID_SERVICE_CLIENT = 4 };
  24:./ros_lib/rosserial_msgs/TopicInfo.h ****       enum { ID_PARAMETER_REQUEST = 6 };
  25:./ros_lib/rosserial_msgs/TopicInfo.h ****       enum { ID_LOG = 7 };
  26:./ros_lib/rosserial_msgs/TopicInfo.h ****       enum { ID_TIME = 10 };
  27:./ros_lib/rosserial_msgs/TopicInfo.h ****       enum { ID_TX_STOP = 11 };
  28:./ros_lib/rosserial_msgs/TopicInfo.h **** 
  29:./ros_lib/rosserial_msgs/TopicInfo.h ****     TopicInfo():
 486              		.loc 4 29 0
 487              		.cfi_startproc
 488 0000 80B5     		push	{r7, lr}
 489              		.cfi_def_cfa_offset 8
 490              		.cfi_offset 7, -8
 491              		.cfi_offset 14, -4
 492 0002 82B0     		sub	sp, sp, #8
 493              		.cfi_def_cfa_offset 16
 494 0004 00AF     		add	r7, sp, #0
ARM GAS  C:\Users\Chuck\AppData\Local\Temp\cc5X170Y.s 			page 13


 495              		.cfi_def_cfa_register 7
 496 0006 7860     		str	r0, [r7, #4]
 497              	.LBB7:
  30:./ros_lib/rosserial_msgs/TopicInfo.h ****       topic_id(0),
  31:./ros_lib/rosserial_msgs/TopicInfo.h ****       topic_name(""),
  32:./ros_lib/rosserial_msgs/TopicInfo.h ****       message_type(""),
  33:./ros_lib/rosserial_msgs/TopicInfo.h ****       md5sum(""),
  34:./ros_lib/rosserial_msgs/TopicInfo.h ****       buffer_size(0)
 498              		.loc 4 34 0
 499 0008 7B68     		ldr	r3, [r7, #4]
 500 000a 181C     		mov	r0, r3
 501 000c FFF7FEFF 		bl	_ZN3ros3MsgC2Ev
 502 0010 7B68     		ldr	r3, [r7, #4]
 503 0012 0B4A     		ldr	r2, .L29
 504 0014 1A60     		str	r2, [r3]
 505 0016 7B68     		ldr	r3, [r7, #4]
 506 0018 0022     		mov	r2, #0
 507 001a 9A80     		strh	r2, [r3, #4]
 508 001c 7B68     		ldr	r3, [r7, #4]
 509 001e 094A     		ldr	r2, .L29+4
 510 0020 9A60     		str	r2, [r3, #8]
 511 0022 7B68     		ldr	r3, [r7, #4]
 512 0024 074A     		ldr	r2, .L29+4
 513 0026 DA60     		str	r2, [r3, #12]
 514 0028 7B68     		ldr	r3, [r7, #4]
 515 002a 064A     		ldr	r2, .L29+4
 516 002c 1A61     		str	r2, [r3, #16]
 517 002e 7B68     		ldr	r3, [r7, #4]
 518 0030 0022     		mov	r2, #0
 519 0032 5A61     		str	r2, [r3, #20]
 520              	.LBE7:
  35:./ros_lib/rosserial_msgs/TopicInfo.h ****     {
  36:./ros_lib/rosserial_msgs/TopicInfo.h ****     }
 521              		.loc 4 36 0
 522 0034 7B68     		ldr	r3, [r7, #4]
 523 0036 181C     		mov	r0, r3
 524 0038 BD46     		mov	sp, r7
 525 003a 02B0     		add	sp, sp, #8
 526              		@ sp needed
 527 003c 80BD     		pop	{r7, pc}
 528              	.L30:
 529 003e C046     		.align	2
 530              	.L29:
 531 0040 08000000 		.word	_ZTVN14rosserial_msgs9TopicInfoE+8
 532 0044 34000000 		.word	.LC7
 533              		.cfi_endproc
 534              	.LFE30:
 535              		.size	_ZN14rosserial_msgs9TopicInfoC2Ev, .-_ZN14rosserial_msgs9TopicInfoC2Ev
 536              		.weak	_ZN14rosserial_msgs9TopicInfoC1Ev
 537              		.thumb_set _ZN14rosserial_msgs9TopicInfoC1Ev,_ZN14rosserial_msgs9TopicInfoC2Ev
 538              		.section	.text._ZNK14rosserial_msgs9TopicInfo9serializeEPh,"axG",%progbits,_ZNK14rosserial_msgs9To
 539              		.align	2
 540              		.weak	_ZNK14rosserial_msgs9TopicInfo9serializeEPh
 541              		.code	16
 542              		.thumb_func
 543              		.type	_ZNK14rosserial_msgs9TopicInfo9serializeEPh, %function
 544              	_ZNK14rosserial_msgs9TopicInfo9serializeEPh:
ARM GAS  C:\Users\Chuck\AppData\Local\Temp\cc5X170Y.s 			page 14


 545              	.LFB32:
  37:./ros_lib/rosserial_msgs/TopicInfo.h **** 
  38:./ros_lib/rosserial_msgs/TopicInfo.h ****     virtual int serialize(unsigned char *outbuffer) const
 546              		.loc 4 38 0
 547              		.cfi_startproc
 548 0000 80B5     		push	{r7, lr}
 549              		.cfi_def_cfa_offset 8
 550              		.cfi_offset 7, -8
 551              		.cfi_offset 14, -4
 552 0002 88B0     		sub	sp, sp, #32
 553              		.cfi_def_cfa_offset 40
 554 0004 00AF     		add	r7, sp, #0
 555              		.cfi_def_cfa_register 7
 556 0006 7860     		str	r0, [r7, #4]
 557 0008 3960     		str	r1, [r7]
 558              	.LBB8:
  39:./ros_lib/rosserial_msgs/TopicInfo.h ****     {
  40:./ros_lib/rosserial_msgs/TopicInfo.h ****       int offset = 0;
 559              		.loc 4 40 0
 560 000a 0023     		mov	r3, #0
 561 000c FB61     		str	r3, [r7, #28]
  41:./ros_lib/rosserial_msgs/TopicInfo.h **** #ifndef ROS_MSG_DONT_SERIALIZE
  42:./ros_lib/rosserial_msgs/TopicInfo.h ****       *(outbuffer + offset + 0) = (this->topic_id >> (8 * 0)) & 0xFF;
 562              		.loc 4 42 0
 563 000e FB69     		ldr	r3, [r7, #28]
 564 0010 3A68     		ldr	r2, [r7]
 565 0012 D318     		add	r3, r2, r3
 566 0014 7A68     		ldr	r2, [r7, #4]
 567 0016 9288     		ldrh	r2, [r2, #4]
 568 0018 D2B2     		uxtb	r2, r2
 569 001a 1A70     		strb	r2, [r3]
  43:./ros_lib/rosserial_msgs/TopicInfo.h ****       *(outbuffer + offset + 1) = (this->topic_id >> (8 * 1)) & 0xFF;
 570              		.loc 4 43 0
 571 001c FB69     		ldr	r3, [r7, #28]
 572 001e 0133     		add	r3, r3, #1
 573 0020 3A68     		ldr	r2, [r7]
 574 0022 D318     		add	r3, r2, r3
 575 0024 7A68     		ldr	r2, [r7, #4]
 576 0026 9288     		ldrh	r2, [r2, #4]
 577 0028 120A     		lsr	r2, r2, #8
 578 002a 92B2     		uxth	r2, r2
 579 002c D2B2     		uxtb	r2, r2
 580 002e 1A70     		strb	r2, [r3]
  44:./ros_lib/rosserial_msgs/TopicInfo.h ****       offset += sizeof(this->topic_id);
 581              		.loc 4 44 0
 582 0030 FB69     		ldr	r3, [r7, #28]
 583 0032 0233     		add	r3, r3, #2
 584 0034 FB61     		str	r3, [r7, #28]
  45:./ros_lib/rosserial_msgs/TopicInfo.h ****       uint32_t length_topic_name = strlen( (const char*) this->topic_name);
 585              		.loc 4 45 0
 586 0036 7B68     		ldr	r3, [r7, #4]
 587 0038 9B68     		ldr	r3, [r3, #8]
 588 003a 181C     		mov	r0, r3
 589 003c FFF7FEFF 		bl	strlen
 590 0040 031C     		mov	r3, r0
 591 0042 BB61     		str	r3, [r7, #24]
  46:./ros_lib/rosserial_msgs/TopicInfo.h ****       memcpy(outbuffer + offset, &length_topic_name, sizeof(uint32_t));
ARM GAS  C:\Users\Chuck\AppData\Local\Temp\cc5X170Y.s 			page 15


 592              		.loc 4 46 0
 593 0044 FB69     		ldr	r3, [r7, #28]
 594 0046 3A68     		ldr	r2, [r7]
 595 0048 D218     		add	r2, r2, r3
 596 004a 1823     		mov	r3, #24
 597 004c FB18     		add	r3, r7, r3
 598 004e 101C     		mov	r0, r2
 599 0050 191C     		mov	r1, r3
 600 0052 0422     		mov	r2, #4
 601 0054 FFF7FEFF 		bl	memcpy
  47:./ros_lib/rosserial_msgs/TopicInfo.h ****       offset += 4;
 602              		.loc 4 47 0
 603 0058 FB69     		ldr	r3, [r7, #28]
 604 005a 0433     		add	r3, r3, #4
 605 005c FB61     		str	r3, [r7, #28]
  48:./ros_lib/rosserial_msgs/TopicInfo.h ****       memcpy(outbuffer + offset, this->topic_name, length_topic_name);
 606              		.loc 4 48 0
 607 005e FB69     		ldr	r3, [r7, #28]
 608 0060 3A68     		ldr	r2, [r7]
 609 0062 D118     		add	r1, r2, r3
 610 0064 7B68     		ldr	r3, [r7, #4]
 611 0066 9A68     		ldr	r2, [r3, #8]
 612 0068 BB69     		ldr	r3, [r7, #24]
 613 006a 081C     		mov	r0, r1
 614 006c 111C     		mov	r1, r2
 615 006e 1A1C     		mov	r2, r3
 616 0070 FFF7FEFF 		bl	memcpy
  49:./ros_lib/rosserial_msgs/TopicInfo.h ****       offset += length_topic_name;
 617              		.loc 4 49 0
 618 0074 FA69     		ldr	r2, [r7, #28]
 619 0076 BB69     		ldr	r3, [r7, #24]
 620 0078 D318     		add	r3, r2, r3
 621 007a FB61     		str	r3, [r7, #28]
  50:./ros_lib/rosserial_msgs/TopicInfo.h ****       uint32_t length_message_type = strlen( (const char*) this->message_type);
 622              		.loc 4 50 0
 623 007c 7B68     		ldr	r3, [r7, #4]
 624 007e DB68     		ldr	r3, [r3, #12]
 625 0080 181C     		mov	r0, r3
 626 0082 FFF7FEFF 		bl	strlen
 627 0086 031C     		mov	r3, r0
 628 0088 7B61     		str	r3, [r7, #20]
  51:./ros_lib/rosserial_msgs/TopicInfo.h ****       memcpy(outbuffer + offset, &length_message_type, sizeof(uint32_t));
 629              		.loc 4 51 0
 630 008a FB69     		ldr	r3, [r7, #28]
 631 008c 3A68     		ldr	r2, [r7]
 632 008e D218     		add	r2, r2, r3
 633 0090 1423     		mov	r3, #20
 634 0092 FB18     		add	r3, r7, r3
 635 0094 101C     		mov	r0, r2
 636 0096 191C     		mov	r1, r3
 637 0098 0422     		mov	r2, #4
 638 009a FFF7FEFF 		bl	memcpy
  52:./ros_lib/rosserial_msgs/TopicInfo.h ****       offset += 4;
 639              		.loc 4 52 0
 640 009e FB69     		ldr	r3, [r7, #28]
 641 00a0 0433     		add	r3, r3, #4
 642 00a2 FB61     		str	r3, [r7, #28]
ARM GAS  C:\Users\Chuck\AppData\Local\Temp\cc5X170Y.s 			page 16


  53:./ros_lib/rosserial_msgs/TopicInfo.h ****       memcpy(outbuffer + offset, this->message_type, length_message_type);
 643              		.loc 4 53 0
 644 00a4 FB69     		ldr	r3, [r7, #28]
 645 00a6 3A68     		ldr	r2, [r7]
 646 00a8 D118     		add	r1, r2, r3
 647 00aa 7B68     		ldr	r3, [r7, #4]
 648 00ac DA68     		ldr	r2, [r3, #12]
 649 00ae 7B69     		ldr	r3, [r7, #20]
 650 00b0 081C     		mov	r0, r1
 651 00b2 111C     		mov	r1, r2
 652 00b4 1A1C     		mov	r2, r3
 653 00b6 FFF7FEFF 		bl	memcpy
  54:./ros_lib/rosserial_msgs/TopicInfo.h ****       offset += length_message_type;
 654              		.loc 4 54 0
 655 00ba FA69     		ldr	r2, [r7, #28]
 656 00bc 7B69     		ldr	r3, [r7, #20]
 657 00be D318     		add	r3, r2, r3
 658 00c0 FB61     		str	r3, [r7, #28]
  55:./ros_lib/rosserial_msgs/TopicInfo.h ****       uint32_t length_md5sum = strlen( (const char*) this->md5sum);
 659              		.loc 4 55 0
 660 00c2 7B68     		ldr	r3, [r7, #4]
 661 00c4 1B69     		ldr	r3, [r3, #16]
 662 00c6 181C     		mov	r0, r3
 663 00c8 FFF7FEFF 		bl	strlen
 664 00cc 031C     		mov	r3, r0
 665 00ce 3B61     		str	r3, [r7, #16]
  56:./ros_lib/rosserial_msgs/TopicInfo.h ****       memcpy(outbuffer + offset, &length_md5sum, sizeof(uint32_t));
 666              		.loc 4 56 0
 667 00d0 FB69     		ldr	r3, [r7, #28]
 668 00d2 3A68     		ldr	r2, [r7]
 669 00d4 D218     		add	r2, r2, r3
 670 00d6 1023     		mov	r3, #16
 671 00d8 FB18     		add	r3, r7, r3
 672 00da 101C     		mov	r0, r2
 673 00dc 191C     		mov	r1, r3
 674 00de 0422     		mov	r2, #4
 675 00e0 FFF7FEFF 		bl	memcpy
  57:./ros_lib/rosserial_msgs/TopicInfo.h ****       offset += 4;
 676              		.loc 4 57 0
 677 00e4 FB69     		ldr	r3, [r7, #28]
 678 00e6 0433     		add	r3, r3, #4
 679 00e8 FB61     		str	r3, [r7, #28]
  58:./ros_lib/rosserial_msgs/TopicInfo.h ****       memcpy(outbuffer + offset, this->md5sum, length_md5sum);
 680              		.loc 4 58 0
 681 00ea FB69     		ldr	r3, [r7, #28]
 682 00ec 3A68     		ldr	r2, [r7]
 683 00ee D118     		add	r1, r2, r3
 684 00f0 7B68     		ldr	r3, [r7, #4]
 685 00f2 1A69     		ldr	r2, [r3, #16]
 686 00f4 3B69     		ldr	r3, [r7, #16]
 687 00f6 081C     		mov	r0, r1
 688 00f8 111C     		mov	r1, r2
 689 00fa 1A1C     		mov	r2, r3
 690 00fc FFF7FEFF 		bl	memcpy
  59:./ros_lib/rosserial_msgs/TopicInfo.h ****       offset += length_md5sum;
 691              		.loc 4 59 0
 692 0100 FA69     		ldr	r2, [r7, #28]
ARM GAS  C:\Users\Chuck\AppData\Local\Temp\cc5X170Y.s 			page 17


 693 0102 3B69     		ldr	r3, [r7, #16]
 694 0104 D318     		add	r3, r2, r3
 695 0106 FB61     		str	r3, [r7, #28]
  60:./ros_lib/rosserial_msgs/TopicInfo.h ****       union {
  61:./ros_lib/rosserial_msgs/TopicInfo.h ****         int32_t real;
  62:./ros_lib/rosserial_msgs/TopicInfo.h ****         uint32_t base;
  63:./ros_lib/rosserial_msgs/TopicInfo.h ****       } u_buffer_size;
  64:./ros_lib/rosserial_msgs/TopicInfo.h ****       u_buffer_size.real = this->buffer_size;
 696              		.loc 4 64 0
 697 0108 7B68     		ldr	r3, [r7, #4]
 698 010a 5B69     		ldr	r3, [r3, #20]
 699 010c FB60     		str	r3, [r7, #12]
  65:./ros_lib/rosserial_msgs/TopicInfo.h ****       *(outbuffer + offset + 0) = (u_buffer_size.base >> (8 * 0)) & 0xFF;
 700              		.loc 4 65 0
 701 010e FB69     		ldr	r3, [r7, #28]
 702 0110 3A68     		ldr	r2, [r7]
 703 0112 D318     		add	r3, r2, r3
 704 0114 FA68     		ldr	r2, [r7, #12]
 705 0116 D2B2     		uxtb	r2, r2
 706 0118 1A70     		strb	r2, [r3]
  66:./ros_lib/rosserial_msgs/TopicInfo.h ****       *(outbuffer + offset + 1) = (u_buffer_size.base >> (8 * 1)) & 0xFF;
 707              		.loc 4 66 0
 708 011a FB69     		ldr	r3, [r7, #28]
 709 011c 0133     		add	r3, r3, #1
 710 011e 3A68     		ldr	r2, [r7]
 711 0120 D318     		add	r3, r2, r3
 712 0122 FA68     		ldr	r2, [r7, #12]
 713 0124 120A     		lsr	r2, r2, #8
 714 0126 D2B2     		uxtb	r2, r2
 715 0128 1A70     		strb	r2, [r3]
  67:./ros_lib/rosserial_msgs/TopicInfo.h ****       *(outbuffer + offset + 2) = (u_buffer_size.base >> (8 * 2)) & 0xFF;
 716              		.loc 4 67 0
 717 012a FB69     		ldr	r3, [r7, #28]
 718 012c 0233     		add	r3, r3, #2
 719 012e 3A68     		ldr	r2, [r7]
 720 0130 D318     		add	r3, r2, r3
 721 0132 FA68     		ldr	r2, [r7, #12]
 722 0134 120C     		lsr	r2, r2, #16
 723 0136 D2B2     		uxtb	r2, r2
 724 0138 1A70     		strb	r2, [r3]
  68:./ros_lib/rosserial_msgs/TopicInfo.h ****       *(outbuffer + offset + 3) = (u_buffer_size.base >> (8 * 3)) & 0xFF;
 725              		.loc 4 68 0
 726 013a FB69     		ldr	r3, [r7, #28]
 727 013c 0333     		add	r3, r3, #3
 728 013e 3A68     		ldr	r2, [r7]
 729 0140 D318     		add	r3, r2, r3
 730 0142 FA68     		ldr	r2, [r7, #12]
 731 0144 120E     		lsr	r2, r2, #24
 732 0146 D2B2     		uxtb	r2, r2
 733 0148 1A70     		strb	r2, [r3]
  69:./ros_lib/rosserial_msgs/TopicInfo.h ****       offset += sizeof(this->buffer_size);
 734              		.loc 4 69 0
 735 014a FB69     		ldr	r3, [r7, #28]
 736 014c 0433     		add	r3, r3, #4
 737 014e FB61     		str	r3, [r7, #28]
  70:./ros_lib/rosserial_msgs/TopicInfo.h **** #endif
  71:./ros_lib/rosserial_msgs/TopicInfo.h ****       return offset;
ARM GAS  C:\Users\Chuck\AppData\Local\Temp\cc5X170Y.s 			page 18


 738              		.loc 4 71 0
 739 0150 FB69     		ldr	r3, [r7, #28]
 740              	.LBE8:
  72:./ros_lib/rosserial_msgs/TopicInfo.h ****     }
 741              		.loc 4 72 0
 742 0152 181C     		mov	r0, r3
 743 0154 BD46     		mov	sp, r7
 744 0156 08B0     		add	sp, sp, #32
 745              		@ sp needed
 746 0158 80BD     		pop	{r7, pc}
 747              		.cfi_endproc
 748              	.LFE32:
 749              		.size	_ZNK14rosserial_msgs9TopicInfo9serializeEPh, .-_ZNK14rosserial_msgs9TopicInfo9serializeEPh
 750 015a C046     		.section	.text._ZN14rosserial_msgs9TopicInfo11deserializeEPh,"axG",%progbits,_ZN14rosserial_msgs9T
 751              		.align	2
 752              		.weak	_ZN14rosserial_msgs9TopicInfo11deserializeEPh
 753              		.code	16
 754              		.thumb_func
 755              		.type	_ZN14rosserial_msgs9TopicInfo11deserializeEPh, %function
 756              	_ZN14rosserial_msgs9TopicInfo11deserializeEPh:
 757              	.LFB33:
  73:./ros_lib/rosserial_msgs/TopicInfo.h **** 
  74:./ros_lib/rosserial_msgs/TopicInfo.h ****     virtual int deserialize(unsigned char *inbuffer)
 758              		.loc 4 74 0
 759              		.cfi_startproc
 760 0000 80B5     		push	{r7, lr}
 761              		.cfi_def_cfa_offset 8
 762              		.cfi_offset 7, -8
 763              		.cfi_offset 14, -4
 764 0002 8AB0     		sub	sp, sp, #40
 765              		.cfi_def_cfa_offset 48
 766 0004 00AF     		add	r7, sp, #0
 767              		.cfi_def_cfa_register 7
 768 0006 7860     		str	r0, [r7, #4]
 769 0008 3960     		str	r1, [r7]
 770              	.LBB9:
  75:./ros_lib/rosserial_msgs/TopicInfo.h ****     {
  76:./ros_lib/rosserial_msgs/TopicInfo.h ****       int offset = 0;
 771              		.loc 4 76 0
 772 000a 0023     		mov	r3, #0
 773 000c BB61     		str	r3, [r7, #24]
  77:./ros_lib/rosserial_msgs/TopicInfo.h **** #ifndef ROS_MSG_DONT_DESERIALIZE
  78:./ros_lib/rosserial_msgs/TopicInfo.h ****       this->topic_id =  ((uint16_t) (*(inbuffer + offset)));
 774              		.loc 4 78 0
 775 000e BB69     		ldr	r3, [r7, #24]
 776 0010 3A68     		ldr	r2, [r7]
 777 0012 D318     		add	r3, r2, r3
 778 0014 1B78     		ldrb	r3, [r3]
 779 0016 9AB2     		uxth	r2, r3
 780 0018 7B68     		ldr	r3, [r7, #4]
 781 001a 9A80     		strh	r2, [r3, #4]
  79:./ros_lib/rosserial_msgs/TopicInfo.h ****       this->topic_id |= ((uint16_t) (*(inbuffer + offset + 1))) << (8 * 1);
 782              		.loc 4 79 0
 783 001c 7B68     		ldr	r3, [r7, #4]
 784 001e 9B88     		ldrh	r3, [r3, #4]
 785 0020 99B2     		uxth	r1, r3
 786 0022 BB69     		ldr	r3, [r7, #24]
ARM GAS  C:\Users\Chuck\AppData\Local\Temp\cc5X170Y.s 			page 19


 787 0024 0133     		add	r3, r3, #1
 788 0026 3A68     		ldr	r2, [r7]
 789 0028 D318     		add	r3, r2, r3
 790 002a 1B78     		ldrb	r3, [r3]
 791 002c 1B02     		lsl	r3, r3, #8
 792 002e 9BB2     		uxth	r3, r3
 793 0030 0A1C     		add	r2, r1, #0
 794 0032 1343     		orr	r3, r2
 795 0034 9BB2     		uxth	r3, r3
 796 0036 9AB2     		uxth	r2, r3
 797 0038 7B68     		ldr	r3, [r7, #4]
 798 003a 9A80     		strh	r2, [r3, #4]
  80:./ros_lib/rosserial_msgs/TopicInfo.h ****       offset += sizeof(this->topic_id);
 799              		.loc 4 80 0
 800 003c BB69     		ldr	r3, [r7, #24]
 801 003e 0233     		add	r3, r3, #2
 802 0040 BB61     		str	r3, [r7, #24]
  81:./ros_lib/rosserial_msgs/TopicInfo.h ****       uint32_t length_topic_name;
  82:./ros_lib/rosserial_msgs/TopicInfo.h ****       memcpy(&length_topic_name, (inbuffer + offset), sizeof(uint32_t));
 803              		.loc 4 82 0
 804 0042 BB69     		ldr	r3, [r7, #24]
 805 0044 3A68     		ldr	r2, [r7]
 806 0046 D318     		add	r3, r2, r3
 807 0048 1422     		mov	r2, #20
 808 004a BA18     		add	r2, r7, r2
 809 004c 101C     		mov	r0, r2
 810 004e 191C     		mov	r1, r3
 811 0050 0422     		mov	r2, #4
 812 0052 FFF7FEFF 		bl	memcpy
  83:./ros_lib/rosserial_msgs/TopicInfo.h ****       offset += 4;
 813              		.loc 4 83 0
 814 0056 BB69     		ldr	r3, [r7, #24]
 815 0058 0433     		add	r3, r3, #4
 816 005a BB61     		str	r3, [r7, #24]
 817              	.LBB10:
  84:./ros_lib/rosserial_msgs/TopicInfo.h ****       for(unsigned int k= offset; k< offset+length_topic_name; ++k){
 818              		.loc 4 84 0
 819 005c BB69     		ldr	r3, [r7, #24]
 820 005e 7B62     		str	r3, [r7, #36]
 821 0060 0BE0     		b	.L34
 822              	.L35:
  85:./ros_lib/rosserial_msgs/TopicInfo.h ****           inbuffer[k-1]=inbuffer[k];
 823              		.loc 4 85 0 discriminator 3
 824 0062 7B6A     		ldr	r3, [r7, #36]
 825 0064 013B     		sub	r3, r3, #1
 826 0066 3A68     		ldr	r2, [r7]
 827 0068 D318     		add	r3, r2, r3
 828 006a 3968     		ldr	r1, [r7]
 829 006c 7A6A     		ldr	r2, [r7, #36]
 830 006e 8A18     		add	r2, r1, r2
 831 0070 1278     		ldrb	r2, [r2]
 832 0072 1A70     		strb	r2, [r3]
  84:./ros_lib/rosserial_msgs/TopicInfo.h ****       for(unsigned int k= offset; k< offset+length_topic_name; ++k){
 833              		.loc 4 84 0 discriminator 3
 834 0074 7B6A     		ldr	r3, [r7, #36]
 835 0076 0133     		add	r3, r3, #1
 836 0078 7B62     		str	r3, [r7, #36]
ARM GAS  C:\Users\Chuck\AppData\Local\Temp\cc5X170Y.s 			page 20


 837              	.L34:
  84:./ros_lib/rosserial_msgs/TopicInfo.h ****       for(unsigned int k= offset; k< offset+length_topic_name; ++k){
 838              		.loc 4 84 0 is_stmt 0 discriminator 1
 839 007a BA69     		ldr	r2, [r7, #24]
 840 007c 7B69     		ldr	r3, [r7, #20]
 841 007e D218     		add	r2, r2, r3
 842 0080 7B6A     		ldr	r3, [r7, #36]
 843 0082 9A42     		cmp	r2, r3
 844 0084 EDD8     		bhi	.L35
 845              	.LBE10:
  86:./ros_lib/rosserial_msgs/TopicInfo.h ****       }
  87:./ros_lib/rosserial_msgs/TopicInfo.h ****       inbuffer[offset+length_topic_name-1]=0;
 846              		.loc 4 87 0 is_stmt 1
 847 0086 BA69     		ldr	r2, [r7, #24]
 848 0088 7B69     		ldr	r3, [r7, #20]
 849 008a D318     		add	r3, r2, r3
 850 008c 013B     		sub	r3, r3, #1
 851 008e 3A68     		ldr	r2, [r7]
 852 0090 D318     		add	r3, r2, r3
 853 0092 0022     		mov	r2, #0
 854 0094 1A70     		strb	r2, [r3]
  88:./ros_lib/rosserial_msgs/TopicInfo.h ****       this->topic_name = (char *)(inbuffer + offset-1);
 855              		.loc 4 88 0
 856 0096 BB69     		ldr	r3, [r7, #24]
 857 0098 013B     		sub	r3, r3, #1
 858 009a 3A68     		ldr	r2, [r7]
 859 009c D218     		add	r2, r2, r3
 860 009e 7B68     		ldr	r3, [r7, #4]
 861 00a0 9A60     		str	r2, [r3, #8]
  89:./ros_lib/rosserial_msgs/TopicInfo.h ****       offset += length_topic_name;
 862              		.loc 4 89 0
 863 00a2 BA69     		ldr	r2, [r7, #24]
 864 00a4 7B69     		ldr	r3, [r7, #20]
 865 00a6 D318     		add	r3, r2, r3
 866 00a8 BB61     		str	r3, [r7, #24]
  90:./ros_lib/rosserial_msgs/TopicInfo.h ****       uint32_t length_message_type;
  91:./ros_lib/rosserial_msgs/TopicInfo.h ****       memcpy(&length_message_type, (inbuffer + offset), sizeof(uint32_t));
 867              		.loc 4 91 0
 868 00aa BB69     		ldr	r3, [r7, #24]
 869 00ac 3A68     		ldr	r2, [r7]
 870 00ae D318     		add	r3, r2, r3
 871 00b0 1022     		mov	r2, #16
 872 00b2 BA18     		add	r2, r7, r2
 873 00b4 101C     		mov	r0, r2
 874 00b6 191C     		mov	r1, r3
 875 00b8 0422     		mov	r2, #4
 876 00ba FFF7FEFF 		bl	memcpy
  92:./ros_lib/rosserial_msgs/TopicInfo.h ****       offset += 4;
 877              		.loc 4 92 0
 878 00be BB69     		ldr	r3, [r7, #24]
 879 00c0 0433     		add	r3, r3, #4
 880 00c2 BB61     		str	r3, [r7, #24]
 881              	.LBB11:
  93:./ros_lib/rosserial_msgs/TopicInfo.h ****       for(unsigned int k= offset; k< offset+length_message_type; ++k){
 882              		.loc 4 93 0
 883 00c4 BB69     		ldr	r3, [r7, #24]
 884 00c6 3B62     		str	r3, [r7, #32]
ARM GAS  C:\Users\Chuck\AppData\Local\Temp\cc5X170Y.s 			page 21


 885 00c8 0BE0     		b	.L36
 886              	.L37:
  94:./ros_lib/rosserial_msgs/TopicInfo.h ****           inbuffer[k-1]=inbuffer[k];
 887              		.loc 4 94 0 discriminator 3
 888 00ca 3B6A     		ldr	r3, [r7, #32]
 889 00cc 013B     		sub	r3, r3, #1
 890 00ce 3A68     		ldr	r2, [r7]
 891 00d0 D318     		add	r3, r2, r3
 892 00d2 3968     		ldr	r1, [r7]
 893 00d4 3A6A     		ldr	r2, [r7, #32]
 894 00d6 8A18     		add	r2, r1, r2
 895 00d8 1278     		ldrb	r2, [r2]
 896 00da 1A70     		strb	r2, [r3]
  93:./ros_lib/rosserial_msgs/TopicInfo.h ****       for(unsigned int k= offset; k< offset+length_message_type; ++k){
 897              		.loc 4 93 0 discriminator 3
 898 00dc 3B6A     		ldr	r3, [r7, #32]
 899 00de 0133     		add	r3, r3, #1
 900 00e0 3B62     		str	r3, [r7, #32]
 901              	.L36:
  93:./ros_lib/rosserial_msgs/TopicInfo.h ****       for(unsigned int k= offset; k< offset+length_message_type; ++k){
 902              		.loc 4 93 0 is_stmt 0 discriminator 1
 903 00e2 BA69     		ldr	r2, [r7, #24]
 904 00e4 3B69     		ldr	r3, [r7, #16]
 905 00e6 D218     		add	r2, r2, r3
 906 00e8 3B6A     		ldr	r3, [r7, #32]
 907 00ea 9A42     		cmp	r2, r3
 908 00ec EDD8     		bhi	.L37
 909              	.LBE11:
  95:./ros_lib/rosserial_msgs/TopicInfo.h ****       }
  96:./ros_lib/rosserial_msgs/TopicInfo.h ****       inbuffer[offset+length_message_type-1]=0;
 910              		.loc 4 96 0 is_stmt 1
 911 00ee BA69     		ldr	r2, [r7, #24]
 912 00f0 3B69     		ldr	r3, [r7, #16]
 913 00f2 D318     		add	r3, r2, r3
 914 00f4 013B     		sub	r3, r3, #1
 915 00f6 3A68     		ldr	r2, [r7]
 916 00f8 D318     		add	r3, r2, r3
 917 00fa 0022     		mov	r2, #0
 918 00fc 1A70     		strb	r2, [r3]
  97:./ros_lib/rosserial_msgs/TopicInfo.h ****       this->message_type = (char *)(inbuffer + offset-1);
 919              		.loc 4 97 0
 920 00fe BB69     		ldr	r3, [r7, #24]
 921 0100 013B     		sub	r3, r3, #1
 922 0102 3A68     		ldr	r2, [r7]
 923 0104 D218     		add	r2, r2, r3
 924 0106 7B68     		ldr	r3, [r7, #4]
 925 0108 DA60     		str	r2, [r3, #12]
  98:./ros_lib/rosserial_msgs/TopicInfo.h ****       offset += length_message_type;
 926              		.loc 4 98 0
 927 010a BA69     		ldr	r2, [r7, #24]
 928 010c 3B69     		ldr	r3, [r7, #16]
 929 010e D318     		add	r3, r2, r3
 930 0110 BB61     		str	r3, [r7, #24]
  99:./ros_lib/rosserial_msgs/TopicInfo.h ****       uint32_t length_md5sum;
 100:./ros_lib/rosserial_msgs/TopicInfo.h ****       memcpy(&length_md5sum, (inbuffer + offset), sizeof(uint32_t));
 931              		.loc 4 100 0
 932 0112 BB69     		ldr	r3, [r7, #24]
ARM GAS  C:\Users\Chuck\AppData\Local\Temp\cc5X170Y.s 			page 22


 933 0114 3A68     		ldr	r2, [r7]
 934 0116 D318     		add	r3, r2, r3
 935 0118 0C22     		mov	r2, #12
 936 011a BA18     		add	r2, r7, r2
 937 011c 101C     		mov	r0, r2
 938 011e 191C     		mov	r1, r3
 939 0120 0422     		mov	r2, #4
 940 0122 FFF7FEFF 		bl	memcpy
 101:./ros_lib/rosserial_msgs/TopicInfo.h ****       offset += 4;
 941              		.loc 4 101 0
 942 0126 BB69     		ldr	r3, [r7, #24]
 943 0128 0433     		add	r3, r3, #4
 944 012a BB61     		str	r3, [r7, #24]
 945              	.LBB12:
 102:./ros_lib/rosserial_msgs/TopicInfo.h ****       for(unsigned int k= offset; k< offset+length_md5sum; ++k){
 946              		.loc 4 102 0
 947 012c BB69     		ldr	r3, [r7, #24]
 948 012e FB61     		str	r3, [r7, #28]
 949 0130 0BE0     		b	.L38
 950              	.L39:
 103:./ros_lib/rosserial_msgs/TopicInfo.h ****           inbuffer[k-1]=inbuffer[k];
 951              		.loc 4 103 0 discriminator 3
 952 0132 FB69     		ldr	r3, [r7, #28]
 953 0134 013B     		sub	r3, r3, #1
 954 0136 3A68     		ldr	r2, [r7]
 955 0138 D318     		add	r3, r2, r3
 956 013a 3968     		ldr	r1, [r7]
 957 013c FA69     		ldr	r2, [r7, #28]
 958 013e 8A18     		add	r2, r1, r2
 959 0140 1278     		ldrb	r2, [r2]
 960 0142 1A70     		strb	r2, [r3]
 102:./ros_lib/rosserial_msgs/TopicInfo.h ****       for(unsigned int k= offset; k< offset+length_md5sum; ++k){
 961              		.loc 4 102 0 discriminator 3
 962 0144 FB69     		ldr	r3, [r7, #28]
 963 0146 0133     		add	r3, r3, #1
 964 0148 FB61     		str	r3, [r7, #28]
 965              	.L38:
 102:./ros_lib/rosserial_msgs/TopicInfo.h ****       for(unsigned int k= offset; k< offset+length_md5sum; ++k){
 966              		.loc 4 102 0 is_stmt 0 discriminator 1
 967 014a BA69     		ldr	r2, [r7, #24]
 968 014c FB68     		ldr	r3, [r7, #12]
 969 014e D218     		add	r2, r2, r3
 970 0150 FB69     		ldr	r3, [r7, #28]
 971 0152 9A42     		cmp	r2, r3
 972 0154 EDD8     		bhi	.L39
 973              	.LBE12:
 104:./ros_lib/rosserial_msgs/TopicInfo.h ****       }
 105:./ros_lib/rosserial_msgs/TopicInfo.h ****       inbuffer[offset+length_md5sum-1]=0;
 974              		.loc 4 105 0 is_stmt 1
 975 0156 BA69     		ldr	r2, [r7, #24]
 976 0158 FB68     		ldr	r3, [r7, #12]
 977 015a D318     		add	r3, r2, r3
 978 015c 013B     		sub	r3, r3, #1
 979 015e 3A68     		ldr	r2, [r7]
 980 0160 D318     		add	r3, r2, r3
 981 0162 0022     		mov	r2, #0
 982 0164 1A70     		strb	r2, [r3]
ARM GAS  C:\Users\Chuck\AppData\Local\Temp\cc5X170Y.s 			page 23


 106:./ros_lib/rosserial_msgs/TopicInfo.h ****       this->md5sum = (char *)(inbuffer + offset-1);
 983              		.loc 4 106 0
 984 0166 BB69     		ldr	r3, [r7, #24]
 985 0168 013B     		sub	r3, r3, #1
 986 016a 3A68     		ldr	r2, [r7]
 987 016c D218     		add	r2, r2, r3
 988 016e 7B68     		ldr	r3, [r7, #4]
 989 0170 1A61     		str	r2, [r3, #16]
 107:./ros_lib/rosserial_msgs/TopicInfo.h ****       offset += length_md5sum;
 990              		.loc 4 107 0
 991 0172 BA69     		ldr	r2, [r7, #24]
 992 0174 FB68     		ldr	r3, [r7, #12]
 993 0176 D318     		add	r3, r2, r3
 994 0178 BB61     		str	r3, [r7, #24]
 108:./ros_lib/rosserial_msgs/TopicInfo.h ****       union {
 109:./ros_lib/rosserial_msgs/TopicInfo.h ****         int32_t real;
 110:./ros_lib/rosserial_msgs/TopicInfo.h ****         uint32_t base;
 111:./ros_lib/rosserial_msgs/TopicInfo.h ****       } u_buffer_size;
 112:./ros_lib/rosserial_msgs/TopicInfo.h ****       u_buffer_size.base = 0;
 995              		.loc 4 112 0
 996 017a 0023     		mov	r3, #0
 997 017c BB60     		str	r3, [r7, #8]
 113:./ros_lib/rosserial_msgs/TopicInfo.h ****       u_buffer_size.base |= ((uint32_t) (*(inbuffer + offset + 0))) << (8 * 0);
 998              		.loc 4 113 0
 999 017e BB68     		ldr	r3, [r7, #8]
 1000 0180 BA69     		ldr	r2, [r7, #24]
 1001 0182 3968     		ldr	r1, [r7]
 1002 0184 8A18     		add	r2, r1, r2
 1003 0186 1278     		ldrb	r2, [r2]
 1004 0188 1343     		orr	r3, r2
 1005 018a BB60     		str	r3, [r7, #8]
 114:./ros_lib/rosserial_msgs/TopicInfo.h ****       u_buffer_size.base |= ((uint32_t) (*(inbuffer + offset + 1))) << (8 * 1);
 1006              		.loc 4 114 0
 1007 018c BA68     		ldr	r2, [r7, #8]
 1008 018e BB69     		ldr	r3, [r7, #24]
 1009 0190 0133     		add	r3, r3, #1
 1010 0192 3968     		ldr	r1, [r7]
 1011 0194 CB18     		add	r3, r1, r3
 1012 0196 1B78     		ldrb	r3, [r3]
 1013 0198 1B02     		lsl	r3, r3, #8
 1014 019a 1343     		orr	r3, r2
 1015 019c BB60     		str	r3, [r7, #8]
 115:./ros_lib/rosserial_msgs/TopicInfo.h ****       u_buffer_size.base |= ((uint32_t) (*(inbuffer + offset + 2))) << (8 * 2);
 1016              		.loc 4 115 0
 1017 019e BA68     		ldr	r2, [r7, #8]
 1018 01a0 BB69     		ldr	r3, [r7, #24]
 1019 01a2 0233     		add	r3, r3, #2
 1020 01a4 3968     		ldr	r1, [r7]
 1021 01a6 CB18     		add	r3, r1, r3
 1022 01a8 1B78     		ldrb	r3, [r3]
 1023 01aa 1B04     		lsl	r3, r3, #16
 1024 01ac 1343     		orr	r3, r2
 1025 01ae BB60     		str	r3, [r7, #8]
 116:./ros_lib/rosserial_msgs/TopicInfo.h ****       u_buffer_size.base |= ((uint32_t) (*(inbuffer + offset + 3))) << (8 * 3);
 1026              		.loc 4 116 0
 1027 01b0 BA68     		ldr	r2, [r7, #8]
 1028 01b2 BB69     		ldr	r3, [r7, #24]
ARM GAS  C:\Users\Chuck\AppData\Local\Temp\cc5X170Y.s 			page 24


 1029 01b4 0333     		add	r3, r3, #3
 1030 01b6 3968     		ldr	r1, [r7]
 1031 01b8 CB18     		add	r3, r1, r3
 1032 01ba 1B78     		ldrb	r3, [r3]
 1033 01bc 1B06     		lsl	r3, r3, #24
 1034 01be 1343     		orr	r3, r2
 1035 01c0 BB60     		str	r3, [r7, #8]
 117:./ros_lib/rosserial_msgs/TopicInfo.h ****       this->buffer_size = u_buffer_size.real;
 1036              		.loc 4 117 0
 1037 01c2 BA68     		ldr	r2, [r7, #8]
 1038 01c4 7B68     		ldr	r3, [r7, #4]
 1039 01c6 5A61     		str	r2, [r3, #20]
 118:./ros_lib/rosserial_msgs/TopicInfo.h ****       offset += sizeof(this->buffer_size);
 1040              		.loc 4 118 0
 1041 01c8 BB69     		ldr	r3, [r7, #24]
 1042 01ca 0433     		add	r3, r3, #4
 1043 01cc BB61     		str	r3, [r7, #24]
 119:./ros_lib/rosserial_msgs/TopicInfo.h **** #endif
 120:./ros_lib/rosserial_msgs/TopicInfo.h ****      return offset;
 1044              		.loc 4 120 0
 1045 01ce BB69     		ldr	r3, [r7, #24]
 1046              	.LBE9:
 121:./ros_lib/rosserial_msgs/TopicInfo.h ****     }
 1047              		.loc 4 121 0
 1048 01d0 181C     		mov	r0, r3
 1049 01d2 BD46     		mov	sp, r7
 1050 01d4 0AB0     		add	sp, sp, #40
 1051              		@ sp needed
 1052 01d6 80BD     		pop	{r7, pc}
 1053              		.cfi_endproc
 1054              	.LFE33:
 1055              		.size	_ZN14rosserial_msgs9TopicInfo11deserializeEPh, .-_ZN14rosserial_msgs9TopicInfo11deserializeE
 1056              		.section	.rodata
 1057 0035 000000   		.align	2
 1058              	.LC9:
 1059 0038 726F7373 		.ascii	"rosserial_msgs/TopicInfo\000"
 1059      65726961 
 1059      6C5F6D73 
 1059      67732F54 
 1059      6F706963 
 1060              		.section	.text._ZN14rosserial_msgs9TopicInfo7getTypeEv,"axG",%progbits,_ZN14rosserial_msgs9TopicIn
 1061              		.align	2
 1062              		.weak	_ZN14rosserial_msgs9TopicInfo7getTypeEv
 1063              		.code	16
 1064              		.thumb_func
 1065              		.type	_ZN14rosserial_msgs9TopicInfo7getTypeEv, %function
 1066              	_ZN14rosserial_msgs9TopicInfo7getTypeEv:
 1067              	.LFB34:
 122:./ros_lib/rosserial_msgs/TopicInfo.h **** 
 123:./ros_lib/rosserial_msgs/TopicInfo.h ****     const char * getType(){ return "rosserial_msgs/TopicInfo"; };
 1068              		.loc 4 123 0
 1069              		.cfi_startproc
 1070 0000 80B5     		push	{r7, lr}
 1071              		.cfi_def_cfa_offset 8
 1072              		.cfi_offset 7, -8
 1073              		.cfi_offset 14, -4
 1074 0002 82B0     		sub	sp, sp, #8
ARM GAS  C:\Users\Chuck\AppData\Local\Temp\cc5X170Y.s 			page 25


 1075              		.cfi_def_cfa_offset 16
 1076 0004 00AF     		add	r7, sp, #0
 1077              		.cfi_def_cfa_register 7
 1078 0006 7860     		str	r0, [r7, #4]
 1079              		.loc 4 123 0
 1080 0008 024B     		ldr	r3, .L43
 1081 000a 181C     		mov	r0, r3
 1082 000c BD46     		mov	sp, r7
 1083 000e 02B0     		add	sp, sp, #8
 1084              		@ sp needed
 1085 0010 80BD     		pop	{r7, pc}
 1086              	.L44:
 1087 0012 C046     		.align	2
 1088              	.L43:
 1089 0014 38000000 		.word	.LC9
 1090              		.cfi_endproc
 1091              	.LFE34:
 1092              		.size	_ZN14rosserial_msgs9TopicInfo7getTypeEv, .-_ZN14rosserial_msgs9TopicInfo7getTypeEv
 1093              		.section	.rodata
 1094 0051 000000   		.align	2
 1095              	.LC11:
 1096 0054 30616435 		.ascii	"0ad51f88fc44892f8c10684077646005\000"
 1096      31663838 
 1096      66633434 
 1096      38393266 
 1096      38633130 
 1097              		.section	.text._ZN14rosserial_msgs9TopicInfo6getMD5Ev,"axG",%progbits,_ZN14rosserial_msgs9TopicInf
 1098              		.align	2
 1099              		.weak	_ZN14rosserial_msgs9TopicInfo6getMD5Ev
 1100              		.code	16
 1101              		.thumb_func
 1102              		.type	_ZN14rosserial_msgs9TopicInfo6getMD5Ev, %function
 1103              	_ZN14rosserial_msgs9TopicInfo6getMD5Ev:
 1104              	.LFB35:
 124:./ros_lib/rosserial_msgs/TopicInfo.h ****     const char * getMD5(){ return "0ad51f88fc44892f8c10684077646005"; };
 1105              		.loc 4 124 0
 1106              		.cfi_startproc
 1107 0000 80B5     		push	{r7, lr}
 1108              		.cfi_def_cfa_offset 8
 1109              		.cfi_offset 7, -8
 1110              		.cfi_offset 14, -4
 1111 0002 82B0     		sub	sp, sp, #8
 1112              		.cfi_def_cfa_offset 16
 1113 0004 00AF     		add	r7, sp, #0
 1114              		.cfi_def_cfa_register 7
 1115 0006 7860     		str	r0, [r7, #4]
 1116              		.loc 4 124 0
 1117 0008 024B     		ldr	r3, .L47
 1118 000a 181C     		mov	r0, r3
 1119 000c BD46     		mov	sp, r7
 1120 000e 02B0     		add	sp, sp, #8
 1121              		@ sp needed
 1122 0010 80BD     		pop	{r7, pc}
 1123              	.L48:
 1124 0012 C046     		.align	2
 1125              	.L47:
 1126 0014 54000000 		.word	.LC11
ARM GAS  C:\Users\Chuck\AppData\Local\Temp\cc5X170Y.s 			page 26


 1127              		.cfi_endproc
 1128              	.LFE35:
 1129              		.size	_ZN14rosserial_msgs9TopicInfo6getMD5Ev, .-_ZN14rosserial_msgs9TopicInfo6getMD5Ev
 1130              		.section	.text._ZN14rosserial_msgs3LogC2Ev,"axG",%progbits,_ZN14rosserial_msgs3LogC5Ev,comdat
 1131              		.align	2
 1132              		.weak	_ZN14rosserial_msgs3LogC2Ev
 1133              		.code	16
 1134              		.thumb_func
 1135              		.type	_ZN14rosserial_msgs3LogC2Ev, %function
 1136              	_ZN14rosserial_msgs3LogC2Ev:
 1137              	.LFB37:
 1138              		.file 5 "./ros_lib/rosserial_msgs/Log.h"
   1:./ros_lib/rosserial_msgs/Log.h **** #ifndef _ROS_rosserial_msgs_Log_h
   2:./ros_lib/rosserial_msgs/Log.h **** #define _ROS_rosserial_msgs_Log_h
   3:./ros_lib/rosserial_msgs/Log.h **** 
   4:./ros_lib/rosserial_msgs/Log.h **** #include <stdint.h>
   5:./ros_lib/rosserial_msgs/Log.h **** #include <string.h>
   6:./ros_lib/rosserial_msgs/Log.h **** #include <stdlib.h>
   7:./ros_lib/rosserial_msgs/Log.h **** #include "ros/msg.h"
   8:./ros_lib/rosserial_msgs/Log.h **** 
   9:./ros_lib/rosserial_msgs/Log.h **** namespace rosserial_msgs
  10:./ros_lib/rosserial_msgs/Log.h **** {
  11:./ros_lib/rosserial_msgs/Log.h **** 
  12:./ros_lib/rosserial_msgs/Log.h ****   class Log : public ros::Msg
  13:./ros_lib/rosserial_msgs/Log.h ****   {
  14:./ros_lib/rosserial_msgs/Log.h ****     public:
  15:./ros_lib/rosserial_msgs/Log.h ****       uint8_t level;
  16:./ros_lib/rosserial_msgs/Log.h ****       const char* msg;
  17:./ros_lib/rosserial_msgs/Log.h ****       enum { ROSDEBUG = 0 };
  18:./ros_lib/rosserial_msgs/Log.h ****       enum { INFO = 1 };
  19:./ros_lib/rosserial_msgs/Log.h ****       enum { WARN = 2 };
  20:./ros_lib/rosserial_msgs/Log.h ****       enum { ERROR = 3 };
  21:./ros_lib/rosserial_msgs/Log.h ****       enum { FATAL = 4 };
  22:./ros_lib/rosserial_msgs/Log.h **** 
  23:./ros_lib/rosserial_msgs/Log.h ****     Log():
 1139              		.loc 5 23 0
 1140              		.cfi_startproc
 1141 0000 80B5     		push	{r7, lr}
 1142              		.cfi_def_cfa_offset 8
 1143              		.cfi_offset 7, -8
 1144              		.cfi_offset 14, -4
 1145 0002 82B0     		sub	sp, sp, #8
 1146              		.cfi_def_cfa_offset 16
 1147 0004 00AF     		add	r7, sp, #0
 1148              		.cfi_def_cfa_register 7
 1149 0006 7860     		str	r0, [r7, #4]
 1150              	.LBB13:
  24:./ros_lib/rosserial_msgs/Log.h ****       level(0),
  25:./ros_lib/rosserial_msgs/Log.h ****       msg("")
 1151              		.loc 5 25 0
 1152 0008 7B68     		ldr	r3, [r7, #4]
 1153 000a 181C     		mov	r0, r3
 1154 000c FFF7FEFF 		bl	_ZN3ros3MsgC2Ev
 1155 0010 7B68     		ldr	r3, [r7, #4]
 1156 0012 064A     		ldr	r2, .L52
 1157 0014 1A60     		str	r2, [r3]
 1158 0016 7B68     		ldr	r3, [r7, #4]
ARM GAS  C:\Users\Chuck\AppData\Local\Temp\cc5X170Y.s 			page 27


 1159 0018 0022     		mov	r2, #0
 1160 001a 1A71     		strb	r2, [r3, #4]
 1161 001c 7B68     		ldr	r3, [r7, #4]
 1162 001e 044A     		ldr	r2, .L52+4
 1163 0020 9A60     		str	r2, [r3, #8]
 1164              	.LBE13:
  26:./ros_lib/rosserial_msgs/Log.h ****     {
  27:./ros_lib/rosserial_msgs/Log.h ****     }
 1165              		.loc 5 27 0
 1166 0022 7B68     		ldr	r3, [r7, #4]
 1167 0024 181C     		mov	r0, r3
 1168 0026 BD46     		mov	sp, r7
 1169 0028 02B0     		add	sp, sp, #8
 1170              		@ sp needed
 1171 002a 80BD     		pop	{r7, pc}
 1172              	.L53:
 1173              		.align	2
 1174              	.L52:
 1175 002c 08000000 		.word	_ZTVN14rosserial_msgs3LogE+8
 1176 0030 34000000 		.word	.LC7
 1177              		.cfi_endproc
 1178              	.LFE37:
 1179              		.size	_ZN14rosserial_msgs3LogC2Ev, .-_ZN14rosserial_msgs3LogC2Ev
 1180              		.weak	_ZN14rosserial_msgs3LogC1Ev
 1181              		.thumb_set _ZN14rosserial_msgs3LogC1Ev,_ZN14rosserial_msgs3LogC2Ev
 1182              		.section	.text._ZNK14rosserial_msgs3Log9serializeEPh,"axG",%progbits,_ZNK14rosserial_msgs3Log9seri
 1183              		.align	2
 1184              		.weak	_ZNK14rosserial_msgs3Log9serializeEPh
 1185              		.code	16
 1186              		.thumb_func
 1187              		.type	_ZNK14rosserial_msgs3Log9serializeEPh, %function
 1188              	_ZNK14rosserial_msgs3Log9serializeEPh:
 1189              	.LFB39:
  28:./ros_lib/rosserial_msgs/Log.h **** 
  29:./ros_lib/rosserial_msgs/Log.h ****     virtual int serialize(unsigned char *outbuffer) const
 1190              		.loc 5 29 0
 1191              		.cfi_startproc
 1192 0000 80B5     		push	{r7, lr}
 1193              		.cfi_def_cfa_offset 8
 1194              		.cfi_offset 7, -8
 1195              		.cfi_offset 14, -4
 1196 0002 84B0     		sub	sp, sp, #16
 1197              		.cfi_def_cfa_offset 24
 1198 0004 00AF     		add	r7, sp, #0
 1199              		.cfi_def_cfa_register 7
 1200 0006 7860     		str	r0, [r7, #4]
 1201 0008 3960     		str	r1, [r7]
 1202              	.LBB14:
  30:./ros_lib/rosserial_msgs/Log.h ****     {
  31:./ros_lib/rosserial_msgs/Log.h ****       int offset = 0;
 1203              		.loc 5 31 0
 1204 000a 0023     		mov	r3, #0
 1205 000c FB60     		str	r3, [r7, #12]
  32:./ros_lib/rosserial_msgs/Log.h **** #ifndef ROS_MSG_DONT_SERIALIZE
  33:./ros_lib/rosserial_msgs/Log.h ****       *(outbuffer + offset + 0) = (this->level >> (8 * 0)) & 0xFF;
 1206              		.loc 5 33 0
 1207 000e FB68     		ldr	r3, [r7, #12]
ARM GAS  C:\Users\Chuck\AppData\Local\Temp\cc5X170Y.s 			page 28


 1208 0010 3A68     		ldr	r2, [r7]
 1209 0012 D318     		add	r3, r2, r3
 1210 0014 7A68     		ldr	r2, [r7, #4]
 1211 0016 1279     		ldrb	r2, [r2, #4]
 1212 0018 1A70     		strb	r2, [r3]
  34:./ros_lib/rosserial_msgs/Log.h ****       offset += sizeof(this->level);
 1213              		.loc 5 34 0
 1214 001a FB68     		ldr	r3, [r7, #12]
 1215 001c 0133     		add	r3, r3, #1
 1216 001e FB60     		str	r3, [r7, #12]
  35:./ros_lib/rosserial_msgs/Log.h ****       uint32_t length_msg = strlen( (const char*) this->msg);
 1217              		.loc 5 35 0
 1218 0020 7B68     		ldr	r3, [r7, #4]
 1219 0022 9B68     		ldr	r3, [r3, #8]
 1220 0024 181C     		mov	r0, r3
 1221 0026 FFF7FEFF 		bl	strlen
 1222 002a 031C     		mov	r3, r0
 1223 002c BB60     		str	r3, [r7, #8]
  36:./ros_lib/rosserial_msgs/Log.h ****       memcpy(outbuffer + offset, &length_msg, sizeof(uint32_t));
 1224              		.loc 5 36 0
 1225 002e FB68     		ldr	r3, [r7, #12]
 1226 0030 3A68     		ldr	r2, [r7]
 1227 0032 D218     		add	r2, r2, r3
 1228 0034 0823     		mov	r3, #8
 1229 0036 FB18     		add	r3, r7, r3
 1230 0038 101C     		mov	r0, r2
 1231 003a 191C     		mov	r1, r3
 1232 003c 0422     		mov	r2, #4
 1233 003e FFF7FEFF 		bl	memcpy
  37:./ros_lib/rosserial_msgs/Log.h ****       offset += 4;
 1234              		.loc 5 37 0
 1235 0042 FB68     		ldr	r3, [r7, #12]
 1236 0044 0433     		add	r3, r3, #4
 1237 0046 FB60     		str	r3, [r7, #12]
  38:./ros_lib/rosserial_msgs/Log.h ****       memcpy(outbuffer + offset, this->msg, length_msg);
 1238              		.loc 5 38 0
 1239 0048 FB68     		ldr	r3, [r7, #12]
 1240 004a 3A68     		ldr	r2, [r7]
 1241 004c D118     		add	r1, r2, r3
 1242 004e 7B68     		ldr	r3, [r7, #4]
 1243 0050 9A68     		ldr	r2, [r3, #8]
 1244 0052 BB68     		ldr	r3, [r7, #8]
 1245 0054 081C     		mov	r0, r1
 1246 0056 111C     		mov	r1, r2
 1247 0058 1A1C     		mov	r2, r3
 1248 005a FFF7FEFF 		bl	memcpy
  39:./ros_lib/rosserial_msgs/Log.h ****       offset += length_msg;
 1249              		.loc 5 39 0
 1250 005e FA68     		ldr	r2, [r7, #12]
 1251 0060 BB68     		ldr	r3, [r7, #8]
 1252 0062 D318     		add	r3, r2, r3
 1253 0064 FB60     		str	r3, [r7, #12]
  40:./ros_lib/rosserial_msgs/Log.h **** #endif
  41:./ros_lib/rosserial_msgs/Log.h ****       return offset;
 1254              		.loc 5 41 0
 1255 0066 FB68     		ldr	r3, [r7, #12]
 1256              	.LBE14:
ARM GAS  C:\Users\Chuck\AppData\Local\Temp\cc5X170Y.s 			page 29


  42:./ros_lib/rosserial_msgs/Log.h ****     }
 1257              		.loc 5 42 0
 1258 0068 181C     		mov	r0, r3
 1259 006a BD46     		mov	sp, r7
 1260 006c 04B0     		add	sp, sp, #16
 1261              		@ sp needed
 1262 006e 80BD     		pop	{r7, pc}
 1263              		.cfi_endproc
 1264              	.LFE39:
 1265              		.size	_ZNK14rosserial_msgs3Log9serializeEPh, .-_ZNK14rosserial_msgs3Log9serializeEPh
 1266              		.section	.text._ZN14rosserial_msgs3Log11deserializeEPh,"axG",%progbits,_ZN14rosserial_msgs3Log11de
 1267              		.align	2
 1268              		.weak	_ZN14rosserial_msgs3Log11deserializeEPh
 1269              		.code	16
 1270              		.thumb_func
 1271              		.type	_ZN14rosserial_msgs3Log11deserializeEPh, %function
 1272              	_ZN14rosserial_msgs3Log11deserializeEPh:
 1273              	.LFB40:
  43:./ros_lib/rosserial_msgs/Log.h **** 
  44:./ros_lib/rosserial_msgs/Log.h ****     virtual int deserialize(unsigned char *inbuffer)
 1274              		.loc 5 44 0
 1275              		.cfi_startproc
 1276 0000 80B5     		push	{r7, lr}
 1277              		.cfi_def_cfa_offset 8
 1278              		.cfi_offset 7, -8
 1279              		.cfi_offset 14, -4
 1280 0002 86B0     		sub	sp, sp, #24
 1281              		.cfi_def_cfa_offset 32
 1282 0004 00AF     		add	r7, sp, #0
 1283              		.cfi_def_cfa_register 7
 1284 0006 7860     		str	r0, [r7, #4]
 1285 0008 3960     		str	r1, [r7]
 1286              	.LBB15:
  45:./ros_lib/rosserial_msgs/Log.h ****     {
  46:./ros_lib/rosserial_msgs/Log.h ****       int offset = 0;
 1287              		.loc 5 46 0
 1288 000a 0023     		mov	r3, #0
 1289 000c 3B61     		str	r3, [r7, #16]
  47:./ros_lib/rosserial_msgs/Log.h **** #ifndef ROS_MSG_DONT_DESERIALIZE
  48:./ros_lib/rosserial_msgs/Log.h ****       this->level =  ((uint8_t) (*(inbuffer + offset)));
 1290              		.loc 5 48 0
 1291 000e 3B69     		ldr	r3, [r7, #16]
 1292 0010 3A68     		ldr	r2, [r7]
 1293 0012 D318     		add	r3, r2, r3
 1294 0014 1A78     		ldrb	r2, [r3]
 1295 0016 7B68     		ldr	r3, [r7, #4]
 1296 0018 1A71     		strb	r2, [r3, #4]
  49:./ros_lib/rosserial_msgs/Log.h ****       offset += sizeof(this->level);
 1297              		.loc 5 49 0
 1298 001a 3B69     		ldr	r3, [r7, #16]
 1299 001c 0133     		add	r3, r3, #1
 1300 001e 3B61     		str	r3, [r7, #16]
  50:./ros_lib/rosserial_msgs/Log.h ****       uint32_t length_msg;
  51:./ros_lib/rosserial_msgs/Log.h ****       memcpy(&length_msg, (inbuffer + offset), sizeof(uint32_t));
 1301              		.loc 5 51 0
 1302 0020 3B69     		ldr	r3, [r7, #16]
 1303 0022 3A68     		ldr	r2, [r7]
ARM GAS  C:\Users\Chuck\AppData\Local\Temp\cc5X170Y.s 			page 30


 1304 0024 D318     		add	r3, r2, r3
 1305 0026 0C22     		mov	r2, #12
 1306 0028 BA18     		add	r2, r7, r2
 1307 002a 101C     		mov	r0, r2
 1308 002c 191C     		mov	r1, r3
 1309 002e 0422     		mov	r2, #4
 1310 0030 FFF7FEFF 		bl	memcpy
  52:./ros_lib/rosserial_msgs/Log.h ****       offset += 4;
 1311              		.loc 5 52 0
 1312 0034 3B69     		ldr	r3, [r7, #16]
 1313 0036 0433     		add	r3, r3, #4
 1314 0038 3B61     		str	r3, [r7, #16]
 1315              	.LBB16:
  53:./ros_lib/rosserial_msgs/Log.h ****       for(unsigned int k= offset; k< offset+length_msg; ++k){
 1316              		.loc 5 53 0
 1317 003a 3B69     		ldr	r3, [r7, #16]
 1318 003c 7B61     		str	r3, [r7, #20]
 1319 003e 0BE0     		b	.L57
 1320              	.L58:
  54:./ros_lib/rosserial_msgs/Log.h ****           inbuffer[k-1]=inbuffer[k];
 1321              		.loc 5 54 0 discriminator 3
 1322 0040 7B69     		ldr	r3, [r7, #20]
 1323 0042 013B     		sub	r3, r3, #1
 1324 0044 3A68     		ldr	r2, [r7]
 1325 0046 D318     		add	r3, r2, r3
 1326 0048 3968     		ldr	r1, [r7]
 1327 004a 7A69     		ldr	r2, [r7, #20]
 1328 004c 8A18     		add	r2, r1, r2
 1329 004e 1278     		ldrb	r2, [r2]
 1330 0050 1A70     		strb	r2, [r3]
  53:./ros_lib/rosserial_msgs/Log.h ****       for(unsigned int k= offset; k< offset+length_msg; ++k){
 1331              		.loc 5 53 0 discriminator 3
 1332 0052 7B69     		ldr	r3, [r7, #20]
 1333 0054 0133     		add	r3, r3, #1
 1334 0056 7B61     		str	r3, [r7, #20]
 1335              	.L57:
  53:./ros_lib/rosserial_msgs/Log.h ****       for(unsigned int k= offset; k< offset+length_msg; ++k){
 1336              		.loc 5 53 0 is_stmt 0 discriminator 1
 1337 0058 3A69     		ldr	r2, [r7, #16]
 1338 005a FB68     		ldr	r3, [r7, #12]
 1339 005c D218     		add	r2, r2, r3
 1340 005e 7B69     		ldr	r3, [r7, #20]
 1341 0060 9A42     		cmp	r2, r3
 1342 0062 EDD8     		bhi	.L58
 1343              	.LBE16:
  55:./ros_lib/rosserial_msgs/Log.h ****       }
  56:./ros_lib/rosserial_msgs/Log.h ****       inbuffer[offset+length_msg-1]=0;
 1344              		.loc 5 56 0 is_stmt 1
 1345 0064 3A69     		ldr	r2, [r7, #16]
 1346 0066 FB68     		ldr	r3, [r7, #12]
 1347 0068 D318     		add	r3, r2, r3
 1348 006a 013B     		sub	r3, r3, #1
 1349 006c 3A68     		ldr	r2, [r7]
 1350 006e D318     		add	r3, r2, r3
 1351 0070 0022     		mov	r2, #0
 1352 0072 1A70     		strb	r2, [r3]
  57:./ros_lib/rosserial_msgs/Log.h ****       this->msg = (char *)(inbuffer + offset-1);
ARM GAS  C:\Users\Chuck\AppData\Local\Temp\cc5X170Y.s 			page 31


 1353              		.loc 5 57 0
 1354 0074 3B69     		ldr	r3, [r7, #16]
 1355 0076 013B     		sub	r3, r3, #1
 1356 0078 3A68     		ldr	r2, [r7]
 1357 007a D218     		add	r2, r2, r3
 1358 007c 7B68     		ldr	r3, [r7, #4]
 1359 007e 9A60     		str	r2, [r3, #8]
  58:./ros_lib/rosserial_msgs/Log.h ****       offset += length_msg;
 1360              		.loc 5 58 0
 1361 0080 3A69     		ldr	r2, [r7, #16]
 1362 0082 FB68     		ldr	r3, [r7, #12]
 1363 0084 D318     		add	r3, r2, r3
 1364 0086 3B61     		str	r3, [r7, #16]
  59:./ros_lib/rosserial_msgs/Log.h **** #endif
  60:./ros_lib/rosserial_msgs/Log.h ****      return offset;
 1365              		.loc 5 60 0
 1366 0088 3B69     		ldr	r3, [r7, #16]
 1367              	.LBE15:
  61:./ros_lib/rosserial_msgs/Log.h ****     }
 1368              		.loc 5 61 0
 1369 008a 181C     		mov	r0, r3
 1370 008c BD46     		mov	sp, r7
 1371 008e 06B0     		add	sp, sp, #24
 1372              		@ sp needed
 1373 0090 80BD     		pop	{r7, pc}
 1374              		.cfi_endproc
 1375              	.LFE40:
 1376              		.size	_ZN14rosserial_msgs3Log11deserializeEPh, .-_ZN14rosserial_msgs3Log11deserializeEPh
 1377 0092 C046     		.section	.rodata
 1378 0075 000000   		.align	2
 1379              	.LC15:
 1380 0078 726F7373 		.ascii	"rosserial_msgs/Log\000"
 1380      65726961 
 1380      6C5F6D73 
 1380      67732F4C 
 1380      6F6700
 1381              		.section	.text._ZN14rosserial_msgs3Log7getTypeEv,"axG",%progbits,_ZN14rosserial_msgs3Log7getTypeEv
 1382              		.align	2
 1383              		.weak	_ZN14rosserial_msgs3Log7getTypeEv
 1384              		.code	16
 1385              		.thumb_func
 1386              		.type	_ZN14rosserial_msgs3Log7getTypeEv, %function
 1387              	_ZN14rosserial_msgs3Log7getTypeEv:
 1388              	.LFB41:
  62:./ros_lib/rosserial_msgs/Log.h **** 
  63:./ros_lib/rosserial_msgs/Log.h ****     const char * getType(){ return "rosserial_msgs/Log"; };
 1389              		.loc 5 63 0
 1390              		.cfi_startproc
 1391 0000 80B5     		push	{r7, lr}
 1392              		.cfi_def_cfa_offset 8
 1393              		.cfi_offset 7, -8
 1394              		.cfi_offset 14, -4
 1395 0002 82B0     		sub	sp, sp, #8
 1396              		.cfi_def_cfa_offset 16
 1397 0004 00AF     		add	r7, sp, #0
 1398              		.cfi_def_cfa_register 7
 1399 0006 7860     		str	r0, [r7, #4]
ARM GAS  C:\Users\Chuck\AppData\Local\Temp\cc5X170Y.s 			page 32


 1400              		.loc 5 63 0
 1401 0008 024B     		ldr	r3, .L62
 1402 000a 181C     		mov	r0, r3
 1403 000c BD46     		mov	sp, r7
 1404 000e 02B0     		add	sp, sp, #8
 1405              		@ sp needed
 1406 0010 80BD     		pop	{r7, pc}
 1407              	.L63:
 1408 0012 C046     		.align	2
 1409              	.L62:
 1410 0014 78000000 		.word	.LC15
 1411              		.cfi_endproc
 1412              	.LFE41:
 1413              		.size	_ZN14rosserial_msgs3Log7getTypeEv, .-_ZN14rosserial_msgs3Log7getTypeEv
 1414              		.section	.rodata
 1415 008b 00       		.align	2
 1416              	.LC17:
 1417 008c 31316162 		.ascii	"11abd731c25933261cd6183bd12d6295\000"
 1417      64373331 
 1417      63323539 
 1417      33333236 
 1417      31636436 
 1418              		.section	.text._ZN14rosserial_msgs3Log6getMD5Ev,"axG",%progbits,_ZN14rosserial_msgs3Log6getMD5Ev,c
 1419              		.align	2
 1420              		.weak	_ZN14rosserial_msgs3Log6getMD5Ev
 1421              		.code	16
 1422              		.thumb_func
 1423              		.type	_ZN14rosserial_msgs3Log6getMD5Ev, %function
 1424              	_ZN14rosserial_msgs3Log6getMD5Ev:
 1425              	.LFB42:
  64:./ros_lib/rosserial_msgs/Log.h ****     const char * getMD5(){ return "11abd731c25933261cd6183bd12d6295"; };
 1426              		.loc 5 64 0
 1427              		.cfi_startproc
 1428 0000 80B5     		push	{r7, lr}
 1429              		.cfi_def_cfa_offset 8
 1430              		.cfi_offset 7, -8
 1431              		.cfi_offset 14, -4
 1432 0002 82B0     		sub	sp, sp, #8
 1433              		.cfi_def_cfa_offset 16
 1434 0004 00AF     		add	r7, sp, #0
 1435              		.cfi_def_cfa_register 7
 1436 0006 7860     		str	r0, [r7, #4]
 1437              		.loc 5 64 0
 1438 0008 024B     		ldr	r3, .L66
 1439 000a 181C     		mov	r0, r3
 1440 000c BD46     		mov	sp, r7
 1441 000e 02B0     		add	sp, sp, #8
 1442              		@ sp needed
 1443 0010 80BD     		pop	{r7, pc}
 1444              	.L67:
 1445 0012 C046     		.align	2
 1446              	.L66:
 1447 0014 8C000000 		.word	.LC17
 1448              		.cfi_endproc
 1449              	.LFE42:
 1450              		.size	_ZN14rosserial_msgs3Log6getMD5Ev, .-_ZN14rosserial_msgs3Log6getMD5Ev
 1451              		.section	.text._ZN14rosserial_msgs20RequestParamResponseC2Ev,"axG",%progbits,_ZN14rosserial_msgs20
ARM GAS  C:\Users\Chuck\AppData\Local\Temp\cc5X170Y.s 			page 33


 1452              		.align	2
 1453              		.weak	_ZN14rosserial_msgs20RequestParamResponseC2Ev
 1454              		.code	16
 1455              		.thumb_func
 1456              		.type	_ZN14rosserial_msgs20RequestParamResponseC2Ev, %function
 1457              	_ZN14rosserial_msgs20RequestParamResponseC2Ev:
 1458              	.LFB51:
 1459              		.file 6 "./ros_lib/rosserial_msgs/RequestParam.h"
   1:./ros_lib/rosserial_msgs/RequestParam.h **** #ifndef _ROS_SERVICE_RequestParam_h
   2:./ros_lib/rosserial_msgs/RequestParam.h **** #define _ROS_SERVICE_RequestParam_h
   3:./ros_lib/rosserial_msgs/RequestParam.h **** #include <stdint.h>
   4:./ros_lib/rosserial_msgs/RequestParam.h **** #include <string.h>
   5:./ros_lib/rosserial_msgs/RequestParam.h **** #include <stdlib.h>
   6:./ros_lib/rosserial_msgs/RequestParam.h **** #include "ros/msg.h"
   7:./ros_lib/rosserial_msgs/RequestParam.h **** 
   8:./ros_lib/rosserial_msgs/RequestParam.h **** namespace rosserial_msgs
   9:./ros_lib/rosserial_msgs/RequestParam.h **** {
  10:./ros_lib/rosserial_msgs/RequestParam.h **** 
  11:./ros_lib/rosserial_msgs/RequestParam.h **** static const char REQUESTPARAM[] = "rosserial_msgs/RequestParam";
  12:./ros_lib/rosserial_msgs/RequestParam.h **** 
  13:./ros_lib/rosserial_msgs/RequestParam.h ****   class RequestParamRequest : public ros::Msg
  14:./ros_lib/rosserial_msgs/RequestParam.h ****   {
  15:./ros_lib/rosserial_msgs/RequestParam.h ****     public:
  16:./ros_lib/rosserial_msgs/RequestParam.h ****       const char* name;
  17:./ros_lib/rosserial_msgs/RequestParam.h **** 
  18:./ros_lib/rosserial_msgs/RequestParam.h ****     RequestParamRequest():
  19:./ros_lib/rosserial_msgs/RequestParam.h ****       name("")
  20:./ros_lib/rosserial_msgs/RequestParam.h ****     {
  21:./ros_lib/rosserial_msgs/RequestParam.h ****     }
  22:./ros_lib/rosserial_msgs/RequestParam.h **** 
  23:./ros_lib/rosserial_msgs/RequestParam.h ****     virtual int serialize(unsigned char *outbuffer) const
  24:./ros_lib/rosserial_msgs/RequestParam.h ****     {
  25:./ros_lib/rosserial_msgs/RequestParam.h ****       int offset = 0;
  26:./ros_lib/rosserial_msgs/RequestParam.h **** #ifndef ROS_MSG_DONT_SERIALIZE
  27:./ros_lib/rosserial_msgs/RequestParam.h ****       uint32_t length_name = strlen( (const char*) this->name);
  28:./ros_lib/rosserial_msgs/RequestParam.h ****       memcpy(outbuffer + offset, &length_name, sizeof(uint32_t));
  29:./ros_lib/rosserial_msgs/RequestParam.h ****       offset += 4;
  30:./ros_lib/rosserial_msgs/RequestParam.h ****       memcpy(outbuffer + offset, this->name, length_name);
  31:./ros_lib/rosserial_msgs/RequestParam.h ****       offset += length_name;
  32:./ros_lib/rosserial_msgs/RequestParam.h **** #endif
  33:./ros_lib/rosserial_msgs/RequestParam.h ****       return offset;
  34:./ros_lib/rosserial_msgs/RequestParam.h ****     }
  35:./ros_lib/rosserial_msgs/RequestParam.h **** 
  36:./ros_lib/rosserial_msgs/RequestParam.h ****     virtual int deserialize(unsigned char *inbuffer)
  37:./ros_lib/rosserial_msgs/RequestParam.h ****     {
  38:./ros_lib/rosserial_msgs/RequestParam.h ****       int offset = 0;
  39:./ros_lib/rosserial_msgs/RequestParam.h **** #ifndef ROS_MSG_DONT_DESERIALIZE
  40:./ros_lib/rosserial_msgs/RequestParam.h ****       uint32_t length_name;
  41:./ros_lib/rosserial_msgs/RequestParam.h ****       memcpy(&length_name, (inbuffer + offset), sizeof(uint32_t));
  42:./ros_lib/rosserial_msgs/RequestParam.h ****       offset += 4;
  43:./ros_lib/rosserial_msgs/RequestParam.h ****       for(unsigned int k= offset; k< offset+length_name; ++k){
  44:./ros_lib/rosserial_msgs/RequestParam.h ****           inbuffer[k-1]=inbuffer[k];
  45:./ros_lib/rosserial_msgs/RequestParam.h ****       }
  46:./ros_lib/rosserial_msgs/RequestParam.h ****       inbuffer[offset+length_name-1]=0;
  47:./ros_lib/rosserial_msgs/RequestParam.h ****       this->name = (char *)(inbuffer + offset-1);
  48:./ros_lib/rosserial_msgs/RequestParam.h ****       offset += length_name;
  49:./ros_lib/rosserial_msgs/RequestParam.h **** #endif
ARM GAS  C:\Users\Chuck\AppData\Local\Temp\cc5X170Y.s 			page 34


  50:./ros_lib/rosserial_msgs/RequestParam.h ****      return offset;
  51:./ros_lib/rosserial_msgs/RequestParam.h ****     }
  52:./ros_lib/rosserial_msgs/RequestParam.h **** 
  53:./ros_lib/rosserial_msgs/RequestParam.h ****     const char * getType(){ return REQUESTPARAM; };
  54:./ros_lib/rosserial_msgs/RequestParam.h ****     const char * getMD5(){ return "c1f3d28f1b044c871e6eff2e9fc3c667"; };
  55:./ros_lib/rosserial_msgs/RequestParam.h **** 
  56:./ros_lib/rosserial_msgs/RequestParam.h ****   };
  57:./ros_lib/rosserial_msgs/RequestParam.h **** 
  58:./ros_lib/rosserial_msgs/RequestParam.h ****   class RequestParamResponse : public ros::Msg
  59:./ros_lib/rosserial_msgs/RequestParam.h ****   {
  60:./ros_lib/rosserial_msgs/RequestParam.h ****     public:
  61:./ros_lib/rosserial_msgs/RequestParam.h ****       uint8_t ints_length;
  62:./ros_lib/rosserial_msgs/RequestParam.h ****       int32_t st_ints;
  63:./ros_lib/rosserial_msgs/RequestParam.h ****       int32_t * ints;
  64:./ros_lib/rosserial_msgs/RequestParam.h ****       uint8_t floats_length;
  65:./ros_lib/rosserial_msgs/RequestParam.h ****       float st_floats;
  66:./ros_lib/rosserial_msgs/RequestParam.h ****       float * floats;
  67:./ros_lib/rosserial_msgs/RequestParam.h ****       uint8_t strings_length;
  68:./ros_lib/rosserial_msgs/RequestParam.h ****       char* st_strings;
  69:./ros_lib/rosserial_msgs/RequestParam.h ****       char* * strings;
  70:./ros_lib/rosserial_msgs/RequestParam.h **** 
  71:./ros_lib/rosserial_msgs/RequestParam.h ****     RequestParamResponse():
 1460              		.loc 6 71 0
 1461              		.cfi_startproc
 1462 0000 80B5     		push	{r7, lr}
 1463              		.cfi_def_cfa_offset 8
 1464              		.cfi_offset 7, -8
 1465              		.cfi_offset 14, -4
 1466 0002 82B0     		sub	sp, sp, #8
 1467              		.cfi_def_cfa_offset 16
 1468 0004 00AF     		add	r7, sp, #0
 1469              		.cfi_def_cfa_register 7
 1470 0006 7860     		str	r0, [r7, #4]
 1471              	.LBB17:
  72:./ros_lib/rosserial_msgs/RequestParam.h ****       ints_length(0), ints(NULL),
  73:./ros_lib/rosserial_msgs/RequestParam.h ****       floats_length(0), floats(NULL),
  74:./ros_lib/rosserial_msgs/RequestParam.h ****       strings_length(0), strings(NULL)
 1472              		.loc 6 74 0
 1473 0008 7B68     		ldr	r3, [r7, #4]
 1474 000a 181C     		mov	r0, r3
 1475 000c FFF7FEFF 		bl	_ZN3ros3MsgC2Ev
 1476 0010 7B68     		ldr	r3, [r7, #4]
 1477 0012 0C4A     		ldr	r2, .L71
 1478 0014 1A60     		str	r2, [r3]
 1479 0016 7B68     		ldr	r3, [r7, #4]
 1480 0018 0022     		mov	r2, #0
 1481 001a 1A71     		strb	r2, [r3, #4]
 1482 001c 7B68     		ldr	r3, [r7, #4]
 1483 001e 0022     		mov	r2, #0
 1484 0020 DA60     		str	r2, [r3, #12]
 1485 0022 7B68     		ldr	r3, [r7, #4]
 1486 0024 0022     		mov	r2, #0
 1487 0026 1A74     		strb	r2, [r3, #16]
 1488 0028 7B68     		ldr	r3, [r7, #4]
 1489 002a 0022     		mov	r2, #0
 1490 002c 9A61     		str	r2, [r3, #24]
 1491 002e 7B68     		ldr	r3, [r7, #4]
ARM GAS  C:\Users\Chuck\AppData\Local\Temp\cc5X170Y.s 			page 35


 1492 0030 0022     		mov	r2, #0
 1493 0032 1A77     		strb	r2, [r3, #28]
 1494 0034 7B68     		ldr	r3, [r7, #4]
 1495 0036 0022     		mov	r2, #0
 1496 0038 5A62     		str	r2, [r3, #36]
 1497              	.LBE17:
  75:./ros_lib/rosserial_msgs/RequestParam.h ****     {
  76:./ros_lib/rosserial_msgs/RequestParam.h ****     }
 1498              		.loc 6 76 0
 1499 003a 7B68     		ldr	r3, [r7, #4]
 1500 003c 181C     		mov	r0, r3
 1501 003e BD46     		mov	sp, r7
 1502 0040 02B0     		add	sp, sp, #8
 1503              		@ sp needed
 1504 0042 80BD     		pop	{r7, pc}
 1505              	.L72:
 1506              		.align	2
 1507              	.L71:
 1508 0044 08000000 		.word	_ZTVN14rosserial_msgs20RequestParamResponseE+8
 1509              		.cfi_endproc
 1510              	.LFE51:
 1511              		.size	_ZN14rosserial_msgs20RequestParamResponseC2Ev, .-_ZN14rosserial_msgs20RequestParamResponseC2
 1512              		.weak	_ZN14rosserial_msgs20RequestParamResponseC1Ev
 1513              		.thumb_set _ZN14rosserial_msgs20RequestParamResponseC1Ev,_ZN14rosserial_msgs20RequestParamResponse
 1514              		.section	.text._ZNK14rosserial_msgs20RequestParamResponse9serializeEPh,"axG",%progbits,_ZNK14rosse
 1515              		.align	2
 1516              		.weak	_ZNK14rosserial_msgs20RequestParamResponse9serializeEPh
 1517              		.code	16
 1518              		.thumb_func
 1519              		.type	_ZNK14rosserial_msgs20RequestParamResponse9serializeEPh, %function
 1520              	_ZNK14rosserial_msgs20RequestParamResponse9serializeEPh:
 1521              	.LFB53:
  77:./ros_lib/rosserial_msgs/RequestParam.h **** 
  78:./ros_lib/rosserial_msgs/RequestParam.h ****     virtual int serialize(unsigned char *outbuffer) const
 1522              		.loc 6 78 0
 1523              		.cfi_startproc
 1524 0000 80B5     		push	{r7, lr}
 1525              		.cfi_def_cfa_offset 8
 1526              		.cfi_offset 7, -8
 1527              		.cfi_offset 14, -4
 1528 0002 88B0     		sub	sp, sp, #32
 1529              		.cfi_def_cfa_offset 40
 1530 0004 00AF     		add	r7, sp, #0
 1531              		.cfi_def_cfa_register 7
 1532 0006 7860     		str	r0, [r7, #4]
 1533 0008 3960     		str	r1, [r7]
 1534              	.LBB18:
  79:./ros_lib/rosserial_msgs/RequestParam.h ****     {
  80:./ros_lib/rosserial_msgs/RequestParam.h ****       int offset = 0;
 1535              		.loc 6 80 0
 1536 000a 0023     		mov	r3, #0
 1537 000c FB61     		str	r3, [r7, #28]
  81:./ros_lib/rosserial_msgs/RequestParam.h **** #ifndef ROS_MSG_DONT_SERIALIZE
  82:./ros_lib/rosserial_msgs/RequestParam.h ****       *(outbuffer + offset++) = ints_length;
 1538              		.loc 6 82 0
 1539 000e FB69     		ldr	r3, [r7, #28]
 1540 0010 5A1C     		add	r2, r3, #1
ARM GAS  C:\Users\Chuck\AppData\Local\Temp\cc5X170Y.s 			page 36


 1541 0012 FA61     		str	r2, [r7, #28]
 1542 0014 1A1C     		mov	r2, r3
 1543 0016 3B68     		ldr	r3, [r7]
 1544 0018 9B18     		add	r3, r3, r2
 1545 001a 7A68     		ldr	r2, [r7, #4]
 1546 001c 1279     		ldrb	r2, [r2, #4]
 1547 001e 1A70     		strb	r2, [r3]
  83:./ros_lib/rosserial_msgs/RequestParam.h ****       *(outbuffer + offset++) = 0;
 1548              		.loc 6 83 0
 1549 0020 FB69     		ldr	r3, [r7, #28]
 1550 0022 5A1C     		add	r2, r3, #1
 1551 0024 FA61     		str	r2, [r7, #28]
 1552 0026 1A1C     		mov	r2, r3
 1553 0028 3B68     		ldr	r3, [r7]
 1554 002a 9B18     		add	r3, r3, r2
 1555 002c 0022     		mov	r2, #0
 1556 002e 1A70     		strb	r2, [r3]
  84:./ros_lib/rosserial_msgs/RequestParam.h ****       *(outbuffer + offset++) = 0;
 1557              		.loc 6 84 0
 1558 0030 FB69     		ldr	r3, [r7, #28]
 1559 0032 5A1C     		add	r2, r3, #1
 1560 0034 FA61     		str	r2, [r7, #28]
 1561 0036 1A1C     		mov	r2, r3
 1562 0038 3B68     		ldr	r3, [r7]
 1563 003a 9B18     		add	r3, r3, r2
 1564 003c 0022     		mov	r2, #0
 1565 003e 1A70     		strb	r2, [r3]
  85:./ros_lib/rosserial_msgs/RequestParam.h ****       *(outbuffer + offset++) = 0;
 1566              		.loc 6 85 0
 1567 0040 FB69     		ldr	r3, [r7, #28]
 1568 0042 5A1C     		add	r2, r3, #1
 1569 0044 FA61     		str	r2, [r7, #28]
 1570 0046 1A1C     		mov	r2, r3
 1571 0048 3B68     		ldr	r3, [r7]
 1572 004a 9B18     		add	r3, r3, r2
 1573 004c 0022     		mov	r2, #0
 1574 004e 1A70     		strb	r2, [r3]
 1575              	.LBB19:
  86:./ros_lib/rosserial_msgs/RequestParam.h ****       for( uint8_t i = 0; i < ints_length; i++){
 1576              		.loc 6 86 0
 1577 0050 1B23     		mov	r3, #27
 1578 0052 FB18     		add	r3, r7, r3
 1579 0054 0022     		mov	r2, #0
 1580 0056 1A70     		strb	r2, [r3]
 1581 0058 30E0     		b	.L74
 1582              	.L75:
 1583              	.LBB20:
  87:./ros_lib/rosserial_msgs/RequestParam.h ****       union {
  88:./ros_lib/rosserial_msgs/RequestParam.h ****         int32_t real;
  89:./ros_lib/rosserial_msgs/RequestParam.h ****         uint32_t base;
  90:./ros_lib/rosserial_msgs/RequestParam.h ****       } u_intsi;
  91:./ros_lib/rosserial_msgs/RequestParam.h ****       u_intsi.real = this->ints[i];
 1584              		.loc 6 91 0 discriminator 3
 1585 005a 7B68     		ldr	r3, [r7, #4]
 1586 005c DA68     		ldr	r2, [r3, #12]
 1587 005e 1B23     		mov	r3, #27
 1588 0060 FB18     		add	r3, r7, r3
ARM GAS  C:\Users\Chuck\AppData\Local\Temp\cc5X170Y.s 			page 37


 1589 0062 1B78     		ldrb	r3, [r3]
 1590 0064 9B00     		lsl	r3, r3, #2
 1591 0066 D318     		add	r3, r2, r3
 1592 0068 1B68     		ldr	r3, [r3]
 1593 006a 7B61     		str	r3, [r7, #20]
  92:./ros_lib/rosserial_msgs/RequestParam.h ****       *(outbuffer + offset + 0) = (u_intsi.base >> (8 * 0)) & 0xFF;
 1594              		.loc 6 92 0 discriminator 3
 1595 006c FB69     		ldr	r3, [r7, #28]
 1596 006e 3A68     		ldr	r2, [r7]
 1597 0070 D318     		add	r3, r2, r3
 1598 0072 7A69     		ldr	r2, [r7, #20]
 1599 0074 D2B2     		uxtb	r2, r2
 1600 0076 1A70     		strb	r2, [r3]
  93:./ros_lib/rosserial_msgs/RequestParam.h ****       *(outbuffer + offset + 1) = (u_intsi.base >> (8 * 1)) & 0xFF;
 1601              		.loc 6 93 0 discriminator 3
 1602 0078 FB69     		ldr	r3, [r7, #28]
 1603 007a 0133     		add	r3, r3, #1
 1604 007c 3A68     		ldr	r2, [r7]
 1605 007e D318     		add	r3, r2, r3
 1606 0080 7A69     		ldr	r2, [r7, #20]
 1607 0082 120A     		lsr	r2, r2, #8
 1608 0084 D2B2     		uxtb	r2, r2
 1609 0086 1A70     		strb	r2, [r3]
  94:./ros_lib/rosserial_msgs/RequestParam.h ****       *(outbuffer + offset + 2) = (u_intsi.base >> (8 * 2)) & 0xFF;
 1610              		.loc 6 94 0 discriminator 3
 1611 0088 FB69     		ldr	r3, [r7, #28]
 1612 008a 0233     		add	r3, r3, #2
 1613 008c 3A68     		ldr	r2, [r7]
 1614 008e D318     		add	r3, r2, r3
 1615 0090 7A69     		ldr	r2, [r7, #20]
 1616 0092 120C     		lsr	r2, r2, #16
 1617 0094 D2B2     		uxtb	r2, r2
 1618 0096 1A70     		strb	r2, [r3]
  95:./ros_lib/rosserial_msgs/RequestParam.h ****       *(outbuffer + offset + 3) = (u_intsi.base >> (8 * 3)) & 0xFF;
 1619              		.loc 6 95 0 discriminator 3
 1620 0098 FB69     		ldr	r3, [r7, #28]
 1621 009a 0333     		add	r3, r3, #3
 1622 009c 3A68     		ldr	r2, [r7]
 1623 009e D318     		add	r3, r2, r3
 1624 00a0 7A69     		ldr	r2, [r7, #20]
 1625 00a2 120E     		lsr	r2, r2, #24
 1626 00a4 D2B2     		uxtb	r2, r2
 1627 00a6 1A70     		strb	r2, [r3]
  96:./ros_lib/rosserial_msgs/RequestParam.h ****       offset += sizeof(this->ints[i]);
 1628              		.loc 6 96 0 discriminator 3
 1629 00a8 FB69     		ldr	r3, [r7, #28]
 1630 00aa 0433     		add	r3, r3, #4
 1631 00ac FB61     		str	r3, [r7, #28]
 1632              	.LBE20:
  86:./ros_lib/rosserial_msgs/RequestParam.h ****       union {
 1633              		.loc 6 86 0 discriminator 3
 1634 00ae 1B23     		mov	r3, #27
 1635 00b0 FB18     		add	r3, r7, r3
 1636 00b2 1A78     		ldrb	r2, [r3]
 1637 00b4 1B23     		mov	r3, #27
 1638 00b6 FB18     		add	r3, r7, r3
 1639 00b8 0132     		add	r2, r2, #1
ARM GAS  C:\Users\Chuck\AppData\Local\Temp\cc5X170Y.s 			page 38


 1640 00ba 1A70     		strb	r2, [r3]
 1641              	.L74:
  86:./ros_lib/rosserial_msgs/RequestParam.h ****       union {
 1642              		.loc 6 86 0 is_stmt 0 discriminator 1
 1643 00bc 7B68     		ldr	r3, [r7, #4]
 1644 00be 1B79     		ldrb	r3, [r3, #4]
 1645 00c0 1B22     		mov	r2, #27
 1646 00c2 BA18     		add	r2, r7, r2
 1647 00c4 1278     		ldrb	r2, [r2]
 1648 00c6 9A42     		cmp	r2, r3
 1649 00c8 C7D3     		bcc	.L75
 1650              	.LBE19:
  97:./ros_lib/rosserial_msgs/RequestParam.h ****       }
  98:./ros_lib/rosserial_msgs/RequestParam.h ****       *(outbuffer + offset++) = floats_length;
 1651              		.loc 6 98 0 is_stmt 1
 1652 00ca FB69     		ldr	r3, [r7, #28]
 1653 00cc 5A1C     		add	r2, r3, #1
 1654 00ce FA61     		str	r2, [r7, #28]
 1655 00d0 1A1C     		mov	r2, r3
 1656 00d2 3B68     		ldr	r3, [r7]
 1657 00d4 9B18     		add	r3, r3, r2
 1658 00d6 7A68     		ldr	r2, [r7, #4]
 1659 00d8 127C     		ldrb	r2, [r2, #16]
 1660 00da 1A70     		strb	r2, [r3]
  99:./ros_lib/rosserial_msgs/RequestParam.h ****       *(outbuffer + offset++) = 0;
 1661              		.loc 6 99 0
 1662 00dc FB69     		ldr	r3, [r7, #28]
 1663 00de 5A1C     		add	r2, r3, #1
 1664 00e0 FA61     		str	r2, [r7, #28]
 1665 00e2 1A1C     		mov	r2, r3
 1666 00e4 3B68     		ldr	r3, [r7]
 1667 00e6 9B18     		add	r3, r3, r2
 1668 00e8 0022     		mov	r2, #0
 1669 00ea 1A70     		strb	r2, [r3]
 100:./ros_lib/rosserial_msgs/RequestParam.h ****       *(outbuffer + offset++) = 0;
 1670              		.loc 6 100 0
 1671 00ec FB69     		ldr	r3, [r7, #28]
 1672 00ee 5A1C     		add	r2, r3, #1
 1673 00f0 FA61     		str	r2, [r7, #28]
 1674 00f2 1A1C     		mov	r2, r3
 1675 00f4 3B68     		ldr	r3, [r7]
 1676 00f6 9B18     		add	r3, r3, r2
 1677 00f8 0022     		mov	r2, #0
 1678 00fa 1A70     		strb	r2, [r3]
 101:./ros_lib/rosserial_msgs/RequestParam.h ****       *(outbuffer + offset++) = 0;
 1679              		.loc 6 101 0
 1680 00fc FB69     		ldr	r3, [r7, #28]
 1681 00fe 5A1C     		add	r2, r3, #1
 1682 0100 FA61     		str	r2, [r7, #28]
 1683 0102 1A1C     		mov	r2, r3
 1684 0104 3B68     		ldr	r3, [r7]
 1685 0106 9B18     		add	r3, r3, r2
 1686 0108 0022     		mov	r2, #0
 1687 010a 1A70     		strb	r2, [r3]
 1688              	.LBB21:
 102:./ros_lib/rosserial_msgs/RequestParam.h ****       for( uint8_t i = 0; i < floats_length; i++){
 1689              		.loc 6 102 0
ARM GAS  C:\Users\Chuck\AppData\Local\Temp\cc5X170Y.s 			page 39


 1690 010c 1A23     		mov	r3, #26
 1691 010e FB18     		add	r3, r7, r3
 1692 0110 0022     		mov	r2, #0
 1693 0112 1A70     		strb	r2, [r3]
 1694 0114 30E0     		b	.L76
 1695              	.L77:
 1696              	.LBB22:
 103:./ros_lib/rosserial_msgs/RequestParam.h ****       union {
 104:./ros_lib/rosserial_msgs/RequestParam.h ****         float real;
 105:./ros_lib/rosserial_msgs/RequestParam.h ****         uint32_t base;
 106:./ros_lib/rosserial_msgs/RequestParam.h ****       } u_floatsi;
 107:./ros_lib/rosserial_msgs/RequestParam.h ****       u_floatsi.real = this->floats[i];
 1697              		.loc 6 107 0 discriminator 3
 1698 0116 7B68     		ldr	r3, [r7, #4]
 1699 0118 9A69     		ldr	r2, [r3, #24]
 1700 011a 1A23     		mov	r3, #26
 1701 011c FB18     		add	r3, r7, r3
 1702 011e 1B78     		ldrb	r3, [r3]
 1703 0120 9B00     		lsl	r3, r3, #2
 1704 0122 D318     		add	r3, r2, r3
 1705 0124 1B68     		ldr	r3, [r3]
 1706 0126 3B61     		str	r3, [r7, #16]
 108:./ros_lib/rosserial_msgs/RequestParam.h ****       *(outbuffer + offset + 0) = (u_floatsi.base >> (8 * 0)) & 0xFF;
 1707              		.loc 6 108 0 discriminator 3
 1708 0128 FB69     		ldr	r3, [r7, #28]
 1709 012a 3A68     		ldr	r2, [r7]
 1710 012c D318     		add	r3, r2, r3
 1711 012e 3A69     		ldr	r2, [r7, #16]
 1712 0130 D2B2     		uxtb	r2, r2
 1713 0132 1A70     		strb	r2, [r3]
 109:./ros_lib/rosserial_msgs/RequestParam.h ****       *(outbuffer + offset + 1) = (u_floatsi.base >> (8 * 1)) & 0xFF;
 1714              		.loc 6 109 0 discriminator 3
 1715 0134 FB69     		ldr	r3, [r7, #28]
 1716 0136 0133     		add	r3, r3, #1
 1717 0138 3A68     		ldr	r2, [r7]
 1718 013a D318     		add	r3, r2, r3
 1719 013c 3A69     		ldr	r2, [r7, #16]
 1720 013e 120A     		lsr	r2, r2, #8
 1721 0140 D2B2     		uxtb	r2, r2
 1722 0142 1A70     		strb	r2, [r3]
 110:./ros_lib/rosserial_msgs/RequestParam.h ****       *(outbuffer + offset + 2) = (u_floatsi.base >> (8 * 2)) & 0xFF;
 1723              		.loc 6 110 0 discriminator 3
 1724 0144 FB69     		ldr	r3, [r7, #28]
 1725 0146 0233     		add	r3, r3, #2
 1726 0148 3A68     		ldr	r2, [r7]
 1727 014a D318     		add	r3, r2, r3
 1728 014c 3A69     		ldr	r2, [r7, #16]
 1729 014e 120C     		lsr	r2, r2, #16
 1730 0150 D2B2     		uxtb	r2, r2
 1731 0152 1A70     		strb	r2, [r3]
 111:./ros_lib/rosserial_msgs/RequestParam.h ****       *(outbuffer + offset + 3) = (u_floatsi.base >> (8 * 3)) & 0xFF;
 1732              		.loc 6 111 0 discriminator 3
 1733 0154 FB69     		ldr	r3, [r7, #28]
 1734 0156 0333     		add	r3, r3, #3
 1735 0158 3A68     		ldr	r2, [r7]
 1736 015a D318     		add	r3, r2, r3
 1737 015c 3A69     		ldr	r2, [r7, #16]
ARM GAS  C:\Users\Chuck\AppData\Local\Temp\cc5X170Y.s 			page 40


 1738 015e 120E     		lsr	r2, r2, #24
 1739 0160 D2B2     		uxtb	r2, r2
 1740 0162 1A70     		strb	r2, [r3]
 112:./ros_lib/rosserial_msgs/RequestParam.h ****       offset += sizeof(this->floats[i]);
 1741              		.loc 6 112 0 discriminator 3
 1742 0164 FB69     		ldr	r3, [r7, #28]
 1743 0166 0433     		add	r3, r3, #4
 1744 0168 FB61     		str	r3, [r7, #28]
 1745              	.LBE22:
 102:./ros_lib/rosserial_msgs/RequestParam.h ****       union {
 1746              		.loc 6 102 0 discriminator 3
 1747 016a 1A23     		mov	r3, #26
 1748 016c FB18     		add	r3, r7, r3
 1749 016e 1A78     		ldrb	r2, [r3]
 1750 0170 1A23     		mov	r3, #26
 1751 0172 FB18     		add	r3, r7, r3
 1752 0174 0132     		add	r2, r2, #1
 1753 0176 1A70     		strb	r2, [r3]
 1754              	.L76:
 102:./ros_lib/rosserial_msgs/RequestParam.h ****       union {
 1755              		.loc 6 102 0 is_stmt 0 discriminator 1
 1756 0178 7B68     		ldr	r3, [r7, #4]
 1757 017a 1B7C     		ldrb	r3, [r3, #16]
 1758 017c 1A22     		mov	r2, #26
 1759 017e BA18     		add	r2, r7, r2
 1760 0180 1278     		ldrb	r2, [r2]
 1761 0182 9A42     		cmp	r2, r3
 1762 0184 C7D3     		bcc	.L77
 1763              	.LBE21:
 113:./ros_lib/rosserial_msgs/RequestParam.h ****       }
 114:./ros_lib/rosserial_msgs/RequestParam.h ****       *(outbuffer + offset++) = strings_length;
 1764              		.loc 6 114 0 is_stmt 1
 1765 0186 FB69     		ldr	r3, [r7, #28]
 1766 0188 5A1C     		add	r2, r3, #1
 1767 018a FA61     		str	r2, [r7, #28]
 1768 018c 1A1C     		mov	r2, r3
 1769 018e 3B68     		ldr	r3, [r7]
 1770 0190 9B18     		add	r3, r3, r2
 1771 0192 7A68     		ldr	r2, [r7, #4]
 1772 0194 127F     		ldrb	r2, [r2, #28]
 1773 0196 1A70     		strb	r2, [r3]
 115:./ros_lib/rosserial_msgs/RequestParam.h ****       *(outbuffer + offset++) = 0;
 1774              		.loc 6 115 0
 1775 0198 FB69     		ldr	r3, [r7, #28]
 1776 019a 5A1C     		add	r2, r3, #1
 1777 019c FA61     		str	r2, [r7, #28]
 1778 019e 1A1C     		mov	r2, r3
 1779 01a0 3B68     		ldr	r3, [r7]
 1780 01a2 9B18     		add	r3, r3, r2
 1781 01a4 0022     		mov	r2, #0
 1782 01a6 1A70     		strb	r2, [r3]
 116:./ros_lib/rosserial_msgs/RequestParam.h ****       *(outbuffer + offset++) = 0;
 1783              		.loc 6 116 0
 1784 01a8 FB69     		ldr	r3, [r7, #28]
 1785 01aa 5A1C     		add	r2, r3, #1
 1786 01ac FA61     		str	r2, [r7, #28]
 1787 01ae 1A1C     		mov	r2, r3
ARM GAS  C:\Users\Chuck\AppData\Local\Temp\cc5X170Y.s 			page 41


 1788 01b0 3B68     		ldr	r3, [r7]
 1789 01b2 9B18     		add	r3, r3, r2
 1790 01b4 0022     		mov	r2, #0
 1791 01b6 1A70     		strb	r2, [r3]
 117:./ros_lib/rosserial_msgs/RequestParam.h ****       *(outbuffer + offset++) = 0;
 1792              		.loc 6 117 0
 1793 01b8 FB69     		ldr	r3, [r7, #28]
 1794 01ba 5A1C     		add	r2, r3, #1
 1795 01bc FA61     		str	r2, [r7, #28]
 1796 01be 1A1C     		mov	r2, r3
 1797 01c0 3B68     		ldr	r3, [r7]
 1798 01c2 9B18     		add	r3, r3, r2
 1799 01c4 0022     		mov	r2, #0
 1800 01c6 1A70     		strb	r2, [r3]
 1801              	.LBB23:
 118:./ros_lib/rosserial_msgs/RequestParam.h ****       for( uint8_t i = 0; i < strings_length; i++){
 1802              		.loc 6 118 0
 1803 01c8 1923     		mov	r3, #25
 1804 01ca FB18     		add	r3, r7, r3
 1805 01cc 0022     		mov	r2, #0
 1806 01ce 1A70     		strb	r2, [r3]
 1807 01d0 35E0     		b	.L78
 1808              	.L79:
 1809              	.LBB24:
 119:./ros_lib/rosserial_msgs/RequestParam.h ****       uint32_t length_stringsi = strlen( (const char*) this->strings[i]);
 1810              		.loc 6 119 0 discriminator 3
 1811 01d2 7B68     		ldr	r3, [r7, #4]
 1812 01d4 5A6A     		ldr	r2, [r3, #36]
 1813 01d6 1923     		mov	r3, #25
 1814 01d8 FB18     		add	r3, r7, r3
 1815 01da 1B78     		ldrb	r3, [r3]
 1816 01dc 9B00     		lsl	r3, r3, #2
 1817 01de D318     		add	r3, r2, r3
 1818 01e0 1B68     		ldr	r3, [r3]
 1819 01e2 181C     		mov	r0, r3
 1820 01e4 FFF7FEFF 		bl	strlen
 1821 01e8 031C     		mov	r3, r0
 1822 01ea FB60     		str	r3, [r7, #12]
 120:./ros_lib/rosserial_msgs/RequestParam.h ****       memcpy(outbuffer + offset, &length_stringsi, sizeof(uint32_t));
 1823              		.loc 6 120 0 discriminator 3
 1824 01ec FB69     		ldr	r3, [r7, #28]
 1825 01ee 3A68     		ldr	r2, [r7]
 1826 01f0 D218     		add	r2, r2, r3
 1827 01f2 0C23     		mov	r3, #12
 1828 01f4 FB18     		add	r3, r7, r3
 1829 01f6 101C     		mov	r0, r2
 1830 01f8 191C     		mov	r1, r3
 1831 01fa 0422     		mov	r2, #4
 1832 01fc FFF7FEFF 		bl	memcpy
 121:./ros_lib/rosserial_msgs/RequestParam.h ****       offset += 4;
 1833              		.loc 6 121 0 discriminator 3
 1834 0200 FB69     		ldr	r3, [r7, #28]
 1835 0202 0433     		add	r3, r3, #4
 1836 0204 FB61     		str	r3, [r7, #28]
 122:./ros_lib/rosserial_msgs/RequestParam.h ****       memcpy(outbuffer + offset, this->strings[i], length_stringsi);
 1837              		.loc 6 122 0 discriminator 3
 1838 0206 FB69     		ldr	r3, [r7, #28]
ARM GAS  C:\Users\Chuck\AppData\Local\Temp\cc5X170Y.s 			page 42


 1839 0208 3A68     		ldr	r2, [r7]
 1840 020a D118     		add	r1, r2, r3
 1841 020c 7B68     		ldr	r3, [r7, #4]
 1842 020e 5A6A     		ldr	r2, [r3, #36]
 1843 0210 1923     		mov	r3, #25
 1844 0212 FB18     		add	r3, r7, r3
 1845 0214 1B78     		ldrb	r3, [r3]
 1846 0216 9B00     		lsl	r3, r3, #2
 1847 0218 D318     		add	r3, r2, r3
 1848 021a 1A68     		ldr	r2, [r3]
 1849 021c FB68     		ldr	r3, [r7, #12]
 1850 021e 081C     		mov	r0, r1
 1851 0220 111C     		mov	r1, r2
 1852 0222 1A1C     		mov	r2, r3
 1853 0224 FFF7FEFF 		bl	memcpy
 123:./ros_lib/rosserial_msgs/RequestParam.h ****       offset += length_stringsi;
 1854              		.loc 6 123 0 discriminator 3
 1855 0228 FA69     		ldr	r2, [r7, #28]
 1856 022a FB68     		ldr	r3, [r7, #12]
 1857 022c D318     		add	r3, r2, r3
 1858 022e FB61     		str	r3, [r7, #28]
 1859              	.LBE24:
 118:./ros_lib/rosserial_msgs/RequestParam.h ****       uint32_t length_stringsi = strlen( (const char*) this->strings[i]);
 1860              		.loc 6 118 0 discriminator 3
 1861 0230 1923     		mov	r3, #25
 1862 0232 FB18     		add	r3, r7, r3
 1863 0234 1A78     		ldrb	r2, [r3]
 1864 0236 1923     		mov	r3, #25
 1865 0238 FB18     		add	r3, r7, r3
 1866 023a 0132     		add	r2, r2, #1
 1867 023c 1A70     		strb	r2, [r3]
 1868              	.L78:
 118:./ros_lib/rosserial_msgs/RequestParam.h ****       uint32_t length_stringsi = strlen( (const char*) this->strings[i]);
 1869              		.loc 6 118 0 is_stmt 0 discriminator 1
 1870 023e 7B68     		ldr	r3, [r7, #4]
 1871 0240 1B7F     		ldrb	r3, [r3, #28]
 1872 0242 1922     		mov	r2, #25
 1873 0244 BA18     		add	r2, r7, r2
 1874 0246 1278     		ldrb	r2, [r2]
 1875 0248 9A42     		cmp	r2, r3
 1876 024a C2D3     		bcc	.L79
 1877              	.LBE23:
 124:./ros_lib/rosserial_msgs/RequestParam.h ****       }
 125:./ros_lib/rosserial_msgs/RequestParam.h **** #endif
 126:./ros_lib/rosserial_msgs/RequestParam.h ****       return offset;
 1878              		.loc 6 126 0 is_stmt 1
 1879 024c FB69     		ldr	r3, [r7, #28]
 1880              	.LBE18:
 127:./ros_lib/rosserial_msgs/RequestParam.h ****     }
 1881              		.loc 6 127 0
 1882 024e 181C     		mov	r0, r3
 1883 0250 BD46     		mov	sp, r7
 1884 0252 08B0     		add	sp, sp, #32
 1885              		@ sp needed
 1886 0254 80BD     		pop	{r7, pc}
 1887              		.cfi_endproc
 1888              	.LFE53:
ARM GAS  C:\Users\Chuck\AppData\Local\Temp\cc5X170Y.s 			page 43


 1889              		.size	_ZNK14rosserial_msgs20RequestParamResponse9serializeEPh, .-_ZNK14rosserial_msgs20RequestPara
 1890 0256 C046     		.section	.text._ZN14rosserial_msgs20RequestParamResponse11deserializeEPh,"axG",%progbits,_ZN14ross
 1891              		.align	2
 1892              		.weak	_ZN14rosserial_msgs20RequestParamResponse11deserializeEPh
 1893              		.code	16
 1894              		.thumb_func
 1895              		.type	_ZN14rosserial_msgs20RequestParamResponse11deserializeEPh, %function
 1896              	_ZN14rosserial_msgs20RequestParamResponse11deserializeEPh:
 1897              	.LFB54:
 128:./ros_lib/rosserial_msgs/RequestParam.h **** 
 129:./ros_lib/rosserial_msgs/RequestParam.h ****     virtual int deserialize(unsigned char *inbuffer)
 1898              		.loc 6 129 0
 1899              		.cfi_startproc
 1900 0000 80B5     		push	{r7, lr}
 1901              		.cfi_def_cfa_offset 8
 1902              		.cfi_offset 7, -8
 1903              		.cfi_offset 14, -4
 1904 0002 8AB0     		sub	sp, sp, #40
 1905              		.cfi_def_cfa_offset 48
 1906 0004 00AF     		add	r7, sp, #0
 1907              		.cfi_def_cfa_register 7
 1908 0006 7860     		str	r0, [r7, #4]
 1909 0008 3960     		str	r1, [r7]
 1910              	.LBB25:
 130:./ros_lib/rosserial_msgs/RequestParam.h ****     {
 131:./ros_lib/rosserial_msgs/RequestParam.h ****       int offset = 0;
 1911              		.loc 6 131 0
 1912 000a 0023     		mov	r3, #0
 1913 000c 7B62     		str	r3, [r7, #36]
 132:./ros_lib/rosserial_msgs/RequestParam.h **** #ifndef ROS_MSG_DONT_DESERIALIZE
 133:./ros_lib/rosserial_msgs/RequestParam.h ****       uint8_t ints_lengthT = *(inbuffer + offset++);
 1914              		.loc 6 133 0
 1915 000e 7B6A     		ldr	r3, [r7, #36]
 1916 0010 5A1C     		add	r2, r3, #1
 1917 0012 7A62     		str	r2, [r7, #36]
 1918 0014 1A1C     		mov	r2, r3
 1919 0016 3B68     		ldr	r3, [r7]
 1920 0018 9A18     		add	r2, r3, r2
 1921 001a 1B23     		mov	r3, #27
 1922 001c FB18     		add	r3, r7, r3
 1923 001e 1278     		ldrb	r2, [r2]
 1924 0020 1A70     		strb	r2, [r3]
 134:./ros_lib/rosserial_msgs/RequestParam.h ****       if(ints_lengthT < ints_length)
 1925              		.loc 6 134 0
 1926 0022 7B68     		ldr	r3, [r7, #4]
 1927 0024 1B79     		ldrb	r3, [r3, #4]
 1928 0026 1B22     		mov	r2, #27
 1929 0028 BA18     		add	r2, r7, r2
 1930 002a 1278     		ldrb	r2, [r2]
 1931 002c 9A42     		cmp	r2, r3
 1932 002e 04D2     		bcs	.L82
 135:./ros_lib/rosserial_msgs/RequestParam.h ****         ints_length = ints_lengthT;
 1933              		.loc 6 135 0
 1934 0030 7B68     		ldr	r3, [r7, #4]
 1935 0032 1B22     		mov	r2, #27
 1936 0034 BA18     		add	r2, r7, r2
 1937 0036 1278     		ldrb	r2, [r2]
ARM GAS  C:\Users\Chuck\AppData\Local\Temp\cc5X170Y.s 			page 44


 1938 0038 1A71     		strb	r2, [r3, #4]
 1939              	.L82:
 136:./ros_lib/rosserial_msgs/RequestParam.h ****       offset += 3;
 1940              		.loc 6 136 0
 1941 003a 7B6A     		ldr	r3, [r7, #36]
 1942 003c 0333     		add	r3, r3, #3
 1943 003e 7B62     		str	r3, [r7, #36]
 1944              	.LBB26:
 137:./ros_lib/rosserial_msgs/RequestParam.h ****       for( uint8_t i = 0; i < ints_lengthT; i++){
 1945              		.loc 6 137 0
 1946 0040 2323     		mov	r3, #35
 1947 0042 FB18     		add	r3, r7, r3
 1948 0044 0022     		mov	r2, #0
 1949 0046 1A70     		strb	r2, [r3]
 1950 0048 45E0     		b	.L83
 1951              	.L85:
 1952              	.LBB27:
 138:./ros_lib/rosserial_msgs/RequestParam.h ****       union {
 139:./ros_lib/rosserial_msgs/RequestParam.h ****         int32_t real;
 140:./ros_lib/rosserial_msgs/RequestParam.h ****         uint32_t base;
 141:./ros_lib/rosserial_msgs/RequestParam.h ****       } u_st_ints;
 142:./ros_lib/rosserial_msgs/RequestParam.h ****       u_st_ints.base = 0;
 1953              		.loc 6 142 0
 1954 004a 0023     		mov	r3, #0
 1955 004c 7B61     		str	r3, [r7, #20]
 143:./ros_lib/rosserial_msgs/RequestParam.h ****       u_st_ints.base |= ((uint32_t) (*(inbuffer + offset + 0))) << (8 * 0);
 1956              		.loc 6 143 0
 1957 004e 7B69     		ldr	r3, [r7, #20]
 1958 0050 7A6A     		ldr	r2, [r7, #36]
 1959 0052 3968     		ldr	r1, [r7]
 1960 0054 8A18     		add	r2, r1, r2
 1961 0056 1278     		ldrb	r2, [r2]
 1962 0058 1343     		orr	r3, r2
 1963 005a 7B61     		str	r3, [r7, #20]
 144:./ros_lib/rosserial_msgs/RequestParam.h ****       u_st_ints.base |= ((uint32_t) (*(inbuffer + offset + 1))) << (8 * 1);
 1964              		.loc 6 144 0
 1965 005c 7A69     		ldr	r2, [r7, #20]
 1966 005e 7B6A     		ldr	r3, [r7, #36]
 1967 0060 0133     		add	r3, r3, #1
 1968 0062 3968     		ldr	r1, [r7]
 1969 0064 CB18     		add	r3, r1, r3
 1970 0066 1B78     		ldrb	r3, [r3]
 1971 0068 1B02     		lsl	r3, r3, #8
 1972 006a 1343     		orr	r3, r2
 1973 006c 7B61     		str	r3, [r7, #20]
 145:./ros_lib/rosserial_msgs/RequestParam.h ****       u_st_ints.base |= ((uint32_t) (*(inbuffer + offset + 2))) << (8 * 2);
 1974              		.loc 6 145 0
 1975 006e 7A69     		ldr	r2, [r7, #20]
 1976 0070 7B6A     		ldr	r3, [r7, #36]
 1977 0072 0233     		add	r3, r3, #2
 1978 0074 3968     		ldr	r1, [r7]
 1979 0076 CB18     		add	r3, r1, r3
 1980 0078 1B78     		ldrb	r3, [r3]
 1981 007a 1B04     		lsl	r3, r3, #16
 1982 007c 1343     		orr	r3, r2
 1983 007e 7B61     		str	r3, [r7, #20]
 146:./ros_lib/rosserial_msgs/RequestParam.h ****       u_st_ints.base |= ((uint32_t) (*(inbuffer + offset + 3))) << (8 * 3);
ARM GAS  C:\Users\Chuck\AppData\Local\Temp\cc5X170Y.s 			page 45


 1984              		.loc 6 146 0
 1985 0080 7A69     		ldr	r2, [r7, #20]
 1986 0082 7B6A     		ldr	r3, [r7, #36]
 1987 0084 0333     		add	r3, r3, #3
 1988 0086 3968     		ldr	r1, [r7]
 1989 0088 CB18     		add	r3, r1, r3
 1990 008a 1B78     		ldrb	r3, [r3]
 1991 008c 1B06     		lsl	r3, r3, #24
 1992 008e 1343     		orr	r3, r2
 1993 0090 7B61     		str	r3, [r7, #20]
 147:./ros_lib/rosserial_msgs/RequestParam.h ****       this->st_ints = u_st_ints.real;
 1994              		.loc 6 147 0
 1995 0092 7A69     		ldr	r2, [r7, #20]
 1996 0094 7B68     		ldr	r3, [r7, #4]
 1997 0096 9A60     		str	r2, [r3, #8]
 148:./ros_lib/rosserial_msgs/RequestParam.h ****       offset += sizeof(this->st_ints);
 1998              		.loc 6 148 0
 1999 0098 7B6A     		ldr	r3, [r7, #36]
 2000 009a 0433     		add	r3, r3, #4
 2001 009c 7B62     		str	r3, [r7, #36]
 149:./ros_lib/rosserial_msgs/RequestParam.h ****       if (i < ints_length) {
 2002              		.loc 6 149 0
 2003 009e 7B68     		ldr	r3, [r7, #4]
 2004 00a0 1B79     		ldrb	r3, [r3, #4]
 2005 00a2 2322     		mov	r2, #35
 2006 00a4 BA18     		add	r2, r7, r2
 2007 00a6 1278     		ldrb	r2, [r2]
 2008 00a8 9A42     		cmp	r2, r3
 2009 00aa 0DD2     		bcs	.L84
 150:./ros_lib/rosserial_msgs/RequestParam.h ****           memcpy( &(this->ints[i]), &(this->st_ints), sizeof(int32_t));
 2010              		.loc 6 150 0
 2011 00ac 7B68     		ldr	r3, [r7, #4]
 2012 00ae DA68     		ldr	r2, [r3, #12]
 2013 00b0 2323     		mov	r3, #35
 2014 00b2 FB18     		add	r3, r7, r3
 2015 00b4 1B78     		ldrb	r3, [r3]
 2016 00b6 9B00     		lsl	r3, r3, #2
 2017 00b8 D218     		add	r2, r2, r3
 2018 00ba 7B68     		ldr	r3, [r7, #4]
 2019 00bc 0833     		add	r3, r3, #8
 2020 00be 101C     		mov	r0, r2
 2021 00c0 191C     		mov	r1, r3
 2022 00c2 0422     		mov	r2, #4
 2023 00c4 FFF7FEFF 		bl	memcpy
 2024              	.L84:
 2025              	.LBE27:
 137:./ros_lib/rosserial_msgs/RequestParam.h ****       union {
 2026              		.loc 6 137 0 discriminator 2
 2027 00c8 2323     		mov	r3, #35
 2028 00ca FB18     		add	r3, r7, r3
 2029 00cc 1A78     		ldrb	r2, [r3]
 2030 00ce 2323     		mov	r3, #35
 2031 00d0 FB18     		add	r3, r7, r3
 2032 00d2 0132     		add	r2, r2, #1
 2033 00d4 1A70     		strb	r2, [r3]
 2034              	.L83:
 137:./ros_lib/rosserial_msgs/RequestParam.h ****       union {
ARM GAS  C:\Users\Chuck\AppData\Local\Temp\cc5X170Y.s 			page 46


 2035              		.loc 6 137 0 is_stmt 0 discriminator 1
 2036 00d6 2323     		mov	r3, #35
 2037 00d8 FA18     		add	r2, r7, r3
 2038 00da 1B23     		mov	r3, #27
 2039 00dc FB18     		add	r3, r7, r3
 2040 00de 1278     		ldrb	r2, [r2]
 2041 00e0 1B78     		ldrb	r3, [r3]
 2042 00e2 9A42     		cmp	r2, r3
 2043 00e4 B1D3     		bcc	.L85
 2044              	.LBE26:
 151:./ros_lib/rosserial_msgs/RequestParam.h ****       }
 152:./ros_lib/rosserial_msgs/RequestParam.h ****       }
 153:./ros_lib/rosserial_msgs/RequestParam.h ****       uint8_t floats_lengthT = *(inbuffer + offset++);
 2045              		.loc 6 153 0 is_stmt 1
 2046 00e6 7B6A     		ldr	r3, [r7, #36]
 2047 00e8 5A1C     		add	r2, r3, #1
 2048 00ea 7A62     		str	r2, [r7, #36]
 2049 00ec 1A1C     		mov	r2, r3
 2050 00ee 3B68     		ldr	r3, [r7]
 2051 00f0 9A18     		add	r2, r3, r2
 2052 00f2 1A23     		mov	r3, #26
 2053 00f4 FB18     		add	r3, r7, r3
 2054 00f6 1278     		ldrb	r2, [r2]
 2055 00f8 1A70     		strb	r2, [r3]
 154:./ros_lib/rosserial_msgs/RequestParam.h ****       if(floats_lengthT < floats_length)
 2056              		.loc 6 154 0
 2057 00fa 7B68     		ldr	r3, [r7, #4]
 2058 00fc 1B7C     		ldrb	r3, [r3, #16]
 2059 00fe 1A22     		mov	r2, #26
 2060 0100 BA18     		add	r2, r7, r2
 2061 0102 1278     		ldrb	r2, [r2]
 2062 0104 9A42     		cmp	r2, r3
 2063 0106 04D2     		bcs	.L86
 155:./ros_lib/rosserial_msgs/RequestParam.h ****         floats_length = floats_lengthT;
 2064              		.loc 6 155 0
 2065 0108 7B68     		ldr	r3, [r7, #4]
 2066 010a 1A22     		mov	r2, #26
 2067 010c BA18     		add	r2, r7, r2
 2068 010e 1278     		ldrb	r2, [r2]
 2069 0110 1A74     		strb	r2, [r3, #16]
 2070              	.L86:
 156:./ros_lib/rosserial_msgs/RequestParam.h ****       offset += 3;
 2071              		.loc 6 156 0
 2072 0112 7B6A     		ldr	r3, [r7, #36]
 2073 0114 0333     		add	r3, r3, #3
 2074 0116 7B62     		str	r3, [r7, #36]
 2075              	.LBB28:
 157:./ros_lib/rosserial_msgs/RequestParam.h ****       for( uint8_t i = 0; i < floats_lengthT; i++){
 2076              		.loc 6 157 0
 2077 0118 2223     		mov	r3, #34
 2078 011a FB18     		add	r3, r7, r3
 2079 011c 0022     		mov	r2, #0
 2080 011e 1A70     		strb	r2, [r3]
 2081 0120 45E0     		b	.L87
 2082              	.L89:
 2083              	.LBB29:
 158:./ros_lib/rosserial_msgs/RequestParam.h ****       union {
ARM GAS  C:\Users\Chuck\AppData\Local\Temp\cc5X170Y.s 			page 47


 159:./ros_lib/rosserial_msgs/RequestParam.h ****         float real;
 160:./ros_lib/rosserial_msgs/RequestParam.h ****         uint32_t base;
 161:./ros_lib/rosserial_msgs/RequestParam.h ****       } u_st_floats;
 162:./ros_lib/rosserial_msgs/RequestParam.h ****       u_st_floats.base = 0;
 2084              		.loc 6 162 0
 2085 0122 0023     		mov	r3, #0
 2086 0124 3B61     		str	r3, [r7, #16]
 163:./ros_lib/rosserial_msgs/RequestParam.h ****       u_st_floats.base |= ((uint32_t) (*(inbuffer + offset + 0))) << (8 * 0);
 2087              		.loc 6 163 0
 2088 0126 3B69     		ldr	r3, [r7, #16]
 2089 0128 7A6A     		ldr	r2, [r7, #36]
 2090 012a 3968     		ldr	r1, [r7]
 2091 012c 8A18     		add	r2, r1, r2
 2092 012e 1278     		ldrb	r2, [r2]
 2093 0130 1343     		orr	r3, r2
 2094 0132 3B61     		str	r3, [r7, #16]
 164:./ros_lib/rosserial_msgs/RequestParam.h ****       u_st_floats.base |= ((uint32_t) (*(inbuffer + offset + 1))) << (8 * 1);
 2095              		.loc 6 164 0
 2096 0134 3A69     		ldr	r2, [r7, #16]
 2097 0136 7B6A     		ldr	r3, [r7, #36]
 2098 0138 0133     		add	r3, r3, #1
 2099 013a 3968     		ldr	r1, [r7]
 2100 013c CB18     		add	r3, r1, r3
 2101 013e 1B78     		ldrb	r3, [r3]
 2102 0140 1B02     		lsl	r3, r3, #8
 2103 0142 1343     		orr	r3, r2
 2104 0144 3B61     		str	r3, [r7, #16]
 165:./ros_lib/rosserial_msgs/RequestParam.h ****       u_st_floats.base |= ((uint32_t) (*(inbuffer + offset + 2))) << (8 * 2);
 2105              		.loc 6 165 0
 2106 0146 3A69     		ldr	r2, [r7, #16]
 2107 0148 7B6A     		ldr	r3, [r7, #36]
 2108 014a 0233     		add	r3, r3, #2
 2109 014c 3968     		ldr	r1, [r7]
 2110 014e CB18     		add	r3, r1, r3
 2111 0150 1B78     		ldrb	r3, [r3]
 2112 0152 1B04     		lsl	r3, r3, #16
 2113 0154 1343     		orr	r3, r2
 2114 0156 3B61     		str	r3, [r7, #16]
 166:./ros_lib/rosserial_msgs/RequestParam.h ****       u_st_floats.base |= ((uint32_t) (*(inbuffer + offset + 3))) << (8 * 3);
 2115              		.loc 6 166 0
 2116 0158 3A69     		ldr	r2, [r7, #16]
 2117 015a 7B6A     		ldr	r3, [r7, #36]
 2118 015c 0333     		add	r3, r3, #3
 2119 015e 3968     		ldr	r1, [r7]
 2120 0160 CB18     		add	r3, r1, r3
 2121 0162 1B78     		ldrb	r3, [r3]
 2122 0164 1B06     		lsl	r3, r3, #24
 2123 0166 1343     		orr	r3, r2
 2124 0168 3B61     		str	r3, [r7, #16]
 167:./ros_lib/rosserial_msgs/RequestParam.h ****       this->st_floats = u_st_floats.real;
 2125              		.loc 6 167 0
 2126 016a 3A69     		ldr	r2, [r7, #16]
 2127 016c 7B68     		ldr	r3, [r7, #4]
 2128 016e 5A61     		str	r2, [r3, #20]
 168:./ros_lib/rosserial_msgs/RequestParam.h ****       offset += sizeof(this->st_floats);
 2129              		.loc 6 168 0
 2130 0170 7B6A     		ldr	r3, [r7, #36]
ARM GAS  C:\Users\Chuck\AppData\Local\Temp\cc5X170Y.s 			page 48


 2131 0172 0433     		add	r3, r3, #4
 2132 0174 7B62     		str	r3, [r7, #36]
 169:./ros_lib/rosserial_msgs/RequestParam.h ****       if (i < floats_length) {
 2133              		.loc 6 169 0
 2134 0176 7B68     		ldr	r3, [r7, #4]
 2135 0178 1B7C     		ldrb	r3, [r3, #16]
 2136 017a 2222     		mov	r2, #34
 2137 017c BA18     		add	r2, r7, r2
 2138 017e 1278     		ldrb	r2, [r2]
 2139 0180 9A42     		cmp	r2, r3
 2140 0182 0DD2     		bcs	.L88
 170:./ros_lib/rosserial_msgs/RequestParam.h ****           memcpy( &(this->floats[i]), &(this->st_floats), sizeof(float));
 2141              		.loc 6 170 0
 2142 0184 7B68     		ldr	r3, [r7, #4]
 2143 0186 9A69     		ldr	r2, [r3, #24]
 2144 0188 2223     		mov	r3, #34
 2145 018a FB18     		add	r3, r7, r3
 2146 018c 1B78     		ldrb	r3, [r3]
 2147 018e 9B00     		lsl	r3, r3, #2
 2148 0190 D218     		add	r2, r2, r3
 2149 0192 7B68     		ldr	r3, [r7, #4]
 2150 0194 1433     		add	r3, r3, #20
 2151 0196 101C     		mov	r0, r2
 2152 0198 191C     		mov	r1, r3
 2153 019a 0422     		mov	r2, #4
 2154 019c FFF7FEFF 		bl	memcpy
 2155              	.L88:
 2156              	.LBE29:
 157:./ros_lib/rosserial_msgs/RequestParam.h ****       union {
 2157              		.loc 6 157 0 discriminator 2
 2158 01a0 2223     		mov	r3, #34
 2159 01a2 FB18     		add	r3, r7, r3
 2160 01a4 1A78     		ldrb	r2, [r3]
 2161 01a6 2223     		mov	r3, #34
 2162 01a8 FB18     		add	r3, r7, r3
 2163 01aa 0132     		add	r2, r2, #1
 2164 01ac 1A70     		strb	r2, [r3]
 2165              	.L87:
 157:./ros_lib/rosserial_msgs/RequestParam.h ****       union {
 2166              		.loc 6 157 0 is_stmt 0 discriminator 1
 2167 01ae 2223     		mov	r3, #34
 2168 01b0 FA18     		add	r2, r7, r3
 2169 01b2 1A23     		mov	r3, #26
 2170 01b4 FB18     		add	r3, r7, r3
 2171 01b6 1278     		ldrb	r2, [r2]
 2172 01b8 1B78     		ldrb	r3, [r3]
 2173 01ba 9A42     		cmp	r2, r3
 2174 01bc B1D3     		bcc	.L89
 2175              	.LBE28:
 171:./ros_lib/rosserial_msgs/RequestParam.h ****       }
 172:./ros_lib/rosserial_msgs/RequestParam.h ****       }
 173:./ros_lib/rosserial_msgs/RequestParam.h ****       uint8_t strings_lengthT = *(inbuffer + offset++);
 2176              		.loc 6 173 0 is_stmt 1
 2177 01be 7B6A     		ldr	r3, [r7, #36]
 2178 01c0 5A1C     		add	r2, r3, #1
 2179 01c2 7A62     		str	r2, [r7, #36]
 2180 01c4 1A1C     		mov	r2, r3
ARM GAS  C:\Users\Chuck\AppData\Local\Temp\cc5X170Y.s 			page 49


 2181 01c6 3B68     		ldr	r3, [r7]
 2182 01c8 9A18     		add	r2, r3, r2
 2183 01ca 1923     		mov	r3, #25
 2184 01cc FB18     		add	r3, r7, r3
 2185 01ce 1278     		ldrb	r2, [r2]
 2186 01d0 1A70     		strb	r2, [r3]
 174:./ros_lib/rosserial_msgs/RequestParam.h ****       if(strings_lengthT < strings_length)
 2187              		.loc 6 174 0
 2188 01d2 7B68     		ldr	r3, [r7, #4]
 2189 01d4 1B7F     		ldrb	r3, [r3, #28]
 2190 01d6 1922     		mov	r2, #25
 2191 01d8 BA18     		add	r2, r7, r2
 2192 01da 1278     		ldrb	r2, [r2]
 2193 01dc 9A42     		cmp	r2, r3
 2194 01de 04D2     		bcs	.L90
 175:./ros_lib/rosserial_msgs/RequestParam.h ****         strings_length = strings_lengthT;
 2195              		.loc 6 175 0
 2196 01e0 7B68     		ldr	r3, [r7, #4]
 2197 01e2 1922     		mov	r2, #25
 2198 01e4 BA18     		add	r2, r7, r2
 2199 01e6 1278     		ldrb	r2, [r2]
 2200 01e8 1A77     		strb	r2, [r3, #28]
 2201              	.L90:
 176:./ros_lib/rosserial_msgs/RequestParam.h ****       offset += 3;
 2202              		.loc 6 176 0
 2203 01ea 7B6A     		ldr	r3, [r7, #36]
 2204 01ec 0333     		add	r3, r3, #3
 2205 01ee 7B62     		str	r3, [r7, #36]
 2206              	.LBB30:
 177:./ros_lib/rosserial_msgs/RequestParam.h ****       for( uint8_t i = 0; i < strings_lengthT; i++){
 2207              		.loc 6 177 0
 2208 01f0 2123     		mov	r3, #33
 2209 01f2 FB18     		add	r3, r7, r3
 2210 01f4 0022     		mov	r2, #0
 2211 01f6 1A70     		strb	r2, [r3]
 2212 01f8 4FE0     		b	.L91
 2213              	.L95:
 2214              	.LBB31:
 178:./ros_lib/rosserial_msgs/RequestParam.h ****       uint32_t length_st_strings;
 179:./ros_lib/rosserial_msgs/RequestParam.h ****       memcpy(&length_st_strings, (inbuffer + offset), sizeof(uint32_t));
 2215              		.loc 6 179 0
 2216 01fa 7B6A     		ldr	r3, [r7, #36]
 2217 01fc 3A68     		ldr	r2, [r7]
 2218 01fe D318     		add	r3, r2, r3
 2219 0200 0C22     		mov	r2, #12
 2220 0202 BA18     		add	r2, r7, r2
 2221 0204 101C     		mov	r0, r2
 2222 0206 191C     		mov	r1, r3
 2223 0208 0422     		mov	r2, #4
 2224 020a FFF7FEFF 		bl	memcpy
 180:./ros_lib/rosserial_msgs/RequestParam.h ****       offset += 4;
 2225              		.loc 6 180 0
 2226 020e 7B6A     		ldr	r3, [r7, #36]
 2227 0210 0433     		add	r3, r3, #4
 2228 0212 7B62     		str	r3, [r7, #36]
 2229              	.LBB32:
 181:./ros_lib/rosserial_msgs/RequestParam.h ****       for(unsigned int k= offset; k< offset+length_st_strings; ++k){
ARM GAS  C:\Users\Chuck\AppData\Local\Temp\cc5X170Y.s 			page 50


 2230              		.loc 6 181 0
 2231 0214 7B6A     		ldr	r3, [r7, #36]
 2232 0216 FB61     		str	r3, [r7, #28]
 2233 0218 0BE0     		b	.L92
 2234              	.L93:
 182:./ros_lib/rosserial_msgs/RequestParam.h ****           inbuffer[k-1]=inbuffer[k];
 2235              		.loc 6 182 0 discriminator 3
 2236 021a FB69     		ldr	r3, [r7, #28]
 2237 021c 013B     		sub	r3, r3, #1
 2238 021e 3A68     		ldr	r2, [r7]
 2239 0220 D318     		add	r3, r2, r3
 2240 0222 3968     		ldr	r1, [r7]
 2241 0224 FA69     		ldr	r2, [r7, #28]
 2242 0226 8A18     		add	r2, r1, r2
 2243 0228 1278     		ldrb	r2, [r2]
 2244 022a 1A70     		strb	r2, [r3]
 181:./ros_lib/rosserial_msgs/RequestParam.h ****       for(unsigned int k= offset; k< offset+length_st_strings; ++k){
 2245              		.loc 6 181 0 discriminator 3
 2246 022c FB69     		ldr	r3, [r7, #28]
 2247 022e 0133     		add	r3, r3, #1
 2248 0230 FB61     		str	r3, [r7, #28]
 2249              	.L92:
 181:./ros_lib/rosserial_msgs/RequestParam.h ****       for(unsigned int k= offset; k< offset+length_st_strings; ++k){
 2250              		.loc 6 181 0 is_stmt 0 discriminator 1
 2251 0232 7A6A     		ldr	r2, [r7, #36]
 2252 0234 FB68     		ldr	r3, [r7, #12]
 2253 0236 D218     		add	r2, r2, r3
 2254 0238 FB69     		ldr	r3, [r7, #28]
 2255 023a 9A42     		cmp	r2, r3
 2256 023c EDD8     		bhi	.L93
 2257              	.LBE32:
 183:./ros_lib/rosserial_msgs/RequestParam.h ****       }
 184:./ros_lib/rosserial_msgs/RequestParam.h ****       inbuffer[offset+length_st_strings-1]=0;
 2258              		.loc 6 184 0 is_stmt 1
 2259 023e 7A6A     		ldr	r2, [r7, #36]
 2260 0240 FB68     		ldr	r3, [r7, #12]
 2261 0242 D318     		add	r3, r2, r3
 2262 0244 013B     		sub	r3, r3, #1
 2263 0246 3A68     		ldr	r2, [r7]
 2264 0248 D318     		add	r3, r2, r3
 2265 024a 0022     		mov	r2, #0
 2266 024c 1A70     		strb	r2, [r3]
 185:./ros_lib/rosserial_msgs/RequestParam.h ****       this->st_strings = (char *)(inbuffer + offset-1);
 2267              		.loc 6 185 0
 2268 024e 7B6A     		ldr	r3, [r7, #36]
 2269 0250 013B     		sub	r3, r3, #1
 2270 0252 3A68     		ldr	r2, [r7]
 2271 0254 D218     		add	r2, r2, r3
 2272 0256 7B68     		ldr	r3, [r7, #4]
 2273 0258 1A62     		str	r2, [r3, #32]
 186:./ros_lib/rosserial_msgs/RequestParam.h ****       offset += length_st_strings;
 2274              		.loc 6 186 0
 2275 025a 7A6A     		ldr	r2, [r7, #36]
 2276 025c FB68     		ldr	r3, [r7, #12]
 2277 025e D318     		add	r3, r2, r3
 2278 0260 7B62     		str	r3, [r7, #36]
 187:./ros_lib/rosserial_msgs/RequestParam.h ****       if (i < strings_length) {
ARM GAS  C:\Users\Chuck\AppData\Local\Temp\cc5X170Y.s 			page 51


 2279              		.loc 6 187 0
 2280 0262 7B68     		ldr	r3, [r7, #4]
 2281 0264 1B7F     		ldrb	r3, [r3, #28]
 2282 0266 2122     		mov	r2, #33
 2283 0268 BA18     		add	r2, r7, r2
 2284 026a 1278     		ldrb	r2, [r2]
 2285 026c 9A42     		cmp	r2, r3
 2286 026e 0DD2     		bcs	.L94
 188:./ros_lib/rosserial_msgs/RequestParam.h ****           memcpy( &(this->strings[i]), &(this->st_strings), sizeof(char*));
 2287              		.loc 6 188 0
 2288 0270 7B68     		ldr	r3, [r7, #4]
 2289 0272 5A6A     		ldr	r2, [r3, #36]
 2290 0274 2123     		mov	r3, #33
 2291 0276 FB18     		add	r3, r7, r3
 2292 0278 1B78     		ldrb	r3, [r3]
 2293 027a 9B00     		lsl	r3, r3, #2
 2294 027c D218     		add	r2, r2, r3
 2295 027e 7B68     		ldr	r3, [r7, #4]
 2296 0280 2033     		add	r3, r3, #32
 2297 0282 101C     		mov	r0, r2
 2298 0284 191C     		mov	r1, r3
 2299 0286 0422     		mov	r2, #4
 2300 0288 FFF7FEFF 		bl	memcpy
 2301              	.L94:
 2302              	.LBE31:
 177:./ros_lib/rosserial_msgs/RequestParam.h ****       uint32_t length_st_strings;
 2303              		.loc 6 177 0 discriminator 2
 2304 028c 2123     		mov	r3, #33
 2305 028e FB18     		add	r3, r7, r3
 2306 0290 1A78     		ldrb	r2, [r3]
 2307 0292 2123     		mov	r3, #33
 2308 0294 FB18     		add	r3, r7, r3
 2309 0296 0132     		add	r2, r2, #1
 2310 0298 1A70     		strb	r2, [r3]
 2311              	.L91:
 177:./ros_lib/rosserial_msgs/RequestParam.h ****       uint32_t length_st_strings;
 2312              		.loc 6 177 0 is_stmt 0 discriminator 1
 2313 029a 2123     		mov	r3, #33
 2314 029c FA18     		add	r2, r7, r3
 2315 029e 1923     		mov	r3, #25
 2316 02a0 FB18     		add	r3, r7, r3
 2317 02a2 1278     		ldrb	r2, [r2]
 2318 02a4 1B78     		ldrb	r3, [r3]
 2319 02a6 9A42     		cmp	r2, r3
 2320 02a8 A7D3     		bcc	.L95
 2321              	.LBE30:
 189:./ros_lib/rosserial_msgs/RequestParam.h ****       }
 190:./ros_lib/rosserial_msgs/RequestParam.h ****       }
 191:./ros_lib/rosserial_msgs/RequestParam.h **** #endif
 192:./ros_lib/rosserial_msgs/RequestParam.h ****      return offset;
 2322              		.loc 6 192 0 is_stmt 1
 2323 02aa 7B6A     		ldr	r3, [r7, #36]
 2324              	.LBE25:
 193:./ros_lib/rosserial_msgs/RequestParam.h ****     }
 2325              		.loc 6 193 0
 2326 02ac 181C     		mov	r0, r3
 2327 02ae BD46     		mov	sp, r7
ARM GAS  C:\Users\Chuck\AppData\Local\Temp\cc5X170Y.s 			page 52


 2328 02b0 0AB0     		add	sp, sp, #40
 2329              		@ sp needed
 2330 02b2 80BD     		pop	{r7, pc}
 2331              		.cfi_endproc
 2332              	.LFE54:
 2333              		.size	_ZN14rosserial_msgs20RequestParamResponse11deserializeEPh, .-_ZN14rosserial_msgs20RequestPar
 2334              		.section	.text._ZN14rosserial_msgs20RequestParamResponse7getTypeEv,"axG",%progbits,_ZN14rosserial_
 2335              		.align	2
 2336              		.weak	_ZN14rosserial_msgs20RequestParamResponse7getTypeEv
 2337              		.code	16
 2338              		.thumb_func
 2339              		.type	_ZN14rosserial_msgs20RequestParamResponse7getTypeEv, %function
 2340              	_ZN14rosserial_msgs20RequestParamResponse7getTypeEv:
 2341              	.LFB55:
 194:./ros_lib/rosserial_msgs/RequestParam.h **** 
 195:./ros_lib/rosserial_msgs/RequestParam.h ****     const char * getType(){ return REQUESTPARAM; };
 2342              		.loc 6 195 0
 2343              		.cfi_startproc
 2344 0000 80B5     		push	{r7, lr}
 2345              		.cfi_def_cfa_offset 8
 2346              		.cfi_offset 7, -8
 2347              		.cfi_offset 14, -4
 2348 0002 82B0     		sub	sp, sp, #8
 2349              		.cfi_def_cfa_offset 16
 2350 0004 00AF     		add	r7, sp, #0
 2351              		.cfi_def_cfa_register 7
 2352 0006 7860     		str	r0, [r7, #4]
 2353              		.loc 6 195 0
 2354 0008 024B     		ldr	r3, .L99
 2355 000a 181C     		mov	r0, r3
 2356 000c BD46     		mov	sp, r7
 2357 000e 02B0     		add	sp, sp, #8
 2358              		@ sp needed
 2359 0010 80BD     		pop	{r7, pc}
 2360              	.L100:
 2361 0012 C046     		.align	2
 2362              	.L99:
 2363 0014 10010000 		.word	_ZN14rosserial_msgsL12REQUESTPARAME
 2364              		.cfi_endproc
 2365              	.LFE55:
 2366              		.size	_ZN14rosserial_msgs20RequestParamResponse7getTypeEv, .-_ZN14rosserial_msgs20RequestParamResp
 2367              		.section	.rodata
 2368 00ad 000000   		.align	2
 2369              	.LC21:
 2370 00b0 39663065 		.ascii	"9f0e98bda65981986ddf53afa7a40e49\000"
 2370      39386264 
 2370      61363539 
 2370      38313938 
 2370      36646466 
 2371              		.section	.text._ZN14rosserial_msgs20RequestParamResponse6getMD5Ev,"axG",%progbits,_ZN14rosserial_m
 2372              		.align	2
 2373              		.weak	_ZN14rosserial_msgs20RequestParamResponse6getMD5Ev
 2374              		.code	16
 2375              		.thumb_func
 2376              		.type	_ZN14rosserial_msgs20RequestParamResponse6getMD5Ev, %function
 2377              	_ZN14rosserial_msgs20RequestParamResponse6getMD5Ev:
 2378              	.LFB56:
ARM GAS  C:\Users\Chuck\AppData\Local\Temp\cc5X170Y.s 			page 53


 196:./ros_lib/rosserial_msgs/RequestParam.h ****     const char * getMD5(){ return "9f0e98bda65981986ddf53afa7a40e49"; };
 2379              		.loc 6 196 0
 2380              		.cfi_startproc
 2381 0000 80B5     		push	{r7, lr}
 2382              		.cfi_def_cfa_offset 8
 2383              		.cfi_offset 7, -8
 2384              		.cfi_offset 14, -4
 2385 0002 82B0     		sub	sp, sp, #8
 2386              		.cfi_def_cfa_offset 16
 2387 0004 00AF     		add	r7, sp, #0
 2388              		.cfi_def_cfa_register 7
 2389 0006 7860     		str	r0, [r7, #4]
 2390              		.loc 6 196 0
 2391 0008 024B     		ldr	r3, .L103
 2392 000a 181C     		mov	r0, r3
 2393 000c BD46     		mov	sp, r7
 2394 000e 02B0     		add	sp, sp, #8
 2395              		@ sp needed
 2396 0010 80BD     		pop	{r7, pc}
 2397              	.L104:
 2398 0012 C046     		.align	2
 2399              	.L103:
 2400 0014 B0000000 		.word	.LC21
 2401              		.cfi_endproc
 2402              	.LFE56:
 2403              		.size	_ZN14rosserial_msgs20RequestParamResponse6getMD5Ev, .-_ZN14rosserial_msgs20RequestParamRespo
 2404              		.section	.text._ZN3ros9Publisher15getEndpointTypeEv,"axG",%progbits,_ZN3ros9Publisher15getEndpoint
 2405              		.align	2
 2406              		.weak	_ZN3ros9Publisher15getEndpointTypeEv
 2407              		.code	16
 2408              		.thumb_func
 2409              		.type	_ZN3ros9Publisher15getEndpointTypeEv, %function
 2410              	_ZN3ros9Publisher15getEndpointTypeEv:
 2411              	.LFB62:
 2412              		.file 7 "./ros_lib/ros/publisher.h"
   1:./ros_lib/ros/publisher.h **** /* 
   2:./ros_lib/ros/publisher.h ****  * Software License Agreement (BSD License)
   3:./ros_lib/ros/publisher.h ****  *
   4:./ros_lib/ros/publisher.h ****  * Copyright (c) 2011, Willow Garage, Inc.
   5:./ros_lib/ros/publisher.h ****  * All rights reserved.
   6:./ros_lib/ros/publisher.h ****  *
   7:./ros_lib/ros/publisher.h ****  * Redistribution and use in source and binary forms, with or without
   8:./ros_lib/ros/publisher.h ****  * modification, are permitted provided that the following conditions
   9:./ros_lib/ros/publisher.h ****  * are met:
  10:./ros_lib/ros/publisher.h ****  *
  11:./ros_lib/ros/publisher.h ****  *  * Redistributions of source code must retain the above copyright
  12:./ros_lib/ros/publisher.h ****  *    notice, this list of conditions and the following disclaimer.
  13:./ros_lib/ros/publisher.h ****  *  * Redistributions in binary form must reproduce the above
  14:./ros_lib/ros/publisher.h ****  *    copyright notice, this list of conditions and the following
  15:./ros_lib/ros/publisher.h ****  *    disclaimer in the documentation and/or other materials provided
  16:./ros_lib/ros/publisher.h ****  *    with the distribution.
  17:./ros_lib/ros/publisher.h ****  *  * Neither the name of Willow Garage, Inc. nor the names of its
  18:./ros_lib/ros/publisher.h ****  *    contributors may be used to endorse or promote prducts derived
  19:./ros_lib/ros/publisher.h ****  *    from this software without specific prior written permission.
  20:./ros_lib/ros/publisher.h ****  *
  21:./ros_lib/ros/publisher.h ****  * THIS SOFTWARE IS PROVIDED BY THE COPYRIGHT HOLDERS AND CONTRIBUTORS
  22:./ros_lib/ros/publisher.h ****  * "AS IS" AND ANY EXPRESS OR IMPLIED WARRANTIES, INCLUDING, BUT NOT
ARM GAS  C:\Users\Chuck\AppData\Local\Temp\cc5X170Y.s 			page 54


  23:./ros_lib/ros/publisher.h ****  * LIMITED TO, THE IMPLIED WARRANTIES OF MERCHANTABILITY AND FITNESS
  24:./ros_lib/ros/publisher.h ****  * FOR A PARTICULAR PURPOSE ARE DISCLAIMED. IN NO EVENT SHALL THE
  25:./ros_lib/ros/publisher.h ****  * COPYRIGHT OWNER OR CONTRIBUTORS BE LIABLE FOR ANY DIRECT, INDIRECT,
  26:./ros_lib/ros/publisher.h ****  * INCIDENTAL, SPECIAL, EXEMPLARY, OR CONSEQUENTIAL DAMAGES (INCLUDING,
  27:./ros_lib/ros/publisher.h ****  * BUT NOT LIMITED TO, PROCUREMENT OF SUBSTITUTE GOODS OR SERVICES;
  28:./ros_lib/ros/publisher.h ****  * LOSS OF USE, DATA, OR PROFITS; OR BUSINESS INTERRUPTION) HOWEVER
  29:./ros_lib/ros/publisher.h ****  * CAUSED AND ON ANY THEORY OF LIABILITY, WHETHER IN CONTRACT, STRICT
  30:./ros_lib/ros/publisher.h ****  * LIABILITY, OR TORT (INCLUDING NEGLIGENCE OR OTHERWISE) ARISING IN
  31:./ros_lib/ros/publisher.h ****  * ANY WAY OUT OF THE USE OF THIS SOFTWARE, EVEN IF ADVISED OF THE
  32:./ros_lib/ros/publisher.h ****  * POSSIBILITY OF SUCH DAMAGE.
  33:./ros_lib/ros/publisher.h ****  */
  34:./ros_lib/ros/publisher.h **** 
  35:./ros_lib/ros/publisher.h **** #ifndef _ROS_PUBLISHER_H_
  36:./ros_lib/ros/publisher.h **** #define _ROS_PUBLISHER_H_
  37:./ros_lib/ros/publisher.h **** 
  38:./ros_lib/ros/publisher.h **** #include "rosserial_msgs/TopicInfo.h"
  39:./ros_lib/ros/publisher.h **** #include "node_handle.h"
  40:./ros_lib/ros/publisher.h **** 
  41:./ros_lib/ros/publisher.h **** namespace ros {
  42:./ros_lib/ros/publisher.h **** 
  43:./ros_lib/ros/publisher.h ****   /* Generic Publisher */
  44:./ros_lib/ros/publisher.h ****   class Publisher
  45:./ros_lib/ros/publisher.h ****   {
  46:./ros_lib/ros/publisher.h ****     public:
  47:./ros_lib/ros/publisher.h ****       Publisher( const char * topic_name, Msg * msg, int endpoint=rosserial_msgs::TopicInfo::ID_PUB
  48:./ros_lib/ros/publisher.h ****         topic_(topic_name), 
  49:./ros_lib/ros/publisher.h ****         msg_(msg),
  50:./ros_lib/ros/publisher.h ****         endpoint_(endpoint) {};
  51:./ros_lib/ros/publisher.h ****       // rosserial standard signature
  52:./ros_lib/ros/publisher.h ****       int publish( const Msg * msg ) { return nh_->publish(id_, msg); };
  53:./ros_lib/ros/publisher.h ****       // roscpp-compatible signature
  54:./ros_lib/ros/publisher.h ****       int publish( const Msg & msg ) { return nh_->publish(id_, &msg); }; 
  55:./ros_lib/ros/publisher.h ****       int getEndpointType(){ return endpoint_; }
 2413              		.loc 7 55 0
 2414              		.cfi_startproc
 2415 0000 80B5     		push	{r7, lr}
 2416              		.cfi_def_cfa_offset 8
 2417              		.cfi_offset 7, -8
 2418              		.cfi_offset 14, -4
 2419 0002 82B0     		sub	sp, sp, #8
 2420              		.cfi_def_cfa_offset 16
 2421 0004 00AF     		add	r7, sp, #0
 2422              		.cfi_def_cfa_register 7
 2423 0006 7860     		str	r0, [r7, #4]
 2424              		.loc 7 55 0
 2425 0008 7B68     		ldr	r3, [r7, #4]
 2426 000a 1B69     		ldr	r3, [r3, #16]
 2427 000c 181C     		mov	r0, r3
 2428 000e BD46     		mov	sp, r7
 2429 0010 02B0     		add	sp, sp, #8
 2430              		@ sp needed
 2431 0012 80BD     		pop	{r7, pc}
 2432              		.cfi_endproc
 2433              	.LFE62:
 2434              		.size	_ZN3ros9Publisher15getEndpointTypeEv, .-_ZN3ros9Publisher15getEndpointTypeEv
 2435              		.section	.text._ZN8SysTimer6millisEv,"axG",%progbits,_ZN8SysTimer6millisEv,comdat
 2436              		.align	2
ARM GAS  C:\Users\Chuck\AppData\Local\Temp\cc5X170Y.s 			page 55


 2437              		.weak	_ZN8SysTimer6millisEv
 2438              		.code	16
 2439              		.thumb_func
 2440              		.type	_ZN8SysTimer6millisEv, %function
 2441              	_ZN8SysTimer6millisEv:
 2442              	.LFB109:
 2443              		.file 8 "./ros_lib/SysTimer.h"
   1:./ros_lib/SysTimer.h **** /* ========================================
   2:./ros_lib/SysTimer.h ****  *
   3:./ros_lib/SysTimer.h ****  * The following firmware was developed by Chuck Harrison
   4:./ros_lib/SysTimer.h ****  * This work is licensed under a Creative Commons Attribution 3.0 Unported License.
   5:./ros_lib/SysTimer.h ****  * 
   6:./ros_lib/SysTimer.h ****  * http://creativecommons.org/licenses/by/3.0/deed.en_US
   7:./ros_lib/SysTimer.h ****  * 
   8:./ros_lib/SysTimer.h ****  * You are free to:
   9:./ros_lib/SysTimer.h ****  * -To Share  to copy, distribute and transmit the work 
  10:./ros_lib/SysTimer.h ****  * -To Remix  to adapt the work 
  11:./ros_lib/SysTimer.h ****  * -To make commercial use of the work
  12:./ros_lib/SysTimer.h ****  *
  13:./ros_lib/SysTimer.h ****  * ========================================
  14:./ros_lib/SysTimer.h ****  */
  15:./ros_lib/SysTimer.h **** 
  16:./ros_lib/SysTimer.h **** #ifndef ROS_SYSTIMER_H_
  17:./ros_lib/SysTimer.h **** #define ROS_SYSTIMER_H_
  18:./ros_lib/SysTimer.h **** 
  19:./ros_lib/SysTimer.h **** typedef void (* cyisraddress)(void); // should we #include the whole cytypes.h?
  20:./ros_lib/SysTimer.h **** #define CY_ISR(FuncName)        void FuncName (void)
  21:./ros_lib/SysTimer.h **** 
  22:./ros_lib/SysTimer.h **** extern "C" {
  23:./ros_lib/SysTimer.h **** cyisraddress CyIntSetSysVector(uint8_t number, cyisraddress address);
  24:./ros_lib/SysTimer.h **** }
  25:./ros_lib/SysTimer.h **** 
  26:./ros_lib/SysTimer.h **** CY_ISR(SysTick_ISR); //forward declaration for SysTimer::init()
  27:./ros_lib/SysTimer.h **** 
  28:./ros_lib/SysTimer.h **** #define SYSTICK_INTERRUPT_VECTOR_NUMBER 15u /* Cortex-M0 hard vector */
  29:./ros_lib/SysTimer.h **** 
  30:./ros_lib/SysTimer.h **** /* clock and interrupt rates, in Hz */
  31:./ros_lib/SysTimer.h **** #define CLOCK_FREQ     24000000u
  32:./ros_lib/SysTimer.h **** #define INTERRUPT_FREQ 1000u
  33:./ros_lib/SysTimer.h **** 
  34:./ros_lib/SysTimer.h **** 
  35:./ros_lib/SysTimer.h **** class SysTimer
  36:./ros_lib/SysTimer.h **** {
  37:./ros_lib/SysTimer.h ****   public:
  38:./ros_lib/SysTimer.h ****     static void init() {
  39:./ros_lib/SysTimer.h ****       CyIntSetSysVector(SYSTICK_INTERRUPT_VECTOR_NUMBER, SysTick_ISR);
  40:./ros_lib/SysTimer.h ****       // must eventually do this:
  41:./ros_lib/SysTimer.h ****       //  SysTick_Config(CLOCK_FREQ / INTERRUPT_FREQ); /* defined in auto-generated core_cm0.h */
  42:./ros_lib/SysTimer.h ****       //  CyGlobalIntEnable;
  43:./ros_lib/SysTimer.h ****       millis_ = 0;
  44:./ros_lib/SysTimer.h ****     };
  45:./ros_lib/SysTimer.h ****     static uint32_t millis() { return millis_; };
 2444              		.loc 8 45 0
 2445              		.cfi_startproc
 2446 0000 80B5     		push	{r7, lr}
 2447              		.cfi_def_cfa_offset 8
 2448              		.cfi_offset 7, -8
ARM GAS  C:\Users\Chuck\AppData\Local\Temp\cc5X170Y.s 			page 56


 2449              		.cfi_offset 14, -4
 2450 0002 00AF     		add	r7, sp, #0
 2451              		.cfi_def_cfa_register 7
 2452              		.loc 8 45 0
 2453 0004 024B     		ldr	r3, .L109
 2454 0006 1B68     		ldr	r3, [r3]
 2455 0008 181C     		mov	r0, r3
 2456 000a BD46     		mov	sp, r7
 2457              		@ sp needed
 2458 000c 80BD     		pop	{r7, pc}
 2459              	.L110:
 2460 000e C046     		.align	2
 2461              	.L109:
 2462 0010 00000000 		.word	_ZN8SysTimer7millis_E
 2463              		.cfi_endproc
 2464              	.LFE109:
 2465              		.size	_ZN8SysTimer6millisEv, .-_ZN8SysTimer6millisEv
 2466              		.section	.text._ZN13Psoc4HardwareC2Ev,"axG",%progbits,_ZN13Psoc4HardwareC5Ev,comdat
 2467              		.align	2
 2468              		.weak	_ZN13Psoc4HardwareC2Ev
 2469              		.code	16
 2470              		.thumb_func
 2471              		.type	_ZN13Psoc4HardwareC2Ev, %function
 2472              	_ZN13Psoc4HardwareC2Ev:
 2473              	.LFB114:
 2474              		.file 9 "./ros_lib/Psoc4Hardware.h"
   1:./ros_lib/Psoc4Hardware.h **** /* 
   2:./ros_lib/Psoc4Hardware.h ****  * Software License Agreement (BSD License)
   3:./ros_lib/Psoc4Hardware.h ****  *
   4:./ros_lib/Psoc4Hardware.h ****  * Copyright (c) 2011, Willow Garage, Inc.
   5:./ros_lib/Psoc4Hardware.h ****  * All rights reserved.
   6:./ros_lib/Psoc4Hardware.h ****  * Mods from ArduinoHardware.h for Cypress PSoC4  (c) 2013 C. Harrison
   7:./ros_lib/Psoc4Hardware.h ****  * All rights reserved.
   8:./ros_lib/Psoc4Hardware.h ****  *
   9:./ros_lib/Psoc4Hardware.h ****  * Redistribution and use in source and binary forms, with or without
  10:./ros_lib/Psoc4Hardware.h ****  * modification, are permitted provided that the following conditions
  11:./ros_lib/Psoc4Hardware.h ****  * are met:
  12:./ros_lib/Psoc4Hardware.h ****  *
  13:./ros_lib/Psoc4Hardware.h ****  *  * Redistributions of source code must retain the above copyright
  14:./ros_lib/Psoc4Hardware.h ****  *    notice, this list of conditions and the following disclaimer.
  15:./ros_lib/Psoc4Hardware.h ****  *  * Redistributions in binary form must reproduce the above
  16:./ros_lib/Psoc4Hardware.h ****  *    copyright notice, this list of conditions and the following
  17:./ros_lib/Psoc4Hardware.h ****  *    disclaimer in the documentation and/or other materials provided
  18:./ros_lib/Psoc4Hardware.h ****  *    with the distribution.
  19:./ros_lib/Psoc4Hardware.h ****  *  * Neither the name of Willow Garage, Inc. nor the names of its
  20:./ros_lib/Psoc4Hardware.h ****  *    contributors may be used to endorse or promote prducts derived
  21:./ros_lib/Psoc4Hardware.h ****  *    from this software without specific prior written permission.
  22:./ros_lib/Psoc4Hardware.h ****  *
  23:./ros_lib/Psoc4Hardware.h ****  * THIS SOFTWARE IS PROVIDED BY THE COPYRIGHT HOLDERS AND CONTRIBUTORS
  24:./ros_lib/Psoc4Hardware.h ****  * "AS IS" AND ANY EXPRESS OR IMPLIED WARRANTIES, INCLUDING, BUT NOT
  25:./ros_lib/Psoc4Hardware.h ****  * LIMITED TO, THE IMPLIED WARRANTIES OF MERCHANTABILITY AND FITNESS
  26:./ros_lib/Psoc4Hardware.h ****  * FOR A PARTICULAR PURPOSE ARE DISCLAIMED. IN NO EVENT SHALL THE
  27:./ros_lib/Psoc4Hardware.h ****  * COPYRIGHT OWNER OR CONTRIBUTORS BE LIABLE FOR ANY DIRECT, INDIRECT,
  28:./ros_lib/Psoc4Hardware.h ****  * INCIDENTAL, SPECIAL, EXEMPLARY, OR CONSEQUENTIAL DAMAGES (INCLUDING,
  29:./ros_lib/Psoc4Hardware.h ****  * BUT NOT LIMITED TO, PROCUREMENT OF SUBSTITUTE GOODS OR SERVICES;
  30:./ros_lib/Psoc4Hardware.h ****  * LOSS OF USE, DATA, OR PROFITS; OR BUSINESS INTERRUPTION) HOWEVER
  31:./ros_lib/Psoc4Hardware.h ****  * CAUSED AND ON ANY THEORY OF LIABILITY, WHETHER IN CONTRACT, STRICT
ARM GAS  C:\Users\Chuck\AppData\Local\Temp\cc5X170Y.s 			page 57


  32:./ros_lib/Psoc4Hardware.h ****  * LIABILITY, OR TORT (INCLUDING NEGLIGENCE OR OTHERWISE) ARISING IN
  33:./ros_lib/Psoc4Hardware.h ****  * ANY WAY OUT OF THE USE OF THIS SOFTWARE, EVEN IF ADVISED OF THE
  34:./ros_lib/Psoc4Hardware.h ****  * POSSIBILITY OF SUCH DAMAGE.
  35:./ros_lib/Psoc4Hardware.h ****  */
  36:./ros_lib/Psoc4Hardware.h **** 
  37:./ros_lib/Psoc4Hardware.h **** #ifndef ROS_PSOC4_HARDWARE_H_
  38:./ros_lib/Psoc4Hardware.h **** #define ROS_PSOC4_HARDWARE_H_
  39:./ros_lib/Psoc4Hardware.h **** 
  40:./ros_lib/Psoc4Hardware.h **** extern "C" {
  41:./ros_lib/Psoc4Hardware.h **** void  CyDelay(uint32_t milliseconds);
  42:./ros_lib/Psoc4Hardware.h **** }
  43:./ros_lib/Psoc4Hardware.h **** inline void delay(uint32_t milliseconds) { CyDelay(milliseconds); };
  44:./ros_lib/Psoc4Hardware.h **** 
  45:./ros_lib/Psoc4Hardware.h **** #include "HardwareSerial.h"
  46:./ros_lib/Psoc4Hardware.h **** #include "Uarts.h"
  47:./ros_lib/Psoc4Hardware.h **** #include "SysTimer.h"
  48:./ros_lib/Psoc4Hardware.h **** 
  49:./ros_lib/Psoc4Hardware.h **** #define DEFAULT_SERIAL Uart0
  50:./ros_lib/Psoc4Hardware.h **** 
  51:./ros_lib/Psoc4Hardware.h **** class Psoc4Hardware {
  52:./ros_lib/Psoc4Hardware.h ****   public:
  53:./ros_lib/Psoc4Hardware.h ****     Psoc4Hardware(HardwareSerial* io , long baud= 57600){
  54:./ros_lib/Psoc4Hardware.h ****       iostream = io;
  55:./ros_lib/Psoc4Hardware.h ****       baud_ = baud;
  56:./ros_lib/Psoc4Hardware.h ****     }
  57:./ros_lib/Psoc4Hardware.h **** 
  58:./ros_lib/Psoc4Hardware.h **** 
  59:./ros_lib/Psoc4Hardware.h ****     Psoc4Hardware() 
 2475              		.loc 9 59 0
 2476              		.cfi_startproc
 2477 0000 80B5     		push	{r7, lr}
 2478              		.cfi_def_cfa_offset 8
 2479              		.cfi_offset 7, -8
 2480              		.cfi_offset 14, -4
 2481 0002 82B0     		sub	sp, sp, #8
 2482              		.cfi_def_cfa_offset 16
 2483 0004 00AF     		add	r7, sp, #0
 2484              		.cfi_def_cfa_register 7
 2485 0006 7860     		str	r0, [r7, #4]
 2486              	.LBB33:
  60:./ros_lib/Psoc4Hardware.h ****     {
  61:./ros_lib/Psoc4Hardware.h ****       iostream = &DEFAULT_SERIAL;
 2487              		.loc 9 61 0
 2488 0008 7B68     		ldr	r3, [r7, #4]
 2489 000a 054A     		ldr	r2, .L114
 2490 000c 1A60     		str	r2, [r3]
  62:./ros_lib/Psoc4Hardware.h ****       baud_ = 57600;
 2491              		.loc 9 62 0
 2492 000e 7B68     		ldr	r3, [r7, #4]
 2493 0010 E122     		mov	r2, #225
 2494 0012 1202     		lsl	r2, r2, #8
 2495 0014 5A60     		str	r2, [r3, #4]
 2496              	.LBE33:
  63:./ros_lib/Psoc4Hardware.h ****     }
 2497              		.loc 9 63 0
 2498 0016 7B68     		ldr	r3, [r7, #4]
 2499 0018 181C     		mov	r0, r3
ARM GAS  C:\Users\Chuck\AppData\Local\Temp\cc5X170Y.s 			page 58


 2500 001a BD46     		mov	sp, r7
 2501 001c 02B0     		add	sp, sp, #8
 2502              		@ sp needed
 2503 001e 80BD     		pop	{r7, pc}
 2504              	.L115:
 2505              		.align	2
 2506              	.L114:
 2507 0020 00000000 		.word	Uart0
 2508              		.cfi_endproc
 2509              	.LFE114:
 2510              		.size	_ZN13Psoc4HardwareC2Ev, .-_ZN13Psoc4HardwareC2Ev
 2511              		.weak	_ZN13Psoc4HardwareC1Ev
 2512              		.thumb_set _ZN13Psoc4HardwareC1Ev,_ZN13Psoc4HardwareC2Ev
 2513              		.section	.text._ZN13Psoc4Hardware4initEv,"axG",%progbits,_ZN13Psoc4Hardware4initEv,comdat
 2514              		.align	2
 2515              		.weak	_ZN13Psoc4Hardware4initEv
 2516              		.code	16
 2517              		.thumb_func
 2518              		.type	_ZN13Psoc4Hardware4initEv, %function
 2519              	_ZN13Psoc4Hardware4initEv:
 2520              	.LFB121:
  64:./ros_lib/Psoc4Hardware.h **** 
  65:./ros_lib/Psoc4Hardware.h ****     Psoc4Hardware(Psoc4Hardware& h){
  66:./ros_lib/Psoc4Hardware.h ****       this->iostream = iostream;
  67:./ros_lib/Psoc4Hardware.h ****       this->baud_ = h.baud_;
  68:./ros_lib/Psoc4Hardware.h ****     }
  69:./ros_lib/Psoc4Hardware.h ****   
  70:./ros_lib/Psoc4Hardware.h ****     void setBaud(long baud){
  71:./ros_lib/Psoc4Hardware.h ****       this->baud_= baud;
  72:./ros_lib/Psoc4Hardware.h ****     }
  73:./ros_lib/Psoc4Hardware.h ****   
  74:./ros_lib/Psoc4Hardware.h ****     int getBaud(){return baud_;}
  75:./ros_lib/Psoc4Hardware.h **** 
  76:./ros_lib/Psoc4Hardware.h ****     void init(){
 2521              		.loc 9 76 0
 2522              		.cfi_startproc
 2523 0000 80B5     		push	{r7, lr}
 2524              		.cfi_def_cfa_offset 8
 2525              		.cfi_offset 7, -8
 2526              		.cfi_offset 14, -4
 2527 0002 82B0     		sub	sp, sp, #8
 2528              		.cfi_def_cfa_offset 16
 2529 0004 00AF     		add	r7, sp, #0
 2530              		.cfi_def_cfa_register 7
 2531 0006 7860     		str	r0, [r7, #4]
  77:./ros_lib/Psoc4Hardware.h ****       iostream->begin(baud_);
 2532              		.loc 9 77 0
 2533 0008 7B68     		ldr	r3, [r7, #4]
 2534 000a 1B68     		ldr	r3, [r3]
 2535 000c 1B68     		ldr	r3, [r3]
 2536 000e 1A68     		ldr	r2, [r3]
 2537 0010 7B68     		ldr	r3, [r7, #4]
 2538 0012 1968     		ldr	r1, [r3]
 2539 0014 7B68     		ldr	r3, [r7, #4]
 2540 0016 5B68     		ldr	r3, [r3, #4]
 2541 0018 081C     		mov	r0, r1
 2542 001a 191C     		mov	r1, r3
ARM GAS  C:\Users\Chuck\AppData\Local\Temp\cc5X170Y.s 			page 59


 2543 001c 9047     		blx	r2
  78:./ros_lib/Psoc4Hardware.h ****     }
 2544              		.loc 9 78 0
 2545 001e BD46     		mov	sp, r7
 2546 0020 02B0     		add	sp, sp, #8
 2547              		@ sp needed
 2548 0022 80BD     		pop	{r7, pc}
 2549              		.cfi_endproc
 2550              	.LFE121:
 2551              		.size	_ZN13Psoc4Hardware4initEv, .-_ZN13Psoc4Hardware4initEv
 2552              		.section	.text._ZN13Psoc4Hardware4readEv,"axG",%progbits,_ZN13Psoc4Hardware4readEv,comdat
 2553              		.align	2
 2554              		.weak	_ZN13Psoc4Hardware4readEv
 2555              		.code	16
 2556              		.thumb_func
 2557              		.type	_ZN13Psoc4Hardware4readEv, %function
 2558              	_ZN13Psoc4Hardware4readEv:
 2559              	.LFB122:
  79:./ros_lib/Psoc4Hardware.h **** 
  80:./ros_lib/Psoc4Hardware.h ****     int read() { return iostream->read(); }
 2560              		.loc 9 80 0
 2561              		.cfi_startproc
 2562 0000 80B5     		push	{r7, lr}
 2563              		.cfi_def_cfa_offset 8
 2564              		.cfi_offset 7, -8
 2565              		.cfi_offset 14, -4
 2566 0002 82B0     		sub	sp, sp, #8
 2567              		.cfi_def_cfa_offset 16
 2568 0004 00AF     		add	r7, sp, #0
 2569              		.cfi_def_cfa_register 7
 2570 0006 7860     		str	r0, [r7, #4]
 2571              		.loc 9 80 0
 2572 0008 7B68     		ldr	r3, [r7, #4]
 2573 000a 1B68     		ldr	r3, [r3]
 2574 000c 1B68     		ldr	r3, [r3]
 2575 000e 0433     		add	r3, r3, #4
 2576 0010 1A68     		ldr	r2, [r3]
 2577 0012 7B68     		ldr	r3, [r7, #4]
 2578 0014 1B68     		ldr	r3, [r3]
 2579 0016 181C     		mov	r0, r3
 2580 0018 9047     		blx	r2
 2581 001a 031C     		mov	r3, r0
 2582 001c 181C     		mov	r0, r3
 2583 001e BD46     		mov	sp, r7
 2584 0020 02B0     		add	sp, sp, #8
 2585              		@ sp needed
 2586 0022 80BD     		pop	{r7, pc}
 2587              		.cfi_endproc
 2588              	.LFE122:
 2589              		.size	_ZN13Psoc4Hardware4readEv, .-_ZN13Psoc4Hardware4readEv
 2590              		.section	.text._ZN13Psoc4Hardware5writeEPhi,"axG",%progbits,_ZN13Psoc4Hardware5writeEPhi,comdat
 2591              		.align	2
 2592              		.weak	_ZN13Psoc4Hardware5writeEPhi
 2593              		.code	16
 2594              		.thumb_func
 2595              		.type	_ZN13Psoc4Hardware5writeEPhi, %function
 2596              	_ZN13Psoc4Hardware5writeEPhi:
ARM GAS  C:\Users\Chuck\AppData\Local\Temp\cc5X170Y.s 			page 60


 2597              	.LFB123:
  81:./ros_lib/Psoc4Hardware.h **** 
  82:./ros_lib/Psoc4Hardware.h ****     void write(uint8_t* data, int length){
 2598              		.loc 9 82 0
 2599              		.cfi_startproc
 2600 0000 80B5     		push	{r7, lr}
 2601              		.cfi_def_cfa_offset 8
 2602              		.cfi_offset 7, -8
 2603              		.cfi_offset 14, -4
 2604 0002 86B0     		sub	sp, sp, #24
 2605              		.cfi_def_cfa_offset 32
 2606 0004 00AF     		add	r7, sp, #0
 2607              		.cfi_def_cfa_register 7
 2608 0006 F860     		str	r0, [r7, #12]
 2609 0008 B960     		str	r1, [r7, #8]
 2610 000a 7A60     		str	r2, [r7, #4]
 2611              	.LBB34:
 2612              	.LBB35:
  83:./ros_lib/Psoc4Hardware.h ****       for(int i=0; i<length; i++)
 2613              		.loc 9 83 0
 2614 000c 0023     		mov	r3, #0
 2615 000e 7B61     		str	r3, [r7, #20]
 2616 0010 0FE0     		b	.L120
 2617              	.L121:
  84:./ros_lib/Psoc4Hardware.h ****         iostream->write(data[i]);
 2618              		.loc 9 84 0 discriminator 3
 2619 0012 FB68     		ldr	r3, [r7, #12]
 2620 0014 1B68     		ldr	r3, [r3]
 2621 0016 1B68     		ldr	r3, [r3]
 2622 0018 0833     		add	r3, r3, #8
 2623 001a 1A68     		ldr	r2, [r3]
 2624 001c FB68     		ldr	r3, [r7, #12]
 2625 001e 1868     		ldr	r0, [r3]
 2626 0020 7B69     		ldr	r3, [r7, #20]
 2627 0022 B968     		ldr	r1, [r7, #8]
 2628 0024 CB18     		add	r3, r1, r3
 2629 0026 1B78     		ldrb	r3, [r3]
 2630 0028 191C     		mov	r1, r3
 2631 002a 9047     		blx	r2
  83:./ros_lib/Psoc4Hardware.h ****       for(int i=0; i<length; i++)
 2632              		.loc 9 83 0 discriminator 3
 2633 002c 7B69     		ldr	r3, [r7, #20]
 2634 002e 0133     		add	r3, r3, #1
 2635 0030 7B61     		str	r3, [r7, #20]
 2636              	.L120:
  83:./ros_lib/Psoc4Hardware.h ****       for(int i=0; i<length; i++)
 2637              		.loc 9 83 0 is_stmt 0 discriminator 1
 2638 0032 7A69     		ldr	r2, [r7, #20]
 2639 0034 7B68     		ldr	r3, [r7, #4]
 2640 0036 9A42     		cmp	r2, r3
 2641 0038 EBDB     		blt	.L121
 2642              	.LBE35:
 2643              	.LBE34:
  85:./ros_lib/Psoc4Hardware.h ****     }
 2644              		.loc 9 85 0 is_stmt 1
 2645 003a BD46     		mov	sp, r7
 2646 003c 06B0     		add	sp, sp, #24
ARM GAS  C:\Users\Chuck\AppData\Local\Temp\cc5X170Y.s 			page 61


 2647              		@ sp needed
 2648 003e 80BD     		pop	{r7, pc}
 2649              		.cfi_endproc
 2650              	.LFE123:
 2651              		.size	_ZN13Psoc4Hardware5writeEPhi, .-_ZN13Psoc4Hardware5writeEPhi
 2652              		.section	.text._ZN13Psoc4Hardware4timeEv,"axG",%progbits,_ZN13Psoc4Hardware4timeEv,comdat
 2653              		.align	2
 2654              		.weak	_ZN13Psoc4Hardware4timeEv
 2655              		.code	16
 2656              		.thumb_func
 2657              		.type	_ZN13Psoc4Hardware4timeEv, %function
 2658              	_ZN13Psoc4Hardware4timeEv:
 2659              	.LFB124:
  86:./ros_lib/Psoc4Hardware.h **** 
  87:./ros_lib/Psoc4Hardware.h **** 
  88:./ros_lib/Psoc4Hardware.h ****     unsigned long time() {return SysTimer::millis();}
 2660              		.loc 9 88 0
 2661              		.cfi_startproc
 2662 0000 80B5     		push	{r7, lr}
 2663              		.cfi_def_cfa_offset 8
 2664              		.cfi_offset 7, -8
 2665              		.cfi_offset 14, -4
 2666 0002 82B0     		sub	sp, sp, #8
 2667              		.cfi_def_cfa_offset 16
 2668 0004 00AF     		add	r7, sp, #0
 2669              		.cfi_def_cfa_register 7
 2670 0006 7860     		str	r0, [r7, #4]
 2671              		.loc 9 88 0
 2672 0008 FFF7FEFF 		bl	_ZN8SysTimer6millisEv
 2673 000c 031C     		mov	r3, r0
 2674 000e 181C     		mov	r0, r3
 2675 0010 BD46     		mov	sp, r7
 2676 0012 02B0     		add	sp, sp, #8
 2677              		@ sp needed
 2678 0014 80BD     		pop	{r7, pc}
 2679              		.cfi_endproc
 2680              	.LFE124:
 2681              		.size	_ZN13Psoc4Hardware4timeEv, .-_ZN13Psoc4Hardware4timeEv
 2682              		.global	nh
 2683 0016 C046     		.bss
 2684              		.align	2
 2685              		.type	nh, %object
 2686              		.size	nh, 624
 2687              	nh:
 2688 0000 00000000 		.space	624
 2688      00000000 
 2688      00000000 
 2688      00000000 
 2688      00000000 
 2689              		.section	.text.main,"ax",%progbits
 2690              		.align	2
 2691              		.global	main
 2692              		.code	16
 2693              		.thumb_func
 2694              		.type	main, %function
 2695              	main:
 2696              	.LFB158:
ARM GAS  C:\Users\Chuck\AppData\Local\Temp\cc5X170Y.s 			page 62


 2697              		.file 10 ".\\main.cpp"
   1:.\main.cpp    **** /* ========================================
   2:.\main.cpp    ****  *
   3:.\main.cpp    ****  * PSoC4 "RosOnAStick" demo code
   4:.\main.cpp    ****  *
   5:.\main.cpp    ****  * Copyright C. Harrison
   6:.\main.cpp    ****  * BSD 2-clause license http://opensource.org/licenses/BSD-2-Clause
   7:.\main.cpp    ****  *
   8:.\main.cpp    ****  * ========================================
   9:.\main.cpp    **** */
  10:.\main.cpp    **** 
  11:.\main.cpp    **** #include <ros.h>
  12:.\main.cpp    **** #include "examples/examples.h"
  13:.\main.cpp    **** 
  14:.\main.cpp    **** extern void init(void);
  15:.\main.cpp    **** 
  16:.\main.cpp    **** ros::NodeHandle  nh;
  17:.\main.cpp    **** 
  18:.\main.cpp    **** int main()
  19:.\main.cpp    **** {
 2698              		.loc 10 19 0
 2699              		.cfi_startproc
 2700 0000 80B5     		push	{r7, lr}
 2701              		.cfi_def_cfa_offset 8
 2702              		.cfi_offset 7, -8
 2703              		.cfi_offset 14, -4
 2704 0002 00AF     		add	r7, sp, #0
 2705              		.cfi_def_cfa_register 7
  20:.\main.cpp    ****     init(); // start millisec clock
 2706              		.loc 10 20 0
 2707 0004 FFF7FEFF 		bl	_Z4initv
  21:.\main.cpp    **** 
  22:.\main.cpp    ****     nh.initNode();
 2708              		.loc 10 22 0
 2709 0008 144B     		ldr	r3, .L126
 2710 000a 181C     		mov	r0, r3
 2711 000c FFF7FEFF 		bl	_ZN3ros11NodeHandle_I13Psoc4HardwareLi10ELi20ELi200ELi200EE8initNodeEv
  23:.\main.cpp    ****     Blink::setup();
 2712              		.loc 10 23 0
 2713 0010 FFF7FEFF 		bl	_ZN5Blink5setupEv
  24:.\main.cpp    ****     HelloWorld::setup();
 2714              		.loc 10 24 0
 2715 0014 FFF7FEFF 		bl	_ZN10HelloWorld5setupEv
  25:.\main.cpp    ****     //ADC::setup();
  26:.\main.cpp    ****     Button::setup();
 2716              		.loc 10 26 0
 2717 0018 FFF7FEFF 		bl	_ZN6Button5setupEv
  27:.\main.cpp    ****     ServoControl::setup();
 2718              		.loc 10 27 0
 2719 001c FFF7FEFF 		bl	_ZN12ServoControl5setupEv
  28:.\main.cpp    ****     StepperControl::setup();
 2720              		.loc 10 28 0
 2721 0020 FFF7FEFF 		bl	_ZN14StepperControl5setupEv
  29:.\main.cpp    ****     Encoder::setup();
 2722              		.loc 10 29 0
 2723 0024 FFF7FEFF 		bl	_ZN7Encoder5setupEv
  30:.\main.cpp    ****     //Capsense::setup();
ARM GAS  C:\Users\Chuck\AppData\Local\Temp\cc5X170Y.s 			page 63


  31:.\main.cpp    ****     UpDownCount::setup();
 2724              		.loc 10 31 0
 2725 0028 FFF7FEFF 		bl	_ZN11UpDownCount5setupEv
  32:.\main.cpp    **** 	I2C_device::setup();
 2726              		.loc 10 32 0
 2727 002c FFF7FEFF 		bl	_ZN10I2C_device5setupEv
 2728              	.L125:
  33:.\main.cpp    **** 
  34:.\main.cpp    ****     for(;;)
  35:.\main.cpp    ****     {
  36:.\main.cpp    ****         Blink::loop();
 2729              		.loc 10 36 0 discriminator 1
 2730 0030 FFF7FEFF 		bl	_ZN5Blink4loopEv
  37:.\main.cpp    ****         HelloWorld::loop();
 2731              		.loc 10 37 0 discriminator 1
 2732 0034 FFF7FEFF 		bl	_ZN10HelloWorld4loopEv
  38:.\main.cpp    ****         //ADC::loop();
  39:.\main.cpp    ****         Button::loop();
 2733              		.loc 10 39 0 discriminator 1
 2734 0038 FFF7FEFF 		bl	_ZN6Button4loopEv
  40:.\main.cpp    ****         ServoControl::loop();
 2735              		.loc 10 40 0 discriminator 1
 2736 003c FFF7FEFF 		bl	_ZN12ServoControl4loopEv
  41:.\main.cpp    ****         StepperControl::loop();
 2737              		.loc 10 41 0 discriminator 1
 2738 0040 FFF7FEFF 		bl	_ZN14StepperControl4loopEv
  42:.\main.cpp    ****         Encoder::loop();
 2739              		.loc 10 42 0 discriminator 1
 2740 0044 FFF7FEFF 		bl	_ZN7Encoder4loopEv
  43:.\main.cpp    ****         //Capsense::loop();
  44:.\main.cpp    ****         UpDownCount::loop();
 2741              		.loc 10 44 0 discriminator 1
 2742 0048 FFF7FEFF 		bl	_ZN11UpDownCount4loopEv
  45:.\main.cpp    **** 		I2C_device::loop();
 2743              		.loc 10 45 0 discriminator 1
 2744 004c FFF7FEFF 		bl	_ZN10I2C_device4loopEv
  46:.\main.cpp    ****         
  47:.\main.cpp    ****         nh.spinOnce();
 2745              		.loc 10 47 0 discriminator 1
 2746 0050 024B     		ldr	r3, .L126
 2747 0052 181C     		mov	r0, r3
 2748 0054 FFF7FEFF 		bl	_ZN3ros11NodeHandle_I13Psoc4HardwareLi10ELi20ELi200ELi200EE8spinOnceEv
  18:.\main.cpp    **** {
 2749              		.loc 10 18 0 discriminator 1
 2750 0058 EAE7     		b	.L125
 2751              	.L127:
 2752 005a C046     		.align	2
 2753              	.L126:
 2754 005c 00000000 		.word	nh
 2755              		.cfi_endproc
 2756              	.LFE158:
 2757              		.size	main, .-main
 2758              		.section	.text._ZN3ros15NodeHandleBase_C2Ev,"axG",%progbits,_ZN3ros15NodeHandleBase_C5Ev,comdat
 2759              		.align	2
 2760              		.weak	_ZN3ros15NodeHandleBase_C2Ev
 2761              		.code	16
 2762              		.thumb_func
ARM GAS  C:\Users\Chuck\AppData\Local\Temp\cc5X170Y.s 			page 64


 2763              		.type	_ZN3ros15NodeHandleBase_C2Ev, %function
 2764              	_ZN3ros15NodeHandleBase_C2Ev:
 2765              	.LFB161:
 2766              		.file 11 "./ros_lib/ros/node_handle.h"
   1:./ros_lib/ros/node_handle.h **** /*
   2:./ros_lib/ros/node_handle.h ****  * Software License Agreement (BSD License)
   3:./ros_lib/ros/node_handle.h ****  *
   4:./ros_lib/ros/node_handle.h ****  * Copyright (c) 2011, Willow Garage, Inc.
   5:./ros_lib/ros/node_handle.h ****  * All rights reserved.
   6:./ros_lib/ros/node_handle.h ****  *
   7:./ros_lib/ros/node_handle.h ****  * Redistribution and use in source and binary forms, with or without
   8:./ros_lib/ros/node_handle.h ****  * modification, are permitted provided that the following conditions
   9:./ros_lib/ros/node_handle.h ****  * are met:
  10:./ros_lib/ros/node_handle.h ****  *
  11:./ros_lib/ros/node_handle.h ****  *  * Redistributions of source code must retain the above copyright
  12:./ros_lib/ros/node_handle.h ****  *    notice, this list of conditions and the following disclaimer.
  13:./ros_lib/ros/node_handle.h ****  *  * Redistributions in binary form must reproduce the above
  14:./ros_lib/ros/node_handle.h ****  *    copyright notice, this list of conditions and the following
  15:./ros_lib/ros/node_handle.h ****  *    disclaimer in the documentation and/or other materials provided
  16:./ros_lib/ros/node_handle.h ****  *    with the distribution.
  17:./ros_lib/ros/node_handle.h ****  *  * Neither the name of Willow Garage, Inc. nor the names of its
  18:./ros_lib/ros/node_handle.h ****  *    contributors may be used to endorse or promote prducts derived
  19:./ros_lib/ros/node_handle.h ****  *    from this software without specific prior written permission.
  20:./ros_lib/ros/node_handle.h ****  *
  21:./ros_lib/ros/node_handle.h ****  * THIS SOFTWARE IS PROVIDED BY THE COPYRIGHT HOLDERS AND CONTRIBUTORS
  22:./ros_lib/ros/node_handle.h ****  * "AS IS" AND ANY EXPRESS OR IMPLIED WARRANTIES, INCLUDING, BUT NOT
  23:./ros_lib/ros/node_handle.h ****  * LIMITED TO, THE IMPLIED WARRANTIES OF MERCHANTABILITY AND FITNESS
  24:./ros_lib/ros/node_handle.h ****  * FOR A PARTICULAR PURPOSE ARE DISCLAIMED. IN NO EVENT SHALL THE
  25:./ros_lib/ros/node_handle.h ****  * COPYRIGHT OWNER OR CONTRIBUTORS BE LIABLE FOR ANY DIRECT, INDIRECT,
  26:./ros_lib/ros/node_handle.h ****  * INCIDENTAL, SPECIAL, EXEMPLARY, OR CONSEQUENTIAL DAMAGES (INCLUDING,
  27:./ros_lib/ros/node_handle.h ****  * BUT NOT LIMITED TO, PROCUREMENT OF SUBSTITUTE GOODS OR SERVICES;
  28:./ros_lib/ros/node_handle.h ****  * LOSS OF USE, DATA, OR PROFITS; OR BUSINESS INTERRUPTION) HOWEVER
  29:./ros_lib/ros/node_handle.h ****  * CAUSED AND ON ANY THEORY OF LIABILITY, WHETHER IN CONTRACT, STRICT
  30:./ros_lib/ros/node_handle.h ****  * LIABILITY, OR TORT (INCLUDING NEGLIGENCE OR OTHERWISE) ARISING IN
  31:./ros_lib/ros/node_handle.h ****  * ANY WAY OUT OF THE USE OF THIS SOFTWARE, EVEN IF ADVISED OF THE
  32:./ros_lib/ros/node_handle.h ****  * POSSIBILITY OF SUCH DAMAGE.
  33:./ros_lib/ros/node_handle.h ****  */
  34:./ros_lib/ros/node_handle.h **** 
  35:./ros_lib/ros/node_handle.h **** #ifndef ROS_NODE_HANDLE_H_
  36:./ros_lib/ros/node_handle.h **** #define ROS_NODE_HANDLE_H_
  37:./ros_lib/ros/node_handle.h **** 
  38:./ros_lib/ros/node_handle.h **** #ifndef PARAM_REQ_SUPPORT
  39:./ros_lib/ros/node_handle.h **** #define PARAM_REQ_SUPPORT 1
  40:./ros_lib/ros/node_handle.h **** #endif
  41:./ros_lib/ros/node_handle.h **** 
  42:./ros_lib/ros/node_handle.h **** #include "std_msgs/Time.h"
  43:./ros_lib/ros/node_handle.h **** #include "rosserial_msgs/TopicInfo.h"
  44:./ros_lib/ros/node_handle.h **** #include "rosserial_msgs/Log.h"
  45:./ros_lib/ros/node_handle.h **** #if PARAM_REQ_SUPPORT
  46:./ros_lib/ros/node_handle.h **** #include "rosserial_msgs/RequestParam.h"
  47:./ros_lib/ros/node_handle.h **** #endif
  48:./ros_lib/ros/node_handle.h **** 
  49:./ros_lib/ros/node_handle.h **** #define SYNC_SECONDS        2
  50:./ros_lib/ros/node_handle.h **** 
  51:./ros_lib/ros/node_handle.h **** #define MODE_FIRST_FF       0
  52:./ros_lib/ros/node_handle.h **** /*
  53:./ros_lib/ros/node_handle.h ****  * The second sync byte is a protocol version. It's value is 0xff for the first
ARM GAS  C:\Users\Chuck\AppData\Local\Temp\cc5X170Y.s 			page 65


  54:./ros_lib/ros/node_handle.h ****  * version of the rosserial protocol (used up to hydro), 0xfe for the second version
  55:./ros_lib/ros/node_handle.h ****  * (introduced in hydro), 0xfd for the next, and so on. Its purpose is to enable
  56:./ros_lib/ros/node_handle.h ****  * detection of mismatched protocol versions (e.g. hydro rosserial_python with groovy
  57:./ros_lib/ros/node_handle.h ****  * rosserial_arduino. It must be changed in both this file and in
  58:./ros_lib/ros/node_handle.h ****  * rosserial_python/src/rosserial_python/SerialClient.py
  59:./ros_lib/ros/node_handle.h ****  */
  60:./ros_lib/ros/node_handle.h **** #define MODE_PROTOCOL_VER   1
  61:./ros_lib/ros/node_handle.h **** #define PROTOCOL_VER1		0xff // through groovy
  62:./ros_lib/ros/node_handle.h **** #define PROTOCOL_VER2		0xfe // in hydro
  63:./ros_lib/ros/node_handle.h **** #define PROTOCOL_VER 		PROTOCOL_VER2
  64:./ros_lib/ros/node_handle.h **** #define MODE_SIZE_L         2   
  65:./ros_lib/ros/node_handle.h **** #define MODE_SIZE_H         3
  66:./ros_lib/ros/node_handle.h **** #define MODE_SIZE_CHECKSUM  4   // checksum for msg size received from size L and H
  67:./ros_lib/ros/node_handle.h **** #define MODE_TOPIC_L        5   // waiting for topic id
  68:./ros_lib/ros/node_handle.h **** #define MODE_TOPIC_H        6
  69:./ros_lib/ros/node_handle.h **** #define MODE_MESSAGE        7
  70:./ros_lib/ros/node_handle.h **** #define MODE_MSG_CHECKSUM   8   // checksum for msg and topic id 
  71:./ros_lib/ros/node_handle.h **** 
  72:./ros_lib/ros/node_handle.h **** 
  73:./ros_lib/ros/node_handle.h **** #define MSG_TIMEOUT 200  // was 20 milliseconds to recieve all of message data
  74:./ros_lib/ros/node_handle.h **** 
  75:./ros_lib/ros/node_handle.h **** #include "msg.h"
  76:./ros_lib/ros/node_handle.h **** 
  77:./ros_lib/ros/node_handle.h **** namespace ros {
  78:./ros_lib/ros/node_handle.h **** 
  79:./ros_lib/ros/node_handle.h ****   class NodeHandleBase_{
 2767              		.loc 11 79 0
 2768              		.cfi_startproc
 2769 0000 80B5     		push	{r7, lr}
 2770              		.cfi_def_cfa_offset 8
 2771              		.cfi_offset 7, -8
 2772              		.cfi_offset 14, -4
 2773 0002 82B0     		sub	sp, sp, #8
 2774              		.cfi_def_cfa_offset 16
 2775 0004 00AF     		add	r7, sp, #0
 2776              		.cfi_def_cfa_register 7
 2777 0006 7860     		str	r0, [r7, #4]
 2778              	.LBB36:
 2779              		.loc 11 79 0
 2780 0008 7B68     		ldr	r3, [r7, #4]
 2781 000a 034A     		ldr	r2, .L131
 2782 000c 1A60     		str	r2, [r3]
 2783              	.LBE36:
 2784 000e 7B68     		ldr	r3, [r7, #4]
 2785 0010 181C     		mov	r0, r3
 2786 0012 BD46     		mov	sp, r7
 2787 0014 02B0     		add	sp, sp, #8
 2788              		@ sp needed
 2789 0016 80BD     		pop	{r7, pc}
 2790              	.L132:
 2791              		.align	2
 2792              	.L131:
 2793 0018 08000000 		.word	_ZTVN3ros15NodeHandleBase_E+8
 2794              		.cfi_endproc
 2795              	.LFE161:
 2796              		.size	_ZN3ros15NodeHandleBase_C2Ev, .-_ZN3ros15NodeHandleBase_C2Ev
 2797              		.weak	_ZN3ros15NodeHandleBase_C1Ev
ARM GAS  C:\Users\Chuck\AppData\Local\Temp\cc5X170Y.s 			page 66


 2798              		.thumb_set _ZN3ros15NodeHandleBase_C1Ev,_ZN3ros15NodeHandleBase_C2Ev
 2799              		.section	.text._ZN3ros11NodeHandle_I13Psoc4HardwareLi10ELi20ELi200ELi200EEC2Ev,"axG",%progbits,_ZN
 2800              		.align	2
 2801              		.weak	_ZN3ros11NodeHandle_I13Psoc4HardwareLi10ELi20ELi200ELi200EEC2Ev
 2802              		.code	16
 2803              		.thumb_func
 2804              		.type	_ZN3ros11NodeHandle_I13Psoc4HardwareLi10ELi20ELi200ELi200EEC2Ev, %function
 2805              	_ZN3ros11NodeHandle_I13Psoc4HardwareLi10ELi20ELi200ELi200EEC2Ev:
 2806              	.LFB163:
  80:./ros_lib/ros/node_handle.h ****     public:
  81:./ros_lib/ros/node_handle.h ****       virtual int publish(int id, const Msg* msg)=0;
  82:./ros_lib/ros/node_handle.h ****       virtual int spinOnce()=0;
  83:./ros_lib/ros/node_handle.h ****       virtual bool connected()=0;
  84:./ros_lib/ros/node_handle.h ****     };
  85:./ros_lib/ros/node_handle.h **** }
  86:./ros_lib/ros/node_handle.h **** 
  87:./ros_lib/ros/node_handle.h **** #include "publisher.h"
  88:./ros_lib/ros/node_handle.h **** #include "subscriber.h"
  89:./ros_lib/ros/node_handle.h **** #include "service_server.h"
  90:./ros_lib/ros/node_handle.h **** #include "service_client.h"
  91:./ros_lib/ros/node_handle.h **** 
  92:./ros_lib/ros/node_handle.h **** namespace ros {
  93:./ros_lib/ros/node_handle.h **** 
  94:./ros_lib/ros/node_handle.h ****   using rosserial_msgs::TopicInfo;
  95:./ros_lib/ros/node_handle.h **** 
  96:./ros_lib/ros/node_handle.h ****   /* Node Handle */
  97:./ros_lib/ros/node_handle.h ****   template<class Hardware,
  98:./ros_lib/ros/node_handle.h ****            int MAX_SUBSCRIBERS=25,
  99:./ros_lib/ros/node_handle.h ****            int MAX_PUBLISHERS=25,
 100:./ros_lib/ros/node_handle.h ****            int INPUT_SIZE=512,
 101:./ros_lib/ros/node_handle.h ****            int OUTPUT_SIZE=512>
 102:./ros_lib/ros/node_handle.h ****   class NodeHandle_ : public NodeHandleBase_
 103:./ros_lib/ros/node_handle.h ****   {
 104:./ros_lib/ros/node_handle.h ****     protected:
 105:./ros_lib/ros/node_handle.h ****       Hardware hardware_;
 106:./ros_lib/ros/node_handle.h **** 
 107:./ros_lib/ros/node_handle.h ****       /* time used for syncing */
 108:./ros_lib/ros/node_handle.h ****       unsigned long rt_time;
 109:./ros_lib/ros/node_handle.h **** 
 110:./ros_lib/ros/node_handle.h ****       /* used for computing current time */
 111:./ros_lib/ros/node_handle.h ****       unsigned long sec_offset, nsec_offset;
 112:./ros_lib/ros/node_handle.h **** 
 113:./ros_lib/ros/node_handle.h ****       unsigned char message_in[INPUT_SIZE];
 114:./ros_lib/ros/node_handle.h ****       unsigned char message_out[OUTPUT_SIZE];
 115:./ros_lib/ros/node_handle.h **** 
 116:./ros_lib/ros/node_handle.h ****       Publisher * publishers[MAX_PUBLISHERS];
 117:./ros_lib/ros/node_handle.h ****       Subscriber_ * subscribers[MAX_SUBSCRIBERS];
 118:./ros_lib/ros/node_handle.h **** 
 119:./ros_lib/ros/node_handle.h ****       /*
 120:./ros_lib/ros/node_handle.h ****        * Setup Functions
 121:./ros_lib/ros/node_handle.h ****        */
 122:./ros_lib/ros/node_handle.h ****     public:
 123:./ros_lib/ros/node_handle.h ****       NodeHandle_() : configured_(false) {
 2807              		.loc 11 123 0
 2808              		.cfi_startproc
 2809 0000 80B5     		push	{r7, lr}
 2810              		.cfi_def_cfa_offset 8
ARM GAS  C:\Users\Chuck\AppData\Local\Temp\cc5X170Y.s 			page 67


 2811              		.cfi_offset 7, -8
 2812              		.cfi_offset 14, -4
 2813 0002 86B0     		sub	sp, sp, #24
 2814              		.cfi_def_cfa_offset 32
 2815 0004 00AF     		add	r7, sp, #0
 2816              		.cfi_def_cfa_register 7
 2817 0006 7860     		str	r0, [r7, #4]
 2818              	.LBB37:
 2819              		.loc 11 123 0
 2820 0008 7B68     		ldr	r3, [r7, #4]
 2821 000a 181C     		mov	r0, r3
 2822 000c FFF7FEFF 		bl	_ZN3ros15NodeHandleBase_C2Ev
 2823 0010 7B68     		ldr	r3, [r7, #4]
 2824 0012 3A4A     		ldr	r2, .L144
 2825 0014 1A60     		str	r2, [r3]
 2826 0016 7B68     		ldr	r3, [r7, #4]
 2827 0018 0433     		add	r3, r3, #4
 2828 001a 181C     		mov	r0, r3
 2829 001c FFF7FEFF 		bl	_ZN13Psoc4HardwareC1Ev
 2830 0020 7A68     		ldr	r2, [r7, #4]
 2831 0022 8D23     		mov	r3, #141
 2832 0024 9B00     		lsl	r3, r3, #2
 2833 0026 0021     		mov	r1, #0
 2834 0028 D154     		strb	r1, [r2, r3]
 2835 002a 7B68     		ldr	r3, [r7, #4]
 2836 002c 9222     		mov	r2, #146
 2837 002e 9200     		lsl	r2, r2, #2
 2838 0030 9446     		mov	ip, r2
 2839 0032 6344     		add	r3, r3, ip
 2840 0034 181C     		mov	r0, r3
 2841 0036 FFF7FEFF 		bl	_ZN14rosserial_msgs20RequestParamResponseC1Ev
 2842              	.LBB38:
 2843              	.LBB39:
 124:./ros_lib/ros/node_handle.h **** #if true
 125:./ros_lib/ros/node_handle.h ****         for(unsigned int i=0; i< MAX_PUBLISHERS; i++) 
 2844              		.loc 11 125 0
 2845 003a 0023     		mov	r3, #0
 2846 003c 7B61     		str	r3, [r7, #20]
 2847 003e 08E0     		b	.L134
 2848              	.L135:
 126:./ros_lib/ros/node_handle.h **** 	   publishers[i] = 0;
 2849              		.loc 11 126 0 discriminator 3
 2850 0040 7B68     		ldr	r3, [r7, #4]
 2851 0042 7A69     		ldr	r2, [r7, #20]
 2852 0044 6A32     		add	r2, r2, #106
 2853 0046 9200     		lsl	r2, r2, #2
 2854 0048 0021     		mov	r1, #0
 2855 004a D150     		str	r1, [r2, r3]
 125:./ros_lib/ros/node_handle.h **** 	   publishers[i] = 0;
 2856              		.loc 11 125 0 discriminator 3
 2857 004c 7B69     		ldr	r3, [r7, #20]
 2858 004e 0133     		add	r3, r3, #1
 2859 0050 7B61     		str	r3, [r7, #20]
 2860              	.L134:
 125:./ros_lib/ros/node_handle.h **** 	   publishers[i] = 0;
 2861              		.loc 11 125 0 is_stmt 0 discriminator 1
 2862 0052 7B69     		ldr	r3, [r7, #20]
ARM GAS  C:\Users\Chuck\AppData\Local\Temp\cc5X170Y.s 			page 68


 2863 0054 132B     		cmp	r3, #19
 2864 0056 F3D9     		bls	.L135
 2865              	.LBE39:
 2866              	.LBB40:
 127:./ros_lib/ros/node_handle.h **** 
 128:./ros_lib/ros/node_handle.h ****         for(unsigned int i=0; i< MAX_SUBSCRIBERS; i++) 
 2867              		.loc 11 128 0 is_stmt 1
 2868 0058 0023     		mov	r3, #0
 2869 005a 3B61     		str	r3, [r7, #16]
 2870 005c 08E0     		b	.L136
 2871              	.L137:
 129:./ros_lib/ros/node_handle.h **** 	   subscribers[i] = 0;
 2872              		.loc 11 129 0 discriminator 3
 2873 005e 7B68     		ldr	r3, [r7, #4]
 2874 0060 3A69     		ldr	r2, [r7, #16]
 2875 0062 7E32     		add	r2, r2, #126
 2876 0064 9200     		lsl	r2, r2, #2
 2877 0066 0021     		mov	r1, #0
 2878 0068 D150     		str	r1, [r2, r3]
 128:./ros_lib/ros/node_handle.h **** 	   subscribers[i] = 0;
 2879              		.loc 11 128 0 discriminator 3
 2880 006a 3B69     		ldr	r3, [r7, #16]
 2881 006c 0133     		add	r3, r3, #1
 2882 006e 3B61     		str	r3, [r7, #16]
 2883              	.L136:
 128:./ros_lib/ros/node_handle.h **** 	   subscribers[i] = 0;
 2884              		.loc 11 128 0 is_stmt 0 discriminator 1
 2885 0070 3B69     		ldr	r3, [r7, #16]
 2886 0072 092B     		cmp	r3, #9
 2887 0074 F3D9     		bls	.L137
 2888              	.LBE40:
 2889              	.LBB41:
 130:./ros_lib/ros/node_handle.h **** 
 131:./ros_lib/ros/node_handle.h ****         for(unsigned int i=0; i< INPUT_SIZE; i++) 
 2890              		.loc 11 131 0 is_stmt 1
 2891 0076 0023     		mov	r3, #0
 2892 0078 FB60     		str	r3, [r7, #12]
 2893 007a 08E0     		b	.L138
 2894              	.L139:
 132:./ros_lib/ros/node_handle.h **** 	   message_in[i] = 0;
 2895              		.loc 11 132 0 discriminator 3
 2896 007c 7A68     		ldr	r2, [r7, #4]
 2897 007e FB68     		ldr	r3, [r7, #12]
 2898 0080 D318     		add	r3, r2, r3
 2899 0082 1833     		add	r3, r3, #24
 2900 0084 0022     		mov	r2, #0
 2901 0086 1A70     		strb	r2, [r3]
 131:./ros_lib/ros/node_handle.h **** 	   message_in[i] = 0;
 2902              		.loc 11 131 0 discriminator 3
 2903 0088 FB68     		ldr	r3, [r7, #12]
 2904 008a 0133     		add	r3, r3, #1
 2905 008c FB60     		str	r3, [r7, #12]
 2906              	.L138:
 131:./ros_lib/ros/node_handle.h **** 	   message_in[i] = 0;
 2907              		.loc 11 131 0 is_stmt 0 discriminator 1
 2908 008e FB68     		ldr	r3, [r7, #12]
 2909 0090 C72B     		cmp	r3, #199
ARM GAS  C:\Users\Chuck\AppData\Local\Temp\cc5X170Y.s 			page 69


 2910 0092 F3D9     		bls	.L139
 2911              	.LBE41:
 2912              	.LBB42:
 133:./ros_lib/ros/node_handle.h **** 
 134:./ros_lib/ros/node_handle.h ****         for(unsigned int i=0; i< OUTPUT_SIZE; i++) 
 2913              		.loc 11 134 0 is_stmt 1
 2914 0094 0023     		mov	r3, #0
 2915 0096 BB60     		str	r3, [r7, #8]
 2916 0098 09E0     		b	.L140
 2917              	.L141:
 135:./ros_lib/ros/node_handle.h **** 	   message_out[i] = 0;
 2918              		.loc 11 135 0 discriminator 3
 2919 009a 7A68     		ldr	r2, [r7, #4]
 2920 009c E021     		mov	r1, #224
 2921 009e BB68     		ldr	r3, [r7, #8]
 2922 00a0 D318     		add	r3, r2, r3
 2923 00a2 5B18     		add	r3, r3, r1
 2924 00a4 0022     		mov	r2, #0
 2925 00a6 1A70     		strb	r2, [r3]
 134:./ros_lib/ros/node_handle.h **** 	   message_out[i] = 0;
 2926              		.loc 11 134 0 discriminator 3
 2927 00a8 BB68     		ldr	r3, [r7, #8]
 2928 00aa 0133     		add	r3, r3, #1
 2929 00ac BB60     		str	r3, [r7, #8]
 2930              	.L140:
 134:./ros_lib/ros/node_handle.h **** 	   message_out[i] = 0;
 2931              		.loc 11 134 0 is_stmt 0 discriminator 1
 2932 00ae BB68     		ldr	r3, [r7, #8]
 2933 00b0 C72B     		cmp	r3, #199
 2934 00b2 F2D9     		bls	.L141
 2935              	.LBE42:
 136:./ros_lib/ros/node_handle.h **** 
 137:./ros_lib/ros/node_handle.h ****         req_param_resp.ints_length = 0;
 2936              		.loc 11 137 0 is_stmt 1
 2937 00b4 7A68     		ldr	r2, [r7, #4]
 2938 00b6 9323     		mov	r3, #147
 2939 00b8 9B00     		lsl	r3, r3, #2
 2940 00ba 0021     		mov	r1, #0
 2941 00bc D154     		strb	r1, [r2, r3]
 138:./ros_lib/ros/node_handle.h ****         req_param_resp.ints = NULL;
 2942              		.loc 11 138 0
 2943 00be 7A68     		ldr	r2, [r7, #4]
 2944 00c0 9523     		mov	r3, #149
 2945 00c2 9B00     		lsl	r3, r3, #2
 2946 00c4 0021     		mov	r1, #0
 2947 00c6 D150     		str	r1, [r2, r3]
 139:./ros_lib/ros/node_handle.h ****         req_param_resp.floats_length = 0;
 2948              		.loc 11 139 0
 2949 00c8 7A68     		ldr	r2, [r7, #4]
 2950 00ca 9623     		mov	r3, #150
 2951 00cc 9B00     		lsl	r3, r3, #2
 2952 00ce 0021     		mov	r1, #0
 2953 00d0 D154     		strb	r1, [r2, r3]
 140:./ros_lib/ros/node_handle.h ****         req_param_resp.floats = NULL;
 2954              		.loc 11 140 0
 2955 00d2 7A68     		ldr	r2, [r7, #4]
 2956 00d4 9823     		mov	r3, #152
ARM GAS  C:\Users\Chuck\AppData\Local\Temp\cc5X170Y.s 			page 70


 2957 00d6 9B00     		lsl	r3, r3, #2
 2958 00d8 0021     		mov	r1, #0
 2959 00da D150     		str	r1, [r2, r3]
 141:./ros_lib/ros/node_handle.h ****         req_param_resp.ints_length = 0;
 2960              		.loc 11 141 0
 2961 00dc 7A68     		ldr	r2, [r7, #4]
 2962 00de 9323     		mov	r3, #147
 2963 00e0 9B00     		lsl	r3, r3, #2
 2964 00e2 0021     		mov	r1, #0
 2965 00e4 D154     		strb	r1, [r2, r3]
 142:./ros_lib/ros/node_handle.h ****         req_param_resp.ints = NULL;
 2966              		.loc 11 142 0
 2967 00e6 7A68     		ldr	r2, [r7, #4]
 2968 00e8 9523     		mov	r3, #149
 2969 00ea 9B00     		lsl	r3, r3, #2
 2970 00ec 0021     		mov	r1, #0
 2971 00ee D150     		str	r1, [r2, r3]
 2972              	.LBE38:
 2973              	.LBE37:
 143:./ros_lib/ros/node_handle.h ****       }
 2974              		.loc 11 143 0
 2975 00f0 7B68     		ldr	r3, [r7, #4]
 2976 00f2 181C     		mov	r0, r3
 2977 00f4 BD46     		mov	sp, r7
 2978 00f6 06B0     		add	sp, sp, #24
 2979              		@ sp needed
 2980 00f8 80BD     		pop	{r7, pc}
 2981              	.L145:
 2982 00fa C046     		.align	2
 2983              	.L144:
 2984 00fc 08000000 		.word	_ZTVN3ros11NodeHandle_I13Psoc4HardwareLi10ELi20ELi200ELi200EEE+8
 2985              		.cfi_endproc
 2986              	.LFE163:
 2987              		.size	_ZN3ros11NodeHandle_I13Psoc4HardwareLi10ELi20ELi200ELi200EEC2Ev, .-_ZN3ros11NodeHandle_I13Ps
 2988              		.weak	_ZN3ros11NodeHandle_I13Psoc4HardwareLi10ELi20ELi200ELi200EEC1Ev
 2989              		.thumb_set _ZN3ros11NodeHandle_I13Psoc4HardwareLi10ELi20ELi200ELi200EEC1Ev,_ZN3ros11NodeHandle_I13
 2990              		.section	.text._ZN3ros11NodeHandle_I13Psoc4HardwareLi10ELi20ELi200ELi200EE8initNodeEv,"axG",%progb
 2991              		.align	2
 2992              		.weak	_ZN3ros11NodeHandle_I13Psoc4HardwareLi10ELi20ELi200ELi200EE8initNodeEv
 2993              		.code	16
 2994              		.thumb_func
 2995              		.type	_ZN3ros11NodeHandle_I13Psoc4HardwareLi10ELi20ELi200ELi200EE8initNodeEv, %function
 2996              	_ZN3ros11NodeHandle_I13Psoc4HardwareLi10ELi20ELi200ELi200EE8initNodeEv:
 2997              	.LFB165:
 144:./ros_lib/ros/node_handle.h **** #endif      
 145:./ros_lib/ros/node_handle.h ****       Hardware* getHardware(){
 146:./ros_lib/ros/node_handle.h ****         return &hardware_;
 147:./ros_lib/ros/node_handle.h ****       }
 148:./ros_lib/ros/node_handle.h **** 
 149:./ros_lib/ros/node_handle.h ****       /* Start serial, initialize buffers */
 150:./ros_lib/ros/node_handle.h ****       void initNode(){
 2998              		.loc 11 150 0
 2999              		.cfi_startproc
 3000 0000 80B5     		push	{r7, lr}
 3001              		.cfi_def_cfa_offset 8
 3002              		.cfi_offset 7, -8
 3003              		.cfi_offset 14, -4
ARM GAS  C:\Users\Chuck\AppData\Local\Temp\cc5X170Y.s 			page 71


 3004 0002 82B0     		sub	sp, sp, #8
 3005              		.cfi_def_cfa_offset 16
 3006 0004 00AF     		add	r7, sp, #0
 3007              		.cfi_def_cfa_register 7
 3008 0006 7860     		str	r0, [r7, #4]
 151:./ros_lib/ros/node_handle.h ****         hardware_.init();
 3009              		.loc 11 151 0
 3010 0008 7B68     		ldr	r3, [r7, #4]
 3011 000a 0433     		add	r3, r3, #4
 3012 000c 181C     		mov	r0, r3
 3013 000e FFF7FEFF 		bl	_ZN13Psoc4Hardware4initEv
 152:./ros_lib/ros/node_handle.h ****         mode_ = 0;
 3014              		.loc 11 152 0
 3015 0012 7A68     		ldr	r2, [r7, #4]
 3016 0014 8823     		mov	r3, #136
 3017 0016 9B00     		lsl	r3, r3, #2
 3018 0018 0021     		mov	r1, #0
 3019 001a D150     		str	r1, [r2, r3]
 153:./ros_lib/ros/node_handle.h ****         bytes_ = 0;
 3020              		.loc 11 153 0
 3021 001c 7A68     		ldr	r2, [r7, #4]
 3022 001e 8923     		mov	r3, #137
 3023 0020 9B00     		lsl	r3, r3, #2
 3024 0022 0021     		mov	r1, #0
 3025 0024 D150     		str	r1, [r2, r3]
 154:./ros_lib/ros/node_handle.h ****         index_ = 0;
 3026              		.loc 11 154 0
 3027 0026 7A68     		ldr	r2, [r7, #4]
 3028 0028 8B23     		mov	r3, #139
 3029 002a 9B00     		lsl	r3, r3, #2
 3030 002c 0021     		mov	r1, #0
 3031 002e D150     		str	r1, [r2, r3]
 155:./ros_lib/ros/node_handle.h ****         topic_ = 0;
 3032              		.loc 11 155 0
 3033 0030 7A68     		ldr	r2, [r7, #4]
 3034 0032 8A23     		mov	r3, #138
 3035 0034 9B00     		lsl	r3, r3, #2
 3036 0036 0021     		mov	r1, #0
 3037 0038 D150     		str	r1, [r2, r3]
 156:./ros_lib/ros/node_handle.h ****       };
 3038              		.loc 11 156 0
 3039 003a BD46     		mov	sp, r7
 3040 003c 02B0     		add	sp, sp, #8
 3041              		@ sp needed
 3042 003e 80BD     		pop	{r7, pc}
 3043              		.cfi_endproc
 3044              	.LFE165:
 3045              		.size	_ZN3ros11NodeHandle_I13Psoc4HardwareLi10ELi20ELi200ELi200EE8initNodeEv, .-_ZN3ros11NodeHandl
 3046              		.section	.text._ZN3ros11NodeHandle_I13Psoc4HardwareLi10ELi20ELi200ELi200EE8spinOnceEv,"axG",%progb
 3047              		.align	2
 3048              		.weak	_ZN3ros11NodeHandle_I13Psoc4HardwareLi10ELi20ELi200ELi200EE8spinOnceEv
 3049              		.code	16
 3050              		.thumb_func
 3051              		.type	_ZN3ros11NodeHandle_I13Psoc4HardwareLi10ELi20ELi200ELi200EE8spinOnceEv, %function
 3052              	_ZN3ros11NodeHandle_I13Psoc4HardwareLi10ELi20ELi200ELi200EE8spinOnceEv:
 3053              	.LFB166:
 157:./ros_lib/ros/node_handle.h **** 
ARM GAS  C:\Users\Chuck\AppData\Local\Temp\cc5X170Y.s 			page 72


 158:./ros_lib/ros/node_handle.h ****       /* Start a named port, which may be network server IP, initialize buffers */
 159:./ros_lib/ros/node_handle.h ****       void initNode(char *portName){
 160:./ros_lib/ros/node_handle.h ****         hardware_.init(portName);
 161:./ros_lib/ros/node_handle.h ****         mode_ = 0;
 162:./ros_lib/ros/node_handle.h ****         bytes_ = 0;
 163:./ros_lib/ros/node_handle.h ****         index_ = 0;
 164:./ros_lib/ros/node_handle.h ****         topic_ = 0;
 165:./ros_lib/ros/node_handle.h ****       };
 166:./ros_lib/ros/node_handle.h **** 
 167:./ros_lib/ros/node_handle.h ****     protected:
 168:./ros_lib/ros/node_handle.h ****       //State machine variables for spinOnce
 169:./ros_lib/ros/node_handle.h ****       int mode_;
 170:./ros_lib/ros/node_handle.h ****       int bytes_;
 171:./ros_lib/ros/node_handle.h ****       int topic_;
 172:./ros_lib/ros/node_handle.h ****       int index_;
 173:./ros_lib/ros/node_handle.h ****       int checksum_;
 174:./ros_lib/ros/node_handle.h **** 
 175:./ros_lib/ros/node_handle.h ****       bool configured_;
 176:./ros_lib/ros/node_handle.h **** 
 177:./ros_lib/ros/node_handle.h ****       /* used for syncing the time */
 178:./ros_lib/ros/node_handle.h ****       unsigned long last_sync_time;
 179:./ros_lib/ros/node_handle.h ****       unsigned long last_sync_receive_time;
 180:./ros_lib/ros/node_handle.h ****       unsigned long last_msg_timeout_time;
 181:./ros_lib/ros/node_handle.h **** 
 182:./ros_lib/ros/node_handle.h ****     public:
 183:./ros_lib/ros/node_handle.h ****       /* This function goes in your loop() function, it handles
 184:./ros_lib/ros/node_handle.h ****        *  serial input and callbacks for subscribers.
 185:./ros_lib/ros/node_handle.h ****        */
 186:./ros_lib/ros/node_handle.h **** 
 187:./ros_lib/ros/node_handle.h **** 
 188:./ros_lib/ros/node_handle.h ****       virtual int spinOnce(){
 3054              		.loc 11 188 0
 3055              		.cfi_startproc
 3056 0000 80B5     		push	{r7, lr}
 3057              		.cfi_def_cfa_offset 8
 3058              		.cfi_offset 7, -8
 3059              		.cfi_offset 14, -4
 3060 0002 84B0     		sub	sp, sp, #16
 3061              		.cfi_def_cfa_offset 24
 3062 0004 00AF     		add	r7, sp, #0
 3063              		.cfi_def_cfa_register 7
 3064 0006 7860     		str	r0, [r7, #4]
 3065              	.LBB43:
 189:./ros_lib/ros/node_handle.h **** 
 190:./ros_lib/ros/node_handle.h ****         /* restart if timed out */
 191:./ros_lib/ros/node_handle.h ****         unsigned long c_time = hardware_.time();
 3066              		.loc 11 191 0
 3067 0008 7B68     		ldr	r3, [r7, #4]
 3068 000a 0433     		add	r3, r3, #4
 3069 000c 181C     		mov	r0, r3
 3070 000e FFF7FEFF 		bl	_ZN13Psoc4Hardware4timeEv
 3071 0012 031C     		mov	r3, r0
 3072 0014 FB60     		str	r3, [r7, #12]
 192:./ros_lib/ros/node_handle.h ****         if( (c_time - last_sync_receive_time) > (SYNC_SECONDS*1100) ){
 3073              		.loc 11 192 0
 3074 0016 7A68     		ldr	r2, [r7, #4]
 3075 0018 8F23     		mov	r3, #143
ARM GAS  C:\Users\Chuck\AppData\Local\Temp\cc5X170Y.s 			page 73


 3076 001a 9B00     		lsl	r3, r3, #2
 3077 001c D358     		ldr	r3, [r2, r3]
 3078 001e FA68     		ldr	r2, [r7, #12]
 3079 0020 D31A     		sub	r3, r2, r3
 3080 0022 D74A     		ldr	r2, .L174
 3081 0024 9342     		cmp	r3, r2
 3082 0026 04D9     		bls	.L148
 193:./ros_lib/ros/node_handle.h ****             configured_ = false;
 3083              		.loc 11 193 0
 3084 0028 7A68     		ldr	r2, [r7, #4]
 3085 002a 8D23     		mov	r3, #141
 3086 002c 9B00     		lsl	r3, r3, #2
 3087 002e 0021     		mov	r1, #0
 3088 0030 D154     		strb	r1, [r2, r3]
 3089              	.L148:
 194:./ros_lib/ros/node_handle.h ****          }
 195:./ros_lib/ros/node_handle.h ****          
 196:./ros_lib/ros/node_handle.h ****         /* reset if message has timed out */
 197:./ros_lib/ros/node_handle.h ****         if ( mode_ != MODE_FIRST_FF){ 
 3090              		.loc 11 197 0
 3091 0032 7A68     		ldr	r2, [r7, #4]
 3092 0034 8823     		mov	r3, #136
 3093 0036 9B00     		lsl	r3, r3, #2
 3094 0038 D358     		ldr	r3, [r2, r3]
 3095 003a 002B     		cmp	r3, #0
 3096 003c 0BD0     		beq	.L149
 198:./ros_lib/ros/node_handle.h ****           if (c_time > last_msg_timeout_time){
 3097              		.loc 11 198 0
 3098 003e 7A68     		ldr	r2, [r7, #4]
 3099 0040 9023     		mov	r3, #144
 3100 0042 9B00     		lsl	r3, r3, #2
 3101 0044 D258     		ldr	r2, [r2, r3]
 3102 0046 FB68     		ldr	r3, [r7, #12]
 3103 0048 9A42     		cmp	r2, r3
 3104 004a 04D2     		bcs	.L149
 199:./ros_lib/ros/node_handle.h ****             mode_ = MODE_FIRST_FF;
 3105              		.loc 11 199 0
 3106 004c 7A68     		ldr	r2, [r7, #4]
 3107 004e 8823     		mov	r3, #136
 3108 0050 9B00     		lsl	r3, r3, #2
 3109 0052 0021     		mov	r1, #0
 3110 0054 D150     		str	r1, [r2, r3]
 3111              	.L149:
 3112              	.LBB44:
 200:./ros_lib/ros/node_handle.h ****           }
 201:./ros_lib/ros/node_handle.h ****         }
 202:./ros_lib/ros/node_handle.h **** 
 203:./ros_lib/ros/node_handle.h ****         /* while available buffer, read data */
 204:./ros_lib/ros/node_handle.h ****         while( true )
 205:./ros_lib/ros/node_handle.h ****         {
 206:./ros_lib/ros/node_handle.h ****           int data = hardware_.read();
 3113              		.loc 11 206 0
 3114 0056 7B68     		ldr	r3, [r7, #4]
 3115 0058 0433     		add	r3, r3, #4
 3116 005a 181C     		mov	r0, r3
 3117 005c FFF7FEFF 		bl	_ZN13Psoc4Hardware4readEv
 3118 0060 031C     		mov	r3, r0
ARM GAS  C:\Users\Chuck\AppData\Local\Temp\cc5X170Y.s 			page 74


 3119 0062 BB60     		str	r3, [r7, #8]
 207:./ros_lib/ros/node_handle.h ****           if( data < 0 )
 3120              		.loc 11 207 0
 3121 0064 BB68     		ldr	r3, [r7, #8]
 3122 0066 002B     		cmp	r3, #0
 3123 0068 08DA     		bge	.L150
 208:./ros_lib/ros/node_handle.h ****             break;
 3124              		.loc 11 208 0
 3125 006a C046     		mov	r8, r8
 3126              	.LBE44:
 209:./ros_lib/ros/node_handle.h ****           checksum_ += data;
 210:./ros_lib/ros/node_handle.h ****           if( mode_ == MODE_MESSAGE ){        /* message data being recieved */
 211:./ros_lib/ros/node_handle.h ****             message_in[index_++] = data;
 212:./ros_lib/ros/node_handle.h ****             bytes_--;
 213:./ros_lib/ros/node_handle.h ****             if(bytes_ == 0)                  /* is message complete? if so, checksum */
 214:./ros_lib/ros/node_handle.h ****               mode_ = MODE_MSG_CHECKSUM;
 215:./ros_lib/ros/node_handle.h ****           }else if( mode_ == MODE_FIRST_FF ){
 216:./ros_lib/ros/node_handle.h ****             if(data == 0xff){
 217:./ros_lib/ros/node_handle.h ****               mode_++;
 218:./ros_lib/ros/node_handle.h ****               last_msg_timeout_time = c_time + MSG_TIMEOUT;
 219:./ros_lib/ros/node_handle.h ****             }
 220:./ros_lib/ros/node_handle.h ****             else if( hardware_.time() - c_time > (SYNC_SECONDS)){
 221:./ros_lib/ros/node_handle.h ****               /* We have been stuck in spinOnce too long, return error */
 222:./ros_lib/ros/node_handle.h ****               configured_=false;
 223:./ros_lib/ros/node_handle.h ****               return -2;
 224:./ros_lib/ros/node_handle.h ****             }
 225:./ros_lib/ros/node_handle.h ****           }else if( mode_ == MODE_PROTOCOL_VER ){
 226:./ros_lib/ros/node_handle.h ****             if(data == PROTOCOL_VER){
 227:./ros_lib/ros/node_handle.h ****               mode_++;
 228:./ros_lib/ros/node_handle.h ****             }else{
 229:./ros_lib/ros/node_handle.h ****               mode_ = MODE_FIRST_FF;
 230:./ros_lib/ros/node_handle.h ****               if (configured_ == false)
 231:./ros_lib/ros/node_handle.h ****                   requestSyncTime(); 	/* send a msg back showing our protocol version */
 232:./ros_lib/ros/node_handle.h ****             }
 233:./ros_lib/ros/node_handle.h **** 	  }else if( mode_ == MODE_SIZE_L ){   /* bottom half of message size */
 234:./ros_lib/ros/node_handle.h ****             bytes_ = data;
 235:./ros_lib/ros/node_handle.h ****             index_ = 0;
 236:./ros_lib/ros/node_handle.h ****             mode_++;
 237:./ros_lib/ros/node_handle.h ****             checksum_ = data;               /* first byte for calculating size checksum */
 238:./ros_lib/ros/node_handle.h ****           }else if( mode_ == MODE_SIZE_H ){   /* top half of message size */
 239:./ros_lib/ros/node_handle.h ****             bytes_ += data<<8;
 240:./ros_lib/ros/node_handle.h **** 	    mode_++;
 241:./ros_lib/ros/node_handle.h ****           }else if( mode_ == MODE_SIZE_CHECKSUM ){  
 242:./ros_lib/ros/node_handle.h ****             if( (checksum_%256) == 255)
 243:./ros_lib/ros/node_handle.h **** 	      mode_++;
 244:./ros_lib/ros/node_handle.h **** 	    else 
 245:./ros_lib/ros/node_handle.h **** 	      mode_ = MODE_FIRST_FF;          /* Abandon the frame if the msg len is wrong */
 246:./ros_lib/ros/node_handle.h **** 	  }else if( mode_ == MODE_TOPIC_L ){  /* bottom half of topic id */
 247:./ros_lib/ros/node_handle.h ****             topic_ = data;
 248:./ros_lib/ros/node_handle.h ****             mode_++;
 249:./ros_lib/ros/node_handle.h ****             checksum_ = data;               /* first byte included in checksum */
 250:./ros_lib/ros/node_handle.h ****           }else if( mode_ == MODE_TOPIC_H ){  /* top half of topic id */
 251:./ros_lib/ros/node_handle.h ****             topic_ += data<<8;
 252:./ros_lib/ros/node_handle.h ****             mode_ = MODE_MESSAGE;
 253:./ros_lib/ros/node_handle.h ****             if(bytes_ == 0)
 254:./ros_lib/ros/node_handle.h ****               mode_ = MODE_MSG_CHECKSUM;  
 255:./ros_lib/ros/node_handle.h ****           }else if( mode_ == MODE_MSG_CHECKSUM ){ /* do checksum */
ARM GAS  C:\Users\Chuck\AppData\Local\Temp\cc5X170Y.s 			page 75


 256:./ros_lib/ros/node_handle.h ****             mode_ = MODE_FIRST_FF;
 257:./ros_lib/ros/node_handle.h ****             if( (checksum_%256) == 255){
 258:./ros_lib/ros/node_handle.h ****               if(topic_ == TopicInfo::ID_PUBLISHER){
 259:./ros_lib/ros/node_handle.h ****                 requestSyncTime();
 260:./ros_lib/ros/node_handle.h ****                 negotiateTopics();
 261:./ros_lib/ros/node_handle.h ****                 last_sync_time = c_time;
 262:./ros_lib/ros/node_handle.h ****                 last_sync_receive_time = c_time;
 263:./ros_lib/ros/node_handle.h ****                 return -1;
 264:./ros_lib/ros/node_handle.h ****               }else if(topic_ == TopicInfo::ID_TIME){
 265:./ros_lib/ros/node_handle.h ****                 syncTime(message_in);
 266:./ros_lib/ros/node_handle.h ****               #if PARAM_REQ_SUPPORT
 267:./ros_lib/ros/node_handle.h ****               }else if (topic_ == TopicInfo::ID_PARAMETER_REQUEST){
 268:./ros_lib/ros/node_handle.h ****                   req_param_resp.deserialize(message_in);
 269:./ros_lib/ros/node_handle.h ****                   param_recieved= true;
 270:./ros_lib/ros/node_handle.h ****               #endif
 271:./ros_lib/ros/node_handle.h ****               }else if(topic_ == TopicInfo::ID_TX_STOP){
 272:./ros_lib/ros/node_handle.h ****                   configured_ = false;
 273:./ros_lib/ros/node_handle.h ****               }else{
 274:./ros_lib/ros/node_handle.h ****                 if(subscribers[topic_-100])
 275:./ros_lib/ros/node_handle.h ****                   subscribers[topic_-100]->callback( message_in );
 276:./ros_lib/ros/node_handle.h ****               }
 277:./ros_lib/ros/node_handle.h ****             }
 278:./ros_lib/ros/node_handle.h ****           }
 279:./ros_lib/ros/node_handle.h ****         }
 280:./ros_lib/ros/node_handle.h **** 
 281:./ros_lib/ros/node_handle.h ****         /* occasionally sync time */
 282:./ros_lib/ros/node_handle.h ****         if( configured_ && ((c_time-last_sync_time) > (SYNC_SECONDS*500) )){
 3127              		.loc 11 282 0
 3128 006c 7A68     		ldr	r2, [r7, #4]
 3129 006e 8D23     		mov	r3, #141
 3130 0070 9B00     		lsl	r3, r3, #2
 3131 0072 D35C     		ldrb	r3, [r2, r3]
 3132 0074 002B     		cmp	r3, #0
 3133 0076 00D1     		bne	.LCB2740
 3134 0078 CFE1     		b	.L172	@long jump
 3135              	.LCB2740:
 3136 007a BBE1     		b	.L173
 3137              	.L150:
 3138              	.LBB45:
 209:./ros_lib/ros/node_handle.h ****           checksum_ += data;
 3139              		.loc 11 209 0
 3140 007c 7A68     		ldr	r2, [r7, #4]
 3141 007e 8C23     		mov	r3, #140
 3142 0080 9B00     		lsl	r3, r3, #2
 3143 0082 D258     		ldr	r2, [r2, r3]
 3144 0084 BB68     		ldr	r3, [r7, #8]
 3145 0086 D118     		add	r1, r2, r3
 3146 0088 7A68     		ldr	r2, [r7, #4]
 3147 008a 8C23     		mov	r3, #140
 3148 008c 9B00     		lsl	r3, r3, #2
 3149 008e D150     		str	r1, [r2, r3]
 210:./ros_lib/ros/node_handle.h ****             message_in[index_++] = data;
 3150              		.loc 11 210 0
 3151 0090 7A68     		ldr	r2, [r7, #4]
 3152 0092 8823     		mov	r3, #136
 3153 0094 9B00     		lsl	r3, r3, #2
 3154 0096 D358     		ldr	r3, [r2, r3]
ARM GAS  C:\Users\Chuck\AppData\Local\Temp\cc5X170Y.s 			page 76


 3155 0098 072B     		cmp	r3, #7
 3156 009a 24D1     		bne	.L152
 211:./ros_lib/ros/node_handle.h ****             bytes_--;
 3157              		.loc 11 211 0
 3158 009c 7A68     		ldr	r2, [r7, #4]
 3159 009e 8B23     		mov	r3, #139
 3160 00a0 9B00     		lsl	r3, r3, #2
 3161 00a2 D358     		ldr	r3, [r2, r3]
 3162 00a4 581C     		add	r0, r3, #1
 3163 00a6 7968     		ldr	r1, [r7, #4]
 3164 00a8 8B22     		mov	r2, #139
 3165 00aa 9200     		lsl	r2, r2, #2
 3166 00ac 8850     		str	r0, [r1, r2]
 3167 00ae BA68     		ldr	r2, [r7, #8]
 3168 00b0 D1B2     		uxtb	r1, r2
 3169 00b2 7A68     		ldr	r2, [r7, #4]
 3170 00b4 D318     		add	r3, r2, r3
 3171 00b6 0A1C     		add	r2, r1, #0
 3172 00b8 1A76     		strb	r2, [r3, #24]
 212:./ros_lib/ros/node_handle.h ****             if(bytes_ == 0)                  /* is message complete? if so, checksum */
 3173              		.loc 11 212 0
 3174 00ba 7A68     		ldr	r2, [r7, #4]
 3175 00bc 8923     		mov	r3, #137
 3176 00be 9B00     		lsl	r3, r3, #2
 3177 00c0 D358     		ldr	r3, [r2, r3]
 3178 00c2 591E     		sub	r1, r3, #1
 3179 00c4 7A68     		ldr	r2, [r7, #4]
 3180 00c6 8923     		mov	r3, #137
 3181 00c8 9B00     		lsl	r3, r3, #2
 3182 00ca D150     		str	r1, [r2, r3]
 213:./ros_lib/ros/node_handle.h ****               mode_ = MODE_MSG_CHECKSUM;
 3183              		.loc 11 213 0
 3184 00cc 7A68     		ldr	r2, [r7, #4]
 3185 00ce 8923     		mov	r3, #137
 3186 00d0 9B00     		lsl	r3, r3, #2
 3187 00d2 D358     		ldr	r3, [r2, r3]
 3188 00d4 002B     		cmp	r3, #0
 3189 00d6 00D0     		beq	.LCB2791
 3190 00d8 8BE1     		b	.L153	@long jump
 3191              	.LCB2791:
 214:./ros_lib/ros/node_handle.h ****           }else if( mode_ == MODE_FIRST_FF ){
 3192              		.loc 11 214 0
 3193 00da 7A68     		ldr	r2, [r7, #4]
 3194 00dc 8823     		mov	r3, #136
 3195 00de 9B00     		lsl	r3, r3, #2
 3196 00e0 0821     		mov	r1, #8
 3197 00e2 D150     		str	r1, [r2, r3]
 3198 00e4 85E1     		b	.L153
 3199              	.L152:
 215:./ros_lib/ros/node_handle.h ****             if(data == 0xff){
 3200              		.loc 11 215 0
 3201 00e6 7A68     		ldr	r2, [r7, #4]
 3202 00e8 8823     		mov	r3, #136
 3203 00ea 9B00     		lsl	r3, r3, #2
 3204 00ec D358     		ldr	r3, [r2, r3]
 3205 00ee 002B     		cmp	r3, #0
 3206 00f0 2BD1     		bne	.L154
ARM GAS  C:\Users\Chuck\AppData\Local\Temp\cc5X170Y.s 			page 77


 216:./ros_lib/ros/node_handle.h ****               mode_++;
 3207              		.loc 11 216 0
 3208 00f2 BB68     		ldr	r3, [r7, #8]
 3209 00f4 FF2B     		cmp	r3, #255
 3210 00f6 10D1     		bne	.L155
 217:./ros_lib/ros/node_handle.h ****               last_msg_timeout_time = c_time + MSG_TIMEOUT;
 3211              		.loc 11 217 0
 3212 00f8 7A68     		ldr	r2, [r7, #4]
 3213 00fa 8823     		mov	r3, #136
 3214 00fc 9B00     		lsl	r3, r3, #2
 3215 00fe D358     		ldr	r3, [r2, r3]
 3216 0100 591C     		add	r1, r3, #1
 3217 0102 7A68     		ldr	r2, [r7, #4]
 3218 0104 8823     		mov	r3, #136
 3219 0106 9B00     		lsl	r3, r3, #2
 3220 0108 D150     		str	r1, [r2, r3]
 218:./ros_lib/ros/node_handle.h ****             }
 3221              		.loc 11 218 0
 3222 010a FB68     		ldr	r3, [r7, #12]
 3223 010c C833     		add	r3, r3, #200
 3224 010e 191C     		mov	r1, r3
 3225 0110 7A68     		ldr	r2, [r7, #4]
 3226 0112 9023     		mov	r3, #144
 3227 0114 9B00     		lsl	r3, r3, #2
 3228 0116 D150     		str	r1, [r2, r3]
 3229 0118 6BE1     		b	.L153
 3230              	.L155:
 220:./ros_lib/ros/node_handle.h ****               /* We have been stuck in spinOnce too long, return error */
 3231              		.loc 11 220 0
 3232 011a 7B68     		ldr	r3, [r7, #4]
 3233 011c 0433     		add	r3, r3, #4
 3234 011e 181C     		mov	r0, r3
 3235 0120 FFF7FEFF 		bl	_ZN13Psoc4Hardware4timeEv
 3236 0124 021C     		mov	r2, r0
 3237 0126 FB68     		ldr	r3, [r7, #12]
 3238 0128 D31A     		sub	r3, r2, r3
 3239 012a 0222     		mov	r2, #2
 3240 012c 9A42     		cmp	r2, r3
 3241 012e 9B41     		sbc	r3, r3, r3
 3242 0130 5B42     		neg	r3, r3
 3243 0132 DBB2     		uxtb	r3, r3
 3244 0134 002B     		cmp	r3, #0
 3245 0136 00D1     		bne	.LCB2842
 3246 0138 5BE1     		b	.L153	@long jump
 3247              	.LCB2842:
 222:./ros_lib/ros/node_handle.h ****               return -2;
 3248              		.loc 11 222 0
 3249 013a 7A68     		ldr	r2, [r7, #4]
 3250 013c 8D23     		mov	r3, #141
 3251 013e 9B00     		lsl	r3, r3, #2
 3252 0140 0021     		mov	r1, #0
 3253 0142 D154     		strb	r1, [r2, r3]
 223:./ros_lib/ros/node_handle.h ****             }
 3254              		.loc 11 223 0
 3255 0144 0223     		mov	r3, #2
 3256 0146 5B42     		neg	r3, r3
 3257 0148 68E1     		b	.L156
ARM GAS  C:\Users\Chuck\AppData\Local\Temp\cc5X170Y.s 			page 78


 3258              	.L154:
 225:./ros_lib/ros/node_handle.h ****             if(data == PROTOCOL_VER){
 3259              		.loc 11 225 0
 3260 014a 7A68     		ldr	r2, [r7, #4]
 3261 014c 8823     		mov	r3, #136
 3262 014e 9B00     		lsl	r3, r3, #2
 3263 0150 D358     		ldr	r3, [r2, r3]
 3264 0152 012B     		cmp	r3, #1
 3265 0154 20D1     		bne	.L157
 226:./ros_lib/ros/node_handle.h ****               mode_++;
 3266              		.loc 11 226 0
 3267 0156 BB68     		ldr	r3, [r7, #8]
 3268 0158 FE2B     		cmp	r3, #254
 3269 015a 09D1     		bne	.L158
 227:./ros_lib/ros/node_handle.h ****             }else{
 3270              		.loc 11 227 0
 3271 015c 7A68     		ldr	r2, [r7, #4]
 3272 015e 8823     		mov	r3, #136
 3273 0160 9B00     		lsl	r3, r3, #2
 3274 0162 D358     		ldr	r3, [r2, r3]
 3275 0164 591C     		add	r1, r3, #1
 3276 0166 7A68     		ldr	r2, [r7, #4]
 3277 0168 8823     		mov	r3, #136
 3278 016a 9B00     		lsl	r3, r3, #2
 3279 016c D150     		str	r1, [r2, r3]
 3280 016e 40E1     		b	.L153
 3281              	.L158:
 229:./ros_lib/ros/node_handle.h ****               if (configured_ == false)
 3282              		.loc 11 229 0
 3283 0170 7A68     		ldr	r2, [r7, #4]
 3284 0172 8823     		mov	r3, #136
 3285 0174 9B00     		lsl	r3, r3, #2
 3286 0176 0021     		mov	r1, #0
 3287 0178 D150     		str	r1, [r2, r3]
 230:./ros_lib/ros/node_handle.h ****                   requestSyncTime(); 	/* send a msg back showing our protocol version */
 3288              		.loc 11 230 0
 3289 017a 7A68     		ldr	r2, [r7, #4]
 3290 017c 8D23     		mov	r3, #141
 3291 017e 9B00     		lsl	r3, r3, #2
 3292 0180 D35C     		ldrb	r3, [r2, r3]
 3293 0182 0122     		mov	r2, #1
 3294 0184 5340     		eor	r3, r2
 3295 0186 DBB2     		uxtb	r3, r3
 3296 0188 002B     		cmp	r3, #0
 3297 018a 00D1     		bne	.LCB2889
 3298 018c 31E1     		b	.L153	@long jump
 3299              	.LCB2889:
 231:./ros_lib/ros/node_handle.h ****             }
 3300              		.loc 11 231 0
 3301 018e 7B68     		ldr	r3, [r7, #4]
 3302 0190 181C     		mov	r0, r3
 3303 0192 FFF7FEFF 		bl	_ZN3ros11NodeHandle_I13Psoc4HardwareLi10ELi20ELi200ELi200EE15requestSyncTimeEv
 3304 0196 2CE1     		b	.L153
 3305              	.L157:
 233:./ros_lib/ros/node_handle.h ****             bytes_ = data;
 3306              		.loc 11 233 0
 3307 0198 7A68     		ldr	r2, [r7, #4]
ARM GAS  C:\Users\Chuck\AppData\Local\Temp\cc5X170Y.s 			page 79


 3308 019a 8823     		mov	r3, #136
 3309 019c 9B00     		lsl	r3, r3, #2
 3310 019e D358     		ldr	r3, [r2, r3]
 3311 01a0 022B     		cmp	r3, #2
 3312 01a2 18D1     		bne	.L159
 234:./ros_lib/ros/node_handle.h ****             index_ = 0;
 3313              		.loc 11 234 0
 3314 01a4 7A68     		ldr	r2, [r7, #4]
 3315 01a6 8923     		mov	r3, #137
 3316 01a8 9B00     		lsl	r3, r3, #2
 3317 01aa B968     		ldr	r1, [r7, #8]
 3318 01ac D150     		str	r1, [r2, r3]
 235:./ros_lib/ros/node_handle.h ****             mode_++;
 3319              		.loc 11 235 0
 3320 01ae 7A68     		ldr	r2, [r7, #4]
 3321 01b0 8B23     		mov	r3, #139
 3322 01b2 9B00     		lsl	r3, r3, #2
 3323 01b4 0021     		mov	r1, #0
 3324 01b6 D150     		str	r1, [r2, r3]
 236:./ros_lib/ros/node_handle.h ****             checksum_ = data;               /* first byte for calculating size checksum */
 3325              		.loc 11 236 0
 3326 01b8 7A68     		ldr	r2, [r7, #4]
 3327 01ba 8823     		mov	r3, #136
 3328 01bc 9B00     		lsl	r3, r3, #2
 3329 01be D358     		ldr	r3, [r2, r3]
 3330 01c0 591C     		add	r1, r3, #1
 3331 01c2 7A68     		ldr	r2, [r7, #4]
 3332 01c4 8823     		mov	r3, #136
 3333 01c6 9B00     		lsl	r3, r3, #2
 3334 01c8 D150     		str	r1, [r2, r3]
 237:./ros_lib/ros/node_handle.h ****           }else if( mode_ == MODE_SIZE_H ){   /* top half of message size */
 3335              		.loc 11 237 0
 3336 01ca 7A68     		ldr	r2, [r7, #4]
 3337 01cc 8C23     		mov	r3, #140
 3338 01ce 9B00     		lsl	r3, r3, #2
 3339 01d0 B968     		ldr	r1, [r7, #8]
 3340 01d2 D150     		str	r1, [r2, r3]
 3341 01d4 0DE1     		b	.L153
 3342              	.L159:
 238:./ros_lib/ros/node_handle.h ****             bytes_ += data<<8;
 3343              		.loc 11 238 0
 3344 01d6 7A68     		ldr	r2, [r7, #4]
 3345 01d8 8823     		mov	r3, #136
 3346 01da 9B00     		lsl	r3, r3, #2
 3347 01dc D358     		ldr	r3, [r2, r3]
 3348 01de 032B     		cmp	r3, #3
 3349 01e0 14D1     		bne	.L160
 239:./ros_lib/ros/node_handle.h **** 	    mode_++;
 3350              		.loc 11 239 0
 3351 01e2 7A68     		ldr	r2, [r7, #4]
 3352 01e4 8923     		mov	r3, #137
 3353 01e6 9B00     		lsl	r3, r3, #2
 3354 01e8 D258     		ldr	r2, [r2, r3]
 3355 01ea BB68     		ldr	r3, [r7, #8]
 3356 01ec 1B02     		lsl	r3, r3, #8
 3357 01ee D118     		add	r1, r2, r3
 3358 01f0 7A68     		ldr	r2, [r7, #4]
ARM GAS  C:\Users\Chuck\AppData\Local\Temp\cc5X170Y.s 			page 80


 3359 01f2 8923     		mov	r3, #137
 3360 01f4 9B00     		lsl	r3, r3, #2
 3361 01f6 D150     		str	r1, [r2, r3]
 240:./ros_lib/ros/node_handle.h ****           }else if( mode_ == MODE_SIZE_CHECKSUM ){  
 3362              		.loc 11 240 0
 3363 01f8 7A68     		ldr	r2, [r7, #4]
 3364 01fa 8823     		mov	r3, #136
 3365 01fc 9B00     		lsl	r3, r3, #2
 3366 01fe D358     		ldr	r3, [r2, r3]
 3367 0200 591C     		add	r1, r3, #1
 3368 0202 7A68     		ldr	r2, [r7, #4]
 3369 0204 8823     		mov	r3, #136
 3370 0206 9B00     		lsl	r3, r3, #2
 3371 0208 D150     		str	r1, [r2, r3]
 3372 020a F2E0     		b	.L153
 3373              	.L160:
 241:./ros_lib/ros/node_handle.h ****             if( (checksum_%256) == 255)
 3374              		.loc 11 241 0
 3375 020c 7A68     		ldr	r2, [r7, #4]
 3376 020e 8823     		mov	r3, #136
 3377 0210 9B00     		lsl	r3, r3, #2
 3378 0212 D358     		ldr	r3, [r2, r3]
 3379 0214 042B     		cmp	r3, #4
 3380 0216 1CD1     		bne	.L161
 242:./ros_lib/ros/node_handle.h **** 	      mode_++;
 3381              		.loc 11 242 0
 3382 0218 7A68     		ldr	r2, [r7, #4]
 3383 021a 8C23     		mov	r3, #140
 3384 021c 9B00     		lsl	r3, r3, #2
 3385 021e D358     		ldr	r3, [r2, r3]
 3386 0220 584A     		ldr	r2, .L174+4
 3387 0222 1340     		and	r3, r2
 3388 0224 03D5     		bpl	.L162
 3389 0226 013B     		sub	r3, r3, #1
 3390 0228 574A     		ldr	r2, .L174+8
 3391 022a 1343     		orr	r3, r2
 3392 022c 0133     		add	r3, r3, #1
 3393              	.L162:
 3394 022e FF2B     		cmp	r3, #255
 3395 0230 09D1     		bne	.L163
 243:./ros_lib/ros/node_handle.h **** 	    else 
 3396              		.loc 11 243 0
 3397 0232 7A68     		ldr	r2, [r7, #4]
 3398 0234 8823     		mov	r3, #136
 3399 0236 9B00     		lsl	r3, r3, #2
 3400 0238 D358     		ldr	r3, [r2, r3]
 3401 023a 591C     		add	r1, r3, #1
 3402 023c 7A68     		ldr	r2, [r7, #4]
 3403 023e 8823     		mov	r3, #136
 3404 0240 9B00     		lsl	r3, r3, #2
 3405 0242 D150     		str	r1, [r2, r3]
 3406 0244 D5E0     		b	.L153
 3407              	.L163:
 245:./ros_lib/ros/node_handle.h **** 	  }else if( mode_ == MODE_TOPIC_L ){  /* bottom half of topic id */
 3408              		.loc 11 245 0
 3409 0246 7A68     		ldr	r2, [r7, #4]
 3410 0248 8823     		mov	r3, #136
ARM GAS  C:\Users\Chuck\AppData\Local\Temp\cc5X170Y.s 			page 81


 3411 024a 9B00     		lsl	r3, r3, #2
 3412 024c 0021     		mov	r1, #0
 3413 024e D150     		str	r1, [r2, r3]
 3414 0250 01E7     		b	.L149
 3415              	.L161:
 246:./ros_lib/ros/node_handle.h ****             topic_ = data;
 3416              		.loc 11 246 0
 3417 0252 7A68     		ldr	r2, [r7, #4]
 3418 0254 8823     		mov	r3, #136
 3419 0256 9B00     		lsl	r3, r3, #2
 3420 0258 D358     		ldr	r3, [r2, r3]
 3421 025a 052B     		cmp	r3, #5
 3422 025c 13D1     		bne	.L165
 247:./ros_lib/ros/node_handle.h ****             mode_++;
 3423              		.loc 11 247 0
 3424 025e 7A68     		ldr	r2, [r7, #4]
 3425 0260 8A23     		mov	r3, #138
 3426 0262 9B00     		lsl	r3, r3, #2
 3427 0264 B968     		ldr	r1, [r7, #8]
 3428 0266 D150     		str	r1, [r2, r3]
 248:./ros_lib/ros/node_handle.h ****             checksum_ = data;               /* first byte included in checksum */
 3429              		.loc 11 248 0
 3430 0268 7A68     		ldr	r2, [r7, #4]
 3431 026a 8823     		mov	r3, #136
 3432 026c 9B00     		lsl	r3, r3, #2
 3433 026e D358     		ldr	r3, [r2, r3]
 3434 0270 591C     		add	r1, r3, #1
 3435 0272 7A68     		ldr	r2, [r7, #4]
 3436 0274 8823     		mov	r3, #136
 3437 0276 9B00     		lsl	r3, r3, #2
 3438 0278 D150     		str	r1, [r2, r3]
 249:./ros_lib/ros/node_handle.h ****           }else if( mode_ == MODE_TOPIC_H ){  /* top half of topic id */
 3439              		.loc 11 249 0
 3440 027a 7A68     		ldr	r2, [r7, #4]
 3441 027c 8C23     		mov	r3, #140
 3442 027e 9B00     		lsl	r3, r3, #2
 3443 0280 B968     		ldr	r1, [r7, #8]
 3444 0282 D150     		str	r1, [r2, r3]
 3445 0284 B5E0     		b	.L153
 3446              	.L165:
 250:./ros_lib/ros/node_handle.h ****             topic_ += data<<8;
 3447              		.loc 11 250 0
 3448 0286 7A68     		ldr	r2, [r7, #4]
 3449 0288 8823     		mov	r3, #136
 3450 028a 9B00     		lsl	r3, r3, #2
 3451 028c D358     		ldr	r3, [r2, r3]
 3452 028e 062B     		cmp	r3, #6
 3453 0290 1CD1     		bne	.L166
 251:./ros_lib/ros/node_handle.h ****             mode_ = MODE_MESSAGE;
 3454              		.loc 11 251 0
 3455 0292 7A68     		ldr	r2, [r7, #4]
 3456 0294 8A23     		mov	r3, #138
 3457 0296 9B00     		lsl	r3, r3, #2
 3458 0298 D258     		ldr	r2, [r2, r3]
 3459 029a BB68     		ldr	r3, [r7, #8]
 3460 029c 1B02     		lsl	r3, r3, #8
 3461 029e D118     		add	r1, r2, r3
ARM GAS  C:\Users\Chuck\AppData\Local\Temp\cc5X170Y.s 			page 82


 3462 02a0 7A68     		ldr	r2, [r7, #4]
 3463 02a2 8A23     		mov	r3, #138
 3464 02a4 9B00     		lsl	r3, r3, #2
 3465 02a6 D150     		str	r1, [r2, r3]
 252:./ros_lib/ros/node_handle.h ****             if(bytes_ == 0)
 3466              		.loc 11 252 0
 3467 02a8 7A68     		ldr	r2, [r7, #4]
 3468 02aa 8823     		mov	r3, #136
 3469 02ac 9B00     		lsl	r3, r3, #2
 3470 02ae 0721     		mov	r1, #7
 3471 02b0 D150     		str	r1, [r2, r3]
 253:./ros_lib/ros/node_handle.h ****               mode_ = MODE_MSG_CHECKSUM;  
 3472              		.loc 11 253 0
 3473 02b2 7A68     		ldr	r2, [r7, #4]
 3474 02b4 8923     		mov	r3, #137
 3475 02b6 9B00     		lsl	r3, r3, #2
 3476 02b8 D358     		ldr	r3, [r2, r3]
 3477 02ba 002B     		cmp	r3, #0
 3478 02bc 00D0     		beq	.LCB3061
 3479 02be 98E0     		b	.L153	@long jump
 3480              	.LCB3061:
 254:./ros_lib/ros/node_handle.h ****           }else if( mode_ == MODE_MSG_CHECKSUM ){ /* do checksum */
 3481              		.loc 11 254 0
 3482 02c0 7A68     		ldr	r2, [r7, #4]
 3483 02c2 8823     		mov	r3, #136
 3484 02c4 9B00     		lsl	r3, r3, #2
 3485 02c6 0821     		mov	r1, #8
 3486 02c8 D150     		str	r1, [r2, r3]
 3487 02ca 92E0     		b	.L153
 3488              	.L166:
 255:./ros_lib/ros/node_handle.h ****             mode_ = MODE_FIRST_FF;
 3489              		.loc 11 255 0
 3490 02cc 7A68     		ldr	r2, [r7, #4]
 3491 02ce 8823     		mov	r3, #136
 3492 02d0 9B00     		lsl	r3, r3, #2
 3493 02d2 D358     		ldr	r3, [r2, r3]
 3494 02d4 082B     		cmp	r3, #8
 3495 02d6 00D0     		beq	.LCB3076
 3496 02d8 8BE0     		b	.L153	@long jump
 3497              	.LCB3076:
 256:./ros_lib/ros/node_handle.h ****             if( (checksum_%256) == 255){
 3498              		.loc 11 256 0
 3499 02da 7A68     		ldr	r2, [r7, #4]
 3500 02dc 8823     		mov	r3, #136
 3501 02de 9B00     		lsl	r3, r3, #2
 3502 02e0 0021     		mov	r1, #0
 3503 02e2 D150     		str	r1, [r2, r3]
 257:./ros_lib/ros/node_handle.h ****               if(topic_ == TopicInfo::ID_PUBLISHER){
 3504              		.loc 11 257 0
 3505 02e4 7A68     		ldr	r2, [r7, #4]
 3506 02e6 8C23     		mov	r3, #140
 3507 02e8 9B00     		lsl	r3, r3, #2
 3508 02ea D358     		ldr	r3, [r2, r3]
 3509 02ec 254A     		ldr	r2, .L174+4
 3510 02ee 1340     		and	r3, r2
 3511 02f0 03D5     		bpl	.L167
 3512 02f2 013B     		sub	r3, r3, #1
ARM GAS  C:\Users\Chuck\AppData\Local\Temp\cc5X170Y.s 			page 83


 3513 02f4 244A     		ldr	r2, .L174+8
 3514 02f6 1343     		orr	r3, r2
 3515 02f8 0133     		add	r3, r3, #1
 3516              	.L167:
 3517 02fa FF2B     		cmp	r3, #255
 3518 02fc 00D0     		beq	.LCB3097
 3519 02fe 78E0     		b	.L153	@long jump
 3520              	.LCB3097:
 258:./ros_lib/ros/node_handle.h ****                 requestSyncTime();
 3521              		.loc 11 258 0
 3522 0300 7A68     		ldr	r2, [r7, #4]
 3523 0302 8A23     		mov	r3, #138
 3524 0304 9B00     		lsl	r3, r3, #2
 3525 0306 D358     		ldr	r3, [r2, r3]
 3526 0308 002B     		cmp	r3, #0
 3527 030a 14D1     		bne	.L168
 259:./ros_lib/ros/node_handle.h ****                 negotiateTopics();
 3528              		.loc 11 259 0
 3529 030c 7B68     		ldr	r3, [r7, #4]
 3530 030e 181C     		mov	r0, r3
 3531 0310 FFF7FEFF 		bl	_ZN3ros11NodeHandle_I13Psoc4HardwareLi10ELi20ELi200ELi200EE15requestSyncTimeEv
 260:./ros_lib/ros/node_handle.h ****                 last_sync_time = c_time;
 3532              		.loc 11 260 0
 3533 0314 7B68     		ldr	r3, [r7, #4]
 3534 0316 181C     		mov	r0, r3
 3535 0318 FFF7FEFF 		bl	_ZN3ros11NodeHandle_I13Psoc4HardwareLi10ELi20ELi200ELi200EE15negotiateTopicsEv
 261:./ros_lib/ros/node_handle.h ****                 last_sync_receive_time = c_time;
 3536              		.loc 11 261 0
 3537 031c 7A68     		ldr	r2, [r7, #4]
 3538 031e 8E23     		mov	r3, #142
 3539 0320 9B00     		lsl	r3, r3, #2
 3540 0322 F968     		ldr	r1, [r7, #12]
 3541 0324 D150     		str	r1, [r2, r3]
 262:./ros_lib/ros/node_handle.h ****                 return -1;
 3542              		.loc 11 262 0
 3543 0326 7A68     		ldr	r2, [r7, #4]
 3544 0328 8F23     		mov	r3, #143
 3545 032a 9B00     		lsl	r3, r3, #2
 3546 032c F968     		ldr	r1, [r7, #12]
 3547 032e D150     		str	r1, [r2, r3]
 263:./ros_lib/ros/node_handle.h ****               }else if(topic_ == TopicInfo::ID_TIME){
 3548              		.loc 11 263 0
 3549 0330 0123     		mov	r3, #1
 3550 0332 5B42     		neg	r3, r3
 3551 0334 72E0     		b	.L156
 3552              	.L168:
 264:./ros_lib/ros/node_handle.h ****                 syncTime(message_in);
 3553              		.loc 11 264 0
 3554 0336 7A68     		ldr	r2, [r7, #4]
 3555 0338 8A23     		mov	r3, #138
 3556 033a 9B00     		lsl	r3, r3, #2
 3557 033c D358     		ldr	r3, [r2, r3]
 3558 033e 0A2B     		cmp	r3, #10
 3559 0340 07D1     		bne	.L169
 265:./ros_lib/ros/node_handle.h ****               #if PARAM_REQ_SUPPORT
 3560              		.loc 11 265 0
 3561 0342 7B68     		ldr	r3, [r7, #4]
ARM GAS  C:\Users\Chuck\AppData\Local\Temp\cc5X170Y.s 			page 84


 3562 0344 1833     		add	r3, r3, #24
 3563 0346 7A68     		ldr	r2, [r7, #4]
 3564 0348 101C     		mov	r0, r2
 3565 034a 191C     		mov	r1, r3
 3566 034c FFF7FEFF 		bl	_ZN3ros11NodeHandle_I13Psoc4HardwareLi10ELi20ELi200ELi200EE8syncTimeEPh
 3567 0350 4FE0     		b	.L153
 3568              	.L169:
 267:./ros_lib/ros/node_handle.h ****                   req_param_resp.deserialize(message_in);
 3569              		.loc 11 267 0
 3570 0352 7A68     		ldr	r2, [r7, #4]
 3571 0354 8A23     		mov	r3, #138
 3572 0356 9B00     		lsl	r3, r3, #2
 3573 0358 D358     		ldr	r3, [r2, r3]
 3574 035a 062B     		cmp	r3, #6
 3575 035c 16D1     		bne	.L170
 268:./ros_lib/ros/node_handle.h ****                   param_recieved= true;
 3576              		.loc 11 268 0
 3577 035e 7B68     		ldr	r3, [r7, #4]
 3578 0360 9222     		mov	r2, #146
 3579 0362 9200     		lsl	r2, r2, #2
 3580 0364 9A18     		add	r2, r3, r2
 3581 0366 7B68     		ldr	r3, [r7, #4]
 3582 0368 1833     		add	r3, r3, #24
 3583 036a 101C     		mov	r0, r2
 3584 036c 191C     		mov	r1, r3
 3585 036e FFF7FEFF 		bl	_ZN14rosserial_msgs20RequestParamResponse11deserializeEPh
 269:./ros_lib/ros/node_handle.h ****               #endif
 3586              		.loc 11 269 0
 3587 0372 7A68     		ldr	r2, [r7, #4]
 3588 0374 9123     		mov	r3, #145
 3589 0376 9B00     		lsl	r3, r3, #2
 3590 0378 0121     		mov	r1, #1
 3591 037a D154     		strb	r1, [r2, r3]
 3592 037c 39E0     		b	.L153
 3593              	.L175:
 3594 037e C046     		.align	2
 3595              	.L174:
 3596 0380 98080000 		.word	2200
 3597 0384 FF000080 		.word	-2147483393
 3598 0388 00FFFFFF 		.word	-256
 3599              	.L170:
 271:./ros_lib/ros/node_handle.h ****                   configured_ = false;
 3600              		.loc 11 271 0
 3601 038c 7A68     		ldr	r2, [r7, #4]
 3602 038e 8A23     		mov	r3, #138
 3603 0390 9B00     		lsl	r3, r3, #2
 3604 0392 D358     		ldr	r3, [r2, r3]
 3605 0394 0B2B     		cmp	r3, #11
 3606 0396 05D1     		bne	.L171
 272:./ros_lib/ros/node_handle.h ****               }else{
 3607              		.loc 11 272 0
 3608 0398 7A68     		ldr	r2, [r7, #4]
 3609 039a 8D23     		mov	r3, #141
 3610 039c 9B00     		lsl	r3, r3, #2
 3611 039e 0021     		mov	r1, #0
 3612 03a0 D154     		strb	r1, [r2, r3]
 3613 03a2 26E0     		b	.L153
ARM GAS  C:\Users\Chuck\AppData\Local\Temp\cc5X170Y.s 			page 85


 3614              	.L171:
 274:./ros_lib/ros/node_handle.h ****                   subscribers[topic_-100]->callback( message_in );
 3615              		.loc 11 274 0
 3616 03a4 7A68     		ldr	r2, [r7, #4]
 3617 03a6 8A23     		mov	r3, #138
 3618 03a8 9B00     		lsl	r3, r3, #2
 3619 03aa D358     		ldr	r3, [r2, r3]
 3620 03ac 643B     		sub	r3, r3, #100
 3621 03ae 1A1C     		mov	r2, r3
 3622 03b0 7B68     		ldr	r3, [r7, #4]
 3623 03b2 7E32     		add	r2, r2, #126
 3624 03b4 9200     		lsl	r2, r2, #2
 3625 03b6 D358     		ldr	r3, [r2, r3]
 3626 03b8 002B     		cmp	r3, #0
 3627 03ba 1AD0     		beq	.L153
 275:./ros_lib/ros/node_handle.h ****               }
 3628              		.loc 11 275 0
 3629 03bc 7A68     		ldr	r2, [r7, #4]
 3630 03be 8A23     		mov	r3, #138
 3631 03c0 9B00     		lsl	r3, r3, #2
 3632 03c2 D358     		ldr	r3, [r2, r3]
 3633 03c4 643B     		sub	r3, r3, #100
 3634 03c6 1A1C     		mov	r2, r3
 3635 03c8 7B68     		ldr	r3, [r7, #4]
 3636 03ca 7E32     		add	r2, r2, #126
 3637 03cc 9200     		lsl	r2, r2, #2
 3638 03ce D358     		ldr	r3, [r2, r3]
 3639 03d0 1B68     		ldr	r3, [r3]
 3640 03d2 1B68     		ldr	r3, [r3]
 3641 03d4 7968     		ldr	r1, [r7, #4]
 3642 03d6 8A22     		mov	r2, #138
 3643 03d8 9200     		lsl	r2, r2, #2
 3644 03da 8A58     		ldr	r2, [r1, r2]
 3645 03dc 643A     		sub	r2, r2, #100
 3646 03de 111C     		mov	r1, r2
 3647 03e0 7A68     		ldr	r2, [r7, #4]
 3648 03e2 7E31     		add	r1, r1, #126
 3649 03e4 8900     		lsl	r1, r1, #2
 3650 03e6 8958     		ldr	r1, [r1, r2]
 3651 03e8 7A68     		ldr	r2, [r7, #4]
 3652 03ea 1832     		add	r2, r2, #24
 3653 03ec 081C     		mov	r0, r1
 3654 03ee 111C     		mov	r1, r2
 3655 03f0 9847     		blx	r3
 3656              	.L153:
 3657              	.LBE45:
 283:./ros_lib/ros/node_handle.h ****           requestSyncTime();
 284:./ros_lib/ros/node_handle.h ****           last_sync_time = c_time;
 285:./ros_lib/ros/node_handle.h ****         }
 286:./ros_lib/ros/node_handle.h **** 
 287:./ros_lib/ros/node_handle.h ****         return 0;
 3658              		.loc 11 287 0 discriminator 7
 3659 03f2 30E6     		b	.L149
 3660              	.L173:
 282:./ros_lib/ros/node_handle.h ****           requestSyncTime();
 3661              		.loc 11 282 0 discriminator 1
 3662 03f4 7A68     		ldr	r2, [r7, #4]
ARM GAS  C:\Users\Chuck\AppData\Local\Temp\cc5X170Y.s 			page 86


 3663 03f6 8E23     		mov	r3, #142
 3664 03f8 9B00     		lsl	r3, r3, #2
 3665 03fa D358     		ldr	r3, [r2, r3]
 3666 03fc FA68     		ldr	r2, [r7, #12]
 3667 03fe D21A     		sub	r2, r2, r3
 3668 0400 FA23     		mov	r3, #250
 3669 0402 9B00     		lsl	r3, r3, #2
 3670 0404 9A42     		cmp	r2, r3
 3671 0406 08D9     		bls	.L172
 283:./ros_lib/ros/node_handle.h ****           requestSyncTime();
 3672              		.loc 11 283 0
 3673 0408 7B68     		ldr	r3, [r7, #4]
 3674 040a 181C     		mov	r0, r3
 3675 040c FFF7FEFF 		bl	_ZN3ros11NodeHandle_I13Psoc4HardwareLi10ELi20ELi200ELi200EE15requestSyncTimeEv
 284:./ros_lib/ros/node_handle.h ****         }
 3676              		.loc 11 284 0
 3677 0410 7A68     		ldr	r2, [r7, #4]
 3678 0412 8E23     		mov	r3, #142
 3679 0414 9B00     		lsl	r3, r3, #2
 3680 0416 F968     		ldr	r1, [r7, #12]
 3681 0418 D150     		str	r1, [r2, r3]
 3682              	.L172:
 3683              		.loc 11 287 0
 3684 041a 0023     		mov	r3, #0
 3685              	.L156:
 3686              	.LBE43:
 288:./ros_lib/ros/node_handle.h ****       }
 3687              		.loc 11 288 0
 3688 041c 181C     		mov	r0, r3
 3689 041e BD46     		mov	sp, r7
 3690 0420 04B0     		add	sp, sp, #16
 3691              		@ sp needed
 3692 0422 80BD     		pop	{r7, pc}
 3693              		.cfi_endproc
 3694              	.LFE166:
 3695              		.size	_ZN3ros11NodeHandle_I13Psoc4HardwareLi10ELi20ELi200ELi200EE8spinOnceEv, .-_ZN3ros11NodeHandl
 3696              		.section	.text._ZN3ros11NodeHandle_I13Psoc4HardwareLi10ELi20ELi200ELi200EE15requestSyncTimeEv,"axG
 3697              		.align	2
 3698              		.weak	_ZN3ros11NodeHandle_I13Psoc4HardwareLi10ELi20ELi200ELi200EE15requestSyncTimeEv
 3699              		.code	16
 3700              		.thumb_func
 3701              		.type	_ZN3ros11NodeHandle_I13Psoc4HardwareLi10ELi20ELi200ELi200EE15requestSyncTimeEv, %function
 3702              	_ZN3ros11NodeHandle_I13Psoc4HardwareLi10ELi20ELi200ELi200EE15requestSyncTimeEv:
 3703              	.LFB167:
 289:./ros_lib/ros/node_handle.h **** 
 290:./ros_lib/ros/node_handle.h **** 
 291:./ros_lib/ros/node_handle.h ****       /* Are we connected to the PC? */
 292:./ros_lib/ros/node_handle.h ****       virtual bool connected() {
 293:./ros_lib/ros/node_handle.h ****         return configured_;
 294:./ros_lib/ros/node_handle.h ****       };
 295:./ros_lib/ros/node_handle.h **** 
 296:./ros_lib/ros/node_handle.h ****       /********************************************************************
 297:./ros_lib/ros/node_handle.h ****        * Time functions
 298:./ros_lib/ros/node_handle.h ****        */
 299:./ros_lib/ros/node_handle.h **** 
 300:./ros_lib/ros/node_handle.h ****       void requestSyncTime()
 3704              		.loc 11 300 0
ARM GAS  C:\Users\Chuck\AppData\Local\Temp\cc5X170Y.s 			page 87


 3705              		.cfi_startproc
 3706 0000 80B5     		push	{r7, lr}
 3707              		.cfi_def_cfa_offset 8
 3708              		.cfi_offset 7, -8
 3709              		.cfi_offset 14, -4
 3710 0002 86B0     		sub	sp, sp, #24
 3711              		.cfi_def_cfa_offset 32
 3712 0004 00AF     		add	r7, sp, #0
 3713              		.cfi_def_cfa_register 7
 3714 0006 7860     		str	r0, [r7, #4]
 3715              	.LBB46:
 301:./ros_lib/ros/node_handle.h ****       {
 302:./ros_lib/ros/node_handle.h ****         std_msgs::Time t;
 3716              		.loc 11 302 0
 3717 0008 0C23     		mov	r3, #12
 3718 000a FB18     		add	r3, r7, r3
 3719 000c 181C     		mov	r0, r3
 3720 000e FFF7FEFF 		bl	_ZN8std_msgs4TimeC1Ev
 303:./ros_lib/ros/node_handle.h ****         publish(TopicInfo::ID_TIME, &t);
 3721              		.loc 11 303 0
 3722 0012 7B68     		ldr	r3, [r7, #4]
 3723 0014 1B68     		ldr	r3, [r3]
 3724 0016 1B68     		ldr	r3, [r3]
 3725 0018 7968     		ldr	r1, [r7, #4]
 3726 001a 0C22     		mov	r2, #12
 3727 001c BA18     		add	r2, r7, r2
 3728 001e 081C     		mov	r0, r1
 3729 0020 0A21     		mov	r1, #10
 3730 0022 9847     		blx	r3
 304:./ros_lib/ros/node_handle.h ****         rt_time = hardware_.time();
 3731              		.loc 11 304 0
 3732 0024 7B68     		ldr	r3, [r7, #4]
 3733 0026 0433     		add	r3, r3, #4
 3734 0028 181C     		mov	r0, r3
 3735 002a FFF7FEFF 		bl	_ZN13Psoc4Hardware4timeEv
 3736 002e 021C     		mov	r2, r0
 3737 0030 7B68     		ldr	r3, [r7, #4]
 3738 0032 DA60     		str	r2, [r3, #12]
 3739              	.LBE46:
 305:./ros_lib/ros/node_handle.h ****       }
 3740              		.loc 11 305 0
 3741 0034 BD46     		mov	sp, r7
 3742 0036 06B0     		add	sp, sp, #24
 3743              		@ sp needed
 3744 0038 80BD     		pop	{r7, pc}
 3745              		.cfi_endproc
 3746              	.LFE167:
 3747              		.size	_ZN3ros11NodeHandle_I13Psoc4HardwareLi10ELi20ELi200ELi200EE15requestSyncTimeEv, .-_ZN3ros11N
 3748              		.section	.text._ZN3ros11NodeHandle_I13Psoc4HardwareLi10ELi20ELi200ELi200EE15negotiateTopicsEv,"axG
 3749              		.align	2
 3750              		.weak	_ZN3ros11NodeHandle_I13Psoc4HardwareLi10ELi20ELi200ELi200EE15negotiateTopicsEv
 3751              		.code	16
 3752              		.thumb_func
 3753              		.type	_ZN3ros11NodeHandle_I13Psoc4HardwareLi10ELi20ELi200ELi200EE15negotiateTopicsEv, %function
 3754              	_ZN3ros11NodeHandle_I13Psoc4HardwareLi10ELi20ELi200ELi200EE15negotiateTopicsEv:
 3755              	.LFB168:
 306:./ros_lib/ros/node_handle.h **** 
ARM GAS  C:\Users\Chuck\AppData\Local\Temp\cc5X170Y.s 			page 88


 307:./ros_lib/ros/node_handle.h ****       void syncTime( unsigned char * data )
 308:./ros_lib/ros/node_handle.h ****       {
 309:./ros_lib/ros/node_handle.h ****         std_msgs::Time t;
 310:./ros_lib/ros/node_handle.h ****         unsigned long offset = hardware_.time() - rt_time;
 311:./ros_lib/ros/node_handle.h **** 
 312:./ros_lib/ros/node_handle.h ****         t.deserialize(data);
 313:./ros_lib/ros/node_handle.h ****         t.data.sec += offset/1000;
 314:./ros_lib/ros/node_handle.h ****         t.data.nsec += (offset%1000)*1000000UL;
 315:./ros_lib/ros/node_handle.h **** 
 316:./ros_lib/ros/node_handle.h ****         this->setNow(t.data);
 317:./ros_lib/ros/node_handle.h ****         last_sync_receive_time = hardware_.time();
 318:./ros_lib/ros/node_handle.h ****       }
 319:./ros_lib/ros/node_handle.h **** 
 320:./ros_lib/ros/node_handle.h ****       Time now(){
 321:./ros_lib/ros/node_handle.h ****         unsigned long ms = hardware_.time();
 322:./ros_lib/ros/node_handle.h ****         Time current_time;
 323:./ros_lib/ros/node_handle.h ****         current_time.sec = ms/1000 + sec_offset;
 324:./ros_lib/ros/node_handle.h ****         current_time.nsec = (ms%1000)*1000000UL + nsec_offset;
 325:./ros_lib/ros/node_handle.h ****         normalizeSecNSec(current_time.sec, current_time.nsec);
 326:./ros_lib/ros/node_handle.h ****         return current_time;
 327:./ros_lib/ros/node_handle.h ****       }
 328:./ros_lib/ros/node_handle.h **** 
 329:./ros_lib/ros/node_handle.h ****       void setNow( Time & new_now )
 330:./ros_lib/ros/node_handle.h ****       {
 331:./ros_lib/ros/node_handle.h ****         unsigned long ms = hardware_.time();
 332:./ros_lib/ros/node_handle.h ****         sec_offset = new_now.sec - ms/1000 - 1;
 333:./ros_lib/ros/node_handle.h ****         nsec_offset = new_now.nsec - (ms%1000)*1000000UL + 1000000000UL;
 334:./ros_lib/ros/node_handle.h ****         normalizeSecNSec(sec_offset, nsec_offset);
 335:./ros_lib/ros/node_handle.h ****       }
 336:./ros_lib/ros/node_handle.h **** 
 337:./ros_lib/ros/node_handle.h ****       /********************************************************************
 338:./ros_lib/ros/node_handle.h ****        * Topic Management 
 339:./ros_lib/ros/node_handle.h ****        */
 340:./ros_lib/ros/node_handle.h **** 
 341:./ros_lib/ros/node_handle.h ****       /* Register a new publisher */    
 342:./ros_lib/ros/node_handle.h ****       bool advertise(Publisher & p)
 343:./ros_lib/ros/node_handle.h ****       {
 344:./ros_lib/ros/node_handle.h ****         for(int i = 0; i < MAX_PUBLISHERS; i++){
 345:./ros_lib/ros/node_handle.h ****           if(publishers[i] == 0){ // empty slot
 346:./ros_lib/ros/node_handle.h ****             publishers[i] = &p;
 347:./ros_lib/ros/node_handle.h ****             p.id_ = i+100+MAX_SUBSCRIBERS;
 348:./ros_lib/ros/node_handle.h ****             p.nh_ = this;
 349:./ros_lib/ros/node_handle.h ****             return true;
 350:./ros_lib/ros/node_handle.h ****           }
 351:./ros_lib/ros/node_handle.h ****         }
 352:./ros_lib/ros/node_handle.h ****         return false;
 353:./ros_lib/ros/node_handle.h ****       }
 354:./ros_lib/ros/node_handle.h **** 
 355:./ros_lib/ros/node_handle.h ****       /* Register a new subscriber */
 356:./ros_lib/ros/node_handle.h ****       template<typename MsgT>
 357:./ros_lib/ros/node_handle.h ****       bool subscribe(Subscriber< MsgT> & s){
 358:./ros_lib/ros/node_handle.h ****         for(int i = 0; i < MAX_SUBSCRIBERS; i++){
 359:./ros_lib/ros/node_handle.h ****           if(subscribers[i] == 0){ // empty slot
 360:./ros_lib/ros/node_handle.h ****             subscribers[i] = (Subscriber_*) &s;
 361:./ros_lib/ros/node_handle.h ****             s.id_ = i+100;
 362:./ros_lib/ros/node_handle.h ****             return true;
 363:./ros_lib/ros/node_handle.h ****           }
ARM GAS  C:\Users\Chuck\AppData\Local\Temp\cc5X170Y.s 			page 89


 364:./ros_lib/ros/node_handle.h ****         }
 365:./ros_lib/ros/node_handle.h ****         return false;
 366:./ros_lib/ros/node_handle.h ****       }
 367:./ros_lib/ros/node_handle.h **** 
 368:./ros_lib/ros/node_handle.h ****       /* Register a new Service Server */
 369:./ros_lib/ros/node_handle.h ****       template<typename MReq, typename MRes>
 370:./ros_lib/ros/node_handle.h ****       bool advertiseService(ServiceServer<MReq,MRes>& srv){
 371:./ros_lib/ros/node_handle.h ****         bool v = advertise(srv.pub);
 372:./ros_lib/ros/node_handle.h ****         for(int i = 0; i < MAX_SUBSCRIBERS; i++){
 373:./ros_lib/ros/node_handle.h ****           if(subscribers[i] == 0){ // empty slot
 374:./ros_lib/ros/node_handle.h ****             subscribers[i] = (Subscriber_*) &srv;
 375:./ros_lib/ros/node_handle.h ****             srv.id_ = i+100;
 376:./ros_lib/ros/node_handle.h ****             return v;
 377:./ros_lib/ros/node_handle.h ****           }
 378:./ros_lib/ros/node_handle.h ****         }
 379:./ros_lib/ros/node_handle.h ****         return false;
 380:./ros_lib/ros/node_handle.h ****       }
 381:./ros_lib/ros/node_handle.h **** 
 382:./ros_lib/ros/node_handle.h ****       /* Register a new Service Client */
 383:./ros_lib/ros/node_handle.h ****       template<typename MReq, typename MRes>
 384:./ros_lib/ros/node_handle.h ****       bool serviceClient(ServiceClient<MReq, MRes>& srv){
 385:./ros_lib/ros/node_handle.h ****         bool v = advertise(srv.pub);
 386:./ros_lib/ros/node_handle.h ****         for(int i = 0; i < MAX_SUBSCRIBERS; i++){
 387:./ros_lib/ros/node_handle.h ****           if(subscribers[i] == 0){ // empty slot
 388:./ros_lib/ros/node_handle.h ****             subscribers[i] = (Subscriber_*) &srv;
 389:./ros_lib/ros/node_handle.h ****             srv.id_ = i+100;
 390:./ros_lib/ros/node_handle.h ****             return v;
 391:./ros_lib/ros/node_handle.h ****           }
 392:./ros_lib/ros/node_handle.h ****         }
 393:./ros_lib/ros/node_handle.h ****         return false;
 394:./ros_lib/ros/node_handle.h ****       }
 395:./ros_lib/ros/node_handle.h **** 
 396:./ros_lib/ros/node_handle.h ****       void negotiateTopics()
 3756              		.loc 11 396 0
 3757              		.cfi_startproc
 3758 0000 90B5     		push	{r4, r7, lr}
 3759              		.cfi_def_cfa_offset 12
 3760              		.cfi_offset 4, -12
 3761              		.cfi_offset 7, -8
 3762              		.cfi_offset 14, -4
 3763 0002 8BB0     		sub	sp, sp, #44
 3764              		.cfi_def_cfa_offset 56
 3765 0004 00AF     		add	r7, sp, #0
 3766              		.cfi_def_cfa_register 7
 3767 0006 7860     		str	r0, [r7, #4]
 3768              	.LBB47:
 397:./ros_lib/ros/node_handle.h ****       {
 398:./ros_lib/ros/node_handle.h ****         rosserial_msgs::TopicInfo ti;
 3769              		.loc 11 398 0
 3770 0008 0C23     		mov	r3, #12
 3771 000a FB18     		add	r3, r7, r3
 3772 000c 181C     		mov	r0, r3
 3773 000e FFF7FEFF 		bl	_ZN14rosserial_msgs9TopicInfoC1Ev
 399:./ros_lib/ros/node_handle.h ****         int i;
 400:./ros_lib/ros/node_handle.h ****         for(i = 0; i < MAX_PUBLISHERS; i++)
 3774              		.loc 11 400 0
 3775 0012 0023     		mov	r3, #0
ARM GAS  C:\Users\Chuck\AppData\Local\Temp\cc5X170Y.s 			page 90


 3776 0014 7B62     		str	r3, [r7, #36]
 3777 0016 5CE0     		b	.L178
 3778              	.L180:
 401:./ros_lib/ros/node_handle.h ****         {
 402:./ros_lib/ros/node_handle.h ****           if(publishers[i] != 0) // non-empty slot
 3779              		.loc 11 402 0
 3780 0018 7B68     		ldr	r3, [r7, #4]
 3781 001a 7A6A     		ldr	r2, [r7, #36]
 3782 001c 6A32     		add	r2, r2, #106
 3783 001e 9200     		lsl	r2, r2, #2
 3784 0020 D358     		ldr	r3, [r2, r3]
 3785 0022 002B     		cmp	r3, #0
 3786 0024 52D0     		beq	.L179
 403:./ros_lib/ros/node_handle.h ****           {
 404:./ros_lib/ros/node_handle.h ****             ti.topic_id = publishers[i]->id_;
 3787              		.loc 11 404 0
 3788 0026 7B68     		ldr	r3, [r7, #4]
 3789 0028 7A6A     		ldr	r2, [r7, #36]
 3790 002a 6A32     		add	r2, r2, #106
 3791 002c 9200     		lsl	r2, r2, #2
 3792 002e D358     		ldr	r3, [r2, r3]
 3793 0030 9B68     		ldr	r3, [r3, #8]
 3794 0032 9AB2     		uxth	r2, r3
 3795 0034 0C23     		mov	r3, #12
 3796 0036 FB18     		add	r3, r7, r3
 3797 0038 9A80     		strh	r2, [r3, #4]
 405:./ros_lib/ros/node_handle.h ****             ti.topic_name = (char *) publishers[i]->topic_;
 3798              		.loc 11 405 0
 3799 003a 7B68     		ldr	r3, [r7, #4]
 3800 003c 7A6A     		ldr	r2, [r7, #36]
 3801 003e 6A32     		add	r2, r2, #106
 3802 0040 9200     		lsl	r2, r2, #2
 3803 0042 D358     		ldr	r3, [r2, r3]
 3804 0044 1A68     		ldr	r2, [r3]
 3805 0046 0C23     		mov	r3, #12
 3806 0048 FB18     		add	r3, r7, r3
 3807 004a 9A60     		str	r2, [r3, #8]
 406:./ros_lib/ros/node_handle.h ****             ti.message_type = (char *) publishers[i]->msg_->getType();
 3808              		.loc 11 406 0
 3809 004c 7B68     		ldr	r3, [r7, #4]
 3810 004e 7A6A     		ldr	r2, [r7, #36]
 3811 0050 6A32     		add	r2, r2, #106
 3812 0052 9200     		lsl	r2, r2, #2
 3813 0054 D358     		ldr	r3, [r2, r3]
 3814 0056 5B68     		ldr	r3, [r3, #4]
 3815 0058 1B68     		ldr	r3, [r3]
 3816 005a 0833     		add	r3, r3, #8
 3817 005c 1A68     		ldr	r2, [r3]
 3818 005e 7B68     		ldr	r3, [r7, #4]
 3819 0060 796A     		ldr	r1, [r7, #36]
 3820 0062 6A31     		add	r1, r1, #106
 3821 0064 8900     		lsl	r1, r1, #2
 3822 0066 CB58     		ldr	r3, [r1, r3]
 3823 0068 5B68     		ldr	r3, [r3, #4]
 3824 006a 181C     		mov	r0, r3
 3825 006c 9047     		blx	r2
 3826 006e 021C     		mov	r2, r0
ARM GAS  C:\Users\Chuck\AppData\Local\Temp\cc5X170Y.s 			page 91


 3827 0070 0C23     		mov	r3, #12
 3828 0072 FB18     		add	r3, r7, r3
 3829 0074 DA60     		str	r2, [r3, #12]
 407:./ros_lib/ros/node_handle.h ****             ti.md5sum = (char *) publishers[i]->msg_->getMD5();
 3830              		.loc 11 407 0
 3831 0076 7B68     		ldr	r3, [r7, #4]
 3832 0078 7A6A     		ldr	r2, [r7, #36]
 3833 007a 6A32     		add	r2, r2, #106
 3834 007c 9200     		lsl	r2, r2, #2
 3835 007e D358     		ldr	r3, [r2, r3]
 3836 0080 5B68     		ldr	r3, [r3, #4]
 3837 0082 1B68     		ldr	r3, [r3]
 3838 0084 0C33     		add	r3, r3, #12
 3839 0086 1A68     		ldr	r2, [r3]
 3840 0088 7B68     		ldr	r3, [r7, #4]
 3841 008a 796A     		ldr	r1, [r7, #36]
 3842 008c 6A31     		add	r1, r1, #106
 3843 008e 8900     		lsl	r1, r1, #2
 3844 0090 CB58     		ldr	r3, [r1, r3]
 3845 0092 5B68     		ldr	r3, [r3, #4]
 3846 0094 181C     		mov	r0, r3
 3847 0096 9047     		blx	r2
 3848 0098 021C     		mov	r2, r0
 3849 009a 0C23     		mov	r3, #12
 3850 009c FB18     		add	r3, r7, r3
 3851 009e 1A61     		str	r2, [r3, #16]
 408:./ros_lib/ros/node_handle.h ****             ti.buffer_size = OUTPUT_SIZE;
 3852              		.loc 11 408 0
 3853 00a0 0C23     		mov	r3, #12
 3854 00a2 FB18     		add	r3, r7, r3
 3855 00a4 C822     		mov	r2, #200
 3856 00a6 5A61     		str	r2, [r3, #20]
 409:./ros_lib/ros/node_handle.h ****             publish( publishers[i]->getEndpointType(), &ti );
 3857              		.loc 11 409 0
 3858 00a8 7B68     		ldr	r3, [r7, #4]
 3859 00aa 1B68     		ldr	r3, [r3]
 3860 00ac 1C68     		ldr	r4, [r3]
 3861 00ae 7B68     		ldr	r3, [r7, #4]
 3862 00b0 7A6A     		ldr	r2, [r7, #36]
 3863 00b2 6A32     		add	r2, r2, #106
 3864 00b4 9200     		lsl	r2, r2, #2
 3865 00b6 D358     		ldr	r3, [r2, r3]
 3866 00b8 181C     		mov	r0, r3
 3867 00ba FFF7FEFF 		bl	_ZN3ros9Publisher15getEndpointTypeEv
 3868 00be 011C     		mov	r1, r0
 3869 00c0 7A68     		ldr	r2, [r7, #4]
 3870 00c2 0C23     		mov	r3, #12
 3871 00c4 FB18     		add	r3, r7, r3
 3872 00c6 101C     		mov	r0, r2
 3873 00c8 1A1C     		mov	r2, r3
 3874 00ca A047     		blx	r4
 3875              	.L179:
 400:./ros_lib/ros/node_handle.h ****         {
 3876              		.loc 11 400 0 discriminator 2
 3877 00cc 7B6A     		ldr	r3, [r7, #36]
 3878 00ce 0133     		add	r3, r3, #1
 3879 00d0 7B62     		str	r3, [r7, #36]
ARM GAS  C:\Users\Chuck\AppData\Local\Temp\cc5X170Y.s 			page 92


 3880              	.L178:
 400:./ros_lib/ros/node_handle.h ****         {
 3881              		.loc 11 400 0 is_stmt 0 discriminator 1
 3882 00d2 7B6A     		ldr	r3, [r7, #36]
 3883 00d4 132B     		cmp	r3, #19
 3884 00d6 9FDD     		ble	.L180
 410:./ros_lib/ros/node_handle.h ****           }
 411:./ros_lib/ros/node_handle.h ****         }
 412:./ros_lib/ros/node_handle.h ****         for(i = 0; i < MAX_SUBSCRIBERS; i++)
 3885              		.loc 11 412 0 is_stmt 1
 3886 00d8 0023     		mov	r3, #0
 3887 00da 7B62     		str	r3, [r7, #36]
 3888 00dc 5FE0     		b	.L181
 3889              	.L183:
 413:./ros_lib/ros/node_handle.h ****         {
 414:./ros_lib/ros/node_handle.h ****           if(subscribers[i] != 0) // non-empty slot
 3890              		.loc 11 414 0
 3891 00de 7B68     		ldr	r3, [r7, #4]
 3892 00e0 7A6A     		ldr	r2, [r7, #36]
 3893 00e2 7E32     		add	r2, r2, #126
 3894 00e4 9200     		lsl	r2, r2, #2
 3895 00e6 D358     		ldr	r3, [r2, r3]
 3896 00e8 002B     		cmp	r3, #0
 3897 00ea 55D0     		beq	.L182
 415:./ros_lib/ros/node_handle.h ****           {
 416:./ros_lib/ros/node_handle.h ****             ti.topic_id = subscribers[i]->id_;
 3898              		.loc 11 416 0
 3899 00ec 7B68     		ldr	r3, [r7, #4]
 3900 00ee 7A6A     		ldr	r2, [r7, #36]
 3901 00f0 7E32     		add	r2, r2, #126
 3902 00f2 9200     		lsl	r2, r2, #2
 3903 00f4 D358     		ldr	r3, [r2, r3]
 3904 00f6 5B68     		ldr	r3, [r3, #4]
 3905 00f8 9AB2     		uxth	r2, r3
 3906 00fa 0C23     		mov	r3, #12
 3907 00fc FB18     		add	r3, r7, r3
 3908 00fe 9A80     		strh	r2, [r3, #4]
 417:./ros_lib/ros/node_handle.h ****             ti.topic_name = (char *) subscribers[i]->topic_;
 3909              		.loc 11 417 0
 3910 0100 7B68     		ldr	r3, [r7, #4]
 3911 0102 7A6A     		ldr	r2, [r7, #36]
 3912 0104 7E32     		add	r2, r2, #126
 3913 0106 9200     		lsl	r2, r2, #2
 3914 0108 D358     		ldr	r3, [r2, r3]
 3915 010a 9A68     		ldr	r2, [r3, #8]
 3916 010c 0C23     		mov	r3, #12
 3917 010e FB18     		add	r3, r7, r3
 3918 0110 9A60     		str	r2, [r3, #8]
 418:./ros_lib/ros/node_handle.h ****             ti.message_type = (char *) subscribers[i]->getMsgType();
 3919              		.loc 11 418 0
 3920 0112 7B68     		ldr	r3, [r7, #4]
 3921 0114 7A6A     		ldr	r2, [r7, #36]
 3922 0116 7E32     		add	r2, r2, #126
 3923 0118 9200     		lsl	r2, r2, #2
 3924 011a D358     		ldr	r3, [r2, r3]
 3925 011c 1B68     		ldr	r3, [r3]
 3926 011e 0833     		add	r3, r3, #8
ARM GAS  C:\Users\Chuck\AppData\Local\Temp\cc5X170Y.s 			page 93


 3927 0120 1B68     		ldr	r3, [r3]
 3928 0122 7A68     		ldr	r2, [r7, #4]
 3929 0124 796A     		ldr	r1, [r7, #36]
 3930 0126 7E31     		add	r1, r1, #126
 3931 0128 8900     		lsl	r1, r1, #2
 3932 012a 8A58     		ldr	r2, [r1, r2]
 3933 012c 101C     		mov	r0, r2
 3934 012e 9847     		blx	r3
 3935 0130 021C     		mov	r2, r0
 3936 0132 0C23     		mov	r3, #12
 3937 0134 FB18     		add	r3, r7, r3
 3938 0136 DA60     		str	r2, [r3, #12]
 419:./ros_lib/ros/node_handle.h ****             ti.md5sum = (char *) subscribers[i]->getMsgMD5();
 3939              		.loc 11 419 0
 3940 0138 7B68     		ldr	r3, [r7, #4]
 3941 013a 7A6A     		ldr	r2, [r7, #36]
 3942 013c 7E32     		add	r2, r2, #126
 3943 013e 9200     		lsl	r2, r2, #2
 3944 0140 D358     		ldr	r3, [r2, r3]
 3945 0142 1B68     		ldr	r3, [r3]
 3946 0144 0C33     		add	r3, r3, #12
 3947 0146 1B68     		ldr	r3, [r3]
 3948 0148 7A68     		ldr	r2, [r7, #4]
 3949 014a 796A     		ldr	r1, [r7, #36]
 3950 014c 7E31     		add	r1, r1, #126
 3951 014e 8900     		lsl	r1, r1, #2
 3952 0150 8A58     		ldr	r2, [r1, r2]
 3953 0152 101C     		mov	r0, r2
 3954 0154 9847     		blx	r3
 3955 0156 021C     		mov	r2, r0
 3956 0158 0C23     		mov	r3, #12
 3957 015a FB18     		add	r3, r7, r3
 3958 015c 1A61     		str	r2, [r3, #16]
 420:./ros_lib/ros/node_handle.h ****             ti.buffer_size = INPUT_SIZE;
 3959              		.loc 11 420 0
 3960 015e 0C23     		mov	r3, #12
 3961 0160 FB18     		add	r3, r7, r3
 3962 0162 C822     		mov	r2, #200
 3963 0164 5A61     		str	r2, [r3, #20]
 421:./ros_lib/ros/node_handle.h ****             publish( subscribers[i]->getEndpointType(), &ti );
 3964              		.loc 11 421 0
 3965 0166 7B68     		ldr	r3, [r7, #4]
 3966 0168 1B68     		ldr	r3, [r3]
 3967 016a 1C68     		ldr	r4, [r3]
 3968 016c 7B68     		ldr	r3, [r7, #4]
 3969 016e 7A6A     		ldr	r2, [r7, #36]
 3970 0170 7E32     		add	r2, r2, #126
 3971 0172 9200     		lsl	r2, r2, #2
 3972 0174 D358     		ldr	r3, [r2, r3]
 3973 0176 1B68     		ldr	r3, [r3]
 3974 0178 0433     		add	r3, r3, #4
 3975 017a 1B68     		ldr	r3, [r3]
 3976 017c 7A68     		ldr	r2, [r7, #4]
 3977 017e 796A     		ldr	r1, [r7, #36]
 3978 0180 7E31     		add	r1, r1, #126
 3979 0182 8900     		lsl	r1, r1, #2
 3980 0184 8A58     		ldr	r2, [r1, r2]
ARM GAS  C:\Users\Chuck\AppData\Local\Temp\cc5X170Y.s 			page 94


 3981 0186 101C     		mov	r0, r2
 3982 0188 9847     		blx	r3
 3983 018a 011C     		mov	r1, r0
 3984 018c 7A68     		ldr	r2, [r7, #4]
 3985 018e 0C23     		mov	r3, #12
 3986 0190 FB18     		add	r3, r7, r3
 3987 0192 101C     		mov	r0, r2
 3988 0194 1A1C     		mov	r2, r3
 3989 0196 A047     		blx	r4
 3990              	.L182:
 412:./ros_lib/ros/node_handle.h ****         {
 3991              		.loc 11 412 0 discriminator 2
 3992 0198 7B6A     		ldr	r3, [r7, #36]
 3993 019a 0133     		add	r3, r3, #1
 3994 019c 7B62     		str	r3, [r7, #36]
 3995              	.L181:
 412:./ros_lib/ros/node_handle.h ****         {
 3996              		.loc 11 412 0 is_stmt 0 discriminator 1
 3997 019e 7B6A     		ldr	r3, [r7, #36]
 3998 01a0 092B     		cmp	r3, #9
 3999 01a2 9CDD     		ble	.L183
 422:./ros_lib/ros/node_handle.h ****           }
 423:./ros_lib/ros/node_handle.h ****         }
 424:./ros_lib/ros/node_handle.h ****         configured_ = true;
 4000              		.loc 11 424 0 is_stmt 1
 4001 01a4 7A68     		ldr	r2, [r7, #4]
 4002 01a6 8D23     		mov	r3, #141
 4003 01a8 9B00     		lsl	r3, r3, #2
 4004 01aa 0121     		mov	r1, #1
 4005 01ac D154     		strb	r1, [r2, r3]
 4006              	.LBE47:
 425:./ros_lib/ros/node_handle.h ****       }
 4007              		.loc 11 425 0
 4008 01ae BD46     		mov	sp, r7
 4009 01b0 0BB0     		add	sp, sp, #44
 4010              		@ sp needed
 4011 01b2 90BD     		pop	{r4, r7, pc}
 4012              		.cfi_endproc
 4013              	.LFE168:
 4014              		.size	_ZN3ros11NodeHandle_I13Psoc4HardwareLi10ELi20ELi200ELi200EE15negotiateTopicsEv, .-_ZN3ros11N
 4015              		.global	__aeabi_uidiv
 4016              		.global	__aeabi_uidivmod
 4017              		.section	.text._ZN3ros11NodeHandle_I13Psoc4HardwareLi10ELi20ELi200ELi200EE8syncTimeEPh,"axG",%prog
 4018              		.align	2
 4019              		.weak	_ZN3ros11NodeHandle_I13Psoc4HardwareLi10ELi20ELi200ELi200EE8syncTimeEPh
 4020              		.code	16
 4021              		.thumb_func
 4022              		.type	_ZN3ros11NodeHandle_I13Psoc4HardwareLi10ELi20ELi200ELi200EE8syncTimeEPh, %function
 4023              	_ZN3ros11NodeHandle_I13Psoc4HardwareLi10ELi20ELi200ELi200EE8syncTimeEPh:
 4024              	.LFB169:
 307:./ros_lib/ros/node_handle.h ****       {
 4025              		.loc 11 307 0
 4026              		.cfi_startproc
 4027 0000 90B5     		push	{r4, r7, lr}
 4028              		.cfi_def_cfa_offset 12
 4029              		.cfi_offset 4, -12
 4030              		.cfi_offset 7, -8
ARM GAS  C:\Users\Chuck\AppData\Local\Temp\cc5X170Y.s 			page 95


 4031              		.cfi_offset 14, -4
 4032 0002 87B0     		sub	sp, sp, #28
 4033              		.cfi_def_cfa_offset 40
 4034 0004 00AF     		add	r7, sp, #0
 4035              		.cfi_def_cfa_register 7
 4036 0006 7860     		str	r0, [r7, #4]
 4037 0008 3960     		str	r1, [r7]
 4038              	.LBB48:
 309:./ros_lib/ros/node_handle.h ****         unsigned long offset = hardware_.time() - rt_time;
 4039              		.loc 11 309 0
 4040 000a 0823     		mov	r3, #8
 4041 000c FB18     		add	r3, r7, r3
 4042 000e 181C     		mov	r0, r3
 4043 0010 FFF7FEFF 		bl	_ZN8std_msgs4TimeC1Ev
 310:./ros_lib/ros/node_handle.h **** 
 4044              		.loc 11 310 0
 4045 0014 7B68     		ldr	r3, [r7, #4]
 4046 0016 0433     		add	r3, r3, #4
 4047 0018 181C     		mov	r0, r3
 4048 001a FFF7FEFF 		bl	_ZN13Psoc4Hardware4timeEv
 4049 001e 021C     		mov	r2, r0
 4050 0020 7B68     		ldr	r3, [r7, #4]
 4051 0022 DB68     		ldr	r3, [r3, #12]
 4052 0024 D31A     		sub	r3, r2, r3
 4053 0026 7B61     		str	r3, [r7, #20]
 312:./ros_lib/ros/node_handle.h ****         t.data.sec += offset/1000;
 4054              		.loc 11 312 0
 4055 0028 0823     		mov	r3, #8
 4056 002a FA18     		add	r2, r7, r3
 4057 002c 3B68     		ldr	r3, [r7]
 4058 002e 101C     		mov	r0, r2
 4059 0030 191C     		mov	r1, r3
 4060 0032 FFF7FEFF 		bl	_ZN8std_msgs4Time11deserializeEPh
 313:./ros_lib/ros/node_handle.h ****         t.data.nsec += (offset%1000)*1000000UL;
 4061              		.loc 11 313 0
 4062 0036 0823     		mov	r3, #8
 4063 0038 FB18     		add	r3, r7, r3
 4064 003a 5C68     		ldr	r4, [r3, #4]
 4065 003c 7B69     		ldr	r3, [r7, #20]
 4066 003e 181C     		mov	r0, r3
 4067 0040 FA23     		mov	r3, #250
 4068 0042 9900     		lsl	r1, r3, #2
 4069 0044 FFF7FEFF 		bl	__aeabi_uidiv
 4070 0048 031C     		mov	r3, r0
 4071 004a E218     		add	r2, r4, r3
 4072 004c 0823     		mov	r3, #8
 4073 004e FB18     		add	r3, r7, r3
 4074 0050 5A60     		str	r2, [r3, #4]
 314:./ros_lib/ros/node_handle.h **** 
 4075              		.loc 11 314 0
 4076 0052 0823     		mov	r3, #8
 4077 0054 FB18     		add	r3, r7, r3
 4078 0056 9C68     		ldr	r4, [r3, #8]
 4079 0058 7B69     		ldr	r3, [r7, #20]
 4080 005a 181C     		mov	r0, r3
 4081 005c FA23     		mov	r3, #250
 4082 005e 9900     		lsl	r1, r3, #2
ARM GAS  C:\Users\Chuck\AppData\Local\Temp\cc5X170Y.s 			page 96


 4083 0060 FFF7FEFF 		bl	__aeabi_uidivmod
 4084 0064 0B1C     		mov	r3, r1
 4085 0066 1A1C     		mov	r2, r3
 4086 0068 0D4B     		ldr	r3, .L185
 4087 006a 5343     		mul	r3, r2
 4088 006c E218     		add	r2, r4, r3
 4089 006e 0823     		mov	r3, #8
 4090 0070 FB18     		add	r3, r7, r3
 4091 0072 9A60     		str	r2, [r3, #8]
 316:./ros_lib/ros/node_handle.h ****         last_sync_receive_time = hardware_.time();
 4092              		.loc 11 316 0
 4093 0074 7A68     		ldr	r2, [r7, #4]
 4094 0076 0823     		mov	r3, #8
 4095 0078 FB18     		add	r3, r7, r3
 4096 007a 0433     		add	r3, r3, #4
 4097 007c 101C     		mov	r0, r2
 4098 007e 191C     		mov	r1, r3
 4099 0080 FFF7FEFF 		bl	_ZN3ros11NodeHandle_I13Psoc4HardwareLi10ELi20ELi200ELi200EE6setNowERNS_4TimeE
 317:./ros_lib/ros/node_handle.h ****       }
 4100              		.loc 11 317 0
 4101 0084 7B68     		ldr	r3, [r7, #4]
 4102 0086 0433     		add	r3, r3, #4
 4103 0088 181C     		mov	r0, r3
 4104 008a FFF7FEFF 		bl	_ZN13Psoc4Hardware4timeEv
 4105 008e 011C     		mov	r1, r0
 4106 0090 7A68     		ldr	r2, [r7, #4]
 4107 0092 8F23     		mov	r3, #143
 4108 0094 9B00     		lsl	r3, r3, #2
 4109 0096 D150     		str	r1, [r2, r3]
 4110              	.LBE48:
 318:./ros_lib/ros/node_handle.h **** 
 4111              		.loc 11 318 0
 4112 0098 BD46     		mov	sp, r7
 4113 009a 07B0     		add	sp, sp, #28
 4114              		@ sp needed
 4115 009c 90BD     		pop	{r4, r7, pc}
 4116              	.L186:
 4117 009e C046     		.align	2
 4118              	.L185:
 4119 00a0 40420F00 		.word	1000000
 4120              		.cfi_endproc
 4121              	.LFE169:
 4122              		.size	_ZN3ros11NodeHandle_I13Psoc4HardwareLi10ELi20ELi200ELi200EE8syncTimeEPh, .-_ZN3ros11NodeHand
 4123              		.section	.rodata
 4124 00d1 000000   		.align	2
 4125              	.LC28:
 4126 00d4 4D657373 		.ascii	"Message from device dropped: message larger than bu"
 4126      61676520 
 4126      66726F6D 
 4126      20646576 
 4126      69636520 
 4127 0107 66666572 		.ascii	"ffer.\000"
 4127      2E00
 4128              		.section	.text._ZN3ros11NodeHandle_I13Psoc4HardwareLi10ELi20ELi200ELi200EE7publishEiPKNS_3MsgE,"ax
 4129              		.align	2
 4130              		.weak	_ZN3ros11NodeHandle_I13Psoc4HardwareLi10ELi20ELi200ELi200EE7publishEiPKNS_3MsgE
 4131              		.code	16
ARM GAS  C:\Users\Chuck\AppData\Local\Temp\cc5X170Y.s 			page 97


 4132              		.thumb_func
 4133              		.type	_ZN3ros11NodeHandle_I13Psoc4HardwareLi10ELi20ELi200ELi200EE7publishEiPKNS_3MsgE, %function
 4134              	_ZN3ros11NodeHandle_I13Psoc4HardwareLi10ELi20ELi200ELi200EE7publishEiPKNS_3MsgE:
 4135              	.LFB170:
 426:./ros_lib/ros/node_handle.h **** 
 427:./ros_lib/ros/node_handle.h ****       virtual int publish(int id, const Msg * msg)
 4136              		.loc 11 427 0
 4137              		.cfi_startproc
 4138 0000 80B5     		push	{r7, lr}
 4139              		.cfi_def_cfa_offset 8
 4140              		.cfi_offset 7, -8
 4141              		.cfi_offset 14, -4
 4142 0002 88B0     		sub	sp, sp, #32
 4143              		.cfi_def_cfa_offset 40
 4144 0004 00AF     		add	r7, sp, #0
 4145              		.cfi_def_cfa_register 7
 4146 0006 F860     		str	r0, [r7, #12]
 4147 0008 B960     		str	r1, [r7, #8]
 4148 000a 7A60     		str	r2, [r7, #4]
 4149              	.LBB49:
 428:./ros_lib/ros/node_handle.h ****       {
 429:./ros_lib/ros/node_handle.h ****         if(id >= 100 && !configured_) 
 4150              		.loc 11 429 0
 4151 000c BB68     		ldr	r3, [r7, #8]
 4152 000e 632B     		cmp	r3, #99
 4153 0010 0ADD     		ble	.L188
 4154              		.loc 11 429 0 is_stmt 0 discriminator 1
 4155 0012 FA68     		ldr	r2, [r7, #12]
 4156 0014 8D23     		mov	r3, #141
 4157 0016 9B00     		lsl	r3, r3, #2
 4158 0018 D35C     		ldrb	r3, [r2, r3]
 4159 001a 0122     		mov	r2, #1
 4160 001c 5340     		eor	r3, r2
 4161 001e DBB2     		uxtb	r3, r3
 4162 0020 002B     		cmp	r3, #0
 4163 0022 01D0     		beq	.L188
 430:./ros_lib/ros/node_handle.h **** 	  return 0;
 4164              		.loc 11 430 0 is_stmt 1
 4165 0024 0023     		mov	r3, #0
 4166 0026 7BE0     		b	.L189
 4167              	.L188:
 431:./ros_lib/ros/node_handle.h **** 
 432:./ros_lib/ros/node_handle.h ****         /* serialize message */
 433:./ros_lib/ros/node_handle.h ****         unsigned int l = msg->serialize(message_out+7);
 4168              		.loc 11 433 0
 4169 0028 7B68     		ldr	r3, [r7, #4]
 4170 002a 1B68     		ldr	r3, [r3]
 4171 002c 1B68     		ldr	r3, [r3]
 4172 002e FA68     		ldr	r2, [r7, #12]
 4173 0030 E732     		add	r2, r2, #231
 4174 0032 7968     		ldr	r1, [r7, #4]
 4175 0034 081C     		mov	r0, r1
 4176 0036 111C     		mov	r1, r2
 4177 0038 9847     		blx	r3
 4178 003a 031C     		mov	r3, r0
 4179 003c 7B61     		str	r3, [r7, #20]
 434:./ros_lib/ros/node_handle.h **** 
ARM GAS  C:\Users\Chuck\AppData\Local\Temp\cc5X170Y.s 			page 98


 435:./ros_lib/ros/node_handle.h ****         /* setup the header */
 436:./ros_lib/ros/node_handle.h ****         message_out[0] = 0xff;
 4180              		.loc 11 436 0
 4181 003e FB68     		ldr	r3, [r7, #12]
 4182 0040 E022     		mov	r2, #224
 4183 0042 FF21     		mov	r1, #255
 4184 0044 9954     		strb	r1, [r3, r2]
 437:./ros_lib/ros/node_handle.h ****         message_out[1] = PROTOCOL_VER;
 4185              		.loc 11 437 0
 4186 0046 FB68     		ldr	r3, [r7, #12]
 4187 0048 E122     		mov	r2, #225
 4188 004a FE21     		mov	r1, #254
 4189 004c 9954     		strb	r1, [r3, r2]
 438:./ros_lib/ros/node_handle.h ****         message_out[2] = (unsigned char) ((unsigned int)l&255);
 4190              		.loc 11 438 0
 4191 004e 7B69     		ldr	r3, [r7, #20]
 4192 0050 D9B2     		uxtb	r1, r3
 4193 0052 FB68     		ldr	r3, [r7, #12]
 4194 0054 E222     		mov	r2, #226
 4195 0056 9954     		strb	r1, [r3, r2]
 439:./ros_lib/ros/node_handle.h ****         message_out[3] = (unsigned char) ((unsigned int)l>>8);
 4196              		.loc 11 439 0
 4197 0058 7B69     		ldr	r3, [r7, #20]
 4198 005a 1B0A     		lsr	r3, r3, #8
 4199 005c D9B2     		uxtb	r1, r3
 4200 005e FB68     		ldr	r3, [r7, #12]
 4201 0060 E322     		mov	r2, #227
 4202 0062 9954     		strb	r1, [r3, r2]
 440:./ros_lib/ros/node_handle.h **** 	message_out[4] = 255 - ((message_out[2] + message_out[3])%256);
 4203              		.loc 11 440 0
 4204 0064 FB68     		ldr	r3, [r7, #12]
 4205 0066 E222     		mov	r2, #226
 4206 0068 9A5C     		ldrb	r2, [r3, r2]
 4207 006a FB68     		ldr	r3, [r7, #12]
 4208 006c E321     		mov	r1, #227
 4209 006e 5B5C     		ldrb	r3, [r3, r1]
 4210 0070 D318     		add	r3, r2, r3
 4211 0072 DBB2     		uxtb	r3, r3
 4212 0074 DB43     		mvn	r3, r3
 4213 0076 D9B2     		uxtb	r1, r3
 4214 0078 FB68     		ldr	r3, [r7, #12]
 4215 007a E422     		mov	r2, #228
 4216 007c 9954     		strb	r1, [r3, r2]
 441:./ros_lib/ros/node_handle.h ****         message_out[5] = (unsigned char) ((int)id&255);
 4217              		.loc 11 441 0
 4218 007e BB68     		ldr	r3, [r7, #8]
 4219 0080 D9B2     		uxtb	r1, r3
 4220 0082 FB68     		ldr	r3, [r7, #12]
 4221 0084 E522     		mov	r2, #229
 4222 0086 9954     		strb	r1, [r3, r2]
 442:./ros_lib/ros/node_handle.h ****         message_out[6] = (unsigned char) ((int)id>>8);
 4223              		.loc 11 442 0
 4224 0088 BB68     		ldr	r3, [r7, #8]
 4225 008a 1B12     		asr	r3, r3, #8
 4226 008c D9B2     		uxtb	r1, r3
 4227 008e FB68     		ldr	r3, [r7, #12]
 4228 0090 E622     		mov	r2, #230
ARM GAS  C:\Users\Chuck\AppData\Local\Temp\cc5X170Y.s 			page 99


 4229 0092 9954     		strb	r1, [r3, r2]
 443:./ros_lib/ros/node_handle.h **** 
 444:./ros_lib/ros/node_handle.h ****         /* calculate checksum */
 445:./ros_lib/ros/node_handle.h ****         int chk = 0;
 4230              		.loc 11 445 0
 4231 0094 0023     		mov	r3, #0
 4232 0096 FB61     		str	r3, [r7, #28]
 4233              	.LBB50:
 446:./ros_lib/ros/node_handle.h ****         for(int i =5; i<l+7; i++)
 4234              		.loc 11 446 0
 4235 0098 0523     		mov	r3, #5
 4236 009a BB61     		str	r3, [r7, #24]
 4237 009c 0CE0     		b	.L190
 4238              	.L191:
 447:./ros_lib/ros/node_handle.h ****           chk += message_out[i];
 4239              		.loc 11 447 0 discriminator 3
 4240 009e FA68     		ldr	r2, [r7, #12]
 4241 00a0 E021     		mov	r1, #224
 4242 00a2 BB69     		ldr	r3, [r7, #24]
 4243 00a4 D318     		add	r3, r2, r3
 4244 00a6 5B18     		add	r3, r3, r1
 4245 00a8 1B78     		ldrb	r3, [r3]
 4246 00aa 1A1C     		mov	r2, r3
 4247 00ac FB69     		ldr	r3, [r7, #28]
 4248 00ae 9B18     		add	r3, r3, r2
 4249 00b0 FB61     		str	r3, [r7, #28]
 446:./ros_lib/ros/node_handle.h ****         for(int i =5; i<l+7; i++)
 4250              		.loc 11 446 0 discriminator 3
 4251 00b2 BB69     		ldr	r3, [r7, #24]
 4252 00b4 0133     		add	r3, r3, #1
 4253 00b6 BB61     		str	r3, [r7, #24]
 4254              	.L190:
 446:./ros_lib/ros/node_handle.h ****         for(int i =5; i<l+7; i++)
 4255              		.loc 11 446 0 is_stmt 0 discriminator 1
 4256 00b8 BA69     		ldr	r2, [r7, #24]
 4257 00ba 7B69     		ldr	r3, [r7, #20]
 4258 00bc 0733     		add	r3, r3, #7
 4259 00be 9A42     		cmp	r2, r3
 4260 00c0 EDD3     		bcc	.L191
 4261              	.LBE50:
 448:./ros_lib/ros/node_handle.h ****         l += 7;
 4262              		.loc 11 448 0 is_stmt 1
 4263 00c2 7B69     		ldr	r3, [r7, #20]
 4264 00c4 0733     		add	r3, r3, #7
 4265 00c6 7B61     		str	r3, [r7, #20]
 449:./ros_lib/ros/node_handle.h ****         message_out[l++] = 255 - (chk%256);
 4266              		.loc 11 449 0
 4267 00c8 7A69     		ldr	r2, [r7, #20]
 4268 00ca 531C     		add	r3, r2, #1
 4269 00cc 7B61     		str	r3, [r7, #20]
 4270 00ce FB69     		ldr	r3, [r7, #28]
 4271 00d0 1549     		ldr	r1, .L194
 4272 00d2 0B40     		and	r3, r1
 4273 00d4 03D5     		bpl	.L192
 4274 00d6 013B     		sub	r3, r3, #1
 4275 00d8 1449     		ldr	r1, .L194+4
 4276 00da 0B43     		orr	r3, r1
ARM GAS  C:\Users\Chuck\AppData\Local\Temp\cc5X170Y.s 			page 100


 4277 00dc 0133     		add	r3, r3, #1
 4278              	.L192:
 4279 00de DBB2     		uxtb	r3, r3
 4280 00e0 DB43     		mvn	r3, r3
 4281 00e2 D8B2     		uxtb	r0, r3
 4282 00e4 FB68     		ldr	r3, [r7, #12]
 4283 00e6 E021     		mov	r1, #224
 4284 00e8 9B18     		add	r3, r3, r2
 4285 00ea 5B18     		add	r3, r3, r1
 4286 00ec 021C     		add	r2, r0, #0
 4287 00ee 1A70     		strb	r2, [r3]
 450:./ros_lib/ros/node_handle.h **** 
 451:./ros_lib/ros/node_handle.h ****         if( l <= OUTPUT_SIZE ){
 4288              		.loc 11 451 0
 4289 00f0 7B69     		ldr	r3, [r7, #20]
 4290 00f2 C82B     		cmp	r3, #200
 4291 00f4 0CD8     		bhi	.L193
 452:./ros_lib/ros/node_handle.h ****           hardware_.write(message_out, l);
 4292              		.loc 11 452 0
 4293 00f6 FB68     		ldr	r3, [r7, #12]
 4294 00f8 191D     		add	r1, r3, #4
 4295 00fa FB68     		ldr	r3, [r7, #12]
 4296 00fc E033     		add	r3, r3, #224
 4297 00fe 1A1C     		mov	r2, r3
 4298 0100 7B69     		ldr	r3, [r7, #20]
 4299 0102 081C     		mov	r0, r1
 4300 0104 111C     		mov	r1, r2
 4301 0106 1A1C     		mov	r2, r3
 4302 0108 FFF7FEFF 		bl	_ZN13Psoc4Hardware5writeEPhi
 453:./ros_lib/ros/node_handle.h ****           return l;
 4303              		.loc 11 453 0
 4304 010c 7B69     		ldr	r3, [r7, #20]
 4305 010e 07E0     		b	.L189
 4306              	.L193:
 454:./ros_lib/ros/node_handle.h ****         }else{
 455:./ros_lib/ros/node_handle.h ****           logerror("Message from device dropped: message larger than buffer.");
 4307              		.loc 11 455 0
 4308 0110 FA68     		ldr	r2, [r7, #12]
 4309 0112 074B     		ldr	r3, .L194+8
 4310 0114 101C     		mov	r0, r2
 4311 0116 191C     		mov	r1, r3
 4312 0118 FFF7FEFF 		bl	_ZN3ros11NodeHandle_I13Psoc4HardwareLi10ELi20ELi200ELi200EE8logerrorEPKc
 456:./ros_lib/ros/node_handle.h ****           return -1;
 4313              		.loc 11 456 0
 4314 011c 0123     		mov	r3, #1
 4315 011e 5B42     		neg	r3, r3
 4316              	.L189:
 4317              	.LBE49:
 457:./ros_lib/ros/node_handle.h ****         }
 458:./ros_lib/ros/node_handle.h ****       }
 4318              		.loc 11 458 0
 4319 0120 181C     		mov	r0, r3
 4320 0122 BD46     		mov	sp, r7
 4321 0124 08B0     		add	sp, sp, #32
 4322              		@ sp needed
 4323 0126 80BD     		pop	{r7, pc}
 4324              	.L195:
ARM GAS  C:\Users\Chuck\AppData\Local\Temp\cc5X170Y.s 			page 101


 4325              		.align	2
 4326              	.L194:
 4327 0128 FF000080 		.word	-2147483393
 4328 012c 00FFFFFF 		.word	-256
 4329 0130 D4000000 		.word	.LC28
 4330              		.cfi_endproc
 4331              	.LFE170:
 4332              		.size	_ZN3ros11NodeHandle_I13Psoc4HardwareLi10ELi20ELi200ELi200EE7publishEiPKNS_3MsgE, .-_ZN3ros11
 4333              		.section	.text._ZN3ros11NodeHandle_I13Psoc4HardwareLi10ELi20ELi200ELi200EE6setNowERNS_4TimeE,"axG"
 4334              		.align	2
 4335              		.weak	_ZN3ros11NodeHandle_I13Psoc4HardwareLi10ELi20ELi200ELi200EE6setNowERNS_4TimeE
 4336              		.code	16
 4337              		.thumb_func
 4338              		.type	_ZN3ros11NodeHandle_I13Psoc4HardwareLi10ELi20ELi200ELi200EE6setNowERNS_4TimeE, %function
 4339              	_ZN3ros11NodeHandle_I13Psoc4HardwareLi10ELi20ELi200ELi200EE6setNowERNS_4TimeE:
 4340              	.LFB171:
 329:./ros_lib/ros/node_handle.h ****       {
 4341              		.loc 11 329 0
 4342              		.cfi_startproc
 4343 0000 90B5     		push	{r4, r7, lr}
 4344              		.cfi_def_cfa_offset 12
 4345              		.cfi_offset 4, -12
 4346              		.cfi_offset 7, -8
 4347              		.cfi_offset 14, -4
 4348 0002 85B0     		sub	sp, sp, #20
 4349              		.cfi_def_cfa_offset 32
 4350 0004 00AF     		add	r7, sp, #0
 4351              		.cfi_def_cfa_register 7
 4352 0006 7860     		str	r0, [r7, #4]
 4353 0008 3960     		str	r1, [r7]
 4354              	.LBB51:
 331:./ros_lib/ros/node_handle.h ****         sec_offset = new_now.sec - ms/1000 - 1;
 4355              		.loc 11 331 0
 4356 000a 7B68     		ldr	r3, [r7, #4]
 4357 000c 0433     		add	r3, r3, #4
 4358 000e 181C     		mov	r0, r3
 4359 0010 FFF7FEFF 		bl	_ZN13Psoc4Hardware4timeEv
 4360 0014 031C     		mov	r3, r0
 4361 0016 FB60     		str	r3, [r7, #12]
 332:./ros_lib/ros/node_handle.h ****         nsec_offset = new_now.nsec - (ms%1000)*1000000UL + 1000000000UL;
 4362              		.loc 11 332 0
 4363 0018 3B68     		ldr	r3, [r7]
 4364 001a 1C68     		ldr	r4, [r3]
 4365 001c FB68     		ldr	r3, [r7, #12]
 4366 001e 181C     		mov	r0, r3
 4367 0020 FA23     		mov	r3, #250
 4368 0022 9900     		lsl	r1, r3, #2
 4369 0024 FFF7FEFF 		bl	__aeabi_uidiv
 4370 0028 031C     		mov	r3, r0
 4371 002a E31A     		sub	r3, r4, r3
 4372 002c 5A1E     		sub	r2, r3, #1
 4373 002e 7B68     		ldr	r3, [r7, #4]
 4374 0030 1A61     		str	r2, [r3, #16]
 333:./ros_lib/ros/node_handle.h ****         normalizeSecNSec(sec_offset, nsec_offset);
 4375              		.loc 11 333 0
 4376 0032 3B68     		ldr	r3, [r7]
 4377 0034 5C68     		ldr	r4, [r3, #4]
ARM GAS  C:\Users\Chuck\AppData\Local\Temp\cc5X170Y.s 			page 102


 4378 0036 FB68     		ldr	r3, [r7, #12]
 4379 0038 181C     		mov	r0, r3
 4380 003a FA23     		mov	r3, #250
 4381 003c 9900     		lsl	r1, r3, #2
 4382 003e FFF7FEFF 		bl	__aeabi_uidivmod
 4383 0042 0B1C     		mov	r3, r1
 4384 0044 1A1C     		mov	r2, r3
 4385 0046 094B     		ldr	r3, .L197
 4386 0048 5343     		mul	r3, r2
 4387 004a E31A     		sub	r3, r4, r3
 4388 004c 084A     		ldr	r2, .L197+4
 4389 004e 9A18     		add	r2, r3, r2
 4390 0050 7B68     		ldr	r3, [r7, #4]
 4391 0052 5A61     		str	r2, [r3, #20]
 334:./ros_lib/ros/node_handle.h ****       }
 4392              		.loc 11 334 0
 4393 0054 7B68     		ldr	r3, [r7, #4]
 4394 0056 1033     		add	r3, r3, #16
 4395 0058 1A1C     		mov	r2, r3
 4396 005a 7B68     		ldr	r3, [r7, #4]
 4397 005c 1433     		add	r3, r3, #20
 4398 005e 101C     		mov	r0, r2
 4399 0060 191C     		mov	r1, r3
 4400 0062 FFF7FEFF 		bl	_ZN3ros16normalizeSecNSecERmS0_
 4401              	.LBE51:
 335:./ros_lib/ros/node_handle.h **** 
 4402              		.loc 11 335 0
 4403 0066 BD46     		mov	sp, r7
 4404 0068 05B0     		add	sp, sp, #20
 4405              		@ sp needed
 4406 006a 90BD     		pop	{r4, r7, pc}
 4407              	.L198:
 4408              		.align	2
 4409              	.L197:
 4410 006c 40420F00 		.word	1000000
 4411 0070 00CA9A3B 		.word	1000000000
 4412              		.cfi_endproc
 4413              	.LFE171:
 4414              		.size	_ZN3ros11NodeHandle_I13Psoc4HardwareLi10ELi20ELi200ELi200EE6setNowERNS_4TimeE, .-_ZN3ros11No
 4415              		.section	.text._ZN3ros11NodeHandle_I13Psoc4HardwareLi10ELi20ELi200ELi200EE8logerrorEPKc,"axG",%pro
 4416              		.align	2
 4417              		.weak	_ZN3ros11NodeHandle_I13Psoc4HardwareLi10ELi20ELi200ELi200EE8logerrorEPKc
 4418              		.code	16
 4419              		.thumb_func
 4420              		.type	_ZN3ros11NodeHandle_I13Psoc4HardwareLi10ELi20ELi200ELi200EE8logerrorEPKc, %function
 4421              	_ZN3ros11NodeHandle_I13Psoc4HardwareLi10ELi20ELi200ELi200EE8logerrorEPKc:
 4422              	.LFB172:
 459:./ros_lib/ros/node_handle.h **** 
 460:./ros_lib/ros/node_handle.h ****       /********************************************************************
 461:./ros_lib/ros/node_handle.h ****        * Logging
 462:./ros_lib/ros/node_handle.h ****        */
 463:./ros_lib/ros/node_handle.h **** 
 464:./ros_lib/ros/node_handle.h ****     private:
 465:./ros_lib/ros/node_handle.h ****       void log(char byte, const char * msg){
 466:./ros_lib/ros/node_handle.h ****         rosserial_msgs::Log l;
 467:./ros_lib/ros/node_handle.h ****         l.level= byte;
 468:./ros_lib/ros/node_handle.h ****         l.msg = (char*)msg;
ARM GAS  C:\Users\Chuck\AppData\Local\Temp\cc5X170Y.s 			page 103


 469:./ros_lib/ros/node_handle.h ****         publish(rosserial_msgs::TopicInfo::ID_LOG, &l);
 470:./ros_lib/ros/node_handle.h ****       }
 471:./ros_lib/ros/node_handle.h **** 
 472:./ros_lib/ros/node_handle.h ****     public:
 473:./ros_lib/ros/node_handle.h ****       void logdebug(const char* msg){
 474:./ros_lib/ros/node_handle.h ****         log(rosserial_msgs::Log::ROSDEBUG, msg);
 475:./ros_lib/ros/node_handle.h ****       }
 476:./ros_lib/ros/node_handle.h ****       void loginfo(const char * msg){
 477:./ros_lib/ros/node_handle.h ****         log(rosserial_msgs::Log::INFO, msg);
 478:./ros_lib/ros/node_handle.h ****       }
 479:./ros_lib/ros/node_handle.h ****       void logwarn(const char *msg){
 480:./ros_lib/ros/node_handle.h ****         log(rosserial_msgs::Log::WARN, msg);
 481:./ros_lib/ros/node_handle.h ****       }
 482:./ros_lib/ros/node_handle.h ****       void logerror(const char*msg){
 4423              		.loc 11 482 0
 4424              		.cfi_startproc
 4425 0000 80B5     		push	{r7, lr}
 4426              		.cfi_def_cfa_offset 8
 4427              		.cfi_offset 7, -8
 4428              		.cfi_offset 14, -4
 4429 0002 82B0     		sub	sp, sp, #8
 4430              		.cfi_def_cfa_offset 16
 4431 0004 00AF     		add	r7, sp, #0
 4432              		.cfi_def_cfa_register 7
 4433 0006 7860     		str	r0, [r7, #4]
 4434 0008 3960     		str	r1, [r7]
 483:./ros_lib/ros/node_handle.h ****         log(rosserial_msgs::Log::ERROR, msg);
 4435              		.loc 11 483 0
 4436 000a 7A68     		ldr	r2, [r7, #4]
 4437 000c 3B68     		ldr	r3, [r7]
 4438 000e 101C     		mov	r0, r2
 4439 0010 0321     		mov	r1, #3
 4440 0012 1A1C     		mov	r2, r3
 4441 0014 FFF7FEFF 		bl	_ZN3ros11NodeHandle_I13Psoc4HardwareLi10ELi20ELi200ELi200EE3logEcPKc
 484:./ros_lib/ros/node_handle.h ****       }
 4442              		.loc 11 484 0
 4443 0018 BD46     		mov	sp, r7
 4444 001a 02B0     		add	sp, sp, #8
 4445              		@ sp needed
 4446 001c 80BD     		pop	{r7, pc}
 4447              		.cfi_endproc
 4448              	.LFE172:
 4449              		.size	_ZN3ros11NodeHandle_I13Psoc4HardwareLi10ELi20ELi200ELi200EE8logerrorEPKc, .-_ZN3ros11NodeHan
 4450 001e C046     		.section	.text._ZN3ros11NodeHandle_I13Psoc4HardwareLi10ELi20ELi200ELi200EE3logEcPKc,"axG",%progbit
 4451              		.align	2
 4452              		.weak	_ZN3ros11NodeHandle_I13Psoc4HardwareLi10ELi20ELi200ELi200EE3logEcPKc
 4453              		.code	16
 4454              		.thumb_func
 4455              		.type	_ZN3ros11NodeHandle_I13Psoc4HardwareLi10ELi20ELi200ELi200EE3logEcPKc, %function
 4456              	_ZN3ros11NodeHandle_I13Psoc4HardwareLi10ELi20ELi200ELi200EE3logEcPKc:
 4457              	.LFB173:
 465:./ros_lib/ros/node_handle.h ****         rosserial_msgs::Log l;
 4458              		.loc 11 465 0
 4459              		.cfi_startproc
 4460 0000 80B5     		push	{r7, lr}
 4461              		.cfi_def_cfa_offset 8
 4462              		.cfi_offset 7, -8
ARM GAS  C:\Users\Chuck\AppData\Local\Temp\cc5X170Y.s 			page 104


 4463              		.cfi_offset 14, -4
 4464 0002 88B0     		sub	sp, sp, #32
 4465              		.cfi_def_cfa_offset 40
 4466 0004 00AF     		add	r7, sp, #0
 4467              		.cfi_def_cfa_register 7
 4468 0006 F860     		str	r0, [r7, #12]
 4469 0008 7A60     		str	r2, [r7, #4]
 4470 000a 0B23     		mov	r3, #11
 4471 000c FB18     		add	r3, r7, r3
 4472 000e 0A1C     		add	r2, r1, #0
 4473 0010 1A70     		strb	r2, [r3]
 4474              	.LBB52:
 466:./ros_lib/ros/node_handle.h ****         l.level= byte;
 4475              		.loc 11 466 0
 4476 0012 1423     		mov	r3, #20
 4477 0014 FB18     		add	r3, r7, r3
 4478 0016 181C     		mov	r0, r3
 4479 0018 FFF7FEFF 		bl	_ZN14rosserial_msgs3LogC1Ev
 467:./ros_lib/ros/node_handle.h ****         l.msg = (char*)msg;
 4480              		.loc 11 467 0
 4481 001c 1423     		mov	r3, #20
 4482 001e FB18     		add	r3, r7, r3
 4483 0020 0B22     		mov	r2, #11
 4484 0022 BA18     		add	r2, r7, r2
 4485 0024 1278     		ldrb	r2, [r2]
 4486 0026 1A71     		strb	r2, [r3, #4]
 468:./ros_lib/ros/node_handle.h ****         publish(rosserial_msgs::TopicInfo::ID_LOG, &l);
 4487              		.loc 11 468 0
 4488 0028 1423     		mov	r3, #20
 4489 002a FB18     		add	r3, r7, r3
 4490 002c 7A68     		ldr	r2, [r7, #4]
 4491 002e 9A60     		str	r2, [r3, #8]
 469:./ros_lib/ros/node_handle.h ****       }
 4492              		.loc 11 469 0
 4493 0030 FB68     		ldr	r3, [r7, #12]
 4494 0032 1B68     		ldr	r3, [r3]
 4495 0034 1B68     		ldr	r3, [r3]
 4496 0036 F968     		ldr	r1, [r7, #12]
 4497 0038 1422     		mov	r2, #20
 4498 003a BA18     		add	r2, r7, r2
 4499 003c 081C     		mov	r0, r1
 4500 003e 0721     		mov	r1, #7
 4501 0040 9847     		blx	r3
 4502              	.LBE52:
 470:./ros_lib/ros/node_handle.h **** 
 4503              		.loc 11 470 0
 4504 0042 BD46     		mov	sp, r7
 4505 0044 08B0     		add	sp, sp, #32
 4506              		@ sp needed
 4507 0046 80BD     		pop	{r7, pc}
 4508              		.cfi_endproc
 4509              	.LFE173:
 4510              		.size	_ZN3ros11NodeHandle_I13Psoc4HardwareLi10ELi20ELi200ELi200EE3logEcPKc, .-_ZN3ros11NodeHandle_
 4511              		.weak	_ZTVN3ros11NodeHandle_I13Psoc4HardwareLi10ELi20ELi200ELi200EEE
 4512              		.section	.rodata._ZTVN3ros11NodeHandle_I13Psoc4HardwareLi10ELi20ELi200ELi200EEE,"aG",%progbits,_ZT
 4513              		.align	3
 4514              		.type	_ZTVN3ros11NodeHandle_I13Psoc4HardwareLi10ELi20ELi200ELi200EEE, %object
ARM GAS  C:\Users\Chuck\AppData\Local\Temp\cc5X170Y.s 			page 105


 4515              		.size	_ZTVN3ros11NodeHandle_I13Psoc4HardwareLi10ELi20ELi200ELi200EEE, 20
 4516              	_ZTVN3ros11NodeHandle_I13Psoc4HardwareLi10ELi20ELi200ELi200EEE:
 4517 0000 00000000 		.word	0
 4518 0004 00000000 		.word	0
 4519 0008 00000000 		.word	_ZN3ros11NodeHandle_I13Psoc4HardwareLi10ELi20ELi200ELi200EE7publishEiPKNS_3MsgE
 4520 000c 00000000 		.word	_ZN3ros11NodeHandle_I13Psoc4HardwareLi10ELi20ELi200ELi200EE8spinOnceEv
 4521 0010 00000000 		.word	_ZN3ros11NodeHandle_I13Psoc4HardwareLi10ELi20ELi200ELi200EE9connectedEv
 4522              		.weak	_ZTVN3ros15NodeHandleBase_E
 4523 0014 00000000 		.section	.rodata._ZTVN3ros15NodeHandleBase_E,"aG",%progbits,_ZTVN3ros15NodeHandleBase_E,comdat
 4524              		.align	3
 4525              		.type	_ZTVN3ros15NodeHandleBase_E, %object
 4526              		.size	_ZTVN3ros15NodeHandleBase_E, 20
 4527              	_ZTVN3ros15NodeHandleBase_E:
 4528 0000 00000000 		.word	0
 4529 0004 00000000 		.word	0
 4530 0008 00000000 		.word	__cxa_pure_virtual
 4531 000c 00000000 		.word	__cxa_pure_virtual
 4532 0010 00000000 		.word	__cxa_pure_virtual
 4533              		.weak	_ZTVN14rosserial_msgs20RequestParamResponseE
 4534 0014 00000000 		.section	.rodata._ZTVN14rosserial_msgs20RequestParamResponseE,"aG",%progbits,_ZTVN14rosserial_msgs
 4535              		.align	3
 4536              		.type	_ZTVN14rosserial_msgs20RequestParamResponseE, %object
 4537              		.size	_ZTVN14rosserial_msgs20RequestParamResponseE, 24
 4538              	_ZTVN14rosserial_msgs20RequestParamResponseE:
 4539 0000 00000000 		.word	0
 4540 0004 00000000 		.word	0
 4541 0008 00000000 		.word	_ZNK14rosserial_msgs20RequestParamResponse9serializeEPh
 4542 000c 00000000 		.word	_ZN14rosserial_msgs20RequestParamResponse11deserializeEPh
 4543 0010 00000000 		.word	_ZN14rosserial_msgs20RequestParamResponse7getTypeEv
 4544 0014 00000000 		.word	_ZN14rosserial_msgs20RequestParamResponse6getMD5Ev
 4545              		.weak	_ZTVN14rosserial_msgs3LogE
 4546              		.section	.rodata._ZTVN14rosserial_msgs3LogE,"aG",%progbits,_ZTVN14rosserial_msgs3LogE,comdat
 4547              		.align	3
 4548              		.type	_ZTVN14rosserial_msgs3LogE, %object
 4549              		.size	_ZTVN14rosserial_msgs3LogE, 24
 4550              	_ZTVN14rosserial_msgs3LogE:
 4551 0000 00000000 		.word	0
 4552 0004 00000000 		.word	0
 4553 0008 00000000 		.word	_ZNK14rosserial_msgs3Log9serializeEPh
 4554 000c 00000000 		.word	_ZN14rosserial_msgs3Log11deserializeEPh
 4555 0010 00000000 		.word	_ZN14rosserial_msgs3Log7getTypeEv
 4556 0014 00000000 		.word	_ZN14rosserial_msgs3Log6getMD5Ev
 4557              		.weak	_ZTVN14rosserial_msgs9TopicInfoE
 4558              		.section	.rodata._ZTVN14rosserial_msgs9TopicInfoE,"aG",%progbits,_ZTVN14rosserial_msgs9TopicInfoE,
 4559              		.align	3
 4560              		.type	_ZTVN14rosserial_msgs9TopicInfoE, %object
 4561              		.size	_ZTVN14rosserial_msgs9TopicInfoE, 24
 4562              	_ZTVN14rosserial_msgs9TopicInfoE:
 4563 0000 00000000 		.word	0
 4564 0004 00000000 		.word	0
 4565 0008 00000000 		.word	_ZNK14rosserial_msgs9TopicInfo9serializeEPh
 4566 000c 00000000 		.word	_ZN14rosserial_msgs9TopicInfo11deserializeEPh
 4567 0010 00000000 		.word	_ZN14rosserial_msgs9TopicInfo7getTypeEv
 4568 0014 00000000 		.word	_ZN14rosserial_msgs9TopicInfo6getMD5Ev
 4569              		.weak	_ZTVN8std_msgs4TimeE
 4570              		.section	.rodata._ZTVN8std_msgs4TimeE,"aG",%progbits,_ZTVN8std_msgs4TimeE,comdat
 4571              		.align	3
ARM GAS  C:\Users\Chuck\AppData\Local\Temp\cc5X170Y.s 			page 106


 4572              		.type	_ZTVN8std_msgs4TimeE, %object
 4573              		.size	_ZTVN8std_msgs4TimeE, 24
 4574              	_ZTVN8std_msgs4TimeE:
 4575 0000 00000000 		.word	0
 4576 0004 00000000 		.word	0
 4577 0008 00000000 		.word	_ZNK8std_msgs4Time9serializeEPh
 4578 000c 00000000 		.word	_ZN8std_msgs4Time11deserializeEPh
 4579 0010 00000000 		.word	_ZN8std_msgs4Time7getTypeEv
 4580 0014 00000000 		.word	_ZN8std_msgs4Time6getMD5Ev
 4581              		.weak	_ZTVN3ros3MsgE
 4582              		.section	.rodata._ZTVN3ros3MsgE,"aG",%progbits,_ZTVN3ros3MsgE,comdat
 4583              		.align	3
 4584              		.type	_ZTVN3ros3MsgE, %object
 4585              		.size	_ZTVN3ros3MsgE, 24
 4586              	_ZTVN3ros3MsgE:
 4587 0000 00000000 		.word	0
 4588 0004 00000000 		.word	0
 4589 0008 00000000 		.word	__cxa_pure_virtual
 4590 000c 00000000 		.word	__cxa_pure_virtual
 4591 0010 00000000 		.word	__cxa_pure_virtual
 4592 0014 00000000 		.word	__cxa_pure_virtual
 4593              		.section	.text._Z41__static_initialization_and_destruction_0ii,"ax",%progbits
 4594              		.align	2
 4595              		.code	16
 4596              		.thumb_func
 4597              		.type	_Z41__static_initialization_and_destruction_0ii, %function
 4598              	_Z41__static_initialization_and_destruction_0ii:
 4599              	.LFB174:
  48:.\main.cpp    ****     }
  49:.\main.cpp    **** }
 4600              		.loc 10 49 0
 4601              		.cfi_startproc
 4602 0000 80B5     		push	{r7, lr}
 4603              		.cfi_def_cfa_offset 8
 4604              		.cfi_offset 7, -8
 4605              		.cfi_offset 14, -4
 4606 0002 82B0     		sub	sp, sp, #8
 4607              		.cfi_def_cfa_offset 16
 4608 0004 00AF     		add	r7, sp, #0
 4609              		.cfi_def_cfa_register 7
 4610 0006 7860     		str	r0, [r7, #4]
 4611 0008 3960     		str	r1, [r7]
 4612              		.loc 10 49 0
 4613 000a 7B68     		ldr	r3, [r7, #4]
 4614 000c 012B     		cmp	r3, #1
 4615 000e 07D1     		bne	.L201
 4616              		.loc 10 49 0 is_stmt 0 discriminator 1
 4617 0010 3B68     		ldr	r3, [r7]
 4618 0012 054A     		ldr	r2, .L203
 4619 0014 9342     		cmp	r3, r2
 4620 0016 03D1     		bne	.L201
  16:.\main.cpp    **** 
 4621              		.loc 10 16 0 is_stmt 1
 4622 0018 044B     		ldr	r3, .L203+4
 4623 001a 181C     		mov	r0, r3
 4624 001c FFF7FEFF 		bl	_ZN3ros11NodeHandle_I13Psoc4HardwareLi10ELi20ELi200ELi200EEC1Ev
 4625              	.L201:
ARM GAS  C:\Users\Chuck\AppData\Local\Temp\cc5X170Y.s 			page 107


 4626              		.loc 10 49 0
 4627 0020 BD46     		mov	sp, r7
 4628 0022 02B0     		add	sp, sp, #8
 4629              		@ sp needed
 4630 0024 80BD     		pop	{r7, pc}
 4631              	.L204:
 4632 0026 C046     		.align	2
 4633              	.L203:
 4634 0028 FFFF0000 		.word	65535
 4635 002c 00000000 		.word	nh
 4636              		.cfi_endproc
 4637              	.LFE174:
 4638              		.size	_Z41__static_initialization_and_destruction_0ii, .-_Z41__static_initialization_and_destructi
 4639              		.section	.rodata
 4640 010d 000000   		.align	2
 4641              		.type	_ZN14rosserial_msgsL12REQUESTPARAME, %object
 4642              		.size	_ZN14rosserial_msgsL12REQUESTPARAME, 28
 4643              	_ZN14rosserial_msgsL12REQUESTPARAME:
 4644 0110 726F7373 		.ascii	"rosserial_msgs/RequestParam\000"
 4644      65726961 
 4644      6C5F6D73 
 4644      67732F52 
 4644      65717565 
 4645              		.section	.text._ZN3ros11NodeHandle_I13Psoc4HardwareLi10ELi20ELi200ELi200EE9connectedEv,"axG",%prog
 4646              		.align	2
 4647              		.weak	_ZN3ros11NodeHandle_I13Psoc4HardwareLi10ELi20ELi200ELi200EE9connectedEv
 4648              		.code	16
 4649              		.thumb_func
 4650              		.type	_ZN3ros11NodeHandle_I13Psoc4HardwareLi10ELi20ELi200ELi200EE9connectedEv, %function
 4651              	_ZN3ros11NodeHandle_I13Psoc4HardwareLi10ELi20ELi200ELi200EE9connectedEv:
 4652              	.LFB175:
 292:./ros_lib/ros/node_handle.h ****         return configured_;
 4653              		.loc 11 292 0
 4654              		.cfi_startproc
 4655 0000 80B5     		push	{r7, lr}
 4656              		.cfi_def_cfa_offset 8
 4657              		.cfi_offset 7, -8
 4658              		.cfi_offset 14, -4
 4659 0002 82B0     		sub	sp, sp, #8
 4660              		.cfi_def_cfa_offset 16
 4661 0004 00AF     		add	r7, sp, #0
 4662              		.cfi_def_cfa_register 7
 4663 0006 7860     		str	r0, [r7, #4]
 293:./ros_lib/ros/node_handle.h ****       };
 4664              		.loc 11 293 0
 4665 0008 7A68     		ldr	r2, [r7, #4]
 4666 000a 8D23     		mov	r3, #141
 4667 000c 9B00     		lsl	r3, r3, #2
 4668 000e D35C     		ldrb	r3, [r2, r3]
 294:./ros_lib/ros/node_handle.h **** 
 4669              		.loc 11 294 0
 4670 0010 181C     		mov	r0, r3
 4671 0012 BD46     		mov	sp, r7
 4672 0014 02B0     		add	sp, sp, #8
 4673              		@ sp needed
 4674 0016 80BD     		pop	{r7, pc}
 4675              		.cfi_endproc
ARM GAS  C:\Users\Chuck\AppData\Local\Temp\cc5X170Y.s 			page 108


 4676              	.LFE175:
 4677              		.size	_ZN3ros11NodeHandle_I13Psoc4HardwareLi10ELi20ELi200ELi200EE9connectedEv, .-_ZN3ros11NodeHand
 4678              		.section	.text._GLOBAL__sub_I_nh,"ax",%progbits
 4679              		.align	2
 4680              		.code	16
 4681              		.thumb_func
 4682              		.type	_GLOBAL__sub_I_nh, %function
 4683              	_GLOBAL__sub_I_nh:
 4684              	.LFB176:
 4685              		.loc 10 49 0
 4686              		.cfi_startproc
 4687 0000 80B5     		push	{r7, lr}
 4688              		.cfi_def_cfa_offset 8
 4689              		.cfi_offset 7, -8
 4690              		.cfi_offset 14, -4
 4691 0002 00AF     		add	r7, sp, #0
 4692              		.cfi_def_cfa_register 7
 4693              		.loc 10 49 0
 4694 0004 034B     		ldr	r3, .L208
 4695 0006 0120     		mov	r0, #1
 4696 0008 191C     		mov	r1, r3
 4697 000a FFF7FEFF 		bl	_Z41__static_initialization_and_destruction_0ii
 4698 000e BD46     		mov	sp, r7
 4699              		@ sp needed
 4700 0010 80BD     		pop	{r7, pc}
 4701              	.L209:
 4702 0012 C046     		.align	2
 4703              	.L208:
 4704 0014 FFFF0000 		.word	65535
 4705              		.cfi_endproc
 4706              	.LFE176:
 4707              		.size	_GLOBAL__sub_I_nh, .-_GLOBAL__sub_I_nh
 4708              		.section	.init_array,"aw",%init_array
 4709              		.align	2
 4710 0000 00000000 		.word	_GLOBAL__sub_I_nh(target1)
 4711              		.text
 4712              	.Letext0:
 4713              		.file 12 "c:\\program files (x86)\\cypress\\psoc creator\\3.3\\psoc creator\\import\\gnu\\arm\\4.9
 4714              		.file 13 "c:\\program files (x86)\\cypress\\psoc creator\\3.3\\psoc creator\\import\\gnu\\arm\\4.9
 4715              		.file 14 "./ros_lib/ros/duration.h"
 4716              		.file 15 "./ros_lib/ros.h"
 4717              		.file 16 "./ros_lib/Uarts.h"
 4718              		.section	.debug_info,"",%progbits
 4719              	.Ldebug_info0:
 4720 0000 C7200000 		.4byte	0x20c7
 4721 0004 0400     		.2byte	0x4
 4722 0006 00000000 		.4byte	.Ldebug_abbrev0
 4723 000a 04       		.byte	0x4
 4724 000b 01       		.uleb128 0x1
 4725 000c 27000000 		.4byte	.LASF233
 4726 0010 04       		.byte	0x4
 4727 0011 92120000 		.4byte	.LASF234
 4728 0015 47110000 		.4byte	.LASF235
 4729 0019 18000000 		.4byte	.Ldebug_ranges0+0x18
 4730 001d 00000000 		.4byte	0
 4731 0021 00000000 		.4byte	.Ldebug_line0
 4732 0025 02       		.uleb128 0x2
ARM GAS  C:\Users\Chuck\AppData\Local\Temp\cc5X170Y.s 			page 109


 4733 0026 01       		.byte	0x1
 4734 0027 06       		.byte	0x6
 4735 0028 47150000 		.4byte	.LASF0
 4736 002c 03       		.uleb128 0x3
 4737 002d 40120000 		.4byte	.LASF3
 4738 0031 0C       		.byte	0xc
 4739 0032 1D       		.byte	0x1d
 4740 0033 37000000 		.4byte	0x37
 4741 0037 02       		.uleb128 0x2
 4742 0038 01       		.byte	0x1
 4743 0039 08       		.byte	0x8
 4744 003a 91130000 		.4byte	.LASF1
 4745 003e 02       		.uleb128 0x2
 4746 003f 02       		.byte	0x2
 4747 0040 05       		.byte	0x5
 4748 0041 A4100000 		.4byte	.LASF2
 4749 0045 03       		.uleb128 0x3
 4750 0046 43070000 		.4byte	.LASF4
 4751 004a 0C       		.byte	0xc
 4752 004b 2B       		.byte	0x2b
 4753 004c 50000000 		.4byte	0x50
 4754 0050 02       		.uleb128 0x2
 4755 0051 02       		.byte	0x2
 4756 0052 07       		.byte	0x7
 4757 0053 5F150000 		.4byte	.LASF5
 4758 0057 03       		.uleb128 0x3
 4759 0058 18030000 		.4byte	.LASF6
 4760 005c 0C       		.byte	0xc
 4761 005d 3F       		.byte	0x3f
 4762 005e 62000000 		.4byte	0x62
 4763 0062 02       		.uleb128 0x2
 4764 0063 04       		.byte	0x4
 4765 0064 05       		.byte	0x5
 4766 0065 EC100000 		.4byte	.LASF7
 4767 0069 03       		.uleb128 0x3
 4768 006a 9F130000 		.4byte	.LASF8
 4769 006e 0C       		.byte	0xc
 4770 006f 41       		.byte	0x41
 4771 0070 74000000 		.4byte	0x74
 4772 0074 02       		.uleb128 0x2
 4773 0075 04       		.byte	0x4
 4774 0076 07       		.byte	0x7
 4775 0077 A6120000 		.4byte	.LASF9
 4776 007b 02       		.uleb128 0x2
 4777 007c 08       		.byte	0x8
 4778 007d 05       		.byte	0x5
 4779 007e CA0C0000 		.4byte	.LASF10
 4780 0082 02       		.uleb128 0x2
 4781 0083 08       		.byte	0x8
 4782 0084 07       		.byte	0x7
 4783 0085 95060000 		.4byte	.LASF11
 4784 0089 04       		.uleb128 0x4
 4785 008a 04       		.byte	0x4
 4786 008b 05       		.byte	0x5
 4787 008c 696E7400 		.ascii	"int\000"
 4788 0090 02       		.uleb128 0x2
 4789 0091 04       		.byte	0x4
ARM GAS  C:\Users\Chuck\AppData\Local\Temp\cc5X170Y.s 			page 110


 4790 0092 07       		.byte	0x7
 4791 0093 58020000 		.4byte	.LASF12
 4792 0097 03       		.uleb128 0x3
 4793 0098 480B0000 		.4byte	.LASF13
 4794 009c 0D       		.byte	0xd
 4795 009d 15       		.byte	0x15
 4796 009e 2C000000 		.4byte	0x2c
 4797 00a2 03       		.uleb128 0x3
 4798 00a3 F30F0000 		.4byte	.LASF14
 4799 00a7 0D       		.byte	0xd
 4800 00a8 21       		.byte	0x21
 4801 00a9 45000000 		.4byte	0x45
 4802 00ad 03       		.uleb128 0x3
 4803 00ae F0120000 		.4byte	.LASF15
 4804 00b2 0D       		.byte	0xd
 4805 00b3 2C       		.byte	0x2c
 4806 00b4 57000000 		.4byte	0x57
 4807 00b8 03       		.uleb128 0x3
 4808 00b9 B1050000 		.4byte	.LASF16
 4809 00bd 0D       		.byte	0xd
 4810 00be 2D       		.byte	0x2d
 4811 00bf 69000000 		.4byte	0x69
 4812 00c3 02       		.uleb128 0x2
 4813 00c4 04       		.byte	0x4
 4814 00c5 07       		.byte	0x7
 4815 00c6 9D120000 		.4byte	.LASF17
 4816 00ca 05       		.uleb128 0x5
 4817 00cb 04       		.byte	0x4
 4818 00cc 06       		.uleb128 0x6
 4819 00cd 04       		.byte	0x4
 4820 00ce 37000000 		.4byte	0x37
 4821 00d2 06       		.uleb128 0x6
 4822 00d3 04       		.byte	0x4
 4823 00d4 D8000000 		.4byte	0xd8
 4824 00d8 02       		.uleb128 0x2
 4825 00d9 01       		.byte	0x1
 4826 00da 08       		.byte	0x8
 4827 00db 4A0A0000 		.4byte	.LASF18
 4828 00df 06       		.uleb128 0x6
 4829 00e0 04       		.byte	0x4
 4830 00e1 E5000000 		.4byte	0xe5
 4831 00e5 07       		.uleb128 0x7
 4832 00e6 D8000000 		.4byte	0xd8
 4833 00ea 02       		.uleb128 0x2
 4834 00eb 08       		.byte	0x8
 4835 00ec 04       		.byte	0x4
 4836 00ed 8D150000 		.4byte	.LASF19
 4837 00f1 02       		.uleb128 0x2
 4838 00f2 04       		.byte	0x4
 4839 00f3 04       		.byte	0x4
 4840 00f4 CC050000 		.4byte	.LASF20
 4841 00f8 02       		.uleb128 0x2
 4842 00f9 08       		.byte	0x8
 4843 00fa 04       		.byte	0x4
 4844 00fb D70F0000 		.4byte	.LASF21
 4845 00ff 08       		.uleb128 0x8
 4846 0100 726F7300 		.ascii	"ros\000"
ARM GAS  C:\Users\Chuck\AppData\Local\Temp\cc5X170Y.s 			page 111


 4847 0104 02       		.byte	0x2
 4848 0105 28       		.byte	0x28
 4849 0106 170B0000 		.4byte	0xb17
 4850 010a 09       		.uleb128 0x9
 4851 010b 7D0D0000 		.4byte	.LASF23
 4852 010f 08       		.byte	0x8
 4853 0110 0E       		.byte	0xe
 4854 0111 2C       		.byte	0x2c
 4855 0112 11020000 		.4byte	0x211
 4856 0116 0A       		.uleb128 0xa
 4857 0117 73656300 		.ascii	"sec\000"
 4858 011b 0E       		.byte	0xe
 4859 011c 2F       		.byte	0x2f
 4860 011d 62000000 		.4byte	0x62
 4861 0121 00       		.byte	0
 4862 0122 01       		.byte	0x1
 4863 0123 0B       		.uleb128 0xb
 4864 0124 00090000 		.4byte	.LASF22
 4865 0128 0E       		.byte	0xe
 4866 0129 2F       		.byte	0x2f
 4867 012a 62000000 		.4byte	0x62
 4868 012e 04       		.byte	0x4
 4869 012f 01       		.byte	0x1
 4870 0130 0C       		.uleb128 0xc
 4871 0131 7D0D0000 		.4byte	.LASF23
 4872 0135 0E       		.byte	0xe
 4873 0136 31       		.byte	0x31
 4874 0137 170B0000 		.4byte	0xb17
 4875 013b 01       		.byte	0x1
 4876 013c 44010000 		.4byte	0x144
 4877 0140 4A010000 		.4byte	0x14a
 4878 0144 0D       		.uleb128 0xd
 4879 0145 170B0000 		.4byte	0xb17
 4880 0149 00       		.byte	0
 4881 014a 0C       		.uleb128 0xc
 4882 014b 7D0D0000 		.4byte	.LASF23
 4883 014f 0E       		.byte	0xe
 4884 0150 32       		.byte	0x32
 4885 0151 170B0000 		.4byte	0xb17
 4886 0155 01       		.byte	0x1
 4887 0156 5E010000 		.4byte	0x15e
 4888 015a 6E010000 		.4byte	0x16e
 4889 015e 0D       		.uleb128 0xd
 4890 015f 170B0000 		.4byte	0xb17
 4891 0163 0E       		.uleb128 0xe
 4892 0164 62000000 		.4byte	0x62
 4893 0168 0E       		.uleb128 0xe
 4894 0169 62000000 		.4byte	0x62
 4895 016d 00       		.byte	0
 4896 016e 0F       		.uleb128 0xf
 4897 016f 22030000 		.4byte	.LASF25
 4898 0173 0E       		.byte	0xe
 4899 0174 37       		.byte	0x37
 4900 0175 660A0000 		.4byte	.LASF27
 4901 0179 EA000000 		.4byte	0xea
 4902 017d 01       		.byte	0x1
 4903 017e 86010000 		.4byte	0x186
ARM GAS  C:\Users\Chuck\AppData\Local\Temp\cc5X170Y.s 			page 112


 4904 0182 8C010000 		.4byte	0x18c
 4905 0186 0D       		.uleb128 0xd
 4906 0187 1D0B0000 		.4byte	0xb1d
 4907 018b 00       		.byte	0
 4908 018c 10       		.uleb128 0x10
 4909 018d FA050000 		.4byte	.LASF24
 4910 0191 0E       		.byte	0xe
 4911 0192 38       		.byte	0x38
 4912 0193 51060000 		.4byte	.LASF32
 4913 0197 01       		.byte	0x1
 4914 0198 A0010000 		.4byte	0x1a0
 4915 019c AB010000 		.4byte	0x1ab
 4916 01a0 0D       		.uleb128 0xd
 4917 01a1 170B0000 		.4byte	0xb17
 4918 01a5 0E       		.uleb128 0xe
 4919 01a6 EA000000 		.4byte	0xea
 4920 01aa 00       		.byte	0
 4921 01ab 0F       		.uleb128 0xf
 4922 01ac 020A0000 		.4byte	.LASF26
 4923 01b0 0E       		.byte	0xe
 4924 01b1 3B       		.byte	0x3b
 4925 01b2 98050000 		.4byte	.LASF28
 4926 01b6 230B0000 		.4byte	0xb23
 4927 01ba 01       		.byte	0x1
 4928 01bb C3010000 		.4byte	0x1c3
 4929 01bf CE010000 		.4byte	0x1ce
 4930 01c3 0D       		.uleb128 0xd
 4931 01c4 170B0000 		.4byte	0xb17
 4932 01c8 0E       		.uleb128 0xe
 4933 01c9 290B0000 		.4byte	0xb29
 4934 01cd 00       		.byte	0
 4935 01ce 0F       		.uleb128 0xf
 4936 01cf 450D0000 		.4byte	.LASF29
 4937 01d3 0E       		.byte	0xe
 4938 01d4 3C       		.byte	0x3c
 4939 01d5 650C0000 		.4byte	.LASF30
 4940 01d9 230B0000 		.4byte	0xb23
 4941 01dd 01       		.byte	0x1
 4942 01de E6010000 		.4byte	0x1e6
 4943 01e2 F1010000 		.4byte	0x1f1
 4944 01e6 0D       		.uleb128 0xd
 4945 01e7 170B0000 		.4byte	0xb17
 4946 01eb 0E       		.uleb128 0xe
 4947 01ec 290B0000 		.4byte	0xb29
 4948 01f0 00       		.byte	0
 4949 01f1 11       		.uleb128 0x11
 4950 01f2 3B080000 		.4byte	.LASF31
 4951 01f6 0E       		.byte	0xe
 4952 01f7 3E       		.byte	0x3e
 4953 01f8 1C090000 		.4byte	.LASF33
 4954 01fc 230B0000 		.4byte	0xb23
 4955 0200 01       		.byte	0x1
 4956 0201 05020000 		.4byte	0x205
 4957 0205 0D       		.uleb128 0xd
 4958 0206 170B0000 		.4byte	0xb17
 4959 020a 0E       		.uleb128 0xe
 4960 020b EA000000 		.4byte	0xea
ARM GAS  C:\Users\Chuck\AppData\Local\Temp\cc5X170Y.s 			page 113


 4961 020f 00       		.byte	0
 4962 0210 00       		.byte	0
 4963 0211 07       		.uleb128 0x7
 4964 0212 0A010000 		.4byte	0x10a
 4965 0216 09       		.uleb128 0x9
 4966 0217 83150000 		.4byte	.LASF34
 4967 021b 08       		.byte	0x8
 4968 021c 01       		.byte	0x1
 4969 021d 2E       		.byte	0x2e
 4970 021e 61030000 		.4byte	0x361
 4971 0222 0A       		.uleb128 0xa
 4972 0223 73656300 		.ascii	"sec\000"
 4973 0227 01       		.byte	0x1
 4974 0228 31       		.byte	0x31
 4975 0229 74000000 		.4byte	0x74
 4976 022d 00       		.byte	0
 4977 022e 01       		.byte	0x1
 4978 022f 0B       		.uleb128 0xb
 4979 0230 00090000 		.4byte	.LASF22
 4980 0234 01       		.byte	0x1
 4981 0235 31       		.byte	0x31
 4982 0236 74000000 		.4byte	0x74
 4983 023a 04       		.byte	0x4
 4984 023b 01       		.byte	0x1
 4985 023c 0C       		.uleb128 0xc
 4986 023d 83150000 		.4byte	.LASF34
 4987 0241 01       		.byte	0x1
 4988 0242 33       		.byte	0x33
 4989 0243 2F0B0000 		.4byte	0xb2f
 4990 0247 01       		.byte	0x1
 4991 0248 50020000 		.4byte	0x250
 4992 024c 56020000 		.4byte	0x256
 4993 0250 0D       		.uleb128 0xd
 4994 0251 2F0B0000 		.4byte	0xb2f
 4995 0255 00       		.byte	0
 4996 0256 0C       		.uleb128 0xc
 4997 0257 83150000 		.4byte	.LASF34
 4998 025b 01       		.byte	0x1
 4999 025c 34       		.byte	0x34
 5000 025d 2F0B0000 		.4byte	0xb2f
 5001 0261 01       		.byte	0x1
 5002 0262 6A020000 		.4byte	0x26a
 5003 0266 7A020000 		.4byte	0x27a
 5004 026a 0D       		.uleb128 0xd
 5005 026b 2F0B0000 		.4byte	0xb2f
 5006 026f 0E       		.uleb128 0xe
 5007 0270 74000000 		.4byte	0x74
 5008 0274 0E       		.uleb128 0xe
 5009 0275 74000000 		.4byte	0x74
 5010 0279 00       		.byte	0
 5011 027a 0F       		.uleb128 0xf
 5012 027b 22030000 		.4byte	.LASF25
 5013 027f 01       		.byte	0x1
 5014 0280 39       		.byte	0x39
 5015 0281 37040000 		.4byte	.LASF35
 5016 0285 EA000000 		.4byte	0xea
 5017 0289 01       		.byte	0x1
ARM GAS  C:\Users\Chuck\AppData\Local\Temp\cc5X170Y.s 			page 114


 5018 028a 92020000 		.4byte	0x292
 5019 028e 98020000 		.4byte	0x298
 5020 0292 0D       		.uleb128 0xd
 5021 0293 350B0000 		.4byte	0xb35
 5022 0297 00       		.byte	0
 5023 0298 10       		.uleb128 0x10
 5024 0299 FA050000 		.4byte	.LASF24
 5025 029d 01       		.byte	0x1
 5026 029e 3A       		.byte	0x3a
 5027 029f 05090000 		.4byte	.LASF36
 5028 02a3 01       		.byte	0x1
 5029 02a4 AC020000 		.4byte	0x2ac
 5030 02a8 B7020000 		.4byte	0x2b7
 5031 02ac 0D       		.uleb128 0xd
 5032 02ad 2F0B0000 		.4byte	0xb2f
 5033 02b1 0E       		.uleb128 0xe
 5034 02b2 EA000000 		.4byte	0xea
 5035 02b6 00       		.byte	0
 5036 02b7 0F       		.uleb128 0xf
 5037 02b8 800A0000 		.4byte	.LASF37
 5038 02bc 01       		.byte	0x1
 5039 02bd 3C       		.byte	0x3c
 5040 02be 160F0000 		.4byte	.LASF38
 5041 02c2 74000000 		.4byte	0x74
 5042 02c6 01       		.byte	0x1
 5043 02c7 CF020000 		.4byte	0x2cf
 5044 02cb D5020000 		.4byte	0x2d5
 5045 02cf 0D       		.uleb128 0xd
 5046 02d0 2F0B0000 		.4byte	0xb2f
 5047 02d4 00       		.byte	0
 5048 02d5 0F       		.uleb128 0xf
 5049 02d6 AC140000 		.4byte	.LASF39
 5050 02da 01       		.byte	0x1
 5051 02db 3D       		.byte	0x3d
 5052 02dc 99070000 		.4byte	.LASF40
 5053 02e0 3B0B0000 		.4byte	0xb3b
 5054 02e4 01       		.byte	0x1
 5055 02e5 ED020000 		.4byte	0x2ed
 5056 02e9 F8020000 		.4byte	0x2f8
 5057 02ed 0D       		.uleb128 0xd
 5058 02ee 2F0B0000 		.4byte	0xb2f
 5059 02f2 0E       		.uleb128 0xe
 5060 02f3 62000000 		.4byte	0x62
 5061 02f7 00       		.byte	0
 5062 02f8 0F       		.uleb128 0xf
 5063 02f9 020A0000 		.4byte	.LASF26
 5064 02fd 01       		.byte	0x1
 5065 02fe 3F       		.byte	0x3f
 5066 02ff D2050000 		.4byte	.LASF41
 5067 0303 3B0B0000 		.4byte	0xb3b
 5068 0307 01       		.byte	0x1
 5069 0308 10030000 		.4byte	0x310
 5070 030c 1B030000 		.4byte	0x31b
 5071 0310 0D       		.uleb128 0xd
 5072 0311 2F0B0000 		.4byte	0xb2f
 5073 0315 0E       		.uleb128 0xe
 5074 0316 290B0000 		.4byte	0xb29
ARM GAS  C:\Users\Chuck\AppData\Local\Temp\cc5X170Y.s 			page 115


 5075 031a 00       		.byte	0
 5076 031b 0F       		.uleb128 0xf
 5077 031c 450D0000 		.4byte	.LASF29
 5078 0320 01       		.byte	0x1
 5079 0321 40       		.byte	0x40
 5080 0322 B4030000 		.4byte	.LASF42
 5081 0326 3B0B0000 		.4byte	0xb3b
 5082 032a 01       		.byte	0x1
 5083 032b 33030000 		.4byte	0x333
 5084 032f 3E030000 		.4byte	0x33e
 5085 0333 0D       		.uleb128 0xd
 5086 0334 2F0B0000 		.4byte	0xb2f
 5087 0338 0E       		.uleb128 0xe
 5088 0339 290B0000 		.4byte	0xb29
 5089 033d 00       		.byte	0
 5090 033e 12       		.uleb128 0x12
 5091 033f 6E6F7700 		.ascii	"now\000"
 5092 0343 01       		.byte	0x1
 5093 0344 42       		.byte	0x42
 5094 0345 CF100000 		.4byte	.LASF236
 5095 0349 16020000 		.4byte	0x216
 5096 034d 01       		.byte	0x1
 5097 034e 13       		.uleb128 0x13
 5098 034f 66050000 		.4byte	.LASF102
 5099 0353 01       		.byte	0x1
 5100 0354 43       		.byte	0x43
 5101 0355 B6100000 		.4byte	.LASF237
 5102 0359 01       		.byte	0x1
 5103 035a 0E       		.uleb128 0xe
 5104 035b 3B0B0000 		.4byte	0xb3b
 5105 035f 00       		.byte	0
 5106 0360 00       		.byte	0
 5107 0361 07       		.uleb128 0x7
 5108 0362 16020000 		.4byte	0x216
 5109 0366 09       		.uleb128 0x9
 5110 0367 6B070000 		.4byte	.LASF43
 5111 036b 14       		.byte	0x14
 5112 036c 07       		.byte	0x7
 5113 036d 2C       		.byte	0x2c
 5114 036e 3C040000 		.4byte	0x43c
 5115 0372 0B       		.uleb128 0xb
 5116 0373 7C150000 		.4byte	.LASF44
 5117 0377 07       		.byte	0x7
 5118 0378 39       		.byte	0x39
 5119 0379 DF000000 		.4byte	0xdf
 5120 037d 00       		.byte	0
 5121 037e 01       		.byte	0x1
 5122 037f 0B       		.uleb128 0xb
 5123 0380 72150000 		.4byte	.LASF45
 5124 0384 07       		.byte	0x7
 5125 0385 3A       		.byte	0x3a
 5126 0386 7F0F0000 		.4byte	0xf7f
 5127 038a 04       		.byte	0x4
 5128 038b 01       		.byte	0x1
 5129 038c 0A       		.uleb128 0xa
 5130 038d 69645F00 		.ascii	"id_\000"
 5131 0391 07       		.byte	0x7
ARM GAS  C:\Users\Chuck\AppData\Local\Temp\cc5X170Y.s 			page 116


 5132 0392 3C       		.byte	0x3c
 5133 0393 89000000 		.4byte	0x89
 5134 0397 08       		.byte	0x8
 5135 0398 01       		.byte	0x1
 5136 0399 0A       		.uleb128 0xa
 5137 039a 6E685F00 		.ascii	"nh_\000"
 5138 039e 07       		.byte	0x7
 5139 039f 3D       		.byte	0x3d
 5140 03a0 850F0000 		.4byte	0xf85
 5141 03a4 0C       		.byte	0xc
 5142 03a5 01       		.byte	0x1
 5143 03a6 14       		.uleb128 0x14
 5144 03a7 ED110000 		.4byte	.LASF51
 5145 03ab 07       		.byte	0x7
 5146 03ac 40       		.byte	0x40
 5147 03ad 89000000 		.4byte	0x89
 5148 03b1 10       		.byte	0x10
 5149 03b2 0C       		.uleb128 0xc
 5150 03b3 6B070000 		.4byte	.LASF43
 5151 03b7 07       		.byte	0x7
 5152 03b8 2F       		.byte	0x2f
 5153 03b9 8B0F0000 		.4byte	0xf8b
 5154 03bd 01       		.byte	0x1
 5155 03be C6030000 		.4byte	0x3c6
 5156 03c2 DB030000 		.4byte	0x3db
 5157 03c6 0D       		.uleb128 0xd
 5158 03c7 8B0F0000 		.4byte	0xf8b
 5159 03cb 0E       		.uleb128 0xe
 5160 03cc DF000000 		.4byte	0xdf
 5161 03d0 0E       		.uleb128 0xe
 5162 03d1 7F0F0000 		.4byte	0xf7f
 5163 03d5 0E       		.uleb128 0xe
 5164 03d6 89000000 		.4byte	0x89
 5165 03da 00       		.byte	0
 5166 03db 0F       		.uleb128 0xf
 5167 03dc 5E050000 		.4byte	.LASF46
 5168 03e0 07       		.byte	0x7
 5169 03e1 34       		.byte	0x34
 5170 03e2 01150000 		.4byte	.LASF47
 5171 03e6 89000000 		.4byte	0x89
 5172 03ea 01       		.byte	0x1
 5173 03eb F3030000 		.4byte	0x3f3
 5174 03ef FE030000 		.4byte	0x3fe
 5175 03f3 0D       		.uleb128 0xd
 5176 03f4 8B0F0000 		.4byte	0xf8b
 5177 03f8 0E       		.uleb128 0xe
 5178 03f9 910F0000 		.4byte	0xf91
 5179 03fd 00       		.byte	0
 5180 03fe 0F       		.uleb128 0xf
 5181 03ff 5E050000 		.4byte	.LASF46
 5182 0403 07       		.byte	0x7
 5183 0404 36       		.byte	0x36
 5184 0405 BF080000 		.4byte	.LASF48
 5185 0409 89000000 		.4byte	0x89
 5186 040d 01       		.byte	0x1
 5187 040e 16040000 		.4byte	0x416
 5188 0412 21040000 		.4byte	0x421
ARM GAS  C:\Users\Chuck\AppData\Local\Temp\cc5X170Y.s 			page 117


 5189 0416 0D       		.uleb128 0xd
 5190 0417 8B0F0000 		.4byte	0xf8b
 5191 041b 0E       		.uleb128 0xe
 5192 041c 970F0000 		.4byte	0xf97
 5193 0420 00       		.byte	0
 5194 0421 11       		.uleb128 0x11
 5195 0422 3C090000 		.4byte	.LASF49
 5196 0426 07       		.byte	0x7
 5197 0427 37       		.byte	0x37
 5198 0428 F20D0000 		.4byte	.LASF50
 5199 042c 89000000 		.4byte	0x89
 5200 0430 01       		.byte	0x1
 5201 0431 35040000 		.4byte	0x435
 5202 0435 0D       		.uleb128 0xd
 5203 0436 8B0F0000 		.4byte	0xf8b
 5204 043a 00       		.byte	0
 5205 043b 00       		.byte	0
 5206 043c 15       		.uleb128 0x15
 5207 043d 4D736700 		.ascii	"Msg\000"
 5208 0441 04       		.byte	0x4
 5209 0442 02       		.byte	0x2
 5210 0443 2B       		.byte	0x2b
 5211 0444 3C040000 		.4byte	0x43c
 5212 0448 86050000 		.4byte	0x586
 5213 044c 16       		.uleb128 0x16
 5214 044d B8120000 		.4byte	.LASF52
 5215 0451 92110000 		.4byte	0x1192
 5216 0455 00       		.byte	0
 5217 0456 01       		.byte	0x1
 5218 0457 17       		.uleb128 0x17
 5219 0458 AF080000 		.4byte	.LASF53
 5220 045c CA000000 		.4byte	0xca
 5221 0460 01       		.byte	0x1
 5222 0461 69040000 		.4byte	0x469
 5223 0465 74040000 		.4byte	0x474
 5224 0469 0D       		.uleb128 0xd
 5225 046a 7F0F0000 		.4byte	0xf7f
 5226 046e 0D       		.uleb128 0xd
 5227 046f 89000000 		.4byte	0x89
 5228 0473 00       		.byte	0
 5229 0474 18       		.uleb128 0x18
 5230 0475 4D736700 		.ascii	"Msg\000"
 5231 0479 7F0F0000 		.4byte	0xf7f
 5232 047d 01       		.byte	0x1
 5233 047e 86040000 		.4byte	0x486
 5234 0482 91040000 		.4byte	0x491
 5235 0486 0D       		.uleb128 0xd
 5236 0487 7F0F0000 		.4byte	0xf7f
 5237 048b 0E       		.uleb128 0xe
 5238 048c 970F0000 		.4byte	0xf97
 5239 0490 00       		.byte	0
 5240 0491 18       		.uleb128 0x18
 5241 0492 4D736700 		.ascii	"Msg\000"
 5242 0496 7F0F0000 		.4byte	0xf7f
 5243 049a 01       		.byte	0x1
 5244 049b A3040000 		.4byte	0x4a3
 5245 049f A9040000 		.4byte	0x4a9
ARM GAS  C:\Users\Chuck\AppData\Local\Temp\cc5X170Y.s 			page 118


 5246 04a3 0D       		.uleb128 0xd
 5247 04a4 7F0F0000 		.4byte	0xf7f
 5248 04a8 00       		.byte	0
 5249 04a9 19       		.uleb128 0x19
 5250 04aa A3010000 		.4byte	.LASF54
 5251 04ae 02       		.byte	0x2
 5252 04af 2E       		.byte	0x2e
 5253 04b0 2C0F0000 		.4byte	.LASF56
 5254 04b4 89000000 		.4byte	0x89
 5255 04b8 01       		.byte	0x1
 5256 04b9 02       		.uleb128 0x2
 5257 04ba 10       		.byte	0x10
 5258 04bb 00       		.uleb128 0
 5259 04bc 3C040000 		.4byte	0x43c
 5260 04c0 01       		.byte	0x1
 5261 04c1 C9040000 		.4byte	0x4c9
 5262 04c5 D4040000 		.4byte	0x4d4
 5263 04c9 0D       		.uleb128 0xd
 5264 04ca 910F0000 		.4byte	0xf91
 5265 04ce 0E       		.uleb128 0xe
 5266 04cf CC000000 		.4byte	0xcc
 5267 04d3 00       		.byte	0
 5268 04d4 19       		.uleb128 0x19
 5269 04d5 160C0000 		.4byte	.LASF55
 5270 04d9 02       		.byte	0x2
 5271 04da 2F       		.byte	0x2f
 5272 04db 870A0000 		.4byte	.LASF57
 5273 04df 89000000 		.4byte	0x89
 5274 04e3 01       		.byte	0x1
 5275 04e4 02       		.uleb128 0x2
 5276 04e5 10       		.byte	0x10
 5277 04e6 01       		.uleb128 0x1
 5278 04e7 3C040000 		.4byte	0x43c
 5279 04eb 01       		.byte	0x1
 5280 04ec F4040000 		.4byte	0x4f4
 5281 04f0 FF040000 		.4byte	0x4ff
 5282 04f4 0D       		.uleb128 0xd
 5283 04f5 7F0F0000 		.4byte	0xf7f
 5284 04f9 0E       		.uleb128 0xe
 5285 04fa CC000000 		.4byte	0xcc
 5286 04fe 00       		.byte	0
 5287 04ff 19       		.uleb128 0x19
 5288 0500 750D0000 		.4byte	.LASF58
 5289 0504 02       		.byte	0x2
 5290 0505 30       		.byte	0x30
 5291 0506 9D150000 		.4byte	.LASF59
 5292 050a DF000000 		.4byte	0xdf
 5293 050e 01       		.byte	0x1
 5294 050f 02       		.uleb128 0x2
 5295 0510 10       		.byte	0x10
 5296 0511 02       		.uleb128 0x2
 5297 0512 3C040000 		.4byte	0x43c
 5298 0516 01       		.byte	0x1
 5299 0517 1F050000 		.4byte	0x51f
 5300 051b 25050000 		.4byte	0x525
 5301 051f 0D       		.uleb128 0xd
 5302 0520 7F0F0000 		.4byte	0xf7f
ARM GAS  C:\Users\Chuck\AppData\Local\Temp\cc5X170Y.s 			page 119


 5303 0524 00       		.byte	0
 5304 0525 19       		.uleb128 0x19
 5305 0526 95100000 		.4byte	.LASF60
 5306 052a 02       		.byte	0x2
 5307 052b 31       		.byte	0x31
 5308 052c 0B070000 		.4byte	.LASF61
 5309 0530 DF000000 		.4byte	0xdf
 5310 0534 01       		.byte	0x1
 5311 0535 02       		.uleb128 0x2
 5312 0536 10       		.byte	0x10
 5313 0537 03       		.uleb128 0x3
 5314 0538 3C040000 		.4byte	0x43c
 5315 053c 01       		.byte	0x1
 5316 053d 45050000 		.4byte	0x545
 5317 0541 4B050000 		.4byte	0x54b
 5318 0545 0D       		.uleb128 0xd
 5319 0546 7F0F0000 		.4byte	0xf7f
 5320 054a 00       		.byte	0
 5321 054b 1A       		.uleb128 0x1a
 5322 054c 26150000 		.4byte	.LASF62
 5323 0550 02       		.byte	0x2
 5324 0551 3E       		.byte	0x3e
 5325 0552 500D0000 		.4byte	.LASF63
 5326 0556 89000000 		.4byte	0x89
 5327 055a 01       		.byte	0x1
 5328 055b 6A050000 		.4byte	0x56a
 5329 055f 0E       		.uleb128 0xe
 5330 0560 CC000000 		.4byte	0xcc
 5331 0564 0E       		.uleb128 0xe
 5332 0565 F1000000 		.4byte	0xf1
 5333 0569 00       		.byte	0
 5334 056a 1B       		.uleb128 0x1b
 5335 056b 20070000 		.4byte	.LASF64
 5336 056f 02       		.byte	0x2
 5337 0570 64       		.byte	0x64
 5338 0571 040D0000 		.4byte	.LASF238
 5339 0575 89000000 		.4byte	0x89
 5340 0579 01       		.byte	0x1
 5341 057a 0E       		.uleb128 0xe
 5342 057b FB120000 		.4byte	0x12fb
 5343 057f 0E       		.uleb128 0xe
 5344 0580 7B110000 		.4byte	0x117b
 5345 0584 00       		.byte	0
 5346 0585 00       		.byte	0
 5347 0586 1C       		.uleb128 0x1c
 5348 0587 E4080000 		.4byte	.LASF65
 5349 058b 04       		.byte	0x4
 5350 058c 0B       		.byte	0xb
 5351 058d 4F       		.byte	0x4f
 5352 058e 86050000 		.4byte	0x586
 5353 0592 6C060000 		.4byte	0x66c
 5354 0596 16       		.uleb128 0x16
 5355 0597 11000000 		.4byte	.LASF66
 5356 059b 92110000 		.4byte	0x1192
 5357 059f 00       		.byte	0
 5358 05a0 01       		.byte	0x1
 5359 05a1 17       		.uleb128 0x17
ARM GAS  C:\Users\Chuck\AppData\Local\Temp\cc5X170Y.s 			page 120


 5360 05a2 DE0C0000 		.4byte	.LASF67
 5361 05a6 CA000000 		.4byte	0xca
 5362 05aa 01       		.byte	0x1
 5363 05ab B3050000 		.4byte	0x5b3
 5364 05af BE050000 		.4byte	0x5be
 5365 05b3 0D       		.uleb128 0xd
 5366 05b4 850F0000 		.4byte	0xf85
 5367 05b8 0D       		.uleb128 0xd
 5368 05b9 89000000 		.4byte	0x89
 5369 05bd 00       		.byte	0
 5370 05be 17       		.uleb128 0x17
 5371 05bf E4080000 		.4byte	.LASF65
 5372 05c3 850F0000 		.4byte	0xf85
 5373 05c7 01       		.byte	0x1
 5374 05c8 D0050000 		.4byte	0x5d0
 5375 05cc DB050000 		.4byte	0x5db
 5376 05d0 0D       		.uleb128 0xd
 5377 05d1 850F0000 		.4byte	0xf85
 5378 05d5 0E       		.uleb128 0xe
 5379 05d6 A2110000 		.4byte	0x11a2
 5380 05da 00       		.byte	0
 5381 05db 17       		.uleb128 0x17
 5382 05dc E4080000 		.4byte	.LASF65
 5383 05e0 850F0000 		.4byte	0xf85
 5384 05e4 01       		.byte	0x1
 5385 05e5 ED050000 		.4byte	0x5ed
 5386 05e9 F3050000 		.4byte	0x5f3
 5387 05ed 0D       		.uleb128 0xd
 5388 05ee 850F0000 		.4byte	0xf85
 5389 05f2 00       		.byte	0
 5390 05f3 19       		.uleb128 0x19
 5391 05f4 5E050000 		.4byte	.LASF46
 5392 05f8 0B       		.byte	0xb
 5393 05f9 51       		.byte	0x51
 5394 05fa 18010000 		.4byte	.LASF68
 5395 05fe 89000000 		.4byte	0x89
 5396 0602 01       		.byte	0x1
 5397 0603 02       		.uleb128 0x2
 5398 0604 10       		.byte	0x10
 5399 0605 00       		.uleb128 0
 5400 0606 86050000 		.4byte	0x586
 5401 060a 01       		.byte	0x1
 5402 060b 13060000 		.4byte	0x613
 5403 060f 23060000 		.4byte	0x623
 5404 0613 0D       		.uleb128 0xd
 5405 0614 850F0000 		.4byte	0xf85
 5406 0618 0E       		.uleb128 0xe
 5407 0619 89000000 		.4byte	0x89
 5408 061d 0E       		.uleb128 0xe
 5409 061e 910F0000 		.4byte	0xf91
 5410 0622 00       		.byte	0
 5411 0623 19       		.uleb128 0x19
 5412 0624 89110000 		.4byte	.LASF69
 5413 0628 0B       		.byte	0xb
 5414 0629 52       		.byte	0x52
 5415 062a A50E0000 		.4byte	.LASF70
 5416 062e 89000000 		.4byte	0x89
ARM GAS  C:\Users\Chuck\AppData\Local\Temp\cc5X170Y.s 			page 121


 5417 0632 01       		.byte	0x1
 5418 0633 02       		.uleb128 0x2
 5419 0634 10       		.byte	0x10
 5420 0635 01       		.uleb128 0x1
 5421 0636 86050000 		.4byte	0x586
 5422 063a 01       		.byte	0x1
 5423 063b 43060000 		.4byte	0x643
 5424 063f 49060000 		.4byte	0x649
 5425 0643 0D       		.uleb128 0xd
 5426 0644 850F0000 		.4byte	0xf85
 5427 0648 00       		.byte	0
 5428 0649 1D       		.uleb128 0x1d
 5429 064a 96080000 		.4byte	.LASF97
 5430 064e 0B       		.byte	0xb
 5431 064f 53       		.byte	0x53
 5432 0650 9D110000 		.4byte	.LASF146
 5433 0654 5C110000 		.4byte	0x115c
 5434 0658 01       		.byte	0x1
 5435 0659 02       		.uleb128 0x2
 5436 065a 10       		.byte	0x10
 5437 065b 02       		.uleb128 0x2
 5438 065c 86050000 		.4byte	0x586
 5439 0660 01       		.byte	0x1
 5440 0661 65060000 		.4byte	0x665
 5441 0665 0D       		.uleb128 0xd
 5442 0666 850F0000 		.4byte	0xf85
 5443 066a 00       		.byte	0
 5444 066b 00       		.byte	0
 5445 066c 07       		.uleb128 0x7
 5446 066d 3C040000 		.4byte	0x43c
 5447 0671 1E       		.uleb128 0x1e
 5448 0672 0B       		.byte	0xb
 5449 0673 5E       		.byte	0x5e
 5450 0674 4C0B0000 		.4byte	0xb4c
 5451 0678 1F       		.uleb128 0x1f
 5452 0679 68100000 		.4byte	.LASF71
 5453 067d 7002     		.2byte	0x270
 5454 067f 0B       		.byte	0xb
 5455 0680 66       		.byte	0x66
 5456 0681 86050000 		.4byte	0x586
 5457 0685 010B0000 		.4byte	0xb01
 5458 0689 20       		.uleb128 0x20
 5459 068a 86050000 		.4byte	0x586
 5460 068e 00       		.byte	0
 5461 068f 01       		.byte	0x1
 5462 0690 0B       		.uleb128 0xb
 5463 0691 DB0E0000 		.4byte	.LASF72
 5464 0695 0B       		.byte	0xb
 5465 0696 69       		.byte	0x69
 5466 0697 D20F0000 		.4byte	0xfd2
 5467 069b 04       		.byte	0x4
 5468 069c 02       		.byte	0x2
 5469 069d 0B       		.uleb128 0xb
 5470 069e 68010000 		.4byte	.LASF73
 5471 06a2 0B       		.byte	0xb
 5472 06a3 6C       		.byte	0x6c
 5473 06a4 74000000 		.4byte	0x74
ARM GAS  C:\Users\Chuck\AppData\Local\Temp\cc5X170Y.s 			page 122


 5474 06a8 0C       		.byte	0xc
 5475 06a9 02       		.byte	0x2
 5476 06aa 0B       		.uleb128 0xb
 5477 06ab 00070000 		.4byte	.LASF74
 5478 06af 0B       		.byte	0xb
 5479 06b0 6F       		.byte	0x6f
 5480 06b1 74000000 		.4byte	0x74
 5481 06b5 10       		.byte	0x10
 5482 06b6 02       		.byte	0x2
 5483 06b7 0B       		.uleb128 0xb
 5484 06b8 81120000 		.4byte	.LASF75
 5485 06bc 0B       		.byte	0xb
 5486 06bd 6F       		.byte	0x6f
 5487 06be 74000000 		.4byte	0x74
 5488 06c2 14       		.byte	0x14
 5489 06c3 02       		.byte	0x2
 5490 06c4 0B       		.uleb128 0xb
 5491 06c5 E2110000 		.4byte	.LASF76
 5492 06c9 0B       		.byte	0xb
 5493 06ca 71       		.byte	0x71
 5494 06cb 26110000 		.4byte	0x1126
 5495 06cf 18       		.byte	0x18
 5496 06d0 02       		.byte	0x2
 5497 06d1 0B       		.uleb128 0xb
 5498 06d2 900D0000 		.4byte	.LASF77
 5499 06d6 0B       		.byte	0xb
 5500 06d7 72       		.byte	0x72
 5501 06d8 26110000 		.4byte	0x1126
 5502 06dc E0       		.byte	0xe0
 5503 06dd 02       		.byte	0x2
 5504 06de 21       		.uleb128 0x21
 5505 06df 04080000 		.4byte	.LASF78
 5506 06e3 0B       		.byte	0xb
 5507 06e4 74       		.byte	0x74
 5508 06e5 36110000 		.4byte	0x1136
 5509 06e9 A801     		.2byte	0x1a8
 5510 06eb 02       		.byte	0x2
 5511 06ec 21       		.uleb128 0x21
 5512 06ed F4080000 		.4byte	.LASF79
 5513 06f1 0B       		.byte	0xb
 5514 06f2 75       		.byte	0x75
 5515 06f3 46110000 		.4byte	0x1146
 5516 06f7 F801     		.2byte	0x1f8
 5517 06f9 02       		.byte	0x2
 5518 06fa 21       		.uleb128 0x21
 5519 06fb 55090000 		.4byte	.LASF80
 5520 06ff 0B       		.byte	0xb
 5521 0700 A9       		.byte	0xa9
 5522 0701 89000000 		.4byte	0x89
 5523 0705 2002     		.2byte	0x220
 5524 0707 02       		.byte	0x2
 5525 0708 21       		.uleb128 0x21
 5526 0709 AC060000 		.4byte	.LASF81
 5527 070d 0B       		.byte	0xb
 5528 070e AA       		.byte	0xaa
 5529 070f 89000000 		.4byte	0x89
 5530 0713 2402     		.2byte	0x224
ARM GAS  C:\Users\Chuck\AppData\Local\Temp\cc5X170Y.s 			page 123


 5531 0715 02       		.byte	0x2
 5532 0716 21       		.uleb128 0x21
 5533 0717 7C150000 		.4byte	.LASF44
 5534 071b 0B       		.byte	0xb
 5535 071c AB       		.byte	0xab
 5536 071d 89000000 		.4byte	0x89
 5537 0721 2802     		.2byte	0x228
 5538 0723 02       		.byte	0x2
 5539 0724 21       		.uleb128 0x21
 5540 0725 A30A0000 		.4byte	.LASF82
 5541 0729 0B       		.byte	0xb
 5542 072a AC       		.byte	0xac
 5543 072b 89000000 		.4byte	0x89
 5544 072f 2C02     		.2byte	0x22c
 5545 0731 02       		.byte	0x2
 5546 0732 21       		.uleb128 0x21
 5547 0733 8E050000 		.4byte	.LASF83
 5548 0737 0B       		.byte	0xb
 5549 0738 AD       		.byte	0xad
 5550 0739 89000000 		.4byte	0x89
 5551 073d 3002     		.2byte	0x230
 5552 073f 02       		.byte	0x2
 5553 0740 21       		.uleb128 0x21
 5554 0741 89060000 		.4byte	.LASF84
 5555 0745 0B       		.byte	0xb
 5556 0746 AF       		.byte	0xaf
 5557 0747 5C110000 		.4byte	0x115c
 5558 074b 3402     		.2byte	0x234
 5559 074d 02       		.byte	0x2
 5560 074e 21       		.uleb128 0x21
 5561 074f AA090000 		.4byte	.LASF85
 5562 0753 0B       		.byte	0xb
 5563 0754 B2       		.byte	0xb2
 5564 0755 74000000 		.4byte	0x74
 5565 0759 3802     		.2byte	0x238
 5566 075b 02       		.byte	0x2
 5567 075c 21       		.uleb128 0x21
 5568 075d BC130000 		.4byte	.LASF86
 5569 0761 0B       		.byte	0xb
 5570 0762 B3       		.byte	0xb3
 5571 0763 74000000 		.4byte	0x74
 5572 0767 3C02     		.2byte	0x23c
 5573 0769 02       		.byte	0x2
 5574 076a 21       		.uleb128 0x21
 5575 076b 96140000 		.4byte	.LASF87
 5576 076f 0B       		.byte	0xb
 5577 0770 B4       		.byte	0xb4
 5578 0771 74000000 		.4byte	0x74
 5579 0775 4002     		.2byte	0x240
 5580 0777 02       		.byte	0x2
 5581 0778 22       		.uleb128 0x22
 5582 0779 560C0000 		.4byte	.LASF88
 5583 077d 0B       		.byte	0xb
 5584 077e EE01     		.2byte	0x1ee
 5585 0780 5C110000 		.4byte	0x115c
 5586 0784 4402     		.2byte	0x244
 5587 0786 22       		.uleb128 0x22
ARM GAS  C:\Users\Chuck\AppData\Local\Temp\cc5X170Y.s 			page 124


 5588 0787 CA110000 		.4byte	.LASF89
 5589 078b 0B       		.byte	0xb
 5590 078c EF01     		.2byte	0x1ef
 5591 078e E10D0000 		.4byte	0xde1
 5592 0792 4802     		.2byte	0x248
 5593 0794 17       		.uleb128 0x17
 5594 0795 75120000 		.4byte	.LASF90
 5595 0799 63110000 		.4byte	0x1163
 5596 079d 01       		.byte	0x1
 5597 079e A6070000 		.4byte	0x7a6
 5598 07a2 B1070000 		.4byte	0x7b1
 5599 07a6 0D       		.uleb128 0xd
 5600 07a7 63110000 		.4byte	0x1163
 5601 07ab 0E       		.uleb128 0xe
 5602 07ac 69110000 		.4byte	0x1169
 5603 07b0 00       		.byte	0
 5604 07b1 0C       		.uleb128 0xc
 5605 07b2 75120000 		.4byte	.LASF90
 5606 07b6 0B       		.byte	0xb
 5607 07b7 7B       		.byte	0x7b
 5608 07b8 63110000 		.4byte	0x1163
 5609 07bc 01       		.byte	0x1
 5610 07bd C5070000 		.4byte	0x7c5
 5611 07c1 CB070000 		.4byte	0x7cb
 5612 07c5 0D       		.uleb128 0xd
 5613 07c6 63110000 		.4byte	0x1163
 5614 07ca 00       		.byte	0
 5615 07cb 0F       		.uleb128 0xf
 5616 07cc 28080000 		.4byte	.LASF91
 5617 07d0 0B       		.byte	0xb
 5618 07d1 91       		.byte	0x91
 5619 07d2 F5100000 		.4byte	.LASF92
 5620 07d6 14110000 		.4byte	0x1114
 5621 07da 01       		.byte	0x1
 5622 07db E3070000 		.4byte	0x7e3
 5623 07df E9070000 		.4byte	0x7e9
 5624 07e3 0D       		.uleb128 0xd
 5625 07e4 63110000 		.4byte	0x1163
 5626 07e8 00       		.byte	0
 5627 07e9 10       		.uleb128 0x10
 5628 07ea D9110000 		.4byte	.LASF93
 5629 07ee 0B       		.byte	0xb
 5630 07ef 96       		.byte	0x96
 5631 07f0 6D030000 		.4byte	.LASF94
 5632 07f4 01       		.byte	0x1
 5633 07f5 FD070000 		.4byte	0x7fd
 5634 07f9 03080000 		.4byte	0x803
 5635 07fd 0D       		.uleb128 0xd
 5636 07fe 63110000 		.4byte	0x1163
 5637 0802 00       		.byte	0
 5638 0803 10       		.uleb128 0x10
 5639 0804 D9110000 		.4byte	.LASF93
 5640 0808 0B       		.byte	0xb
 5641 0809 9F       		.byte	0x9f
 5642 080a E7030000 		.4byte	.LASF95
 5643 080e 01       		.byte	0x1
 5644 080f 17080000 		.4byte	0x817
ARM GAS  C:\Users\Chuck\AppData\Local\Temp\cc5X170Y.s 			page 125


 5645 0813 22080000 		.4byte	0x822
 5646 0817 0D       		.uleb128 0xd
 5647 0818 63110000 		.4byte	0x1163
 5648 081c 0E       		.uleb128 0xe
 5649 081d D2000000 		.4byte	0xd2
 5650 0821 00       		.byte	0
 5651 0822 19       		.uleb128 0x19
 5652 0823 89110000 		.4byte	.LASF69
 5653 0827 0B       		.byte	0xb
 5654 0828 BC       		.byte	0xbc
 5655 0829 D1020000 		.4byte	.LASF96
 5656 082d 89000000 		.4byte	0x89
 5657 0831 01       		.byte	0x1
 5658 0832 02       		.uleb128 0x2
 5659 0833 10       		.byte	0x10
 5660 0834 01       		.uleb128 0x1
 5661 0835 78060000 		.4byte	0x678
 5662 0839 01       		.byte	0x1
 5663 083a 42080000 		.4byte	0x842
 5664 083e 48080000 		.4byte	0x848
 5665 0842 0D       		.uleb128 0xd
 5666 0843 63110000 		.4byte	0x1163
 5667 0847 00       		.byte	0
 5668 0848 23       		.uleb128 0x23
 5669 0849 96080000 		.4byte	.LASF97
 5670 084d 0B       		.byte	0xb
 5671 084e 2401     		.2byte	0x124
 5672 0850 5D0E0000 		.4byte	.LASF107
 5673 0854 5C110000 		.4byte	0x115c
 5674 0858 01       		.byte	0x1
 5675 0859 02       		.uleb128 0x2
 5676 085a 10       		.byte	0x10
 5677 085b 02       		.uleb128 0x2
 5678 085c 78060000 		.4byte	0x678
 5679 0860 01       		.byte	0x1
 5680 0861 69080000 		.4byte	0x869
 5681 0865 6F080000 		.4byte	0x86f
 5682 0869 0D       		.uleb128 0xd
 5683 086a 63110000 		.4byte	0x1163
 5684 086e 00       		.byte	0
 5685 086f 24       		.uleb128 0x24
 5686 0870 D00A0000 		.4byte	.LASF98
 5687 0874 0B       		.byte	0xb
 5688 0875 2C01     		.2byte	0x12c
 5689 0877 02060000 		.4byte	.LASF100
 5690 087b 01       		.byte	0x1
 5691 087c 84080000 		.4byte	0x884
 5692 0880 8A080000 		.4byte	0x88a
 5693 0884 0D       		.uleb128 0xd
 5694 0885 63110000 		.4byte	0x1163
 5695 0889 00       		.byte	0
 5696 088a 24       		.uleb128 0x24
 5697 088b DC040000 		.4byte	.LASF99
 5698 088f 0B       		.byte	0xb
 5699 0890 3301     		.2byte	0x133
 5700 0892 D3130000 		.4byte	.LASF101
 5701 0896 01       		.byte	0x1
ARM GAS  C:\Users\Chuck\AppData\Local\Temp\cc5X170Y.s 			page 126


 5702 0897 9F080000 		.4byte	0x89f
 5703 089b AA080000 		.4byte	0x8aa
 5704 089f 0D       		.uleb128 0xd
 5705 08a0 63110000 		.4byte	0x1163
 5706 08a4 0E       		.uleb128 0xe
 5707 08a5 CC000000 		.4byte	0xcc
 5708 08a9 00       		.byte	0
 5709 08aa 25       		.uleb128 0x25
 5710 08ab 6E6F7700 		.ascii	"now\000"
 5711 08af 0B       		.byte	0xb
 5712 08b0 4001     		.2byte	0x140
 5713 08b2 880C0000 		.4byte	.LASF239
 5714 08b6 16020000 		.4byte	0x216
 5715 08ba 01       		.byte	0x1
 5716 08bb C3080000 		.4byte	0x8c3
 5717 08bf C9080000 		.4byte	0x8c9
 5718 08c3 0D       		.uleb128 0xd
 5719 08c4 63110000 		.4byte	0x1163
 5720 08c8 00       		.byte	0
 5721 08c9 24       		.uleb128 0x24
 5722 08ca 66050000 		.4byte	.LASF102
 5723 08ce 0B       		.byte	0xb
 5724 08cf 4901     		.2byte	0x149
 5725 08d1 E00A0000 		.4byte	.LASF103
 5726 08d5 01       		.byte	0x1
 5727 08d6 DE080000 		.4byte	0x8de
 5728 08da E9080000 		.4byte	0x8e9
 5729 08de 0D       		.uleb128 0xd
 5730 08df 63110000 		.4byte	0x1163
 5731 08e3 0E       		.uleb128 0xe
 5732 08e4 3B0B0000 		.4byte	0xb3b
 5733 08e8 00       		.byte	0
 5734 08e9 26       		.uleb128 0x26
 5735 08ea 860D0000 		.4byte	.LASF104
 5736 08ee 0B       		.byte	0xb
 5737 08ef 5601     		.2byte	0x156
 5738 08f1 9C0D0000 		.4byte	.LASF122
 5739 08f5 5C110000 		.4byte	0x115c
 5740 08f9 01       		.byte	0x1
 5741 08fa 02090000 		.4byte	0x902
 5742 08fe 0D090000 		.4byte	0x90d
 5743 0902 0D       		.uleb128 0xd
 5744 0903 63110000 		.4byte	0x1163
 5745 0907 0E       		.uleb128 0xe
 5746 0908 6F110000 		.4byte	0x116f
 5747 090c 00       		.byte	0
 5748 090d 24       		.uleb128 0x24
 5749 090e 7B0F0000 		.4byte	.LASF105
 5750 0912 0B       		.byte	0xb
 5751 0913 8C01     		.2byte	0x18c
 5752 0915 82020000 		.4byte	.LASF106
 5753 0919 01       		.byte	0x1
 5754 091a 22090000 		.4byte	0x922
 5755 091e 28090000 		.4byte	0x928
 5756 0922 0D       		.uleb128 0xd
 5757 0923 63110000 		.4byte	0x1163
 5758 0927 00       		.byte	0
ARM GAS  C:\Users\Chuck\AppData\Local\Temp\cc5X170Y.s 			page 127


 5759 0928 23       		.uleb128 0x23
 5760 0929 5E050000 		.4byte	.LASF46
 5761 092d 0B       		.byte	0xb
 5762 092e AB01     		.2byte	0x1ab
 5763 0930 46080000 		.4byte	.LASF108
 5764 0934 89000000 		.4byte	0x89
 5765 0938 01       		.byte	0x1
 5766 0939 02       		.uleb128 0x2
 5767 093a 10       		.byte	0x10
 5768 093b 00       		.uleb128 0
 5769 093c 78060000 		.4byte	0x678
 5770 0940 01       		.byte	0x1
 5771 0941 49090000 		.4byte	0x949
 5772 0945 59090000 		.4byte	0x959
 5773 0949 0D       		.uleb128 0xd
 5774 094a 63110000 		.4byte	0x1163
 5775 094e 0E       		.uleb128 0xe
 5776 094f 89000000 		.4byte	0x89
 5777 0953 0E       		.uleb128 0xe
 5778 0954 910F0000 		.4byte	0xf91
 5779 0958 00       		.byte	0
 5780 0959 27       		.uleb128 0x27
 5781 095a 6C6F6700 		.ascii	"log\000"
 5782 095e 0B       		.byte	0xb
 5783 095f D101     		.2byte	0x1d1
 5784 0961 28030000 		.4byte	.LASF240
 5785 0965 6D090000 		.4byte	0x96d
 5786 0969 7D090000 		.4byte	0x97d
 5787 096d 0D       		.uleb128 0xd
 5788 096e 63110000 		.4byte	0x1163
 5789 0972 0E       		.uleb128 0xe
 5790 0973 D8000000 		.4byte	0xd8
 5791 0977 0E       		.uleb128 0xe
 5792 0978 DF000000 		.4byte	0xdf
 5793 097c 00       		.byte	0
 5794 097d 24       		.uleb128 0x24
 5795 097e 94150000 		.4byte	.LASF109
 5796 0982 0B       		.byte	0xb
 5797 0983 D901     		.2byte	0x1d9
 5798 0985 B9090000 		.4byte	.LASF110
 5799 0989 01       		.byte	0x1
 5800 098a 92090000 		.4byte	0x992
 5801 098e 9D090000 		.4byte	0x99d
 5802 0992 0D       		.uleb128 0xd
 5803 0993 63110000 		.4byte	0x1163
 5804 0997 0E       		.uleb128 0xe
 5805 0998 DF000000 		.4byte	0xdf
 5806 099c 00       		.byte	0
 5807 099d 24       		.uleb128 0x24
 5808 099e DF150000 		.4byte	.LASF111
 5809 09a2 0B       		.byte	0xb
 5810 09a3 DC01     		.2byte	0x1dc
 5811 09a5 DB010000 		.4byte	.LASF112
 5812 09a9 01       		.byte	0x1
 5813 09aa B2090000 		.4byte	0x9b2
 5814 09ae BD090000 		.4byte	0x9bd
 5815 09b2 0D       		.uleb128 0xd
ARM GAS  C:\Users\Chuck\AppData\Local\Temp\cc5X170Y.s 			page 128


 5816 09b3 63110000 		.4byte	0x1163
 5817 09b7 0E       		.uleb128 0xe
 5818 09b8 DF000000 		.4byte	0xdf
 5819 09bc 00       		.byte	0
 5820 09bd 24       		.uleb128 0x24
 5821 09be 9C100000 		.4byte	.LASF113
 5822 09c2 0B       		.byte	0xb
 5823 09c3 DF01     		.2byte	0x1df
 5824 09c5 500B0000 		.4byte	.LASF114
 5825 09c9 01       		.byte	0x1
 5826 09ca D2090000 		.4byte	0x9d2
 5827 09ce DD090000 		.4byte	0x9dd
 5828 09d2 0D       		.uleb128 0xd
 5829 09d3 63110000 		.4byte	0x1163
 5830 09d7 0E       		.uleb128 0xe
 5831 09d8 DF000000 		.4byte	0xdf
 5832 09dc 00       		.byte	0
 5833 09dd 24       		.uleb128 0x24
 5834 09de 44020000 		.4byte	.LASF115
 5835 09e2 0B       		.byte	0xb
 5836 09e3 E201     		.2byte	0x1e2
 5837 09e5 B1070000 		.4byte	.LASF116
 5838 09e9 01       		.byte	0x1
 5839 09ea F2090000 		.4byte	0x9f2
 5840 09ee FD090000 		.4byte	0x9fd
 5841 09f2 0D       		.uleb128 0xd
 5842 09f3 63110000 		.4byte	0x1163
 5843 09f7 0E       		.uleb128 0xe
 5844 09f8 DF000000 		.4byte	0xdf
 5845 09fc 00       		.byte	0
 5846 09fd 24       		.uleb128 0x24
 5847 09fe 6C120000 		.4byte	.LASF117
 5848 0a02 0B       		.byte	0xb
 5849 0a03 E501     		.2byte	0x1e5
 5850 0a05 F7110000 		.4byte	.LASF118
 5851 0a09 01       		.byte	0x1
 5852 0a0a 120A0000 		.4byte	0xa12
 5853 0a0e 1D0A0000 		.4byte	0xa1d
 5854 0a12 0D       		.uleb128 0xd
 5855 0a13 63110000 		.4byte	0x1163
 5856 0a17 0E       		.uleb128 0xe
 5857 0a18 DF000000 		.4byte	0xdf
 5858 0a1c 00       		.byte	0
 5859 0a1d 28       		.uleb128 0x28
 5860 0a1e 34140000 		.4byte	.LASF119
 5861 0a22 0B       		.byte	0xb
 5862 0a23 F101     		.2byte	0x1f1
 5863 0a25 4D040000 		.4byte	.LASF120
 5864 0a29 5C110000 		.4byte	0x115c
 5865 0a2d 350A0000 		.4byte	0xa35
 5866 0a31 450A0000 		.4byte	0xa45
 5867 0a35 0D       		.uleb128 0xd
 5868 0a36 63110000 		.4byte	0x1163
 5869 0a3a 0E       		.uleb128 0xe
 5870 0a3b DF000000 		.4byte	0xdf
 5871 0a3f 0E       		.uleb128 0xe
 5872 0a40 89000000 		.4byte	0x89
ARM GAS  C:\Users\Chuck\AppData\Local\Temp\cc5X170Y.s 			page 129


 5873 0a44 00       		.byte	0
 5874 0a45 26       		.uleb128 0x26
 5875 0a46 F1050000 		.4byte	.LASF121
 5876 0a4a 0B       		.byte	0xb
 5877 0a4b FF01     		.2byte	0x1ff
 5878 0a4d 8B0F0000 		.4byte	.LASF123
 5879 0a51 5C110000 		.4byte	0x115c
 5880 0a55 01       		.byte	0x1
 5881 0a56 5E0A0000 		.4byte	0xa5e
 5882 0a5a 730A0000 		.4byte	0xa73
 5883 0a5e 0D       		.uleb128 0xd
 5884 0a5f 63110000 		.4byte	0x1163
 5885 0a63 0E       		.uleb128 0xe
 5886 0a64 DF000000 		.4byte	0xdf
 5887 0a68 0E       		.uleb128 0xe
 5888 0a69 75110000 		.4byte	0x1175
 5889 0a6d 0E       		.uleb128 0xe
 5890 0a6e 89000000 		.4byte	0x89
 5891 0a72 00       		.byte	0
 5892 0a73 26       		.uleb128 0x26
 5893 0a74 F1050000 		.4byte	.LASF121
 5894 0a78 0B       		.byte	0xb
 5895 0a79 0402     		.2byte	0x204
 5896 0a7b B5140000 		.4byte	.LASF124
 5897 0a7f 5C110000 		.4byte	0x115c
 5898 0a83 01       		.byte	0x1
 5899 0a84 8C0A0000 		.4byte	0xa8c
 5900 0a88 A10A0000 		.4byte	0xaa1
 5901 0a8c 0D       		.uleb128 0xd
 5902 0a8d 63110000 		.4byte	0x1163
 5903 0a91 0E       		.uleb128 0xe
 5904 0a92 DF000000 		.4byte	0xdf
 5905 0a96 0E       		.uleb128 0xe
 5906 0a97 7B110000 		.4byte	0x117b
 5907 0a9b 0E       		.uleb128 0xe
 5908 0a9c 89000000 		.4byte	0x89
 5909 0aa0 00       		.byte	0
 5910 0aa1 26       		.uleb128 0x26
 5911 0aa2 F1050000 		.4byte	.LASF121
 5912 0aa6 0B       		.byte	0xb
 5913 0aa7 0902     		.2byte	0x209
 5914 0aa9 B3060000 		.4byte	.LASF125
 5915 0aad 5C110000 		.4byte	0x115c
 5916 0ab1 01       		.byte	0x1
 5917 0ab2 BA0A0000 		.4byte	0xaba
 5918 0ab6 CF0A0000 		.4byte	0xacf
 5919 0aba 0D       		.uleb128 0xd
 5920 0abb 63110000 		.4byte	0x1163
 5921 0abf 0E       		.uleb128 0xe
 5922 0ac0 DF000000 		.4byte	0xdf
 5923 0ac4 0E       		.uleb128 0xe
 5924 0ac5 81110000 		.4byte	0x1181
 5925 0ac9 0E       		.uleb128 0xe
 5926 0aca 89000000 		.4byte	0x89
 5927 0ace 00       		.byte	0
 5928 0acf 29       		.uleb128 0x29
 5929 0ad0 540E0000 		.4byte	.LASF241
ARM GAS  C:\Users\Chuck\AppData\Local\Temp\cc5X170Y.s 			page 130


 5930 0ad4 D20F0000 		.4byte	0xfd2
 5931 0ad8 2A       		.uleb128 0x2a
 5932 0ad9 FD0B0000 		.4byte	.LASF126
 5933 0add 89000000 		.4byte	0x89
 5934 0ae1 0A       		.byte	0xa
 5935 0ae2 2A       		.uleb128 0x2a
 5936 0ae3 0E160000 		.4byte	.LASF127
 5937 0ae7 89000000 		.4byte	0x89
 5938 0aeb 14       		.byte	0x14
 5939 0aec 2A       		.uleb128 0x2a
 5940 0aed 92110000 		.4byte	.LASF128
 5941 0af1 89000000 		.4byte	0x89
 5942 0af5 C8       		.byte	0xc8
 5943 0af6 2A       		.uleb128 0x2a
 5944 0af7 F80C0000 		.4byte	.LASF129
 5945 0afb 89000000 		.4byte	0x89
 5946 0aff C8       		.byte	0xc8
 5947 0b00 00       		.byte	0
 5948 0b01 2B       		.uleb128 0x2b
 5949 0b02 09130000 		.4byte	.LASF186
 5950 0b06 07       		.uleb128 0x7
 5951 0b07 86050000 		.4byte	0x586
 5952 0b0b 03       		.uleb128 0x3
 5953 0b0c 31090000 		.4byte	.LASF130
 5954 0b10 0F       		.byte	0xf
 5955 0b11 45       		.byte	0x45
 5956 0b12 78060000 		.4byte	0x678
 5957 0b16 00       		.byte	0
 5958 0b17 06       		.uleb128 0x6
 5959 0b18 04       		.byte	0x4
 5960 0b19 0A010000 		.4byte	0x10a
 5961 0b1d 06       		.uleb128 0x6
 5962 0b1e 04       		.byte	0x4
 5963 0b1f 11020000 		.4byte	0x211
 5964 0b23 2C       		.uleb128 0x2c
 5965 0b24 04       		.byte	0x4
 5966 0b25 0A010000 		.4byte	0x10a
 5967 0b29 2C       		.uleb128 0x2c
 5968 0b2a 04       		.byte	0x4
 5969 0b2b 11020000 		.4byte	0x211
 5970 0b2f 06       		.uleb128 0x6
 5971 0b30 04       		.byte	0x4
 5972 0b31 16020000 		.4byte	0x216
 5973 0b35 06       		.uleb128 0x6
 5974 0b36 04       		.byte	0x4
 5975 0b37 61030000 		.4byte	0x361
 5976 0b3b 2C       		.uleb128 0x2c
 5977 0b3c 04       		.byte	0x4
 5978 0b3d 16020000 		.4byte	0x216
 5979 0b41 2D       		.uleb128 0x2d
 5980 0b42 B3040000 		.4byte	.LASF131
 5981 0b46 04       		.byte	0x4
 5982 0b47 0A       		.byte	0xa
 5983 0b48 7F0F0000 		.4byte	0xf7f
 5984 0b4c 1C       		.uleb128 0x1c
 5985 0b4d BA0B0000 		.4byte	.LASF132
 5986 0b51 18       		.byte	0x18
ARM GAS  C:\Users\Chuck\AppData\Local\Temp\cc5X170Y.s 			page 131


 5987 0b52 04       		.byte	0x4
 5988 0b53 0C       		.byte	0xc
 5989 0b54 3C040000 		.4byte	0x43c
 5990 0b58 CA0C0000 		.4byte	0xcca
 5991 0b5c 2E       		.uleb128 0x2e
 5992 0b5d 01       		.byte	0x1
 5993 0b5e 04       		.byte	0x4
 5994 0b5f 14       		.byte	0x14
 5995 0b60 01       		.byte	0x1
 5996 0b61 6C0B0000 		.4byte	0xb6c
 5997 0b65 2F       		.uleb128 0x2f
 5998 0b66 61140000 		.4byte	.LASF133
 5999 0b6a 00       		.sleb128 0
 6000 0b6b 00       		.byte	0
 6001 0b6c 2E       		.uleb128 0x2e
 6002 0b6d 01       		.byte	0x1
 6003 0b6e 04       		.byte	0x4
 6004 0b6f 18       		.byte	0x18
 6005 0b70 01       		.byte	0x1
 6006 0b71 7C0B0000 		.4byte	0xb7c
 6007 0b75 2F       		.uleb128 0x2f
 6008 0b76 4E070000 		.4byte	.LASF134
 6009 0b7a 06       		.sleb128 6
 6010 0b7b 00       		.byte	0
 6011 0b7c 2E       		.uleb128 0x2e
 6012 0b7d 01       		.byte	0x1
 6013 0b7e 04       		.byte	0x4
 6014 0b7f 19       		.byte	0x19
 6015 0b80 01       		.byte	0x1
 6016 0b81 8C0B0000 		.4byte	0xb8c
 6017 0b85 2F       		.uleb128 0x2f
 6018 0b86 3E0D0000 		.4byte	.LASF135
 6019 0b8a 07       		.sleb128 7
 6020 0b8b 00       		.byte	0
 6021 0b8c 2E       		.uleb128 0x2e
 6022 0b8d 01       		.byte	0x1
 6023 0b8e 04       		.byte	0x4
 6024 0b8f 1A       		.byte	0x1a
 6025 0b90 01       		.byte	0x1
 6026 0b91 9C0B0000 		.4byte	0xb9c
 6027 0b95 2F       		.uleb128 0x2f
 6028 0b96 64120000 		.4byte	.LASF136
 6029 0b9a 0A       		.sleb128 10
 6030 0b9b 00       		.byte	0
 6031 0b9c 2E       		.uleb128 0x2e
 6032 0b9d 01       		.byte	0x1
 6033 0b9e 04       		.byte	0x4
 6034 0b9f 1B       		.byte	0x1b
 6035 0ba0 01       		.byte	0x1
 6036 0ba1 AC0B0000 		.4byte	0xbac
 6037 0ba5 2F       		.uleb128 0x2f
 6038 0ba6 4D020000 		.4byte	.LASF137
 6039 0baa 0B       		.sleb128 11
 6040 0bab 00       		.byte	0
 6041 0bac 20       		.uleb128 0x20
 6042 0bad 3C040000 		.4byte	0x43c
 6043 0bb1 00       		.byte	0
ARM GAS  C:\Users\Chuck\AppData\Local\Temp\cc5X170Y.s 			page 132


 6044 0bb2 01       		.byte	0x1
 6045 0bb3 0B       		.uleb128 0xb
 6046 0bb4 EF0C0000 		.4byte	.LASF138
 6047 0bb8 04       		.byte	0x4
 6048 0bb9 0F       		.byte	0xf
 6049 0bba A2000000 		.4byte	0xa2
 6050 0bbe 04       		.byte	0x4
 6051 0bbf 01       		.byte	0x1
 6052 0bc0 0B       		.uleb128 0xb
 6053 0bc1 AA130000 		.4byte	.LASF139
 6054 0bc5 04       		.byte	0x4
 6055 0bc6 10       		.byte	0x10
 6056 0bc7 DF000000 		.4byte	0xdf
 6057 0bcb 08       		.byte	0x8
 6058 0bcc 01       		.byte	0x1
 6059 0bcd 0B       		.uleb128 0xb
 6060 0bce 36070000 		.4byte	.LASF140
 6061 0bd2 04       		.byte	0x4
 6062 0bd3 11       		.byte	0x11
 6063 0bd4 DF000000 		.4byte	0xdf
 6064 0bd8 0C       		.byte	0xc
 6065 0bd9 01       		.byte	0x1
 6066 0bda 0B       		.uleb128 0xb
 6067 0bdb 35050000 		.4byte	.LASF141
 6068 0bdf 04       		.byte	0x4
 6069 0be0 12       		.byte	0x12
 6070 0be1 DF000000 		.4byte	0xdf
 6071 0be5 10       		.byte	0x10
 6072 0be6 01       		.byte	0x1
 6073 0be7 0B       		.uleb128 0xb
 6074 0be8 82050000 		.4byte	.LASF142
 6075 0bec 04       		.byte	0x4
 6076 0bed 13       		.byte	0x13
 6077 0bee AD000000 		.4byte	0xad
 6078 0bf2 14       		.byte	0x14
 6079 0bf3 01       		.byte	0x1
 6080 0bf4 17       		.uleb128 0x17
 6081 0bf5 BA0B0000 		.4byte	.LASF132
 6082 0bf9 CC110000 		.4byte	0x11cc
 6083 0bfd 01       		.byte	0x1
 6084 0bfe 060C0000 		.4byte	0xc06
 6085 0c02 110C0000 		.4byte	0xc11
 6086 0c06 0D       		.uleb128 0xd
 6087 0c07 CC110000 		.4byte	0x11cc
 6088 0c0b 0E       		.uleb128 0xe
 6089 0c0c D2110000 		.4byte	0x11d2
 6090 0c10 00       		.byte	0
 6091 0c11 0C       		.uleb128 0xc
 6092 0c12 BA0B0000 		.4byte	.LASF132
 6093 0c16 04       		.byte	0x4
 6094 0c17 1D       		.byte	0x1d
 6095 0c18 CC110000 		.4byte	0x11cc
 6096 0c1c 01       		.byte	0x1
 6097 0c1d 250C0000 		.4byte	0xc25
 6098 0c21 2B0C0000 		.4byte	0xc2b
 6099 0c25 0D       		.uleb128 0xd
 6100 0c26 CC110000 		.4byte	0x11cc
ARM GAS  C:\Users\Chuck\AppData\Local\Temp\cc5X170Y.s 			page 133


 6101 0c2a 00       		.byte	0
 6102 0c2b 19       		.uleb128 0x19
 6103 0c2c A3010000 		.4byte	.LASF54
 6104 0c30 04       		.byte	0x4
 6105 0c31 26       		.byte	0x26
 6106 0c32 B3150000 		.4byte	.LASF143
 6107 0c36 89000000 		.4byte	0x89
 6108 0c3a 01       		.byte	0x1
 6109 0c3b 02       		.uleb128 0x2
 6110 0c3c 10       		.byte	0x10
 6111 0c3d 00       		.uleb128 0
 6112 0c3e 4C0B0000 		.4byte	0xb4c
 6113 0c42 01       		.byte	0x1
 6114 0c43 4B0C0000 		.4byte	0xc4b
 6115 0c47 560C0000 		.4byte	0xc56
 6116 0c4b 0D       		.uleb128 0xd
 6117 0c4c D8110000 		.4byte	0x11d8
 6118 0c50 0E       		.uleb128 0xe
 6119 0c51 CC000000 		.4byte	0xcc
 6120 0c55 00       		.byte	0
 6121 0c56 19       		.uleb128 0x19
 6122 0c57 160C0000 		.4byte	.LASF55
 6123 0c5b 04       		.byte	0x4
 6124 0c5c 4A       		.byte	0x4a
 6125 0c5d C2120000 		.4byte	.LASF144
 6126 0c61 89000000 		.4byte	0x89
 6127 0c65 01       		.byte	0x1
 6128 0c66 02       		.uleb128 0x2
 6129 0c67 10       		.byte	0x10
 6130 0c68 01       		.uleb128 0x1
 6131 0c69 4C0B0000 		.4byte	0xb4c
 6132 0c6d 01       		.byte	0x1
 6133 0c6e 760C0000 		.4byte	0xc76
 6134 0c72 810C0000 		.4byte	0xc81
 6135 0c76 0D       		.uleb128 0xd
 6136 0c77 CC110000 		.4byte	0x11cc
 6137 0c7b 0E       		.uleb128 0xe
 6138 0c7c CC000000 		.4byte	0xcc
 6139 0c80 00       		.byte	0
 6140 0c81 19       		.uleb128 0x19
 6141 0c82 750D0000 		.4byte	.LASF58
 6142 0c86 04       		.byte	0x4
 6143 0c87 7B       		.byte	0x7b
 6144 0c88 1A130000 		.4byte	.LASF145
 6145 0c8c DF000000 		.4byte	0xdf
 6146 0c90 01       		.byte	0x1
 6147 0c91 02       		.uleb128 0x2
 6148 0c92 10       		.byte	0x10
 6149 0c93 02       		.uleb128 0x2
 6150 0c94 4C0B0000 		.4byte	0xb4c
 6151 0c98 01       		.byte	0x1
 6152 0c99 A10C0000 		.4byte	0xca1
 6153 0c9d A70C0000 		.4byte	0xca7
 6154 0ca1 0D       		.uleb128 0xd
 6155 0ca2 CC110000 		.4byte	0x11cc
 6156 0ca6 00       		.byte	0
 6157 0ca7 1D       		.uleb128 0x1d
ARM GAS  C:\Users\Chuck\AppData\Local\Temp\cc5X170Y.s 			page 134


 6158 0ca8 95100000 		.4byte	.LASF60
 6159 0cac 04       		.byte	0x4
 6160 0cad 7C       		.byte	0x7c
 6161 0cae 48130000 		.4byte	.LASF147
 6162 0cb2 DF000000 		.4byte	0xdf
 6163 0cb6 01       		.byte	0x1
 6164 0cb7 02       		.uleb128 0x2
 6165 0cb8 10       		.byte	0x10
 6166 0cb9 03       		.uleb128 0x3
 6167 0cba 4C0B0000 		.4byte	0xb4c
 6168 0cbe 01       		.byte	0x1
 6169 0cbf C30C0000 		.4byte	0xcc3
 6170 0cc3 0D       		.uleb128 0xd
 6171 0cc4 CC110000 		.4byte	0x11cc
 6172 0cc8 00       		.byte	0
 6173 0cc9 00       		.byte	0
 6174 0cca 15       		.uleb128 0x15
 6175 0ccb 4C6F6700 		.ascii	"Log\000"
 6176 0ccf 0C       		.byte	0xc
 6177 0cd0 05       		.byte	0x5
 6178 0cd1 0C       		.byte	0xc
 6179 0cd2 3C040000 		.4byte	0x43c
 6180 0cd6 E10D0000 		.4byte	0xde1
 6181 0cda 2E       		.uleb128 0x2e
 6182 0cdb 01       		.byte	0x1
 6183 0cdc 05       		.byte	0x5
 6184 0cdd 14       		.byte	0x14
 6185 0cde 01       		.byte	0x1
 6186 0cdf EA0C0000 		.4byte	0xcea
 6187 0ce3 2F       		.uleb128 0x2f
 6188 0ce4 00000000 		.4byte	.LASF148
 6189 0ce8 03       		.sleb128 3
 6190 0ce9 00       		.byte	0
 6191 0cea 20       		.uleb128 0x20
 6192 0ceb 3C040000 		.4byte	0x43c
 6193 0cef 00       		.byte	0
 6194 0cf0 01       		.byte	0x1
 6195 0cf1 0B       		.uleb128 0xb
 6196 0cf2 62010000 		.4byte	.LASF149
 6197 0cf6 05       		.byte	0x5
 6198 0cf7 0F       		.byte	0xf
 6199 0cf8 97000000 		.4byte	0x97
 6200 0cfc 04       		.byte	0x4
 6201 0cfd 01       		.byte	0x1
 6202 0cfe 0A       		.uleb128 0xa
 6203 0cff 6D736700 		.ascii	"msg\000"
 6204 0d03 05       		.byte	0x5
 6205 0d04 10       		.byte	0x10
 6206 0d05 DF000000 		.4byte	0xdf
 6207 0d09 08       		.byte	0x8
 6208 0d0a 01       		.byte	0x1
 6209 0d0b 18       		.uleb128 0x18
 6210 0d0c 4C6F6700 		.ascii	"Log\000"
 6211 0d10 BA110000 		.4byte	0x11ba
 6212 0d14 01       		.byte	0x1
 6213 0d15 1D0D0000 		.4byte	0xd1d
 6214 0d19 280D0000 		.4byte	0xd28
ARM GAS  C:\Users\Chuck\AppData\Local\Temp\cc5X170Y.s 			page 135


 6215 0d1d 0D       		.uleb128 0xd
 6216 0d1e BA110000 		.4byte	0x11ba
 6217 0d22 0E       		.uleb128 0xe
 6218 0d23 C0110000 		.4byte	0x11c0
 6219 0d27 00       		.byte	0
 6220 0d28 30       		.uleb128 0x30
 6221 0d29 4C6F6700 		.ascii	"Log\000"
 6222 0d2d 05       		.byte	0x5
 6223 0d2e 17       		.byte	0x17
 6224 0d2f BA110000 		.4byte	0x11ba
 6225 0d33 01       		.byte	0x1
 6226 0d34 3C0D0000 		.4byte	0xd3c
 6227 0d38 420D0000 		.4byte	0xd42
 6228 0d3c 0D       		.uleb128 0xd
 6229 0d3d BA110000 		.4byte	0x11ba
 6230 0d41 00       		.byte	0
 6231 0d42 19       		.uleb128 0x19
 6232 0d43 A3010000 		.4byte	.LASF54
 6233 0d47 05       		.byte	0x5
 6234 0d48 1D       		.byte	0x1d
 6235 0d49 AA0A0000 		.4byte	.LASF150
 6236 0d4d 89000000 		.4byte	0x89
 6237 0d51 01       		.byte	0x1
 6238 0d52 02       		.uleb128 0x2
 6239 0d53 10       		.byte	0x10
 6240 0d54 00       		.uleb128 0
 6241 0d55 CA0C0000 		.4byte	0xcca
 6242 0d59 01       		.byte	0x1
 6243 0d5a 620D0000 		.4byte	0xd62
 6244 0d5e 6D0D0000 		.4byte	0xd6d
 6245 0d62 0D       		.uleb128 0xd
 6246 0d63 C6110000 		.4byte	0x11c6
 6247 0d67 0E       		.uleb128 0xe
 6248 0d68 CC000000 		.4byte	0xcc
 6249 0d6c 00       		.byte	0
 6250 0d6d 19       		.uleb128 0x19
 6251 0d6e 160C0000 		.4byte	.LASF55
 6252 0d72 05       		.byte	0x5
 6253 0d73 2C       		.byte	0x2c
 6254 0d74 6E140000 		.4byte	.LASF151
 6255 0d78 89000000 		.4byte	0x89
 6256 0d7c 01       		.byte	0x1
 6257 0d7d 02       		.uleb128 0x2
 6258 0d7e 10       		.byte	0x10
 6259 0d7f 01       		.uleb128 0x1
 6260 0d80 CA0C0000 		.4byte	0xcca
 6261 0d84 01       		.byte	0x1
 6262 0d85 8D0D0000 		.4byte	0xd8d
 6263 0d89 980D0000 		.4byte	0xd98
 6264 0d8d 0D       		.uleb128 0xd
 6265 0d8e BA110000 		.4byte	0x11ba
 6266 0d92 0E       		.uleb128 0xe
 6267 0d93 CC000000 		.4byte	0xcc
 6268 0d97 00       		.byte	0
 6269 0d98 19       		.uleb128 0x19
 6270 0d99 750D0000 		.4byte	.LASF58
 6271 0d9d 05       		.byte	0x5
ARM GAS  C:\Users\Chuck\AppData\Local\Temp\cc5X170Y.s 			page 136


 6272 0d9e 3F       		.byte	0x3f
 6273 0d9f 3C050000 		.4byte	.LASF152
 6274 0da3 DF000000 		.4byte	0xdf
 6275 0da7 01       		.byte	0x1
 6276 0da8 02       		.uleb128 0x2
 6277 0da9 10       		.byte	0x10
 6278 0daa 02       		.uleb128 0x2
 6279 0dab CA0C0000 		.4byte	0xcca
 6280 0daf 01       		.byte	0x1
 6281 0db0 B80D0000 		.4byte	0xdb8
 6282 0db4 BE0D0000 		.4byte	0xdbe
 6283 0db8 0D       		.uleb128 0xd
 6284 0db9 BA110000 		.4byte	0x11ba
 6285 0dbd 00       		.byte	0
 6286 0dbe 1D       		.uleb128 0x1d
 6287 0dbf 95100000 		.4byte	.LASF60
 6288 0dc3 05       		.byte	0x5
 6289 0dc4 40       		.byte	0x40
 6290 0dc5 330E0000 		.4byte	.LASF153
 6291 0dc9 DF000000 		.4byte	0xdf
 6292 0dcd 01       		.byte	0x1
 6293 0dce 02       		.uleb128 0x2
 6294 0dcf 10       		.byte	0x10
 6295 0dd0 03       		.uleb128 0x3
 6296 0dd1 CA0C0000 		.4byte	0xcca
 6297 0dd5 01       		.byte	0x1
 6298 0dd6 DA0D0000 		.4byte	0xdda
 6299 0dda 0D       		.uleb128 0xd
 6300 0ddb BA110000 		.4byte	0x11ba
 6301 0ddf 00       		.byte	0
 6302 0de0 00       		.byte	0
 6303 0de1 1C       		.uleb128 0x1c
 6304 0de2 6D050000 		.4byte	.LASF154
 6305 0de6 28       		.byte	0x28
 6306 0de7 06       		.byte	0x6
 6307 0de8 3A       		.byte	0x3a
 6308 0de9 3C040000 		.4byte	0x43c
 6309 0ded 600F0000 		.4byte	0xf60
 6310 0df1 20       		.uleb128 0x20
 6311 0df2 3C040000 		.4byte	0x43c
 6312 0df6 00       		.byte	0
 6313 0df7 01       		.byte	0x1
 6314 0df8 0B       		.uleb128 0xb
 6315 0df9 53150000 		.4byte	.LASF155
 6316 0dfd 06       		.byte	0x6
 6317 0dfe 3D       		.byte	0x3d
 6318 0dff 97000000 		.4byte	0x97
 6319 0e03 04       		.byte	0x4
 6320 0e04 01       		.byte	0x1
 6321 0e05 0B       		.uleb128 0xb
 6322 0e06 C2110000 		.4byte	.LASF156
 6323 0e0a 06       		.byte	0x6
 6324 0e0b 3E       		.byte	0x3e
 6325 0e0c AD000000 		.4byte	0xad
 6326 0e10 08       		.byte	0x8
 6327 0e11 01       		.byte	0x1
 6328 0e12 0B       		.uleb128 0xb
ARM GAS  C:\Users\Chuck\AppData\Local\Temp\cc5X170Y.s 			page 137


 6329 0e13 E7150000 		.4byte	.LASF157
 6330 0e17 06       		.byte	0x6
 6331 0e18 3F       		.byte	0x3f
 6332 0e19 75110000 		.4byte	0x1175
 6333 0e1d 0C       		.byte	0xc
 6334 0e1e 01       		.byte	0x1
 6335 0e1f 0B       		.uleb128 0xb
 6336 0e20 1A100000 		.4byte	.LASF158
 6337 0e24 06       		.byte	0x6
 6338 0e25 40       		.byte	0x40
 6339 0e26 97000000 		.4byte	0x97
 6340 0e2a 10       		.byte	0x10
 6341 0e2b 01       		.byte	0x1
 6342 0e2c 0B       		.uleb128 0xb
 6343 0e2d 7E0C0000 		.4byte	.LASF159
 6344 0e31 06       		.byte	0x6
 6345 0e32 41       		.byte	0x41
 6346 0e33 F1000000 		.4byte	0xf1
 6347 0e37 14       		.byte	0x14
 6348 0e38 01       		.byte	0x1
 6349 0e39 0B       		.uleb128 0xb
 6350 0e3a B5130000 		.4byte	.LASF160
 6351 0e3e 06       		.byte	0x6
 6352 0e3f 42       		.byte	0x42
 6353 0e40 7B110000 		.4byte	0x117b
 6354 0e44 18       		.byte	0x18
 6355 0e45 01       		.byte	0x1
 6356 0e46 0B       		.uleb128 0xb
 6357 0e47 09010000 		.4byte	.LASF161
 6358 0e4b 06       		.byte	0x6
 6359 0e4c 43       		.byte	0x43
 6360 0e4d 97000000 		.4byte	0x97
 6361 0e51 1C       		.byte	0x1c
 6362 0e52 01       		.byte	0x1
 6363 0e53 0B       		.uleb128 0xb
 6364 0e54 06000000 		.4byte	.LASF162
 6365 0e58 06       		.byte	0x6
 6366 0e59 44       		.byte	0x44
 6367 0e5a D2000000 		.4byte	0xd2
 6368 0e5e 20       		.byte	0x20
 6369 0e5f 01       		.byte	0x1
 6370 0e60 0B       		.uleb128 0xb
 6371 0e61 2F040000 		.4byte	.LASF163
 6372 0e65 06       		.byte	0x6
 6373 0e66 45       		.byte	0x45
 6374 0e67 81110000 		.4byte	0x1181
 6375 0e6b 24       		.byte	0x24
 6376 0e6c 01       		.byte	0x1
 6377 0e6d 17       		.uleb128 0x17
 6378 0e6e 52100000 		.4byte	.LASF164
 6379 0e72 CA000000 		.4byte	0xca
 6380 0e76 01       		.byte	0x1
 6381 0e77 7F0E0000 		.4byte	0xe7f
 6382 0e7b 8A0E0000 		.4byte	0xe8a
 6383 0e7f 0D       		.uleb128 0xd
 6384 0e80 A8110000 		.4byte	0x11a8
 6385 0e84 0D       		.uleb128 0xd
ARM GAS  C:\Users\Chuck\AppData\Local\Temp\cc5X170Y.s 			page 138


 6386 0e85 89000000 		.4byte	0x89
 6387 0e89 00       		.byte	0
 6388 0e8a 17       		.uleb128 0x17
 6389 0e8b 6D050000 		.4byte	.LASF154
 6390 0e8f A8110000 		.4byte	0x11a8
 6391 0e93 01       		.byte	0x1
 6392 0e94 9C0E0000 		.4byte	0xe9c
 6393 0e98 A70E0000 		.4byte	0xea7
 6394 0e9c 0D       		.uleb128 0xd
 6395 0e9d A8110000 		.4byte	0x11a8
 6396 0ea1 0E       		.uleb128 0xe
 6397 0ea2 AE110000 		.4byte	0x11ae
 6398 0ea6 00       		.byte	0
 6399 0ea7 0C       		.uleb128 0xc
 6400 0ea8 6D050000 		.4byte	.LASF154
 6401 0eac 06       		.byte	0x6
 6402 0ead 47       		.byte	0x47
 6403 0eae A8110000 		.4byte	0x11a8
 6404 0eb2 01       		.byte	0x1
 6405 0eb3 BB0E0000 		.4byte	0xebb
 6406 0eb7 C10E0000 		.4byte	0xec1
 6407 0ebb 0D       		.uleb128 0xd
 6408 0ebc A8110000 		.4byte	0x11a8
 6409 0ec0 00       		.byte	0
 6410 0ec1 19       		.uleb128 0x19
 6411 0ec2 A3010000 		.4byte	.LASF54
 6412 0ec6 06       		.byte	0x6
 6413 0ec7 4E       		.byte	0x4e
 6414 0ec8 0D0A0000 		.4byte	.LASF165
 6415 0ecc 89000000 		.4byte	0x89
 6416 0ed0 01       		.byte	0x1
 6417 0ed1 02       		.uleb128 0x2
 6418 0ed2 10       		.byte	0x10
 6419 0ed3 00       		.uleb128 0
 6420 0ed4 E10D0000 		.4byte	0xde1
 6421 0ed8 01       		.byte	0x1
 6422 0ed9 E10E0000 		.4byte	0xee1
 6423 0edd EC0E0000 		.4byte	0xeec
 6424 0ee1 0D       		.uleb128 0xd
 6425 0ee2 B4110000 		.4byte	0x11b4
 6426 0ee6 0E       		.uleb128 0xe
 6427 0ee7 CC000000 		.4byte	0xcc
 6428 0eeb 00       		.byte	0
 6429 0eec 19       		.uleb128 0x19
 6430 0eed 160C0000 		.4byte	.LASF55
 6431 0ef1 06       		.byte	0x6
 6432 0ef2 81       		.byte	0x81
 6433 0ef3 E5040000 		.4byte	.LASF166
 6434 0ef7 89000000 		.4byte	0x89
 6435 0efb 01       		.byte	0x1
 6436 0efc 02       		.uleb128 0x2
 6437 0efd 10       		.byte	0x10
 6438 0efe 01       		.uleb128 0x1
 6439 0eff E10D0000 		.4byte	0xde1
 6440 0f03 01       		.byte	0x1
 6441 0f04 0C0F0000 		.4byte	0xf0c
 6442 0f08 170F0000 		.4byte	0xf17
ARM GAS  C:\Users\Chuck\AppData\Local\Temp\cc5X170Y.s 			page 139


 6443 0f0c 0D       		.uleb128 0xd
 6444 0f0d A8110000 		.4byte	0x11a8
 6445 0f11 0E       		.uleb128 0xe
 6446 0f12 CC000000 		.4byte	0xcc
 6447 0f16 00       		.byte	0
 6448 0f17 19       		.uleb128 0x19
 6449 0f18 750D0000 		.4byte	.LASF58
 6450 0f1c 06       		.byte	0x6
 6451 0f1d C3       		.byte	0xc3
 6452 0f1e 220C0000 		.4byte	.LASF167
 6453 0f22 DF000000 		.4byte	0xdf
 6454 0f26 01       		.byte	0x1
 6455 0f27 02       		.uleb128 0x2
 6456 0f28 10       		.byte	0x10
 6457 0f29 02       		.uleb128 0x2
 6458 0f2a E10D0000 		.4byte	0xde1
 6459 0f2e 01       		.byte	0x1
 6460 0f2f 370F0000 		.4byte	0xf37
 6461 0f33 3D0F0000 		.4byte	0xf3d
 6462 0f37 0D       		.uleb128 0xd
 6463 0f38 A8110000 		.4byte	0x11a8
 6464 0f3c 00       		.byte	0
 6465 0f3d 1D       		.uleb128 0x1d
 6466 0f3e 95100000 		.4byte	.LASF60
 6467 0f42 06       		.byte	0x6
 6468 0f43 C4       		.byte	0xc4
 6469 0f44 70010000 		.4byte	.LASF168
 6470 0f48 DF000000 		.4byte	0xdf
 6471 0f4c 01       		.byte	0x1
 6472 0f4d 02       		.uleb128 0x2
 6473 0f4e 10       		.byte	0x10
 6474 0f4f 03       		.uleb128 0x3
 6475 0f50 E10D0000 		.4byte	0xde1
 6476 0f54 01       		.byte	0x1
 6477 0f55 590F0000 		.4byte	0xf59
 6478 0f59 0D       		.uleb128 0xd
 6479 0f5a A8110000 		.4byte	0x11a8
 6480 0f5e 00       		.byte	0
 6481 0f5f 00       		.byte	0
 6482 0f60 07       		.uleb128 0x7
 6483 0f61 E10D0000 		.4byte	0xde1
 6484 0f65 07       		.uleb128 0x7
 6485 0f66 CA0C0000 		.4byte	0xcca
 6486 0f6a 07       		.uleb128 0x7
 6487 0f6b 4C0B0000 		.4byte	0xb4c
 6488 0f6f 31       		.uleb128 0x31
 6489 0f70 3A150000 		.4byte	.LASF231
 6490 0f74 06       		.byte	0x6
 6491 0f75 0B       		.byte	0xb
 6492 0f76 BA200000 		.4byte	0x20ba
 6493 0f7a 6D110000 		.4byte	.LASF242
 6494 0f7e 00       		.byte	0
 6495 0f7f 06       		.uleb128 0x6
 6496 0f80 04       		.byte	0x4
 6497 0f81 3C040000 		.4byte	0x43c
 6498 0f85 06       		.uleb128 0x6
 6499 0f86 04       		.byte	0x4
ARM GAS  C:\Users\Chuck\AppData\Local\Temp\cc5X170Y.s 			page 140


 6500 0f87 86050000 		.4byte	0x586
 6501 0f8b 06       		.uleb128 0x6
 6502 0f8c 04       		.byte	0x4
 6503 0f8d 66030000 		.4byte	0x366
 6504 0f91 06       		.uleb128 0x6
 6505 0f92 04       		.byte	0x4
 6506 0f93 6C060000 		.4byte	0x66c
 6507 0f97 2C       		.uleb128 0x2c
 6508 0f98 04       		.byte	0x4
 6509 0f99 6C060000 		.4byte	0x66c
 6510 0f9d 09       		.uleb128 0x9
 6511 0f9e 05160000 		.4byte	.LASF169
 6512 0fa2 01       		.byte	0x1
 6513 0fa3 08       		.byte	0x8
 6514 0fa4 23       		.byte	0x23
 6515 0fa5 D20F0000 		.4byte	0xfd2
 6516 0fa9 32       		.uleb128 0x32
 6517 0faa 4A120000 		.4byte	.LASF243
 6518 0fae 08       		.byte	0x8
 6519 0faf 2F       		.byte	0x2f
 6520 0fb0 B8000000 		.4byte	0xb8
 6521 0fb4 01       		.byte	0x1
 6522 0fb5 33       		.uleb128 0x33
 6523 0fb6 8D120000 		.4byte	.LASF178
 6524 0fba 08       		.byte	0x8
 6525 0fbb 26       		.byte	0x26
 6526 0fbc D3030000 		.4byte	.LASF244
 6527 0fc0 01       		.byte	0x1
 6528 0fc1 34       		.uleb128 0x34
 6529 0fc2 3D020000 		.4byte	.LASF170
 6530 0fc6 08       		.byte	0x8
 6531 0fc7 2D       		.byte	0x2d
 6532 0fc8 04100000 		.4byte	.LASF245
 6533 0fcc B8000000 		.4byte	0xb8
 6534 0fd0 01       		.byte	0x1
 6535 0fd1 00       		.byte	0
 6536 0fd2 09       		.uleb128 0x9
 6537 0fd3 460F0000 		.4byte	.LASF171
 6538 0fd7 08       		.byte	0x8
 6539 0fd8 09       		.byte	0x9
 6540 0fd9 33       		.byte	0x33
 6541 0fda 09110000 		.4byte	0x1109
 6542 0fde 0B       		.uleb128 0xb
 6543 0fdf EC150000 		.4byte	.LASF172
 6544 0fe3 09       		.byte	0x9
 6545 0fe4 5B       		.byte	0x5b
 6546 0fe5 0E110000 		.4byte	0x110e
 6547 0fe9 00       		.byte	0
 6548 0fea 02       		.byte	0x2
 6549 0feb 0B       		.uleb128 0xb
 6550 0fec 42130000 		.4byte	.LASF173
 6551 0ff0 09       		.byte	0x9
 6552 0ff1 5C       		.byte	0x5c
 6553 0ff2 62000000 		.4byte	0x62
 6554 0ff6 04       		.byte	0x4
 6555 0ff7 02       		.byte	0x2
 6556 0ff8 0C       		.uleb128 0xc
ARM GAS  C:\Users\Chuck\AppData\Local\Temp\cc5X170Y.s 			page 141


 6557 0ff9 460F0000 		.4byte	.LASF171
 6558 0ffd 09       		.byte	0x9
 6559 0ffe 35       		.byte	0x35
 6560 0fff 14110000 		.4byte	0x1114
 6561 1003 01       		.byte	0x1
 6562 1004 0C100000 		.4byte	0x100c
 6563 1008 1C100000 		.4byte	0x101c
 6564 100c 0D       		.uleb128 0xd
 6565 100d 14110000 		.4byte	0x1114
 6566 1011 0E       		.uleb128 0xe
 6567 1012 0E110000 		.4byte	0x110e
 6568 1016 0E       		.uleb128 0xe
 6569 1017 62000000 		.4byte	0x62
 6570 101b 00       		.byte	0
 6571 101c 0C       		.uleb128 0xc
 6572 101d 460F0000 		.4byte	.LASF171
 6573 1021 09       		.byte	0x9
 6574 1022 3B       		.byte	0x3b
 6575 1023 14110000 		.4byte	0x1114
 6576 1027 01       		.byte	0x1
 6577 1028 30100000 		.4byte	0x1030
 6578 102c 36100000 		.4byte	0x1036
 6579 1030 0D       		.uleb128 0xd
 6580 1031 14110000 		.4byte	0x1114
 6581 1035 00       		.byte	0
 6582 1036 0C       		.uleb128 0xc
 6583 1037 460F0000 		.4byte	.LASF171
 6584 103b 09       		.byte	0x9
 6585 103c 41       		.byte	0x41
 6586 103d 14110000 		.4byte	0x1114
 6587 1041 01       		.byte	0x1
 6588 1042 4A100000 		.4byte	0x104a
 6589 1046 55100000 		.4byte	0x1055
 6590 104a 0D       		.uleb128 0xd
 6591 104b 14110000 		.4byte	0x1114
 6592 104f 0E       		.uleb128 0xe
 6593 1050 1A110000 		.4byte	0x111a
 6594 1054 00       		.byte	0
 6595 1055 10       		.uleb128 0x10
 6596 1056 FC0F0000 		.4byte	.LASF174
 6597 105a 09       		.byte	0x9
 6598 105b 46       		.byte	0x46
 6599 105c C40B0000 		.4byte	.LASF175
 6600 1060 01       		.byte	0x1
 6601 1061 69100000 		.4byte	0x1069
 6602 1065 74100000 		.4byte	0x1074
 6603 1069 0D       		.uleb128 0xd
 6604 106a 14110000 		.4byte	0x1114
 6605 106e 0E       		.uleb128 0xe
 6606 106f 62000000 		.4byte	0x62
 6607 1073 00       		.byte	0
 6608 1074 0F       		.uleb128 0xf
 6609 1075 AE100000 		.4byte	.LASF176
 6610 1079 09       		.byte	0x9
 6611 107a 4A       		.byte	0x4a
 6612 107b 45010000 		.4byte	.LASF177
 6613 107f 89000000 		.4byte	0x89
ARM GAS  C:\Users\Chuck\AppData\Local\Temp\cc5X170Y.s 			page 142


 6614 1083 01       		.byte	0x1
 6615 1084 8C100000 		.4byte	0x108c
 6616 1088 92100000 		.4byte	0x1092
 6617 108c 0D       		.uleb128 0xd
 6618 108d 14110000 		.4byte	0x1114
 6619 1091 00       		.byte	0
 6620 1092 10       		.uleb128 0x10
 6621 1093 8D120000 		.4byte	.LASF178
 6622 1097 09       		.byte	0x9
 6623 1098 4C       		.byte	0x4c
 6624 1099 2E0B0000 		.4byte	.LASF179
 6625 109d 01       		.byte	0x1
 6626 109e A6100000 		.4byte	0x10a6
 6627 10a2 AC100000 		.4byte	0x10ac
 6628 10a6 0D       		.uleb128 0xd
 6629 10a7 14110000 		.4byte	0x1114
 6630 10ab 00       		.byte	0
 6631 10ac 0F       		.uleb128 0xf
 6632 10ad 52120000 		.4byte	.LASF180
 6633 10b1 09       		.byte	0x9
 6634 10b2 50       		.byte	0x50
 6635 10b3 23020000 		.4byte	.LASF181
 6636 10b7 89000000 		.4byte	0x89
 6637 10bb 01       		.byte	0x1
 6638 10bc C4100000 		.4byte	0x10c4
 6639 10c0 CA100000 		.4byte	0x10ca
 6640 10c4 0D       		.uleb128 0xd
 6641 10c5 14110000 		.4byte	0x1114
 6642 10c9 00       		.byte	0
 6643 10ca 10       		.uleb128 0x10
 6644 10cb D80C0000 		.4byte	.LASF182
 6645 10cf 09       		.byte	0x9
 6646 10d0 52       		.byte	0x52
 6647 10d1 6C060000 		.4byte	.LASF183
 6648 10d5 01       		.byte	0x1
 6649 10d6 DE100000 		.4byte	0x10de
 6650 10da EE100000 		.4byte	0x10ee
 6651 10de 0D       		.uleb128 0xd
 6652 10df 14110000 		.4byte	0x1114
 6653 10e3 0E       		.uleb128 0xe
 6654 10e4 20110000 		.4byte	0x1120
 6655 10e8 0E       		.uleb128 0xe
 6656 10e9 89000000 		.4byte	0x89
 6657 10ed 00       		.byte	0
 6658 10ee 11       		.uleb128 0x11
 6659 10ef 75070000 		.4byte	.LASF184
 6660 10f3 09       		.byte	0x9
 6661 10f4 58       		.byte	0x58
 6662 10f5 C2040000 		.4byte	.LASF185
 6663 10f9 74000000 		.4byte	0x74
 6664 10fd 01       		.byte	0x1
 6665 10fe 02110000 		.4byte	0x1102
 6666 1102 0D       		.uleb128 0xd
 6667 1103 14110000 		.4byte	0x1114
 6668 1107 00       		.byte	0
 6669 1108 00       		.byte	0
 6670 1109 2B       		.uleb128 0x2b
ARM GAS  C:\Users\Chuck\AppData\Local\Temp\cc5X170Y.s 			page 143


 6671 110a A0080000 		.4byte	.LASF187
 6672 110e 06       		.uleb128 0x6
 6673 110f 04       		.byte	0x4
 6674 1110 09110000 		.4byte	0x1109
 6675 1114 06       		.uleb128 0x6
 6676 1115 04       		.byte	0x4
 6677 1116 D20F0000 		.4byte	0xfd2
 6678 111a 2C       		.uleb128 0x2c
 6679 111b 04       		.byte	0x4
 6680 111c D20F0000 		.4byte	0xfd2
 6681 1120 06       		.uleb128 0x6
 6682 1121 04       		.byte	0x4
 6683 1122 97000000 		.4byte	0x97
 6684 1126 35       		.uleb128 0x35
 6685 1127 37000000 		.4byte	0x37
 6686 112b 36110000 		.4byte	0x1136
 6687 112f 36       		.uleb128 0x36
 6688 1130 C3000000 		.4byte	0xc3
 6689 1134 C7       		.byte	0xc7
 6690 1135 00       		.byte	0
 6691 1136 35       		.uleb128 0x35
 6692 1137 8B0F0000 		.4byte	0xf8b
 6693 113b 46110000 		.4byte	0x1146
 6694 113f 36       		.uleb128 0x36
 6695 1140 C3000000 		.4byte	0xc3
 6696 1144 13       		.byte	0x13
 6697 1145 00       		.byte	0
 6698 1146 35       		.uleb128 0x35
 6699 1147 56110000 		.4byte	0x1156
 6700 114b 56110000 		.4byte	0x1156
 6701 114f 36       		.uleb128 0x36
 6702 1150 C3000000 		.4byte	0xc3
 6703 1154 09       		.byte	0x9
 6704 1155 00       		.byte	0
 6705 1156 06       		.uleb128 0x6
 6706 1157 04       		.byte	0x4
 6707 1158 010B0000 		.4byte	0xb01
 6708 115c 02       		.uleb128 0x2
 6709 115d 01       		.byte	0x1
 6710 115e 02       		.byte	0x2
 6711 115f 390D0000 		.4byte	.LASF188
 6712 1163 06       		.uleb128 0x6
 6713 1164 04       		.byte	0x4
 6714 1165 78060000 		.4byte	0x678
 6715 1169 2C       		.uleb128 0x2c
 6716 116a 04       		.byte	0x4
 6717 116b 78060000 		.4byte	0x678
 6718 116f 2C       		.uleb128 0x2c
 6719 1170 04       		.byte	0x4
 6720 1171 66030000 		.4byte	0x366
 6721 1175 06       		.uleb128 0x6
 6722 1176 04       		.byte	0x4
 6723 1177 AD000000 		.4byte	0xad
 6724 117b 06       		.uleb128 0x6
 6725 117c 04       		.byte	0x4
 6726 117d F1000000 		.4byte	0xf1
 6727 1181 06       		.uleb128 0x6
ARM GAS  C:\Users\Chuck\AppData\Local\Temp\cc5X170Y.s 			page 144


 6728 1182 04       		.byte	0x4
 6729 1183 D2000000 		.4byte	0xd2
 6730 1187 37       		.uleb128 0x37
 6731 1188 89000000 		.4byte	0x89
 6732 118c 92110000 		.4byte	0x1192
 6733 1190 38       		.uleb128 0x38
 6734 1191 00       		.byte	0
 6735 1192 06       		.uleb128 0x6
 6736 1193 04       		.byte	0x4
 6737 1194 98110000 		.4byte	0x1198
 6738 1198 39       		.uleb128 0x39
 6739 1199 04       		.byte	0x4
 6740 119a A3040000 		.4byte	.LASF246
 6741 119e 87110000 		.4byte	0x1187
 6742 11a2 2C       		.uleb128 0x2c
 6743 11a3 04       		.byte	0x4
 6744 11a4 060B0000 		.4byte	0xb06
 6745 11a8 06       		.uleb128 0x6
 6746 11a9 04       		.byte	0x4
 6747 11aa E10D0000 		.4byte	0xde1
 6748 11ae 2C       		.uleb128 0x2c
 6749 11af 04       		.byte	0x4
 6750 11b0 600F0000 		.4byte	0xf60
 6751 11b4 06       		.uleb128 0x6
 6752 11b5 04       		.byte	0x4
 6753 11b6 600F0000 		.4byte	0xf60
 6754 11ba 06       		.uleb128 0x6
 6755 11bb 04       		.byte	0x4
 6756 11bc CA0C0000 		.4byte	0xcca
 6757 11c0 2C       		.uleb128 0x2c
 6758 11c1 04       		.byte	0x4
 6759 11c2 650F0000 		.4byte	0xf65
 6760 11c6 06       		.uleb128 0x6
 6761 11c7 04       		.byte	0x4
 6762 11c8 650F0000 		.4byte	0xf65
 6763 11cc 06       		.uleb128 0x6
 6764 11cd 04       		.byte	0x4
 6765 11ce 4C0B0000 		.4byte	0xb4c
 6766 11d2 2C       		.uleb128 0x2c
 6767 11d3 04       		.byte	0x4
 6768 11d4 6A0F0000 		.4byte	0xf6a
 6769 11d8 06       		.uleb128 0x6
 6770 11d9 04       		.byte	0x4
 6771 11da 6A0F0000 		.4byte	0xf6a
 6772 11de 2D       		.uleb128 0x2d
 6773 11df 4C090000 		.4byte	.LASF189
 6774 11e3 03       		.byte	0x3
 6775 11e4 0B       		.byte	0xb
 6776 11e5 E9120000 		.4byte	0x12e9
 6777 11e9 1C       		.uleb128 0x1c
 6778 11ea 83150000 		.4byte	.LASF34
 6779 11ee 0C       		.byte	0xc
 6780 11ef 03       		.byte	0x3
 6781 11f0 0D       		.byte	0xd
 6782 11f1 3C040000 		.4byte	0x43c
 6783 11f5 E3120000 		.4byte	0x12e3
 6784 11f9 20       		.uleb128 0x20
ARM GAS  C:\Users\Chuck\AppData\Local\Temp\cc5X170Y.s 			page 145


 6785 11fa 3C040000 		.4byte	0x43c
 6786 11fe 00       		.byte	0
 6787 11ff 01       		.byte	0x1
 6788 1200 0B       		.uleb128 0xb
 6789 1201 540F0000 		.4byte	.LASF190
 6790 1205 03       		.byte	0x3
 6791 1206 10       		.byte	0x10
 6792 1207 16020000 		.4byte	0x216
 6793 120b 04       		.byte	0x4
 6794 120c 01       		.byte	0x1
 6795 120d 17       		.uleb128 0x17
 6796 120e 83150000 		.4byte	.LASF34
 6797 1212 E9120000 		.4byte	0x12e9
 6798 1216 01       		.byte	0x1
 6799 1217 1F120000 		.4byte	0x121f
 6800 121b 2A120000 		.4byte	0x122a
 6801 121f 0D       		.uleb128 0xd
 6802 1220 E9120000 		.4byte	0x12e9
 6803 1224 0E       		.uleb128 0xe
 6804 1225 EF120000 		.4byte	0x12ef
 6805 1229 00       		.byte	0
 6806 122a 0C       		.uleb128 0xc
 6807 122b 83150000 		.4byte	.LASF34
 6808 122f 03       		.byte	0x3
 6809 1230 12       		.byte	0x12
 6810 1231 E9120000 		.4byte	0x12e9
 6811 1235 01       		.byte	0x1
 6812 1236 3E120000 		.4byte	0x123e
 6813 123a 44120000 		.4byte	0x1244
 6814 123e 0D       		.uleb128 0xd
 6815 123f E9120000 		.4byte	0x12e9
 6816 1243 00       		.byte	0
 6817 1244 19       		.uleb128 0x19
 6818 1245 A3010000 		.4byte	.LASF54
 6819 1249 03       		.byte	0x3
 6820 124a 17       		.byte	0x17
 6821 124b 41140000 		.4byte	.LASF191
 6822 124f 89000000 		.4byte	0x89
 6823 1253 01       		.byte	0x1
 6824 1254 02       		.uleb128 0x2
 6825 1255 10       		.byte	0x10
 6826 1256 00       		.uleb128 0
 6827 1257 E9110000 		.4byte	0x11e9
 6828 125b 01       		.byte	0x1
 6829 125c 64120000 		.4byte	0x1264
 6830 1260 6F120000 		.4byte	0x126f
 6831 1264 0D       		.uleb128 0xd
 6832 1265 F5120000 		.4byte	0x12f5
 6833 1269 0E       		.uleb128 0xe
 6834 126a CC000000 		.4byte	0xcc
 6835 126e 00       		.byte	0
 6836 126f 19       		.uleb128 0x19
 6837 1270 160C0000 		.4byte	.LASF55
 6838 1274 03       		.byte	0x3
 6839 1275 29       		.byte	0x29
 6840 1276 980B0000 		.4byte	.LASF192
 6841 127a 89000000 		.4byte	0x89
ARM GAS  C:\Users\Chuck\AppData\Local\Temp\cc5X170Y.s 			page 146


 6842 127e 01       		.byte	0x1
 6843 127f 02       		.uleb128 0x2
 6844 1280 10       		.byte	0x10
 6845 1281 01       		.uleb128 0x1
 6846 1282 E9110000 		.4byte	0x11e9
 6847 1286 01       		.byte	0x1
 6848 1287 8F120000 		.4byte	0x128f
 6849 128b 9A120000 		.4byte	0x129a
 6850 128f 0D       		.uleb128 0xd
 6851 1290 E9120000 		.4byte	0x12e9
 6852 1294 0E       		.uleb128 0xe
 6853 1295 CC000000 		.4byte	0xcc
 6854 1299 00       		.byte	0
 6855 129a 19       		.uleb128 0x19
 6856 129b 750D0000 		.4byte	.LASF58
 6857 129f 03       		.byte	0x3
 6858 12a0 3B       		.byte	0x3b
 6859 12a1 170E0000 		.4byte	.LASF193
 6860 12a5 DF000000 		.4byte	0xdf
 6861 12a9 01       		.byte	0x1
 6862 12aa 02       		.uleb128 0x2
 6863 12ab 10       		.byte	0x10
 6864 12ac 02       		.uleb128 0x2
 6865 12ad E9110000 		.4byte	0x11e9
 6866 12b1 01       		.byte	0x1
 6867 12b2 BA120000 		.4byte	0x12ba
 6868 12b6 C0120000 		.4byte	0x12c0
 6869 12ba 0D       		.uleb128 0xd
 6870 12bb E9120000 		.4byte	0x12e9
 6871 12bf 00       		.byte	0
 6872 12c0 1D       		.uleb128 0x1d
 6873 12c1 95100000 		.4byte	.LASF60
 6874 12c5 03       		.byte	0x3
 6875 12c6 3C       		.byte	0x3c
 6876 12c7 E50E0000 		.4byte	.LASF194
 6877 12cb DF000000 		.4byte	0xdf
 6878 12cf 01       		.byte	0x1
 6879 12d0 02       		.uleb128 0x2
 6880 12d1 10       		.byte	0x10
 6881 12d2 03       		.uleb128 0x3
 6882 12d3 E9110000 		.4byte	0x11e9
 6883 12d7 01       		.byte	0x1
 6884 12d8 DC120000 		.4byte	0x12dc
 6885 12dc 0D       		.uleb128 0xd
 6886 12dd E9120000 		.4byte	0x12e9
 6887 12e1 00       		.byte	0
 6888 12e2 00       		.byte	0
 6889 12e3 07       		.uleb128 0x7
 6890 12e4 E9110000 		.4byte	0x11e9
 6891 12e8 00       		.byte	0
 6892 12e9 06       		.uleb128 0x6
 6893 12ea 04       		.byte	0x4
 6894 12eb E9110000 		.4byte	0x11e9
 6895 12ef 2C       		.uleb128 0x2c
 6896 12f0 04       		.byte	0x4
 6897 12f1 E3120000 		.4byte	0x12e3
 6898 12f5 06       		.uleb128 0x6
ARM GAS  C:\Users\Chuck\AppData\Local\Temp\cc5X170Y.s 			page 147


 6899 12f6 04       		.byte	0x4
 6900 12f7 E3120000 		.4byte	0x12e3
 6901 12fb 06       		.uleb128 0x6
 6902 12fc 04       		.byte	0x4
 6903 12fd 01130000 		.4byte	0x1301
 6904 1301 07       		.uleb128 0x7
 6905 1302 37000000 		.4byte	0x37
 6906 1306 3A       		.uleb128 0x3a
 6907 1307 3C020000 		.4byte	0x23c
 6908 130b 02       		.byte	0x2
 6909 130c 14130000 		.4byte	0x1314
 6910 1310 1E130000 		.4byte	0x131e
 6911 1314 3B       		.uleb128 0x3b
 6912 1315 88150000 		.4byte	.LASF195
 6913 1319 1E130000 		.4byte	0x131e
 6914 131d 00       		.byte	0
 6915 131e 07       		.uleb128 0x7
 6916 131f 2F0B0000 		.4byte	0xb2f
 6917 1323 3C       		.uleb128 0x3c
 6918 1324 06130000 		.4byte	0x1306
 6919 1328 F8120000 		.4byte	.LASF196
 6920 132c 00000000 		.4byte	.LFB11
 6921 1330 1E000000 		.4byte	.LFE11-.LFB11
 6922 1334 01       		.uleb128 0x1
 6923 1335 9C       		.byte	0x9c
 6924 1336 3E130000 		.4byte	0x133e
 6925 133a 47130000 		.4byte	0x1347
 6926 133e 3D       		.uleb128 0x3d
 6927 133f 14130000 		.4byte	0x1314
 6928 1343 02       		.uleb128 0x2
 6929 1344 91       		.byte	0x91
 6930 1345 74       		.sleb128 -12
 6931 1346 00       		.byte	0
 6932 1347 3E       		.uleb128 0x3e
 6933 1348 91040000 		.4byte	0x491
 6934 134c 02       		.byte	0x2
 6935 134d 2B       		.byte	0x2b
 6936 134e 02       		.byte	0x2
 6937 134f 57130000 		.4byte	0x1357
 6938 1353 61130000 		.4byte	0x1361
 6939 1357 3B       		.uleb128 0x3b
 6940 1358 88150000 		.4byte	.LASF195
 6941 135c 61130000 		.4byte	0x1361
 6942 1360 00       		.byte	0
 6943 1361 07       		.uleb128 0x7
 6944 1362 7F0F0000 		.4byte	0xf7f
 6945 1366 3C       		.uleb128 0x3c
 6946 1367 47130000 		.4byte	0x1347
 6947 136b 25050000 		.4byte	.LASF197
 6948 136f 00000000 		.4byte	.LFB21
 6949 1373 1C000000 		.4byte	.LFE21-.LFB21
 6950 1377 01       		.uleb128 0x1
 6951 1378 9C       		.byte	0x9c
 6952 1379 81130000 		.4byte	0x1381
 6953 137d 8A130000 		.4byte	0x138a
 6954 1381 3D       		.uleb128 0x3d
 6955 1382 57130000 		.4byte	0x1357
ARM GAS  C:\Users\Chuck\AppData\Local\Temp\cc5X170Y.s 			page 148


 6956 1386 02       		.uleb128 0x2
 6957 1387 91       		.byte	0x91
 6958 1388 74       		.sleb128 -12
 6959 1389 00       		.byte	0
 6960 138a 3A       		.uleb128 0x3a
 6961 138b 2A120000 		.4byte	0x122a
 6962 138f 02       		.byte	0x2
 6963 1390 98130000 		.4byte	0x1398
 6964 1394 A2130000 		.4byte	0x13a2
 6965 1398 3B       		.uleb128 0x3b
 6966 1399 88150000 		.4byte	.LASF195
 6967 139d A2130000 		.4byte	0x13a2
 6968 13a1 00       		.byte	0
 6969 13a2 07       		.uleb128 0x7
 6970 13a3 E9120000 		.4byte	0x12e9
 6971 13a7 3F       		.uleb128 0x3f
 6972 13a8 8A130000 		.4byte	0x138a
 6973 13ac 000F0000 		.4byte	.LASF198
 6974 13b0 00000000 		.4byte	.LFB23
 6975 13b4 30000000 		.4byte	.LFE23-.LFB23
 6976 13b8 01       		.uleb128 0x1
 6977 13b9 9C       		.byte	0x9c
 6978 13ba C2130000 		.4byte	0x13c2
 6979 13be CB130000 		.4byte	0x13cb
 6980 13c2 3D       		.uleb128 0x3d
 6981 13c3 98130000 		.4byte	0x1398
 6982 13c7 02       		.uleb128 0x2
 6983 13c8 91       		.byte	0x91
 6984 13c9 74       		.sleb128 -12
 6985 13ca 00       		.byte	0
 6986 13cb 40       		.uleb128 0x40
 6987 13cc 44120000 		.4byte	0x1244
 6988 13d0 00000000 		.4byte	.LFB25
 6989 13d4 AC000000 		.4byte	.LFE25-.LFB25
 6990 13d8 01       		.uleb128 0x1
 6991 13d9 9C       		.byte	0x9c
 6992 13da E2130000 		.4byte	0x13e2
 6993 13de 15140000 		.4byte	0x1415
 6994 13e2 41       		.uleb128 0x41
 6995 13e3 88150000 		.4byte	.LASF195
 6996 13e7 15140000 		.4byte	0x1415
 6997 13eb 02       		.uleb128 0x2
 6998 13ec 91       		.byte	0x91
 6999 13ed 6C       		.sleb128 -20
 7000 13ee 42       		.uleb128 0x42
 7001 13ef E2100000 		.4byte	.LASF199
 7002 13f3 03       		.byte	0x3
 7003 13f4 17       		.byte	0x17
 7004 13f5 CC000000 		.4byte	0xcc
 7005 13f9 02       		.uleb128 0x2
 7006 13fa 91       		.byte	0x91
 7007 13fb 68       		.sleb128 -24
 7008 13fc 43       		.uleb128 0x43
 7009 13fd 0A000000 		.4byte	.LBB5
 7010 1401 9A000000 		.4byte	.LBE5-.LBB5
 7011 1405 44       		.uleb128 0x44
 7012 1406 34080000 		.4byte	.LASF201
ARM GAS  C:\Users\Chuck\AppData\Local\Temp\cc5X170Y.s 			page 149


 7013 140a 03       		.byte	0x3
 7014 140b 19       		.byte	0x19
 7015 140c 89000000 		.4byte	0x89
 7016 1410 02       		.uleb128 0x2
 7017 1411 91       		.byte	0x91
 7018 1412 74       		.sleb128 -12
 7019 1413 00       		.byte	0
 7020 1414 00       		.byte	0
 7021 1415 07       		.uleb128 0x7
 7022 1416 F5120000 		.4byte	0x12f5
 7023 141a 40       		.uleb128 0x40
 7024 141b 6F120000 		.4byte	0x126f
 7025 141f 00000000 		.4byte	.LFB26
 7026 1423 C4000000 		.4byte	.LFE26-.LFB26
 7027 1427 01       		.uleb128 0x1
 7028 1428 9C       		.byte	0x9c
 7029 1429 31140000 		.4byte	0x1431
 7030 142d 64140000 		.4byte	0x1464
 7031 1431 41       		.uleb128 0x41
 7032 1432 88150000 		.4byte	.LASF195
 7033 1436 A2130000 		.4byte	0x13a2
 7034 143a 02       		.uleb128 0x2
 7035 143b 91       		.byte	0x91
 7036 143c 6C       		.sleb128 -20
 7037 143d 42       		.uleb128 0x42
 7038 143e 0D0C0000 		.4byte	.LASF200
 7039 1442 03       		.byte	0x3
 7040 1443 29       		.byte	0x29
 7041 1444 CC000000 		.4byte	0xcc
 7042 1448 02       		.uleb128 0x2
 7043 1449 91       		.byte	0x91
 7044 144a 68       		.sleb128 -24
 7045 144b 43       		.uleb128 0x43
 7046 144c 0A000000 		.4byte	.LBB6
 7047 1450 B2000000 		.4byte	.LBE6-.LBB6
 7048 1454 44       		.uleb128 0x44
 7049 1455 34080000 		.4byte	.LASF201
 7050 1459 03       		.byte	0x3
 7051 145a 2B       		.byte	0x2b
 7052 145b 89000000 		.4byte	0x89
 7053 145f 02       		.uleb128 0x2
 7054 1460 91       		.byte	0x91
 7055 1461 74       		.sleb128 -12
 7056 1462 00       		.byte	0
 7057 1463 00       		.byte	0
 7058 1464 40       		.uleb128 0x40
 7059 1465 9A120000 		.4byte	0x129a
 7060 1469 00000000 		.4byte	.LFB27
 7061 146d 18000000 		.4byte	.LFE27-.LFB27
 7062 1471 01       		.uleb128 0x1
 7063 1472 9C       		.byte	0x9c
 7064 1473 7B140000 		.4byte	0x147b
 7065 1477 88140000 		.4byte	0x1488
 7066 147b 41       		.uleb128 0x41
 7067 147c 88150000 		.4byte	.LASF195
 7068 1480 A2130000 		.4byte	0x13a2
 7069 1484 02       		.uleb128 0x2
ARM GAS  C:\Users\Chuck\AppData\Local\Temp\cc5X170Y.s 			page 150


 7070 1485 91       		.byte	0x91
 7071 1486 74       		.sleb128 -12
 7072 1487 00       		.byte	0
 7073 1488 40       		.uleb128 0x40
 7074 1489 C0120000 		.4byte	0x12c0
 7075 148d 00000000 		.4byte	.LFB28
 7076 1491 18000000 		.4byte	.LFE28-.LFB28
 7077 1495 01       		.uleb128 0x1
 7078 1496 9C       		.byte	0x9c
 7079 1497 9F140000 		.4byte	0x149f
 7080 149b AC140000 		.4byte	0x14ac
 7081 149f 41       		.uleb128 0x41
 7082 14a0 88150000 		.4byte	.LASF195
 7083 14a4 A2130000 		.4byte	0x13a2
 7084 14a8 02       		.uleb128 0x2
 7085 14a9 91       		.byte	0x91
 7086 14aa 74       		.sleb128 -12
 7087 14ab 00       		.byte	0
 7088 14ac 3A       		.uleb128 0x3a
 7089 14ad 110C0000 		.4byte	0xc11
 7090 14b1 02       		.byte	0x2
 7091 14b2 BA140000 		.4byte	0x14ba
 7092 14b6 C4140000 		.4byte	0x14c4
 7093 14ba 3B       		.uleb128 0x3b
 7094 14bb 88150000 		.4byte	.LASF195
 7095 14bf C4140000 		.4byte	0x14c4
 7096 14c3 00       		.byte	0
 7097 14c4 07       		.uleb128 0x7
 7098 14c5 CC110000 		.4byte	0x11cc
 7099 14c9 3F       		.uleb128 0x3f
 7100 14ca AC140000 		.4byte	0x14ac
 7101 14ce 6F130000 		.4byte	.LASF202
 7102 14d2 00000000 		.4byte	.LFB30
 7103 14d6 48000000 		.4byte	.LFE30-.LFB30
 7104 14da 01       		.uleb128 0x1
 7105 14db 9C       		.byte	0x9c
 7106 14dc E4140000 		.4byte	0x14e4
 7107 14e0 ED140000 		.4byte	0x14ed
 7108 14e4 3D       		.uleb128 0x3d
 7109 14e5 BA140000 		.4byte	0x14ba
 7110 14e9 02       		.uleb128 0x2
 7111 14ea 91       		.byte	0x91
 7112 14eb 74       		.sleb128 -12
 7113 14ec 00       		.byte	0
 7114 14ed 45       		.uleb128 0x45
 7115 14ee 2B0C0000 		.4byte	0xc2b
 7116 14f2 00000000 		.4byte	.LFB32
 7117 14f6 5A010000 		.4byte	.LFE32-.LFB32
 7118 14fa 01       		.uleb128 0x1
 7119 14fb 9C       		.byte	0x9c
 7120 14fc 04150000 		.4byte	0x1504
 7121 1500 8E150000 		.4byte	0x158e
 7122 1504 41       		.uleb128 0x41
 7123 1505 88150000 		.4byte	.LASF195
 7124 1509 8E150000 		.4byte	0x158e
 7125 150d 02       		.uleb128 0x2
 7126 150e 91       		.byte	0x91
ARM GAS  C:\Users\Chuck\AppData\Local\Temp\cc5X170Y.s 			page 151


 7127 150f 5C       		.sleb128 -36
 7128 1510 42       		.uleb128 0x42
 7129 1511 E2100000 		.4byte	.LASF199
 7130 1515 04       		.byte	0x4
 7131 1516 26       		.byte	0x26
 7132 1517 CC000000 		.4byte	0xcc
 7133 151b 02       		.uleb128 0x2
 7134 151c 91       		.byte	0x91
 7135 151d 58       		.sleb128 -40
 7136 151e 46       		.uleb128 0x46
 7137 151f 0A000000 		.4byte	.LBB8
 7138 1523 48010000 		.4byte	.LBE8-.LBB8
 7139 1527 72150000 		.4byte	0x1572
 7140 152b 44       		.uleb128 0x44
 7141 152c 34080000 		.4byte	.LASF201
 7142 1530 04       		.byte	0x4
 7143 1531 28       		.byte	0x28
 7144 1532 89000000 		.4byte	0x89
 7145 1536 02       		.uleb128 0x2
 7146 1537 91       		.byte	0x91
 7147 1538 74       		.sleb128 -12
 7148 1539 44       		.uleb128 0x44
 7149 153a BA050000 		.4byte	.LASF203
 7150 153e 04       		.byte	0x4
 7151 153f 2D       		.byte	0x2d
 7152 1540 B8000000 		.4byte	0xb8
 7153 1544 02       		.uleb128 0x2
 7154 1545 91       		.byte	0x91
 7155 1546 70       		.sleb128 -16
 7156 1547 44       		.uleb128 0x44
 7157 1548 590F0000 		.4byte	.LASF204
 7158 154c 04       		.byte	0x4
 7159 154d 32       		.byte	0x32
 7160 154e B8000000 		.4byte	0xb8
 7161 1552 02       		.uleb128 0x2
 7162 1553 91       		.byte	0x91
 7163 1554 6C       		.sleb128 -20
 7164 1555 44       		.uleb128 0x44
 7165 1556 6D0F0000 		.4byte	.LASF205
 7166 155a 04       		.byte	0x4
 7167 155b 37       		.byte	0x37
 7168 155c B8000000 		.4byte	0xb8
 7169 1560 02       		.uleb128 0x2
 7170 1561 91       		.byte	0x91
 7171 1562 68       		.sleb128 -24
 7172 1563 44       		.uleb128 0x44
 7173 1564 1B140000 		.4byte	.LASF206
 7174 1568 04       		.byte	0x4
 7175 1569 3F       		.byte	0x3f
 7176 156a 72150000 		.4byte	0x1572
 7177 156e 02       		.uleb128 0x2
 7178 156f 91       		.byte	0x91
 7179 1570 64       		.sleb128 -28
 7180 1571 00       		.byte	0
 7181 1572 47       		.uleb128 0x47
 7182 1573 04       		.byte	0x4
 7183 1574 04       		.byte	0x4
ARM GAS  C:\Users\Chuck\AppData\Local\Temp\cc5X170Y.s 			page 152


 7184 1575 3C       		.byte	0x3c
 7185 1576 48       		.uleb128 0x48
 7186 1577 57120000 		.4byte	.LASF207
 7187 157b 04       		.byte	0x4
 7188 157c 3D       		.byte	0x3d
 7189 157d AD000000 		.4byte	0xad
 7190 1581 48       		.uleb128 0x48
 7191 1582 04010000 		.4byte	.LASF208
 7192 1586 04       		.byte	0x4
 7193 1587 3E       		.byte	0x3e
 7194 1588 B8000000 		.4byte	0xb8
 7195 158c 00       		.byte	0
 7196 158d 00       		.byte	0
 7197 158e 07       		.uleb128 0x7
 7198 158f D8110000 		.4byte	0x11d8
 7199 1593 45       		.uleb128 0x45
 7200 1594 560C0000 		.4byte	0xc56
 7201 1598 00000000 		.4byte	.LFB33
 7202 159c D8010000 		.4byte	.LFE33-.LFB33
 7203 15a0 01       		.uleb128 0x1
 7204 15a1 9C       		.byte	0x9c
 7205 15a2 AA150000 		.4byte	0x15aa
 7206 15a6 7E160000 		.4byte	0x167e
 7207 15aa 41       		.uleb128 0x41
 7208 15ab 88150000 		.4byte	.LASF195
 7209 15af C4140000 		.4byte	0x14c4
 7210 15b3 02       		.uleb128 0x2
 7211 15b4 91       		.byte	0x91
 7212 15b5 54       		.sleb128 -44
 7213 15b6 42       		.uleb128 0x42
 7214 15b7 0D0C0000 		.4byte	.LASF200
 7215 15bb 04       		.byte	0x4
 7216 15bc 4A       		.byte	0x4a
 7217 15bd CC000000 		.4byte	0xcc
 7218 15c1 02       		.uleb128 0x2
 7219 15c2 91       		.byte	0x91
 7220 15c3 50       		.sleb128 -48
 7221 15c4 46       		.uleb128 0x46
 7222 15c5 0A000000 		.4byte	.LBB9
 7223 15c9 C6010000 		.4byte	.LBE9-.LBB9
 7224 15cd 62160000 		.4byte	0x1662
 7225 15d1 44       		.uleb128 0x44
 7226 15d2 34080000 		.4byte	.LASF201
 7227 15d6 04       		.byte	0x4
 7228 15d7 4C       		.byte	0x4c
 7229 15d8 89000000 		.4byte	0x89
 7230 15dc 02       		.uleb128 0x2
 7231 15dd 91       		.byte	0x91
 7232 15de 68       		.sleb128 -24
 7233 15df 44       		.uleb128 0x44
 7234 15e0 BA050000 		.4byte	.LASF203
 7235 15e4 04       		.byte	0x4
 7236 15e5 51       		.byte	0x51
 7237 15e6 B8000000 		.4byte	0xb8
 7238 15ea 02       		.uleb128 0x2
 7239 15eb 91       		.byte	0x91
 7240 15ec 64       		.sleb128 -28
ARM GAS  C:\Users\Chuck\AppData\Local\Temp\cc5X170Y.s 			page 153


 7241 15ed 44       		.uleb128 0x44
 7242 15ee 590F0000 		.4byte	.LASF204
 7243 15f2 04       		.byte	0x4
 7244 15f3 5A       		.byte	0x5a
 7245 15f4 B8000000 		.4byte	0xb8
 7246 15f8 02       		.uleb128 0x2
 7247 15f9 91       		.byte	0x91
 7248 15fa 60       		.sleb128 -32
 7249 15fb 44       		.uleb128 0x44
 7250 15fc 6D0F0000 		.4byte	.LASF205
 7251 1600 04       		.byte	0x4
 7252 1601 63       		.byte	0x63
 7253 1602 B8000000 		.4byte	0xb8
 7254 1606 02       		.uleb128 0x2
 7255 1607 91       		.byte	0x91
 7256 1608 5C       		.sleb128 -36
 7257 1609 44       		.uleb128 0x44
 7258 160a 1B140000 		.4byte	.LASF206
 7259 160e 04       		.byte	0x4
 7260 160f 6F       		.byte	0x6f
 7261 1610 62160000 		.4byte	0x1662
 7262 1614 02       		.uleb128 0x2
 7263 1615 91       		.byte	0x91
 7264 1616 58       		.sleb128 -40
 7265 1617 46       		.uleb128 0x46
 7266 1618 5C000000 		.4byte	.LBB10
 7267 161c 2A000000 		.4byte	.LBE10-.LBB10
 7268 1620 31160000 		.4byte	0x1631
 7269 1624 49       		.uleb128 0x49
 7270 1625 6B00     		.ascii	"k\000"
 7271 1627 04       		.byte	0x4
 7272 1628 54       		.byte	0x54
 7273 1629 90000000 		.4byte	0x90
 7274 162d 02       		.uleb128 0x2
 7275 162e 91       		.byte	0x91
 7276 162f 74       		.sleb128 -12
 7277 1630 00       		.byte	0
 7278 1631 46       		.uleb128 0x46
 7279 1632 C4000000 		.4byte	.LBB11
 7280 1636 2A000000 		.4byte	.LBE11-.LBB11
 7281 163a 4B160000 		.4byte	0x164b
 7282 163e 49       		.uleb128 0x49
 7283 163f 6B00     		.ascii	"k\000"
 7284 1641 04       		.byte	0x4
 7285 1642 5D       		.byte	0x5d
 7286 1643 90000000 		.4byte	0x90
 7287 1647 02       		.uleb128 0x2
 7288 1648 91       		.byte	0x91
 7289 1649 70       		.sleb128 -16
 7290 164a 00       		.byte	0
 7291 164b 43       		.uleb128 0x43
 7292 164c 2C010000 		.4byte	.LBB12
 7293 1650 2A000000 		.4byte	.LBE12-.LBB12
 7294 1654 49       		.uleb128 0x49
 7295 1655 6B00     		.ascii	"k\000"
 7296 1657 04       		.byte	0x4
 7297 1658 66       		.byte	0x66
ARM GAS  C:\Users\Chuck\AppData\Local\Temp\cc5X170Y.s 			page 154


 7298 1659 90000000 		.4byte	0x90
 7299 165d 02       		.uleb128 0x2
 7300 165e 91       		.byte	0x91
 7301 165f 6C       		.sleb128 -20
 7302 1660 00       		.byte	0
 7303 1661 00       		.byte	0
 7304 1662 47       		.uleb128 0x47
 7305 1663 04       		.byte	0x4
 7306 1664 04       		.byte	0x4
 7307 1665 6C       		.byte	0x6c
 7308 1666 48       		.uleb128 0x48
 7309 1667 57120000 		.4byte	.LASF207
 7310 166b 04       		.byte	0x4
 7311 166c 6D       		.byte	0x6d
 7312 166d AD000000 		.4byte	0xad
 7313 1671 48       		.uleb128 0x48
 7314 1672 04010000 		.4byte	.LASF208
 7315 1676 04       		.byte	0x4
 7316 1677 6E       		.byte	0x6e
 7317 1678 B8000000 		.4byte	0xb8
 7318 167c 00       		.byte	0
 7319 167d 00       		.byte	0
 7320 167e 40       		.uleb128 0x40
 7321 167f 810C0000 		.4byte	0xc81
 7322 1683 00000000 		.4byte	.LFB34
 7323 1687 18000000 		.4byte	.LFE34-.LFB34
 7324 168b 01       		.uleb128 0x1
 7325 168c 9C       		.byte	0x9c
 7326 168d 95160000 		.4byte	0x1695
 7327 1691 A2160000 		.4byte	0x16a2
 7328 1695 41       		.uleb128 0x41
 7329 1696 88150000 		.4byte	.LASF195
 7330 169a C4140000 		.4byte	0x14c4
 7331 169e 02       		.uleb128 0x2
 7332 169f 91       		.byte	0x91
 7333 16a0 74       		.sleb128 -12
 7334 16a1 00       		.byte	0
 7335 16a2 40       		.uleb128 0x40
 7336 16a3 A70C0000 		.4byte	0xca7
 7337 16a7 00000000 		.4byte	.LFB35
 7338 16ab 18000000 		.4byte	.LFE35-.LFB35
 7339 16af 01       		.uleb128 0x1
 7340 16b0 9C       		.byte	0x9c
 7341 16b1 B9160000 		.4byte	0x16b9
 7342 16b5 C6160000 		.4byte	0x16c6
 7343 16b9 41       		.uleb128 0x41
 7344 16ba 88150000 		.4byte	.LASF195
 7345 16be C4140000 		.4byte	0x14c4
 7346 16c2 02       		.uleb128 0x2
 7347 16c3 91       		.byte	0x91
 7348 16c4 74       		.sleb128 -12
 7349 16c5 00       		.byte	0
 7350 16c6 3A       		.uleb128 0x3a
 7351 16c7 280D0000 		.4byte	0xd28
 7352 16cb 02       		.byte	0x2
 7353 16cc D4160000 		.4byte	0x16d4
 7354 16d0 DE160000 		.4byte	0x16de
ARM GAS  C:\Users\Chuck\AppData\Local\Temp\cc5X170Y.s 			page 155


 7355 16d4 3B       		.uleb128 0x3b
 7356 16d5 88150000 		.4byte	.LASF195
 7357 16d9 DE160000 		.4byte	0x16de
 7358 16dd 00       		.byte	0
 7359 16de 07       		.uleb128 0x7
 7360 16df BA110000 		.4byte	0x11ba
 7361 16e3 3F       		.uleb128 0x3f
 7362 16e4 C6160000 		.4byte	0x16c6
 7363 16e8 E10B0000 		.4byte	.LASF209
 7364 16ec 00000000 		.4byte	.LFB37
 7365 16f0 34000000 		.4byte	.LFE37-.LFB37
 7366 16f4 01       		.uleb128 0x1
 7367 16f5 9C       		.byte	0x9c
 7368 16f6 FE160000 		.4byte	0x16fe
 7369 16fa 07170000 		.4byte	0x1707
 7370 16fe 3D       		.uleb128 0x3d
 7371 16ff D4160000 		.4byte	0x16d4
 7372 1703 02       		.uleb128 0x2
 7373 1704 91       		.byte	0x91
 7374 1705 74       		.sleb128 -12
 7375 1706 00       		.byte	0
 7376 1707 45       		.uleb128 0x45
 7377 1708 420D0000 		.4byte	0xd42
 7378 170c 00000000 		.4byte	.LFB39
 7379 1710 70000000 		.4byte	.LFE39-.LFB39
 7380 1714 01       		.uleb128 0x1
 7381 1715 9C       		.byte	0x9c
 7382 1716 1E170000 		.4byte	0x171e
 7383 171a 5F170000 		.4byte	0x175f
 7384 171e 41       		.uleb128 0x41
 7385 171f 88150000 		.4byte	.LASF195
 7386 1723 5F170000 		.4byte	0x175f
 7387 1727 02       		.uleb128 0x2
 7388 1728 91       		.byte	0x91
 7389 1729 6C       		.sleb128 -20
 7390 172a 42       		.uleb128 0x42
 7391 172b E2100000 		.4byte	.LASF199
 7392 172f 05       		.byte	0x5
 7393 1730 1D       		.byte	0x1d
 7394 1731 CC000000 		.4byte	0xcc
 7395 1735 02       		.uleb128 0x2
 7396 1736 91       		.byte	0x91
 7397 1737 68       		.sleb128 -24
 7398 1738 43       		.uleb128 0x43
 7399 1739 0A000000 		.4byte	.LBB14
 7400 173d 5E000000 		.4byte	.LBE14-.LBB14
 7401 1741 44       		.uleb128 0x44
 7402 1742 34080000 		.4byte	.LASF201
 7403 1746 05       		.byte	0x5
 7404 1747 1F       		.byte	0x1f
 7405 1748 89000000 		.4byte	0x89
 7406 174c 02       		.uleb128 0x2
 7407 174d 91       		.byte	0x91
 7408 174e 74       		.sleb128 -12
 7409 174f 44       		.uleb128 0x44
 7410 1750 29140000 		.4byte	.LASF210
 7411 1754 05       		.byte	0x5
ARM GAS  C:\Users\Chuck\AppData\Local\Temp\cc5X170Y.s 			page 156


 7412 1755 23       		.byte	0x23
 7413 1756 B8000000 		.4byte	0xb8
 7414 175a 02       		.uleb128 0x2
 7415 175b 91       		.byte	0x91
 7416 175c 70       		.sleb128 -16
 7417 175d 00       		.byte	0
 7418 175e 00       		.byte	0
 7419 175f 07       		.uleb128 0x7
 7420 1760 C6110000 		.4byte	0x11c6
 7421 1764 45       		.uleb128 0x45
 7422 1765 6D0D0000 		.4byte	0xd6d
 7423 1769 00000000 		.4byte	.LFB40
 7424 176d 92000000 		.4byte	.LFE40-.LFB40
 7425 1771 01       		.uleb128 0x1
 7426 1772 9C       		.byte	0x9c
 7427 1773 7B170000 		.4byte	0x177b
 7428 1777 D2170000 		.4byte	0x17d2
 7429 177b 41       		.uleb128 0x41
 7430 177c 88150000 		.4byte	.LASF195
 7431 1780 DE160000 		.4byte	0x16de
 7432 1784 02       		.uleb128 0x2
 7433 1785 91       		.byte	0x91
 7434 1786 64       		.sleb128 -28
 7435 1787 42       		.uleb128 0x42
 7436 1788 0D0C0000 		.4byte	.LASF200
 7437 178c 05       		.byte	0x5
 7438 178d 2C       		.byte	0x2c
 7439 178e CC000000 		.4byte	0xcc
 7440 1792 02       		.uleb128 0x2
 7441 1793 91       		.byte	0x91
 7442 1794 60       		.sleb128 -32
 7443 1795 43       		.uleb128 0x43
 7444 1796 0A000000 		.4byte	.LBB15
 7445 179a 80000000 		.4byte	.LBE15-.LBB15
 7446 179e 44       		.uleb128 0x44
 7447 179f 34080000 		.4byte	.LASF201
 7448 17a3 05       		.byte	0x5
 7449 17a4 2E       		.byte	0x2e
 7450 17a5 89000000 		.4byte	0x89
 7451 17a9 02       		.uleb128 0x2
 7452 17aa 91       		.byte	0x91
 7453 17ab 70       		.sleb128 -16
 7454 17ac 44       		.uleb128 0x44
 7455 17ad 29140000 		.4byte	.LASF210
 7456 17b1 05       		.byte	0x5
 7457 17b2 32       		.byte	0x32
 7458 17b3 B8000000 		.4byte	0xb8
 7459 17b7 02       		.uleb128 0x2
 7460 17b8 91       		.byte	0x91
 7461 17b9 6C       		.sleb128 -20
 7462 17ba 43       		.uleb128 0x43
 7463 17bb 3A000000 		.4byte	.LBB16
 7464 17bf 2A000000 		.4byte	.LBE16-.LBB16
 7465 17c3 49       		.uleb128 0x49
 7466 17c4 6B00     		.ascii	"k\000"
 7467 17c6 05       		.byte	0x5
 7468 17c7 35       		.byte	0x35
ARM GAS  C:\Users\Chuck\AppData\Local\Temp\cc5X170Y.s 			page 157


 7469 17c8 90000000 		.4byte	0x90
 7470 17cc 02       		.uleb128 0x2
 7471 17cd 91       		.byte	0x91
 7472 17ce 74       		.sleb128 -12
 7473 17cf 00       		.byte	0
 7474 17d0 00       		.byte	0
 7475 17d1 00       		.byte	0
 7476 17d2 40       		.uleb128 0x40
 7477 17d3 980D0000 		.4byte	0xd98
 7478 17d7 00000000 		.4byte	.LFB41
 7479 17db 18000000 		.4byte	.LFE41-.LFB41
 7480 17df 01       		.uleb128 0x1
 7481 17e0 9C       		.byte	0x9c
 7482 17e1 E9170000 		.4byte	0x17e9
 7483 17e5 F6170000 		.4byte	0x17f6
 7484 17e9 41       		.uleb128 0x41
 7485 17ea 88150000 		.4byte	.LASF195
 7486 17ee DE160000 		.4byte	0x16de
 7487 17f2 02       		.uleb128 0x2
 7488 17f3 91       		.byte	0x91
 7489 17f4 74       		.sleb128 -12
 7490 17f5 00       		.byte	0
 7491 17f6 40       		.uleb128 0x40
 7492 17f7 BE0D0000 		.4byte	0xdbe
 7493 17fb 00000000 		.4byte	.LFB42
 7494 17ff 18000000 		.4byte	.LFE42-.LFB42
 7495 1803 01       		.uleb128 0x1
 7496 1804 9C       		.byte	0x9c
 7497 1805 0D180000 		.4byte	0x180d
 7498 1809 1A180000 		.4byte	0x181a
 7499 180d 41       		.uleb128 0x41
 7500 180e 88150000 		.4byte	.LASF195
 7501 1812 DE160000 		.4byte	0x16de
 7502 1816 02       		.uleb128 0x2
 7503 1817 91       		.byte	0x91
 7504 1818 74       		.sleb128 -12
 7505 1819 00       		.byte	0
 7506 181a 3A       		.uleb128 0x3a
 7507 181b A70E0000 		.4byte	0xea7
 7508 181f 02       		.byte	0x2
 7509 1820 28180000 		.4byte	0x1828
 7510 1824 32180000 		.4byte	0x1832
 7511 1828 3B       		.uleb128 0x3b
 7512 1829 88150000 		.4byte	.LASF195
 7513 182d 32180000 		.4byte	0x1832
 7514 1831 00       		.byte	0
 7515 1832 07       		.uleb128 0x7
 7516 1833 A8110000 		.4byte	0x11a8
 7517 1837 3F       		.uleb128 0x3f
 7518 1838 1A180000 		.4byte	0x181a
 7519 183c AD010000 		.4byte	.LASF211
 7520 1840 00000000 		.4byte	.LFB51
 7521 1844 48000000 		.4byte	.LFE51-.LFB51
 7522 1848 01       		.uleb128 0x1
 7523 1849 9C       		.byte	0x9c
 7524 184a 52180000 		.4byte	0x1852
 7525 184e 5B180000 		.4byte	0x185b
ARM GAS  C:\Users\Chuck\AppData\Local\Temp\cc5X170Y.s 			page 158


 7526 1852 3D       		.uleb128 0x3d
 7527 1853 28180000 		.4byte	0x1828
 7528 1857 02       		.uleb128 0x2
 7529 1858 91       		.byte	0x91
 7530 1859 74       		.sleb128 -12
 7531 185a 00       		.byte	0
 7532 185b 45       		.uleb128 0x45
 7533 185c C10E0000 		.4byte	0xec1
 7534 1860 00000000 		.4byte	.LFB53
 7535 1864 56020000 		.4byte	.LFE53-.LFB53
 7536 1868 01       		.uleb128 0x1
 7537 1869 9C       		.byte	0x9c
 7538 186a 72180000 		.4byte	0x1872
 7539 186e 75190000 		.4byte	0x1975
 7540 1872 41       		.uleb128 0x41
 7541 1873 88150000 		.4byte	.LASF195
 7542 1877 75190000 		.4byte	0x1975
 7543 187b 02       		.uleb128 0x2
 7544 187c 91       		.byte	0x91
 7545 187d 5C       		.sleb128 -36
 7546 187e 42       		.uleb128 0x42
 7547 187f E2100000 		.4byte	.LASF199
 7548 1883 06       		.byte	0x6
 7549 1884 4E       		.byte	0x4e
 7550 1885 CC000000 		.4byte	0xcc
 7551 1889 02       		.uleb128 0x2
 7552 188a 91       		.byte	0x91
 7553 188b 58       		.sleb128 -40
 7554 188c 46       		.uleb128 0x46
 7555 188d 0A000000 		.4byte	.LBB18
 7556 1891 44020000 		.4byte	.LBE18-.LBB18
 7557 1895 3A190000 		.4byte	0x193a
 7558 1899 44       		.uleb128 0x44
 7559 189a 34080000 		.4byte	.LASF201
 7560 189e 06       		.byte	0x6
 7561 189f 50       		.byte	0x50
 7562 18a0 89000000 		.4byte	0x89
 7563 18a4 02       		.uleb128 0x2
 7564 18a5 91       		.byte	0x91
 7565 18a6 74       		.sleb128 -12
 7566 18a7 46       		.uleb128 0x46
 7567 18a8 50000000 		.4byte	.LBB19
 7568 18ac 7A000000 		.4byte	.LBE19-.LBB19
 7569 18b0 D9180000 		.4byte	0x18d9
 7570 18b4 49       		.uleb128 0x49
 7571 18b5 6900     		.ascii	"i\000"
 7572 18b7 06       		.byte	0x6
 7573 18b8 56       		.byte	0x56
 7574 18b9 97000000 		.4byte	0x97
 7575 18bd 02       		.uleb128 0x2
 7576 18be 91       		.byte	0x91
 7577 18bf 73       		.sleb128 -13
 7578 18c0 43       		.uleb128 0x43
 7579 18c1 5A000000 		.4byte	.LBB20
 7580 18c5 54000000 		.4byte	.LBE20-.LBB20
 7581 18c9 44       		.uleb128 0x44
 7582 18ca 5C120000 		.4byte	.LASF212
ARM GAS  C:\Users\Chuck\AppData\Local\Temp\cc5X170Y.s 			page 159


 7583 18ce 06       		.byte	0x6
 7584 18cf 5A       		.byte	0x5a
 7585 18d0 3A190000 		.4byte	0x193a
 7586 18d4 02       		.uleb128 0x2
 7587 18d5 91       		.byte	0x91
 7588 18d6 6C       		.sleb128 -20
 7589 18d7 00       		.byte	0
 7590 18d8 00       		.byte	0
 7591 18d9 46       		.uleb128 0x46
 7592 18da 0C010000 		.4byte	.LBB21
 7593 18de 7A000000 		.4byte	.LBE21-.LBB21
 7594 18e2 0B190000 		.4byte	0x190b
 7595 18e6 49       		.uleb128 0x49
 7596 18e7 6900     		.ascii	"i\000"
 7597 18e9 06       		.byte	0x6
 7598 18ea 66       		.byte	0x66
 7599 18eb 97000000 		.4byte	0x97
 7600 18ef 02       		.uleb128 0x2
 7601 18f0 91       		.byte	0x91
 7602 18f1 72       		.sleb128 -14
 7603 18f2 43       		.uleb128 0x43
 7604 18f3 16010000 		.4byte	.LBB22
 7605 18f7 54000000 		.4byte	.LBE22-.LBB22
 7606 18fb 44       		.uleb128 0x44
 7607 18fc FA070000 		.4byte	.LASF213
 7608 1900 06       		.byte	0x6
 7609 1901 6A       		.byte	0x6a
 7610 1902 59190000 		.4byte	0x1959
 7611 1906 02       		.uleb128 0x2
 7612 1907 91       		.byte	0x91
 7613 1908 68       		.sleb128 -24
 7614 1909 00       		.byte	0
 7615 190a 00       		.byte	0
 7616 190b 43       		.uleb128 0x43
 7617 190c C8010000 		.4byte	.LBB23
 7618 1910 84000000 		.4byte	.LBE23-.LBB23
 7619 1914 49       		.uleb128 0x49
 7620 1915 6900     		.ascii	"i\000"
 7621 1917 06       		.byte	0x6
 7622 1918 76       		.byte	0x76
 7623 1919 97000000 		.4byte	0x97
 7624 191d 02       		.uleb128 0x2
 7625 191e 91       		.byte	0x91
 7626 191f 71       		.sleb128 -15
 7627 1920 43       		.uleb128 0x43
 7628 1921 D2010000 		.4byte	.LBB24
 7629 1925 5E000000 		.4byte	.LBE24-.LBB24
 7630 1929 44       		.uleb128 0x44
 7631 192a F5150000 		.4byte	.LASF214
 7632 192e 06       		.byte	0x6
 7633 192f 77       		.byte	0x77
 7634 1930 B8000000 		.4byte	0xb8
 7635 1934 02       		.uleb128 0x2
 7636 1935 91       		.byte	0x91
 7637 1936 64       		.sleb128 -28
 7638 1937 00       		.byte	0
 7639 1938 00       		.byte	0
ARM GAS  C:\Users\Chuck\AppData\Local\Temp\cc5X170Y.s 			page 160


 7640 1939 00       		.byte	0
 7641 193a 4A       		.uleb128 0x4a
 7642 193b 04       		.byte	0x4
 7643 193c 06       		.byte	0x6
 7644 193d 57       		.byte	0x57
 7645 193e 59190000 		.4byte	0x1959
 7646 1942 48       		.uleb128 0x48
 7647 1943 57120000 		.4byte	.LASF207
 7648 1947 06       		.byte	0x6
 7649 1948 58       		.byte	0x58
 7650 1949 AD000000 		.4byte	0xad
 7651 194d 48       		.uleb128 0x48
 7652 194e 04010000 		.4byte	.LASF208
 7653 1952 06       		.byte	0x6
 7654 1953 59       		.byte	0x59
 7655 1954 B8000000 		.4byte	0xb8
 7656 1958 00       		.byte	0
 7657 1959 47       		.uleb128 0x47
 7658 195a 04       		.byte	0x4
 7659 195b 06       		.byte	0x6
 7660 195c 67       		.byte	0x67
 7661 195d 48       		.uleb128 0x48
 7662 195e 57120000 		.4byte	.LASF207
 7663 1962 06       		.byte	0x6
 7664 1963 68       		.byte	0x68
 7665 1964 F1000000 		.4byte	0xf1
 7666 1968 48       		.uleb128 0x48
 7667 1969 04010000 		.4byte	.LASF208
 7668 196d 06       		.byte	0x6
 7669 196e 69       		.byte	0x69
 7670 196f B8000000 		.4byte	0xb8
 7671 1973 00       		.byte	0
 7672 1974 00       		.byte	0
 7673 1975 07       		.uleb128 0x7
 7674 1976 B4110000 		.4byte	0x11b4
 7675 197a 45       		.uleb128 0x45
 7676 197b EC0E0000 		.4byte	0xeec
 7677 197f 00000000 		.4byte	.LFB54
 7678 1983 B4020000 		.4byte	.LFE54-.LFB54
 7679 1987 01       		.uleb128 0x1
 7680 1988 9C       		.byte	0x9c
 7681 1989 91190000 		.4byte	0x1991
 7682 198d D41A0000 		.4byte	0x1ad4
 7683 1991 41       		.uleb128 0x41
 7684 1992 88150000 		.4byte	.LASF195
 7685 1996 32180000 		.4byte	0x1832
 7686 199a 02       		.uleb128 0x2
 7687 199b 91       		.byte	0x91
 7688 199c 54       		.sleb128 -44
 7689 199d 42       		.uleb128 0x42
 7690 199e 0D0C0000 		.4byte	.LASF200
 7691 19a2 06       		.byte	0x6
 7692 19a3 81       		.byte	0x81
 7693 19a4 CC000000 		.4byte	0xcc
 7694 19a8 02       		.uleb128 0x2
 7695 19a9 91       		.byte	0x91
 7696 19aa 50       		.sleb128 -48
ARM GAS  C:\Users\Chuck\AppData\Local\Temp\cc5X170Y.s 			page 161


 7697 19ab 46       		.uleb128 0x46
 7698 19ac 0A000000 		.4byte	.LBB25
 7699 19b0 A2020000 		.4byte	.LBE25-.LBB25
 7700 19b4 991A0000 		.4byte	0x1a99
 7701 19b8 44       		.uleb128 0x44
 7702 19b9 34080000 		.4byte	.LASF201
 7703 19bd 06       		.byte	0x6
 7704 19be 83       		.byte	0x83
 7705 19bf 89000000 		.4byte	0x89
 7706 19c3 02       		.uleb128 0x2
 7707 19c4 91       		.byte	0x91
 7708 19c5 74       		.sleb128 -12
 7709 19c6 44       		.uleb128 0x44
 7710 19c7 7A070000 		.4byte	.LASF215
 7711 19cb 06       		.byte	0x6
 7712 19cc 85       		.byte	0x85
 7713 19cd 97000000 		.4byte	0x97
 7714 19d1 02       		.uleb128 0x2
 7715 19d2 91       		.byte	0x91
 7716 19d3 6B       		.sleb128 -21
 7717 19d4 44       		.uleb128 0x44
 7718 19d5 9B090000 		.4byte	.LASF216
 7719 19d9 06       		.byte	0x6
 7720 19da 99       		.byte	0x99
 7721 19db 97000000 		.4byte	0x97
 7722 19df 02       		.uleb128 0x2
 7723 19e0 91       		.byte	0x91
 7724 19e1 6A       		.sleb128 -22
 7725 19e2 44       		.uleb128 0x44
 7726 19e3 E30F0000 		.4byte	.LASF217
 7727 19e7 06       		.byte	0x6
 7728 19e8 AD       		.byte	0xad
 7729 19e9 97000000 		.4byte	0x97
 7730 19ed 02       		.uleb128 0x2
 7731 19ee 91       		.byte	0x91
 7732 19ef 69       		.sleb128 -23
 7733 19f0 46       		.uleb128 0x46
 7734 19f1 40000000 		.4byte	.LBB26
 7735 19f5 A6000000 		.4byte	.LBE26-.LBB26
 7736 19f9 221A0000 		.4byte	0x1a22
 7737 19fd 49       		.uleb128 0x49
 7738 19fe 6900     		.ascii	"i\000"
 7739 1a00 06       		.byte	0x6
 7740 1a01 89       		.byte	0x89
 7741 1a02 97000000 		.4byte	0x97
 7742 1a06 02       		.uleb128 0x2
 7743 1a07 91       		.byte	0x91
 7744 1a08 73       		.sleb128 -13
 7745 1a09 43       		.uleb128 0x43
 7746 1a0a 4A000000 		.4byte	.LBB27
 7747 1a0e 7E000000 		.4byte	.LBE27-.LBB27
 7748 1a12 44       		.uleb128 0x44
 7749 1a13 1E080000 		.4byte	.LASF218
 7750 1a17 06       		.byte	0x6
 7751 1a18 8D       		.byte	0x8d
 7752 1a19 991A0000 		.4byte	0x1a99
 7753 1a1d 02       		.uleb128 0x2
ARM GAS  C:\Users\Chuck\AppData\Local\Temp\cc5X170Y.s 			page 162


 7754 1a1e 91       		.byte	0x91
 7755 1a1f 64       		.sleb128 -28
 7756 1a20 00       		.byte	0
 7757 1a21 00       		.byte	0
 7758 1a22 46       		.uleb128 0x46
 7759 1a23 18010000 		.4byte	.LBB28
 7760 1a27 A6000000 		.4byte	.LBE28-.LBB28
 7761 1a2b 541A0000 		.4byte	0x1a54
 7762 1a2f 49       		.uleb128 0x49
 7763 1a30 6900     		.ascii	"i\000"
 7764 1a32 06       		.byte	0x6
 7765 1a33 9D       		.byte	0x9d
 7766 1a34 97000000 		.4byte	0x97
 7767 1a38 02       		.uleb128 0x2
 7768 1a39 91       		.byte	0x91
 7769 1a3a 72       		.sleb128 -14
 7770 1a3b 43       		.uleb128 0x43
 7771 1a3c 22010000 		.4byte	.LBB29
 7772 1a40 7E000000 		.4byte	.LBE29-.LBB29
 7773 1a44 44       		.uleb128 0x44
 7774 1a45 2D0D0000 		.4byte	.LASF219
 7775 1a49 06       		.byte	0x6
 7776 1a4a A1       		.byte	0xa1
 7777 1a4b B81A0000 		.4byte	0x1ab8
 7778 1a4f 02       		.uleb128 0x2
 7779 1a50 91       		.byte	0x91
 7780 1a51 60       		.sleb128 -32
 7781 1a52 00       		.byte	0
 7782 1a53 00       		.byte	0
 7783 1a54 43       		.uleb128 0x43
 7784 1a55 F0010000 		.4byte	.LBB30
 7785 1a59 BA000000 		.4byte	.LBE30-.LBB30
 7786 1a5d 49       		.uleb128 0x49
 7787 1a5e 6900     		.ascii	"i\000"
 7788 1a60 06       		.byte	0x6
 7789 1a61 B1       		.byte	0xb1
 7790 1a62 97000000 		.4byte	0x97
 7791 1a66 02       		.uleb128 0x2
 7792 1a67 91       		.byte	0x91
 7793 1a68 71       		.sleb128 -15
 7794 1a69 43       		.uleb128 0x43
 7795 1a6a FA010000 		.4byte	.LBB31
 7796 1a6e 92000000 		.4byte	.LBE31-.LBB31
 7797 1a72 44       		.uleb128 0x44
 7798 1a73 C90E0000 		.4byte	.LASF220
 7799 1a77 06       		.byte	0x6
 7800 1a78 B2       		.byte	0xb2
 7801 1a79 B8000000 		.4byte	0xb8
 7802 1a7d 02       		.uleb128 0x2
 7803 1a7e 91       		.byte	0x91
 7804 1a7f 5C       		.sleb128 -36
 7805 1a80 43       		.uleb128 0x43
 7806 1a81 14020000 		.4byte	.LBB32
 7807 1a85 2A000000 		.4byte	.LBE32-.LBB32
 7808 1a89 49       		.uleb128 0x49
 7809 1a8a 6B00     		.ascii	"k\000"
 7810 1a8c 06       		.byte	0x6
ARM GAS  C:\Users\Chuck\AppData\Local\Temp\cc5X170Y.s 			page 163


 7811 1a8d B5       		.byte	0xb5
 7812 1a8e 90000000 		.4byte	0x90
 7813 1a92 02       		.uleb128 0x2
 7814 1a93 91       		.byte	0x91
 7815 1a94 6C       		.sleb128 -20
 7816 1a95 00       		.byte	0
 7817 1a96 00       		.byte	0
 7818 1a97 00       		.byte	0
 7819 1a98 00       		.byte	0
 7820 1a99 4A       		.uleb128 0x4a
 7821 1a9a 04       		.byte	0x4
 7822 1a9b 06       		.byte	0x6
 7823 1a9c 8A       		.byte	0x8a
 7824 1a9d B81A0000 		.4byte	0x1ab8
 7825 1aa1 48       		.uleb128 0x48
 7826 1aa2 57120000 		.4byte	.LASF207
 7827 1aa6 06       		.byte	0x6
 7828 1aa7 8B       		.byte	0x8b
 7829 1aa8 AD000000 		.4byte	0xad
 7830 1aac 48       		.uleb128 0x48
 7831 1aad 04010000 		.4byte	.LASF208
 7832 1ab1 06       		.byte	0x6
 7833 1ab2 8C       		.byte	0x8c
 7834 1ab3 B8000000 		.4byte	0xb8
 7835 1ab7 00       		.byte	0
 7836 1ab8 47       		.uleb128 0x47
 7837 1ab9 04       		.byte	0x4
 7838 1aba 06       		.byte	0x6
 7839 1abb 9E       		.byte	0x9e
 7840 1abc 48       		.uleb128 0x48
 7841 1abd 57120000 		.4byte	.LASF207
 7842 1ac1 06       		.byte	0x6
 7843 1ac2 9F       		.byte	0x9f
 7844 1ac3 F1000000 		.4byte	0xf1
 7845 1ac7 48       		.uleb128 0x48
 7846 1ac8 04010000 		.4byte	.LASF208
 7847 1acc 06       		.byte	0x6
 7848 1acd A0       		.byte	0xa0
 7849 1ace B8000000 		.4byte	0xb8
 7850 1ad2 00       		.byte	0
 7851 1ad3 00       		.byte	0
 7852 1ad4 40       		.uleb128 0x40
 7853 1ad5 170F0000 		.4byte	0xf17
 7854 1ad9 00000000 		.4byte	.LFB55
 7855 1add 18000000 		.4byte	.LFE55-.LFB55
 7856 1ae1 01       		.uleb128 0x1
 7857 1ae2 9C       		.byte	0x9c
 7858 1ae3 EB1A0000 		.4byte	0x1aeb
 7859 1ae7 F81A0000 		.4byte	0x1af8
 7860 1aeb 41       		.uleb128 0x41
 7861 1aec 88150000 		.4byte	.LASF195
 7862 1af0 32180000 		.4byte	0x1832
 7863 1af4 02       		.uleb128 0x2
 7864 1af5 91       		.byte	0x91
 7865 1af6 74       		.sleb128 -12
 7866 1af7 00       		.byte	0
 7867 1af8 40       		.uleb128 0x40
ARM GAS  C:\Users\Chuck\AppData\Local\Temp\cc5X170Y.s 			page 164


 7868 1af9 3D0F0000 		.4byte	0xf3d
 7869 1afd 00000000 		.4byte	.LFB56
 7870 1b01 18000000 		.4byte	.LFE56-.LFB56
 7871 1b05 01       		.uleb128 0x1
 7872 1b06 9C       		.byte	0x9c
 7873 1b07 0F1B0000 		.4byte	0x1b0f
 7874 1b0b 1C1B0000 		.4byte	0x1b1c
 7875 1b0f 41       		.uleb128 0x41
 7876 1b10 88150000 		.4byte	.LASF195
 7877 1b14 32180000 		.4byte	0x1832
 7878 1b18 02       		.uleb128 0x2
 7879 1b19 91       		.byte	0x91
 7880 1b1a 74       		.sleb128 -12
 7881 1b1b 00       		.byte	0
 7882 1b1c 40       		.uleb128 0x40
 7883 1b1d 21040000 		.4byte	0x421
 7884 1b21 00000000 		.4byte	.LFB62
 7885 1b25 14000000 		.4byte	.LFE62-.LFB62
 7886 1b29 01       		.uleb128 0x1
 7887 1b2a 9C       		.byte	0x9c
 7888 1b2b 331B0000 		.4byte	0x1b33
 7889 1b2f 401B0000 		.4byte	0x1b40
 7890 1b33 41       		.uleb128 0x41
 7891 1b34 88150000 		.4byte	.LASF195
 7892 1b38 401B0000 		.4byte	0x1b40
 7893 1b3c 02       		.uleb128 0x2
 7894 1b3d 91       		.byte	0x91
 7895 1b3e 74       		.sleb128 -12
 7896 1b3f 00       		.byte	0
 7897 1b40 07       		.uleb128 0x7
 7898 1b41 8B0F0000 		.4byte	0xf8b
 7899 1b45 4B       		.uleb128 0x4b
 7900 1b46 C10F0000 		.4byte	0xfc1
 7901 1b4a 00000000 		.4byte	.LFB109
 7902 1b4e 14000000 		.4byte	.LFE109-.LFB109
 7903 1b52 01       		.uleb128 0x1
 7904 1b53 9C       		.byte	0x9c
 7905 1b54 3A       		.uleb128 0x3a
 7906 1b55 1C100000 		.4byte	0x101c
 7907 1b59 02       		.byte	0x2
 7908 1b5a 621B0000 		.4byte	0x1b62
 7909 1b5e 6C1B0000 		.4byte	0x1b6c
 7910 1b62 3B       		.uleb128 0x3b
 7911 1b63 88150000 		.4byte	.LASF195
 7912 1b67 6C1B0000 		.4byte	0x1b6c
 7913 1b6b 00       		.byte	0
 7914 1b6c 07       		.uleb128 0x7
 7915 1b6d 14110000 		.4byte	0x1114
 7916 1b71 3C       		.uleb128 0x3c
 7917 1b72 541B0000 		.4byte	0x1b54
 7918 1b76 4F0A0000 		.4byte	.LASF221
 7919 1b7a 00000000 		.4byte	.LFB114
 7920 1b7e 24000000 		.4byte	.LFE114-.LFB114
 7921 1b82 01       		.uleb128 0x1
 7922 1b83 9C       		.byte	0x9c
 7923 1b84 8C1B0000 		.4byte	0x1b8c
 7924 1b88 951B0000 		.4byte	0x1b95
ARM GAS  C:\Users\Chuck\AppData\Local\Temp\cc5X170Y.s 			page 165


 7925 1b8c 3D       		.uleb128 0x3d
 7926 1b8d 621B0000 		.4byte	0x1b62
 7927 1b91 02       		.uleb128 0x2
 7928 1b92 91       		.byte	0x91
 7929 1b93 74       		.sleb128 -12
 7930 1b94 00       		.byte	0
 7931 1b95 45       		.uleb128 0x45
 7932 1b96 92100000 		.4byte	0x1092
 7933 1b9a 00000000 		.4byte	.LFB121
 7934 1b9e 24000000 		.4byte	.LFE121-.LFB121
 7935 1ba2 01       		.uleb128 0x1
 7936 1ba3 9C       		.byte	0x9c
 7937 1ba4 AC1B0000 		.4byte	0x1bac
 7938 1ba8 B91B0000 		.4byte	0x1bb9
 7939 1bac 41       		.uleb128 0x41
 7940 1bad 88150000 		.4byte	.LASF195
 7941 1bb1 6C1B0000 		.4byte	0x1b6c
 7942 1bb5 02       		.uleb128 0x2
 7943 1bb6 91       		.byte	0x91
 7944 1bb7 74       		.sleb128 -12
 7945 1bb8 00       		.byte	0
 7946 1bb9 45       		.uleb128 0x45
 7947 1bba AC100000 		.4byte	0x10ac
 7948 1bbe 00000000 		.4byte	.LFB122
 7949 1bc2 24000000 		.4byte	.LFE122-.LFB122
 7950 1bc6 01       		.uleb128 0x1
 7951 1bc7 9C       		.byte	0x9c
 7952 1bc8 D01B0000 		.4byte	0x1bd0
 7953 1bcc DD1B0000 		.4byte	0x1bdd
 7954 1bd0 41       		.uleb128 0x41
 7955 1bd1 88150000 		.4byte	.LASF195
 7956 1bd5 6C1B0000 		.4byte	0x1b6c
 7957 1bd9 02       		.uleb128 0x2
 7958 1bda 91       		.byte	0x91
 7959 1bdb 74       		.sleb128 -12
 7960 1bdc 00       		.byte	0
 7961 1bdd 45       		.uleb128 0x45
 7962 1bde CA100000 		.4byte	0x10ca
 7963 1be2 00000000 		.4byte	.LFB123
 7964 1be6 40000000 		.4byte	.LFE123-.LFB123
 7965 1bea 01       		.uleb128 0x1
 7966 1beb 9C       		.byte	0x9c
 7967 1bec F41B0000 		.4byte	0x1bf4
 7968 1bf0 331C0000 		.4byte	0x1c33
 7969 1bf4 41       		.uleb128 0x41
 7970 1bf5 88150000 		.4byte	.LASF195
 7971 1bf9 6C1B0000 		.4byte	0x1b6c
 7972 1bfd 02       		.uleb128 0x2
 7973 1bfe 91       		.byte	0x91
 7974 1bff 6C       		.sleb128 -20
 7975 1c00 42       		.uleb128 0x42
 7976 1c01 540F0000 		.4byte	.LASF190
 7977 1c05 09       		.byte	0x9
 7978 1c06 52       		.byte	0x52
 7979 1c07 20110000 		.4byte	0x1120
 7980 1c0b 02       		.uleb128 0x2
 7981 1c0c 91       		.byte	0x91
ARM GAS  C:\Users\Chuck\AppData\Local\Temp\cc5X170Y.s 			page 166


 7982 1c0d 68       		.sleb128 -24
 7983 1c0e 42       		.uleb128 0x42
 7984 1c0f 40110000 		.4byte	.LASF222
 7985 1c13 09       		.byte	0x9
 7986 1c14 52       		.byte	0x52
 7987 1c15 89000000 		.4byte	0x89
 7988 1c19 02       		.uleb128 0x2
 7989 1c1a 91       		.byte	0x91
 7990 1c1b 64       		.sleb128 -28
 7991 1c1c 43       		.uleb128 0x43
 7992 1c1d 0C000000 		.4byte	.LBB35
 7993 1c21 2E000000 		.4byte	.LBE35-.LBB35
 7994 1c25 49       		.uleb128 0x49
 7995 1c26 6900     		.ascii	"i\000"
 7996 1c28 09       		.byte	0x9
 7997 1c29 53       		.byte	0x53
 7998 1c2a 89000000 		.4byte	0x89
 7999 1c2e 02       		.uleb128 0x2
 8000 1c2f 91       		.byte	0x91
 8001 1c30 74       		.sleb128 -12
 8002 1c31 00       		.byte	0
 8003 1c32 00       		.byte	0
 8004 1c33 45       		.uleb128 0x45
 8005 1c34 EE100000 		.4byte	0x10ee
 8006 1c38 00000000 		.4byte	.LFB124
 8007 1c3c 16000000 		.4byte	.LFE124-.LFB124
 8008 1c40 01       		.uleb128 0x1
 8009 1c41 9C       		.byte	0x9c
 8010 1c42 4A1C0000 		.4byte	0x1c4a
 8011 1c46 571C0000 		.4byte	0x1c57
 8012 1c4a 41       		.uleb128 0x41
 8013 1c4b 88150000 		.4byte	.LASF195
 8014 1c4f 6C1B0000 		.4byte	0x1b6c
 8015 1c53 02       		.uleb128 0x2
 8016 1c54 91       		.byte	0x91
 8017 1c55 74       		.sleb128 -12
 8018 1c56 00       		.byte	0
 8019 1c57 4C       		.uleb128 0x4c
 8020 1c58 77150000 		.4byte	.LASF247
 8021 1c5c 0A       		.byte	0xa
 8022 1c5d 12       		.byte	0x12
 8023 1c5e 89000000 		.4byte	0x89
 8024 1c62 00000000 		.4byte	.LFB158
 8025 1c66 60000000 		.4byte	.LFE158-.LFB158
 8026 1c6a 01       		.uleb128 0x1
 8027 1c6b 9C       		.byte	0x9c
 8028 1c6c 3E       		.uleb128 0x3e
 8029 1c6d DB050000 		.4byte	0x5db
 8030 1c71 0B       		.byte	0xb
 8031 1c72 4F       		.byte	0x4f
 8032 1c73 02       		.byte	0x2
 8033 1c74 7C1C0000 		.4byte	0x1c7c
 8034 1c78 861C0000 		.4byte	0x1c86
 8035 1c7c 3B       		.uleb128 0x3b
 8036 1c7d 88150000 		.4byte	.LASF195
 8037 1c81 861C0000 		.4byte	0x1c86
 8038 1c85 00       		.byte	0
ARM GAS  C:\Users\Chuck\AppData\Local\Temp\cc5X170Y.s 			page 167


 8039 1c86 07       		.uleb128 0x7
 8040 1c87 850F0000 		.4byte	0xf85
 8041 1c8b 3C       		.uleb128 0x3c
 8042 1c8c 6C1C0000 		.4byte	0x1c6c
 8043 1c90 65020000 		.4byte	.LASF223
 8044 1c94 00000000 		.4byte	.LFB161
 8045 1c98 1C000000 		.4byte	.LFE161-.LFB161
 8046 1c9c 01       		.uleb128 0x1
 8047 1c9d 9C       		.byte	0x9c
 8048 1c9e A61C0000 		.4byte	0x1ca6
 8049 1ca2 AF1C0000 		.4byte	0x1caf
 8050 1ca6 3D       		.uleb128 0x3d
 8051 1ca7 7C1C0000 		.4byte	0x1c7c
 8052 1cab 02       		.uleb128 0x2
 8053 1cac 91       		.byte	0x91
 8054 1cad 74       		.sleb128 -12
 8055 1cae 00       		.byte	0
 8056 1caf 3A       		.uleb128 0x3a
 8057 1cb0 B1070000 		.4byte	0x7b1
 8058 1cb4 02       		.byte	0x2
 8059 1cb5 BD1C0000 		.4byte	0x1cbd
 8060 1cb9 FF1C0000 		.4byte	0x1cff
 8061 1cbd 3B       		.uleb128 0x3b
 8062 1cbe 88150000 		.4byte	.LASF195
 8063 1cc2 FF1C0000 		.4byte	0x1cff
 8064 1cc6 4D       		.uleb128 0x4d
 8065 1cc7 D51C0000 		.4byte	0x1cd5
 8066 1ccb 4E       		.uleb128 0x4e
 8067 1ccc 6900     		.ascii	"i\000"
 8068 1cce 0B       		.byte	0xb
 8069 1ccf 7D       		.byte	0x7d
 8070 1cd0 90000000 		.4byte	0x90
 8071 1cd4 00       		.byte	0
 8072 1cd5 4D       		.uleb128 0x4d
 8073 1cd6 E41C0000 		.4byte	0x1ce4
 8074 1cda 4E       		.uleb128 0x4e
 8075 1cdb 6900     		.ascii	"i\000"
 8076 1cdd 0B       		.byte	0xb
 8077 1cde 80       		.byte	0x80
 8078 1cdf 90000000 		.4byte	0x90
 8079 1ce3 00       		.byte	0
 8080 1ce4 4D       		.uleb128 0x4d
 8081 1ce5 F31C0000 		.4byte	0x1cf3
 8082 1ce9 4E       		.uleb128 0x4e
 8083 1cea 6900     		.ascii	"i\000"
 8084 1cec 0B       		.byte	0xb
 8085 1ced 83       		.byte	0x83
 8086 1cee 90000000 		.4byte	0x90
 8087 1cf2 00       		.byte	0
 8088 1cf3 4F       		.uleb128 0x4f
 8089 1cf4 4E       		.uleb128 0x4e
 8090 1cf5 6900     		.ascii	"i\000"
 8091 1cf7 0B       		.byte	0xb
 8092 1cf8 86       		.byte	0x86
 8093 1cf9 90000000 		.4byte	0x90
 8094 1cfd 00       		.byte	0
 8095 1cfe 00       		.byte	0
ARM GAS  C:\Users\Chuck\AppData\Local\Temp\cc5X170Y.s 			page 168


 8096 1cff 07       		.uleb128 0x7
 8097 1d00 63110000 		.4byte	0x1163
 8098 1d04 3F       		.uleb128 0x3f
 8099 1d05 AF1C0000 		.4byte	0x1caf
 8100 1d09 5B090000 		.4byte	.LASF224
 8101 1d0d 00000000 		.4byte	.LFB163
 8102 1d11 00010000 		.4byte	.LFE163-.LFB163
 8103 1d15 01       		.uleb128 0x1
 8104 1d16 9C       		.byte	0x9c
 8105 1d17 1F1D0000 		.4byte	0x1d1f
 8106 1d1b 7C1D0000 		.4byte	0x1d7c
 8107 1d1f 3D       		.uleb128 0x3d
 8108 1d20 BD1C0000 		.4byte	0x1cbd
 8109 1d24 02       		.uleb128 0x2
 8110 1d25 91       		.byte	0x91
 8111 1d26 64       		.sleb128 -28
 8112 1d27 46       		.uleb128 0x46
 8113 1d28 3A000000 		.4byte	.LBB39
 8114 1d2c 1E000000 		.4byte	.LBE39-.LBB39
 8115 1d30 3D1D0000 		.4byte	0x1d3d
 8116 1d34 50       		.uleb128 0x50
 8117 1d35 CB1C0000 		.4byte	0x1ccb
 8118 1d39 02       		.uleb128 0x2
 8119 1d3a 91       		.byte	0x91
 8120 1d3b 74       		.sleb128 -12
 8121 1d3c 00       		.byte	0
 8122 1d3d 46       		.uleb128 0x46
 8123 1d3e 58000000 		.4byte	.LBB40
 8124 1d42 1E000000 		.4byte	.LBE40-.LBB40
 8125 1d46 531D0000 		.4byte	0x1d53
 8126 1d4a 50       		.uleb128 0x50
 8127 1d4b DA1C0000 		.4byte	0x1cda
 8128 1d4f 02       		.uleb128 0x2
 8129 1d50 91       		.byte	0x91
 8130 1d51 70       		.sleb128 -16
 8131 1d52 00       		.byte	0
 8132 1d53 46       		.uleb128 0x46
 8133 1d54 76000000 		.4byte	.LBB41
 8134 1d58 1E000000 		.4byte	.LBE41-.LBB41
 8135 1d5c 691D0000 		.4byte	0x1d69
 8136 1d60 50       		.uleb128 0x50
 8137 1d61 E91C0000 		.4byte	0x1ce9
 8138 1d65 02       		.uleb128 0x2
 8139 1d66 91       		.byte	0x91
 8140 1d67 6C       		.sleb128 -20
 8141 1d68 00       		.byte	0
 8142 1d69 43       		.uleb128 0x43
 8143 1d6a 94000000 		.4byte	.LBB42
 8144 1d6e 20000000 		.4byte	.LBE42-.LBB42
 8145 1d72 50       		.uleb128 0x50
 8146 1d73 F41C0000 		.4byte	0x1cf4
 8147 1d77 02       		.uleb128 0x2
 8148 1d78 91       		.byte	0x91
 8149 1d79 68       		.sleb128 -24
 8150 1d7a 00       		.byte	0
 8151 1d7b 00       		.byte	0
 8152 1d7c 45       		.uleb128 0x45
ARM GAS  C:\Users\Chuck\AppData\Local\Temp\cc5X170Y.s 			page 169


 8153 1d7d E9070000 		.4byte	0x7e9
 8154 1d81 00000000 		.4byte	.LFB165
 8155 1d85 40000000 		.4byte	.LFE165-.LFB165
 8156 1d89 01       		.uleb128 0x1
 8157 1d8a 9C       		.byte	0x9c
 8158 1d8b 931D0000 		.4byte	0x1d93
 8159 1d8f A01D0000 		.4byte	0x1da0
 8160 1d93 41       		.uleb128 0x41
 8161 1d94 88150000 		.4byte	.LASF195
 8162 1d98 FF1C0000 		.4byte	0x1cff
 8163 1d9c 02       		.uleb128 0x2
 8164 1d9d 91       		.byte	0x91
 8165 1d9e 74       		.sleb128 -12
 8166 1d9f 00       		.byte	0
 8167 1da0 45       		.uleb128 0x45
 8168 1da1 22080000 		.4byte	0x822
 8169 1da5 00000000 		.4byte	.LFB166
 8170 1da9 24040000 		.4byte	.LFE166-.LFB166
 8171 1dad 01       		.uleb128 0x1
 8172 1dae 9C       		.byte	0x9c
 8173 1daf B71D0000 		.4byte	0x1db7
 8174 1db3 F01D0000 		.4byte	0x1df0
 8175 1db7 41       		.uleb128 0x41
 8176 1db8 88150000 		.4byte	.LASF195
 8177 1dbc FF1C0000 		.4byte	0x1cff
 8178 1dc0 02       		.uleb128 0x2
 8179 1dc1 91       		.byte	0x91
 8180 1dc2 6C       		.sleb128 -20
 8181 1dc3 43       		.uleb128 0x43
 8182 1dc4 08000000 		.4byte	.LBB43
 8183 1dc8 14040000 		.4byte	.LBE43-.LBB43
 8184 1dcc 44       		.uleb128 0x44
 8185 1dcd 9C040000 		.4byte	.LASF225
 8186 1dd1 0B       		.byte	0xb
 8187 1dd2 BF       		.byte	0xbf
 8188 1dd3 74000000 		.4byte	0x74
 8189 1dd7 02       		.uleb128 0x2
 8190 1dd8 91       		.byte	0x91
 8191 1dd9 74       		.sleb128 -12
 8192 1dda 51       		.uleb128 0x51
 8193 1ddb 00000000 		.4byte	.Ldebug_ranges0+0
 8194 1ddf 44       		.uleb128 0x44
 8195 1de0 540F0000 		.4byte	.LASF190
 8196 1de4 0B       		.byte	0xb
 8197 1de5 CE       		.byte	0xce
 8198 1de6 89000000 		.4byte	0x89
 8199 1dea 02       		.uleb128 0x2
 8200 1deb 91       		.byte	0x91
 8201 1dec 70       		.sleb128 -16
 8202 1ded 00       		.byte	0
 8203 1dee 00       		.byte	0
 8204 1def 00       		.byte	0
 8205 1df0 45       		.uleb128 0x45
 8206 1df1 6F080000 		.4byte	0x86f
 8207 1df5 00000000 		.4byte	.LFB167
 8208 1df9 3A000000 		.4byte	.LFE167-.LFB167
 8209 1dfd 01       		.uleb128 0x1
ARM GAS  C:\Users\Chuck\AppData\Local\Temp\cc5X170Y.s 			page 170


 8210 1dfe 9C       		.byte	0x9c
 8211 1dff 071E0000 		.4byte	0x1e07
 8212 1e03 2B1E0000 		.4byte	0x1e2b
 8213 1e07 41       		.uleb128 0x41
 8214 1e08 88150000 		.4byte	.LASF195
 8215 1e0c FF1C0000 		.4byte	0x1cff
 8216 1e10 02       		.uleb128 0x2
 8217 1e11 91       		.byte	0x91
 8218 1e12 64       		.sleb128 -28
 8219 1e13 43       		.uleb128 0x43
 8220 1e14 08000000 		.4byte	.LBB46
 8221 1e18 2C000000 		.4byte	.LBE46-.LBB46
 8222 1e1c 52       		.uleb128 0x52
 8223 1e1d 7400     		.ascii	"t\000"
 8224 1e1f 0B       		.byte	0xb
 8225 1e20 2E01     		.2byte	0x12e
 8226 1e22 E9110000 		.4byte	0x11e9
 8227 1e26 02       		.uleb128 0x2
 8228 1e27 91       		.byte	0x91
 8229 1e28 6C       		.sleb128 -20
 8230 1e29 00       		.byte	0
 8231 1e2a 00       		.byte	0
 8232 1e2b 45       		.uleb128 0x45
 8233 1e2c 0D090000 		.4byte	0x90d
 8234 1e30 00000000 		.4byte	.LFB168
 8235 1e34 B4010000 		.4byte	.LFE168-.LFB168
 8236 1e38 01       		.uleb128 0x1
 8237 1e39 9C       		.byte	0x9c
 8238 1e3a 421E0000 		.4byte	0x1e42
 8239 1e3e 741E0000 		.4byte	0x1e74
 8240 1e42 41       		.uleb128 0x41
 8241 1e43 88150000 		.4byte	.LASF195
 8242 1e47 FF1C0000 		.4byte	0x1cff
 8243 1e4b 02       		.uleb128 0x2
 8244 1e4c 91       		.byte	0x91
 8245 1e4d 4C       		.sleb128 -52
 8246 1e4e 43       		.uleb128 0x43
 8247 1e4f 08000000 		.4byte	.LBB47
 8248 1e53 A6010000 		.4byte	.LBE47-.LBB47
 8249 1e57 52       		.uleb128 0x52
 8250 1e58 746900   		.ascii	"ti\000"
 8251 1e5b 0B       		.byte	0xb
 8252 1e5c 8E01     		.2byte	0x18e
 8253 1e5e 4C0B0000 		.4byte	0xb4c
 8254 1e62 02       		.uleb128 0x2
 8255 1e63 91       		.byte	0x91
 8256 1e64 54       		.sleb128 -44
 8257 1e65 52       		.uleb128 0x52
 8258 1e66 6900     		.ascii	"i\000"
 8259 1e68 0B       		.byte	0xb
 8260 1e69 8F01     		.2byte	0x18f
 8261 1e6b 89000000 		.4byte	0x89
 8262 1e6f 02       		.uleb128 0x2
 8263 1e70 91       		.byte	0x91
 8264 1e71 6C       		.sleb128 -20
 8265 1e72 00       		.byte	0
 8266 1e73 00       		.byte	0
ARM GAS  C:\Users\Chuck\AppData\Local\Temp\cc5X170Y.s 			page 171


 8267 1e74 45       		.uleb128 0x45
 8268 1e75 8A080000 		.4byte	0x88a
 8269 1e79 00000000 		.4byte	.LFB169
 8270 1e7d A4000000 		.4byte	.LFE169-.LFB169
 8271 1e81 01       		.uleb128 0x1
 8272 1e82 9C       		.byte	0x9c
 8273 1e83 8B1E0000 		.4byte	0x1e8b
 8274 1e87 CD1E0000 		.4byte	0x1ecd
 8275 1e8b 41       		.uleb128 0x41
 8276 1e8c 88150000 		.4byte	.LASF195
 8277 1e90 FF1C0000 		.4byte	0x1cff
 8278 1e94 02       		.uleb128 0x2
 8279 1e95 91       		.byte	0x91
 8280 1e96 5C       		.sleb128 -36
 8281 1e97 53       		.uleb128 0x53
 8282 1e98 540F0000 		.4byte	.LASF190
 8283 1e9c 0B       		.byte	0xb
 8284 1e9d 3301     		.2byte	0x133
 8285 1e9f CC000000 		.4byte	0xcc
 8286 1ea3 02       		.uleb128 0x2
 8287 1ea4 91       		.byte	0x91
 8288 1ea5 58       		.sleb128 -40
 8289 1ea6 43       		.uleb128 0x43
 8290 1ea7 0A000000 		.4byte	.LBB48
 8291 1eab 8E000000 		.4byte	.LBE48-.LBB48
 8292 1eaf 52       		.uleb128 0x52
 8293 1eb0 7400     		.ascii	"t\000"
 8294 1eb2 0B       		.byte	0xb
 8295 1eb3 3501     		.2byte	0x135
 8296 1eb5 E9110000 		.4byte	0x11e9
 8297 1eb9 02       		.uleb128 0x2
 8298 1eba 91       		.byte	0x91
 8299 1ebb 60       		.sleb128 -32
 8300 1ebc 54       		.uleb128 0x54
 8301 1ebd 34080000 		.4byte	.LASF201
 8302 1ec1 0B       		.byte	0xb
 8303 1ec2 3601     		.2byte	0x136
 8304 1ec4 74000000 		.4byte	0x74
 8305 1ec8 02       		.uleb128 0x2
 8306 1ec9 91       		.byte	0x91
 8307 1eca 6C       		.sleb128 -20
 8308 1ecb 00       		.byte	0
 8309 1ecc 00       		.byte	0
 8310 1ecd 45       		.uleb128 0x45
 8311 1ece 28090000 		.4byte	0x928
 8312 1ed2 00000000 		.4byte	.LFB170
 8313 1ed6 34010000 		.4byte	.LFE170-.LFB170
 8314 1eda 01       		.uleb128 0x1
 8315 1edb 9C       		.byte	0x9c
 8316 1edc E41E0000 		.4byte	0x1ee4
 8317 1ee0 4B1F0000 		.4byte	0x1f4b
 8318 1ee4 41       		.uleb128 0x41
 8319 1ee5 88150000 		.4byte	.LASF195
 8320 1ee9 FF1C0000 		.4byte	0x1cff
 8321 1eed 02       		.uleb128 0x2
 8322 1eee 91       		.byte	0x91
 8323 1eef 64       		.sleb128 -28
ARM GAS  C:\Users\Chuck\AppData\Local\Temp\cc5X170Y.s 			page 172


 8324 1ef0 55       		.uleb128 0x55
 8325 1ef1 696400   		.ascii	"id\000"
 8326 1ef4 0B       		.byte	0xb
 8327 1ef5 AB01     		.2byte	0x1ab
 8328 1ef7 89000000 		.4byte	0x89
 8329 1efb 02       		.uleb128 0x2
 8330 1efc 91       		.byte	0x91
 8331 1efd 60       		.sleb128 -32
 8332 1efe 55       		.uleb128 0x55
 8333 1eff 6D736700 		.ascii	"msg\000"
 8334 1f03 0B       		.byte	0xb
 8335 1f04 AB01     		.2byte	0x1ab
 8336 1f06 910F0000 		.4byte	0xf91
 8337 1f0a 02       		.uleb128 0x2
 8338 1f0b 91       		.byte	0x91
 8339 1f0c 5C       		.sleb128 -36
 8340 1f0d 43       		.uleb128 0x43
 8341 1f0e 0C000000 		.4byte	.LBB49
 8342 1f12 14010000 		.4byte	.LBE49-.LBB49
 8343 1f16 52       		.uleb128 0x52
 8344 1f17 6C00     		.ascii	"l\000"
 8345 1f19 0B       		.byte	0xb
 8346 1f1a B101     		.2byte	0x1b1
 8347 1f1c 90000000 		.4byte	0x90
 8348 1f20 02       		.uleb128 0x2
 8349 1f21 91       		.byte	0x91
 8350 1f22 6C       		.sleb128 -20
 8351 1f23 52       		.uleb128 0x52
 8352 1f24 63686B00 		.ascii	"chk\000"
 8353 1f28 0B       		.byte	0xb
 8354 1f29 BD01     		.2byte	0x1bd
 8355 1f2b 89000000 		.4byte	0x89
 8356 1f2f 02       		.uleb128 0x2
 8357 1f30 91       		.byte	0x91
 8358 1f31 74       		.sleb128 -12
 8359 1f32 43       		.uleb128 0x43
 8360 1f33 98000000 		.4byte	.LBB50
 8361 1f37 2A000000 		.4byte	.LBE50-.LBB50
 8362 1f3b 52       		.uleb128 0x52
 8363 1f3c 6900     		.ascii	"i\000"
 8364 1f3e 0B       		.byte	0xb
 8365 1f3f BE01     		.2byte	0x1be
 8366 1f41 89000000 		.4byte	0x89
 8367 1f45 02       		.uleb128 0x2
 8368 1f46 91       		.byte	0x91
 8369 1f47 70       		.sleb128 -16
 8370 1f48 00       		.byte	0
 8371 1f49 00       		.byte	0
 8372 1f4a 00       		.byte	0
 8373 1f4b 45       		.uleb128 0x45
 8374 1f4c C9080000 		.4byte	0x8c9
 8375 1f50 00000000 		.4byte	.LFB171
 8376 1f54 74000000 		.4byte	.LFE171-.LFB171
 8377 1f58 01       		.uleb128 0x1
 8378 1f59 9C       		.byte	0x9c
 8379 1f5a 621F0000 		.4byte	0x1f62
 8380 1f5e 961F0000 		.4byte	0x1f96
ARM GAS  C:\Users\Chuck\AppData\Local\Temp\cc5X170Y.s 			page 173


 8381 1f62 41       		.uleb128 0x41
 8382 1f63 88150000 		.4byte	.LASF195
 8383 1f67 FF1C0000 		.4byte	0x1cff
 8384 1f6b 02       		.uleb128 0x2
 8385 1f6c 91       		.byte	0x91
 8386 1f6d 64       		.sleb128 -28
 8387 1f6e 53       		.uleb128 0x53
 8388 1f6f 63070000 		.4byte	.LASF226
 8389 1f73 0B       		.byte	0xb
 8390 1f74 4901     		.2byte	0x149
 8391 1f76 961F0000 		.4byte	0x1f96
 8392 1f7a 02       		.uleb128 0x2
 8393 1f7b 91       		.byte	0x91
 8394 1f7c 60       		.sleb128 -32
 8395 1f7d 43       		.uleb128 0x43
 8396 1f7e 0A000000 		.4byte	.LBB51
 8397 1f82 5C000000 		.4byte	.LBE51-.LBB51
 8398 1f86 52       		.uleb128 0x52
 8399 1f87 6D7300   		.ascii	"ms\000"
 8400 1f8a 0B       		.byte	0xb
 8401 1f8b 4B01     		.2byte	0x14b
 8402 1f8d 74000000 		.4byte	0x74
 8403 1f91 02       		.uleb128 0x2
 8404 1f92 91       		.byte	0x91
 8405 1f93 6C       		.sleb128 -20
 8406 1f94 00       		.byte	0
 8407 1f95 00       		.byte	0
 8408 1f96 07       		.uleb128 0x7
 8409 1f97 3B0B0000 		.4byte	0xb3b
 8410 1f9b 45       		.uleb128 0x45
 8411 1f9c DD090000 		.4byte	0x9dd
 8412 1fa0 00000000 		.4byte	.LFB172
 8413 1fa4 1E000000 		.4byte	.LFE172-.LFB172
 8414 1fa8 01       		.uleb128 0x1
 8415 1fa9 9C       		.byte	0x9c
 8416 1faa B21F0000 		.4byte	0x1fb2
 8417 1fae CE1F0000 		.4byte	0x1fce
 8418 1fb2 41       		.uleb128 0x41
 8419 1fb3 88150000 		.4byte	.LASF195
 8420 1fb7 FF1C0000 		.4byte	0x1cff
 8421 1fbb 02       		.uleb128 0x2
 8422 1fbc 91       		.byte	0x91
 8423 1fbd 74       		.sleb128 -12
 8424 1fbe 55       		.uleb128 0x55
 8425 1fbf 6D736700 		.ascii	"msg\000"
 8426 1fc3 0B       		.byte	0xb
 8427 1fc4 E201     		.2byte	0x1e2
 8428 1fc6 DF000000 		.4byte	0xdf
 8429 1fca 02       		.uleb128 0x2
 8430 1fcb 91       		.byte	0x91
 8431 1fcc 70       		.sleb128 -16
 8432 1fcd 00       		.byte	0
 8433 1fce 45       		.uleb128 0x45
 8434 1fcf 59090000 		.4byte	0x959
 8435 1fd3 00000000 		.4byte	.LFB173
 8436 1fd7 48000000 		.4byte	.LFE173-.LFB173
 8437 1fdb 01       		.uleb128 0x1
ARM GAS  C:\Users\Chuck\AppData\Local\Temp\cc5X170Y.s 			page 174


 8438 1fdc 9C       		.byte	0x9c
 8439 1fdd E51F0000 		.4byte	0x1fe5
 8440 1fe1 27200000 		.4byte	0x2027
 8441 1fe5 41       		.uleb128 0x41
 8442 1fe6 88150000 		.4byte	.LASF195
 8443 1fea FF1C0000 		.4byte	0x1cff
 8444 1fee 02       		.uleb128 0x2
 8445 1fef 91       		.byte	0x91
 8446 1ff0 64       		.sleb128 -28
 8447 1ff1 53       		.uleb128 0x53
 8448 1ff2 15130000 		.4byte	.LASF227
 8449 1ff6 0B       		.byte	0xb
 8450 1ff7 D101     		.2byte	0x1d1
 8451 1ff9 D8000000 		.4byte	0xd8
 8452 1ffd 02       		.uleb128 0x2
 8453 1ffe 91       		.byte	0x91
 8454 1fff 63       		.sleb128 -29
 8455 2000 55       		.uleb128 0x55
 8456 2001 6D736700 		.ascii	"msg\000"
 8457 2005 0B       		.byte	0xb
 8458 2006 D101     		.2byte	0x1d1
 8459 2008 DF000000 		.4byte	0xdf
 8460 200c 02       		.uleb128 0x2
 8461 200d 91       		.byte	0x91
 8462 200e 5C       		.sleb128 -36
 8463 200f 43       		.uleb128 0x43
 8464 2010 12000000 		.4byte	.LBB52
 8465 2014 30000000 		.4byte	.LBE52-.LBB52
 8466 2018 52       		.uleb128 0x52
 8467 2019 6C00     		.ascii	"l\000"
 8468 201b 0B       		.byte	0xb
 8469 201c D201     		.2byte	0x1d2
 8470 201e CA0C0000 		.4byte	0xcca
 8471 2022 02       		.uleb128 0x2
 8472 2023 91       		.byte	0x91
 8473 2024 6C       		.sleb128 -20
 8474 2025 00       		.byte	0
 8475 2026 00       		.byte	0
 8476 2027 56       		.uleb128 0x56
 8477 2028 28100000 		.4byte	.LASF248
 8478 202c 00000000 		.4byte	.LFB174
 8479 2030 30000000 		.4byte	.LFE174-.LFB174
 8480 2034 01       		.uleb128 0x1
 8481 2035 9C       		.byte	0x9c
 8482 2036 57200000 		.4byte	0x2057
 8483 203a 42       		.uleb128 0x42
 8484 203b 0F080000 		.4byte	.LASF228
 8485 203f 0A       		.byte	0xa
 8486 2040 31       		.byte	0x31
 8487 2041 89000000 		.4byte	0x89
 8488 2045 02       		.uleb128 0x2
 8489 2046 91       		.byte	0x91
 8490 2047 74       		.sleb128 -12
 8491 2048 42       		.uleb128 0x42
 8492 2049 B4080000 		.4byte	.LASF229
 8493 204d 0A       		.byte	0xa
 8494 204e 31       		.byte	0x31
ARM GAS  C:\Users\Chuck\AppData\Local\Temp\cc5X170Y.s 			page 175


 8495 204f 89000000 		.4byte	0x89
 8496 2053 02       		.uleb128 0x2
 8497 2054 91       		.byte	0x91
 8498 2055 70       		.sleb128 -16
 8499 2056 00       		.byte	0
 8500 2057 40       		.uleb128 0x40
 8501 2058 48080000 		.4byte	0x848
 8502 205c 00000000 		.4byte	.LFB175
 8503 2060 18000000 		.4byte	.LFE175-.LFB175
 8504 2064 01       		.uleb128 0x1
 8505 2065 9C       		.byte	0x9c
 8506 2066 6E200000 		.4byte	0x206e
 8507 206a 7B200000 		.4byte	0x207b
 8508 206e 41       		.uleb128 0x41
 8509 206f 88150000 		.4byte	.LASF195
 8510 2073 FF1C0000 		.4byte	0x1cff
 8511 2077 02       		.uleb128 0x2
 8512 2078 91       		.byte	0x91
 8513 2079 74       		.sleb128 -12
 8514 207a 00       		.byte	0
 8515 207b 57       		.uleb128 0x57
 8516 207c 87070000 		.4byte	.LASF249
 8517 2080 00000000 		.4byte	.LFB176
 8518 2084 18000000 		.4byte	.LFE176-.LFB176
 8519 2088 01       		.uleb128 0x1
 8520 2089 9C       		.byte	0x9c
 8521 208a 2B       		.uleb128 0x2b
 8522 208b 450A0000 		.4byte	.LASF230
 8523 208f 58       		.uleb128 0x58
 8524 2090 1F050000 		.4byte	.LASF232
 8525 2094 10       		.byte	0x10
 8526 2095 1D       		.byte	0x1d
 8527 2096 8A200000 		.4byte	0x208a
 8528 209a 59       		.uleb128 0x59
 8529 209b 6E6800   		.ascii	"nh\000"
 8530 209e 0A       		.byte	0xa
 8531 209f 10       		.byte	0x10
 8532 20a0 0B0B0000 		.4byte	0xb0b
 8533 20a4 05       		.uleb128 0x5
 8534 20a5 03       		.byte	0x3
 8535 20a6 00000000 		.4byte	nh
 8536 20aa 35       		.uleb128 0x35
 8537 20ab D8000000 		.4byte	0xd8
 8538 20af BA200000 		.4byte	0x20ba
 8539 20b3 36       		.uleb128 0x36
 8540 20b4 C3000000 		.4byte	0xc3
 8541 20b8 1B       		.byte	0x1b
 8542 20b9 00       		.byte	0
 8543 20ba 07       		.uleb128 0x7
 8544 20bb AA200000 		.4byte	0x20aa
 8545 20bf 5A       		.uleb128 0x5a
 8546 20c0 6F0F0000 		.4byte	0xf6f
 8547 20c4 05       		.uleb128 0x5
 8548 20c5 03       		.byte	0x3
 8549 20c6 10010000 		.4byte	_ZN14rosserial_msgsL12REQUESTPARAME
 8550 20ca 00       		.byte	0
 8551              		.section	.debug_abbrev,"",%progbits
ARM GAS  C:\Users\Chuck\AppData\Local\Temp\cc5X170Y.s 			page 176


 8552              	.Ldebug_abbrev0:
 8553 0000 01       		.uleb128 0x1
 8554 0001 11       		.uleb128 0x11
 8555 0002 01       		.byte	0x1
 8556 0003 25       		.uleb128 0x25
 8557 0004 0E       		.uleb128 0xe
 8558 0005 13       		.uleb128 0x13
 8559 0006 0B       		.uleb128 0xb
 8560 0007 03       		.uleb128 0x3
 8561 0008 0E       		.uleb128 0xe
 8562 0009 1B       		.uleb128 0x1b
 8563 000a 0E       		.uleb128 0xe
 8564 000b 55       		.uleb128 0x55
 8565 000c 17       		.uleb128 0x17
 8566 000d 11       		.uleb128 0x11
 8567 000e 01       		.uleb128 0x1
 8568 000f 10       		.uleb128 0x10
 8569 0010 17       		.uleb128 0x17
 8570 0011 00       		.byte	0
 8571 0012 00       		.byte	0
 8572 0013 02       		.uleb128 0x2
 8573 0014 24       		.uleb128 0x24
 8574 0015 00       		.byte	0
 8575 0016 0B       		.uleb128 0xb
 8576 0017 0B       		.uleb128 0xb
 8577 0018 3E       		.uleb128 0x3e
 8578 0019 0B       		.uleb128 0xb
 8579 001a 03       		.uleb128 0x3
 8580 001b 0E       		.uleb128 0xe
 8581 001c 00       		.byte	0
 8582 001d 00       		.byte	0
 8583 001e 03       		.uleb128 0x3
 8584 001f 16       		.uleb128 0x16
 8585 0020 00       		.byte	0
 8586 0021 03       		.uleb128 0x3
 8587 0022 0E       		.uleb128 0xe
 8588 0023 3A       		.uleb128 0x3a
 8589 0024 0B       		.uleb128 0xb
 8590 0025 3B       		.uleb128 0x3b
 8591 0026 0B       		.uleb128 0xb
 8592 0027 49       		.uleb128 0x49
 8593 0028 13       		.uleb128 0x13
 8594 0029 00       		.byte	0
 8595 002a 00       		.byte	0
 8596 002b 04       		.uleb128 0x4
 8597 002c 24       		.uleb128 0x24
 8598 002d 00       		.byte	0
 8599 002e 0B       		.uleb128 0xb
 8600 002f 0B       		.uleb128 0xb
 8601 0030 3E       		.uleb128 0x3e
 8602 0031 0B       		.uleb128 0xb
 8603 0032 03       		.uleb128 0x3
 8604 0033 08       		.uleb128 0x8
 8605 0034 00       		.byte	0
 8606 0035 00       		.byte	0
 8607 0036 05       		.uleb128 0x5
 8608 0037 0F       		.uleb128 0xf
ARM GAS  C:\Users\Chuck\AppData\Local\Temp\cc5X170Y.s 			page 177


 8609 0038 00       		.byte	0
 8610 0039 0B       		.uleb128 0xb
 8611 003a 0B       		.uleb128 0xb
 8612 003b 00       		.byte	0
 8613 003c 00       		.byte	0
 8614 003d 06       		.uleb128 0x6
 8615 003e 0F       		.uleb128 0xf
 8616 003f 00       		.byte	0
 8617 0040 0B       		.uleb128 0xb
 8618 0041 0B       		.uleb128 0xb
 8619 0042 49       		.uleb128 0x49
 8620 0043 13       		.uleb128 0x13
 8621 0044 00       		.byte	0
 8622 0045 00       		.byte	0
 8623 0046 07       		.uleb128 0x7
 8624 0047 26       		.uleb128 0x26
 8625 0048 00       		.byte	0
 8626 0049 49       		.uleb128 0x49
 8627 004a 13       		.uleb128 0x13
 8628 004b 00       		.byte	0
 8629 004c 00       		.byte	0
 8630 004d 08       		.uleb128 0x8
 8631 004e 39       		.uleb128 0x39
 8632 004f 01       		.byte	0x1
 8633 0050 03       		.uleb128 0x3
 8634 0051 08       		.uleb128 0x8
 8635 0052 3A       		.uleb128 0x3a
 8636 0053 0B       		.uleb128 0xb
 8637 0054 3B       		.uleb128 0x3b
 8638 0055 0B       		.uleb128 0xb
 8639 0056 01       		.uleb128 0x1
 8640 0057 13       		.uleb128 0x13
 8641 0058 00       		.byte	0
 8642 0059 00       		.byte	0
 8643 005a 09       		.uleb128 0x9
 8644 005b 02       		.uleb128 0x2
 8645 005c 01       		.byte	0x1
 8646 005d 03       		.uleb128 0x3
 8647 005e 0E       		.uleb128 0xe
 8648 005f 0B       		.uleb128 0xb
 8649 0060 0B       		.uleb128 0xb
 8650 0061 3A       		.uleb128 0x3a
 8651 0062 0B       		.uleb128 0xb
 8652 0063 3B       		.uleb128 0x3b
 8653 0064 0B       		.uleb128 0xb
 8654 0065 01       		.uleb128 0x1
 8655 0066 13       		.uleb128 0x13
 8656 0067 00       		.byte	0
 8657 0068 00       		.byte	0
 8658 0069 0A       		.uleb128 0xa
 8659 006a 0D       		.uleb128 0xd
 8660 006b 00       		.byte	0
 8661 006c 03       		.uleb128 0x3
 8662 006d 08       		.uleb128 0x8
 8663 006e 3A       		.uleb128 0x3a
 8664 006f 0B       		.uleb128 0xb
 8665 0070 3B       		.uleb128 0x3b
ARM GAS  C:\Users\Chuck\AppData\Local\Temp\cc5X170Y.s 			page 178


 8666 0071 0B       		.uleb128 0xb
 8667 0072 49       		.uleb128 0x49
 8668 0073 13       		.uleb128 0x13
 8669 0074 38       		.uleb128 0x38
 8670 0075 0B       		.uleb128 0xb
 8671 0076 32       		.uleb128 0x32
 8672 0077 0B       		.uleb128 0xb
 8673 0078 00       		.byte	0
 8674 0079 00       		.byte	0
 8675 007a 0B       		.uleb128 0xb
 8676 007b 0D       		.uleb128 0xd
 8677 007c 00       		.byte	0
 8678 007d 03       		.uleb128 0x3
 8679 007e 0E       		.uleb128 0xe
 8680 007f 3A       		.uleb128 0x3a
 8681 0080 0B       		.uleb128 0xb
 8682 0081 3B       		.uleb128 0x3b
 8683 0082 0B       		.uleb128 0xb
 8684 0083 49       		.uleb128 0x49
 8685 0084 13       		.uleb128 0x13
 8686 0085 38       		.uleb128 0x38
 8687 0086 0B       		.uleb128 0xb
 8688 0087 32       		.uleb128 0x32
 8689 0088 0B       		.uleb128 0xb
 8690 0089 00       		.byte	0
 8691 008a 00       		.byte	0
 8692 008b 0C       		.uleb128 0xc
 8693 008c 2E       		.uleb128 0x2e
 8694 008d 01       		.byte	0x1
 8695 008e 3F       		.uleb128 0x3f
 8696 008f 19       		.uleb128 0x19
 8697 0090 03       		.uleb128 0x3
 8698 0091 0E       		.uleb128 0xe
 8699 0092 3A       		.uleb128 0x3a
 8700 0093 0B       		.uleb128 0xb
 8701 0094 3B       		.uleb128 0x3b
 8702 0095 0B       		.uleb128 0xb
 8703 0096 49       		.uleb128 0x49
 8704 0097 13       		.uleb128 0x13
 8705 0098 32       		.uleb128 0x32
 8706 0099 0B       		.uleb128 0xb
 8707 009a 3C       		.uleb128 0x3c
 8708 009b 19       		.uleb128 0x19
 8709 009c 64       		.uleb128 0x64
 8710 009d 13       		.uleb128 0x13
 8711 009e 01       		.uleb128 0x1
 8712 009f 13       		.uleb128 0x13
 8713 00a0 00       		.byte	0
 8714 00a1 00       		.byte	0
 8715 00a2 0D       		.uleb128 0xd
 8716 00a3 05       		.uleb128 0x5
 8717 00a4 00       		.byte	0
 8718 00a5 49       		.uleb128 0x49
 8719 00a6 13       		.uleb128 0x13
 8720 00a7 34       		.uleb128 0x34
 8721 00a8 19       		.uleb128 0x19
 8722 00a9 00       		.byte	0
ARM GAS  C:\Users\Chuck\AppData\Local\Temp\cc5X170Y.s 			page 179


 8723 00aa 00       		.byte	0
 8724 00ab 0E       		.uleb128 0xe
 8725 00ac 05       		.uleb128 0x5
 8726 00ad 00       		.byte	0
 8727 00ae 49       		.uleb128 0x49
 8728 00af 13       		.uleb128 0x13
 8729 00b0 00       		.byte	0
 8730 00b1 00       		.byte	0
 8731 00b2 0F       		.uleb128 0xf
 8732 00b3 2E       		.uleb128 0x2e
 8733 00b4 01       		.byte	0x1
 8734 00b5 3F       		.uleb128 0x3f
 8735 00b6 19       		.uleb128 0x19
 8736 00b7 03       		.uleb128 0x3
 8737 00b8 0E       		.uleb128 0xe
 8738 00b9 3A       		.uleb128 0x3a
 8739 00ba 0B       		.uleb128 0xb
 8740 00bb 3B       		.uleb128 0x3b
 8741 00bc 0B       		.uleb128 0xb
 8742 00bd 6E       		.uleb128 0x6e
 8743 00be 0E       		.uleb128 0xe
 8744 00bf 49       		.uleb128 0x49
 8745 00c0 13       		.uleb128 0x13
 8746 00c1 32       		.uleb128 0x32
 8747 00c2 0B       		.uleb128 0xb
 8748 00c3 3C       		.uleb128 0x3c
 8749 00c4 19       		.uleb128 0x19
 8750 00c5 64       		.uleb128 0x64
 8751 00c6 13       		.uleb128 0x13
 8752 00c7 01       		.uleb128 0x1
 8753 00c8 13       		.uleb128 0x13
 8754 00c9 00       		.byte	0
 8755 00ca 00       		.byte	0
 8756 00cb 10       		.uleb128 0x10
 8757 00cc 2E       		.uleb128 0x2e
 8758 00cd 01       		.byte	0x1
 8759 00ce 3F       		.uleb128 0x3f
 8760 00cf 19       		.uleb128 0x19
 8761 00d0 03       		.uleb128 0x3
 8762 00d1 0E       		.uleb128 0xe
 8763 00d2 3A       		.uleb128 0x3a
 8764 00d3 0B       		.uleb128 0xb
 8765 00d4 3B       		.uleb128 0x3b
 8766 00d5 0B       		.uleb128 0xb
 8767 00d6 6E       		.uleb128 0x6e
 8768 00d7 0E       		.uleb128 0xe
 8769 00d8 32       		.uleb128 0x32
 8770 00d9 0B       		.uleb128 0xb
 8771 00da 3C       		.uleb128 0x3c
 8772 00db 19       		.uleb128 0x19
 8773 00dc 64       		.uleb128 0x64
 8774 00dd 13       		.uleb128 0x13
 8775 00de 01       		.uleb128 0x1
 8776 00df 13       		.uleb128 0x13
 8777 00e0 00       		.byte	0
 8778 00e1 00       		.byte	0
 8779 00e2 11       		.uleb128 0x11
ARM GAS  C:\Users\Chuck\AppData\Local\Temp\cc5X170Y.s 			page 180


 8780 00e3 2E       		.uleb128 0x2e
 8781 00e4 01       		.byte	0x1
 8782 00e5 3F       		.uleb128 0x3f
 8783 00e6 19       		.uleb128 0x19
 8784 00e7 03       		.uleb128 0x3
 8785 00e8 0E       		.uleb128 0xe
 8786 00e9 3A       		.uleb128 0x3a
 8787 00ea 0B       		.uleb128 0xb
 8788 00eb 3B       		.uleb128 0x3b
 8789 00ec 0B       		.uleb128 0xb
 8790 00ed 6E       		.uleb128 0x6e
 8791 00ee 0E       		.uleb128 0xe
 8792 00ef 49       		.uleb128 0x49
 8793 00f0 13       		.uleb128 0x13
 8794 00f1 32       		.uleb128 0x32
 8795 00f2 0B       		.uleb128 0xb
 8796 00f3 3C       		.uleb128 0x3c
 8797 00f4 19       		.uleb128 0x19
 8798 00f5 64       		.uleb128 0x64
 8799 00f6 13       		.uleb128 0x13
 8800 00f7 00       		.byte	0
 8801 00f8 00       		.byte	0
 8802 00f9 12       		.uleb128 0x12
 8803 00fa 2E       		.uleb128 0x2e
 8804 00fb 00       		.byte	0
 8805 00fc 3F       		.uleb128 0x3f
 8806 00fd 19       		.uleb128 0x19
 8807 00fe 03       		.uleb128 0x3
 8808 00ff 08       		.uleb128 0x8
 8809 0100 3A       		.uleb128 0x3a
 8810 0101 0B       		.uleb128 0xb
 8811 0102 3B       		.uleb128 0x3b
 8812 0103 0B       		.uleb128 0xb
 8813 0104 6E       		.uleb128 0x6e
 8814 0105 0E       		.uleb128 0xe
 8815 0106 49       		.uleb128 0x49
 8816 0107 13       		.uleb128 0x13
 8817 0108 32       		.uleb128 0x32
 8818 0109 0B       		.uleb128 0xb
 8819 010a 3C       		.uleb128 0x3c
 8820 010b 19       		.uleb128 0x19
 8821 010c 00       		.byte	0
 8822 010d 00       		.byte	0
 8823 010e 13       		.uleb128 0x13
 8824 010f 2E       		.uleb128 0x2e
 8825 0110 01       		.byte	0x1
 8826 0111 3F       		.uleb128 0x3f
 8827 0112 19       		.uleb128 0x19
 8828 0113 03       		.uleb128 0x3
 8829 0114 0E       		.uleb128 0xe
 8830 0115 3A       		.uleb128 0x3a
 8831 0116 0B       		.uleb128 0xb
 8832 0117 3B       		.uleb128 0x3b
 8833 0118 0B       		.uleb128 0xb
 8834 0119 6E       		.uleb128 0x6e
 8835 011a 0E       		.uleb128 0xe
 8836 011b 32       		.uleb128 0x32
ARM GAS  C:\Users\Chuck\AppData\Local\Temp\cc5X170Y.s 			page 181


 8837 011c 0B       		.uleb128 0xb
 8838 011d 3C       		.uleb128 0x3c
 8839 011e 19       		.uleb128 0x19
 8840 011f 00       		.byte	0
 8841 0120 00       		.byte	0
 8842 0121 14       		.uleb128 0x14
 8843 0122 0D       		.uleb128 0xd
 8844 0123 00       		.byte	0
 8845 0124 03       		.uleb128 0x3
 8846 0125 0E       		.uleb128 0xe
 8847 0126 3A       		.uleb128 0x3a
 8848 0127 0B       		.uleb128 0xb
 8849 0128 3B       		.uleb128 0x3b
 8850 0129 0B       		.uleb128 0xb
 8851 012a 49       		.uleb128 0x49
 8852 012b 13       		.uleb128 0x13
 8853 012c 38       		.uleb128 0x38
 8854 012d 0B       		.uleb128 0xb
 8855 012e 00       		.byte	0
 8856 012f 00       		.byte	0
 8857 0130 15       		.uleb128 0x15
 8858 0131 02       		.uleb128 0x2
 8859 0132 01       		.byte	0x1
 8860 0133 03       		.uleb128 0x3
 8861 0134 08       		.uleb128 0x8
 8862 0135 0B       		.uleb128 0xb
 8863 0136 0B       		.uleb128 0xb
 8864 0137 3A       		.uleb128 0x3a
 8865 0138 0B       		.uleb128 0xb
 8866 0139 3B       		.uleb128 0x3b
 8867 013a 0B       		.uleb128 0xb
 8868 013b 1D       		.uleb128 0x1d
 8869 013c 13       		.uleb128 0x13
 8870 013d 01       		.uleb128 0x1
 8871 013e 13       		.uleb128 0x13
 8872 013f 00       		.byte	0
 8873 0140 00       		.byte	0
 8874 0141 16       		.uleb128 0x16
 8875 0142 0D       		.uleb128 0xd
 8876 0143 00       		.byte	0
 8877 0144 03       		.uleb128 0x3
 8878 0145 0E       		.uleb128 0xe
 8879 0146 49       		.uleb128 0x49
 8880 0147 13       		.uleb128 0x13
 8881 0148 38       		.uleb128 0x38
 8882 0149 0B       		.uleb128 0xb
 8883 014a 34       		.uleb128 0x34
 8884 014b 19       		.uleb128 0x19
 8885 014c 32       		.uleb128 0x32
 8886 014d 0B       		.uleb128 0xb
 8887 014e 00       		.byte	0
 8888 014f 00       		.byte	0
 8889 0150 17       		.uleb128 0x17
 8890 0151 2E       		.uleb128 0x2e
 8891 0152 01       		.byte	0x1
 8892 0153 3F       		.uleb128 0x3f
 8893 0154 19       		.uleb128 0x19
ARM GAS  C:\Users\Chuck\AppData\Local\Temp\cc5X170Y.s 			page 182


 8894 0155 03       		.uleb128 0x3
 8895 0156 0E       		.uleb128 0xe
 8896 0157 49       		.uleb128 0x49
 8897 0158 13       		.uleb128 0x13
 8898 0159 34       		.uleb128 0x34
 8899 015a 19       		.uleb128 0x19
 8900 015b 32       		.uleb128 0x32
 8901 015c 0B       		.uleb128 0xb
 8902 015d 3C       		.uleb128 0x3c
 8903 015e 19       		.uleb128 0x19
 8904 015f 64       		.uleb128 0x64
 8905 0160 13       		.uleb128 0x13
 8906 0161 01       		.uleb128 0x1
 8907 0162 13       		.uleb128 0x13
 8908 0163 00       		.byte	0
 8909 0164 00       		.byte	0
 8910 0165 18       		.uleb128 0x18
 8911 0166 2E       		.uleb128 0x2e
 8912 0167 01       		.byte	0x1
 8913 0168 3F       		.uleb128 0x3f
 8914 0169 19       		.uleb128 0x19
 8915 016a 03       		.uleb128 0x3
 8916 016b 08       		.uleb128 0x8
 8917 016c 49       		.uleb128 0x49
 8918 016d 13       		.uleb128 0x13
 8919 016e 34       		.uleb128 0x34
 8920 016f 19       		.uleb128 0x19
 8921 0170 32       		.uleb128 0x32
 8922 0171 0B       		.uleb128 0xb
 8923 0172 3C       		.uleb128 0x3c
 8924 0173 19       		.uleb128 0x19
 8925 0174 64       		.uleb128 0x64
 8926 0175 13       		.uleb128 0x13
 8927 0176 01       		.uleb128 0x1
 8928 0177 13       		.uleb128 0x13
 8929 0178 00       		.byte	0
 8930 0179 00       		.byte	0
 8931 017a 19       		.uleb128 0x19
 8932 017b 2E       		.uleb128 0x2e
 8933 017c 01       		.byte	0x1
 8934 017d 3F       		.uleb128 0x3f
 8935 017e 19       		.uleb128 0x19
 8936 017f 03       		.uleb128 0x3
 8937 0180 0E       		.uleb128 0xe
 8938 0181 3A       		.uleb128 0x3a
 8939 0182 0B       		.uleb128 0xb
 8940 0183 3B       		.uleb128 0x3b
 8941 0184 0B       		.uleb128 0xb
 8942 0185 6E       		.uleb128 0x6e
 8943 0186 0E       		.uleb128 0xe
 8944 0187 49       		.uleb128 0x49
 8945 0188 13       		.uleb128 0x13
 8946 0189 4C       		.uleb128 0x4c
 8947 018a 0B       		.uleb128 0xb
 8948 018b 4D       		.uleb128 0x4d
 8949 018c 18       		.uleb128 0x18
 8950 018d 1D       		.uleb128 0x1d
ARM GAS  C:\Users\Chuck\AppData\Local\Temp\cc5X170Y.s 			page 183


 8951 018e 13       		.uleb128 0x13
 8952 018f 32       		.uleb128 0x32
 8953 0190 0B       		.uleb128 0xb
 8954 0191 3C       		.uleb128 0x3c
 8955 0192 19       		.uleb128 0x19
 8956 0193 64       		.uleb128 0x64
 8957 0194 13       		.uleb128 0x13
 8958 0195 01       		.uleb128 0x1
 8959 0196 13       		.uleb128 0x13
 8960 0197 00       		.byte	0
 8961 0198 00       		.byte	0
 8962 0199 1A       		.uleb128 0x1a
 8963 019a 2E       		.uleb128 0x2e
 8964 019b 01       		.byte	0x1
 8965 019c 3F       		.uleb128 0x3f
 8966 019d 19       		.uleb128 0x19
 8967 019e 03       		.uleb128 0x3
 8968 019f 0E       		.uleb128 0xe
 8969 01a0 3A       		.uleb128 0x3a
 8970 01a1 0B       		.uleb128 0xb
 8971 01a2 3B       		.uleb128 0x3b
 8972 01a3 0B       		.uleb128 0xb
 8973 01a4 6E       		.uleb128 0x6e
 8974 01a5 0E       		.uleb128 0xe
 8975 01a6 49       		.uleb128 0x49
 8976 01a7 13       		.uleb128 0x13
 8977 01a8 32       		.uleb128 0x32
 8978 01a9 0B       		.uleb128 0xb
 8979 01aa 3C       		.uleb128 0x3c
 8980 01ab 19       		.uleb128 0x19
 8981 01ac 01       		.uleb128 0x1
 8982 01ad 13       		.uleb128 0x13
 8983 01ae 00       		.byte	0
 8984 01af 00       		.byte	0
 8985 01b0 1B       		.uleb128 0x1b
 8986 01b1 2E       		.uleb128 0x2e
 8987 01b2 01       		.byte	0x1
 8988 01b3 3F       		.uleb128 0x3f
 8989 01b4 19       		.uleb128 0x19
 8990 01b5 03       		.uleb128 0x3
 8991 01b6 0E       		.uleb128 0xe
 8992 01b7 3A       		.uleb128 0x3a
 8993 01b8 0B       		.uleb128 0xb
 8994 01b9 3B       		.uleb128 0x3b
 8995 01ba 0B       		.uleb128 0xb
 8996 01bb 6E       		.uleb128 0x6e
 8997 01bc 0E       		.uleb128 0xe
 8998 01bd 49       		.uleb128 0x49
 8999 01be 13       		.uleb128 0x13
 9000 01bf 32       		.uleb128 0x32
 9001 01c0 0B       		.uleb128 0xb
 9002 01c1 3C       		.uleb128 0x3c
 9003 01c2 19       		.uleb128 0x19
 9004 01c3 00       		.byte	0
 9005 01c4 00       		.byte	0
 9006 01c5 1C       		.uleb128 0x1c
 9007 01c6 02       		.uleb128 0x2
ARM GAS  C:\Users\Chuck\AppData\Local\Temp\cc5X170Y.s 			page 184


 9008 01c7 01       		.byte	0x1
 9009 01c8 03       		.uleb128 0x3
 9010 01c9 0E       		.uleb128 0xe
 9011 01ca 0B       		.uleb128 0xb
 9012 01cb 0B       		.uleb128 0xb
 9013 01cc 3A       		.uleb128 0x3a
 9014 01cd 0B       		.uleb128 0xb
 9015 01ce 3B       		.uleb128 0x3b
 9016 01cf 0B       		.uleb128 0xb
 9017 01d0 1D       		.uleb128 0x1d
 9018 01d1 13       		.uleb128 0x13
 9019 01d2 01       		.uleb128 0x1
 9020 01d3 13       		.uleb128 0x13
 9021 01d4 00       		.byte	0
 9022 01d5 00       		.byte	0
 9023 01d6 1D       		.uleb128 0x1d
 9024 01d7 2E       		.uleb128 0x2e
 9025 01d8 01       		.byte	0x1
 9026 01d9 3F       		.uleb128 0x3f
 9027 01da 19       		.uleb128 0x19
 9028 01db 03       		.uleb128 0x3
 9029 01dc 0E       		.uleb128 0xe
 9030 01dd 3A       		.uleb128 0x3a
 9031 01de 0B       		.uleb128 0xb
 9032 01df 3B       		.uleb128 0x3b
 9033 01e0 0B       		.uleb128 0xb
 9034 01e1 6E       		.uleb128 0x6e
 9035 01e2 0E       		.uleb128 0xe
 9036 01e3 49       		.uleb128 0x49
 9037 01e4 13       		.uleb128 0x13
 9038 01e5 4C       		.uleb128 0x4c
 9039 01e6 0B       		.uleb128 0xb
 9040 01e7 4D       		.uleb128 0x4d
 9041 01e8 18       		.uleb128 0x18
 9042 01e9 1D       		.uleb128 0x1d
 9043 01ea 13       		.uleb128 0x13
 9044 01eb 32       		.uleb128 0x32
 9045 01ec 0B       		.uleb128 0xb
 9046 01ed 3C       		.uleb128 0x3c
 9047 01ee 19       		.uleb128 0x19
 9048 01ef 64       		.uleb128 0x64
 9049 01f0 13       		.uleb128 0x13
 9050 01f1 00       		.byte	0
 9051 01f2 00       		.byte	0
 9052 01f3 1E       		.uleb128 0x1e
 9053 01f4 08       		.uleb128 0x8
 9054 01f5 00       		.byte	0
 9055 01f6 3A       		.uleb128 0x3a
 9056 01f7 0B       		.uleb128 0xb
 9057 01f8 3B       		.uleb128 0x3b
 9058 01f9 0B       		.uleb128 0xb
 9059 01fa 18       		.uleb128 0x18
 9060 01fb 13       		.uleb128 0x13
 9061 01fc 00       		.byte	0
 9062 01fd 00       		.byte	0
 9063 01fe 1F       		.uleb128 0x1f
 9064 01ff 02       		.uleb128 0x2
ARM GAS  C:\Users\Chuck\AppData\Local\Temp\cc5X170Y.s 			page 185


 9065 0200 01       		.byte	0x1
 9066 0201 03       		.uleb128 0x3
 9067 0202 0E       		.uleb128 0xe
 9068 0203 0B       		.uleb128 0xb
 9069 0204 05       		.uleb128 0x5
 9070 0205 3A       		.uleb128 0x3a
 9071 0206 0B       		.uleb128 0xb
 9072 0207 3B       		.uleb128 0x3b
 9073 0208 0B       		.uleb128 0xb
 9074 0209 1D       		.uleb128 0x1d
 9075 020a 13       		.uleb128 0x13
 9076 020b 01       		.uleb128 0x1
 9077 020c 13       		.uleb128 0x13
 9078 020d 00       		.byte	0
 9079 020e 00       		.byte	0
 9080 020f 20       		.uleb128 0x20
 9081 0210 1C       		.uleb128 0x1c
 9082 0211 00       		.byte	0
 9083 0212 49       		.uleb128 0x49
 9084 0213 13       		.uleb128 0x13
 9085 0214 38       		.uleb128 0x38
 9086 0215 0B       		.uleb128 0xb
 9087 0216 32       		.uleb128 0x32
 9088 0217 0B       		.uleb128 0xb
 9089 0218 00       		.byte	0
 9090 0219 00       		.byte	0
 9091 021a 21       		.uleb128 0x21
 9092 021b 0D       		.uleb128 0xd
 9093 021c 00       		.byte	0
 9094 021d 03       		.uleb128 0x3
 9095 021e 0E       		.uleb128 0xe
 9096 021f 3A       		.uleb128 0x3a
 9097 0220 0B       		.uleb128 0xb
 9098 0221 3B       		.uleb128 0x3b
 9099 0222 0B       		.uleb128 0xb
 9100 0223 49       		.uleb128 0x49
 9101 0224 13       		.uleb128 0x13
 9102 0225 38       		.uleb128 0x38
 9103 0226 05       		.uleb128 0x5
 9104 0227 32       		.uleb128 0x32
 9105 0228 0B       		.uleb128 0xb
 9106 0229 00       		.byte	0
 9107 022a 00       		.byte	0
 9108 022b 22       		.uleb128 0x22
 9109 022c 0D       		.uleb128 0xd
 9110 022d 00       		.byte	0
 9111 022e 03       		.uleb128 0x3
 9112 022f 0E       		.uleb128 0xe
 9113 0230 3A       		.uleb128 0x3a
 9114 0231 0B       		.uleb128 0xb
 9115 0232 3B       		.uleb128 0x3b
 9116 0233 05       		.uleb128 0x5
 9117 0234 49       		.uleb128 0x49
 9118 0235 13       		.uleb128 0x13
 9119 0236 38       		.uleb128 0x38
 9120 0237 05       		.uleb128 0x5
 9121 0238 00       		.byte	0
ARM GAS  C:\Users\Chuck\AppData\Local\Temp\cc5X170Y.s 			page 186


 9122 0239 00       		.byte	0
 9123 023a 23       		.uleb128 0x23
 9124 023b 2E       		.uleb128 0x2e
 9125 023c 01       		.byte	0x1
 9126 023d 3F       		.uleb128 0x3f
 9127 023e 19       		.uleb128 0x19
 9128 023f 03       		.uleb128 0x3
 9129 0240 0E       		.uleb128 0xe
 9130 0241 3A       		.uleb128 0x3a
 9131 0242 0B       		.uleb128 0xb
 9132 0243 3B       		.uleb128 0x3b
 9133 0244 05       		.uleb128 0x5
 9134 0245 6E       		.uleb128 0x6e
 9135 0246 0E       		.uleb128 0xe
 9136 0247 49       		.uleb128 0x49
 9137 0248 13       		.uleb128 0x13
 9138 0249 4C       		.uleb128 0x4c
 9139 024a 0B       		.uleb128 0xb
 9140 024b 4D       		.uleb128 0x4d
 9141 024c 18       		.uleb128 0x18
 9142 024d 1D       		.uleb128 0x1d
 9143 024e 13       		.uleb128 0x13
 9144 024f 32       		.uleb128 0x32
 9145 0250 0B       		.uleb128 0xb
 9146 0251 3C       		.uleb128 0x3c
 9147 0252 19       		.uleb128 0x19
 9148 0253 64       		.uleb128 0x64
 9149 0254 13       		.uleb128 0x13
 9150 0255 01       		.uleb128 0x1
 9151 0256 13       		.uleb128 0x13
 9152 0257 00       		.byte	0
 9153 0258 00       		.byte	0
 9154 0259 24       		.uleb128 0x24
 9155 025a 2E       		.uleb128 0x2e
 9156 025b 01       		.byte	0x1
 9157 025c 3F       		.uleb128 0x3f
 9158 025d 19       		.uleb128 0x19
 9159 025e 03       		.uleb128 0x3
 9160 025f 0E       		.uleb128 0xe
 9161 0260 3A       		.uleb128 0x3a
 9162 0261 0B       		.uleb128 0xb
 9163 0262 3B       		.uleb128 0x3b
 9164 0263 05       		.uleb128 0x5
 9165 0264 6E       		.uleb128 0x6e
 9166 0265 0E       		.uleb128 0xe
 9167 0266 32       		.uleb128 0x32
 9168 0267 0B       		.uleb128 0xb
 9169 0268 3C       		.uleb128 0x3c
 9170 0269 19       		.uleb128 0x19
 9171 026a 64       		.uleb128 0x64
 9172 026b 13       		.uleb128 0x13
 9173 026c 01       		.uleb128 0x1
 9174 026d 13       		.uleb128 0x13
 9175 026e 00       		.byte	0
 9176 026f 00       		.byte	0
 9177 0270 25       		.uleb128 0x25
 9178 0271 2E       		.uleb128 0x2e
ARM GAS  C:\Users\Chuck\AppData\Local\Temp\cc5X170Y.s 			page 187


 9179 0272 01       		.byte	0x1
 9180 0273 3F       		.uleb128 0x3f
 9181 0274 19       		.uleb128 0x19
 9182 0275 03       		.uleb128 0x3
 9183 0276 08       		.uleb128 0x8
 9184 0277 3A       		.uleb128 0x3a
 9185 0278 0B       		.uleb128 0xb
 9186 0279 3B       		.uleb128 0x3b
 9187 027a 05       		.uleb128 0x5
 9188 027b 6E       		.uleb128 0x6e
 9189 027c 0E       		.uleb128 0xe
 9190 027d 49       		.uleb128 0x49
 9191 027e 13       		.uleb128 0x13
 9192 027f 32       		.uleb128 0x32
 9193 0280 0B       		.uleb128 0xb
 9194 0281 3C       		.uleb128 0x3c
 9195 0282 19       		.uleb128 0x19
 9196 0283 64       		.uleb128 0x64
 9197 0284 13       		.uleb128 0x13
 9198 0285 01       		.uleb128 0x1
 9199 0286 13       		.uleb128 0x13
 9200 0287 00       		.byte	0
 9201 0288 00       		.byte	0
 9202 0289 26       		.uleb128 0x26
 9203 028a 2E       		.uleb128 0x2e
 9204 028b 01       		.byte	0x1
 9205 028c 3F       		.uleb128 0x3f
 9206 028d 19       		.uleb128 0x19
 9207 028e 03       		.uleb128 0x3
 9208 028f 0E       		.uleb128 0xe
 9209 0290 3A       		.uleb128 0x3a
 9210 0291 0B       		.uleb128 0xb
 9211 0292 3B       		.uleb128 0x3b
 9212 0293 05       		.uleb128 0x5
 9213 0294 6E       		.uleb128 0x6e
 9214 0295 0E       		.uleb128 0xe
 9215 0296 49       		.uleb128 0x49
 9216 0297 13       		.uleb128 0x13
 9217 0298 32       		.uleb128 0x32
 9218 0299 0B       		.uleb128 0xb
 9219 029a 3C       		.uleb128 0x3c
 9220 029b 19       		.uleb128 0x19
 9221 029c 64       		.uleb128 0x64
 9222 029d 13       		.uleb128 0x13
 9223 029e 01       		.uleb128 0x1
 9224 029f 13       		.uleb128 0x13
 9225 02a0 00       		.byte	0
 9226 02a1 00       		.byte	0
 9227 02a2 27       		.uleb128 0x27
 9228 02a3 2E       		.uleb128 0x2e
 9229 02a4 01       		.byte	0x1
 9230 02a5 3F       		.uleb128 0x3f
 9231 02a6 19       		.uleb128 0x19
 9232 02a7 03       		.uleb128 0x3
 9233 02a8 08       		.uleb128 0x8
 9234 02a9 3A       		.uleb128 0x3a
 9235 02aa 0B       		.uleb128 0xb
ARM GAS  C:\Users\Chuck\AppData\Local\Temp\cc5X170Y.s 			page 188


 9236 02ab 3B       		.uleb128 0x3b
 9237 02ac 05       		.uleb128 0x5
 9238 02ad 6E       		.uleb128 0x6e
 9239 02ae 0E       		.uleb128 0xe
 9240 02af 3C       		.uleb128 0x3c
 9241 02b0 19       		.uleb128 0x19
 9242 02b1 64       		.uleb128 0x64
 9243 02b2 13       		.uleb128 0x13
 9244 02b3 01       		.uleb128 0x1
 9245 02b4 13       		.uleb128 0x13
 9246 02b5 00       		.byte	0
 9247 02b6 00       		.byte	0
 9248 02b7 28       		.uleb128 0x28
 9249 02b8 2E       		.uleb128 0x2e
 9250 02b9 01       		.byte	0x1
 9251 02ba 3F       		.uleb128 0x3f
 9252 02bb 19       		.uleb128 0x19
 9253 02bc 03       		.uleb128 0x3
 9254 02bd 0E       		.uleb128 0xe
 9255 02be 3A       		.uleb128 0x3a
 9256 02bf 0B       		.uleb128 0xb
 9257 02c0 3B       		.uleb128 0x3b
 9258 02c1 05       		.uleb128 0x5
 9259 02c2 6E       		.uleb128 0x6e
 9260 02c3 0E       		.uleb128 0xe
 9261 02c4 49       		.uleb128 0x49
 9262 02c5 13       		.uleb128 0x13
 9263 02c6 3C       		.uleb128 0x3c
 9264 02c7 19       		.uleb128 0x19
 9265 02c8 64       		.uleb128 0x64
 9266 02c9 13       		.uleb128 0x13
 9267 02ca 01       		.uleb128 0x1
 9268 02cb 13       		.uleb128 0x13
 9269 02cc 00       		.byte	0
 9270 02cd 00       		.byte	0
 9271 02ce 29       		.uleb128 0x29
 9272 02cf 2F       		.uleb128 0x2f
 9273 02d0 00       		.byte	0
 9274 02d1 03       		.uleb128 0x3
 9275 02d2 0E       		.uleb128 0xe
 9276 02d3 49       		.uleb128 0x49
 9277 02d4 13       		.uleb128 0x13
 9278 02d5 00       		.byte	0
 9279 02d6 00       		.byte	0
 9280 02d7 2A       		.uleb128 0x2a
 9281 02d8 30       		.uleb128 0x30
 9282 02d9 00       		.byte	0
 9283 02da 03       		.uleb128 0x3
 9284 02db 0E       		.uleb128 0xe
 9285 02dc 49       		.uleb128 0x49
 9286 02dd 13       		.uleb128 0x13
 9287 02de 1C       		.uleb128 0x1c
 9288 02df 0B       		.uleb128 0xb
 9289 02e0 00       		.byte	0
 9290 02e1 00       		.byte	0
 9291 02e2 2B       		.uleb128 0x2b
 9292 02e3 02       		.uleb128 0x2
ARM GAS  C:\Users\Chuck\AppData\Local\Temp\cc5X170Y.s 			page 189


 9293 02e4 00       		.byte	0
 9294 02e5 03       		.uleb128 0x3
 9295 02e6 0E       		.uleb128 0xe
 9296 02e7 3C       		.uleb128 0x3c
 9297 02e8 19       		.uleb128 0x19
 9298 02e9 00       		.byte	0
 9299 02ea 00       		.byte	0
 9300 02eb 2C       		.uleb128 0x2c
 9301 02ec 10       		.uleb128 0x10
 9302 02ed 00       		.byte	0
 9303 02ee 0B       		.uleb128 0xb
 9304 02ef 0B       		.uleb128 0xb
 9305 02f0 49       		.uleb128 0x49
 9306 02f1 13       		.uleb128 0x13
 9307 02f2 00       		.byte	0
 9308 02f3 00       		.byte	0
 9309 02f4 2D       		.uleb128 0x2d
 9310 02f5 39       		.uleb128 0x39
 9311 02f6 01       		.byte	0x1
 9312 02f7 03       		.uleb128 0x3
 9313 02f8 0E       		.uleb128 0xe
 9314 02f9 3A       		.uleb128 0x3a
 9315 02fa 0B       		.uleb128 0xb
 9316 02fb 3B       		.uleb128 0x3b
 9317 02fc 0B       		.uleb128 0xb
 9318 02fd 01       		.uleb128 0x1
 9319 02fe 13       		.uleb128 0x13
 9320 02ff 00       		.byte	0
 9321 0300 00       		.byte	0
 9322 0301 2E       		.uleb128 0x2e
 9323 0302 04       		.uleb128 0x4
 9324 0303 01       		.byte	0x1
 9325 0304 0B       		.uleb128 0xb
 9326 0305 0B       		.uleb128 0xb
 9327 0306 3A       		.uleb128 0x3a
 9328 0307 0B       		.uleb128 0xb
 9329 0308 3B       		.uleb128 0x3b
 9330 0309 0B       		.uleb128 0xb
 9331 030a 32       		.uleb128 0x32
 9332 030b 0B       		.uleb128 0xb
 9333 030c 01       		.uleb128 0x1
 9334 030d 13       		.uleb128 0x13
 9335 030e 00       		.byte	0
 9336 030f 00       		.byte	0
 9337 0310 2F       		.uleb128 0x2f
 9338 0311 28       		.uleb128 0x28
 9339 0312 00       		.byte	0
 9340 0313 03       		.uleb128 0x3
 9341 0314 0E       		.uleb128 0xe
 9342 0315 1C       		.uleb128 0x1c
 9343 0316 0D       		.uleb128 0xd
 9344 0317 00       		.byte	0
 9345 0318 00       		.byte	0
 9346 0319 30       		.uleb128 0x30
 9347 031a 2E       		.uleb128 0x2e
 9348 031b 01       		.byte	0x1
 9349 031c 3F       		.uleb128 0x3f
ARM GAS  C:\Users\Chuck\AppData\Local\Temp\cc5X170Y.s 			page 190


 9350 031d 19       		.uleb128 0x19
 9351 031e 03       		.uleb128 0x3
 9352 031f 08       		.uleb128 0x8
 9353 0320 3A       		.uleb128 0x3a
 9354 0321 0B       		.uleb128 0xb
 9355 0322 3B       		.uleb128 0x3b
 9356 0323 0B       		.uleb128 0xb
 9357 0324 49       		.uleb128 0x49
 9358 0325 13       		.uleb128 0x13
 9359 0326 32       		.uleb128 0x32
 9360 0327 0B       		.uleb128 0xb
 9361 0328 3C       		.uleb128 0x3c
 9362 0329 19       		.uleb128 0x19
 9363 032a 64       		.uleb128 0x64
 9364 032b 13       		.uleb128 0x13
 9365 032c 01       		.uleb128 0x1
 9366 032d 13       		.uleb128 0x13
 9367 032e 00       		.byte	0
 9368 032f 00       		.byte	0
 9369 0330 31       		.uleb128 0x31
 9370 0331 34       		.uleb128 0x34
 9371 0332 00       		.byte	0
 9372 0333 03       		.uleb128 0x3
 9373 0334 0E       		.uleb128 0xe
 9374 0335 3A       		.uleb128 0x3a
 9375 0336 0B       		.uleb128 0xb
 9376 0337 3B       		.uleb128 0x3b
 9377 0338 0B       		.uleb128 0xb
 9378 0339 49       		.uleb128 0x49
 9379 033a 13       		.uleb128 0x13
 9380 033b 3C       		.uleb128 0x3c
 9381 033c 19       		.uleb128 0x19
 9382 033d 1C       		.uleb128 0x1c
 9383 033e 0E       		.uleb128 0xe
 9384 033f 00       		.byte	0
 9385 0340 00       		.byte	0
 9386 0341 32       		.uleb128 0x32
 9387 0342 0D       		.uleb128 0xd
 9388 0343 00       		.byte	0
 9389 0344 03       		.uleb128 0x3
 9390 0345 0E       		.uleb128 0xe
 9391 0346 3A       		.uleb128 0x3a
 9392 0347 0B       		.uleb128 0xb
 9393 0348 3B       		.uleb128 0x3b
 9394 0349 0B       		.uleb128 0xb
 9395 034a 49       		.uleb128 0x49
 9396 034b 13       		.uleb128 0x13
 9397 034c 3F       		.uleb128 0x3f
 9398 034d 19       		.uleb128 0x19
 9399 034e 32       		.uleb128 0x32
 9400 034f 0B       		.uleb128 0xb
 9401 0350 3C       		.uleb128 0x3c
 9402 0351 19       		.uleb128 0x19
 9403 0352 00       		.byte	0
 9404 0353 00       		.byte	0
 9405 0354 33       		.uleb128 0x33
 9406 0355 2E       		.uleb128 0x2e
ARM GAS  C:\Users\Chuck\AppData\Local\Temp\cc5X170Y.s 			page 191


 9407 0356 00       		.byte	0
 9408 0357 3F       		.uleb128 0x3f
 9409 0358 19       		.uleb128 0x19
 9410 0359 03       		.uleb128 0x3
 9411 035a 0E       		.uleb128 0xe
 9412 035b 3A       		.uleb128 0x3a
 9413 035c 0B       		.uleb128 0xb
 9414 035d 3B       		.uleb128 0x3b
 9415 035e 0B       		.uleb128 0xb
 9416 035f 6E       		.uleb128 0x6e
 9417 0360 0E       		.uleb128 0xe
 9418 0361 32       		.uleb128 0x32
 9419 0362 0B       		.uleb128 0xb
 9420 0363 3C       		.uleb128 0x3c
 9421 0364 19       		.uleb128 0x19
 9422 0365 00       		.byte	0
 9423 0366 00       		.byte	0
 9424 0367 34       		.uleb128 0x34
 9425 0368 2E       		.uleb128 0x2e
 9426 0369 00       		.byte	0
 9427 036a 3F       		.uleb128 0x3f
 9428 036b 19       		.uleb128 0x19
 9429 036c 03       		.uleb128 0x3
 9430 036d 0E       		.uleb128 0xe
 9431 036e 3A       		.uleb128 0x3a
 9432 036f 0B       		.uleb128 0xb
 9433 0370 3B       		.uleb128 0x3b
 9434 0371 0B       		.uleb128 0xb
 9435 0372 6E       		.uleb128 0x6e
 9436 0373 0E       		.uleb128 0xe
 9437 0374 49       		.uleb128 0x49
 9438 0375 13       		.uleb128 0x13
 9439 0376 32       		.uleb128 0x32
 9440 0377 0B       		.uleb128 0xb
 9441 0378 3C       		.uleb128 0x3c
 9442 0379 19       		.uleb128 0x19
 9443 037a 00       		.byte	0
 9444 037b 00       		.byte	0
 9445 037c 35       		.uleb128 0x35
 9446 037d 01       		.uleb128 0x1
 9447 037e 01       		.byte	0x1
 9448 037f 49       		.uleb128 0x49
 9449 0380 13       		.uleb128 0x13
 9450 0381 01       		.uleb128 0x1
 9451 0382 13       		.uleb128 0x13
 9452 0383 00       		.byte	0
 9453 0384 00       		.byte	0
 9454 0385 36       		.uleb128 0x36
 9455 0386 21       		.uleb128 0x21
 9456 0387 00       		.byte	0
 9457 0388 49       		.uleb128 0x49
 9458 0389 13       		.uleb128 0x13
 9459 038a 2F       		.uleb128 0x2f
 9460 038b 0B       		.uleb128 0xb
 9461 038c 00       		.byte	0
 9462 038d 00       		.byte	0
 9463 038e 37       		.uleb128 0x37
ARM GAS  C:\Users\Chuck\AppData\Local\Temp\cc5X170Y.s 			page 192


 9464 038f 15       		.uleb128 0x15
 9465 0390 01       		.byte	0x1
 9466 0391 49       		.uleb128 0x49
 9467 0392 13       		.uleb128 0x13
 9468 0393 01       		.uleb128 0x1
 9469 0394 13       		.uleb128 0x13
 9470 0395 00       		.byte	0
 9471 0396 00       		.byte	0
 9472 0397 38       		.uleb128 0x38
 9473 0398 18       		.uleb128 0x18
 9474 0399 00       		.byte	0
 9475 039a 00       		.byte	0
 9476 039b 00       		.byte	0
 9477 039c 39       		.uleb128 0x39
 9478 039d 0F       		.uleb128 0xf
 9479 039e 00       		.byte	0
 9480 039f 0B       		.uleb128 0xb
 9481 03a0 0B       		.uleb128 0xb
 9482 03a1 03       		.uleb128 0x3
 9483 03a2 0E       		.uleb128 0xe
 9484 03a3 49       		.uleb128 0x49
 9485 03a4 13       		.uleb128 0x13
 9486 03a5 00       		.byte	0
 9487 03a6 00       		.byte	0
 9488 03a7 3A       		.uleb128 0x3a
 9489 03a8 2E       		.uleb128 0x2e
 9490 03a9 01       		.byte	0x1
 9491 03aa 47       		.uleb128 0x47
 9492 03ab 13       		.uleb128 0x13
 9493 03ac 20       		.uleb128 0x20
 9494 03ad 0B       		.uleb128 0xb
 9495 03ae 64       		.uleb128 0x64
 9496 03af 13       		.uleb128 0x13
 9497 03b0 01       		.uleb128 0x1
 9498 03b1 13       		.uleb128 0x13
 9499 03b2 00       		.byte	0
 9500 03b3 00       		.byte	0
 9501 03b4 3B       		.uleb128 0x3b
 9502 03b5 05       		.uleb128 0x5
 9503 03b6 00       		.byte	0
 9504 03b7 03       		.uleb128 0x3
 9505 03b8 0E       		.uleb128 0xe
 9506 03b9 49       		.uleb128 0x49
 9507 03ba 13       		.uleb128 0x13
 9508 03bb 34       		.uleb128 0x34
 9509 03bc 19       		.uleb128 0x19
 9510 03bd 00       		.byte	0
 9511 03be 00       		.byte	0
 9512 03bf 3C       		.uleb128 0x3c
 9513 03c0 2E       		.uleb128 0x2e
 9514 03c1 01       		.byte	0x1
 9515 03c2 31       		.uleb128 0x31
 9516 03c3 13       		.uleb128 0x13
 9517 03c4 6E       		.uleb128 0x6e
 9518 03c5 0E       		.uleb128 0xe
 9519 03c6 11       		.uleb128 0x11
 9520 03c7 01       		.uleb128 0x1
ARM GAS  C:\Users\Chuck\AppData\Local\Temp\cc5X170Y.s 			page 193


 9521 03c8 12       		.uleb128 0x12
 9522 03c9 06       		.uleb128 0x6
 9523 03ca 40       		.uleb128 0x40
 9524 03cb 18       		.uleb128 0x18
 9525 03cc 64       		.uleb128 0x64
 9526 03cd 13       		.uleb128 0x13
 9527 03ce 9742     		.uleb128 0x2117
 9528 03d0 19       		.uleb128 0x19
 9529 03d1 01       		.uleb128 0x1
 9530 03d2 13       		.uleb128 0x13
 9531 03d3 00       		.byte	0
 9532 03d4 00       		.byte	0
 9533 03d5 3D       		.uleb128 0x3d
 9534 03d6 05       		.uleb128 0x5
 9535 03d7 00       		.byte	0
 9536 03d8 31       		.uleb128 0x31
 9537 03d9 13       		.uleb128 0x13
 9538 03da 02       		.uleb128 0x2
 9539 03db 18       		.uleb128 0x18
 9540 03dc 00       		.byte	0
 9541 03dd 00       		.byte	0
 9542 03de 3E       		.uleb128 0x3e
 9543 03df 2E       		.uleb128 0x2e
 9544 03e0 01       		.byte	0x1
 9545 03e1 47       		.uleb128 0x47
 9546 03e2 13       		.uleb128 0x13
 9547 03e3 3A       		.uleb128 0x3a
 9548 03e4 0B       		.uleb128 0xb
 9549 03e5 3B       		.uleb128 0x3b
 9550 03e6 0B       		.uleb128 0xb
 9551 03e7 20       		.uleb128 0x20
 9552 03e8 0B       		.uleb128 0xb
 9553 03e9 64       		.uleb128 0x64
 9554 03ea 13       		.uleb128 0x13
 9555 03eb 01       		.uleb128 0x1
 9556 03ec 13       		.uleb128 0x13
 9557 03ed 00       		.byte	0
 9558 03ee 00       		.byte	0
 9559 03ef 3F       		.uleb128 0x3f
 9560 03f0 2E       		.uleb128 0x2e
 9561 03f1 01       		.byte	0x1
 9562 03f2 31       		.uleb128 0x31
 9563 03f3 13       		.uleb128 0x13
 9564 03f4 6E       		.uleb128 0x6e
 9565 03f5 0E       		.uleb128 0xe
 9566 03f6 11       		.uleb128 0x11
 9567 03f7 01       		.uleb128 0x1
 9568 03f8 12       		.uleb128 0x12
 9569 03f9 06       		.uleb128 0x6
 9570 03fa 40       		.uleb128 0x40
 9571 03fb 18       		.uleb128 0x18
 9572 03fc 64       		.uleb128 0x64
 9573 03fd 13       		.uleb128 0x13
 9574 03fe 9642     		.uleb128 0x2116
 9575 0400 19       		.uleb128 0x19
 9576 0401 01       		.uleb128 0x1
 9577 0402 13       		.uleb128 0x13
ARM GAS  C:\Users\Chuck\AppData\Local\Temp\cc5X170Y.s 			page 194


 9578 0403 00       		.byte	0
 9579 0404 00       		.byte	0
 9580 0405 40       		.uleb128 0x40
 9581 0406 2E       		.uleb128 0x2e
 9582 0407 01       		.byte	0x1
 9583 0408 47       		.uleb128 0x47
 9584 0409 13       		.uleb128 0x13
 9585 040a 11       		.uleb128 0x11
 9586 040b 01       		.uleb128 0x1
 9587 040c 12       		.uleb128 0x12
 9588 040d 06       		.uleb128 0x6
 9589 040e 40       		.uleb128 0x40
 9590 040f 18       		.uleb128 0x18
 9591 0410 64       		.uleb128 0x64
 9592 0411 13       		.uleb128 0x13
 9593 0412 9742     		.uleb128 0x2117
 9594 0414 19       		.uleb128 0x19
 9595 0415 01       		.uleb128 0x1
 9596 0416 13       		.uleb128 0x13
 9597 0417 00       		.byte	0
 9598 0418 00       		.byte	0
 9599 0419 41       		.uleb128 0x41
 9600 041a 05       		.uleb128 0x5
 9601 041b 00       		.byte	0
 9602 041c 03       		.uleb128 0x3
 9603 041d 0E       		.uleb128 0xe
 9604 041e 49       		.uleb128 0x49
 9605 041f 13       		.uleb128 0x13
 9606 0420 34       		.uleb128 0x34
 9607 0421 19       		.uleb128 0x19
 9608 0422 02       		.uleb128 0x2
 9609 0423 18       		.uleb128 0x18
 9610 0424 00       		.byte	0
 9611 0425 00       		.byte	0
 9612 0426 42       		.uleb128 0x42
 9613 0427 05       		.uleb128 0x5
 9614 0428 00       		.byte	0
 9615 0429 03       		.uleb128 0x3
 9616 042a 0E       		.uleb128 0xe
 9617 042b 3A       		.uleb128 0x3a
 9618 042c 0B       		.uleb128 0xb
 9619 042d 3B       		.uleb128 0x3b
 9620 042e 0B       		.uleb128 0xb
 9621 042f 49       		.uleb128 0x49
 9622 0430 13       		.uleb128 0x13
 9623 0431 02       		.uleb128 0x2
 9624 0432 18       		.uleb128 0x18
 9625 0433 00       		.byte	0
 9626 0434 00       		.byte	0
 9627 0435 43       		.uleb128 0x43
 9628 0436 0B       		.uleb128 0xb
 9629 0437 01       		.byte	0x1
 9630 0438 11       		.uleb128 0x11
 9631 0439 01       		.uleb128 0x1
 9632 043a 12       		.uleb128 0x12
 9633 043b 06       		.uleb128 0x6
 9634 043c 00       		.byte	0
ARM GAS  C:\Users\Chuck\AppData\Local\Temp\cc5X170Y.s 			page 195


 9635 043d 00       		.byte	0
 9636 043e 44       		.uleb128 0x44
 9637 043f 34       		.uleb128 0x34
 9638 0440 00       		.byte	0
 9639 0441 03       		.uleb128 0x3
 9640 0442 0E       		.uleb128 0xe
 9641 0443 3A       		.uleb128 0x3a
 9642 0444 0B       		.uleb128 0xb
 9643 0445 3B       		.uleb128 0x3b
 9644 0446 0B       		.uleb128 0xb
 9645 0447 49       		.uleb128 0x49
 9646 0448 13       		.uleb128 0x13
 9647 0449 02       		.uleb128 0x2
 9648 044a 18       		.uleb128 0x18
 9649 044b 00       		.byte	0
 9650 044c 00       		.byte	0
 9651 044d 45       		.uleb128 0x45
 9652 044e 2E       		.uleb128 0x2e
 9653 044f 01       		.byte	0x1
 9654 0450 47       		.uleb128 0x47
 9655 0451 13       		.uleb128 0x13
 9656 0452 11       		.uleb128 0x11
 9657 0453 01       		.uleb128 0x1
 9658 0454 12       		.uleb128 0x12
 9659 0455 06       		.uleb128 0x6
 9660 0456 40       		.uleb128 0x40
 9661 0457 18       		.uleb128 0x18
 9662 0458 64       		.uleb128 0x64
 9663 0459 13       		.uleb128 0x13
 9664 045a 9642     		.uleb128 0x2116
 9665 045c 19       		.uleb128 0x19
 9666 045d 01       		.uleb128 0x1
 9667 045e 13       		.uleb128 0x13
 9668 045f 00       		.byte	0
 9669 0460 00       		.byte	0
 9670 0461 46       		.uleb128 0x46
 9671 0462 0B       		.uleb128 0xb
 9672 0463 01       		.byte	0x1
 9673 0464 11       		.uleb128 0x11
 9674 0465 01       		.uleb128 0x1
 9675 0466 12       		.uleb128 0x12
 9676 0467 06       		.uleb128 0x6
 9677 0468 01       		.uleb128 0x1
 9678 0469 13       		.uleb128 0x13
 9679 046a 00       		.byte	0
 9680 046b 00       		.byte	0
 9681 046c 47       		.uleb128 0x47
 9682 046d 17       		.uleb128 0x17
 9683 046e 01       		.byte	0x1
 9684 046f 0B       		.uleb128 0xb
 9685 0470 0B       		.uleb128 0xb
 9686 0471 3A       		.uleb128 0x3a
 9687 0472 0B       		.uleb128 0xb
 9688 0473 3B       		.uleb128 0x3b
 9689 0474 0B       		.uleb128 0xb
 9690 0475 00       		.byte	0
 9691 0476 00       		.byte	0
ARM GAS  C:\Users\Chuck\AppData\Local\Temp\cc5X170Y.s 			page 196


 9692 0477 48       		.uleb128 0x48
 9693 0478 0D       		.uleb128 0xd
 9694 0479 00       		.byte	0
 9695 047a 03       		.uleb128 0x3
 9696 047b 0E       		.uleb128 0xe
 9697 047c 3A       		.uleb128 0x3a
 9698 047d 0B       		.uleb128 0xb
 9699 047e 3B       		.uleb128 0x3b
 9700 047f 0B       		.uleb128 0xb
 9701 0480 49       		.uleb128 0x49
 9702 0481 13       		.uleb128 0x13
 9703 0482 00       		.byte	0
 9704 0483 00       		.byte	0
 9705 0484 49       		.uleb128 0x49
 9706 0485 34       		.uleb128 0x34
 9707 0486 00       		.byte	0
 9708 0487 03       		.uleb128 0x3
 9709 0488 08       		.uleb128 0x8
 9710 0489 3A       		.uleb128 0x3a
 9711 048a 0B       		.uleb128 0xb
 9712 048b 3B       		.uleb128 0x3b
 9713 048c 0B       		.uleb128 0xb
 9714 048d 49       		.uleb128 0x49
 9715 048e 13       		.uleb128 0x13
 9716 048f 02       		.uleb128 0x2
 9717 0490 18       		.uleb128 0x18
 9718 0491 00       		.byte	0
 9719 0492 00       		.byte	0
 9720 0493 4A       		.uleb128 0x4a
 9721 0494 17       		.uleb128 0x17
 9722 0495 01       		.byte	0x1
 9723 0496 0B       		.uleb128 0xb
 9724 0497 0B       		.uleb128 0xb
 9725 0498 3A       		.uleb128 0x3a
 9726 0499 0B       		.uleb128 0xb
 9727 049a 3B       		.uleb128 0x3b
 9728 049b 0B       		.uleb128 0xb
 9729 049c 01       		.uleb128 0x1
 9730 049d 13       		.uleb128 0x13
 9731 049e 00       		.byte	0
 9732 049f 00       		.byte	0
 9733 04a0 4B       		.uleb128 0x4b
 9734 04a1 2E       		.uleb128 0x2e
 9735 04a2 00       		.byte	0
 9736 04a3 47       		.uleb128 0x47
 9737 04a4 13       		.uleb128 0x13
 9738 04a5 11       		.uleb128 0x11
 9739 04a6 01       		.uleb128 0x1
 9740 04a7 12       		.uleb128 0x12
 9741 04a8 06       		.uleb128 0x6
 9742 04a9 40       		.uleb128 0x40
 9743 04aa 18       		.uleb128 0x18
 9744 04ab 9742     		.uleb128 0x2117
 9745 04ad 19       		.uleb128 0x19
 9746 04ae 00       		.byte	0
 9747 04af 00       		.byte	0
 9748 04b0 4C       		.uleb128 0x4c
ARM GAS  C:\Users\Chuck\AppData\Local\Temp\cc5X170Y.s 			page 197


 9749 04b1 2E       		.uleb128 0x2e
 9750 04b2 00       		.byte	0
 9751 04b3 3F       		.uleb128 0x3f
 9752 04b4 19       		.uleb128 0x19
 9753 04b5 03       		.uleb128 0x3
 9754 04b6 0E       		.uleb128 0xe
 9755 04b7 3A       		.uleb128 0x3a
 9756 04b8 0B       		.uleb128 0xb
 9757 04b9 3B       		.uleb128 0x3b
 9758 04ba 0B       		.uleb128 0xb
 9759 04bb 49       		.uleb128 0x49
 9760 04bc 13       		.uleb128 0x13
 9761 04bd 11       		.uleb128 0x11
 9762 04be 01       		.uleb128 0x1
 9763 04bf 12       		.uleb128 0x12
 9764 04c0 06       		.uleb128 0x6
 9765 04c1 40       		.uleb128 0x40
 9766 04c2 18       		.uleb128 0x18
 9767 04c3 9642     		.uleb128 0x2116
 9768 04c5 19       		.uleb128 0x19
 9769 04c6 00       		.byte	0
 9770 04c7 00       		.byte	0
 9771 04c8 4D       		.uleb128 0x4d
 9772 04c9 0B       		.uleb128 0xb
 9773 04ca 01       		.byte	0x1
 9774 04cb 01       		.uleb128 0x1
 9775 04cc 13       		.uleb128 0x13
 9776 04cd 00       		.byte	0
 9777 04ce 00       		.byte	0
 9778 04cf 4E       		.uleb128 0x4e
 9779 04d0 34       		.uleb128 0x34
 9780 04d1 00       		.byte	0
 9781 04d2 03       		.uleb128 0x3
 9782 04d3 08       		.uleb128 0x8
 9783 04d4 3A       		.uleb128 0x3a
 9784 04d5 0B       		.uleb128 0xb
 9785 04d6 3B       		.uleb128 0x3b
 9786 04d7 0B       		.uleb128 0xb
 9787 04d8 49       		.uleb128 0x49
 9788 04d9 13       		.uleb128 0x13
 9789 04da 00       		.byte	0
 9790 04db 00       		.byte	0
 9791 04dc 4F       		.uleb128 0x4f
 9792 04dd 0B       		.uleb128 0xb
 9793 04de 01       		.byte	0x1
 9794 04df 00       		.byte	0
 9795 04e0 00       		.byte	0
 9796 04e1 50       		.uleb128 0x50
 9797 04e2 34       		.uleb128 0x34
 9798 04e3 00       		.byte	0
 9799 04e4 31       		.uleb128 0x31
 9800 04e5 13       		.uleb128 0x13
 9801 04e6 02       		.uleb128 0x2
 9802 04e7 18       		.uleb128 0x18
 9803 04e8 00       		.byte	0
 9804 04e9 00       		.byte	0
 9805 04ea 51       		.uleb128 0x51
ARM GAS  C:\Users\Chuck\AppData\Local\Temp\cc5X170Y.s 			page 198


 9806 04eb 0B       		.uleb128 0xb
 9807 04ec 01       		.byte	0x1
 9808 04ed 55       		.uleb128 0x55
 9809 04ee 17       		.uleb128 0x17
 9810 04ef 00       		.byte	0
 9811 04f0 00       		.byte	0
 9812 04f1 52       		.uleb128 0x52
 9813 04f2 34       		.uleb128 0x34
 9814 04f3 00       		.byte	0
 9815 04f4 03       		.uleb128 0x3
 9816 04f5 08       		.uleb128 0x8
 9817 04f6 3A       		.uleb128 0x3a
 9818 04f7 0B       		.uleb128 0xb
 9819 04f8 3B       		.uleb128 0x3b
 9820 04f9 05       		.uleb128 0x5
 9821 04fa 49       		.uleb128 0x49
 9822 04fb 13       		.uleb128 0x13
 9823 04fc 02       		.uleb128 0x2
 9824 04fd 18       		.uleb128 0x18
 9825 04fe 00       		.byte	0
 9826 04ff 00       		.byte	0
 9827 0500 53       		.uleb128 0x53
 9828 0501 05       		.uleb128 0x5
 9829 0502 00       		.byte	0
 9830 0503 03       		.uleb128 0x3
 9831 0504 0E       		.uleb128 0xe
 9832 0505 3A       		.uleb128 0x3a
 9833 0506 0B       		.uleb128 0xb
 9834 0507 3B       		.uleb128 0x3b
 9835 0508 05       		.uleb128 0x5
 9836 0509 49       		.uleb128 0x49
 9837 050a 13       		.uleb128 0x13
 9838 050b 02       		.uleb128 0x2
 9839 050c 18       		.uleb128 0x18
 9840 050d 00       		.byte	0
 9841 050e 00       		.byte	0
 9842 050f 54       		.uleb128 0x54
 9843 0510 34       		.uleb128 0x34
 9844 0511 00       		.byte	0
 9845 0512 03       		.uleb128 0x3
 9846 0513 0E       		.uleb128 0xe
 9847 0514 3A       		.uleb128 0x3a
 9848 0515 0B       		.uleb128 0xb
 9849 0516 3B       		.uleb128 0x3b
 9850 0517 05       		.uleb128 0x5
 9851 0518 49       		.uleb128 0x49
 9852 0519 13       		.uleb128 0x13
 9853 051a 02       		.uleb128 0x2
 9854 051b 18       		.uleb128 0x18
 9855 051c 00       		.byte	0
 9856 051d 00       		.byte	0
 9857 051e 55       		.uleb128 0x55
 9858 051f 05       		.uleb128 0x5
 9859 0520 00       		.byte	0
 9860 0521 03       		.uleb128 0x3
 9861 0522 08       		.uleb128 0x8
 9862 0523 3A       		.uleb128 0x3a
ARM GAS  C:\Users\Chuck\AppData\Local\Temp\cc5X170Y.s 			page 199


 9863 0524 0B       		.uleb128 0xb
 9864 0525 3B       		.uleb128 0x3b
 9865 0526 05       		.uleb128 0x5
 9866 0527 49       		.uleb128 0x49
 9867 0528 13       		.uleb128 0x13
 9868 0529 02       		.uleb128 0x2
 9869 052a 18       		.uleb128 0x18
 9870 052b 00       		.byte	0
 9871 052c 00       		.byte	0
 9872 052d 56       		.uleb128 0x56
 9873 052e 2E       		.uleb128 0x2e
 9874 052f 01       		.byte	0x1
 9875 0530 03       		.uleb128 0x3
 9876 0531 0E       		.uleb128 0xe
 9877 0532 34       		.uleb128 0x34
 9878 0533 19       		.uleb128 0x19
 9879 0534 11       		.uleb128 0x11
 9880 0535 01       		.uleb128 0x1
 9881 0536 12       		.uleb128 0x12
 9882 0537 06       		.uleb128 0x6
 9883 0538 40       		.uleb128 0x40
 9884 0539 18       		.uleb128 0x18
 9885 053a 9642     		.uleb128 0x2116
 9886 053c 19       		.uleb128 0x19
 9887 053d 01       		.uleb128 0x1
 9888 053e 13       		.uleb128 0x13
 9889 053f 00       		.byte	0
 9890 0540 00       		.byte	0
 9891 0541 57       		.uleb128 0x57
 9892 0542 2E       		.uleb128 0x2e
 9893 0543 00       		.byte	0
 9894 0544 03       		.uleb128 0x3
 9895 0545 0E       		.uleb128 0xe
 9896 0546 34       		.uleb128 0x34
 9897 0547 19       		.uleb128 0x19
 9898 0548 11       		.uleb128 0x11
 9899 0549 01       		.uleb128 0x1
 9900 054a 12       		.uleb128 0x12
 9901 054b 06       		.uleb128 0x6
 9902 054c 40       		.uleb128 0x40
 9903 054d 18       		.uleb128 0x18
 9904 054e 9642     		.uleb128 0x2116
 9905 0550 19       		.uleb128 0x19
 9906 0551 00       		.byte	0
 9907 0552 00       		.byte	0
 9908 0553 58       		.uleb128 0x58
 9909 0554 34       		.uleb128 0x34
 9910 0555 00       		.byte	0
 9911 0556 03       		.uleb128 0x3
 9912 0557 0E       		.uleb128 0xe
 9913 0558 3A       		.uleb128 0x3a
 9914 0559 0B       		.uleb128 0xb
 9915 055a 3B       		.uleb128 0x3b
 9916 055b 0B       		.uleb128 0xb
 9917 055c 49       		.uleb128 0x49
 9918 055d 13       		.uleb128 0x13
 9919 055e 3F       		.uleb128 0x3f
ARM GAS  C:\Users\Chuck\AppData\Local\Temp\cc5X170Y.s 			page 200


 9920 055f 19       		.uleb128 0x19
 9921 0560 3C       		.uleb128 0x3c
 9922 0561 19       		.uleb128 0x19
 9923 0562 00       		.byte	0
 9924 0563 00       		.byte	0
 9925 0564 59       		.uleb128 0x59
 9926 0565 34       		.uleb128 0x34
 9927 0566 00       		.byte	0
 9928 0567 03       		.uleb128 0x3
 9929 0568 08       		.uleb128 0x8
 9930 0569 3A       		.uleb128 0x3a
 9931 056a 0B       		.uleb128 0xb
 9932 056b 3B       		.uleb128 0x3b
 9933 056c 0B       		.uleb128 0xb
 9934 056d 49       		.uleb128 0x49
 9935 056e 13       		.uleb128 0x13
 9936 056f 3F       		.uleb128 0x3f
 9937 0570 19       		.uleb128 0x19
 9938 0571 02       		.uleb128 0x2
 9939 0572 18       		.uleb128 0x18
 9940 0573 00       		.byte	0
 9941 0574 00       		.byte	0
 9942 0575 5A       		.uleb128 0x5a
 9943 0576 34       		.uleb128 0x34
 9944 0577 00       		.byte	0
 9945 0578 47       		.uleb128 0x47
 9946 0579 13       		.uleb128 0x13
 9947 057a 02       		.uleb128 0x2
 9948 057b 18       		.uleb128 0x18
 9949 057c 00       		.byte	0
 9950 057d 00       		.byte	0
 9951 057e 00       		.byte	0
 9952              		.section	.debug_aranges,"",%progbits
 9953 0000 74010000 		.4byte	0x174
 9954 0004 0200     		.2byte	0x2
 9955 0006 00000000 		.4byte	.Ldebug_info0
 9956 000a 04       		.byte	0x4
 9957 000b 00       		.byte	0
 9958 000c 0000     		.2byte	0
 9959 000e 0000     		.2byte	0
 9960 0010 00000000 		.4byte	.LFB11
 9961 0014 1E000000 		.4byte	.LFE11-.LFB11
 9962 0018 00000000 		.4byte	.LFB21
 9963 001c 1C000000 		.4byte	.LFE21-.LFB21
 9964 0020 00000000 		.4byte	.LFB23
 9965 0024 30000000 		.4byte	.LFE23-.LFB23
 9966 0028 00000000 		.4byte	.LFB25
 9967 002c AC000000 		.4byte	.LFE25-.LFB25
 9968 0030 00000000 		.4byte	.LFB26
 9969 0034 C4000000 		.4byte	.LFE26-.LFB26
 9970 0038 00000000 		.4byte	.LFB27
 9971 003c 18000000 		.4byte	.LFE27-.LFB27
 9972 0040 00000000 		.4byte	.LFB28
 9973 0044 18000000 		.4byte	.LFE28-.LFB28
 9974 0048 00000000 		.4byte	.LFB30
 9975 004c 48000000 		.4byte	.LFE30-.LFB30
 9976 0050 00000000 		.4byte	.LFB32
ARM GAS  C:\Users\Chuck\AppData\Local\Temp\cc5X170Y.s 			page 201


 9977 0054 5A010000 		.4byte	.LFE32-.LFB32
 9978 0058 00000000 		.4byte	.LFB33
 9979 005c D8010000 		.4byte	.LFE33-.LFB33
 9980 0060 00000000 		.4byte	.LFB34
 9981 0064 18000000 		.4byte	.LFE34-.LFB34
 9982 0068 00000000 		.4byte	.LFB35
 9983 006c 18000000 		.4byte	.LFE35-.LFB35
 9984 0070 00000000 		.4byte	.LFB37
 9985 0074 34000000 		.4byte	.LFE37-.LFB37
 9986 0078 00000000 		.4byte	.LFB39
 9987 007c 70000000 		.4byte	.LFE39-.LFB39
 9988 0080 00000000 		.4byte	.LFB40
 9989 0084 92000000 		.4byte	.LFE40-.LFB40
 9990 0088 00000000 		.4byte	.LFB41
 9991 008c 18000000 		.4byte	.LFE41-.LFB41
 9992 0090 00000000 		.4byte	.LFB42
 9993 0094 18000000 		.4byte	.LFE42-.LFB42
 9994 0098 00000000 		.4byte	.LFB51
 9995 009c 48000000 		.4byte	.LFE51-.LFB51
 9996 00a0 00000000 		.4byte	.LFB53
 9997 00a4 56020000 		.4byte	.LFE53-.LFB53
 9998 00a8 00000000 		.4byte	.LFB54
 9999 00ac B4020000 		.4byte	.LFE54-.LFB54
 10000 00b0 00000000 		.4byte	.LFB55
 10001 00b4 18000000 		.4byte	.LFE55-.LFB55
 10002 00b8 00000000 		.4byte	.LFB56
 10003 00bc 18000000 		.4byte	.LFE56-.LFB56
 10004 00c0 00000000 		.4byte	.LFB62
 10005 00c4 14000000 		.4byte	.LFE62-.LFB62
 10006 00c8 00000000 		.4byte	.LFB109
 10007 00cc 14000000 		.4byte	.LFE109-.LFB109
 10008 00d0 00000000 		.4byte	.LFB114
 10009 00d4 24000000 		.4byte	.LFE114-.LFB114
 10010 00d8 00000000 		.4byte	.LFB121
 10011 00dc 24000000 		.4byte	.LFE121-.LFB121
 10012 00e0 00000000 		.4byte	.LFB122
 10013 00e4 24000000 		.4byte	.LFE122-.LFB122
 10014 00e8 00000000 		.4byte	.LFB123
 10015 00ec 40000000 		.4byte	.LFE123-.LFB123
 10016 00f0 00000000 		.4byte	.LFB124
 10017 00f4 16000000 		.4byte	.LFE124-.LFB124
 10018 00f8 00000000 		.4byte	.LFB158
 10019 00fc 60000000 		.4byte	.LFE158-.LFB158
 10020 0100 00000000 		.4byte	.LFB161
 10021 0104 1C000000 		.4byte	.LFE161-.LFB161
 10022 0108 00000000 		.4byte	.LFB163
 10023 010c 00010000 		.4byte	.LFE163-.LFB163
 10024 0110 00000000 		.4byte	.LFB165
 10025 0114 40000000 		.4byte	.LFE165-.LFB165
 10026 0118 00000000 		.4byte	.LFB166
 10027 011c 24040000 		.4byte	.LFE166-.LFB166
 10028 0120 00000000 		.4byte	.LFB167
 10029 0124 3A000000 		.4byte	.LFE167-.LFB167
 10030 0128 00000000 		.4byte	.LFB168
 10031 012c B4010000 		.4byte	.LFE168-.LFB168
 10032 0130 00000000 		.4byte	.LFB169
 10033 0134 A4000000 		.4byte	.LFE169-.LFB169
ARM GAS  C:\Users\Chuck\AppData\Local\Temp\cc5X170Y.s 			page 202


 10034 0138 00000000 		.4byte	.LFB170
 10035 013c 34010000 		.4byte	.LFE170-.LFB170
 10036 0140 00000000 		.4byte	.LFB171
 10037 0144 74000000 		.4byte	.LFE171-.LFB171
 10038 0148 00000000 		.4byte	.LFB172
 10039 014c 1E000000 		.4byte	.LFE172-.LFB172
 10040 0150 00000000 		.4byte	.LFB173
 10041 0154 48000000 		.4byte	.LFE173-.LFB173
 10042 0158 00000000 		.4byte	.LFB174
 10043 015c 30000000 		.4byte	.LFE174-.LFB174
 10044 0160 00000000 		.4byte	.LFB175
 10045 0164 18000000 		.4byte	.LFE175-.LFB175
 10046 0168 00000000 		.4byte	.LFB176
 10047 016c 18000000 		.4byte	.LFE176-.LFB176
 10048 0170 00000000 		.4byte	0
 10049 0174 00000000 		.4byte	0
 10050              		.section	.debug_ranges,"",%progbits
 10051              	.Ldebug_ranges0:
 10052 0000 56000000 		.4byte	.LBB44
 10053 0004 6C000000 		.4byte	.LBE44
 10054 0008 7C000000 		.4byte	.LBB45
 10055 000c F2030000 		.4byte	.LBE45
 10056 0010 00000000 		.4byte	0
 10057 0014 00000000 		.4byte	0
 10058 0018 00000000 		.4byte	.LFB11
 10059 001c 1E000000 		.4byte	.LFE11
 10060 0020 00000000 		.4byte	.LFB21
 10061 0024 1C000000 		.4byte	.LFE21
 10062 0028 00000000 		.4byte	.LFB23
 10063 002c 30000000 		.4byte	.LFE23
 10064 0030 00000000 		.4byte	.LFB25
 10065 0034 AC000000 		.4byte	.LFE25
 10066 0038 00000000 		.4byte	.LFB26
 10067 003c C4000000 		.4byte	.LFE26
 10068 0040 00000000 		.4byte	.LFB27
 10069 0044 18000000 		.4byte	.LFE27
 10070 0048 00000000 		.4byte	.LFB28
 10071 004c 18000000 		.4byte	.LFE28
 10072 0050 00000000 		.4byte	.LFB30
 10073 0054 48000000 		.4byte	.LFE30
 10074 0058 00000000 		.4byte	.LFB32
 10075 005c 5A010000 		.4byte	.LFE32
 10076 0060 00000000 		.4byte	.LFB33
 10077 0064 D8010000 		.4byte	.LFE33
 10078 0068 00000000 		.4byte	.LFB34
 10079 006c 18000000 		.4byte	.LFE34
 10080 0070 00000000 		.4byte	.LFB35
 10081 0074 18000000 		.4byte	.LFE35
 10082 0078 00000000 		.4byte	.LFB37
 10083 007c 34000000 		.4byte	.LFE37
 10084 0080 00000000 		.4byte	.LFB39
 10085 0084 70000000 		.4byte	.LFE39
 10086 0088 00000000 		.4byte	.LFB40
 10087 008c 92000000 		.4byte	.LFE40
 10088 0090 00000000 		.4byte	.LFB41
 10089 0094 18000000 		.4byte	.LFE41
 10090 0098 00000000 		.4byte	.LFB42
ARM GAS  C:\Users\Chuck\AppData\Local\Temp\cc5X170Y.s 			page 203


 10091 009c 18000000 		.4byte	.LFE42
 10092 00a0 00000000 		.4byte	.LFB51
 10093 00a4 48000000 		.4byte	.LFE51
 10094 00a8 00000000 		.4byte	.LFB53
 10095 00ac 56020000 		.4byte	.LFE53
 10096 00b0 00000000 		.4byte	.LFB54
 10097 00b4 B4020000 		.4byte	.LFE54
 10098 00b8 00000000 		.4byte	.LFB55
 10099 00bc 18000000 		.4byte	.LFE55
 10100 00c0 00000000 		.4byte	.LFB56
 10101 00c4 18000000 		.4byte	.LFE56
 10102 00c8 00000000 		.4byte	.LFB62
 10103 00cc 14000000 		.4byte	.LFE62
 10104 00d0 00000000 		.4byte	.LFB109
 10105 00d4 14000000 		.4byte	.LFE109
 10106 00d8 00000000 		.4byte	.LFB114
 10107 00dc 24000000 		.4byte	.LFE114
 10108 00e0 00000000 		.4byte	.LFB121
 10109 00e4 24000000 		.4byte	.LFE121
 10110 00e8 00000000 		.4byte	.LFB122
 10111 00ec 24000000 		.4byte	.LFE122
 10112 00f0 00000000 		.4byte	.LFB123
 10113 00f4 40000000 		.4byte	.LFE123
 10114 00f8 00000000 		.4byte	.LFB124
 10115 00fc 16000000 		.4byte	.LFE124
 10116 0100 00000000 		.4byte	.LFB158
 10117 0104 60000000 		.4byte	.LFE158
 10118 0108 00000000 		.4byte	.LFB161
 10119 010c 1C000000 		.4byte	.LFE161
 10120 0110 00000000 		.4byte	.LFB163
 10121 0114 00010000 		.4byte	.LFE163
 10122 0118 00000000 		.4byte	.LFB165
 10123 011c 40000000 		.4byte	.LFE165
 10124 0120 00000000 		.4byte	.LFB166
 10125 0124 24040000 		.4byte	.LFE166
 10126 0128 00000000 		.4byte	.LFB167
 10127 012c 3A000000 		.4byte	.LFE167
 10128 0130 00000000 		.4byte	.LFB168
 10129 0134 B4010000 		.4byte	.LFE168
 10130 0138 00000000 		.4byte	.LFB169
 10131 013c A4000000 		.4byte	.LFE169
 10132 0140 00000000 		.4byte	.LFB170
 10133 0144 34010000 		.4byte	.LFE170
 10134 0148 00000000 		.4byte	.LFB171
 10135 014c 74000000 		.4byte	.LFE171
 10136 0150 00000000 		.4byte	.LFB172
 10137 0154 1E000000 		.4byte	.LFE172
 10138 0158 00000000 		.4byte	.LFB173
 10139 015c 48000000 		.4byte	.LFE173
 10140 0160 00000000 		.4byte	.LFB174
 10141 0164 30000000 		.4byte	.LFE174
 10142 0168 00000000 		.4byte	.LFB175
 10143 016c 18000000 		.4byte	.LFE175
 10144 0170 00000000 		.4byte	.LFB176
 10145 0174 18000000 		.4byte	.LFE176
 10146 0178 00000000 		.4byte	0
 10147 017c 00000000 		.4byte	0
ARM GAS  C:\Users\Chuck\AppData\Local\Temp\cc5X170Y.s 			page 204


 10148              		.section	.debug_line,"",%progbits
 10149              	.Ldebug_line0:
 10150 0000 6F080000 		.section	.debug_str,"MS",%progbits,1
 10150      02000702 
 10150      00000201 
 10150      FB0E0D00 
 10150      01010101 
 10151              	.LASF148:
 10152 0000 4552524F 		.ascii	"ERROR\000"
 10152      5200
 10153              	.LASF162:
 10154 0006 73745F73 		.ascii	"st_strings\000"
 10154      7472696E 
 10154      677300
 10155              	.LASF66:
 10156 0011 5F767074 		.ascii	"_vptr.NodeHandleBase_\000"
 10156      722E4E6F 
 10156      64654861 
 10156      6E646C65 
 10156      42617365 
 10157              	.LASF233:
 10158 0027 474E5520 		.ascii	"GNU C++ 4.9.3 20150303 (release) [ARM/embedded-4_9-"
 10158      432B2B20 
 10158      342E392E 
 10158      33203230 
 10158      31353033 
 10159 005a 6272616E 		.ascii	"branch revision 221220] -mcpu=cortex-m0 -mthumb -g "
 10159      63682072 
 10159      65766973 
 10159      696F6E20 
 10159      32323132 
 10160 008d 2D4F3020 		.ascii	"-O0 -ffunction-sections -ffat-lto-objects -fno-rtti"
 10160      2D666675 
 10160      6E637469 
 10160      6F6E2D73 
 10160      65637469 
 10161 00c0 202D666E 		.ascii	" -fno-exceptions -funsigned-char -funsigned-bitfiel"
 10161      6F2D6578 
 10161      63657074 
 10161      696F6E73 
 10161      202D6675 
 10162 00f3 6473202D 		.ascii	"ds -fshort-enums\000"
 10162      6673686F 
 10162      72742D65 
 10162      6E756D73 
 10162      00
 10163              	.LASF208:
 10164 0104 62617365 		.ascii	"base\000"
 10164      00
 10165              	.LASF161:
 10166 0109 73747269 		.ascii	"strings_length\000"
 10166      6E67735F 
 10166      6C656E67 
 10166      746800
 10167              	.LASF68:
 10168 0118 5F5A4E33 		.ascii	"_ZN3ros15NodeHandleBase_7publishEiPKNS_3MsgE\000"
 10168      726F7331 
ARM GAS  C:\Users\Chuck\AppData\Local\Temp\cc5X170Y.s 			page 205


 10168      354E6F64 
 10168      6548616E 
 10168      646C6542 
 10169              	.LASF177:
 10170 0145 5F5A4E31 		.ascii	"_ZN13Psoc4Hardware7getBaudEv\000"
 10170      3350736F 
 10170      63344861 
 10170      72647761 
 10170      72653767 
 10171              	.LASF149:
 10172 0162 6C657665 		.ascii	"level\000"
 10172      6C00
 10173              	.LASF73:
 10174 0168 72745F74 		.ascii	"rt_time\000"
 10174      696D6500 
 10175              	.LASF168:
 10176 0170 5F5A4E31 		.ascii	"_ZN14rosserial_msgs20RequestParamResponse6getMD5Ev\000"
 10176      34726F73 
 10176      73657269 
 10176      616C5F6D 
 10176      73677332 
 10177              	.LASF54:
 10178 01a3 73657269 		.ascii	"serialize\000"
 10178      616C697A 
 10178      6500
 10179              	.LASF211:
 10180 01ad 5F5A4E31 		.ascii	"_ZN14rosserial_msgs20RequestParamResponseC2Ev\000"
 10180      34726F73 
 10180      73657269 
 10180      616C5F6D 
 10180      73677332 
 10181              	.LASF112:
 10182 01db 5F5A4E33 		.ascii	"_ZN3ros11NodeHandle_I13Psoc4HardwareLi10ELi20ELi200"
 10182      726F7331 
 10182      314E6F64 
 10182      6548616E 
 10182      646C655F 
 10183 020e 454C6932 		.ascii	"ELi200EE7loginfoEPKc\000"
 10183      30304545 
 10183      376C6F67 
 10183      696E666F 
 10183      45504B63 
 10184              	.LASF181:
 10185 0223 5F5A4E31 		.ascii	"_ZN13Psoc4Hardware4readEv\000"
 10185      3350736F 
 10185      63344861 
 10185      72647761 
 10185      72653472 
 10186              	.LASF170:
 10187 023d 6D696C6C 		.ascii	"millis\000"
 10187      697300
 10188              	.LASF115:
 10189 0244 6C6F6765 		.ascii	"logerror\000"
 10189      72726F72 
 10189      00
 10190              	.LASF137:
 10191 024d 49445F54 		.ascii	"ID_TX_STOP\000"
ARM GAS  C:\Users\Chuck\AppData\Local\Temp\cc5X170Y.s 			page 206


 10191      585F5354 
 10191      4F5000
 10192              	.LASF12:
 10193 0258 756E7369 		.ascii	"unsigned int\000"
 10193      676E6564 
 10193      20696E74 
 10193      00
 10194              	.LASF223:
 10195 0265 5F5A4E33 		.ascii	"_ZN3ros15NodeHandleBase_C2Ev\000"
 10195      726F7331 
 10195      354E6F64 
 10195      6548616E 
 10195      646C6542 
 10196              	.LASF106:
 10197 0282 5F5A4E33 		.ascii	"_ZN3ros11NodeHandle_I13Psoc4HardwareLi10ELi20ELi200"
 10197      726F7331 
 10197      314E6F64 
 10197      6548616E 
 10197      646C655F 
 10198 02b5 454C6932 		.ascii	"ELi200EE15negotiateTopicsEv\000"
 10198      30304545 
 10198      31356E65 
 10198      676F7469 
 10198      61746554 
 10199              	.LASF96:
 10200 02d1 5F5A4E33 		.ascii	"_ZN3ros11NodeHandle_I13Psoc4HardwareLi10ELi20ELi200"
 10200      726F7331 
 10200      314E6F64 
 10200      6548616E 
 10200      646C655F 
 10201 0304 454C6932 		.ascii	"ELi200EE8spinOnceEv\000"
 10201      30304545 
 10201      38737069 
 10201      6E4F6E63 
 10201      65457600 
 10202              	.LASF6:
 10203 0318 5F5F696E 		.ascii	"__int32_t\000"
 10203      7433325F 
 10203      7400
 10204              	.LASF25:
 10205 0322 746F5365 		.ascii	"toSec\000"
 10205      6300
 10206              	.LASF240:
 10207 0328 5F5A4E33 		.ascii	"_ZN3ros11NodeHandle_I13Psoc4HardwareLi10ELi20ELi200"
 10207      726F7331 
 10207      314E6F64 
 10207      6548616E 
 10207      646C655F 
 10208 035b 454C6932 		.ascii	"ELi200EE3logEcPKc\000"
 10208      30304545 
 10208      336C6F67 
 10208      4563504B 
 10208      6300
 10209              	.LASF94:
 10210 036d 5F5A4E33 		.ascii	"_ZN3ros11NodeHandle_I13Psoc4HardwareLi10ELi20ELi200"
 10210      726F7331 
 10210      314E6F64 
ARM GAS  C:\Users\Chuck\AppData\Local\Temp\cc5X170Y.s 			page 207


 10210      6548616E 
 10210      646C655F 
 10211 03a0 454C6932 		.ascii	"ELi200EE8initNodeEv\000"
 10211      30304545 
 10211      38696E69 
 10211      744E6F64 
 10211      65457600 
 10212              	.LASF42:
 10213 03b4 5F5A4E33 		.ascii	"_ZN3ros4TimemIERKNS_8DurationE\000"
 10213      726F7334 
 10213      54696D65 
 10213      6D494552 
 10213      4B4E535F 
 10214              	.LASF244:
 10215 03d3 5F5A4E38 		.ascii	"_ZN8SysTimer4initEv\000"
 10215      53797354 
 10215      696D6572 
 10215      34696E69 
 10215      74457600 
 10216              	.LASF95:
 10217 03e7 5F5A4E33 		.ascii	"_ZN3ros11NodeHandle_I13Psoc4HardwareLi10ELi20ELi200"
 10217      726F7331 
 10217      314E6F64 
 10217      6548616E 
 10217      646C655F 
 10218 041a 454C6932 		.ascii	"ELi200EE8initNodeEPc\000"
 10218      30304545 
 10218      38696E69 
 10218      744E6F64 
 10218      65455063 
 10219              	.LASF163:
 10220 042f 73747269 		.ascii	"strings\000"
 10220      6E677300 
 10221              	.LASF35:
 10222 0437 5F5A4E4B 		.ascii	"_ZNK3ros4Time5toSecEv\000"
 10222      33726F73 
 10222      3454696D 
 10222      6535746F 
 10222      53656345 
 10223              	.LASF120:
 10224 044d 5F5A4E33 		.ascii	"_ZN3ros11NodeHandle_I13Psoc4HardwareLi10ELi20ELi200"
 10224      726F7331 
 10224      314E6F64 
 10224      6548616E 
 10224      646C655F 
 10225 0480 454C6932 		.ascii	"ELi200EE12requestParamEPKci\000"
 10225      30304545 
 10225      31327265 
 10225      71756573 
 10225      74506172 
 10226              	.LASF225:
 10227 049c 635F7469 		.ascii	"c_time\000"
 10227      6D6500
 10228              	.LASF246:
 10229 04a3 5F5F7674 		.ascii	"__vtbl_ptr_type\000"
 10229      626C5F70 
 10229      74725F74 
ARM GAS  C:\Users\Chuck\AppData\Local\Temp\cc5X170Y.s 			page 208


 10229      79706500 
 10230              	.LASF131:
 10231 04b3 726F7373 		.ascii	"rosserial_msgs\000"
 10231      65726961 
 10231      6C5F6D73 
 10231      677300
 10232              	.LASF185:
 10233 04c2 5F5A4E31 		.ascii	"_ZN13Psoc4Hardware4timeEv\000"
 10233      3350736F 
 10233      63344861 
 10233      72647761 
 10233      72653474 
 10234              	.LASF99:
 10235 04dc 73796E63 		.ascii	"syncTime\000"
 10235      54696D65 
 10235      00
 10236              	.LASF166:
 10237 04e5 5F5A4E31 		.ascii	"_ZN14rosserial_msgs20RequestParamResponse11deserial"
 10237      34726F73 
 10237      73657269 
 10237      616C5F6D 
 10237      73677332 
 10238 0518 697A6545 		.ascii	"izeEPh\000"
 10238      506800
 10239              	.LASF232:
 10240 051f 55617274 		.ascii	"Uart0\000"
 10240      3000
 10241              	.LASF197:
 10242 0525 5F5A4E33 		.ascii	"_ZN3ros3MsgC2Ev\000"
 10242      726F7333 
 10242      4D736743 
 10242      32457600 
 10243              	.LASF141:
 10244 0535 6D643573 		.ascii	"md5sum\000"
 10244      756D00
 10245              	.LASF152:
 10246 053c 5F5A4E31 		.ascii	"_ZN14rosserial_msgs3Log7getTypeEv\000"
 10246      34726F73 
 10246      73657269 
 10246      616C5F6D 
 10246      73677333 
 10247              	.LASF46:
 10248 055e 7075626C 		.ascii	"publish\000"
 10248      69736800 
 10249              	.LASF102:
 10250 0566 7365744E 		.ascii	"setNow\000"
 10250      6F7700
 10251              	.LASF154:
 10252 056d 52657175 		.ascii	"RequestParamResponse\000"
 10252      65737450 
 10252      6172616D 
 10252      52657370 
 10252      6F6E7365 
 10253              	.LASF142:
 10254 0582 62756666 		.ascii	"buffer_size\000"
 10254      65725F73 
 10254      697A6500 
ARM GAS  C:\Users\Chuck\AppData\Local\Temp\cc5X170Y.s 			page 209


 10255              	.LASF83:
 10256 058e 63686563 		.ascii	"checksum_\000"
 10256      6B73756D 
 10256      5F00
 10257              	.LASF28:
 10258 0598 5F5A4E33 		.ascii	"_ZN3ros8DurationpLERKS0_\000"
 10258      726F7338 
 10258      44757261 
 10258      74696F6E 
 10258      704C4552 
 10259              	.LASF16:
 10260 05b1 75696E74 		.ascii	"uint32_t\000"
 10260      33325F74 
 10260      00
 10261              	.LASF203:
 10262 05ba 6C656E67 		.ascii	"length_topic_name\000"
 10262      74685F74 
 10262      6F706963 
 10262      5F6E616D 
 10262      6500
 10263              	.LASF20:
 10264 05cc 666C6F61 		.ascii	"float\000"
 10264      7400
 10265              	.LASF41:
 10266 05d2 5F5A4E33 		.ascii	"_ZN3ros4TimepLERKNS_8DurationE\000"
 10266      726F7334 
 10266      54696D65 
 10266      704C4552 
 10266      4B4E535F 
 10267              	.LASF121:
 10268 05f1 67657450 		.ascii	"getParam\000"
 10268      6172616D 
 10268      00
 10269              	.LASF24:
 10270 05fa 66726F6D 		.ascii	"fromSec\000"
 10270      53656300 
 10271              	.LASF100:
 10272 0602 5F5A4E33 		.ascii	"_ZN3ros11NodeHandle_I13Psoc4HardwareLi10ELi20ELi200"
 10272      726F7331 
 10272      314E6F64 
 10272      6548616E 
 10272      646C655F 
 10273 0635 454C6932 		.ascii	"ELi200EE15requestSyncTimeEv\000"
 10273      30304545 
 10273      31357265 
 10273      71756573 
 10273      7453796E 
 10274              	.LASF32:
 10275 0651 5F5A4E33 		.ascii	"_ZN3ros8Duration7fromSecEd\000"
 10275      726F7338 
 10275      44757261 
 10275      74696F6E 
 10275      3766726F 
 10276              	.LASF183:
 10277 066c 5F5A4E31 		.ascii	"_ZN13Psoc4Hardware5writeEPhi\000"
 10277      3350736F 
 10277      63344861 
ARM GAS  C:\Users\Chuck\AppData\Local\Temp\cc5X170Y.s 			page 210


 10277      72647761 
 10277      72653577 
 10278              	.LASF84:
 10279 0689 636F6E66 		.ascii	"configured_\000"
 10279      69677572 
 10279      65645F00 
 10280              	.LASF11:
 10281 0695 6C6F6E67 		.ascii	"long long unsigned int\000"
 10281      206C6F6E 
 10281      6720756E 
 10281      7369676E 
 10281      65642069 
 10282              	.LASF81:
 10283 06ac 62797465 		.ascii	"bytes_\000"
 10283      735F00
 10284              	.LASF125:
 10285 06b3 5F5A4E33 		.ascii	"_ZN3ros11NodeHandle_I13Psoc4HardwareLi10ELi20ELi200"
 10285      726F7331 
 10285      314E6F64 
 10285      6548616E 
 10285      646C655F 
 10286 06e6 454C6932 		.ascii	"ELi200EE8getParamEPKcPPci\000"
 10286      30304545 
 10286      38676574 
 10286      50617261 
 10286      6D45504B 
 10287              	.LASF74:
 10288 0700 7365635F 		.ascii	"sec_offset\000"
 10288      6F666673 
 10288      657400
 10289              	.LASF61:
 10290 070b 5F5A4E33 		.ascii	"_ZN3ros3Msg6getMD5Ev\000"
 10290      726F7333 
 10290      4D736736 
 10290      6765744D 
 10290      44354576 
 10291              	.LASF64:
 10292 0720 64657365 		.ascii	"deserializeAvrFloat64\000"
 10292      7269616C 
 10292      697A6541 
 10292      7672466C 
 10292      6F617436 
 10293              	.LASF140:
 10294 0736 6D657373 		.ascii	"message_type\000"
 10294      6167655F 
 10294      74797065 
 10294      00
 10295              	.LASF4:
 10296 0743 5F5F7569 		.ascii	"__uint16_t\000"
 10296      6E743136 
 10296      5F7400
 10297              	.LASF134:
 10298 074e 49445F50 		.ascii	"ID_PARAMETER_REQUEST\000"
 10298      4152414D 
 10298      45544552 
 10298      5F524551 
 10298      55455354 
ARM GAS  C:\Users\Chuck\AppData\Local\Temp\cc5X170Y.s 			page 211


 10299              	.LASF226:
 10300 0763 6E65775F 		.ascii	"new_now\000"
 10300      6E6F7700 
 10301              	.LASF43:
 10302 076b 5075626C 		.ascii	"Publisher\000"
 10302      69736865 
 10302      7200
 10303              	.LASF184:
 10304 0775 74696D65 		.ascii	"time\000"
 10304      00
 10305              	.LASF215:
 10306 077a 696E7473 		.ascii	"ints_lengthT\000"
 10306      5F6C656E 
 10306      67746854 
 10306      00
 10307              	.LASF249:
 10308 0787 5F474C4F 		.ascii	"_GLOBAL__sub_I_nh\000"
 10308      42414C5F 
 10308      5F737562 
 10308      5F495F6E 
 10308      6800
 10309              	.LASF40:
 10310 0799 5F5A4E33 		.ascii	"_ZN3ros4Time8fromNSecEl\000"
 10310      726F7334 
 10310      54696D65 
 10310      3866726F 
 10310      6D4E5365 
 10311              	.LASF116:
 10312 07b1 5F5A4E33 		.ascii	"_ZN3ros11NodeHandle_I13Psoc4HardwareLi10ELi20ELi200"
 10312      726F7331 
 10312      314E6F64 
 10312      6548616E 
 10312      646C655F 
 10313 07e4 454C6932 		.ascii	"ELi200EE8logerrorEPKc\000"
 10313      30304545 
 10313      386C6F67 
 10313      6572726F 
 10313      7245504B 
 10314              	.LASF213:
 10315 07fa 755F666C 		.ascii	"u_floatsi\000"
 10315      6F617473 
 10315      6900
 10316              	.LASF78:
 10317 0804 7075626C 		.ascii	"publishers\000"
 10317      69736865 
 10317      727300
 10318              	.LASF228:
 10319 080f 5F5F696E 		.ascii	"__initialize_p\000"
 10319      69746961 
 10319      6C697A65 
 10319      5F7000
 10320              	.LASF218:
 10321 081e 755F7374 		.ascii	"u_st_ints\000"
 10321      5F696E74 
 10321      7300
 10322              	.LASF91:
 10323 0828 67657448 		.ascii	"getHardware\000"
ARM GAS  C:\Users\Chuck\AppData\Local\Temp\cc5X170Y.s 			page 212


 10323      61726477 
 10323      61726500 
 10324              	.LASF201:
 10325 0834 6F666673 		.ascii	"offset\000"
 10325      657400
 10326              	.LASF31:
 10327 083b 6F706572 		.ascii	"operator*=\000"
 10327      61746F72 
 10327      2A3D00
 10328              	.LASF108:
 10329 0846 5F5A4E33 		.ascii	"_ZN3ros11NodeHandle_I13Psoc4HardwareLi10ELi20ELi200"
 10329      726F7331 
 10329      314E6F64 
 10329      6548616E 
 10329      646C655F 
 10330 0879 454C6932 		.ascii	"ELi200EE7publishEiPKNS_3MsgE\000"
 10330      30304545 
 10330      37707562 
 10330      6C697368 
 10330      4569504B 
 10331              	.LASF97:
 10332 0896 636F6E6E 		.ascii	"connected\000"
 10332      65637465 
 10332      6400
 10333              	.LASF187:
 10334 08a0 48617264 		.ascii	"HardwareSerial\000"
 10334      77617265 
 10334      53657269 
 10334      616C00
 10335              	.LASF53:
 10336 08af 7E4D7367 		.ascii	"~Msg\000"
 10336      00
 10337              	.LASF229:
 10338 08b4 5F5F7072 		.ascii	"__priority\000"
 10338      696F7269 
 10338      747900
 10339              	.LASF48:
 10340 08bf 5F5A4E33 		.ascii	"_ZN3ros9Publisher7publishERKNS_3MsgE\000"
 10340      726F7339 
 10340      5075626C 
 10340      69736865 
 10340      72377075 
 10341              	.LASF65:
 10342 08e4 4E6F6465 		.ascii	"NodeHandleBase_\000"
 10342      48616E64 
 10342      6C654261 
 10342      73655F00 
 10343              	.LASF79:
 10344 08f4 73756273 		.ascii	"subscribers\000"
 10344      63726962 
 10344      65727300 
 10345              	.LASF22:
 10346 0900 6E736563 		.ascii	"nsec\000"
 10346      00
 10347              	.LASF36:
 10348 0905 5F5A4E33 		.ascii	"_ZN3ros4Time7fromSecEd\000"
 10348      726F7334 
ARM GAS  C:\Users\Chuck\AppData\Local\Temp\cc5X170Y.s 			page 213


 10348      54696D65 
 10348      3766726F 
 10348      6D536563 
 10349              	.LASF33:
 10350 091c 5F5A4E33 		.ascii	"_ZN3ros8DurationmLEd\000"
 10350      726F7338 
 10350      44757261 
 10350      74696F6E 
 10350      6D4C4564 
 10351              	.LASF130:
 10352 0931 4E6F6465 		.ascii	"NodeHandle\000"
 10352      48616E64 
 10352      6C6500
 10353              	.LASF49:
 10354 093c 67657445 		.ascii	"getEndpointType\000"
 10354      6E64706F 
 10354      696E7454 
 10354      79706500 
 10355              	.LASF189:
 10356 094c 7374645F 		.ascii	"std_msgs\000"
 10356      6D736773 
 10356      00
 10357              	.LASF80:
 10358 0955 6D6F6465 		.ascii	"mode_\000"
 10358      5F00
 10359              	.LASF224:
 10360 095b 5F5A4E33 		.ascii	"_ZN3ros11NodeHandle_I13Psoc4HardwareLi10ELi20ELi200"
 10360      726F7331 
 10360      314E6F64 
 10360      6548616E 
 10360      646C655F 
 10361 098e 454C6932 		.ascii	"ELi200EEC2Ev\000"
 10361      30304545 
 10361      43324576 
 10361      00
 10362              	.LASF216:
 10363 099b 666C6F61 		.ascii	"floats_lengthT\000"
 10363      74735F6C 
 10363      656E6774 
 10363      685400
 10364              	.LASF85:
 10365 09aa 6C617374 		.ascii	"last_sync_time\000"
 10365      5F73796E 
 10365      635F7469 
 10365      6D6500
 10366              	.LASF110:
 10367 09b9 5F5A4E33 		.ascii	"_ZN3ros11NodeHandle_I13Psoc4HardwareLi10ELi20ELi200"
 10367      726F7331 
 10367      314E6F64 
 10367      6548616E 
 10367      646C655F 
 10368 09ec 454C6932 		.ascii	"ELi200EE8logdebugEPKc\000"
 10368      30304545 
 10368      386C6F67 
 10368      64656275 
 10368      6745504B 
 10369              	.LASF26:
ARM GAS  C:\Users\Chuck\AppData\Local\Temp\cc5X170Y.s 			page 214


 10370 0a02 6F706572 		.ascii	"operator+=\000"
 10370      61746F72 
 10370      2B3D00
 10371              	.LASF165:
 10372 0a0d 5F5A4E4B 		.ascii	"_ZNK14rosserial_msgs20RequestParamResponse9serializ"
 10372      3134726F 
 10372      73736572 
 10372      69616C5F 
 10372      6D736773 
 10373 0a40 65455068 		.ascii	"eEPh\000"
 10373      00
 10374              	.LASF230:
 10375 0a45 55617274 		.ascii	"Uart\000"
 10375      00
 10376              	.LASF18:
 10377 0a4a 63686172 		.ascii	"char\000"
 10377      00
 10378              	.LASF221:
 10379 0a4f 5F5A4E31 		.ascii	"_ZN13Psoc4HardwareC2Ev\000"
 10379      3350736F 
 10379      63344861 
 10379      72647761 
 10379      72654332 
 10380              	.LASF27:
 10381 0a66 5F5A4E4B 		.ascii	"_ZNK3ros8Duration5toSecEv\000"
 10381      33726F73 
 10381      38447572 
 10381      6174696F 
 10381      6E35746F 
 10382              	.LASF37:
 10383 0a80 746F4E73 		.ascii	"toNsec\000"
 10383      656300
 10384              	.LASF57:
 10385 0a87 5F5A4E33 		.ascii	"_ZN3ros3Msg11deserializeEPh\000"
 10385      726F7333 
 10385      4D736731 
 10385      31646573 
 10385      65726961 
 10386              	.LASF82:
 10387 0aa3 696E6465 		.ascii	"index_\000"
 10387      785F00
 10388              	.LASF150:
 10389 0aaa 5F5A4E4B 		.ascii	"_ZNK14rosserial_msgs3Log9serializeEPh\000"
 10389      3134726F 
 10389      73736572 
 10389      69616C5F 
 10389      6D736773 
 10390              	.LASF98:
 10391 0ad0 72657175 		.ascii	"requestSyncTime\000"
 10391      65737453 
 10391      796E6354 
 10391      696D6500 
 10392              	.LASF103:
 10393 0ae0 5F5A4E33 		.ascii	"_ZN3ros11NodeHandle_I13Psoc4HardwareLi10ELi20ELi200"
 10393      726F7331 
 10393      314E6F64 
 10393      6548616E 
ARM GAS  C:\Users\Chuck\AppData\Local\Temp\cc5X170Y.s 			page 215


 10393      646C655F 
 10394 0b13 454C6932 		.ascii	"ELi200EE6setNowERNS_4TimeE\000"
 10394      30304545 
 10394      36736574 
 10394      4E6F7745 
 10394      524E535F 
 10395              	.LASF179:
 10396 0b2e 5F5A4E31 		.ascii	"_ZN13Psoc4Hardware4initEv\000"
 10396      3350736F 
 10396      63344861 
 10396      72647761 
 10396      72653469 
 10397              	.LASF13:
 10398 0b48 75696E74 		.ascii	"uint8_t\000"
 10398      385F7400 
 10399              	.LASF114:
 10400 0b50 5F5A4E33 		.ascii	"_ZN3ros11NodeHandle_I13Psoc4HardwareLi10ELi20ELi200"
 10400      726F7331 
 10400      314E6F64 
 10400      6548616E 
 10400      646C655F 
 10401 0b83 454C6932 		.ascii	"ELi200EE7logwarnEPKc\000"
 10401      30304545 
 10401      376C6F67 
 10401      7761726E 
 10401      45504B63 
 10402              	.LASF192:
 10403 0b98 5F5A4E38 		.ascii	"_ZN8std_msgs4Time11deserializeEPh\000"
 10403      7374645F 
 10403      6D736773 
 10403      3454696D 
 10403      65313164 
 10404              	.LASF132:
 10405 0bba 546F7069 		.ascii	"TopicInfo\000"
 10405      63496E66 
 10405      6F00
 10406              	.LASF175:
 10407 0bc4 5F5A4E31 		.ascii	"_ZN13Psoc4Hardware7setBaudEl\000"
 10407      3350736F 
 10407      63344861 
 10407      72647761 
 10407      72653773 
 10408              	.LASF209:
 10409 0be1 5F5A4E31 		.ascii	"_ZN14rosserial_msgs3LogC2Ev\000"
 10409      34726F73 
 10409      73657269 
 10409      616C5F6D 
 10409      73677333 
 10410              	.LASF126:
 10411 0bfd 4D41585F 		.ascii	"MAX_SUBSCRIBERS\000"
 10411      53554253 
 10411      43524942 
 10411      45525300 
 10412              	.LASF200:
 10413 0c0d 696E6275 		.ascii	"inbuffer\000"
 10413      66666572 
 10413      00
ARM GAS  C:\Users\Chuck\AppData\Local\Temp\cc5X170Y.s 			page 216


 10414              	.LASF55:
 10415 0c16 64657365 		.ascii	"deserialize\000"
 10415      7269616C 
 10415      697A6500 
 10416              	.LASF167:
 10417 0c22 5F5A4E31 		.ascii	"_ZN14rosserial_msgs20RequestParamResponse7getTypeEv"
 10417      34726F73 
 10417      73657269 
 10417      616C5F6D 
 10417      73677332 
 10418 0c55 00       		.ascii	"\000"
 10419              	.LASF88:
 10420 0c56 70617261 		.ascii	"param_recieved\000"
 10420      6D5F7265 
 10420      63696576 
 10420      656400
 10421              	.LASF30:
 10422 0c65 5F5A4E33 		.ascii	"_ZN3ros8DurationmIERKS0_\000"
 10422      726F7338 
 10422      44757261 
 10422      74696F6E 
 10422      6D494552 
 10423              	.LASF159:
 10424 0c7e 73745F66 		.ascii	"st_floats\000"
 10424      6C6F6174 
 10424      7300
 10425              	.LASF239:
 10426 0c88 5F5A4E33 		.ascii	"_ZN3ros11NodeHandle_I13Psoc4HardwareLi10ELi20ELi200"
 10426      726F7331 
 10426      314E6F64 
 10426      6548616E 
 10426      646C655F 
 10427 0cbb 454C6932 		.ascii	"ELi200EE3nowEv\000"
 10427      30304545 
 10427      336E6F77 
 10427      457600
 10428              	.LASF10:
 10429 0cca 6C6F6E67 		.ascii	"long long int\000"
 10429      206C6F6E 
 10429      6720696E 
 10429      7400
 10430              	.LASF182:
 10431 0cd8 77726974 		.ascii	"write\000"
 10431      6500
 10432              	.LASF67:
 10433 0cde 7E4E6F64 		.ascii	"~NodeHandleBase_\000"
 10433      6548616E 
 10433      646C6542 
 10433      6173655F 
 10433      00
 10434              	.LASF138:
 10435 0cef 746F7069 		.ascii	"topic_id\000"
 10435      635F6964 
 10435      00
 10436              	.LASF129:
 10437 0cf8 4F555450 		.ascii	"OUTPUT_SIZE\000"
 10437      55545F53 
ARM GAS  C:\Users\Chuck\AppData\Local\Temp\cc5X170Y.s 			page 217


 10437      495A4500 
 10438              	.LASF238:
 10439 0d04 5F5A4E33 		.ascii	"_ZN3ros3Msg21deserializeAvrFloat64EPKhPf\000"
 10439      726F7333 
 10439      4D736732 
 10439      31646573 
 10439      65726961 
 10440              	.LASF219:
 10441 0d2d 755F7374 		.ascii	"u_st_floats\000"
 10441      5F666C6F 
 10441      61747300 
 10442              	.LASF188:
 10443 0d39 626F6F6C 		.ascii	"bool\000"
 10443      00
 10444              	.LASF135:
 10445 0d3e 49445F4C 		.ascii	"ID_LOG\000"
 10445      4F4700
 10446              	.LASF29:
 10447 0d45 6F706572 		.ascii	"operator-=\000"
 10447      61746F72 
 10447      2D3D00
 10448              	.LASF63:
 10449 0d50 5F5A4E33 		.ascii	"_ZN3ros3Msg19serializeAvrFloat64EPhf\000"
 10449      726F7333 
 10449      4D736731 
 10449      39736572 
 10449      69616C69 
 10450              	.LASF58:
 10451 0d75 67657454 		.ascii	"getType\000"
 10451      79706500 
 10452              	.LASF23:
 10453 0d7d 44757261 		.ascii	"Duration\000"
 10453      74696F6E 
 10453      00
 10454              	.LASF104:
 10455 0d86 61647665 		.ascii	"advertise\000"
 10455      72746973 
 10455      6500
 10456              	.LASF77:
 10457 0d90 6D657373 		.ascii	"message_out\000"
 10457      6167655F 
 10457      6F757400 
 10458              	.LASF122:
 10459 0d9c 5F5A4E33 		.ascii	"_ZN3ros11NodeHandle_I13Psoc4HardwareLi10ELi20ELi200"
 10459      726F7331 
 10459      314E6F64 
 10459      6548616E 
 10459      646C655F 
 10460 0dcf 454C6932 		.ascii	"ELi200EE9advertiseERNS_9PublisherE\000"
 10460      30304545 
 10460      39616476 
 10460      65727469 
 10460      73654552 
 10461              	.LASF50:
 10462 0df2 5F5A4E33 		.ascii	"_ZN3ros9Publisher15getEndpointTypeEv\000"
 10462      726F7339 
 10462      5075626C 
ARM GAS  C:\Users\Chuck\AppData\Local\Temp\cc5X170Y.s 			page 218


 10462      69736865 
 10462      72313567 
 10463              	.LASF193:
 10464 0e17 5F5A4E38 		.ascii	"_ZN8std_msgs4Time7getTypeEv\000"
 10464      7374645F 
 10464      6D736773 
 10464      3454696D 
 10464      65376765 
 10465              	.LASF153:
 10466 0e33 5F5A4E31 		.ascii	"_ZN14rosserial_msgs3Log6getMD5Ev\000"
 10466      34726F73 
 10466      73657269 
 10466      616C5F6D 
 10466      73677333 
 10467              	.LASF241:
 10468 0e54 48617264 		.ascii	"Hardware\000"
 10468      77617265 
 10468      00
 10469              	.LASF107:
 10470 0e5d 5F5A4E33 		.ascii	"_ZN3ros11NodeHandle_I13Psoc4HardwareLi10ELi20ELi200"
 10470      726F7331 
 10470      314E6F64 
 10470      6548616E 
 10470      646C655F 
 10471 0e90 454C6932 		.ascii	"ELi200EE9connectedEv\000"
 10471      30304545 
 10471      39636F6E 
 10471      6E656374 
 10471      65644576 
 10472              	.LASF70:
 10473 0ea5 5F5A4E33 		.ascii	"_ZN3ros15NodeHandleBase_8spinOnceEv\000"
 10473      726F7331 
 10473      354E6F64 
 10473      6548616E 
 10473      646C6542 
 10474              	.LASF220:
 10475 0ec9 6C656E67 		.ascii	"length_st_strings\000"
 10475      74685F73 
 10475      745F7374 
 10475      72696E67 
 10475      7300
 10476              	.LASF72:
 10477 0edb 68617264 		.ascii	"hardware_\000"
 10477      77617265 
 10477      5F00
 10478              	.LASF194:
 10479 0ee5 5F5A4E38 		.ascii	"_ZN8std_msgs4Time6getMD5Ev\000"
 10479      7374645F 
 10479      6D736773 
 10479      3454696D 
 10479      65366765 
 10480              	.LASF198:
 10481 0f00 5F5A4E38 		.ascii	"_ZN8std_msgs4TimeC2Ev\000"
 10481      7374645F 
 10481      6D736773 
 10481      3454696D 
 10481      65433245 
ARM GAS  C:\Users\Chuck\AppData\Local\Temp\cc5X170Y.s 			page 219


 10482              	.LASF38:
 10483 0f16 5F5A4E33 		.ascii	"_ZN3ros4Time6toNsecEv\000"
 10483      726F7334 
 10483      54696D65 
 10483      36746F4E 
 10483      73656345 
 10484              	.LASF56:
 10485 0f2c 5F5A4E4B 		.ascii	"_ZNK3ros3Msg9serializeEPh\000"
 10485      33726F73 
 10485      334D7367 
 10485      39736572 
 10485      69616C69 
 10486              	.LASF171:
 10487 0f46 50736F63 		.ascii	"Psoc4Hardware\000"
 10487      34486172 
 10487      64776172 
 10487      6500
 10488              	.LASF190:
 10489 0f54 64617461 		.ascii	"data\000"
 10489      00
 10490              	.LASF204:
 10491 0f59 6C656E67 		.ascii	"length_message_type\000"
 10491      74685F6D 
 10491      65737361 
 10491      67655F74 
 10491      79706500 
 10492              	.LASF205:
 10493 0f6d 6C656E67 		.ascii	"length_md5sum\000"
 10493      74685F6D 
 10493      64357375 
 10493      6D00
 10494              	.LASF105:
 10495 0f7b 6E65676F 		.ascii	"negotiateTopics\000"
 10495      74696174 
 10495      65546F70 
 10495      69637300 
 10496              	.LASF123:
 10497 0f8b 5F5A4E33 		.ascii	"_ZN3ros11NodeHandle_I13Psoc4HardwareLi10ELi20ELi200"
 10497      726F7331 
 10497      314E6F64 
 10497      6548616E 
 10497      646C655F 
 10498 0fbe 454C6932 		.ascii	"ELi200EE8getParamEPKcPli\000"
 10498      30304545 
 10498      38676574 
 10498      50617261 
 10498      6D45504B 
 10499              	.LASF21:
 10500 0fd7 6C6F6E67 		.ascii	"long double\000"
 10500      20646F75 
 10500      626C6500 
 10501              	.LASF217:
 10502 0fe3 73747269 		.ascii	"strings_lengthT\000"
 10502      6E67735F 
 10502      6C656E67 
 10502      74685400 
 10503              	.LASF14:
ARM GAS  C:\Users\Chuck\AppData\Local\Temp\cc5X170Y.s 			page 220


 10504 0ff3 75696E74 		.ascii	"uint16_t\000"
 10504      31365F74 
 10504      00
 10505              	.LASF174:
 10506 0ffc 73657442 		.ascii	"setBaud\000"
 10506      61756400 
 10507              	.LASF245:
 10508 1004 5F5A4E38 		.ascii	"_ZN8SysTimer6millisEv\000"
 10508      53797354 
 10508      696D6572 
 10508      366D696C 
 10508      6C697345 
 10509              	.LASF158:
 10510 101a 666C6F61 		.ascii	"floats_length\000"
 10510      74735F6C 
 10510      656E6774 
 10510      6800
 10511              	.LASF248:
 10512 1028 5F5F7374 		.ascii	"__static_initialization_and_destruction_0\000"
 10512      61746963 
 10512      5F696E69 
 10512      7469616C 
 10512      697A6174 
 10513              	.LASF164:
 10514 1052 7E526571 		.ascii	"~RequestParamResponse\000"
 10514      75657374 
 10514      50617261 
 10514      6D526573 
 10514      706F6E73 
 10515              	.LASF71:
 10516 1068 4E6F6465 		.ascii	"NodeHandle_<Psoc4Hardware, 10, 20, 200, 200>\000"
 10516      48616E64 
 10516      6C655F3C 
 10516      50736F63 
 10516      34486172 
 10517              	.LASF60:
 10518 1095 6765744D 		.ascii	"getMD5\000"
 10518      443500
 10519              	.LASF113:
 10520 109c 6C6F6777 		.ascii	"logwarn\000"
 10520      61726E00 
 10521              	.LASF2:
 10522 10a4 73686F72 		.ascii	"short int\000"
 10522      7420696E 
 10522      7400
 10523              	.LASF176:
 10524 10ae 67657442 		.ascii	"getBaud\000"
 10524      61756400 
 10525              	.LASF237:
 10526 10b6 5F5A4E33 		.ascii	"_ZN3ros4Time6setNowERS0_\000"
 10526      726F7334 
 10526      54696D65 
 10526      36736574 
 10526      4E6F7745 
 10527              	.LASF236:
 10528 10cf 5F5A4E33 		.ascii	"_ZN3ros4Time3nowEv\000"
 10528      726F7334 
ARM GAS  C:\Users\Chuck\AppData\Local\Temp\cc5X170Y.s 			page 221


 10528      54696D65 
 10528      336E6F77 
 10528      457600
 10529              	.LASF199:
 10530 10e2 6F757462 		.ascii	"outbuffer\000"
 10530      75666665 
 10530      7200
 10531              	.LASF7:
 10532 10ec 6C6F6E67 		.ascii	"long int\000"
 10532      20696E74 
 10532      00
 10533              	.LASF92:
 10534 10f5 5F5A4E33 		.ascii	"_ZN3ros11NodeHandle_I13Psoc4HardwareLi10ELi20ELi200"
 10534      726F7331 
 10534      314E6F64 
 10534      6548616E 
 10534      646C655F 
 10535 1128 454C6932 		.ascii	"ELi200EE11getHardwareEv\000"
 10535      30304545 
 10535      31316765 
 10535      74486172 
 10535      64776172 
 10536              	.LASF222:
 10537 1140 6C656E67 		.ascii	"length\000"
 10537      746800
 10538              	.LASF235:
 10539 1147 453A5C50 		.ascii	"E:\\PSoC\\RosOnAStick\\RosOnAStick.cydsn\000"
 10539      536F435C 
 10539      526F734F 
 10539      6E415374 
 10539      69636B5C 
 10540              	.LASF242:
 10541 116d 726F7373 		.ascii	"rosserial_msgs/RequestParam\000"
 10541      65726961 
 10541      6C5F6D73 
 10541      67732F52 
 10541      65717565 
 10542              	.LASF69:
 10543 1189 7370696E 		.ascii	"spinOnce\000"
 10543      4F6E6365 
 10543      00
 10544              	.LASF128:
 10545 1192 494E5055 		.ascii	"INPUT_SIZE\000"
 10545      545F5349 
 10545      5A4500
 10546              	.LASF146:
 10547 119d 5F5A4E33 		.ascii	"_ZN3ros15NodeHandleBase_9connectedEv\000"
 10547      726F7331 
 10547      354E6F64 
 10547      6548616E 
 10547      646C6542 
 10548              	.LASF156:
 10549 11c2 73745F69 		.ascii	"st_ints\000"
 10549      6E747300 
 10550              	.LASF89:
 10551 11ca 7265715F 		.ascii	"req_param_resp\000"
 10551      70617261 
ARM GAS  C:\Users\Chuck\AppData\Local\Temp\cc5X170Y.s 			page 222


 10551      6D5F7265 
 10551      737000
 10552              	.LASF93:
 10553 11d9 696E6974 		.ascii	"initNode\000"
 10553      4E6F6465 
 10553      00
 10554              	.LASF76:
 10555 11e2 6D657373 		.ascii	"message_in\000"
 10555      6167655F 
 10555      696E00
 10556              	.LASF51:
 10557 11ed 656E6470 		.ascii	"endpoint_\000"
 10557      6F696E74 
 10557      5F00
 10558              	.LASF118:
 10559 11f7 5F5A4E33 		.ascii	"_ZN3ros11NodeHandle_I13Psoc4HardwareLi10ELi20ELi200"
 10559      726F7331 
 10559      314E6F64 
 10559      6548616E 
 10559      646C655F 
 10560 122a 454C6932 		.ascii	"ELi200EE8logfatalEPKc\000"
 10560      30304545 
 10560      386C6F67 
 10560      66617461 
 10560      6C45504B 
 10561              	.LASF3:
 10562 1240 5F5F7569 		.ascii	"__uint8_t\000"
 10562      6E74385F 
 10562      7400
 10563              	.LASF243:
 10564 124a 6D696C6C 		.ascii	"millis_\000"
 10564      69735F00 
 10565              	.LASF180:
 10566 1252 72656164 		.ascii	"read\000"
 10566      00
 10567              	.LASF207:
 10568 1257 7265616C 		.ascii	"real\000"
 10568      00
 10569              	.LASF212:
 10570 125c 755F696E 		.ascii	"u_intsi\000"
 10570      74736900 
 10571              	.LASF136:
 10572 1264 49445F54 		.ascii	"ID_TIME\000"
 10572      494D4500 
 10573              	.LASF117:
 10574 126c 6C6F6766 		.ascii	"logfatal\000"
 10574      6174616C 
 10574      00
 10575              	.LASF90:
 10576 1275 4E6F6465 		.ascii	"NodeHandle_\000"
 10576      48616E64 
 10576      6C655F00 
 10577              	.LASF75:
 10578 1281 6E736563 		.ascii	"nsec_offset\000"
 10578      5F6F6666 
 10578      73657400 
 10579              	.LASF178:
ARM GAS  C:\Users\Chuck\AppData\Local\Temp\cc5X170Y.s 			page 223


 10580 128d 696E6974 		.ascii	"init\000"
 10580      00
 10581              	.LASF234:
 10582 1292 2E5C6D61 		.ascii	".\\main.cpp\000"
 10582      696E2E63 
 10582      707000
 10583              	.LASF17:
 10584 129d 73697A65 		.ascii	"sizetype\000"
 10584      74797065 
 10584      00
 10585              	.LASF9:
 10586 12a6 6C6F6E67 		.ascii	"long unsigned int\000"
 10586      20756E73 
 10586      69676E65 
 10586      6420696E 
 10586      7400
 10587              	.LASF52:
 10588 12b8 5F767074 		.ascii	"_vptr.Msg\000"
 10588      722E4D73 
 10588      6700
 10589              	.LASF144:
 10590 12c2 5F5A4E31 		.ascii	"_ZN14rosserial_msgs9TopicInfo11deserializeEPh\000"
 10590      34726F73 
 10590      73657269 
 10590      616C5F6D 
 10590      73677339 
 10591              	.LASF15:
 10592 12f0 696E7433 		.ascii	"int32_t\000"
 10592      325F7400 
 10593              	.LASF196:
 10594 12f8 5F5A4E33 		.ascii	"_ZN3ros4TimeC2Ev\000"
 10594      726F7334 
 10594      54696D65 
 10594      43324576 
 10594      00
 10595              	.LASF186:
 10596 1309 53756273 		.ascii	"Subscriber_\000"
 10596      63726962 
 10596      65725F00 
 10597              	.LASF227:
 10598 1315 62797465 		.ascii	"byte\000"
 10598      00
 10599              	.LASF145:
 10600 131a 5F5A4E31 		.ascii	"_ZN14rosserial_msgs9TopicInfo7getTypeEv\000"
 10600      34726F73 
 10600      73657269 
 10600      616C5F6D 
 10600      73677339 
 10601              	.LASF173:
 10602 1342 62617564 		.ascii	"baud_\000"
 10602      5F00
 10603              	.LASF147:
 10604 1348 5F5A4E31 		.ascii	"_ZN14rosserial_msgs9TopicInfo6getMD5Ev\000"
 10604      34726F73 
 10604      73657269 
 10604      616C5F6D 
 10604      73677339 
ARM GAS  C:\Users\Chuck\AppData\Local\Temp\cc5X170Y.s 			page 224


 10605              	.LASF202:
 10606 136f 5F5A4E31 		.ascii	"_ZN14rosserial_msgs9TopicInfoC2Ev\000"
 10606      34726F73 
 10606      73657269 
 10606      616C5F6D 
 10606      73677339 
 10607              	.LASF1:
 10608 1391 756E7369 		.ascii	"unsigned char\000"
 10608      676E6564 
 10608      20636861 
 10608      7200
 10609              	.LASF8:
 10610 139f 5F5F7569 		.ascii	"__uint32_t\000"
 10610      6E743332 
 10610      5F7400
 10611              	.LASF139:
 10612 13aa 746F7069 		.ascii	"topic_name\000"
 10612      635F6E61 
 10612      6D6500
 10613              	.LASF160:
 10614 13b5 666C6F61 		.ascii	"floats\000"
 10614      747300
 10615              	.LASF86:
 10616 13bc 6C617374 		.ascii	"last_sync_receive_time\000"
 10616      5F73796E 
 10616      635F7265 
 10616      63656976 
 10616      655F7469 
 10617              	.LASF101:
 10618 13d3 5F5A4E33 		.ascii	"_ZN3ros11NodeHandle_I13Psoc4HardwareLi10ELi20ELi200"
 10618      726F7331 
 10618      314E6F64 
 10618      6548616E 
 10618      646C655F 
 10619 1406 454C6932 		.ascii	"ELi200EE8syncTimeEPh\000"
 10619      30304545 
 10619      3873796E 
 10619      6354696D 
 10619      65455068 
 10620              	.LASF206:
 10621 141b 755F6275 		.ascii	"u_buffer_size\000"
 10621      66666572 
 10621      5F73697A 
 10621      6500
 10622              	.LASF210:
 10623 1429 6C656E67 		.ascii	"length_msg\000"
 10623      74685F6D 
 10623      736700
 10624              	.LASF119:
 10625 1434 72657175 		.ascii	"requestParam\000"
 10625      65737450 
 10625      6172616D 
 10625      00
 10626              	.LASF191:
 10627 1441 5F5A4E4B 		.ascii	"_ZNK8std_msgs4Time9serializeEPh\000"
 10627      38737464 
 10627      5F6D7367 
ARM GAS  C:\Users\Chuck\AppData\Local\Temp\cc5X170Y.s 			page 225


 10627      73345469 
 10627      6D653973 
 10628              	.LASF133:
 10629 1461 49445F50 		.ascii	"ID_PUBLISHER\000"
 10629      55424C49 
 10629      53484552 
 10629      00
 10630              	.LASF151:
 10631 146e 5F5A4E31 		.ascii	"_ZN14rosserial_msgs3Log11deserializeEPh\000"
 10631      34726F73 
 10631      73657269 
 10631      616C5F6D 
 10631      73677333 
 10632              	.LASF87:
 10633 1496 6C617374 		.ascii	"last_msg_timeout_time\000"
 10633      5F6D7367 
 10633      5F74696D 
 10633      656F7574 
 10633      5F74696D 
 10634              	.LASF39:
 10635 14ac 66726F6D 		.ascii	"fromNSec\000"
 10635      4E536563 
 10635      00
 10636              	.LASF124:
 10637 14b5 5F5A4E33 		.ascii	"_ZN3ros11NodeHandle_I13Psoc4HardwareLi10ELi20ELi200"
 10637      726F7331 
 10637      314E6F64 
 10637      6548616E 
 10637      646C655F 
 10638 14e8 454C6932 		.ascii	"ELi200EE8getParamEPKcPfi\000"
 10638      30304545 
 10638      38676574 
 10638      50617261 
 10638      6D45504B 
 10639              	.LASF47:
 10640 1501 5F5A4E33 		.ascii	"_ZN3ros9Publisher7publishEPKNS_3MsgE\000"
 10640      726F7339 
 10640      5075626C 
 10640      69736865 
 10640      72377075 
 10641              	.LASF62:
 10642 1526 73657269 		.ascii	"serializeAvrFloat64\000"
 10642      616C697A 
 10642      65417672 
 10642      466C6F61 
 10642      74363400 
 10643              	.LASF231:
 10644 153a 52455155 		.ascii	"REQUESTPARAM\000"
 10644      45535450 
 10644      4152414D 
 10644      00
 10645              	.LASF0:
 10646 1547 7369676E 		.ascii	"signed char\000"
 10646      65642063 
 10646      68617200 
 10647              	.LASF155:
 10648 1553 696E7473 		.ascii	"ints_length\000"
ARM GAS  C:\Users\Chuck\AppData\Local\Temp\cc5X170Y.s 			page 226


 10648      5F6C656E 
 10648      67746800 
 10649              	.LASF5:
 10650 155f 73686F72 		.ascii	"short unsigned int\000"
 10650      7420756E 
 10650      7369676E 
 10650      65642069 
 10650      6E7400
 10651              	.LASF45:
 10652 1572 6D73675F 		.ascii	"msg_\000"
 10652      00
 10653              	.LASF247:
 10654 1577 6D61696E 		.ascii	"main\000"
 10654      00
 10655              	.LASF44:
 10656 157c 746F7069 		.ascii	"topic_\000"
 10656      635F00
 10657              	.LASF34:
 10658 1583 54696D65 		.ascii	"Time\000"
 10658      00
 10659              	.LASF195:
 10660 1588 74686973 		.ascii	"this\000"
 10660      00
 10661              	.LASF19:
 10662 158d 646F7562 		.ascii	"double\000"
 10662      6C6500
 10663              	.LASF109:
 10664 1594 6C6F6764 		.ascii	"logdebug\000"
 10664      65627567 
 10664      00
 10665              	.LASF59:
 10666 159d 5F5A4E33 		.ascii	"_ZN3ros3Msg7getTypeEv\000"
 10666      726F7333 
 10666      4D736737 
 10666      67657454 
 10666      79706545 
 10667              	.LASF143:
 10668 15b3 5F5A4E4B 		.ascii	"_ZNK14rosserial_msgs9TopicInfo9serializeEPh\000"
 10668      3134726F 
 10668      73736572 
 10668      69616C5F 
 10668      6D736773 
 10669              	.LASF111:
 10670 15df 6C6F6769 		.ascii	"loginfo\000"
 10670      6E666F00 
 10671              	.LASF157:
 10672 15e7 696E7473 		.ascii	"ints\000"
 10672      00
 10673              	.LASF172:
 10674 15ec 696F7374 		.ascii	"iostream\000"
 10674      7265616D 
 10674      00
 10675              	.LASF214:
 10676 15f5 6C656E67 		.ascii	"length_stringsi\000"
 10676      74685F73 
 10676      7472696E 
 10676      67736900 
ARM GAS  C:\Users\Chuck\AppData\Local\Temp\cc5X170Y.s 			page 227


 10677              	.LASF169:
 10678 1605 53797354 		.ascii	"SysTimer\000"
 10678      696D6572 
 10678      00
 10679              	.LASF127:
 10680 160e 4D41585F 		.ascii	"MAX_PUBLISHERS\000"
 10680      5055424C 
 10680      49534845 
 10680      525300
 10681              		.ident	"GCC: (GNU Tools for ARM Embedded Processors) 4.9.3 20150303 (release) [ARM/embedded-4_9-br
