ARM GAS  C:\Users\Chuck\AppData\Local\Temp\ccfyZq46.s 			page 1


   1              		.cpu cortex-m0
   2              		.fpu softvfp
   3              		.eabi_attribute 20, 1
   4              		.eabi_attribute 21, 1
   5              		.eabi_attribute 23, 3
   6              		.eabi_attribute 24, 1
   7              		.eabi_attribute 25, 1
   8              		.eabi_attribute 26, 1
   9              		.eabi_attribute 30, 6
  10              		.eabi_attribute 34, 0
  11              		.eabi_attribute 18, 4
  12              		.code	16
  13              		.file	"StepperControl.cpp"
  14              		.text
  15              	.Ltext0:
  16              		.cfi_sections	.debug_frame
  17              		.section	.text._ZN3ros3MsgC2Ev,"axG",%progbits,_ZN3ros3MsgC5Ev,comdat
  18              		.align	2
  19              		.weak	_ZN3ros3MsgC2Ev
  20              		.code	16
  21              		.thumb_func
  22              		.type	_ZN3ros3MsgC2Ev, %function
  23              	_ZN3ros3MsgC2Ev:
  24              	.LFB21:
  25              		.file 1 "./ros_lib/ros/msg.h"
   1:./ros_lib/ros/msg.h **** /* 
   2:./ros_lib/ros/msg.h ****  * Software License Agreement (BSD License)
   3:./ros_lib/ros/msg.h ****  *
   4:./ros_lib/ros/msg.h ****  * Copyright (c) 2011, Willow Garage, Inc.
   5:./ros_lib/ros/msg.h ****  * All rights reserved.
   6:./ros_lib/ros/msg.h ****  *
   7:./ros_lib/ros/msg.h ****  * Redistribution and use in source and binary forms, with or without
   8:./ros_lib/ros/msg.h ****  * modification, are permitted provided that the following conditions
   9:./ros_lib/ros/msg.h ****  * are met:
  10:./ros_lib/ros/msg.h ****  *
  11:./ros_lib/ros/msg.h ****  *  * Redistributions of source code must retain the above copyright
  12:./ros_lib/ros/msg.h ****  *    notice, this list of conditions and the following disclaimer.
  13:./ros_lib/ros/msg.h ****  *  * Redistributions in binary form must reproduce the above
  14:./ros_lib/ros/msg.h ****  *    copyright notice, this list of conditions and the following
  15:./ros_lib/ros/msg.h ****  *    disclaimer in the documentation and/or other materials provided
  16:./ros_lib/ros/msg.h ****  *    with the distribution.
  17:./ros_lib/ros/msg.h ****  *  * Neither the name of Willow Garage, Inc. nor the names of its
  18:./ros_lib/ros/msg.h ****  *    contributors may be used to endorse or promote prducts derived
  19:./ros_lib/ros/msg.h ****  *    from this software without specific prior written permission.
  20:./ros_lib/ros/msg.h ****  *
  21:./ros_lib/ros/msg.h ****  * THIS SOFTWARE IS PROVIDED BY THE COPYRIGHT HOLDERS AND CONTRIBUTORS
  22:./ros_lib/ros/msg.h ****  * "AS IS" AND ANY EXPRESS OR IMPLIED WARRANTIES, INCLUDING, BUT NOT
  23:./ros_lib/ros/msg.h ****  * LIMITED TO, THE IMPLIED WARRANTIES OF MERCHANTABILITY AND FITNESS
  24:./ros_lib/ros/msg.h ****  * FOR A PARTICULAR PURPOSE ARE DISCLAIMED. IN NO EVENT SHALL THE
  25:./ros_lib/ros/msg.h ****  * COPYRIGHT OWNER OR CONTRIBUTORS BE LIABLE FOR ANY DIRECT, INDIRECT,
  26:./ros_lib/ros/msg.h ****  * INCIDENTAL, SPECIAL, EXEMPLARY, OR CONSEQUENTIAL DAMAGES (INCLUDING,
  27:./ros_lib/ros/msg.h ****  * BUT NOT LIMITED TO, PROCUREMENT OF SUBSTITUTE GOODS OR SERVICES;
  28:./ros_lib/ros/msg.h ****  * LOSS OF USE, DATA, OR PROFITS; OR BUSINESS INTERRUPTION) HOWEVER
  29:./ros_lib/ros/msg.h ****  * CAUSED AND ON ANY THEORY OF LIABILITY, WHETHER IN CONTRACT, STRICT
  30:./ros_lib/ros/msg.h ****  * LIABILITY, OR TORT (INCLUDING NEGLIGENCE OR OTHERWISE) ARISING IN
  31:./ros_lib/ros/msg.h ****  * ANY WAY OUT OF THE USE OF THIS SOFTWARE, EVEN IF ADVISED OF THE
  32:./ros_lib/ros/msg.h ****  * POSSIBILITY OF SUCH DAMAGE.
ARM GAS  C:\Users\Chuck\AppData\Local\Temp\ccfyZq46.s 			page 2


  33:./ros_lib/ros/msg.h ****  */
  34:./ros_lib/ros/msg.h **** 
  35:./ros_lib/ros/msg.h **** #ifndef _ROS_MSG_H_
  36:./ros_lib/ros/msg.h **** #define _ROS_MSG_H_
  37:./ros_lib/ros/msg.h **** 
  38:./ros_lib/ros/msg.h **** #include <stdint.h>
  39:./ros_lib/ros/msg.h **** 
  40:./ros_lib/ros/msg.h **** namespace ros {
  41:./ros_lib/ros/msg.h **** 
  42:./ros_lib/ros/msg.h **** /* Base Message Type */
  43:./ros_lib/ros/msg.h **** class Msg
  26              		.loc 1 43 0
  27              		.cfi_startproc
  28 0000 80B5     		push	{r7, lr}
  29              		.cfi_def_cfa_offset 8
  30              		.cfi_offset 7, -8
  31              		.cfi_offset 14, -4
  32 0002 82B0     		sub	sp, sp, #8
  33              		.cfi_def_cfa_offset 16
  34 0004 00AF     		add	r7, sp, #0
  35              		.cfi_def_cfa_register 7
  36 0006 7860     		str	r0, [r7, #4]
  37              	.LBB2:
  38              		.loc 1 43 0
  39 0008 7B68     		ldr	r3, [r7, #4]
  40 000a 034A     		ldr	r2, .L4
  41 000c 1A60     		str	r2, [r3]
  42              	.LBE2:
  43 000e 7B68     		ldr	r3, [r7, #4]
  44 0010 181C     		mov	r0, r3
  45 0012 BD46     		mov	sp, r7
  46 0014 02B0     		add	sp, sp, #8
  47              		@ sp needed
  48 0016 80BD     		pop	{r7, pc}
  49              	.L5:
  50              		.align	2
  51              	.L4:
  52 0018 08000000 		.word	_ZTVN3ros3MsgE+8
  53              		.cfi_endproc
  54              	.LFE21:
  55              		.size	_ZN3ros3MsgC2Ev, .-_ZN3ros3MsgC2Ev
  56              		.weak	_ZN3ros3MsgC1Ev
  57              		.thumb_set _ZN3ros3MsgC1Ev,_ZN3ros3MsgC2Ev
  58              		.section	.text._ZN8SysTimer6millisEv,"axG",%progbits,_ZN8SysTimer6millisEv,comdat
  59              		.align	2
  60              		.weak	_ZN8SysTimer6millisEv
  61              		.code	16
  62              		.thumb_func
  63              		.type	_ZN8SysTimer6millisEv, %function
  64              	_ZN8SysTimer6millisEv:
  65              	.LFB109:
  66              		.file 2 "./ros_lib/SysTimer.h"
   1:./ros_lib/SysTimer.h **** /* ========================================
   2:./ros_lib/SysTimer.h ****  *
   3:./ros_lib/SysTimer.h ****  * The following firmware was developed by Chuck Harrison
   4:./ros_lib/SysTimer.h ****  * This work is licensed under a Creative Commons Attribution 3.0 Unported License.
   5:./ros_lib/SysTimer.h ****  * 
ARM GAS  C:\Users\Chuck\AppData\Local\Temp\ccfyZq46.s 			page 3


   6:./ros_lib/SysTimer.h ****  * http://creativecommons.org/licenses/by/3.0/deed.en_US
   7:./ros_lib/SysTimer.h ****  * 
   8:./ros_lib/SysTimer.h ****  * You are free to:
   9:./ros_lib/SysTimer.h ****  * -To Share — to copy, distribute and transmit the work 
  10:./ros_lib/SysTimer.h ****  * -To Remix — to adapt the work 
  11:./ros_lib/SysTimer.h ****  * -To make commercial use of the work
  12:./ros_lib/SysTimer.h ****  *
  13:./ros_lib/SysTimer.h ****  * ========================================
  14:./ros_lib/SysTimer.h ****  */
  15:./ros_lib/SysTimer.h **** 
  16:./ros_lib/SysTimer.h **** #ifndef ROS_SYSTIMER_H_
  17:./ros_lib/SysTimer.h **** #define ROS_SYSTIMER_H_
  18:./ros_lib/SysTimer.h **** 
  19:./ros_lib/SysTimer.h **** typedef void (* cyisraddress)(void); // should we #include the whole cytypes.h?
  20:./ros_lib/SysTimer.h **** #define CY_ISR(FuncName)        void FuncName (void)
  21:./ros_lib/SysTimer.h **** 
  22:./ros_lib/SysTimer.h **** extern "C" {
  23:./ros_lib/SysTimer.h **** cyisraddress CyIntSetSysVector(uint8_t number, cyisraddress address);
  24:./ros_lib/SysTimer.h **** }
  25:./ros_lib/SysTimer.h **** 
  26:./ros_lib/SysTimer.h **** CY_ISR(SysTick_ISR); //forward declaration for SysTimer::init()
  27:./ros_lib/SysTimer.h **** 
  28:./ros_lib/SysTimer.h **** #define SYSTICK_INTERRUPT_VECTOR_NUMBER 15u /* Cortex-M0 hard vector */
  29:./ros_lib/SysTimer.h **** 
  30:./ros_lib/SysTimer.h **** /* clock and interrupt rates, in Hz */
  31:./ros_lib/SysTimer.h **** #define CLOCK_FREQ     24000000u
  32:./ros_lib/SysTimer.h **** #define INTERRUPT_FREQ 1000u
  33:./ros_lib/SysTimer.h **** 
  34:./ros_lib/SysTimer.h **** 
  35:./ros_lib/SysTimer.h **** class SysTimer
  36:./ros_lib/SysTimer.h **** {
  37:./ros_lib/SysTimer.h ****   public:
  38:./ros_lib/SysTimer.h ****     static void init() {
  39:./ros_lib/SysTimer.h ****       CyIntSetSysVector(SYSTICK_INTERRUPT_VECTOR_NUMBER, SysTick_ISR);
  40:./ros_lib/SysTimer.h ****       // must eventually do this:
  41:./ros_lib/SysTimer.h ****       //  SysTick_Config(CLOCK_FREQ / INTERRUPT_FREQ); /* defined in auto-generated core_cm0.h */
  42:./ros_lib/SysTimer.h ****       //  CyGlobalIntEnable;
  43:./ros_lib/SysTimer.h ****       millis_ = 0;
  44:./ros_lib/SysTimer.h ****     };
  45:./ros_lib/SysTimer.h ****     static uint32_t millis() { return millis_; };
  67              		.loc 2 45 0
  68              		.cfi_startproc
  69 0000 80B5     		push	{r7, lr}
  70              		.cfi_def_cfa_offset 8
  71              		.cfi_offset 7, -8
  72              		.cfi_offset 14, -4
  73 0002 00AF     		add	r7, sp, #0
  74              		.cfi_def_cfa_register 7
  75              		.loc 2 45 0
  76 0004 024B     		ldr	r3, .L8
  77 0006 1B68     		ldr	r3, [r3]
  78 0008 181C     		mov	r0, r3
  79 000a BD46     		mov	sp, r7
  80              		@ sp needed
  81 000c 80BD     		pop	{r7, pc}
  82              	.L9:
  83 000e C046     		.align	2
ARM GAS  C:\Users\Chuck\AppData\Local\Temp\ccfyZq46.s 			page 4


  84              	.L8:
  85 0010 00000000 		.word	_ZN8SysTimer7millis_E
  86              		.cfi_endproc
  87              	.LFE109:
  88              		.size	_ZN8SysTimer6millisEv, .-_ZN8SysTimer6millisEv
  89              		.section	.text._ZN8std_msgs5Int16C2Ev,"axG",%progbits,_ZN8std_msgs5Int16C5Ev,comdat
  90              		.align	2
  91              		.weak	_ZN8std_msgs5Int16C2Ev
  92              		.code	16
  93              		.thumb_func
  94              		.type	_ZN8std_msgs5Int16C2Ev, %function
  95              	_ZN8std_msgs5Int16C2Ev:
  96              	.LFB126:
  97              		.file 3 "./ros_lib/std_msgs/Int16.h"
   1:./ros_lib/std_msgs/Int16.h **** #ifndef _ROS_std_msgs_Int16_h
   2:./ros_lib/std_msgs/Int16.h **** #define _ROS_std_msgs_Int16_h
   3:./ros_lib/std_msgs/Int16.h **** 
   4:./ros_lib/std_msgs/Int16.h **** #include <stdint.h>
   5:./ros_lib/std_msgs/Int16.h **** #include <string.h>
   6:./ros_lib/std_msgs/Int16.h **** #include <stdlib.h>
   7:./ros_lib/std_msgs/Int16.h **** #include "ros/msg.h"
   8:./ros_lib/std_msgs/Int16.h **** 
   9:./ros_lib/std_msgs/Int16.h **** namespace std_msgs
  10:./ros_lib/std_msgs/Int16.h **** {
  11:./ros_lib/std_msgs/Int16.h **** 
  12:./ros_lib/std_msgs/Int16.h ****   class Int16 : public ros::Msg
  13:./ros_lib/std_msgs/Int16.h ****   {
  14:./ros_lib/std_msgs/Int16.h ****     public:
  15:./ros_lib/std_msgs/Int16.h ****       int16_t data;
  16:./ros_lib/std_msgs/Int16.h **** 
  17:./ros_lib/std_msgs/Int16.h ****     Int16():
  98              		.loc 3 17 0
  99              		.cfi_startproc
 100 0000 80B5     		push	{r7, lr}
 101              		.cfi_def_cfa_offset 8
 102              		.cfi_offset 7, -8
 103              		.cfi_offset 14, -4
 104 0002 82B0     		sub	sp, sp, #8
 105              		.cfi_def_cfa_offset 16
 106 0004 00AF     		add	r7, sp, #0
 107              		.cfi_def_cfa_register 7
 108 0006 7860     		str	r0, [r7, #4]
 109              	.LBB3:
  18:./ros_lib/std_msgs/Int16.h ****       data(0)
 110              		.loc 3 18 0
 111 0008 7B68     		ldr	r3, [r7, #4]
 112 000a 181C     		mov	r0, r3
 113 000c FFF7FEFF 		bl	_ZN3ros3MsgC2Ev
 114 0010 7B68     		ldr	r3, [r7, #4]
 115 0012 054A     		ldr	r2, .L13
 116 0014 1A60     		str	r2, [r3]
 117 0016 7B68     		ldr	r3, [r7, #4]
 118 0018 0022     		mov	r2, #0
 119 001a 9A80     		strh	r2, [r3, #4]
 120              	.LBE3:
  19:./ros_lib/std_msgs/Int16.h ****     {
  20:./ros_lib/std_msgs/Int16.h ****     }
ARM GAS  C:\Users\Chuck\AppData\Local\Temp\ccfyZq46.s 			page 5


 121              		.loc 3 20 0
 122 001c 7B68     		ldr	r3, [r7, #4]
 123 001e 181C     		mov	r0, r3
 124 0020 BD46     		mov	sp, r7
 125 0022 02B0     		add	sp, sp, #8
 126              		@ sp needed
 127 0024 80BD     		pop	{r7, pc}
 128              	.L14:
 129 0026 C046     		.align	2
 130              	.L13:
 131 0028 08000000 		.word	_ZTVN8std_msgs5Int16E+8
 132              		.cfi_endproc
 133              	.LFE126:
 134              		.size	_ZN8std_msgs5Int16C2Ev, .-_ZN8std_msgs5Int16C2Ev
 135              		.weak	_ZN8std_msgs5Int16C1Ev
 136              		.thumb_set _ZN8std_msgs5Int16C1Ev,_ZN8std_msgs5Int16C2Ev
 137              		.section	.text._ZNK8std_msgs5Int169serializeEPh,"axG",%progbits,_ZNK8std_msgs5Int169serializeEPh,c
 138              		.align	2
 139              		.weak	_ZNK8std_msgs5Int169serializeEPh
 140              		.code	16
 141              		.thumb_func
 142              		.type	_ZNK8std_msgs5Int169serializeEPh, %function
 143              	_ZNK8std_msgs5Int169serializeEPh:
 144              	.LFB128:
  21:./ros_lib/std_msgs/Int16.h **** 
  22:./ros_lib/std_msgs/Int16.h ****     virtual int serialize(unsigned char *outbuffer) const
 145              		.loc 3 22 0
 146              		.cfi_startproc
 147 0000 80B5     		push	{r7, lr}
 148              		.cfi_def_cfa_offset 8
 149              		.cfi_offset 7, -8
 150              		.cfi_offset 14, -4
 151 0002 84B0     		sub	sp, sp, #16
 152              		.cfi_def_cfa_offset 24
 153 0004 00AF     		add	r7, sp, #0
 154              		.cfi_def_cfa_register 7
 155 0006 7860     		str	r0, [r7, #4]
 156 0008 3960     		str	r1, [r7]
 157              	.LBB4:
  23:./ros_lib/std_msgs/Int16.h ****     {
  24:./ros_lib/std_msgs/Int16.h ****       int offset = 0;
 158              		.loc 3 24 0
 159 000a 0023     		mov	r3, #0
 160 000c FB60     		str	r3, [r7, #12]
  25:./ros_lib/std_msgs/Int16.h **** #ifndef ROS_MSG_DONT_SERIALIZE
  26:./ros_lib/std_msgs/Int16.h ****       union {
  27:./ros_lib/std_msgs/Int16.h ****         int16_t real;
  28:./ros_lib/std_msgs/Int16.h ****         uint16_t base;
  29:./ros_lib/std_msgs/Int16.h ****       } u_data;
  30:./ros_lib/std_msgs/Int16.h ****       u_data.real = this->data;
 161              		.loc 3 30 0
 162 000e 7B68     		ldr	r3, [r7, #4]
 163 0010 9A88     		ldrh	r2, [r3, #4]
 164 0012 0823     		mov	r3, #8
 165 0014 FB18     		add	r3, r7, r3
 166 0016 1A80     		strh	r2, [r3]
  31:./ros_lib/std_msgs/Int16.h ****       *(outbuffer + offset + 0) = (u_data.base >> (8 * 0)) & 0xFF;
ARM GAS  C:\Users\Chuck\AppData\Local\Temp\ccfyZq46.s 			page 6


 167              		.loc 3 31 0
 168 0018 FB68     		ldr	r3, [r7, #12]
 169 001a 3A68     		ldr	r2, [r7]
 170 001c D318     		add	r3, r2, r3
 171 001e 0822     		mov	r2, #8
 172 0020 BA18     		add	r2, r7, r2
 173 0022 1288     		ldrh	r2, [r2]
 174 0024 D2B2     		uxtb	r2, r2
 175 0026 1A70     		strb	r2, [r3]
  32:./ros_lib/std_msgs/Int16.h ****       *(outbuffer + offset + 1) = (u_data.base >> (8 * 1)) & 0xFF;
 176              		.loc 3 32 0
 177 0028 FB68     		ldr	r3, [r7, #12]
 178 002a 0133     		add	r3, r3, #1
 179 002c 3A68     		ldr	r2, [r7]
 180 002e D318     		add	r3, r2, r3
 181 0030 0822     		mov	r2, #8
 182 0032 BA18     		add	r2, r7, r2
 183 0034 1288     		ldrh	r2, [r2]
 184 0036 120A     		lsr	r2, r2, #8
 185 0038 92B2     		uxth	r2, r2
 186 003a D2B2     		uxtb	r2, r2
 187 003c 1A70     		strb	r2, [r3]
  33:./ros_lib/std_msgs/Int16.h ****       offset += sizeof(this->data);
 188              		.loc 3 33 0
 189 003e FB68     		ldr	r3, [r7, #12]
 190 0040 0233     		add	r3, r3, #2
 191 0042 FB60     		str	r3, [r7, #12]
  34:./ros_lib/std_msgs/Int16.h **** #endif
  35:./ros_lib/std_msgs/Int16.h ****       return offset;
 192              		.loc 3 35 0
 193 0044 FB68     		ldr	r3, [r7, #12]
 194              	.LBE4:
  36:./ros_lib/std_msgs/Int16.h ****     }
 195              		.loc 3 36 0
 196 0046 181C     		mov	r0, r3
 197 0048 BD46     		mov	sp, r7
 198 004a 04B0     		add	sp, sp, #16
 199              		@ sp needed
 200 004c 80BD     		pop	{r7, pc}
 201              		.cfi_endproc
 202              	.LFE128:
 203              		.size	_ZNK8std_msgs5Int169serializeEPh, .-_ZNK8std_msgs5Int169serializeEPh
 204 004e C046     		.section	.text._ZN8std_msgs5Int1611deserializeEPh,"axG",%progbits,_ZN8std_msgs5Int1611deserializeE
 205              		.align	2
 206              		.weak	_ZN8std_msgs5Int1611deserializeEPh
 207              		.code	16
 208              		.thumb_func
 209              		.type	_ZN8std_msgs5Int1611deserializeEPh, %function
 210              	_ZN8std_msgs5Int1611deserializeEPh:
 211              	.LFB129:
  37:./ros_lib/std_msgs/Int16.h **** 
  38:./ros_lib/std_msgs/Int16.h ****     virtual int deserialize(unsigned char *inbuffer)
 212              		.loc 3 38 0
 213              		.cfi_startproc
 214 0000 80B5     		push	{r7, lr}
 215              		.cfi_def_cfa_offset 8
 216              		.cfi_offset 7, -8
ARM GAS  C:\Users\Chuck\AppData\Local\Temp\ccfyZq46.s 			page 7


 217              		.cfi_offset 14, -4
 218 0002 84B0     		sub	sp, sp, #16
 219              		.cfi_def_cfa_offset 24
 220 0004 00AF     		add	r7, sp, #0
 221              		.cfi_def_cfa_register 7
 222 0006 7860     		str	r0, [r7, #4]
 223 0008 3960     		str	r1, [r7]
 224              	.LBB5:
  39:./ros_lib/std_msgs/Int16.h ****     {
  40:./ros_lib/std_msgs/Int16.h ****       int offset = 0;
 225              		.loc 3 40 0
 226 000a 0023     		mov	r3, #0
 227 000c FB60     		str	r3, [r7, #12]
  41:./ros_lib/std_msgs/Int16.h **** #ifndef ROS_MSG_DONT_DESERIALIZE
  42:./ros_lib/std_msgs/Int16.h ****       union {
  43:./ros_lib/std_msgs/Int16.h ****         int16_t real;
  44:./ros_lib/std_msgs/Int16.h ****         uint16_t base;
  45:./ros_lib/std_msgs/Int16.h ****       } u_data;
  46:./ros_lib/std_msgs/Int16.h ****       u_data.base = 0;
 228              		.loc 3 46 0
 229 000e 0823     		mov	r3, #8
 230 0010 FB18     		add	r3, r7, r3
 231 0012 0022     		mov	r2, #0
 232 0014 1A80     		strh	r2, [r3]
  47:./ros_lib/std_msgs/Int16.h ****       u_data.base |= ((uint16_t) (*(inbuffer + offset + 0))) << (8 * 0);
 233              		.loc 3 47 0
 234 0016 0823     		mov	r3, #8
 235 0018 FB18     		add	r3, r7, r3
 236 001a 1A88     		ldrh	r2, [r3]
 237 001c FB68     		ldr	r3, [r7, #12]
 238 001e 3968     		ldr	r1, [r7]
 239 0020 CB18     		add	r3, r1, r3
 240 0022 1B78     		ldrb	r3, [r3]
 241 0024 9BB2     		uxth	r3, r3
 242 0026 1343     		orr	r3, r2
 243 0028 9AB2     		uxth	r2, r3
 244 002a 0823     		mov	r3, #8
 245 002c FB18     		add	r3, r7, r3
 246 002e 1A80     		strh	r2, [r3]
  48:./ros_lib/std_msgs/Int16.h ****       u_data.base |= ((uint16_t) (*(inbuffer + offset + 1))) << (8 * 1);
 247              		.loc 3 48 0
 248 0030 0823     		mov	r3, #8
 249 0032 FB18     		add	r3, r7, r3
 250 0034 1B88     		ldrh	r3, [r3]
 251 0036 99B2     		uxth	r1, r3
 252 0038 FB68     		ldr	r3, [r7, #12]
 253 003a 0133     		add	r3, r3, #1
 254 003c 3A68     		ldr	r2, [r7]
 255 003e D318     		add	r3, r2, r3
 256 0040 1B78     		ldrb	r3, [r3]
 257 0042 1B02     		lsl	r3, r3, #8
 258 0044 9BB2     		uxth	r3, r3
 259 0046 0A1C     		add	r2, r1, #0
 260 0048 1343     		orr	r3, r2
 261 004a 9BB2     		uxth	r3, r3
 262 004c 9AB2     		uxth	r2, r3
 263 004e 0823     		mov	r3, #8
ARM GAS  C:\Users\Chuck\AppData\Local\Temp\ccfyZq46.s 			page 8


 264 0050 FB18     		add	r3, r7, r3
 265 0052 1A80     		strh	r2, [r3]
  49:./ros_lib/std_msgs/Int16.h ****       this->data = u_data.real;
 266              		.loc 3 49 0
 267 0054 0823     		mov	r3, #8
 268 0056 FB18     		add	r3, r7, r3
 269 0058 1A88     		ldrh	r2, [r3]
 270 005a 7B68     		ldr	r3, [r7, #4]
 271 005c 9A80     		strh	r2, [r3, #4]
  50:./ros_lib/std_msgs/Int16.h ****       offset += sizeof(this->data);
 272              		.loc 3 50 0
 273 005e FB68     		ldr	r3, [r7, #12]
 274 0060 0233     		add	r3, r3, #2
 275 0062 FB60     		str	r3, [r7, #12]
  51:./ros_lib/std_msgs/Int16.h **** #endif
  52:./ros_lib/std_msgs/Int16.h ****      return offset;
 276              		.loc 3 52 0
 277 0064 FB68     		ldr	r3, [r7, #12]
 278              	.LBE5:
  53:./ros_lib/std_msgs/Int16.h ****     }
 279              		.loc 3 53 0
 280 0066 181C     		mov	r0, r3
 281 0068 BD46     		mov	sp, r7
 282 006a 04B0     		add	sp, sp, #16
 283              		@ sp needed
 284 006c 80BD     		pop	{r7, pc}
 285              		.cfi_endproc
 286              	.LFE129:
 287              		.size	_ZN8std_msgs5Int1611deserializeEPh, .-_ZN8std_msgs5Int1611deserializeEPh
 288 006e C046     		.section	.rodata
 289              		.align	2
 290              	.LC3:
 291 0000 7374645F 		.ascii	"std_msgs/Int16\000"
 291      6D736773 
 291      2F496E74 
 291      313600
 292              		.section	.text._ZN8std_msgs5Int167getTypeEv,"axG",%progbits,_ZN8std_msgs5Int167getTypeEv,comdat
 293              		.align	2
 294              		.weak	_ZN8std_msgs5Int167getTypeEv
 295              		.code	16
 296              		.thumb_func
 297              		.type	_ZN8std_msgs5Int167getTypeEv, %function
 298              	_ZN8std_msgs5Int167getTypeEv:
 299              	.LFB130:
  54:./ros_lib/std_msgs/Int16.h **** 
  55:./ros_lib/std_msgs/Int16.h ****     const char * getType(){ return "std_msgs/Int16"; };
 300              		.loc 3 55 0
 301              		.cfi_startproc
 302 0000 80B5     		push	{r7, lr}
 303              		.cfi_def_cfa_offset 8
 304              		.cfi_offset 7, -8
 305              		.cfi_offset 14, -4
 306 0002 82B0     		sub	sp, sp, #8
 307              		.cfi_def_cfa_offset 16
 308 0004 00AF     		add	r7, sp, #0
 309              		.cfi_def_cfa_register 7
 310 0006 7860     		str	r0, [r7, #4]
ARM GAS  C:\Users\Chuck\AppData\Local\Temp\ccfyZq46.s 			page 9


 311              		.loc 3 55 0
 312 0008 024B     		ldr	r3, .L21
 313 000a 181C     		mov	r0, r3
 314 000c BD46     		mov	sp, r7
 315 000e 02B0     		add	sp, sp, #8
 316              		@ sp needed
 317 0010 80BD     		pop	{r7, pc}
 318              	.L22:
 319 0012 C046     		.align	2
 320              	.L21:
 321 0014 00000000 		.word	.LC3
 322              		.cfi_endproc
 323              	.LFE130:
 324              		.size	_ZN8std_msgs5Int167getTypeEv, .-_ZN8std_msgs5Int167getTypeEv
 325              		.section	.rodata
 326 000f 00       		.align	2
 327              	.LC5:
 328 0010 38353234 		.ascii	"8524586e34fbd7cb1c08c5f5f1ca0e57\000"
 328      35383665 
 328      33346662 
 328      64376362 
 328      31633038 
 329              		.section	.text._ZN8std_msgs5Int166getMD5Ev,"axG",%progbits,_ZN8std_msgs5Int166getMD5Ev,comdat
 330              		.align	2
 331              		.weak	_ZN8std_msgs5Int166getMD5Ev
 332              		.code	16
 333              		.thumb_func
 334              		.type	_ZN8std_msgs5Int166getMD5Ev, %function
 335              	_ZN8std_msgs5Int166getMD5Ev:
 336              	.LFB131:
  56:./ros_lib/std_msgs/Int16.h ****     const char * getMD5(){ return "8524586e34fbd7cb1c08c5f5f1ca0e57"; };
 337              		.loc 3 56 0
 338              		.cfi_startproc
 339 0000 80B5     		push	{r7, lr}
 340              		.cfi_def_cfa_offset 8
 341              		.cfi_offset 7, -8
 342              		.cfi_offset 14, -4
 343 0002 82B0     		sub	sp, sp, #8
 344              		.cfi_def_cfa_offset 16
 345 0004 00AF     		add	r7, sp, #0
 346              		.cfi_def_cfa_register 7
 347 0006 7860     		str	r0, [r7, #4]
 348              		.loc 3 56 0
 349 0008 024B     		ldr	r3, .L25
 350 000a 181C     		mov	r0, r3
 351 000c BD46     		mov	sp, r7
 352 000e 02B0     		add	sp, sp, #8
 353              		@ sp needed
 354 0010 80BD     		pop	{r7, pc}
 355              	.L26:
 356 0012 C046     		.align	2
 357              	.L25:
 358 0014 10000000 		.word	.LC5
 359              		.cfi_endproc
 360              	.LFE131:
 361              		.size	_ZN8std_msgs5Int166getMD5Ev, .-_ZN8std_msgs5Int166getMD5Ev
 362              		.global	_ZN14StepperControl15steps_remainingE
ARM GAS  C:\Users\Chuck\AppData\Local\Temp\ccfyZq46.s 			page 10


 363              		.bss
 364              		.align	1
 365              		.type	_ZN14StepperControl15steps_remainingE, %object
 366              		.size	_ZN14StepperControl15steps_remainingE, 2
 367              	_ZN14StepperControl15steps_remainingE:
 368 0000 0000     		.space	2
 369              		.global	_ZN14StepperControl9next_timeE
 370 0002 0000     		.align	2
 371              		.type	_ZN14StepperControl9next_timeE, %object
 372              		.size	_ZN14StepperControl9next_timeE, 4
 373              	_ZN14StepperControl9next_timeE:
 374 0004 00000000 		.space	4
 375              		.section	.text._ZN14StepperControl9messageCbERKN8std_msgs5Int16E,"ax",%progbits
 376              		.align	2
 377              		.global	_ZN14StepperControl9messageCbERKN8std_msgs5Int16E
 378              		.code	16
 379              		.thumb_func
 380              		.type	_ZN14StepperControl9messageCbERKN8std_msgs5Int16E, %function
 381              	_ZN14StepperControl9messageCbERKN8std_msgs5Int16E:
 382              	.LFB165:
 383              		.file 4 ".\\ros_lib\\examples\\StepperControl\\StepperControl.cpp"
   1:.\ros_lib\examples\StepperControl/StepperControl.cpp **** /* 
   2:.\ros_lib\examples\StepperControl/StepperControl.cpp ****  * rosserial Subscriber Example
   3:.\ros_lib\examples\StepperControl/StepperControl.cpp ****  * Move stepper motor PSoC4 "RosOnAStick"
   4:.\ros_lib\examples\StepperControl/StepperControl.cpp ****  *
   5:.\ros_lib\examples\StepperControl/StepperControl.cpp ****  * Copyright C. Harrison
   6:.\ros_lib\examples\StepperControl/StepperControl.cpp ****  * BSD 2-clause license http://opensource.org/licenses/BSD-2-Clause
   7:.\ros_lib\examples\StepperControl/StepperControl.cpp ****  *
   8:.\ros_lib\examples\StepperControl/StepperControl.cpp ****  */
   9:.\ros_lib\examples\StepperControl/StepperControl.cpp ****  
  10:.\ros_lib\examples\StepperControl/StepperControl.cpp **** #include <ros.h>
  11:.\ros_lib\examples\StepperControl/StepperControl.cpp **** #include <std_msgs/Int16.h>
  12:.\ros_lib\examples\StepperControl/StepperControl.cpp **** #include "StepperControl.h"
  13:.\ros_lib\examples\StepperControl/StepperControl.cpp **** 
  14:.\ros_lib\examples\StepperControl/StepperControl.cpp **** extern ros::NodeHandle  nh;
  15:.\ros_lib\examples\StepperControl/StepperControl.cpp **** 
  16:.\ros_lib\examples\StepperControl/StepperControl.cpp **** namespace StepperControl {
  17:.\ros_lib\examples\StepperControl/StepperControl.cpp **** 
  18:.\ros_lib\examples\StepperControl/StepperControl.cpp **** const uint8_t msec_per_step = 10;
  19:.\ros_lib\examples\StepperControl/StepperControl.cpp **** const uint8_t PRESET = 0x04;
  20:.\ros_lib\examples\StepperControl/StepperControl.cpp **** const uint8_t STEP_UP = 0x06;
  21:.\ros_lib\examples\StepperControl/StepperControl.cpp **** const uint8_t STEP_DN = 0x07;
  22:.\ros_lib\examples\StepperControl/StepperControl.cpp **** 
  23:.\ros_lib\examples\StepperControl/StepperControl.cpp **** int16_t steps_remaining = 0;
  24:.\ros_lib\examples\StepperControl/StepperControl.cpp **** uint32_t next_time;
  25:.\ros_lib\examples\StepperControl/StepperControl.cpp **** 
  26:.\ros_lib\examples\StepperControl/StepperControl.cpp **** void messageCb( const std_msgs::Int16& step_msg){
 384              		.loc 4 26 0
 385              		.cfi_startproc
 386 0000 80B5     		push	{r7, lr}
 387              		.cfi_def_cfa_offset 8
 388              		.cfi_offset 7, -8
 389              		.cfi_offset 14, -4
 390 0002 82B0     		sub	sp, sp, #8
 391              		.cfi_def_cfa_offset 16
 392 0004 00AF     		add	r7, sp, #0
 393              		.cfi_def_cfa_register 7
ARM GAS  C:\Users\Chuck\AppData\Local\Temp\ccfyZq46.s 			page 11


 394 0006 7860     		str	r0, [r7, #4]
  27:.\ros_lib\examples\StepperControl/StepperControl.cpp ****   steps_remaining = step_msg.data;
 395              		.loc 4 27 0
 396 0008 7B68     		ldr	r3, [r7, #4]
 397 000a 9A88     		ldrh	r2, [r3, #4]
 398 000c 024B     		ldr	r3, .L28
 399 000e 1A80     		strh	r2, [r3]
  28:.\ros_lib\examples\StepperControl/StepperControl.cpp **** }
 400              		.loc 4 28 0
 401 0010 BD46     		mov	sp, r7
 402 0012 02B0     		add	sp, sp, #8
 403              		@ sp needed
 404 0014 80BD     		pop	{r7, pc}
 405              	.L29:
 406 0016 C046     		.align	2
 407              	.L28:
 408 0018 00000000 		.word	_ZN14StepperControl15steps_remainingE
 409              		.cfi_endproc
 410              	.LFE165:
 411              		.size	_ZN14StepperControl9messageCbERKN8std_msgs5Int16E, .-_ZN14StepperControl9messageCbERKN8std_m
 412              		.global	_ZN14StepperControl3subE
 413              		.bss
 414              		.align	2
 415              		.type	_ZN14StepperControl3subE, %object
 416              		.size	_ZN14StepperControl3subE, 32
 417              	_ZN14StepperControl3subE:
 418 0008 00000000 		.space	32
 418      00000000 
 418      00000000 
 418      00000000 
 418      00000000 
 419              		.section	.text._ZN14StepperControl5setupEv,"ax",%progbits
 420              		.align	2
 421              		.global	_ZN14StepperControl5setupEv
 422              		.code	16
 423              		.thumb_func
 424              		.type	_ZN14StepperControl5setupEv, %function
 425              	_ZN14StepperControl5setupEv:
 426              	.LFB166:
  29:.\ros_lib\examples\StepperControl/StepperControl.cpp **** 
  30:.\ros_lib\examples\StepperControl/StepperControl.cpp **** ros::Subscriber<std_msgs::Int16> sub("stepper_move", &messageCb );
  31:.\ros_lib\examples\StepperControl/StepperControl.cpp **** 
  32:.\ros_lib\examples\StepperControl/StepperControl.cpp **** void setup()
  33:.\ros_lib\examples\StepperControl/StepperControl.cpp **** {
 427              		.loc 4 33 0
 428              		.cfi_startproc
 429 0000 80B5     		push	{r7, lr}
 430              		.cfi_def_cfa_offset 8
 431              		.cfi_offset 7, -8
 432              		.cfi_offset 14, -4
 433 0002 00AF     		add	r7, sp, #0
 434              		.cfi_def_cfa_register 7
  34:.\ros_lib\examples\StepperControl/StepperControl.cpp ****   nh.subscribe(sub);
 435              		.loc 4 34 0
 436 0004 074A     		ldr	r2, .L31
 437 0006 084B     		ldr	r3, .L31+4
 438 0008 101C     		mov	r0, r2
ARM GAS  C:\Users\Chuck\AppData\Local\Temp\ccfyZq46.s 			page 12


 439 000a 191C     		mov	r1, r3
 440 000c FFF7FEFF 		bl	_ZN3ros11NodeHandle_I13Psoc4HardwareLi10ELi20ELi200ELi200EE9subscribeIN8std_msgs5Int16EEEbRNS_1
  35:.\ros_lib\examples\StepperControl/StepperControl.cpp ****   next_time = SysTimer::millis();
 441              		.loc 4 35 0
 442 0010 FFF7FEFF 		bl	_ZN8SysTimer6millisEv
 443 0014 021C     		mov	r2, r0
 444 0016 054B     		ldr	r3, .L31+8
 445 0018 1A60     		str	r2, [r3]
  36:.\ros_lib\examples\StepperControl/StepperControl.cpp ****   Stepper_Control_Write(PRESET);
 446              		.loc 4 36 0
 447 001a 0420     		mov	r0, #4
 448 001c FFF7FEFF 		bl	Stepper_Control_Write
  37:.\ros_lib\examples\StepperControl/StepperControl.cpp **** }
 449              		.loc 4 37 0
 450 0020 BD46     		mov	sp, r7
 451              		@ sp needed
 452 0022 80BD     		pop	{r7, pc}
 453              	.L32:
 454              		.align	2
 455              	.L31:
 456 0024 00000000 		.word	nh
 457 0028 00000000 		.word	_ZN14StepperControl3subE
 458 002c 00000000 		.word	_ZN14StepperControl9next_timeE
 459              		.cfi_endproc
 460              	.LFE166:
 461              		.size	_ZN14StepperControl5setupEv, .-_ZN14StepperControl5setupEv
 462              		.section	.text._ZN14StepperControl4loopEv,"ax",%progbits
 463              		.align	2
 464              		.global	_ZN14StepperControl4loopEv
 465              		.code	16
 466              		.thumb_func
 467              		.type	_ZN14StepperControl4loopEv, %function
 468              	_ZN14StepperControl4loopEv:
 469              	.LFB167:
  38:.\ros_lib\examples\StepperControl/StepperControl.cpp **** 
  39:.\ros_lib\examples\StepperControl/StepperControl.cpp **** void loop()
  40:.\ros_lib\examples\StepperControl/StepperControl.cpp **** {
 470              		.loc 4 40 0
 471              		.cfi_startproc
 472 0000 80B5     		push	{r7, lr}
 473              		.cfi_def_cfa_offset 8
 474              		.cfi_offset 7, -8
 475              		.cfi_offset 14, -4
 476 0002 00AF     		add	r7, sp, #0
 477              		.cfi_def_cfa_register 7
  41:.\ros_lib\examples\StepperControl/StepperControl.cpp ****   if ((int32_t)(SysTimer::millis()-next_time)>0) {
 478              		.loc 4 41 0
 479 0004 FFF7FEFF 		bl	_ZN8SysTimer6millisEv
 480 0008 021C     		mov	r2, r0
 481 000a 1A4B     		ldr	r3, .L36
 482 000c 1B68     		ldr	r3, [r3]
 483 000e D31A     		sub	r3, r2, r3
 484 0010 DA17     		asr	r2, r3, #31
 485 0012 D31A     		sub	r3, r2, r3
 486 0014 DB0F     		lsr	r3, r3, #31
 487 0016 DBB2     		uxtb	r3, r3
 488 0018 002B     		cmp	r3, #0
ARM GAS  C:\Users\Chuck\AppData\Local\Temp\ccfyZq46.s 			page 13


 489 001a 28D0     		beq	.L33
  42:.\ros_lib\examples\StepperControl/StepperControl.cpp ****     next_time += msec_per_step;
 490              		.loc 4 42 0
 491 001c 154B     		ldr	r3, .L36
 492 001e 1B68     		ldr	r3, [r3]
 493 0020 0A22     		mov	r2, #10
 494 0022 9A18     		add	r2, r3, r2
 495 0024 134B     		ldr	r3, .L36
 496 0026 1A60     		str	r2, [r3]
  43:.\ros_lib\examples\StepperControl/StepperControl.cpp ****     if (steps_remaining > 0) {
 497              		.loc 4 43 0
 498 0028 134B     		ldr	r3, .L36+4
 499 002a 1B88     		ldrh	r3, [r3]
 500 002c 1BB2     		sxth	r3, r3
 501 002e 002B     		cmp	r3, #0
 502 0030 0CDD     		ble	.L35
  44:.\ros_lib\examples\StepperControl/StepperControl.cpp ****       Stepper_Control_Write(STEP_UP);
 503              		.loc 4 44 0
 504 0032 0620     		mov	r0, #6
 505 0034 FFF7FEFF 		bl	Stepper_Control_Write
  45:.\ros_lib\examples\StepperControl/StepperControl.cpp ****       steps_remaining--;
 506              		.loc 4 45 0
 507 0038 0F4B     		ldr	r3, .L36+4
 508 003a 1B88     		ldrh	r3, [r3]
 509 003c 9BB2     		uxth	r3, r3
 510 003e 9BB2     		uxth	r3, r3
 511 0040 013B     		sub	r3, r3, #1
 512 0042 9BB2     		uxth	r3, r3
 513 0044 9AB2     		uxth	r2, r3
 514 0046 0C4B     		ldr	r3, .L36+4
 515 0048 1A80     		strh	r2, [r3]
 516 004a 10E0     		b	.L33
 517              	.L35:
  46:.\ros_lib\examples\StepperControl/StepperControl.cpp ****     } else if (steps_remaining < 0) {
 518              		.loc 4 46 0
 519 004c 0A4B     		ldr	r3, .L36+4
 520 004e 1B88     		ldrh	r3, [r3]
 521 0050 1BB2     		sxth	r3, r3
 522 0052 002B     		cmp	r3, #0
 523 0054 0BDA     		bge	.L33
  47:.\ros_lib\examples\StepperControl/StepperControl.cpp ****       Stepper_Control_Write(STEP_DN);
 524              		.loc 4 47 0
 525 0056 0720     		mov	r0, #7
 526 0058 FFF7FEFF 		bl	Stepper_Control_Write
  48:.\ros_lib\examples\StepperControl/StepperControl.cpp ****       steps_remaining++;
 527              		.loc 4 48 0
 528 005c 064B     		ldr	r3, .L36+4
 529 005e 1B88     		ldrh	r3, [r3]
 530 0060 9BB2     		uxth	r3, r3
 531 0062 9BB2     		uxth	r3, r3
 532 0064 0133     		add	r3, r3, #1
 533 0066 9BB2     		uxth	r3, r3
 534 0068 9AB2     		uxth	r2, r3
 535 006a 034B     		ldr	r3, .L36+4
 536 006c 1A80     		strh	r2, [r3]
 537              	.L33:
  49:.\ros_lib\examples\StepperControl/StepperControl.cpp ****     }
ARM GAS  C:\Users\Chuck\AppData\Local\Temp\ccfyZq46.s 			page 14


  50:.\ros_lib\examples\StepperControl/StepperControl.cpp ****   }
  51:.\ros_lib\examples\StepperControl/StepperControl.cpp **** }
 538              		.loc 4 51 0
 539 006e BD46     		mov	sp, r7
 540              		@ sp needed
 541 0070 80BD     		pop	{r7, pc}
 542              	.L37:
 543 0072 C046     		.align	2
 544              	.L36:
 545 0074 00000000 		.word	_ZN14StepperControl9next_timeE
 546 0078 00000000 		.word	_ZN14StepperControl15steps_remainingE
 547              		.cfi_endproc
 548              	.LFE167:
 549              		.size	_ZN14StepperControl4loopEv, .-_ZN14StepperControl4loopEv
 550              		.section	.text._ZN3ros11Subscriber_C2Ev,"axG",%progbits,_ZN3ros11Subscriber_C5Ev,comdat
 551              		.align	2
 552              		.weak	_ZN3ros11Subscriber_C2Ev
 553              		.code	16
 554              		.thumb_func
 555              		.type	_ZN3ros11Subscriber_C2Ev, %function
 556              	_ZN3ros11Subscriber_C2Ev:
 557              	.LFB170:
 558              		.file 5 "./ros_lib/ros/subscriber.h"
   1:./ros_lib/ros/subscriber.h **** /* 
   2:./ros_lib/ros/subscriber.h ****  * Software License Agreement (BSD License)
   3:./ros_lib/ros/subscriber.h ****  *
   4:./ros_lib/ros/subscriber.h ****  * Copyright (c) 2011, Willow Garage, Inc.
   5:./ros_lib/ros/subscriber.h ****  * All rights reserved.
   6:./ros_lib/ros/subscriber.h ****  *
   7:./ros_lib/ros/subscriber.h ****  * Redistribution and use in source and binary forms, with or without
   8:./ros_lib/ros/subscriber.h ****  * modification, are permitted provided that the following conditions
   9:./ros_lib/ros/subscriber.h ****  * are met:
  10:./ros_lib/ros/subscriber.h ****  *
  11:./ros_lib/ros/subscriber.h ****  *  * Redistributions of source code must retain the above copyright
  12:./ros_lib/ros/subscriber.h ****  *    notice, this list of conditions and the following disclaimer.
  13:./ros_lib/ros/subscriber.h ****  *  * Redistributions in binary form must reproduce the above
  14:./ros_lib/ros/subscriber.h ****  *    copyright notice, this list of conditions and the following
  15:./ros_lib/ros/subscriber.h ****  *    disclaimer in the documentation and/or other materials provided
  16:./ros_lib/ros/subscriber.h ****  *    with the distribution.
  17:./ros_lib/ros/subscriber.h ****  *  * Neither the name of Willow Garage, Inc. nor the names of its
  18:./ros_lib/ros/subscriber.h ****  *    contributors may be used to endorse or promote prducts derived
  19:./ros_lib/ros/subscriber.h ****  *    from this software without specific prior written permission.
  20:./ros_lib/ros/subscriber.h ****  *
  21:./ros_lib/ros/subscriber.h ****  * THIS SOFTWARE IS PROVIDED BY THE COPYRIGHT HOLDERS AND CONTRIBUTORS
  22:./ros_lib/ros/subscriber.h ****  * "AS IS" AND ANY EXPRESS OR IMPLIED WARRANTIES, INCLUDING, BUT NOT
  23:./ros_lib/ros/subscriber.h ****  * LIMITED TO, THE IMPLIED WARRANTIES OF MERCHANTABILITY AND FITNESS
  24:./ros_lib/ros/subscriber.h ****  * FOR A PARTICULAR PURPOSE ARE DISCLAIMED. IN NO EVENT SHALL THE
  25:./ros_lib/ros/subscriber.h ****  * COPYRIGHT OWNER OR CONTRIBUTORS BE LIABLE FOR ANY DIRECT, INDIRECT,
  26:./ros_lib/ros/subscriber.h ****  * INCIDENTAL, SPECIAL, EXEMPLARY, OR CONSEQUENTIAL DAMAGES (INCLUDING,
  27:./ros_lib/ros/subscriber.h ****  * BUT NOT LIMITED TO, PROCUREMENT OF SUBSTITUTE GOODS OR SERVICES;
  28:./ros_lib/ros/subscriber.h ****  * LOSS OF USE, DATA, OR PROFITS; OR BUSINESS INTERRUPTION) HOWEVER
  29:./ros_lib/ros/subscriber.h ****  * CAUSED AND ON ANY THEORY OF LIABILITY, WHETHER IN CONTRACT, STRICT
  30:./ros_lib/ros/subscriber.h ****  * LIABILITY, OR TORT (INCLUDING NEGLIGENCE OR OTHERWISE) ARISING IN
  31:./ros_lib/ros/subscriber.h ****  * ANY WAY OUT OF THE USE OF THIS SOFTWARE, EVEN IF ADVISED OF THE
  32:./ros_lib/ros/subscriber.h ****  * POSSIBILITY OF SUCH DAMAGE.
  33:./ros_lib/ros/subscriber.h ****  */
  34:./ros_lib/ros/subscriber.h **** 
ARM GAS  C:\Users\Chuck\AppData\Local\Temp\ccfyZq46.s 			page 15


  35:./ros_lib/ros/subscriber.h **** #ifndef ROS_SUBSCRIBER_H_
  36:./ros_lib/ros/subscriber.h **** #define ROS_SUBSCRIBER_H_
  37:./ros_lib/ros/subscriber.h **** 
  38:./ros_lib/ros/subscriber.h **** #include "rosserial_msgs/TopicInfo.h"
  39:./ros_lib/ros/subscriber.h **** 
  40:./ros_lib/ros/subscriber.h **** namespace ros {
  41:./ros_lib/ros/subscriber.h **** 
  42:./ros_lib/ros/subscriber.h ****   /* Base class for objects subscribers. */
  43:./ros_lib/ros/subscriber.h ****   class Subscriber_
 559              		.loc 5 43 0
 560              		.cfi_startproc
 561 0000 80B5     		push	{r7, lr}
 562              		.cfi_def_cfa_offset 8
 563              		.cfi_offset 7, -8
 564              		.cfi_offset 14, -4
 565 0002 82B0     		sub	sp, sp, #8
 566              		.cfi_def_cfa_offset 16
 567 0004 00AF     		add	r7, sp, #0
 568              		.cfi_def_cfa_register 7
 569 0006 7860     		str	r0, [r7, #4]
 570              	.LBB6:
 571              		.loc 5 43 0
 572 0008 7B68     		ldr	r3, [r7, #4]
 573 000a 034A     		ldr	r2, .L41
 574 000c 1A60     		str	r2, [r3]
 575              	.LBE6:
 576 000e 7B68     		ldr	r3, [r7, #4]
 577 0010 181C     		mov	r0, r3
 578 0012 BD46     		mov	sp, r7
 579 0014 02B0     		add	sp, sp, #8
 580              		@ sp needed
 581 0016 80BD     		pop	{r7, pc}
 582              	.L42:
 583              		.align	2
 584              	.L41:
 585 0018 08000000 		.word	_ZTVN3ros11Subscriber_E+8
 586              		.cfi_endproc
 587              	.LFE170:
 588              		.size	_ZN3ros11Subscriber_C2Ev, .-_ZN3ros11Subscriber_C2Ev
 589              		.weak	_ZN3ros11Subscriber_C1Ev
 590              		.thumb_set _ZN3ros11Subscriber_C1Ev,_ZN3ros11Subscriber_C2Ev
 591              		.section	.text._ZN3ros10SubscriberIN8std_msgs5Int16EEC2EPKcPFvRKS2_Ei,"axG",%progbits,_ZN3ros10Sub
 592              		.align	2
 593              		.weak	_ZN3ros10SubscriberIN8std_msgs5Int16EEC2EPKcPFvRKS2_Ei
 594              		.code	16
 595              		.thumb_func
 596              		.type	_ZN3ros10SubscriberIN8std_msgs5Int16EEC2EPKcPFvRKS2_Ei, %function
 597              	_ZN3ros10SubscriberIN8std_msgs5Int16EEC2EPKcPFvRKS2_Ei:
 598              	.LFB172:
  44:./ros_lib/ros/subscriber.h ****   {
  45:./ros_lib/ros/subscriber.h ****     public:
  46:./ros_lib/ros/subscriber.h ****       virtual void callback(unsigned char *data)=0;
  47:./ros_lib/ros/subscriber.h ****       virtual int getEndpointType()=0;
  48:./ros_lib/ros/subscriber.h **** 
  49:./ros_lib/ros/subscriber.h ****       // id_ is set by NodeHandle when we advertise 
  50:./ros_lib/ros/subscriber.h ****       int id_;
  51:./ros_lib/ros/subscriber.h **** 
ARM GAS  C:\Users\Chuck\AppData\Local\Temp\ccfyZq46.s 			page 16


  52:./ros_lib/ros/subscriber.h ****       virtual const char * getMsgType()=0;
  53:./ros_lib/ros/subscriber.h ****       virtual const char * getMsgMD5()=0;
  54:./ros_lib/ros/subscriber.h ****       const char * topic_;
  55:./ros_lib/ros/subscriber.h ****   };
  56:./ros_lib/ros/subscriber.h **** 
  57:./ros_lib/ros/subscriber.h **** 
  58:./ros_lib/ros/subscriber.h ****   /* Actual subscriber, templated on message type. */
  59:./ros_lib/ros/subscriber.h ****   template<typename MsgT>
  60:./ros_lib/ros/subscriber.h ****   class Subscriber: public Subscriber_{
  61:./ros_lib/ros/subscriber.h ****     public:
  62:./ros_lib/ros/subscriber.h ****       typedef void(*CallbackT)(const MsgT&);
  63:./ros_lib/ros/subscriber.h ****       MsgT msg;
  64:./ros_lib/ros/subscriber.h ****       // Rosserial standard callback
  65:./ros_lib/ros/subscriber.h ****       Subscriber(const char * topic_name, CallbackT cb, int endpoint=rosserial_msgs::TopicInfo::ID_
 599              		.loc 5 65 0
 600              		.cfi_startproc
 601 0000 80B5     		push	{r7, lr}
 602              		.cfi_def_cfa_offset 8
 603              		.cfi_offset 7, -8
 604              		.cfi_offset 14, -4
 605 0002 84B0     		sub	sp, sp, #16
 606              		.cfi_def_cfa_offset 24
 607 0004 00AF     		add	r7, sp, #0
 608              		.cfi_def_cfa_register 7
 609 0006 F860     		str	r0, [r7, #12]
 610 0008 B960     		str	r1, [r7, #8]
 611 000a 7A60     		str	r2, [r7, #4]
 612 000c 3B60     		str	r3, [r7]
 613              	.LBB7:
  66:./ros_lib/ros/subscriber.h ****         cb_(cb), cbp_(NULL),
  67:./ros_lib/ros/subscriber.h ****         endpoint_(endpoint)
 614              		.loc 5 67 0
 615 000e FB68     		ldr	r3, [r7, #12]
 616 0010 181C     		mov	r0, r3
 617 0012 FFF7FEFF 		bl	_ZN3ros11Subscriber_C2Ev
 618 0016 FB68     		ldr	r3, [r7, #12]
 619 0018 0B4A     		ldr	r2, .L46
 620 001a 1A60     		str	r2, [r3]
 621 001c FB68     		ldr	r3, [r7, #12]
 622 001e 0C33     		add	r3, r3, #12
 623 0020 181C     		mov	r0, r3
 624 0022 FFF7FEFF 		bl	_ZN8std_msgs5Int16C1Ev
 625 0026 FB68     		ldr	r3, [r7, #12]
 626 0028 7A68     		ldr	r2, [r7, #4]
 627 002a 5A61     		str	r2, [r3, #20]
 628 002c FB68     		ldr	r3, [r7, #12]
 629 002e 0022     		mov	r2, #0
 630 0030 9A61     		str	r2, [r3, #24]
 631 0032 FB68     		ldr	r3, [r7, #12]
 632 0034 3A68     		ldr	r2, [r7]
 633 0036 DA61     		str	r2, [r3, #28]
  68:./ros_lib/ros/subscriber.h ****       {
  69:./ros_lib/ros/subscriber.h ****         topic_ = topic_name;
 634              		.loc 5 69 0
 635 0038 FB68     		ldr	r3, [r7, #12]
 636 003a BA68     		ldr	r2, [r7, #8]
 637 003c 9A60     		str	r2, [r3, #8]
ARM GAS  C:\Users\Chuck\AppData\Local\Temp\ccfyZq46.s 			page 17


 638              	.LBE7:
  70:./ros_lib/ros/subscriber.h ****       };
 639              		.loc 5 70 0
 640 003e FB68     		ldr	r3, [r7, #12]
 641 0040 181C     		mov	r0, r3
 642 0042 BD46     		mov	sp, r7
 643 0044 04B0     		add	sp, sp, #16
 644              		@ sp needed
 645 0046 80BD     		pop	{r7, pc}
 646              	.L47:
 647              		.align	2
 648              	.L46:
 649 0048 08000000 		.word	_ZTVN3ros10SubscriberIN8std_msgs5Int16EEE+8
 650              		.cfi_endproc
 651              	.LFE172:
 652              		.size	_ZN3ros10SubscriberIN8std_msgs5Int16EEC2EPKcPFvRKS2_Ei, .-_ZN3ros10SubscriberIN8std_msgs5Int
 653              		.weak	_ZN3ros10SubscriberIN8std_msgs5Int16EEC1EPKcPFvRKS2_Ei
 654              		.thumb_set _ZN3ros10SubscriberIN8std_msgs5Int16EEC1EPKcPFvRKS2_Ei,_ZN3ros10SubscriberIN8std_msgs5I
 655              		.section	.text._ZN3ros11NodeHandle_I13Psoc4HardwareLi10ELi20ELi200ELi200EE9subscribeIN8std_msgs5In
 656              		.align	2
 657              		.weak	_ZN3ros11NodeHandle_I13Psoc4HardwareLi10ELi20ELi200ELi200EE9subscribeIN8std_msgs5Int16EEEbRN
 658              		.code	16
 659              		.thumb_func
 660              		.type	_ZN3ros11NodeHandle_I13Psoc4HardwareLi10ELi20ELi200ELi200EE9subscribeIN8std_msgs5Int16EEEbRN
 661              	_ZN3ros11NodeHandle_I13Psoc4HardwareLi10ELi20ELi200ELi200EE9subscribeIN8std_msgs5Int16EEEbRNS_10Sub
 662              	.LFB174:
 663              		.file 6 "./ros_lib/ros/node_handle.h"
   1:./ros_lib/ros/node_handle.h **** /*
   2:./ros_lib/ros/node_handle.h ****  * Software License Agreement (BSD License)
   3:./ros_lib/ros/node_handle.h ****  *
   4:./ros_lib/ros/node_handle.h ****  * Copyright (c) 2011, Willow Garage, Inc.
   5:./ros_lib/ros/node_handle.h ****  * All rights reserved.
   6:./ros_lib/ros/node_handle.h ****  *
   7:./ros_lib/ros/node_handle.h ****  * Redistribution and use in source and binary forms, with or without
   8:./ros_lib/ros/node_handle.h ****  * modification, are permitted provided that the following conditions
   9:./ros_lib/ros/node_handle.h ****  * are met:
  10:./ros_lib/ros/node_handle.h ****  *
  11:./ros_lib/ros/node_handle.h ****  *  * Redistributions of source code must retain the above copyright
  12:./ros_lib/ros/node_handle.h ****  *    notice, this list of conditions and the following disclaimer.
  13:./ros_lib/ros/node_handle.h ****  *  * Redistributions in binary form must reproduce the above
  14:./ros_lib/ros/node_handle.h ****  *    copyright notice, this list of conditions and the following
  15:./ros_lib/ros/node_handle.h ****  *    disclaimer in the documentation and/or other materials provided
  16:./ros_lib/ros/node_handle.h ****  *    with the distribution.
  17:./ros_lib/ros/node_handle.h ****  *  * Neither the name of Willow Garage, Inc. nor the names of its
  18:./ros_lib/ros/node_handle.h ****  *    contributors may be used to endorse or promote prducts derived
  19:./ros_lib/ros/node_handle.h ****  *    from this software without specific prior written permission.
  20:./ros_lib/ros/node_handle.h ****  *
  21:./ros_lib/ros/node_handle.h ****  * THIS SOFTWARE IS PROVIDED BY THE COPYRIGHT HOLDERS AND CONTRIBUTORS
  22:./ros_lib/ros/node_handle.h ****  * "AS IS" AND ANY EXPRESS OR IMPLIED WARRANTIES, INCLUDING, BUT NOT
  23:./ros_lib/ros/node_handle.h ****  * LIMITED TO, THE IMPLIED WARRANTIES OF MERCHANTABILITY AND FITNESS
  24:./ros_lib/ros/node_handle.h ****  * FOR A PARTICULAR PURPOSE ARE DISCLAIMED. IN NO EVENT SHALL THE
  25:./ros_lib/ros/node_handle.h ****  * COPYRIGHT OWNER OR CONTRIBUTORS BE LIABLE FOR ANY DIRECT, INDIRECT,
  26:./ros_lib/ros/node_handle.h ****  * INCIDENTAL, SPECIAL, EXEMPLARY, OR CONSEQUENTIAL DAMAGES (INCLUDING,
  27:./ros_lib/ros/node_handle.h ****  * BUT NOT LIMITED TO, PROCUREMENT OF SUBSTITUTE GOODS OR SERVICES;
  28:./ros_lib/ros/node_handle.h ****  * LOSS OF USE, DATA, OR PROFITS; OR BUSINESS INTERRUPTION) HOWEVER
  29:./ros_lib/ros/node_handle.h ****  * CAUSED AND ON ANY THEORY OF LIABILITY, WHETHER IN CONTRACT, STRICT
  30:./ros_lib/ros/node_handle.h ****  * LIABILITY, OR TORT (INCLUDING NEGLIGENCE OR OTHERWISE) ARISING IN
ARM GAS  C:\Users\Chuck\AppData\Local\Temp\ccfyZq46.s 			page 18


  31:./ros_lib/ros/node_handle.h ****  * ANY WAY OUT OF THE USE OF THIS SOFTWARE, EVEN IF ADVISED OF THE
  32:./ros_lib/ros/node_handle.h ****  * POSSIBILITY OF SUCH DAMAGE.
  33:./ros_lib/ros/node_handle.h ****  */
  34:./ros_lib/ros/node_handle.h **** 
  35:./ros_lib/ros/node_handle.h **** #ifndef ROS_NODE_HANDLE_H_
  36:./ros_lib/ros/node_handle.h **** #define ROS_NODE_HANDLE_H_
  37:./ros_lib/ros/node_handle.h **** 
  38:./ros_lib/ros/node_handle.h **** #ifndef PARAM_REQ_SUPPORT
  39:./ros_lib/ros/node_handle.h **** #define PARAM_REQ_SUPPORT 1
  40:./ros_lib/ros/node_handle.h **** #endif
  41:./ros_lib/ros/node_handle.h **** 
  42:./ros_lib/ros/node_handle.h **** #include "std_msgs/Time.h"
  43:./ros_lib/ros/node_handle.h **** #include "rosserial_msgs/TopicInfo.h"
  44:./ros_lib/ros/node_handle.h **** #include "rosserial_msgs/Log.h"
  45:./ros_lib/ros/node_handle.h **** #if PARAM_REQ_SUPPORT
  46:./ros_lib/ros/node_handle.h **** #include "rosserial_msgs/RequestParam.h"
  47:./ros_lib/ros/node_handle.h **** #endif
  48:./ros_lib/ros/node_handle.h **** 
  49:./ros_lib/ros/node_handle.h **** #define SYNC_SECONDS        2
  50:./ros_lib/ros/node_handle.h **** 
  51:./ros_lib/ros/node_handle.h **** #define MODE_FIRST_FF       0
  52:./ros_lib/ros/node_handle.h **** /*
  53:./ros_lib/ros/node_handle.h ****  * The second sync byte is a protocol version. It's value is 0xff for the first
  54:./ros_lib/ros/node_handle.h ****  * version of the rosserial protocol (used up to hydro), 0xfe for the second version
  55:./ros_lib/ros/node_handle.h ****  * (introduced in hydro), 0xfd for the next, and so on. Its purpose is to enable
  56:./ros_lib/ros/node_handle.h ****  * detection of mismatched protocol versions (e.g. hydro rosserial_python with groovy
  57:./ros_lib/ros/node_handle.h ****  * rosserial_arduino. It must be changed in both this file and in
  58:./ros_lib/ros/node_handle.h ****  * rosserial_python/src/rosserial_python/SerialClient.py
  59:./ros_lib/ros/node_handle.h ****  */
  60:./ros_lib/ros/node_handle.h **** #define MODE_PROTOCOL_VER   1
  61:./ros_lib/ros/node_handle.h **** #define PROTOCOL_VER1		0xff // through groovy
  62:./ros_lib/ros/node_handle.h **** #define PROTOCOL_VER2		0xfe // in hydro
  63:./ros_lib/ros/node_handle.h **** #define PROTOCOL_VER 		PROTOCOL_VER2
  64:./ros_lib/ros/node_handle.h **** #define MODE_SIZE_L         2   
  65:./ros_lib/ros/node_handle.h **** #define MODE_SIZE_H         3
  66:./ros_lib/ros/node_handle.h **** #define MODE_SIZE_CHECKSUM  4   // checksum for msg size received from size L and H
  67:./ros_lib/ros/node_handle.h **** #define MODE_TOPIC_L        5   // waiting for topic id
  68:./ros_lib/ros/node_handle.h **** #define MODE_TOPIC_H        6
  69:./ros_lib/ros/node_handle.h **** #define MODE_MESSAGE        7
  70:./ros_lib/ros/node_handle.h **** #define MODE_MSG_CHECKSUM   8   // checksum for msg and topic id 
  71:./ros_lib/ros/node_handle.h **** 
  72:./ros_lib/ros/node_handle.h **** 
  73:./ros_lib/ros/node_handle.h **** #define MSG_TIMEOUT 200  // was 20 milliseconds to recieve all of message data
  74:./ros_lib/ros/node_handle.h **** 
  75:./ros_lib/ros/node_handle.h **** #include "msg.h"
  76:./ros_lib/ros/node_handle.h **** 
  77:./ros_lib/ros/node_handle.h **** namespace ros {
  78:./ros_lib/ros/node_handle.h **** 
  79:./ros_lib/ros/node_handle.h ****   class NodeHandleBase_{
  80:./ros_lib/ros/node_handle.h ****     public:
  81:./ros_lib/ros/node_handle.h ****       virtual int publish(int id, const Msg* msg)=0;
  82:./ros_lib/ros/node_handle.h ****       virtual int spinOnce()=0;
  83:./ros_lib/ros/node_handle.h ****       virtual bool connected()=0;
  84:./ros_lib/ros/node_handle.h ****     };
  85:./ros_lib/ros/node_handle.h **** }
  86:./ros_lib/ros/node_handle.h **** 
  87:./ros_lib/ros/node_handle.h **** #include "publisher.h"
ARM GAS  C:\Users\Chuck\AppData\Local\Temp\ccfyZq46.s 			page 19


  88:./ros_lib/ros/node_handle.h **** #include "subscriber.h"
  89:./ros_lib/ros/node_handle.h **** #include "service_server.h"
  90:./ros_lib/ros/node_handle.h **** #include "service_client.h"
  91:./ros_lib/ros/node_handle.h **** 
  92:./ros_lib/ros/node_handle.h **** namespace ros {
  93:./ros_lib/ros/node_handle.h **** 
  94:./ros_lib/ros/node_handle.h ****   using rosserial_msgs::TopicInfo;
  95:./ros_lib/ros/node_handle.h **** 
  96:./ros_lib/ros/node_handle.h ****   /* Node Handle */
  97:./ros_lib/ros/node_handle.h ****   template<class Hardware,
  98:./ros_lib/ros/node_handle.h ****            int MAX_SUBSCRIBERS=25,
  99:./ros_lib/ros/node_handle.h ****            int MAX_PUBLISHERS=25,
 100:./ros_lib/ros/node_handle.h ****            int INPUT_SIZE=512,
 101:./ros_lib/ros/node_handle.h ****            int OUTPUT_SIZE=512>
 102:./ros_lib/ros/node_handle.h ****   class NodeHandle_ : public NodeHandleBase_
 103:./ros_lib/ros/node_handle.h ****   {
 104:./ros_lib/ros/node_handle.h ****     protected:
 105:./ros_lib/ros/node_handle.h ****       Hardware hardware_;
 106:./ros_lib/ros/node_handle.h **** 
 107:./ros_lib/ros/node_handle.h ****       /* time used for syncing */
 108:./ros_lib/ros/node_handle.h ****       unsigned long rt_time;
 109:./ros_lib/ros/node_handle.h **** 
 110:./ros_lib/ros/node_handle.h ****       /* used for computing current time */
 111:./ros_lib/ros/node_handle.h ****       unsigned long sec_offset, nsec_offset;
 112:./ros_lib/ros/node_handle.h **** 
 113:./ros_lib/ros/node_handle.h ****       unsigned char message_in[INPUT_SIZE];
 114:./ros_lib/ros/node_handle.h ****       unsigned char message_out[OUTPUT_SIZE];
 115:./ros_lib/ros/node_handle.h **** 
 116:./ros_lib/ros/node_handle.h ****       Publisher * publishers[MAX_PUBLISHERS];
 117:./ros_lib/ros/node_handle.h ****       Subscriber_ * subscribers[MAX_SUBSCRIBERS];
 118:./ros_lib/ros/node_handle.h **** 
 119:./ros_lib/ros/node_handle.h ****       /*
 120:./ros_lib/ros/node_handle.h ****        * Setup Functions
 121:./ros_lib/ros/node_handle.h ****        */
 122:./ros_lib/ros/node_handle.h ****     public:
 123:./ros_lib/ros/node_handle.h ****       NodeHandle_() : configured_(false) {
 124:./ros_lib/ros/node_handle.h **** #if true
 125:./ros_lib/ros/node_handle.h ****         for(unsigned int i=0; i< MAX_PUBLISHERS; i++) 
 126:./ros_lib/ros/node_handle.h **** 	   publishers[i] = 0;
 127:./ros_lib/ros/node_handle.h **** 
 128:./ros_lib/ros/node_handle.h ****         for(unsigned int i=0; i< MAX_SUBSCRIBERS; i++) 
 129:./ros_lib/ros/node_handle.h **** 	   subscribers[i] = 0;
 130:./ros_lib/ros/node_handle.h **** 
 131:./ros_lib/ros/node_handle.h ****         for(unsigned int i=0; i< INPUT_SIZE; i++) 
 132:./ros_lib/ros/node_handle.h **** 	   message_in[i] = 0;
 133:./ros_lib/ros/node_handle.h **** 
 134:./ros_lib/ros/node_handle.h ****         for(unsigned int i=0; i< OUTPUT_SIZE; i++) 
 135:./ros_lib/ros/node_handle.h **** 	   message_out[i] = 0;
 136:./ros_lib/ros/node_handle.h **** 
 137:./ros_lib/ros/node_handle.h ****         req_param_resp.ints_length = 0;
 138:./ros_lib/ros/node_handle.h ****         req_param_resp.ints = NULL;
 139:./ros_lib/ros/node_handle.h ****         req_param_resp.floats_length = 0;
 140:./ros_lib/ros/node_handle.h ****         req_param_resp.floats = NULL;
 141:./ros_lib/ros/node_handle.h ****         req_param_resp.ints_length = 0;
 142:./ros_lib/ros/node_handle.h ****         req_param_resp.ints = NULL;
 143:./ros_lib/ros/node_handle.h ****       }
 144:./ros_lib/ros/node_handle.h **** #endif      
ARM GAS  C:\Users\Chuck\AppData\Local\Temp\ccfyZq46.s 			page 20


 145:./ros_lib/ros/node_handle.h ****       Hardware* getHardware(){
 146:./ros_lib/ros/node_handle.h ****         return &hardware_;
 147:./ros_lib/ros/node_handle.h ****       }
 148:./ros_lib/ros/node_handle.h **** 
 149:./ros_lib/ros/node_handle.h ****       /* Start serial, initialize buffers */
 150:./ros_lib/ros/node_handle.h ****       void initNode(){
 151:./ros_lib/ros/node_handle.h ****         hardware_.init();
 152:./ros_lib/ros/node_handle.h ****         mode_ = 0;
 153:./ros_lib/ros/node_handle.h ****         bytes_ = 0;
 154:./ros_lib/ros/node_handle.h ****         index_ = 0;
 155:./ros_lib/ros/node_handle.h ****         topic_ = 0;
 156:./ros_lib/ros/node_handle.h ****       };
 157:./ros_lib/ros/node_handle.h **** 
 158:./ros_lib/ros/node_handle.h ****       /* Start a named port, which may be network server IP, initialize buffers */
 159:./ros_lib/ros/node_handle.h ****       void initNode(char *portName){
 160:./ros_lib/ros/node_handle.h ****         hardware_.init(portName);
 161:./ros_lib/ros/node_handle.h ****         mode_ = 0;
 162:./ros_lib/ros/node_handle.h ****         bytes_ = 0;
 163:./ros_lib/ros/node_handle.h ****         index_ = 0;
 164:./ros_lib/ros/node_handle.h ****         topic_ = 0;
 165:./ros_lib/ros/node_handle.h ****       };
 166:./ros_lib/ros/node_handle.h **** 
 167:./ros_lib/ros/node_handle.h ****     protected:
 168:./ros_lib/ros/node_handle.h ****       //State machine variables for spinOnce
 169:./ros_lib/ros/node_handle.h ****       int mode_;
 170:./ros_lib/ros/node_handle.h ****       int bytes_;
 171:./ros_lib/ros/node_handle.h ****       int topic_;
 172:./ros_lib/ros/node_handle.h ****       int index_;
 173:./ros_lib/ros/node_handle.h ****       int checksum_;
 174:./ros_lib/ros/node_handle.h **** 
 175:./ros_lib/ros/node_handle.h ****       bool configured_;
 176:./ros_lib/ros/node_handle.h **** 
 177:./ros_lib/ros/node_handle.h ****       /* used for syncing the time */
 178:./ros_lib/ros/node_handle.h ****       unsigned long last_sync_time;
 179:./ros_lib/ros/node_handle.h ****       unsigned long last_sync_receive_time;
 180:./ros_lib/ros/node_handle.h ****       unsigned long last_msg_timeout_time;
 181:./ros_lib/ros/node_handle.h **** 
 182:./ros_lib/ros/node_handle.h ****     public:
 183:./ros_lib/ros/node_handle.h ****       /* This function goes in your loop() function, it handles
 184:./ros_lib/ros/node_handle.h ****        *  serial input and callbacks for subscribers.
 185:./ros_lib/ros/node_handle.h ****        */
 186:./ros_lib/ros/node_handle.h **** 
 187:./ros_lib/ros/node_handle.h **** 
 188:./ros_lib/ros/node_handle.h ****       virtual int spinOnce(){
 189:./ros_lib/ros/node_handle.h **** 
 190:./ros_lib/ros/node_handle.h ****         /* restart if timed out */
 191:./ros_lib/ros/node_handle.h ****         unsigned long c_time = hardware_.time();
 192:./ros_lib/ros/node_handle.h ****         if( (c_time - last_sync_receive_time) > (SYNC_SECONDS*1100) ){
 193:./ros_lib/ros/node_handle.h ****             configured_ = false;
 194:./ros_lib/ros/node_handle.h ****          }
 195:./ros_lib/ros/node_handle.h ****          
 196:./ros_lib/ros/node_handle.h ****         /* reset if message has timed out */
 197:./ros_lib/ros/node_handle.h ****         if ( mode_ != MODE_FIRST_FF){ 
 198:./ros_lib/ros/node_handle.h ****           if (c_time > last_msg_timeout_time){
 199:./ros_lib/ros/node_handle.h ****             mode_ = MODE_FIRST_FF;
 200:./ros_lib/ros/node_handle.h ****           }
 201:./ros_lib/ros/node_handle.h ****         }
ARM GAS  C:\Users\Chuck\AppData\Local\Temp\ccfyZq46.s 			page 21


 202:./ros_lib/ros/node_handle.h **** 
 203:./ros_lib/ros/node_handle.h ****         /* while available buffer, read data */
 204:./ros_lib/ros/node_handle.h ****         while( true )
 205:./ros_lib/ros/node_handle.h ****         {
 206:./ros_lib/ros/node_handle.h ****           int data = hardware_.read();
 207:./ros_lib/ros/node_handle.h ****           if( data < 0 )
 208:./ros_lib/ros/node_handle.h ****             break;
 209:./ros_lib/ros/node_handle.h ****           checksum_ += data;
 210:./ros_lib/ros/node_handle.h ****           if( mode_ == MODE_MESSAGE ){        /* message data being recieved */
 211:./ros_lib/ros/node_handle.h ****             message_in[index_++] = data;
 212:./ros_lib/ros/node_handle.h ****             bytes_--;
 213:./ros_lib/ros/node_handle.h ****             if(bytes_ == 0)                  /* is message complete? if so, checksum */
 214:./ros_lib/ros/node_handle.h ****               mode_ = MODE_MSG_CHECKSUM;
 215:./ros_lib/ros/node_handle.h ****           }else if( mode_ == MODE_FIRST_FF ){
 216:./ros_lib/ros/node_handle.h ****             if(data == 0xff){
 217:./ros_lib/ros/node_handle.h ****               mode_++;
 218:./ros_lib/ros/node_handle.h ****               last_msg_timeout_time = c_time + MSG_TIMEOUT;
 219:./ros_lib/ros/node_handle.h ****             }
 220:./ros_lib/ros/node_handle.h ****             else if( hardware_.time() - c_time > (SYNC_SECONDS)){
 221:./ros_lib/ros/node_handle.h ****               /* We have been stuck in spinOnce too long, return error */
 222:./ros_lib/ros/node_handle.h ****               configured_=false;
 223:./ros_lib/ros/node_handle.h ****               return -2;
 224:./ros_lib/ros/node_handle.h ****             }
 225:./ros_lib/ros/node_handle.h ****           }else if( mode_ == MODE_PROTOCOL_VER ){
 226:./ros_lib/ros/node_handle.h ****             if(data == PROTOCOL_VER){
 227:./ros_lib/ros/node_handle.h ****               mode_++;
 228:./ros_lib/ros/node_handle.h ****             }else{
 229:./ros_lib/ros/node_handle.h ****               mode_ = MODE_FIRST_FF;
 230:./ros_lib/ros/node_handle.h ****               if (configured_ == false)
 231:./ros_lib/ros/node_handle.h ****                   requestSyncTime(); 	/* send a msg back showing our protocol version */
 232:./ros_lib/ros/node_handle.h ****             }
 233:./ros_lib/ros/node_handle.h **** 	  }else if( mode_ == MODE_SIZE_L ){   /* bottom half of message size */
 234:./ros_lib/ros/node_handle.h ****             bytes_ = data;
 235:./ros_lib/ros/node_handle.h ****             index_ = 0;
 236:./ros_lib/ros/node_handle.h ****             mode_++;
 237:./ros_lib/ros/node_handle.h ****             checksum_ = data;               /* first byte for calculating size checksum */
 238:./ros_lib/ros/node_handle.h ****           }else if( mode_ == MODE_SIZE_H ){   /* top half of message size */
 239:./ros_lib/ros/node_handle.h ****             bytes_ += data<<8;
 240:./ros_lib/ros/node_handle.h **** 	    mode_++;
 241:./ros_lib/ros/node_handle.h ****           }else if( mode_ == MODE_SIZE_CHECKSUM ){  
 242:./ros_lib/ros/node_handle.h ****             if( (checksum_%256) == 255)
 243:./ros_lib/ros/node_handle.h **** 	      mode_++;
 244:./ros_lib/ros/node_handle.h **** 	    else 
 245:./ros_lib/ros/node_handle.h **** 	      mode_ = MODE_FIRST_FF;          /* Abandon the frame if the msg len is wrong */
 246:./ros_lib/ros/node_handle.h **** 	  }else if( mode_ == MODE_TOPIC_L ){  /* bottom half of topic id */
 247:./ros_lib/ros/node_handle.h ****             topic_ = data;
 248:./ros_lib/ros/node_handle.h ****             mode_++;
 249:./ros_lib/ros/node_handle.h ****             checksum_ = data;               /* first byte included in checksum */
 250:./ros_lib/ros/node_handle.h ****           }else if( mode_ == MODE_TOPIC_H ){  /* top half of topic id */
 251:./ros_lib/ros/node_handle.h ****             topic_ += data<<8;
 252:./ros_lib/ros/node_handle.h ****             mode_ = MODE_MESSAGE;
 253:./ros_lib/ros/node_handle.h ****             if(bytes_ == 0)
 254:./ros_lib/ros/node_handle.h ****               mode_ = MODE_MSG_CHECKSUM;  
 255:./ros_lib/ros/node_handle.h ****           }else if( mode_ == MODE_MSG_CHECKSUM ){ /* do checksum */
 256:./ros_lib/ros/node_handle.h ****             mode_ = MODE_FIRST_FF;
 257:./ros_lib/ros/node_handle.h ****             if( (checksum_%256) == 255){
 258:./ros_lib/ros/node_handle.h ****               if(topic_ == TopicInfo::ID_PUBLISHER){
ARM GAS  C:\Users\Chuck\AppData\Local\Temp\ccfyZq46.s 			page 22


 259:./ros_lib/ros/node_handle.h ****                 requestSyncTime();
 260:./ros_lib/ros/node_handle.h ****                 negotiateTopics();
 261:./ros_lib/ros/node_handle.h ****                 last_sync_time = c_time;
 262:./ros_lib/ros/node_handle.h ****                 last_sync_receive_time = c_time;
 263:./ros_lib/ros/node_handle.h ****                 return -1;
 264:./ros_lib/ros/node_handle.h ****               }else if(topic_ == TopicInfo::ID_TIME){
 265:./ros_lib/ros/node_handle.h ****                 syncTime(message_in);
 266:./ros_lib/ros/node_handle.h ****               #if PARAM_REQ_SUPPORT
 267:./ros_lib/ros/node_handle.h ****               }else if (topic_ == TopicInfo::ID_PARAMETER_REQUEST){
 268:./ros_lib/ros/node_handle.h ****                   req_param_resp.deserialize(message_in);
 269:./ros_lib/ros/node_handle.h ****                   param_recieved= true;
 270:./ros_lib/ros/node_handle.h ****               #endif
 271:./ros_lib/ros/node_handle.h ****               }else if(topic_ == TopicInfo::ID_TX_STOP){
 272:./ros_lib/ros/node_handle.h ****                   configured_ = false;
 273:./ros_lib/ros/node_handle.h ****               }else{
 274:./ros_lib/ros/node_handle.h ****                 if(subscribers[topic_-100])
 275:./ros_lib/ros/node_handle.h ****                   subscribers[topic_-100]->callback( message_in );
 276:./ros_lib/ros/node_handle.h ****               }
 277:./ros_lib/ros/node_handle.h ****             }
 278:./ros_lib/ros/node_handle.h ****           }
 279:./ros_lib/ros/node_handle.h ****         }
 280:./ros_lib/ros/node_handle.h **** 
 281:./ros_lib/ros/node_handle.h ****         /* occasionally sync time */
 282:./ros_lib/ros/node_handle.h ****         if( configured_ && ((c_time-last_sync_time) > (SYNC_SECONDS*500) )){
 283:./ros_lib/ros/node_handle.h ****           requestSyncTime();
 284:./ros_lib/ros/node_handle.h ****           last_sync_time = c_time;
 285:./ros_lib/ros/node_handle.h ****         }
 286:./ros_lib/ros/node_handle.h **** 
 287:./ros_lib/ros/node_handle.h ****         return 0;
 288:./ros_lib/ros/node_handle.h ****       }
 289:./ros_lib/ros/node_handle.h **** 
 290:./ros_lib/ros/node_handle.h **** 
 291:./ros_lib/ros/node_handle.h ****       /* Are we connected to the PC? */
 292:./ros_lib/ros/node_handle.h ****       virtual bool connected() {
 293:./ros_lib/ros/node_handle.h ****         return configured_;
 294:./ros_lib/ros/node_handle.h ****       };
 295:./ros_lib/ros/node_handle.h **** 
 296:./ros_lib/ros/node_handle.h ****       /********************************************************************
 297:./ros_lib/ros/node_handle.h ****        * Time functions
 298:./ros_lib/ros/node_handle.h ****        */
 299:./ros_lib/ros/node_handle.h **** 
 300:./ros_lib/ros/node_handle.h ****       void requestSyncTime()
 301:./ros_lib/ros/node_handle.h ****       {
 302:./ros_lib/ros/node_handle.h ****         std_msgs::Time t;
 303:./ros_lib/ros/node_handle.h ****         publish(TopicInfo::ID_TIME, &t);
 304:./ros_lib/ros/node_handle.h ****         rt_time = hardware_.time();
 305:./ros_lib/ros/node_handle.h ****       }
 306:./ros_lib/ros/node_handle.h **** 
 307:./ros_lib/ros/node_handle.h ****       void syncTime( unsigned char * data )
 308:./ros_lib/ros/node_handle.h ****       {
 309:./ros_lib/ros/node_handle.h ****         std_msgs::Time t;
 310:./ros_lib/ros/node_handle.h ****         unsigned long offset = hardware_.time() - rt_time;
 311:./ros_lib/ros/node_handle.h **** 
 312:./ros_lib/ros/node_handle.h ****         t.deserialize(data);
 313:./ros_lib/ros/node_handle.h ****         t.data.sec += offset/1000;
 314:./ros_lib/ros/node_handle.h ****         t.data.nsec += (offset%1000)*1000000UL;
 315:./ros_lib/ros/node_handle.h **** 
ARM GAS  C:\Users\Chuck\AppData\Local\Temp\ccfyZq46.s 			page 23


 316:./ros_lib/ros/node_handle.h ****         this->setNow(t.data);
 317:./ros_lib/ros/node_handle.h ****         last_sync_receive_time = hardware_.time();
 318:./ros_lib/ros/node_handle.h ****       }
 319:./ros_lib/ros/node_handle.h **** 
 320:./ros_lib/ros/node_handle.h ****       Time now(){
 321:./ros_lib/ros/node_handle.h ****         unsigned long ms = hardware_.time();
 322:./ros_lib/ros/node_handle.h ****         Time current_time;
 323:./ros_lib/ros/node_handle.h ****         current_time.sec = ms/1000 + sec_offset;
 324:./ros_lib/ros/node_handle.h ****         current_time.nsec = (ms%1000)*1000000UL + nsec_offset;
 325:./ros_lib/ros/node_handle.h ****         normalizeSecNSec(current_time.sec, current_time.nsec);
 326:./ros_lib/ros/node_handle.h ****         return current_time;
 327:./ros_lib/ros/node_handle.h ****       }
 328:./ros_lib/ros/node_handle.h **** 
 329:./ros_lib/ros/node_handle.h ****       void setNow( Time & new_now )
 330:./ros_lib/ros/node_handle.h ****       {
 331:./ros_lib/ros/node_handle.h ****         unsigned long ms = hardware_.time();
 332:./ros_lib/ros/node_handle.h ****         sec_offset = new_now.sec - ms/1000 - 1;
 333:./ros_lib/ros/node_handle.h ****         nsec_offset = new_now.nsec - (ms%1000)*1000000UL + 1000000000UL;
 334:./ros_lib/ros/node_handle.h ****         normalizeSecNSec(sec_offset, nsec_offset);
 335:./ros_lib/ros/node_handle.h ****       }
 336:./ros_lib/ros/node_handle.h **** 
 337:./ros_lib/ros/node_handle.h ****       /********************************************************************
 338:./ros_lib/ros/node_handle.h ****        * Topic Management 
 339:./ros_lib/ros/node_handle.h ****        */
 340:./ros_lib/ros/node_handle.h **** 
 341:./ros_lib/ros/node_handle.h ****       /* Register a new publisher */    
 342:./ros_lib/ros/node_handle.h ****       bool advertise(Publisher & p)
 343:./ros_lib/ros/node_handle.h ****       {
 344:./ros_lib/ros/node_handle.h ****         for(int i = 0; i < MAX_PUBLISHERS; i++){
 345:./ros_lib/ros/node_handle.h ****           if(publishers[i] == 0){ // empty slot
 346:./ros_lib/ros/node_handle.h ****             publishers[i] = &p;
 347:./ros_lib/ros/node_handle.h ****             p.id_ = i+100+MAX_SUBSCRIBERS;
 348:./ros_lib/ros/node_handle.h ****             p.nh_ = this;
 349:./ros_lib/ros/node_handle.h ****             return true;
 350:./ros_lib/ros/node_handle.h ****           }
 351:./ros_lib/ros/node_handle.h ****         }
 352:./ros_lib/ros/node_handle.h ****         return false;
 353:./ros_lib/ros/node_handle.h ****       }
 354:./ros_lib/ros/node_handle.h **** 
 355:./ros_lib/ros/node_handle.h ****       /* Register a new subscriber */
 356:./ros_lib/ros/node_handle.h ****       template<typename MsgT>
 357:./ros_lib/ros/node_handle.h ****       bool subscribe(Subscriber< MsgT> & s){
 664              		.loc 6 357 0
 665              		.cfi_startproc
 666 0000 80B5     		push	{r7, lr}
 667              		.cfi_def_cfa_offset 8
 668              		.cfi_offset 7, -8
 669              		.cfi_offset 14, -4
 670 0002 84B0     		sub	sp, sp, #16
 671              		.cfi_def_cfa_offset 24
 672 0004 00AF     		add	r7, sp, #0
 673              		.cfi_def_cfa_register 7
 674 0006 7860     		str	r0, [r7, #4]
 675 0008 3960     		str	r1, [r7]
 676              	.LBB8:
 677              	.LBB9:
 358:./ros_lib/ros/node_handle.h ****         for(int i = 0; i < MAX_SUBSCRIBERS; i++){
ARM GAS  C:\Users\Chuck\AppData\Local\Temp\ccfyZq46.s 			page 24


 678              		.loc 6 358 0
 679 000a 0023     		mov	r3, #0
 680 000c FB60     		str	r3, [r7, #12]
 681 000e 16E0     		b	.L49
 682              	.L52:
 359:./ros_lib/ros/node_handle.h ****           if(subscribers[i] == 0){ // empty slot
 683              		.loc 6 359 0
 684 0010 7B68     		ldr	r3, [r7, #4]
 685 0012 FA68     		ldr	r2, [r7, #12]
 686 0014 7E32     		add	r2, r2, #126
 687 0016 9200     		lsl	r2, r2, #2
 688 0018 D358     		ldr	r3, [r2, r3]
 689 001a 002B     		cmp	r3, #0
 690 001c 0CD1     		bne	.L50
 360:./ros_lib/ros/node_handle.h ****             subscribers[i] = (Subscriber_*) &s;
 691              		.loc 6 360 0
 692 001e 3968     		ldr	r1, [r7]
 693 0020 7B68     		ldr	r3, [r7, #4]
 694 0022 FA68     		ldr	r2, [r7, #12]
 695 0024 7E32     		add	r2, r2, #126
 696 0026 9200     		lsl	r2, r2, #2
 697 0028 D150     		str	r1, [r2, r3]
 361:./ros_lib/ros/node_handle.h ****             s.id_ = i+100;
 698              		.loc 6 361 0
 699 002a FB68     		ldr	r3, [r7, #12]
 700 002c 6433     		add	r3, r3, #100
 701 002e 1A1C     		mov	r2, r3
 702 0030 3B68     		ldr	r3, [r7]
 703 0032 5A60     		str	r2, [r3, #4]
 362:./ros_lib/ros/node_handle.h ****             return true;
 704              		.loc 6 362 0
 705 0034 0123     		mov	r3, #1
 706 0036 06E0     		b	.L51
 707              	.L50:
 358:./ros_lib/ros/node_handle.h ****           if(subscribers[i] == 0){ // empty slot
 708              		.loc 6 358 0 discriminator 2
 709 0038 FB68     		ldr	r3, [r7, #12]
 710 003a 0133     		add	r3, r3, #1
 711 003c FB60     		str	r3, [r7, #12]
 712              	.L49:
 358:./ros_lib/ros/node_handle.h ****           if(subscribers[i] == 0){ // empty slot
 713              		.loc 6 358 0 is_stmt 0 discriminator 1
 714 003e FB68     		ldr	r3, [r7, #12]
 715 0040 092B     		cmp	r3, #9
 716 0042 E5DD     		ble	.L52
 717              	.LBE9:
 363:./ros_lib/ros/node_handle.h ****           }
 364:./ros_lib/ros/node_handle.h ****         }
 365:./ros_lib/ros/node_handle.h ****         return false;
 718              		.loc 6 365 0 is_stmt 1
 719 0044 0023     		mov	r3, #0
 720              	.L51:
 721              	.LBE8:
 366:./ros_lib/ros/node_handle.h ****       }
 722              		.loc 6 366 0
 723 0046 181C     		mov	r0, r3
 724 0048 BD46     		mov	sp, r7
ARM GAS  C:\Users\Chuck\AppData\Local\Temp\ccfyZq46.s 			page 25


 725 004a 04B0     		add	sp, sp, #16
 726              		@ sp needed
 727 004c 80BD     		pop	{r7, pc}
 728              		.cfi_endproc
 729              	.LFE174:
 730              		.size	_ZN3ros11NodeHandle_I13Psoc4HardwareLi10ELi20ELi200ELi200EE9subscribeIN8std_msgs5Int16EEEbRN
 731              		.weak	_ZTVN3ros10SubscriberIN8std_msgs5Int16EEE
 732 004e C046     		.section	.rodata._ZTVN3ros10SubscriberIN8std_msgs5Int16EEE,"aG",%progbits,_ZTVN3ros10SubscriberIN8
 733              		.align	3
 734              		.type	_ZTVN3ros10SubscriberIN8std_msgs5Int16EEE, %object
 735              		.size	_ZTVN3ros10SubscriberIN8std_msgs5Int16EEE, 24
 736              	_ZTVN3ros10SubscriberIN8std_msgs5Int16EEE:
 737 0000 00000000 		.word	0
 738 0004 00000000 		.word	0
 739 0008 00000000 		.word	_ZN3ros10SubscriberIN8std_msgs5Int16EE8callbackEPh
 740 000c 00000000 		.word	_ZN3ros10SubscriberIN8std_msgs5Int16EE15getEndpointTypeEv
 741 0010 00000000 		.word	_ZN3ros10SubscriberIN8std_msgs5Int16EE10getMsgTypeEv
 742 0014 00000000 		.word	_ZN3ros10SubscriberIN8std_msgs5Int16EE9getMsgMD5Ev
 743              		.weak	_ZTVN8std_msgs5Int16E
 744              		.section	.rodata._ZTVN8std_msgs5Int16E,"aG",%progbits,_ZTVN8std_msgs5Int16E,comdat
 745              		.align	3
 746              		.type	_ZTVN8std_msgs5Int16E, %object
 747              		.size	_ZTVN8std_msgs5Int16E, 24
 748              	_ZTVN8std_msgs5Int16E:
 749 0000 00000000 		.word	0
 750 0004 00000000 		.word	0
 751 0008 00000000 		.word	_ZNK8std_msgs5Int169serializeEPh
 752 000c 00000000 		.word	_ZN8std_msgs5Int1611deserializeEPh
 753 0010 00000000 		.word	_ZN8std_msgs5Int167getTypeEv
 754 0014 00000000 		.word	_ZN8std_msgs5Int166getMD5Ev
 755              		.weak	_ZTVN3ros11Subscriber_E
 756              		.section	.rodata._ZTVN3ros11Subscriber_E,"aG",%progbits,_ZTVN3ros11Subscriber_E,comdat
 757              		.align	3
 758              		.type	_ZTVN3ros11Subscriber_E, %object
 759              		.size	_ZTVN3ros11Subscriber_E, 24
 760              	_ZTVN3ros11Subscriber_E:
 761 0000 00000000 		.word	0
 762 0004 00000000 		.word	0
 763 0008 00000000 		.word	__cxa_pure_virtual
 764 000c 00000000 		.word	__cxa_pure_virtual
 765 0010 00000000 		.word	__cxa_pure_virtual
 766 0014 00000000 		.word	__cxa_pure_virtual
 767              		.weak	_ZTVN3ros3MsgE
 768              		.section	.rodata._ZTVN3ros3MsgE,"aG",%progbits,_ZTVN3ros3MsgE,comdat
 769              		.align	3
 770              		.type	_ZTVN3ros3MsgE, %object
 771              		.size	_ZTVN3ros3MsgE, 24
 772              	_ZTVN3ros3MsgE:
 773 0000 00000000 		.word	0
 774 0004 00000000 		.word	0
 775 0008 00000000 		.word	__cxa_pure_virtual
 776 000c 00000000 		.word	__cxa_pure_virtual
 777 0010 00000000 		.word	__cxa_pure_virtual
 778 0014 00000000 		.word	__cxa_pure_virtual
 779              		.section	.rodata
 780 0031 000000   		.align	2
 781              	.LC16:
ARM GAS  C:\Users\Chuck\AppData\Local\Temp\ccfyZq46.s 			page 26


 782 0034 73746570 		.ascii	"stepper_move\000"
 782      7065725F 
 782      6D6F7665 
 782      00
 783              		.section	.text._Z41__static_initialization_and_destruction_0ii,"ax",%progbits
 784              		.align	2
 785              		.code	16
 786              		.thumb_func
 787              		.type	_Z41__static_initialization_and_destruction_0ii, %function
 788              	_Z41__static_initialization_and_destruction_0ii:
 789              	.LFB175:
  52:.\ros_lib\examples\StepperControl/StepperControl.cpp **** 
  53:.\ros_lib\examples\StepperControl/StepperControl.cpp **** } // namespace StepperControl
 790              		.loc 4 53 0
 791              		.cfi_startproc
 792 0000 80B5     		push	{r7, lr}
 793              		.cfi_def_cfa_offset 8
 794              		.cfi_offset 7, -8
 795              		.cfi_offset 14, -4
 796 0002 82B0     		sub	sp, sp, #8
 797              		.cfi_def_cfa_offset 16
 798 0004 00AF     		add	r7, sp, #0
 799              		.cfi_def_cfa_register 7
 800 0006 7860     		str	r0, [r7, #4]
 801 0008 3960     		str	r1, [r7]
 802              		.loc 4 53 0
 803 000a 7B68     		ldr	r3, [r7, #4]
 804 000c 012B     		cmp	r3, #1
 805 000e 0CD1     		bne	.L53
 806              		.loc 4 53 0 is_stmt 0 discriminator 1
 807 0010 3B68     		ldr	r3, [r7]
 808 0012 074A     		ldr	r2, .L55
 809 0014 9342     		cmp	r3, r2
 810 0016 08D1     		bne	.L53
  30:.\ros_lib\examples\StepperControl/StepperControl.cpp **** 
 811              		.loc 4 30 0 is_stmt 1
 812 0018 0649     		ldr	r1, .L55+4
 813 001a 074A     		ldr	r2, .L55+8
 814 001c 074B     		ldr	r3, .L55+12
 815 001e 081C     		mov	r0, r1
 816 0020 111C     		mov	r1, r2
 817 0022 1A1C     		mov	r2, r3
 818 0024 0123     		mov	r3, #1
 819 0026 FFF7FEFF 		bl	_ZN3ros10SubscriberIN8std_msgs5Int16EEC1EPKcPFvRKS2_Ei
 820              	.L53:
 821              		.loc 4 53 0
 822 002a BD46     		mov	sp, r7
 823 002c 02B0     		add	sp, sp, #8
 824              		@ sp needed
 825 002e 80BD     		pop	{r7, pc}
 826              	.L56:
 827              		.align	2
 828              	.L55:
 829 0030 FFFF0000 		.word	65535
 830 0034 00000000 		.word	_ZN14StepperControl3subE
 831 0038 34000000 		.word	.LC16
 832 003c 00000000 		.word	_ZN14StepperControl9messageCbERKN8std_msgs5Int16E
ARM GAS  C:\Users\Chuck\AppData\Local\Temp\ccfyZq46.s 			page 27


 833              		.cfi_endproc
 834              	.LFE175:
 835              		.size	_Z41__static_initialization_and_destruction_0ii, .-_Z41__static_initialization_and_destructi
 836              		.section	.rodata
 837              		.type	_ZN14StepperControlL13msec_per_stepE, %object
 838              		.size	_ZN14StepperControlL13msec_per_stepE, 1
 839              	_ZN14StepperControlL13msec_per_stepE:
 840 0041 0A       		.byte	10
 841              		.type	_ZN14StepperControlL6PRESETE, %object
 842              		.size	_ZN14StepperControlL6PRESETE, 1
 843              	_ZN14StepperControlL6PRESETE:
 844 0042 04       		.byte	4
 845              		.type	_ZN14StepperControlL7STEP_UPE, %object
 846              		.size	_ZN14StepperControlL7STEP_UPE, 1
 847              	_ZN14StepperControlL7STEP_UPE:
 848 0043 06       		.byte	6
 849              		.type	_ZN14StepperControlL7STEP_DNE, %object
 850              		.size	_ZN14StepperControlL7STEP_DNE, 1
 851              	_ZN14StepperControlL7STEP_DNE:
 852 0044 07       		.byte	7
 853 0045 000000   		.align	2
 854              		.type	_ZN14rosserial_msgsL12REQUESTPARAME, %object
 855              		.size	_ZN14rosserial_msgsL12REQUESTPARAME, 28
 856              	_ZN14rosserial_msgsL12REQUESTPARAME:
 857 0048 726F7373 		.ascii	"rosserial_msgs/RequestParam\000"
 857      65726961 
 857      6C5F6D73 
 857      67732F52 
 857      65717565 
 858              		.section	.text._ZN3ros10SubscriberIN8std_msgs5Int16EE8callbackEPh,"axG",%progbits,_ZN3ros10Subscri
 859              		.align	2
 860              		.weak	_ZN3ros10SubscriberIN8std_msgs5Int16EE8callbackEPh
 861              		.code	16
 862              		.thumb_func
 863              		.type	_ZN3ros10SubscriberIN8std_msgs5Int16EE8callbackEPh, %function
 864              	_ZN3ros10SubscriberIN8std_msgs5Int16EE8callbackEPh:
 865              	.LFB176:
  71:./ros_lib/ros/subscriber.h ****       // callback with message pointer allows use of member-function callbacks
  72:./ros_lib/ros/subscriber.h ****       typedef void(*CallbackTPtr)(const MsgT*);
  73:./ros_lib/ros/subscriber.h ****       Subscriber(const char * topic_name, CallbackTPtr cbp, int endpoint=rosserial_msgs::TopicInfo:
  74:./ros_lib/ros/subscriber.h ****         cb_(NULL), cbp_(cbp),
  75:./ros_lib/ros/subscriber.h ****         endpoint_(endpoint)
  76:./ros_lib/ros/subscriber.h ****       {
  77:./ros_lib/ros/subscriber.h ****         topic_ = topic_name;
  78:./ros_lib/ros/subscriber.h ****       };
  79:./ros_lib/ros/subscriber.h ****       // uninitialized callback pointer
  80:./ros_lib/ros/subscriber.h ****       Subscriber(int endpoint=rosserial_msgs::TopicInfo::ID_SUBSCRIBER) :
  81:./ros_lib/ros/subscriber.h ****         cb_(NULL), cbp_(NULL),
  82:./ros_lib/ros/subscriber.h ****         endpoint_(endpoint)
  83:./ros_lib/ros/subscriber.h ****       {
  84:./ros_lib/ros/subscriber.h ****       };
  85:./ros_lib/ros/subscriber.h **** 
  86:./ros_lib/ros/subscriber.h ****       virtual void callback(unsigned char* data){
 866              		.loc 5 86 0
 867              		.cfi_startproc
 868 0000 80B5     		push	{r7, lr}
 869              		.cfi_def_cfa_offset 8
ARM GAS  C:\Users\Chuck\AppData\Local\Temp\ccfyZq46.s 			page 28


 870              		.cfi_offset 7, -8
 871              		.cfi_offset 14, -4
 872 0002 82B0     		sub	sp, sp, #8
 873              		.cfi_def_cfa_offset 16
 874 0004 00AF     		add	r7, sp, #0
 875              		.cfi_def_cfa_register 7
 876 0006 7860     		str	r0, [r7, #4]
 877 0008 3960     		str	r1, [r7]
  87:./ros_lib/ros/subscriber.h ****         msg.deserialize(data);
 878              		.loc 5 87 0
 879 000a 7B68     		ldr	r3, [r7, #4]
 880 000c 0C33     		add	r3, r3, #12
 881 000e 1A1C     		mov	r2, r3
 882 0010 3B68     		ldr	r3, [r7]
 883 0012 101C     		mov	r0, r2
 884 0014 191C     		mov	r1, r3
 885 0016 FFF7FEFF 		bl	_ZN8std_msgs5Int1611deserializeEPh
  88:./ros_lib/ros/subscriber.h ****         if (cb_) {
 886              		.loc 5 88 0
 887 001a 7B68     		ldr	r3, [r7, #4]
 888 001c 5B69     		ldr	r3, [r3, #20]
 889 001e 002B     		cmp	r3, #0
 890 0020 06D0     		beq	.L58
  89:./ros_lib/ros/subscriber.h ****           this->cb_(msg);
 891              		.loc 5 89 0
 892 0022 7B68     		ldr	r3, [r7, #4]
 893 0024 5B69     		ldr	r3, [r3, #20]
 894 0026 7A68     		ldr	r2, [r7, #4]
 895 0028 0C32     		add	r2, r2, #12
 896 002a 101C     		mov	r0, r2
 897 002c 9847     		blx	r3
 898 002e 09E0     		b	.L57
 899              	.L58:
  90:./ros_lib/ros/subscriber.h ****         } else if (cbp_) {
 900              		.loc 5 90 0
 901 0030 7B68     		ldr	r3, [r7, #4]
 902 0032 9B69     		ldr	r3, [r3, #24]
 903 0034 002B     		cmp	r3, #0
 904 0036 05D0     		beq	.L57
  91:./ros_lib/ros/subscriber.h ****           this->cbp_(&msg);
 905              		.loc 5 91 0
 906 0038 7B68     		ldr	r3, [r7, #4]
 907 003a 9B69     		ldr	r3, [r3, #24]
 908 003c 7A68     		ldr	r2, [r7, #4]
 909 003e 0C32     		add	r2, r2, #12
 910 0040 101C     		mov	r0, r2
 911 0042 9847     		blx	r3
 912              	.L57:
  92:./ros_lib/ros/subscriber.h ****         }
  93:./ros_lib/ros/subscriber.h ****       }
 913              		.loc 5 93 0
 914 0044 BD46     		mov	sp, r7
 915 0046 02B0     		add	sp, sp, #8
 916              		@ sp needed
 917 0048 80BD     		pop	{r7, pc}
 918              		.cfi_endproc
 919              	.LFE176:
ARM GAS  C:\Users\Chuck\AppData\Local\Temp\ccfyZq46.s 			page 29


 920              		.size	_ZN3ros10SubscriberIN8std_msgs5Int16EE8callbackEPh, .-_ZN3ros10SubscriberIN8std_msgs5Int16EE
 921 004a C046     		.section	.text._ZN3ros10SubscriberIN8std_msgs5Int16EE15getEndpointTypeEv,"axG",%progbits,_ZN3ros10
 922              		.align	2
 923              		.weak	_ZN3ros10SubscriberIN8std_msgs5Int16EE15getEndpointTypeEv
 924              		.code	16
 925              		.thumb_func
 926              		.type	_ZN3ros10SubscriberIN8std_msgs5Int16EE15getEndpointTypeEv, %function
 927              	_ZN3ros10SubscriberIN8std_msgs5Int16EE15getEndpointTypeEv:
 928              	.LFB177:
  94:./ros_lib/ros/subscriber.h **** 
  95:./ros_lib/ros/subscriber.h ****       virtual const char * getMsgType(){ return this->msg.getType(); }
  96:./ros_lib/ros/subscriber.h ****       virtual const char * getMsgMD5(){ return this->msg.getMD5(); }
  97:./ros_lib/ros/subscriber.h ****       virtual int getEndpointType(){ return endpoint_; }
 929              		.loc 5 97 0
 930              		.cfi_startproc
 931 0000 80B5     		push	{r7, lr}
 932              		.cfi_def_cfa_offset 8
 933              		.cfi_offset 7, -8
 934              		.cfi_offset 14, -4
 935 0002 82B0     		sub	sp, sp, #8
 936              		.cfi_def_cfa_offset 16
 937 0004 00AF     		add	r7, sp, #0
 938              		.cfi_def_cfa_register 7
 939 0006 7860     		str	r0, [r7, #4]
 940              		.loc 5 97 0
 941 0008 7B68     		ldr	r3, [r7, #4]
 942 000a DB69     		ldr	r3, [r3, #28]
 943 000c 181C     		mov	r0, r3
 944 000e BD46     		mov	sp, r7
 945 0010 02B0     		add	sp, sp, #8
 946              		@ sp needed
 947 0012 80BD     		pop	{r7, pc}
 948              		.cfi_endproc
 949              	.LFE177:
 950              		.size	_ZN3ros10SubscriberIN8std_msgs5Int16EE15getEndpointTypeEv, .-_ZN3ros10SubscriberIN8std_msgs5
 951              		.section	.text._ZN3ros10SubscriberIN8std_msgs5Int16EE10getMsgTypeEv,"axG",%progbits,_ZN3ros10Subsc
 952              		.align	2
 953              		.weak	_ZN3ros10SubscriberIN8std_msgs5Int16EE10getMsgTypeEv
 954              		.code	16
 955              		.thumb_func
 956              		.type	_ZN3ros10SubscriberIN8std_msgs5Int16EE10getMsgTypeEv, %function
 957              	_ZN3ros10SubscriberIN8std_msgs5Int16EE10getMsgTypeEv:
 958              	.LFB178:
  95:./ros_lib/ros/subscriber.h ****       virtual const char * getMsgMD5(){ return this->msg.getMD5(); }
 959              		.loc 5 95 0
 960              		.cfi_startproc
 961 0000 80B5     		push	{r7, lr}
 962              		.cfi_def_cfa_offset 8
 963              		.cfi_offset 7, -8
 964              		.cfi_offset 14, -4
 965 0002 82B0     		sub	sp, sp, #8
 966              		.cfi_def_cfa_offset 16
 967 0004 00AF     		add	r7, sp, #0
 968              		.cfi_def_cfa_register 7
 969 0006 7860     		str	r0, [r7, #4]
  95:./ros_lib/ros/subscriber.h ****       virtual const char * getMsgMD5(){ return this->msg.getMD5(); }
 970              		.loc 5 95 0
ARM GAS  C:\Users\Chuck\AppData\Local\Temp\ccfyZq46.s 			page 30


 971 0008 7B68     		ldr	r3, [r7, #4]
 972 000a 0C33     		add	r3, r3, #12
 973 000c 181C     		mov	r0, r3
 974 000e FFF7FEFF 		bl	_ZN8std_msgs5Int167getTypeEv
 975 0012 031C     		mov	r3, r0
 976 0014 181C     		mov	r0, r3
 977 0016 BD46     		mov	sp, r7
 978 0018 02B0     		add	sp, sp, #8
 979              		@ sp needed
 980 001a 80BD     		pop	{r7, pc}
 981              		.cfi_endproc
 982              	.LFE178:
 983              		.size	_ZN3ros10SubscriberIN8std_msgs5Int16EE10getMsgTypeEv, .-_ZN3ros10SubscriberIN8std_msgs5Int16
 984              		.section	.text._ZN3ros10SubscriberIN8std_msgs5Int16EE9getMsgMD5Ev,"axG",%progbits,_ZN3ros10Subscri
 985              		.align	2
 986              		.weak	_ZN3ros10SubscriberIN8std_msgs5Int16EE9getMsgMD5Ev
 987              		.code	16
 988              		.thumb_func
 989              		.type	_ZN3ros10SubscriberIN8std_msgs5Int16EE9getMsgMD5Ev, %function
 990              	_ZN3ros10SubscriberIN8std_msgs5Int16EE9getMsgMD5Ev:
 991              	.LFB179:
  96:./ros_lib/ros/subscriber.h ****       virtual int getEndpointType(){ return endpoint_; }
 992              		.loc 5 96 0
 993              		.cfi_startproc
 994 0000 80B5     		push	{r7, lr}
 995              		.cfi_def_cfa_offset 8
 996              		.cfi_offset 7, -8
 997              		.cfi_offset 14, -4
 998 0002 82B0     		sub	sp, sp, #8
 999              		.cfi_def_cfa_offset 16
 1000 0004 00AF     		add	r7, sp, #0
 1001              		.cfi_def_cfa_register 7
 1002 0006 7860     		str	r0, [r7, #4]
  96:./ros_lib/ros/subscriber.h ****       virtual int getEndpointType(){ return endpoint_; }
 1003              		.loc 5 96 0
 1004 0008 7B68     		ldr	r3, [r7, #4]
 1005 000a 0C33     		add	r3, r3, #12
 1006 000c 181C     		mov	r0, r3
 1007 000e FFF7FEFF 		bl	_ZN8std_msgs5Int166getMD5Ev
 1008 0012 031C     		mov	r3, r0
 1009 0014 181C     		mov	r0, r3
 1010 0016 BD46     		mov	sp, r7
 1011 0018 02B0     		add	sp, sp, #8
 1012              		@ sp needed
 1013 001a 80BD     		pop	{r7, pc}
 1014              		.cfi_endproc
 1015              	.LFE179:
 1016              		.size	_ZN3ros10SubscriberIN8std_msgs5Int16EE9getMsgMD5Ev, .-_ZN3ros10SubscriberIN8std_msgs5Int16EE
 1017              		.section	.text._GLOBAL__sub_I__ZN14StepperControl15steps_remainingE,"ax",%progbits
 1018              		.align	2
 1019              		.code	16
 1020              		.thumb_func
 1021              		.type	_GLOBAL__sub_I__ZN14StepperControl15steps_remainingE, %function
 1022              	_GLOBAL__sub_I__ZN14StepperControl15steps_remainingE:
 1023              	.LFB180:
 1024              		.loc 4 53 0
 1025              		.cfi_startproc
ARM GAS  C:\Users\Chuck\AppData\Local\Temp\ccfyZq46.s 			page 31


 1026 0000 80B5     		push	{r7, lr}
 1027              		.cfi_def_cfa_offset 8
 1028              		.cfi_offset 7, -8
 1029              		.cfi_offset 14, -4
 1030 0002 00AF     		add	r7, sp, #0
 1031              		.cfi_def_cfa_register 7
 1032              		.loc 4 53 0
 1033 0004 034B     		ldr	r3, .L67
 1034 0006 0120     		mov	r0, #1
 1035 0008 191C     		mov	r1, r3
 1036 000a FFF7FEFF 		bl	_Z41__static_initialization_and_destruction_0ii
 1037 000e BD46     		mov	sp, r7
 1038              		@ sp needed
 1039 0010 80BD     		pop	{r7, pc}
 1040              	.L68:
 1041 0012 C046     		.align	2
 1042              	.L67:
 1043 0014 FFFF0000 		.word	65535
 1044              		.cfi_endproc
 1045              	.LFE180:
 1046              		.size	_GLOBAL__sub_I__ZN14StepperControl15steps_remainingE, .-_GLOBAL__sub_I__ZN14StepperControl15
 1047              		.section	.init_array,"aw",%init_array
 1048              		.align	2
 1049 0000 00000000 		.word	_GLOBAL__sub_I__ZN14StepperControl15steps_remainingE(target1)
 1050              		.text
 1051              	.Letext0:
 1052              		.file 7 "c:\\program files (x86)\\cypress\\psoc creator\\3.3\\psoc creator\\import\\gnu\\arm\\4.9.
 1053              		.file 8 "c:\\program files (x86)\\cypress\\psoc creator\\3.3\\psoc creator\\import\\gnu\\arm\\4.9.
 1054              		.file 9 "./ros_lib/ros.h"
 1055              		.file 10 "./ros_lib/rosserial_msgs/TopicInfo.h"
 1056              		.file 11 "./ros_lib/Psoc4Hardware.h"
 1057              		.file 12 "./ros_lib/std_msgs/Time.h"
 1058              		.file 13 ".\\ros_lib\\examples\\StepperControl\\StepperControl.h"
 1059              		.file 14 "./ros_lib/rosserial_msgs/RequestParam.h"
 1060              		.file 15 "./ros_lib/Uarts.h"