ARM GAS  C:\Users\Chuck\AppData\Local\Temp\cchqOelm.s 			page 1


   1              		.cpu cortex-m0
   2              		.fpu softvfp
   3              		.eabi_attribute 20, 1
   4              		.eabi_attribute 21, 1
   5              		.eabi_attribute 23, 3
   6              		.eabi_attribute 24, 1
   7              		.eabi_attribute 25, 1
   8              		.eabi_attribute 26, 1
   9              		.eabi_attribute 30, 6
  10              		.eabi_attribute 34, 0
  11              		.eabi_attribute 18, 4
  12              		.code	16
  13              		.file	"UpDown_PM.c"
  14              		.text
  15              	.Ltext0:
  16              		.cfi_sections	.debug_frame
  17              		.bss
  18              		.align	2
  19              	UpDown_backup:
  20 0000 00000000 		.space	12
  20      00000000 
  20      00000000 
  21              		.section	.text.UpDown_SaveConfig,"ax",%progbits
  22              		.align	2
  23              		.global	UpDown_SaveConfig
  24              		.code	16
  25              		.thumb_func
  26              		.type	UpDown_SaveConfig, %function
  27              	UpDown_SaveConfig:
  28              	.LFB0:
  29              		.file 1 ".\\Generated_Source\\PSoC4\\UpDown_PM.c"
   1:.\Generated_Source\PSoC4/UpDown_PM.c **** /*******************************************************************************
   2:.\Generated_Source\PSoC4/UpDown_PM.c **** * File Name: UpDown_PM.c  
   3:.\Generated_Source\PSoC4/UpDown_PM.c **** * Version 2.40
   4:.\Generated_Source\PSoC4/UpDown_PM.c **** *
   5:.\Generated_Source\PSoC4/UpDown_PM.c **** *  Description:
   6:.\Generated_Source\PSoC4/UpDown_PM.c **** *    This file provides the power management source code to API for the
   7:.\Generated_Source\PSoC4/UpDown_PM.c **** *    Counter.  
   8:.\Generated_Source\PSoC4/UpDown_PM.c **** *
   9:.\Generated_Source\PSoC4/UpDown_PM.c **** *   Note:
  10:.\Generated_Source\PSoC4/UpDown_PM.c **** *     None
  11:.\Generated_Source\PSoC4/UpDown_PM.c **** *
  12:.\Generated_Source\PSoC4/UpDown_PM.c **** *******************************************************************************
  13:.\Generated_Source\PSoC4/UpDown_PM.c **** * Copyright 2008-2012, Cypress Semiconductor Corporation.  All rights reserved.
  14:.\Generated_Source\PSoC4/UpDown_PM.c **** * You may use this file only in accordance with the license, terms, conditions, 
  15:.\Generated_Source\PSoC4/UpDown_PM.c **** * disclaimers, and limitations in the end user license agreement accompanying 
  16:.\Generated_Source\PSoC4/UpDown_PM.c **** * the software package with which this file was provided.
  17:.\Generated_Source\PSoC4/UpDown_PM.c **** ********************************************************************************/
  18:.\Generated_Source\PSoC4/UpDown_PM.c **** 
  19:.\Generated_Source\PSoC4/UpDown_PM.c **** #include "UpDown.h"
  20:.\Generated_Source\PSoC4/UpDown_PM.c **** 
  21:.\Generated_Source\PSoC4/UpDown_PM.c **** static UpDown_backupStruct UpDown_backup;
  22:.\Generated_Source\PSoC4/UpDown_PM.c **** 
  23:.\Generated_Source\PSoC4/UpDown_PM.c **** 
  24:.\Generated_Source\PSoC4/UpDown_PM.c **** /*******************************************************************************
  25:.\Generated_Source\PSoC4/UpDown_PM.c **** * Function Name: UpDown_SaveConfig
  26:.\Generated_Source\PSoC4/UpDown_PM.c **** ********************************************************************************
ARM GAS  C:\Users\Chuck\AppData\Local\Temp\cchqOelm.s 			page 2


  27:.\Generated_Source\PSoC4/UpDown_PM.c **** * Summary:
  28:.\Generated_Source\PSoC4/UpDown_PM.c **** *     Save the current user configuration
  29:.\Generated_Source\PSoC4/UpDown_PM.c **** *
  30:.\Generated_Source\PSoC4/UpDown_PM.c **** * Parameters:  
  31:.\Generated_Source\PSoC4/UpDown_PM.c **** *  void
  32:.\Generated_Source\PSoC4/UpDown_PM.c **** *
  33:.\Generated_Source\PSoC4/UpDown_PM.c **** * Return: 
  34:.\Generated_Source\PSoC4/UpDown_PM.c **** *  void
  35:.\Generated_Source\PSoC4/UpDown_PM.c **** *
  36:.\Generated_Source\PSoC4/UpDown_PM.c **** * Global variables:
  37:.\Generated_Source\PSoC4/UpDown_PM.c **** *  UpDown_backup:  Variables of this global structure are modified to 
  38:.\Generated_Source\PSoC4/UpDown_PM.c **** *  store the values of non retention configuration registers when Sleep() API is 
  39:.\Generated_Source\PSoC4/UpDown_PM.c **** *  called.
  40:.\Generated_Source\PSoC4/UpDown_PM.c **** *
  41:.\Generated_Source\PSoC4/UpDown_PM.c **** *******************************************************************************/
  42:.\Generated_Source\PSoC4/UpDown_PM.c **** void UpDown_SaveConfig(void) 
  43:.\Generated_Source\PSoC4/UpDown_PM.c **** {
  30              		.loc 1 43 0
  31              		.cfi_startproc
  32 0000 80B5     		push	{r7, lr}
  33              		.cfi_def_cfa_offset 8
  34              		.cfi_offset 7, -8
  35              		.cfi_offset 14, -4
  36 0002 00AF     		add	r7, sp, #0
  37              		.cfi_def_cfa_register 7
  44:.\Generated_Source\PSoC4/UpDown_PM.c ****     #if (!UpDown_UsingFixedFunction)
  45:.\Generated_Source\PSoC4/UpDown_PM.c **** 
  46:.\Generated_Source\PSoC4/UpDown_PM.c ****         UpDown_backup.CounterUdb = UpDown_ReadCounter();
  38              		.loc 1 46 0
  39 0004 FFF7FEFF 		bl	UpDown_ReadCounter
  40 0008 021C     		mov	r2, r0
  41 000a 054B     		ldr	r3, .L2
  42 000c 5A60     		str	r2, [r3, #4]
  47:.\Generated_Source\PSoC4/UpDown_PM.c **** 
  48:.\Generated_Source\PSoC4/UpDown_PM.c ****         #if (CY_UDB_V0)
  49:.\Generated_Source\PSoC4/UpDown_PM.c ****             UpDown_backup.CounterPeriod = UpDown_ReadPeriod();
  50:.\Generated_Source\PSoC4/UpDown_PM.c ****             UpDown_backup.CompareValue = UpDown_ReadCompare();
  51:.\Generated_Source\PSoC4/UpDown_PM.c ****             UpDown_backup.InterruptMaskValue = UpDown_STATUS_MASK;
  52:.\Generated_Source\PSoC4/UpDown_PM.c ****         #endif /* CY_UDB_V0 */
  53:.\Generated_Source\PSoC4/UpDown_PM.c **** 
  54:.\Generated_Source\PSoC4/UpDown_PM.c ****         #if(!UpDown_ControlRegRemoved)
  55:.\Generated_Source\PSoC4/UpDown_PM.c ****             UpDown_backup.CounterControlRegister = UpDown_ReadControlRegister();
  43              		.loc 1 55 0
  44 000e FFF7FEFF 		bl	UpDown_ReadControlRegister
  45 0012 031C     		mov	r3, r0
  46 0014 1A1C     		mov	r2, r3
  47 0016 024B     		ldr	r3, .L2
  48 0018 1A72     		strb	r2, [r3, #8]
  56:.\Generated_Source\PSoC4/UpDown_PM.c ****         #endif /* (!UpDown_ControlRegRemoved) */
  57:.\Generated_Source\PSoC4/UpDown_PM.c **** 
  58:.\Generated_Source\PSoC4/UpDown_PM.c ****     #endif /* (!UpDown_UsingFixedFunction) */
  59:.\Generated_Source\PSoC4/UpDown_PM.c **** }
  49              		.loc 1 59 0
  50 001a BD46     		mov	sp, r7
  51              		@ sp needed
  52 001c 80BD     		pop	{r7, pc}
  53              	.L3:
ARM GAS  C:\Users\Chuck\AppData\Local\Temp\cchqOelm.s 			page 3


  54 001e C046     		.align	2
  55              	.L2:
  56 0020 00000000 		.word	UpDown_backup
  57              		.cfi_endproc
  58              	.LFE0:
  59              		.size	UpDown_SaveConfig, .-UpDown_SaveConfig
  60              		.section	.text.UpDown_RestoreConfig,"ax",%progbits
  61              		.align	2
  62              		.global	UpDown_RestoreConfig
  63              		.code	16
  64              		.thumb_func
  65              		.type	UpDown_RestoreConfig, %function
  66              	UpDown_RestoreConfig:
  67              	.LFB1:
  60:.\Generated_Source\PSoC4/UpDown_PM.c **** 
  61:.\Generated_Source\PSoC4/UpDown_PM.c **** 
  62:.\Generated_Source\PSoC4/UpDown_PM.c **** /*******************************************************************************
  63:.\Generated_Source\PSoC4/UpDown_PM.c **** * Function Name: UpDown_RestoreConfig
  64:.\Generated_Source\PSoC4/UpDown_PM.c **** ********************************************************************************
  65:.\Generated_Source\PSoC4/UpDown_PM.c **** *
  66:.\Generated_Source\PSoC4/UpDown_PM.c **** * Summary:
  67:.\Generated_Source\PSoC4/UpDown_PM.c **** *  Restores the current user configuration.
  68:.\Generated_Source\PSoC4/UpDown_PM.c **** *
  69:.\Generated_Source\PSoC4/UpDown_PM.c **** * Parameters:  
  70:.\Generated_Source\PSoC4/UpDown_PM.c **** *  void
  71:.\Generated_Source\PSoC4/UpDown_PM.c **** *
  72:.\Generated_Source\PSoC4/UpDown_PM.c **** * Return: 
  73:.\Generated_Source\PSoC4/UpDown_PM.c **** *  void
  74:.\Generated_Source\PSoC4/UpDown_PM.c **** *
  75:.\Generated_Source\PSoC4/UpDown_PM.c **** * Global variables:
  76:.\Generated_Source\PSoC4/UpDown_PM.c **** *  UpDown_backup:  Variables of this global structure are used to 
  77:.\Generated_Source\PSoC4/UpDown_PM.c **** *  restore the values of non retention registers on wakeup from sleep mode.
  78:.\Generated_Source\PSoC4/UpDown_PM.c **** *
  79:.\Generated_Source\PSoC4/UpDown_PM.c **** *******************************************************************************/
  80:.\Generated_Source\PSoC4/UpDown_PM.c **** void UpDown_RestoreConfig(void) 
  81:.\Generated_Source\PSoC4/UpDown_PM.c **** {      
  68              		.loc 1 81 0
  69              		.cfi_startproc
  70 0000 80B5     		push	{r7, lr}
  71              		.cfi_def_cfa_offset 8
  72              		.cfi_offset 7, -8
  73              		.cfi_offset 14, -4
  74 0002 00AF     		add	r7, sp, #0
  75              		.cfi_def_cfa_register 7
  82:.\Generated_Source\PSoC4/UpDown_PM.c ****     #if (!UpDown_UsingFixedFunction)
  83:.\Generated_Source\PSoC4/UpDown_PM.c **** 
  84:.\Generated_Source\PSoC4/UpDown_PM.c ****         #if (CY_UDB_V0)
  85:.\Generated_Source\PSoC4/UpDown_PM.c ****             uint8 UpDown_interruptState;
  86:.\Generated_Source\PSoC4/UpDown_PM.c ****         #endif  /* (CY_UDB_V0) */
  87:.\Generated_Source\PSoC4/UpDown_PM.c **** 
  88:.\Generated_Source\PSoC4/UpDown_PM.c ****        UpDown_WriteCounter(UpDown_backup.CounterUdb);
  76              		.loc 1 88 0
  77 0004 054B     		ldr	r3, .L5
  78 0006 5B68     		ldr	r3, [r3, #4]
  79 0008 181C     		mov	r0, r3
  80 000a FFF7FEFF 		bl	UpDown_WriteCounter
  89:.\Generated_Source\PSoC4/UpDown_PM.c **** 
ARM GAS  C:\Users\Chuck\AppData\Local\Temp\cchqOelm.s 			page 4


  90:.\Generated_Source\PSoC4/UpDown_PM.c ****         #if (CY_UDB_V0)
  91:.\Generated_Source\PSoC4/UpDown_PM.c ****             UpDown_WritePeriod(UpDown_backup.CounterPeriod);
  92:.\Generated_Source\PSoC4/UpDown_PM.c ****             UpDown_WriteCompare(UpDown_backup.CompareValue);
  93:.\Generated_Source\PSoC4/UpDown_PM.c **** 
  94:.\Generated_Source\PSoC4/UpDown_PM.c ****             UpDown_interruptState = CyEnterCriticalSection();
  95:.\Generated_Source\PSoC4/UpDown_PM.c ****             UpDown_STATUS_AUX_CTRL |= UpDown_STATUS_ACTL_INT_EN_MASK;
  96:.\Generated_Source\PSoC4/UpDown_PM.c ****             CyExitCriticalSection(UpDown_interruptState);
  97:.\Generated_Source\PSoC4/UpDown_PM.c **** 
  98:.\Generated_Source\PSoC4/UpDown_PM.c ****             UpDown_STATUS_MASK = UpDown_backup.InterruptMaskValue;
  99:.\Generated_Source\PSoC4/UpDown_PM.c ****         #endif  /* (CY_UDB_V0) */
 100:.\Generated_Source\PSoC4/UpDown_PM.c **** 
 101:.\Generated_Source\PSoC4/UpDown_PM.c ****         #if(!UpDown_ControlRegRemoved)
 102:.\Generated_Source\PSoC4/UpDown_PM.c ****             UpDown_WriteControlRegister(UpDown_backup.CounterControlRegister);
  81              		.loc 1 102 0
  82 000e 034B     		ldr	r3, .L5
  83 0010 1B7A     		ldrb	r3, [r3, #8]
  84 0012 181C     		mov	r0, r3
  85 0014 FFF7FEFF 		bl	UpDown_WriteControlRegister
 103:.\Generated_Source\PSoC4/UpDown_PM.c ****         #endif /* (!UpDown_ControlRegRemoved) */
 104:.\Generated_Source\PSoC4/UpDown_PM.c **** 
 105:.\Generated_Source\PSoC4/UpDown_PM.c ****     #endif /* (!UpDown_UsingFixedFunction) */
 106:.\Generated_Source\PSoC4/UpDown_PM.c **** }
  86              		.loc 1 106 0
  87 0018 BD46     		mov	sp, r7
  88              		@ sp needed
  89 001a 80BD     		pop	{r7, pc}
  90              	.L6:
  91              		.align	2
  92              	.L5:
  93 001c 00000000 		.word	UpDown_backup
  94              		.cfi_endproc
  95              	.LFE1:
  96              		.size	UpDown_RestoreConfig, .-UpDown_RestoreConfig
  97              		.section	.text.UpDown_Sleep,"ax",%progbits
  98              		.align	2
  99              		.global	UpDown_Sleep
 100              		.code	16
 101              		.thumb_func
 102              		.type	UpDown_Sleep, %function
 103              	UpDown_Sleep:
 104              	.LFB2:
 107:.\Generated_Source\PSoC4/UpDown_PM.c **** 
 108:.\Generated_Source\PSoC4/UpDown_PM.c **** 
 109:.\Generated_Source\PSoC4/UpDown_PM.c **** /*******************************************************************************
 110:.\Generated_Source\PSoC4/UpDown_PM.c **** * Function Name: UpDown_Sleep
 111:.\Generated_Source\PSoC4/UpDown_PM.c **** ********************************************************************************
 112:.\Generated_Source\PSoC4/UpDown_PM.c **** * Summary:
 113:.\Generated_Source\PSoC4/UpDown_PM.c **** *     Stop and Save the user configuration
 114:.\Generated_Source\PSoC4/UpDown_PM.c **** *
 115:.\Generated_Source\PSoC4/UpDown_PM.c **** * Parameters:  
 116:.\Generated_Source\PSoC4/UpDown_PM.c **** *  void
 117:.\Generated_Source\PSoC4/UpDown_PM.c **** *
 118:.\Generated_Source\PSoC4/UpDown_PM.c **** * Return: 
 119:.\Generated_Source\PSoC4/UpDown_PM.c **** *  void
 120:.\Generated_Source\PSoC4/UpDown_PM.c **** *
 121:.\Generated_Source\PSoC4/UpDown_PM.c **** * Global variables:
 122:.\Generated_Source\PSoC4/UpDown_PM.c **** *  UpDown_backup.enableState:  Is modified depending on the enable 
ARM GAS  C:\Users\Chuck\AppData\Local\Temp\cchqOelm.s 			page 5


 123:.\Generated_Source\PSoC4/UpDown_PM.c **** *  state of the block before entering sleep mode.
 124:.\Generated_Source\PSoC4/UpDown_PM.c **** *
 125:.\Generated_Source\PSoC4/UpDown_PM.c **** *******************************************************************************/
 126:.\Generated_Source\PSoC4/UpDown_PM.c **** void UpDown_Sleep(void) 
 127:.\Generated_Source\PSoC4/UpDown_PM.c **** {
 105              		.loc 1 127 0
 106              		.cfi_startproc
 107 0000 80B5     		push	{r7, lr}
 108              		.cfi_def_cfa_offset 8
 109              		.cfi_offset 7, -8
 110              		.cfi_offset 14, -4
 111 0002 00AF     		add	r7, sp, #0
 112              		.cfi_def_cfa_register 7
 128:.\Generated_Source\PSoC4/UpDown_PM.c ****     #if(!UpDown_ControlRegRemoved)
 129:.\Generated_Source\PSoC4/UpDown_PM.c ****         /* Save Counter's enable state */
 130:.\Generated_Source\PSoC4/UpDown_PM.c ****         if(UpDown_CTRL_ENABLE == (UpDown_CONTROL & UpDown_CTRL_ENABLE))
 113              		.loc 1 130 0
 114 0004 094B     		ldr	r3, .L10
 115 0006 1B78     		ldrb	r3, [r3]
 116 0008 DBB2     		uxtb	r3, r3
 117 000a DBB2     		uxtb	r3, r3
 118 000c 5BB2     		sxtb	r3, r3
 119 000e 002B     		cmp	r3, #0
 120 0010 03DA     		bge	.L8
 131:.\Generated_Source\PSoC4/UpDown_PM.c ****         {
 132:.\Generated_Source\PSoC4/UpDown_PM.c ****             /* Counter is enabled */
 133:.\Generated_Source\PSoC4/UpDown_PM.c ****             UpDown_backup.CounterEnableState = 1u;
 121              		.loc 1 133 0
 122 0012 074B     		ldr	r3, .L10+4
 123 0014 0122     		mov	r2, #1
 124 0016 1A70     		strb	r2, [r3]
 125 0018 02E0     		b	.L9
 126              	.L8:
 134:.\Generated_Source\PSoC4/UpDown_PM.c ****         }
 135:.\Generated_Source\PSoC4/UpDown_PM.c ****         else
 136:.\Generated_Source\PSoC4/UpDown_PM.c ****         {
 137:.\Generated_Source\PSoC4/UpDown_PM.c ****             /* Counter is disabled */
 138:.\Generated_Source\PSoC4/UpDown_PM.c ****             UpDown_backup.CounterEnableState = 0u;
 127              		.loc 1 138 0
 128 001a 054B     		ldr	r3, .L10+4
 129 001c 0022     		mov	r2, #0
 130 001e 1A70     		strb	r2, [r3]
 131              	.L9:
 139:.\Generated_Source\PSoC4/UpDown_PM.c ****         }
 140:.\Generated_Source\PSoC4/UpDown_PM.c ****     #else
 141:.\Generated_Source\PSoC4/UpDown_PM.c ****         UpDown_backup.CounterEnableState = 1u;
 142:.\Generated_Source\PSoC4/UpDown_PM.c ****         if(UpDown_backup.CounterEnableState != 0u)
 143:.\Generated_Source\PSoC4/UpDown_PM.c ****         {
 144:.\Generated_Source\PSoC4/UpDown_PM.c ****             UpDown_backup.CounterEnableState = 0u;
 145:.\Generated_Source\PSoC4/UpDown_PM.c ****         }
 146:.\Generated_Source\PSoC4/UpDown_PM.c ****     #endif /* (!UpDown_ControlRegRemoved) */
 147:.\Generated_Source\PSoC4/UpDown_PM.c ****     
 148:.\Generated_Source\PSoC4/UpDown_PM.c ****     UpDown_Stop();
 132              		.loc 1 148 0
 133 0020 FFF7FEFF 		bl	UpDown_Stop
 149:.\Generated_Source\PSoC4/UpDown_PM.c ****     UpDown_SaveConfig();
 134              		.loc 1 149 0
ARM GAS  C:\Users\Chuck\AppData\Local\Temp\cchqOelm.s 			page 6


 135 0024 FFF7FEFF 		bl	UpDown_SaveConfig
 150:.\Generated_Source\PSoC4/UpDown_PM.c **** }
 136              		.loc 1 150 0
 137 0028 BD46     		mov	sp, r7
 138              		@ sp needed
 139 002a 80BD     		pop	{r7, pc}
 140              	.L11:
 141              		.align	2
 142              	.L10:
 143 002c 71000F40 		.word	1074724977
 144 0030 00000000 		.word	UpDown_backup
 145              		.cfi_endproc
 146              	.LFE2:
 147              		.size	UpDown_Sleep, .-UpDown_Sleep
 148              		.section	.text.UpDown_Wakeup,"ax",%progbits
 149              		.align	2
 150              		.global	UpDown_Wakeup
 151              		.code	16
 152              		.thumb_func
 153              		.type	UpDown_Wakeup, %function
 154              	UpDown_Wakeup:
 155              	.LFB3:
 151:.\Generated_Source\PSoC4/UpDown_PM.c **** 
 152:.\Generated_Source\PSoC4/UpDown_PM.c **** 
 153:.\Generated_Source\PSoC4/UpDown_PM.c **** /*******************************************************************************
 154:.\Generated_Source\PSoC4/UpDown_PM.c **** * Function Name: UpDown_Wakeup
 155:.\Generated_Source\PSoC4/UpDown_PM.c **** ********************************************************************************
 156:.\Generated_Source\PSoC4/UpDown_PM.c **** *
 157:.\Generated_Source\PSoC4/UpDown_PM.c **** * Summary:
 158:.\Generated_Source\PSoC4/UpDown_PM.c **** *  Restores and enables the user configuration
 159:.\Generated_Source\PSoC4/UpDown_PM.c **** *  
 160:.\Generated_Source\PSoC4/UpDown_PM.c **** * Parameters:  
 161:.\Generated_Source\PSoC4/UpDown_PM.c **** *  void
 162:.\Generated_Source\PSoC4/UpDown_PM.c **** *
 163:.\Generated_Source\PSoC4/UpDown_PM.c **** * Return: 
 164:.\Generated_Source\PSoC4/UpDown_PM.c **** *  void
 165:.\Generated_Source\PSoC4/UpDown_PM.c **** *
 166:.\Generated_Source\PSoC4/UpDown_PM.c **** * Global variables:
 167:.\Generated_Source\PSoC4/UpDown_PM.c **** *  UpDown_backup.enableState:  Is used to restore the enable state of 
 168:.\Generated_Source\PSoC4/UpDown_PM.c **** *  block on wakeup from sleep mode.
 169:.\Generated_Source\PSoC4/UpDown_PM.c **** *
 170:.\Generated_Source\PSoC4/UpDown_PM.c **** *******************************************************************************/
 171:.\Generated_Source\PSoC4/UpDown_PM.c **** void UpDown_Wakeup(void) 
 172:.\Generated_Source\PSoC4/UpDown_PM.c **** {
 156              		.loc 1 172 0
 157              		.cfi_startproc
 158 0000 80B5     		push	{r7, lr}
 159              		.cfi_def_cfa_offset 8
 160              		.cfi_offset 7, -8
 161              		.cfi_offset 14, -4
 162 0002 00AF     		add	r7, sp, #0
 163              		.cfi_def_cfa_register 7
 173:.\Generated_Source\PSoC4/UpDown_PM.c ****     UpDown_RestoreConfig();
 164              		.loc 1 173 0
 165 0004 FFF7FEFF 		bl	UpDown_RestoreConfig
 174:.\Generated_Source\PSoC4/UpDown_PM.c ****     #if(!UpDown_ControlRegRemoved)
 175:.\Generated_Source\PSoC4/UpDown_PM.c ****         if(UpDown_backup.CounterEnableState == 1u)
ARM GAS  C:\Users\Chuck\AppData\Local\Temp\cchqOelm.s 			page 7


 166              		.loc 1 175 0
 167 0008 034B     		ldr	r3, .L14
 168 000a 1B78     		ldrb	r3, [r3]
 169 000c 012B     		cmp	r3, #1
 170 000e 01D1     		bne	.L12
 176:.\Generated_Source\PSoC4/UpDown_PM.c ****         {
 177:.\Generated_Source\PSoC4/UpDown_PM.c ****             /* Enable Counter's operation */
 178:.\Generated_Source\PSoC4/UpDown_PM.c ****             UpDown_Enable();
 171              		.loc 1 178 0
 172 0010 FFF7FEFF 		bl	UpDown_Enable
 173              	.L12:
 179:.\Generated_Source\PSoC4/UpDown_PM.c ****         } /* Do nothing if Counter was disabled before */    
 180:.\Generated_Source\PSoC4/UpDown_PM.c ****     #endif /* (!UpDown_ControlRegRemoved) */
 181:.\Generated_Source\PSoC4/UpDown_PM.c ****     
 182:.\Generated_Source\PSoC4/UpDown_PM.c **** }
 174              		.loc 1 182 0
 175 0014 BD46     		mov	sp, r7
 176              		@ sp needed
 177 0016 80BD     		pop	{r7, pc}
 178              	.L15:
 179              		.align	2
 180              	.L14:
 181 0018 00000000 		.word	UpDown_backup
 182              		.cfi_endproc
 183              	.LFE3:
 184              		.size	UpDown_Wakeup, .-UpDown_Wakeup
 185              		.text
 186              	.Letext0:
 187              		.file 2 ".\\Generated_Source\\PSoC4\\cytypes.h"
 188              		.file 3 ".\\Generated_Source\\PSoC4\\UpDown.h"