ARM GAS  C:\DOCUME~1\Chuck\LOCALS~1\Temp\ccE33R2l.s 			page 1


   1              		.cpu cortex-m0
   2              		.fpu softvfp
   3              		.eabi_attribute 20, 1
   4              		.eabi_attribute 21, 1
   5              		.eabi_attribute 23, 3
   6              		.eabi_attribute 24, 1
   7              		.eabi_attribute 25, 1
   8              		.eabi_attribute 26, 1
   9              		.eabi_attribute 30, 6
  10              		.eabi_attribute 34, 0
  11              		.eabi_attribute 18, 4
  12              		.code	16
  13              		.file	"ADC.cpp"
  14              		.text
  15              	.Ltext0:
  16              		.cfi_sections	.debug_frame
  17              		.section	.text._ZN3ros9PublisherC2EPKcPNS_3MsgEi,"axG",%progbits,_ZN3ros9PublisherC5EPKcPNS_3MsgEi
  18              		.align	2
  19              		.weak	_ZN3ros9PublisherC2EPKcPNS_3MsgEi
  20              		.code	16
  21              		.thumb_func
  22              		.type	_ZN3ros9PublisherC2EPKcPNS_3MsgEi, %function
  23              	_ZN3ros9PublisherC2EPKcPNS_3MsgEi:
  24              	.LFB38:
  25              		.file 1 "./ros_lib/ros/publisher.h"
   1:./ros_lib/ros/publisher.h **** /* 
   2:./ros_lib/ros/publisher.h ****  * Software License Agreement (BSD License)
   3:./ros_lib/ros/publisher.h ****  *
   4:./ros_lib/ros/publisher.h ****  * Copyright (c) 2011, Willow Garage, Inc.
   5:./ros_lib/ros/publisher.h ****  * All rights reserved.
   6:./ros_lib/ros/publisher.h ****  *
   7:./ros_lib/ros/publisher.h ****  * Redistribution and use in source and binary forms, with or without
   8:./ros_lib/ros/publisher.h ****  * modification, are permitted provided that the following conditions
   9:./ros_lib/ros/publisher.h ****  * are met:
  10:./ros_lib/ros/publisher.h ****  *
  11:./ros_lib/ros/publisher.h ****  *  * Redistributions of source code must retain the above copyright
  12:./ros_lib/ros/publisher.h ****  *    notice, this list of conditions and the following disclaimer.
  13:./ros_lib/ros/publisher.h ****  *  * Redistributions in binary form must reproduce the above
  14:./ros_lib/ros/publisher.h ****  *    copyright notice, this list of conditions and the following
  15:./ros_lib/ros/publisher.h ****  *    disclaimer in the documentation and/or other materials provided
  16:./ros_lib/ros/publisher.h ****  *    with the distribution.
  17:./ros_lib/ros/publisher.h ****  *  * Neither the name of Willow Garage, Inc. nor the names of its
  18:./ros_lib/ros/publisher.h ****  *    contributors may be used to endorse or promote prducts derived
  19:./ros_lib/ros/publisher.h ****  *    from this software without specific prior written permission.
  20:./ros_lib/ros/publisher.h ****  *
  21:./ros_lib/ros/publisher.h ****  * THIS SOFTWARE IS PROVIDED BY THE COPYRIGHT HOLDERS AND CONTRIBUTORS
  22:./ros_lib/ros/publisher.h ****  * "AS IS" AND ANY EXPRESS OR IMPLIED WARRANTIES, INCLUDING, BUT NOT
  23:./ros_lib/ros/publisher.h ****  * LIMITED TO, THE IMPLIED WARRANTIES OF MERCHANTABILITY AND FITNESS
  24:./ros_lib/ros/publisher.h ****  * FOR A PARTICULAR PURPOSE ARE DISCLAIMED. IN NO EVENT SHALL THE
  25:./ros_lib/ros/publisher.h ****  * COPYRIGHT OWNER OR CONTRIBUTORS BE LIABLE FOR ANY DIRECT, INDIRECT,
  26:./ros_lib/ros/publisher.h ****  * INCIDENTAL, SPECIAL, EXEMPLARY, OR CONSEQUENTIAL DAMAGES (INCLUDING,
  27:./ros_lib/ros/publisher.h ****  * BUT NOT LIMITED TO, PROCUREMENT OF SUBSTITUTE GOODS OR SERVICES;
  28:./ros_lib/ros/publisher.h ****  * LOSS OF USE, DATA, OR PROFITS; OR BUSINESS INTERRUPTION) HOWEVER
  29:./ros_lib/ros/publisher.h ****  * CAUSED AND ON ANY THEORY OF LIABILITY, WHETHER IN CONTRACT, STRICT
  30:./ros_lib/ros/publisher.h ****  * LIABILITY, OR TORT (INCLUDING NEGLIGENCE OR OTHERWISE) ARISING IN
  31:./ros_lib/ros/publisher.h ****  * ANY WAY OUT OF THE USE OF THIS SOFTWARE, EVEN IF ADVISED OF THE
  32:./ros_lib/ros/publisher.h ****  * POSSIBILITY OF SUCH DAMAGE.
ARM GAS  C:\DOCUME~1\Chuck\LOCALS~1\Temp\ccE33R2l.s 			page 2


  33:./ros_lib/ros/publisher.h ****  */
  34:./ros_lib/ros/publisher.h **** 
  35:./ros_lib/ros/publisher.h **** #ifndef _ROS_PUBLISHER_H_
  36:./ros_lib/ros/publisher.h **** #define _ROS_PUBLISHER_H_
  37:./ros_lib/ros/publisher.h **** 
  38:./ros_lib/ros/publisher.h **** #include "rosserial_msgs/TopicInfo.h"
  39:./ros_lib/ros/publisher.h **** #include "node_handle.h"
  40:./ros_lib/ros/publisher.h **** 
  41:./ros_lib/ros/publisher.h **** namespace ros {
  42:./ros_lib/ros/publisher.h **** 
  43:./ros_lib/ros/publisher.h ****   /* Generic Publisher */
  44:./ros_lib/ros/publisher.h ****   class Publisher
  45:./ros_lib/ros/publisher.h ****   {
  46:./ros_lib/ros/publisher.h ****     public:
  47:./ros_lib/ros/publisher.h ****       Publisher( const char * topic_name, Msg * msg, int endpoint=rosserial_msgs::TopicInfo::ID_PUB
  26              		.loc 1 47 0
  27              		.cfi_startproc
  28 0000 80B5     		push	{r7, lr}
  29              	.LCFI0:
  30              		.cfi_def_cfa_offset 8
  31              		.cfi_offset 7, -8
  32              		.cfi_offset 14, -4
  33 0002 84B0     		sub	sp, sp, #16
  34              	.LCFI1:
  35              		.cfi_def_cfa_offset 24
  36 0004 00AF     		add	r7, sp, #0
  37              	.LCFI2:
  38              		.cfi_def_cfa_register 7
  39 0006 F860     		str	r0, [r7, #12]
  40 0008 B960     		str	r1, [r7, #8]
  41 000a 7A60     		str	r2, [r7, #4]
  42 000c 3B60     		str	r3, [r7]
  43              	.LBB2:
  48:./ros_lib/ros/publisher.h ****         topic_(topic_name), 
  49:./ros_lib/ros/publisher.h ****         msg_(msg),
  50:./ros_lib/ros/publisher.h ****         endpoint_(endpoint) {};
  44              		.loc 1 50 0
  45 000e FB68     		ldr	r3, [r7, #12]
  46 0010 BA68     		ldr	r2, [r7, #8]
  47 0012 1A60     		str	r2, [r3]
  48 0014 FB68     		ldr	r3, [r7, #12]
  49 0016 7A68     		ldr	r2, [r7, #4]
  50 0018 5A60     		str	r2, [r3, #4]
  51 001a FB68     		ldr	r3, [r7, #12]
  52 001c 3A68     		ldr	r2, [r7]
  53 001e 1A61     		str	r2, [r3, #16]
  54              	.LBE2:
  55 0020 FB68     		ldr	r3, [r7, #12]
  56 0022 181C     		mov	r0, r3
  57 0024 BD46     		mov	sp, r7
  58 0026 04B0     		add	sp, sp, #16
  59              		@ sp needed for prologue
  60 0028 80BD     		pop	{r7, pc}
  61              		.cfi_endproc
  62              	.LFE38:
  63              		.size	_ZN3ros9PublisherC2EPKcPNS_3MsgEi, .-_ZN3ros9PublisherC2EPKcPNS_3MsgEi
  64              		.weak	_ZN3ros9PublisherC1EPKcPNS_3MsgEi
ARM GAS  C:\DOCUME~1\Chuck\LOCALS~1\Temp\ccE33R2l.s 			page 3


  65              		.thumb_set _ZN3ros9PublisherC1EPKcPNS_3MsgEi,_ZN3ros9PublisherC2EPKcPNS_3MsgEi
  66 002a C046     		.section	.text._ZN3ros9Publisher7publishEPKNS_3MsgE,"axG",%progbits,_ZN3ros9Publisher7publishEPKNS
  67              		.align	2
  68              		.weak	_ZN3ros9Publisher7publishEPKNS_3MsgE
  69              		.code	16
  70              		.thumb_func
  71              		.type	_ZN3ros9Publisher7publishEPKNS_3MsgE, %function
  72              	_ZN3ros9Publisher7publishEPKNS_3MsgE:
  73              	.LFB40:
  51:./ros_lib/ros/publisher.h ****       // rosserial standard signature
  52:./ros_lib/ros/publisher.h ****       int publish( const Msg * msg ) { return nh_->publish(id_, msg); };
  74              		.loc 1 52 0
  75              		.cfi_startproc
  76 0000 90B5     		push	{r4, r7, lr}
  77              	.LCFI3:
  78              		.cfi_def_cfa_offset 12
  79              		.cfi_offset 4, -12
  80              		.cfi_offset 7, -8
  81              		.cfi_offset 14, -4
  82 0002 83B0     		sub	sp, sp, #12
  83              	.LCFI4:
  84              		.cfi_def_cfa_offset 24
  85 0004 00AF     		add	r7, sp, #0
  86              	.LCFI5:
  87              		.cfi_def_cfa_register 7
  88 0006 7860     		str	r0, [r7, #4]
  89 0008 3960     		str	r1, [r7]
  90              		.loc 1 52 0
  91 000a 7B68     		ldr	r3, [r7, #4]
  92 000c DB68     		ldr	r3, [r3, #12]
  93 000e 1B68     		ldr	r3, [r3]
  94 0010 1C68     		ldr	r4, [r3]
  95 0012 7B68     		ldr	r3, [r7, #4]
  96 0014 D968     		ldr	r1, [r3, #12]
  97 0016 7B68     		ldr	r3, [r7, #4]
  98 0018 9A68     		ldr	r2, [r3, #8]
  99 001a 3B68     		ldr	r3, [r7]
 100 001c 081C     		mov	r0, r1
 101 001e 111C     		mov	r1, r2
 102 0020 1A1C     		mov	r2, r3
 103 0022 A047     		blx	r4
 104 0024 031C     		mov	r3, r0
 105 0026 181C     		mov	r0, r3
 106 0028 BD46     		mov	sp, r7
 107 002a 03B0     		add	sp, sp, #12
 108              		@ sp needed for prologue
 109 002c 90BD     		pop	{r4, r7, pc}
 110              		.cfi_endproc
 111              	.LFE40:
 112              		.size	_ZN3ros9Publisher7publishEPKNS_3MsgE, .-_ZN3ros9Publisher7publishEPKNS_3MsgE
 113 002e C046     		.section	.text._ZN8SysTimer6millisEv,"axG",%progbits,_ZN8SysTimer6millisEv,comdat
 114              		.align	2
 115              		.weak	_ZN8SysTimer6millisEv
 116              		.code	16
 117              		.thumb_func
 118              		.type	_ZN8SysTimer6millisEv, %function
 119              	_ZN8SysTimer6millisEv:
ARM GAS  C:\DOCUME~1\Chuck\LOCALS~1\Temp\ccE33R2l.s 			page 4


 120              	.LFB89:
 121              		.file 2 "./ros_lib/SysTimer.h"
   1:./ros_lib/SysTimer.h **** /* ========================================
   2:./ros_lib/SysTimer.h ****  *
   3:./ros_lib/SysTimer.h ****  * The following firmware was developed by Chuck Harrison
   4:./ros_lib/SysTimer.h ****  * This work is licensed under a Creative Commons Attribution 3.0 Unported License.
   5:./ros_lib/SysTimer.h ****  * 
   6:./ros_lib/SysTimer.h ****  * http://creativecommons.org/licenses/by/3.0/deed.en_US
   7:./ros_lib/SysTimer.h ****  * 
   8:./ros_lib/SysTimer.h ****  * You are free to:
   9:./ros_lib/SysTimer.h ****  * -To Share — to copy, distribute and transmit the work 
  10:./ros_lib/SysTimer.h ****  * -To Remix — to adapt the work 
  11:./ros_lib/SysTimer.h ****  * -To make commercial use of the work
  12:./ros_lib/SysTimer.h ****  *
  13:./ros_lib/SysTimer.h ****  * ========================================
  14:./ros_lib/SysTimer.h ****  */
  15:./ros_lib/SysTimer.h **** 
  16:./ros_lib/SysTimer.h **** #ifndef ROS_SYSTIMER_H_
  17:./ros_lib/SysTimer.h **** #define ROS_SYSTIMER_H_
  18:./ros_lib/SysTimer.h **** 
  19:./ros_lib/SysTimer.h **** typedef void (* cyisraddress)(void); // should we #include the whole cytypes.h?
  20:./ros_lib/SysTimer.h **** #define CY_ISR(FuncName)        void FuncName (void)
  21:./ros_lib/SysTimer.h **** 
  22:./ros_lib/SysTimer.h **** extern "C" {
  23:./ros_lib/SysTimer.h **** cyisraddress CyIntSetSysVector(uint8_t number, cyisraddress address);
  24:./ros_lib/SysTimer.h **** }
  25:./ros_lib/SysTimer.h **** 
  26:./ros_lib/SysTimer.h **** CY_ISR(SysTick_ISR); //forward declaration for SysTimer::init()
  27:./ros_lib/SysTimer.h **** 
  28:./ros_lib/SysTimer.h **** #define SYSTICK_INTERRUPT_VECTOR_NUMBER 15u /* Cortex-M0 hard vector */
  29:./ros_lib/SysTimer.h **** 
  30:./ros_lib/SysTimer.h **** /* clock and interrupt rates, in Hz */
  31:./ros_lib/SysTimer.h **** #define CLOCK_FREQ     24000000u
  32:./ros_lib/SysTimer.h **** #define INTERRUPT_FREQ 1000u
  33:./ros_lib/SysTimer.h **** 
  34:./ros_lib/SysTimer.h **** 
  35:./ros_lib/SysTimer.h **** class SysTimer
  36:./ros_lib/SysTimer.h **** {
  37:./ros_lib/SysTimer.h ****   public:
  38:./ros_lib/SysTimer.h ****     static void init() {
  39:./ros_lib/SysTimer.h ****       CyIntSetSysVector(SYSTICK_INTERRUPT_VECTOR_NUMBER, SysTick_ISR);
  40:./ros_lib/SysTimer.h ****       // must eventually do this:
  41:./ros_lib/SysTimer.h ****       //  SysTick_Config(CLOCK_FREQ / INTERRUPT_FREQ); /* defined in auto-generated core_cm0.h */
  42:./ros_lib/SysTimer.h ****       //  CyGlobalIntEnable;
  43:./ros_lib/SysTimer.h ****       millis_ = 0;
  44:./ros_lib/SysTimer.h ****     };
  45:./ros_lib/SysTimer.h ****     static uint32_t millis() { return millis_; };
 122              		.loc 2 45 0
 123              		.cfi_startproc
 124 0000 80B5     		push	{r7, lr}
 125              	.LCFI6:
 126              		.cfi_def_cfa_offset 8
 127              		.cfi_offset 7, -8
 128              		.cfi_offset 14, -4
 129 0002 00AF     		add	r7, sp, #0
 130              	.LCFI7:
 131              		.cfi_def_cfa_register 7
ARM GAS  C:\DOCUME~1\Chuck\LOCALS~1\Temp\ccE33R2l.s 			page 5


 132              		.loc 2 45 0
 133 0004 024B     		ldr	r3, .L8
 134 0006 1B68     		ldr	r3, [r3]
 135 0008 181C     		mov	r0, r3
 136 000a BD46     		mov	sp, r7
 137              		@ sp needed for prologue
 138 000c 80BD     		pop	{r7, pc}
 139              	.L9:
 140 000e C046     		.align	2
 141              	.L8:
 142 0010 00000000 		.word	_ZN8SysTimer7millis_E
 143              		.cfi_endproc
 144              	.LFE89:
 145              		.size	_ZN8SysTimer6millisEv, .-_ZN8SysTimer6millisEv
 146              		.section	.text._ZNK15rosserial_psoc43Adc9serializeEPh,"axG",%progbits,_ZNK15rosserial_psoc43Adc9se
 147              		.align	2
 148              		.weak	_ZNK15rosserial_psoc43Adc9serializeEPh
 149              		.code	16
 150              		.thumb_func
 151              		.type	_ZNK15rosserial_psoc43Adc9serializeEPh, %function
 152              	_ZNK15rosserial_psoc43Adc9serializeEPh:
 153              	.LFB105:
 154              		.file 3 "./ros_lib/rosserial_psoc4/Adc.h"
   1:./ros_lib/rosserial_psoc4/Adc.h **** #ifndef _ROS_rosserial_psoc4_Adc_h
   2:./ros_lib/rosserial_psoc4/Adc.h **** #define _ROS_rosserial_psoc4_Adc_h
   3:./ros_lib/rosserial_psoc4/Adc.h **** 
   4:./ros_lib/rosserial_psoc4/Adc.h **** #include <stdint.h>
   5:./ros_lib/rosserial_psoc4/Adc.h **** #include <string.h>
   6:./ros_lib/rosserial_psoc4/Adc.h **** #include <stdlib.h>
   7:./ros_lib/rosserial_psoc4/Adc.h **** #include "ros/msg.h"
   8:./ros_lib/rosserial_psoc4/Adc.h **** 
   9:./ros_lib/rosserial_psoc4/Adc.h **** namespace rosserial_psoc4
  10:./ros_lib/rosserial_psoc4/Adc.h **** {
  11:./ros_lib/rosserial_psoc4/Adc.h **** 
  12:./ros_lib/rosserial_psoc4/Adc.h ****   class Adc : public ros::Msg
  13:./ros_lib/rosserial_psoc4/Adc.h ****   {
  14:./ros_lib/rosserial_psoc4/Adc.h ****     public:
  15:./ros_lib/rosserial_psoc4/Adc.h ****       uint16_t adc0;
  16:./ros_lib/rosserial_psoc4/Adc.h ****       uint16_t adc1;
  17:./ros_lib/rosserial_psoc4/Adc.h ****       uint16_t adc2;
  18:./ros_lib/rosserial_psoc4/Adc.h ****       uint16_t adc3;
  19:./ros_lib/rosserial_psoc4/Adc.h ****       uint16_t adc4;
  20:./ros_lib/rosserial_psoc4/Adc.h ****       uint16_t adc5;
  21:./ros_lib/rosserial_psoc4/Adc.h **** 
  22:./ros_lib/rosserial_psoc4/Adc.h ****     virtual int serialize(unsigned char *outbuffer) const
 155              		.loc 3 22 0
 156              		.cfi_startproc
 157 0000 80B5     		push	{r7, lr}
 158              	.LCFI8:
 159              		.cfi_def_cfa_offset 8
 160              		.cfi_offset 7, -8
 161              		.cfi_offset 14, -4
 162 0002 84B0     		sub	sp, sp, #16
 163              	.LCFI9:
 164              		.cfi_def_cfa_offset 24
 165 0004 00AF     		add	r7, sp, #0
 166              	.LCFI10:
ARM GAS  C:\DOCUME~1\Chuck\LOCALS~1\Temp\ccE33R2l.s 			page 6


 167              		.cfi_def_cfa_register 7
 168 0006 7860     		str	r0, [r7, #4]
 169 0008 3960     		str	r1, [r7]
 170              	.LBB3:
  23:./ros_lib/rosserial_psoc4/Adc.h ****     {
  24:./ros_lib/rosserial_psoc4/Adc.h ****       int offset = 0;
 171              		.loc 3 24 0
 172 000a 0023     		mov	r3, #0
 173 000c FB60     		str	r3, [r7, #12]
  25:./ros_lib/rosserial_psoc4/Adc.h **** #ifndef ROS_MSG_DONT_SERIALIZE
  26:./ros_lib/rosserial_psoc4/Adc.h ****       *(outbuffer + offset + 0) = (this->adc0 >> (8 * 0)) & 0xFF;
 174              		.loc 3 26 0
 175 000e FB68     		ldr	r3, [r7, #12]
 176 0010 3A68     		ldr	r2, [r7]
 177 0012 D318     		add	r3, r2, r3
 178 0014 7A68     		ldr	r2, [r7, #4]
 179 0016 9288     		ldrh	r2, [r2, #4]
 180 0018 D2B2     		uxtb	r2, r2
 181 001a 1A70     		strb	r2, [r3]
  27:./ros_lib/rosserial_psoc4/Adc.h ****       *(outbuffer + offset + 1) = (this->adc0 >> (8 * 1)) & 0xFF;
 182              		.loc 3 27 0
 183 001c FB68     		ldr	r3, [r7, #12]
 184 001e 0133     		add	r3, r3, #1
 185 0020 3A68     		ldr	r2, [r7]
 186 0022 D318     		add	r3, r2, r3
 187 0024 7A68     		ldr	r2, [r7, #4]
 188 0026 9288     		ldrh	r2, [r2, #4]
 189 0028 120A     		lsr	r2, r2, #8
 190 002a 92B2     		uxth	r2, r2
 191 002c D2B2     		uxtb	r2, r2
 192 002e 1A70     		strb	r2, [r3]
  28:./ros_lib/rosserial_psoc4/Adc.h ****       offset += sizeof(this->adc0);
 193              		.loc 3 28 0
 194 0030 FB68     		ldr	r3, [r7, #12]
 195 0032 0233     		add	r3, r3, #2
 196 0034 FB60     		str	r3, [r7, #12]
  29:./ros_lib/rosserial_psoc4/Adc.h ****       *(outbuffer + offset + 0) = (this->adc1 >> (8 * 0)) & 0xFF;
 197              		.loc 3 29 0
 198 0036 FB68     		ldr	r3, [r7, #12]
 199 0038 3A68     		ldr	r2, [r7]
 200 003a D318     		add	r3, r2, r3
 201 003c 7A68     		ldr	r2, [r7, #4]
 202 003e D288     		ldrh	r2, [r2, #6]
 203 0040 D2B2     		uxtb	r2, r2
 204 0042 1A70     		strb	r2, [r3]
  30:./ros_lib/rosserial_psoc4/Adc.h ****       *(outbuffer + offset + 1) = (this->adc1 >> (8 * 1)) & 0xFF;
 205              		.loc 3 30 0
 206 0044 FB68     		ldr	r3, [r7, #12]
 207 0046 0133     		add	r3, r3, #1
 208 0048 3A68     		ldr	r2, [r7]
 209 004a D318     		add	r3, r2, r3
 210 004c 7A68     		ldr	r2, [r7, #4]
 211 004e D288     		ldrh	r2, [r2, #6]
 212 0050 120A     		lsr	r2, r2, #8
 213 0052 92B2     		uxth	r2, r2
 214 0054 D2B2     		uxtb	r2, r2
 215 0056 1A70     		strb	r2, [r3]
ARM GAS  C:\DOCUME~1\Chuck\LOCALS~1\Temp\ccE33R2l.s 			page 7


  31:./ros_lib/rosserial_psoc4/Adc.h ****       offset += sizeof(this->adc1);
 216              		.loc 3 31 0
 217 0058 FB68     		ldr	r3, [r7, #12]
 218 005a 0233     		add	r3, r3, #2
 219 005c FB60     		str	r3, [r7, #12]
  32:./ros_lib/rosserial_psoc4/Adc.h ****       *(outbuffer + offset + 0) = (this->adc2 >> (8 * 0)) & 0xFF;
 220              		.loc 3 32 0
 221 005e FB68     		ldr	r3, [r7, #12]
 222 0060 3A68     		ldr	r2, [r7]
 223 0062 D318     		add	r3, r2, r3
 224 0064 7A68     		ldr	r2, [r7, #4]
 225 0066 1289     		ldrh	r2, [r2, #8]
 226 0068 D2B2     		uxtb	r2, r2
 227 006a 1A70     		strb	r2, [r3]
  33:./ros_lib/rosserial_psoc4/Adc.h ****       *(outbuffer + offset + 1) = (this->adc2 >> (8 * 1)) & 0xFF;
 228              		.loc 3 33 0
 229 006c FB68     		ldr	r3, [r7, #12]
 230 006e 0133     		add	r3, r3, #1
 231 0070 3A68     		ldr	r2, [r7]
 232 0072 D318     		add	r3, r2, r3
 233 0074 7A68     		ldr	r2, [r7, #4]
 234 0076 1289     		ldrh	r2, [r2, #8]
 235 0078 120A     		lsr	r2, r2, #8
 236 007a 92B2     		uxth	r2, r2
 237 007c D2B2     		uxtb	r2, r2
 238 007e 1A70     		strb	r2, [r3]
  34:./ros_lib/rosserial_psoc4/Adc.h ****       offset += sizeof(this->adc2);
 239              		.loc 3 34 0
 240 0080 FB68     		ldr	r3, [r7, #12]
 241 0082 0233     		add	r3, r3, #2
 242 0084 FB60     		str	r3, [r7, #12]
  35:./ros_lib/rosserial_psoc4/Adc.h ****       *(outbuffer + offset + 0) = (this->adc3 >> (8 * 0)) & 0xFF;
 243              		.loc 3 35 0
 244 0086 FB68     		ldr	r3, [r7, #12]
 245 0088 3A68     		ldr	r2, [r7]
 246 008a D318     		add	r3, r2, r3
 247 008c 7A68     		ldr	r2, [r7, #4]
 248 008e 5289     		ldrh	r2, [r2, #10]
 249 0090 D2B2     		uxtb	r2, r2
 250 0092 1A70     		strb	r2, [r3]
  36:./ros_lib/rosserial_psoc4/Adc.h ****       *(outbuffer + offset + 1) = (this->adc3 >> (8 * 1)) & 0xFF;
 251              		.loc 3 36 0
 252 0094 FB68     		ldr	r3, [r7, #12]
 253 0096 0133     		add	r3, r3, #1
 254 0098 3A68     		ldr	r2, [r7]
 255 009a D318     		add	r3, r2, r3
 256 009c 7A68     		ldr	r2, [r7, #4]
 257 009e 5289     		ldrh	r2, [r2, #10]
 258 00a0 120A     		lsr	r2, r2, #8
 259 00a2 92B2     		uxth	r2, r2
 260 00a4 D2B2     		uxtb	r2, r2
 261 00a6 1A70     		strb	r2, [r3]
  37:./ros_lib/rosserial_psoc4/Adc.h ****       offset += sizeof(this->adc3);
 262              		.loc 3 37 0
 263 00a8 FB68     		ldr	r3, [r7, #12]
 264 00aa 0233     		add	r3, r3, #2
 265 00ac FB60     		str	r3, [r7, #12]
ARM GAS  C:\DOCUME~1\Chuck\LOCALS~1\Temp\ccE33R2l.s 			page 8


  38:./ros_lib/rosserial_psoc4/Adc.h ****       *(outbuffer + offset + 0) = (this->adc4 >> (8 * 0)) & 0xFF;
 266              		.loc 3 38 0
 267 00ae FB68     		ldr	r3, [r7, #12]
 268 00b0 3A68     		ldr	r2, [r7]
 269 00b2 D318     		add	r3, r2, r3
 270 00b4 7A68     		ldr	r2, [r7, #4]
 271 00b6 9289     		ldrh	r2, [r2, #12]
 272 00b8 D2B2     		uxtb	r2, r2
 273 00ba 1A70     		strb	r2, [r3]
  39:./ros_lib/rosserial_psoc4/Adc.h ****       *(outbuffer + offset + 1) = (this->adc4 >> (8 * 1)) & 0xFF;
 274              		.loc 3 39 0
 275 00bc FB68     		ldr	r3, [r7, #12]
 276 00be 0133     		add	r3, r3, #1
 277 00c0 3A68     		ldr	r2, [r7]
 278 00c2 D318     		add	r3, r2, r3
 279 00c4 7A68     		ldr	r2, [r7, #4]
 280 00c6 9289     		ldrh	r2, [r2, #12]
 281 00c8 120A     		lsr	r2, r2, #8
 282 00ca 92B2     		uxth	r2, r2
 283 00cc D2B2     		uxtb	r2, r2
 284 00ce 1A70     		strb	r2, [r3]
  40:./ros_lib/rosserial_psoc4/Adc.h ****       offset += sizeof(this->adc4);
 285              		.loc 3 40 0
 286 00d0 FB68     		ldr	r3, [r7, #12]
 287 00d2 0233     		add	r3, r3, #2
 288 00d4 FB60     		str	r3, [r7, #12]
  41:./ros_lib/rosserial_psoc4/Adc.h ****       *(outbuffer + offset + 0) = (this->adc5 >> (8 * 0)) & 0xFF;
 289              		.loc 3 41 0
 290 00d6 FB68     		ldr	r3, [r7, #12]
 291 00d8 3A68     		ldr	r2, [r7]
 292 00da D318     		add	r3, r2, r3
 293 00dc 7A68     		ldr	r2, [r7, #4]
 294 00de D289     		ldrh	r2, [r2, #14]
 295 00e0 D2B2     		uxtb	r2, r2
 296 00e2 1A70     		strb	r2, [r3]
  42:./ros_lib/rosserial_psoc4/Adc.h ****       *(outbuffer + offset + 1) = (this->adc5 >> (8 * 1)) & 0xFF;
 297              		.loc 3 42 0
 298 00e4 FB68     		ldr	r3, [r7, #12]
 299 00e6 0133     		add	r3, r3, #1
 300 00e8 3A68     		ldr	r2, [r7]
 301 00ea D318     		add	r3, r2, r3
 302 00ec 7A68     		ldr	r2, [r7, #4]
 303 00ee D289     		ldrh	r2, [r2, #14]
 304 00f0 120A     		lsr	r2, r2, #8
 305 00f2 92B2     		uxth	r2, r2
 306 00f4 D2B2     		uxtb	r2, r2
 307 00f6 1A70     		strb	r2, [r3]
  43:./ros_lib/rosserial_psoc4/Adc.h ****       offset += sizeof(this->adc5);
 308              		.loc 3 43 0
 309 00f8 FB68     		ldr	r3, [r7, #12]
 310 00fa 0233     		add	r3, r3, #2
 311 00fc FB60     		str	r3, [r7, #12]
  44:./ros_lib/rosserial_psoc4/Adc.h **** #endif
  45:./ros_lib/rosserial_psoc4/Adc.h ****       return offset;
 312              		.loc 3 45 0
 313 00fe FB68     		ldr	r3, [r7, #12]
 314              	.LBE3:
ARM GAS  C:\DOCUME~1\Chuck\LOCALS~1\Temp\ccE33R2l.s 			page 9


  46:./ros_lib/rosserial_psoc4/Adc.h ****     }
 315              		.loc 3 46 0
 316 0100 181C     		mov	r0, r3
 317 0102 BD46     		mov	sp, r7
 318 0104 04B0     		add	sp, sp, #16
 319              		@ sp needed for prologue
 320 0106 80BD     		pop	{r7, pc}
 321              		.cfi_endproc
 322              	.LFE105:
 323              		.size	_ZNK15rosserial_psoc43Adc9serializeEPh, .-_ZNK15rosserial_psoc43Adc9serializeEPh
 324              		.section	.text._ZN15rosserial_psoc43Adc11deserializeEPh,"axG",%progbits,_ZN15rosserial_psoc43Adc11
 325              		.align	2
 326              		.weak	_ZN15rosserial_psoc43Adc11deserializeEPh
 327              		.code	16
 328              		.thumb_func
 329              		.type	_ZN15rosserial_psoc43Adc11deserializeEPh, %function
 330              	_ZN15rosserial_psoc43Adc11deserializeEPh:
 331              	.LFB106:
  47:./ros_lib/rosserial_psoc4/Adc.h **** 
  48:./ros_lib/rosserial_psoc4/Adc.h ****     virtual int deserialize(unsigned char *inbuffer)
 332              		.loc 3 48 0
 333              		.cfi_startproc
 334 0000 80B5     		push	{r7, lr}
 335              	.LCFI11:
 336              		.cfi_def_cfa_offset 8
 337              		.cfi_offset 7, -8
 338              		.cfi_offset 14, -4
 339 0002 84B0     		sub	sp, sp, #16
 340              	.LCFI12:
 341              		.cfi_def_cfa_offset 24
 342 0004 00AF     		add	r7, sp, #0
 343              	.LCFI13:
 344              		.cfi_def_cfa_register 7
 345 0006 7860     		str	r0, [r7, #4]
 346 0008 3960     		str	r1, [r7]
 347              	.LBB4:
  49:./ros_lib/rosserial_psoc4/Adc.h ****     {
  50:./ros_lib/rosserial_psoc4/Adc.h ****       int offset = 0;
 348              		.loc 3 50 0
 349 000a 0023     		mov	r3, #0
 350 000c FB60     		str	r3, [r7, #12]
  51:./ros_lib/rosserial_psoc4/Adc.h **** #ifndef ROS_MSG_DONT_DESERIALIZE
  52:./ros_lib/rosserial_psoc4/Adc.h ****       this->adc0 =  ((uint16_t) (*(inbuffer + offset)));
 351              		.loc 3 52 0
 352 000e FB68     		ldr	r3, [r7, #12]
 353 0010 3A68     		ldr	r2, [r7]
 354 0012 D318     		add	r3, r2, r3
 355 0014 1B78     		ldrb	r3, [r3]
 356 0016 1A1C     		mov	r2, r3
 357 0018 7B68     		ldr	r3, [r7, #4]
 358 001a 9A80     		strh	r2, [r3, #4]
  53:./ros_lib/rosserial_psoc4/Adc.h ****       this->adc0 |= ((uint16_t) (*(inbuffer + offset + 1))) << (8 * 1);
 359              		.loc 3 53 0
 360 001c 7B68     		ldr	r3, [r7, #4]
 361 001e 9B88     		ldrh	r3, [r3, #4]
 362 0020 9AB2     		uxth	r2, r3
 363 0022 FB68     		ldr	r3, [r7, #12]
ARM GAS  C:\DOCUME~1\Chuck\LOCALS~1\Temp\ccE33R2l.s 			page 10


 364 0024 0133     		add	r3, r3, #1
 365 0026 3968     		ldr	r1, [r7]
 366 0028 CB18     		add	r3, r1, r3
 367 002a 1B78     		ldrb	r3, [r3]
 368 002c 1B02     		lsl	r3, r3, #8
 369 002e 9BB2     		uxth	r3, r3
 370 0030 1343     		orr	r3, r2
 371 0032 9BB2     		uxth	r3, r3
 372 0034 9AB2     		uxth	r2, r3
 373 0036 7B68     		ldr	r3, [r7, #4]
 374 0038 9A80     		strh	r2, [r3, #4]
  54:./ros_lib/rosserial_psoc4/Adc.h ****       offset += sizeof(this->adc0);
 375              		.loc 3 54 0
 376 003a FB68     		ldr	r3, [r7, #12]
 377 003c 0233     		add	r3, r3, #2
 378 003e FB60     		str	r3, [r7, #12]
  55:./ros_lib/rosserial_psoc4/Adc.h ****       this->adc1 =  ((uint16_t) (*(inbuffer + offset)));
 379              		.loc 3 55 0
 380 0040 FB68     		ldr	r3, [r7, #12]
 381 0042 3A68     		ldr	r2, [r7]
 382 0044 D318     		add	r3, r2, r3
 383 0046 1B78     		ldrb	r3, [r3]
 384 0048 1A1C     		mov	r2, r3
 385 004a 7B68     		ldr	r3, [r7, #4]
 386 004c DA80     		strh	r2, [r3, #6]
  56:./ros_lib/rosserial_psoc4/Adc.h ****       this->adc1 |= ((uint16_t) (*(inbuffer + offset + 1))) << (8 * 1);
 387              		.loc 3 56 0
 388 004e 7B68     		ldr	r3, [r7, #4]
 389 0050 DB88     		ldrh	r3, [r3, #6]
 390 0052 9AB2     		uxth	r2, r3
 391 0054 FB68     		ldr	r3, [r7, #12]
 392 0056 0133     		add	r3, r3, #1
 393 0058 3968     		ldr	r1, [r7]
 394 005a CB18     		add	r3, r1, r3
 395 005c 1B78     		ldrb	r3, [r3]
 396 005e 1B02     		lsl	r3, r3, #8
 397 0060 9BB2     		uxth	r3, r3
 398 0062 1343     		orr	r3, r2
 399 0064 9BB2     		uxth	r3, r3
 400 0066 9AB2     		uxth	r2, r3
 401 0068 7B68     		ldr	r3, [r7, #4]
 402 006a DA80     		strh	r2, [r3, #6]
  57:./ros_lib/rosserial_psoc4/Adc.h ****       offset += sizeof(this->adc1);
 403              		.loc 3 57 0
 404 006c FB68     		ldr	r3, [r7, #12]
 405 006e 0233     		add	r3, r3, #2
 406 0070 FB60     		str	r3, [r7, #12]
  58:./ros_lib/rosserial_psoc4/Adc.h ****       this->adc2 =  ((uint16_t) (*(inbuffer + offset)));
 407              		.loc 3 58 0
 408 0072 FB68     		ldr	r3, [r7, #12]
 409 0074 3A68     		ldr	r2, [r7]
 410 0076 D318     		add	r3, r2, r3
 411 0078 1B78     		ldrb	r3, [r3]
 412 007a 1A1C     		mov	r2, r3
 413 007c 7B68     		ldr	r3, [r7, #4]
 414 007e 1A81     		strh	r2, [r3, #8]
  59:./ros_lib/rosserial_psoc4/Adc.h ****       this->adc2 |= ((uint16_t) (*(inbuffer + offset + 1))) << (8 * 1);
ARM GAS  C:\DOCUME~1\Chuck\LOCALS~1\Temp\ccE33R2l.s 			page 11


 415              		.loc 3 59 0
 416 0080 7B68     		ldr	r3, [r7, #4]
 417 0082 1B89     		ldrh	r3, [r3, #8]
 418 0084 9AB2     		uxth	r2, r3
 419 0086 FB68     		ldr	r3, [r7, #12]
 420 0088 0133     		add	r3, r3, #1
 421 008a 3968     		ldr	r1, [r7]
 422 008c CB18     		add	r3, r1, r3
 423 008e 1B78     		ldrb	r3, [r3]
 424 0090 1B02     		lsl	r3, r3, #8
 425 0092 9BB2     		uxth	r3, r3
 426 0094 1343     		orr	r3, r2
 427 0096 9BB2     		uxth	r3, r3
 428 0098 9AB2     		uxth	r2, r3
 429 009a 7B68     		ldr	r3, [r7, #4]
 430 009c 1A81     		strh	r2, [r3, #8]
  60:./ros_lib/rosserial_psoc4/Adc.h ****       offset += sizeof(this->adc2);
 431              		.loc 3 60 0
 432 009e FB68     		ldr	r3, [r7, #12]
 433 00a0 0233     		add	r3, r3, #2
 434 00a2 FB60     		str	r3, [r7, #12]
  61:./ros_lib/rosserial_psoc4/Adc.h ****       this->adc3 =  ((uint16_t) (*(inbuffer + offset)));
 435              		.loc 3 61 0
 436 00a4 FB68     		ldr	r3, [r7, #12]
 437 00a6 3A68     		ldr	r2, [r7]
 438 00a8 D318     		add	r3, r2, r3
 439 00aa 1B78     		ldrb	r3, [r3]
 440 00ac 1A1C     		mov	r2, r3
 441 00ae 7B68     		ldr	r3, [r7, #4]
 442 00b0 5A81     		strh	r2, [r3, #10]
  62:./ros_lib/rosserial_psoc4/Adc.h ****       this->adc3 |= ((uint16_t) (*(inbuffer + offset + 1))) << (8 * 1);
 443              		.loc 3 62 0
 444 00b2 7B68     		ldr	r3, [r7, #4]
 445 00b4 5B89     		ldrh	r3, [r3, #10]
 446 00b6 9AB2     		uxth	r2, r3
 447 00b8 FB68     		ldr	r3, [r7, #12]
 448 00ba 0133     		add	r3, r3, #1
 449 00bc 3968     		ldr	r1, [r7]
 450 00be CB18     		add	r3, r1, r3
 451 00c0 1B78     		ldrb	r3, [r3]
 452 00c2 1B02     		lsl	r3, r3, #8
 453 00c4 9BB2     		uxth	r3, r3
 454 00c6 1343     		orr	r3, r2
 455 00c8 9BB2     		uxth	r3, r3
 456 00ca 9AB2     		uxth	r2, r3
 457 00cc 7B68     		ldr	r3, [r7, #4]
 458 00ce 5A81     		strh	r2, [r3, #10]
  63:./ros_lib/rosserial_psoc4/Adc.h ****       offset += sizeof(this->adc3);
 459              		.loc 3 63 0
 460 00d0 FB68     		ldr	r3, [r7, #12]
 461 00d2 0233     		add	r3, r3, #2
 462 00d4 FB60     		str	r3, [r7, #12]
  64:./ros_lib/rosserial_psoc4/Adc.h ****       this->adc4 =  ((uint16_t) (*(inbuffer + offset)));
 463              		.loc 3 64 0
 464 00d6 FB68     		ldr	r3, [r7, #12]
 465 00d8 3A68     		ldr	r2, [r7]
 466 00da D318     		add	r3, r2, r3
ARM GAS  C:\DOCUME~1\Chuck\LOCALS~1\Temp\ccE33R2l.s 			page 12


 467 00dc 1B78     		ldrb	r3, [r3]
 468 00de 1A1C     		mov	r2, r3
 469 00e0 7B68     		ldr	r3, [r7, #4]
 470 00e2 9A81     		strh	r2, [r3, #12]
  65:./ros_lib/rosserial_psoc4/Adc.h ****       this->adc4 |= ((uint16_t) (*(inbuffer + offset + 1))) << (8 * 1);
 471              		.loc 3 65 0
 472 00e4 7B68     		ldr	r3, [r7, #4]
 473 00e6 9B89     		ldrh	r3, [r3, #12]
 474 00e8 9AB2     		uxth	r2, r3
 475 00ea FB68     		ldr	r3, [r7, #12]
 476 00ec 0133     		add	r3, r3, #1
 477 00ee 3968     		ldr	r1, [r7]
 478 00f0 CB18     		add	r3, r1, r3
 479 00f2 1B78     		ldrb	r3, [r3]
 480 00f4 1B02     		lsl	r3, r3, #8
 481 00f6 9BB2     		uxth	r3, r3
 482 00f8 1343     		orr	r3, r2
 483 00fa 9BB2     		uxth	r3, r3
 484 00fc 9AB2     		uxth	r2, r3
 485 00fe 7B68     		ldr	r3, [r7, #4]
 486 0100 9A81     		strh	r2, [r3, #12]
  66:./ros_lib/rosserial_psoc4/Adc.h ****       offset += sizeof(this->adc4);
 487              		.loc 3 66 0
 488 0102 FB68     		ldr	r3, [r7, #12]
 489 0104 0233     		add	r3, r3, #2
 490 0106 FB60     		str	r3, [r7, #12]
  67:./ros_lib/rosserial_psoc4/Adc.h ****       this->adc5 =  ((uint16_t) (*(inbuffer + offset)));
 491              		.loc 3 67 0
 492 0108 FB68     		ldr	r3, [r7, #12]
 493 010a 3A68     		ldr	r2, [r7]
 494 010c D318     		add	r3, r2, r3
 495 010e 1B78     		ldrb	r3, [r3]
 496 0110 1A1C     		mov	r2, r3
 497 0112 7B68     		ldr	r3, [r7, #4]
 498 0114 DA81     		strh	r2, [r3, #14]
  68:./ros_lib/rosserial_psoc4/Adc.h ****       this->adc5 |= ((uint16_t) (*(inbuffer + offset + 1))) << (8 * 1);
 499              		.loc 3 68 0
 500 0116 7B68     		ldr	r3, [r7, #4]
 501 0118 DB89     		ldrh	r3, [r3, #14]
 502 011a 9AB2     		uxth	r2, r3
 503 011c FB68     		ldr	r3, [r7, #12]
 504 011e 0133     		add	r3, r3, #1
 505 0120 3968     		ldr	r1, [r7]
 506 0122 CB18     		add	r3, r1, r3
 507 0124 1B78     		ldrb	r3, [r3]
 508 0126 1B02     		lsl	r3, r3, #8
 509 0128 9BB2     		uxth	r3, r3
 510 012a 1343     		orr	r3, r2
 511 012c 9BB2     		uxth	r3, r3
 512 012e 9AB2     		uxth	r2, r3
 513 0130 7B68     		ldr	r3, [r7, #4]
 514 0132 DA81     		strh	r2, [r3, #14]
  69:./ros_lib/rosserial_psoc4/Adc.h ****       offset += sizeof(this->adc5);
 515              		.loc 3 69 0
 516 0134 FB68     		ldr	r3, [r7, #12]
 517 0136 0233     		add	r3, r3, #2
 518 0138 FB60     		str	r3, [r7, #12]
ARM GAS  C:\DOCUME~1\Chuck\LOCALS~1\Temp\ccE33R2l.s 			page 13


  70:./ros_lib/rosserial_psoc4/Adc.h **** #endif
  71:./ros_lib/rosserial_psoc4/Adc.h ****      return offset;
 519              		.loc 3 71 0
 520 013a FB68     		ldr	r3, [r7, #12]
 521              	.LBE4:
  72:./ros_lib/rosserial_psoc4/Adc.h ****     }
 522              		.loc 3 72 0
 523 013c 181C     		mov	r0, r3
 524 013e BD46     		mov	sp, r7
 525 0140 04B0     		add	sp, sp, #16
 526              		@ sp needed for prologue
 527 0142 80BD     		pop	{r7, pc}
 528              		.cfi_endproc
 529              	.LFE106:
 530              		.size	_ZN15rosserial_psoc43Adc11deserializeEPh, .-_ZN15rosserial_psoc43Adc11deserializeEPh
 531              		.section	.rodata
 532              		.align	2
 533              	.LC1:
 534 0000 726F7373 		.ascii	"rosserial_psoc4/Adc\000"
 534      65726961 
 534      6C5F7073 
 534      6F63342F 
 534      41646300 
 535              		.section	.text._ZN15rosserial_psoc43Adc7getTypeEv,"axG",%progbits,_ZN15rosserial_psoc43Adc7getType
 536              		.align	2
 537              		.weak	_ZN15rosserial_psoc43Adc7getTypeEv
 538              		.code	16
 539              		.thumb_func
 540              		.type	_ZN15rosserial_psoc43Adc7getTypeEv, %function
 541              	_ZN15rosserial_psoc43Adc7getTypeEv:
 542              	.LFB107:
  73:./ros_lib/rosserial_psoc4/Adc.h **** 
  74:./ros_lib/rosserial_psoc4/Adc.h ****     const char * getType(){ return "rosserial_psoc4/Adc"; };
 543              		.loc 3 74 0
 544              		.cfi_startproc
 545 0000 80B5     		push	{r7, lr}
 546              	.LCFI14:
 547              		.cfi_def_cfa_offset 8
 548              		.cfi_offset 7, -8
 549              		.cfi_offset 14, -4
 550 0002 82B0     		sub	sp, sp, #8
 551              	.LCFI15:
 552              		.cfi_def_cfa_offset 16
 553 0004 00AF     		add	r7, sp, #0
 554              	.LCFI16:
 555              		.cfi_def_cfa_register 7
 556 0006 7860     		str	r0, [r7, #4]
 557              		.loc 3 74 0
 558 0008 024B     		ldr	r3, .L16
 559 000a 181C     		mov	r0, r3
 560 000c BD46     		mov	sp, r7
 561 000e 02B0     		add	sp, sp, #8
 562              		@ sp needed for prologue
 563 0010 80BD     		pop	{r7, pc}
 564              	.L17:
 565 0012 C046     		.align	2
 566              	.L16:
ARM GAS  C:\DOCUME~1\Chuck\LOCALS~1\Temp\ccE33R2l.s 			page 14


 567 0014 00000000 		.word	.LC1
 568              		.cfi_endproc
 569              	.LFE107:
 570              		.size	_ZN15rosserial_psoc43Adc7getTypeEv, .-_ZN15rosserial_psoc43Adc7getTypeEv
 571              		.section	.rodata
 572              		.align	2
 573              	.LC3:
 574 0014 36643738 		.ascii	"6d7853a614e2e821319068311f2af25b\000"
 574      35336136 
 574      31346532 
 574      65383231 
 574      33313930 
 575              		.section	.text._ZN15rosserial_psoc43Adc6getMD5Ev,"axG",%progbits,_ZN15rosserial_psoc43Adc6getMD5Ev
 576              		.align	2
 577              		.weak	_ZN15rosserial_psoc43Adc6getMD5Ev
 578              		.code	16
 579              		.thumb_func
 580              		.type	_ZN15rosserial_psoc43Adc6getMD5Ev, %function
 581              	_ZN15rosserial_psoc43Adc6getMD5Ev:
 582              	.LFB108:
  75:./ros_lib/rosserial_psoc4/Adc.h ****     const char * getMD5(){ return "6d7853a614e2e821319068311f2af25b"; };
 583              		.loc 3 75 0
 584              		.cfi_startproc
 585 0000 80B5     		push	{r7, lr}
 586              	.LCFI17:
 587              		.cfi_def_cfa_offset 8
 588              		.cfi_offset 7, -8
 589              		.cfi_offset 14, -4
 590 0002 82B0     		sub	sp, sp, #8
 591              	.LCFI18:
 592              		.cfi_def_cfa_offset 16
 593 0004 00AF     		add	r7, sp, #0
 594              	.LCFI19:
 595              		.cfi_def_cfa_register 7
 596 0006 7860     		str	r0, [r7, #4]
 597              		.loc 3 75 0
 598 0008 024B     		ldr	r3, .L20
 599 000a 181C     		mov	r0, r3
 600 000c BD46     		mov	sp, r7
 601 000e 02B0     		add	sp, sp, #8
 602              		@ sp needed for prologue
 603 0010 80BD     		pop	{r7, pc}
 604              	.L21:
 605 0012 C046     		.align	2
 606              	.L20:
 607 0014 14000000 		.word	.LC3
 608              		.cfi_endproc
 609              	.LFE108:
 610              		.size	_ZN15rosserial_psoc43Adc6getMD5Ev, .-_ZN15rosserial_psoc43Adc6getMD5Ev
 611              		.section	.text._ZN3ros3MsgC2Ev,"axG",%progbits,_ZN3ros3MsgC5Ev,comdat
 612              		.align	2
 613              		.weak	_ZN3ros3MsgC2Ev
 614              		.code	16
 615              		.thumb_func
 616              		.type	_ZN3ros3MsgC2Ev, %function
 617              	_ZN3ros3MsgC2Ev:
 618              	.LFB144:
ARM GAS  C:\DOCUME~1\Chuck\LOCALS~1\Temp\ccE33R2l.s 			page 15


 619              		.file 4 "./ros_lib/ros/msg.h"
   1:./ros_lib/ros/msg.h **** /* 
   2:./ros_lib/ros/msg.h ****  * Software License Agreement (BSD License)
   3:./ros_lib/ros/msg.h ****  *
   4:./ros_lib/ros/msg.h ****  * Copyright (c) 2011, Willow Garage, Inc.
   5:./ros_lib/ros/msg.h ****  * All rights reserved.
   6:./ros_lib/ros/msg.h ****  *
   7:./ros_lib/ros/msg.h ****  * Redistribution and use in source and binary forms, with or without
   8:./ros_lib/ros/msg.h ****  * modification, are permitted provided that the following conditions
   9:./ros_lib/ros/msg.h ****  * are met:
  10:./ros_lib/ros/msg.h ****  *
  11:./ros_lib/ros/msg.h ****  *  * Redistributions of source code must retain the above copyright
  12:./ros_lib/ros/msg.h ****  *    notice, this list of conditions and the following disclaimer.
  13:./ros_lib/ros/msg.h ****  *  * Redistributions in binary form must reproduce the above
  14:./ros_lib/ros/msg.h ****  *    copyright notice, this list of conditions and the following
  15:./ros_lib/ros/msg.h ****  *    disclaimer in the documentation and/or other materials provided
  16:./ros_lib/ros/msg.h ****  *    with the distribution.
  17:./ros_lib/ros/msg.h ****  *  * Neither the name of Willow Garage, Inc. nor the names of its
  18:./ros_lib/ros/msg.h ****  *    contributors may be used to endorse or promote prducts derived
  19:./ros_lib/ros/msg.h ****  *    from this software without specific prior written permission.
  20:./ros_lib/ros/msg.h ****  *
  21:./ros_lib/ros/msg.h ****  * THIS SOFTWARE IS PROVIDED BY THE COPYRIGHT HOLDERS AND CONTRIBUTORS
  22:./ros_lib/ros/msg.h ****  * "AS IS" AND ANY EXPRESS OR IMPLIED WARRANTIES, INCLUDING, BUT NOT
  23:./ros_lib/ros/msg.h ****  * LIMITED TO, THE IMPLIED WARRANTIES OF MERCHANTABILITY AND FITNESS
  24:./ros_lib/ros/msg.h ****  * FOR A PARTICULAR PURPOSE ARE DISCLAIMED. IN NO EVENT SHALL THE
  25:./ros_lib/ros/msg.h ****  * COPYRIGHT OWNER OR CONTRIBUTORS BE LIABLE FOR ANY DIRECT, INDIRECT,
  26:./ros_lib/ros/msg.h ****  * INCIDENTAL, SPECIAL, EXEMPLARY, OR CONSEQUENTIAL DAMAGES (INCLUDING,
  27:./ros_lib/ros/msg.h ****  * BUT NOT LIMITED TO, PROCUREMENT OF SUBSTITUTE GOODS OR SERVICES;
  28:./ros_lib/ros/msg.h ****  * LOSS OF USE, DATA, OR PROFITS; OR BUSINESS INTERRUPTION) HOWEVER
  29:./ros_lib/ros/msg.h ****  * CAUSED AND ON ANY THEORY OF LIABILITY, WHETHER IN CONTRACT, STRICT
  30:./ros_lib/ros/msg.h ****  * LIABILITY, OR TORT (INCLUDING NEGLIGENCE OR OTHERWISE) ARISING IN
  31:./ros_lib/ros/msg.h ****  * ANY WAY OUT OF THE USE OF THIS SOFTWARE, EVEN IF ADVISED OF THE
  32:./ros_lib/ros/msg.h ****  * POSSIBILITY OF SUCH DAMAGE.
  33:./ros_lib/ros/msg.h ****  */
  34:./ros_lib/ros/msg.h **** 
  35:./ros_lib/ros/msg.h **** #ifndef _ROS_MSG_H_
  36:./ros_lib/ros/msg.h **** #define _ROS_MSG_H_
  37:./ros_lib/ros/msg.h **** 
  38:./ros_lib/ros/msg.h **** namespace ros {
  39:./ros_lib/ros/msg.h **** 
  40:./ros_lib/ros/msg.h ****   /* Base Message Type */
  41:./ros_lib/ros/msg.h ****   class Msg
 620              		.loc 4 41 0
 621              		.cfi_startproc
 622 0000 80B5     		push	{r7, lr}
 623              	.LCFI20:
 624              		.cfi_def_cfa_offset 8
 625              		.cfi_offset 7, -8
 626              		.cfi_offset 14, -4
 627 0002 82B0     		sub	sp, sp, #8
 628              	.LCFI21:
 629              		.cfi_def_cfa_offset 16
 630 0004 00AF     		add	r7, sp, #0
 631              	.LCFI22:
 632              		.cfi_def_cfa_register 7
 633 0006 7860     		str	r0, [r7, #4]
 634              	.LBB5:
ARM GAS  C:\DOCUME~1\Chuck\LOCALS~1\Temp\ccE33R2l.s 			page 16


 635              		.loc 4 41 0
 636 0008 7B68     		ldr	r3, [r7, #4]
 637 000a 034A     		ldr	r2, .L25
 638 000c 1A60     		str	r2, [r3]
 639              	.LBE5:
 640 000e 7B68     		ldr	r3, [r7, #4]
 641 0010 181C     		mov	r0, r3
 642 0012 BD46     		mov	sp, r7
 643 0014 02B0     		add	sp, sp, #8
 644              		@ sp needed for prologue
 645 0016 80BD     		pop	{r7, pc}
 646              	.L26:
 647              		.align	2
 648              	.L25:
 649 0018 08000000 		.word	_ZTVN3ros3MsgE+8
 650              		.cfi_endproc
 651              	.LFE144:
 652              		.size	_ZN3ros3MsgC2Ev, .-_ZN3ros3MsgC2Ev
 653              		.weak	_ZN3ros3MsgC1Ev
 654              		.thumb_set _ZN3ros3MsgC1Ev,_ZN3ros3MsgC2Ev
 655              		.section	.text._ZN15rosserial_psoc43AdcC2Ev,"axG",%progbits,_ZN15rosserial_psoc43AdcC5Ev,comdat
 656              		.align	2
 657              		.weak	_ZN15rosserial_psoc43AdcC2Ev
 658              		.code	16
 659              		.thumb_func
 660              		.type	_ZN15rosserial_psoc43AdcC2Ev, %function
 661              	_ZN15rosserial_psoc43AdcC2Ev:
 662              	.LFB146:
  12:./ros_lib/rosserial_psoc4/Adc.h ****   class Adc : public ros::Msg
 663              		.loc 3 12 0
 664              		.cfi_startproc
 665 0000 80B5     		push	{r7, lr}
 666              	.LCFI23:
 667              		.cfi_def_cfa_offset 8
 668              		.cfi_offset 7, -8
 669              		.cfi_offset 14, -4
 670 0002 82B0     		sub	sp, sp, #8
 671              	.LCFI24:
 672              		.cfi_def_cfa_offset 16
 673 0004 00AF     		add	r7, sp, #0
 674              	.LCFI25:
 675              		.cfi_def_cfa_register 7
 676 0006 7860     		str	r0, [r7, #4]
 677              	.LBB6:
  12:./ros_lib/rosserial_psoc4/Adc.h ****   class Adc : public ros::Msg
 678              		.loc 3 12 0
 679 0008 7B68     		ldr	r3, [r7, #4]
 680 000a 181C     		mov	r0, r3
 681 000c FFF7FEFF 		bl	_ZN3ros3MsgC2Ev
 682 0010 7B68     		ldr	r3, [r7, #4]
 683 0012 034A     		ldr	r2, .L30
 684 0014 1A60     		str	r2, [r3]
 685              	.LBE6:
 686 0016 7B68     		ldr	r3, [r7, #4]
 687 0018 181C     		mov	r0, r3
 688 001a BD46     		mov	sp, r7
 689 001c 02B0     		add	sp, sp, #8
ARM GAS  C:\DOCUME~1\Chuck\LOCALS~1\Temp\ccE33R2l.s 			page 17


 690              		@ sp needed for prologue
 691 001e 80BD     		pop	{r7, pc}
 692              	.L31:
 693              		.align	2
 694              	.L30:
 695 0020 08000000 		.word	_ZTVN15rosserial_psoc43AdcE+8
 696              		.cfi_endproc
 697              	.LFE146:
 698              		.size	_ZN15rosserial_psoc43AdcC2Ev, .-_ZN15rosserial_psoc43AdcC2Ev
 699              		.weak	_ZN15rosserial_psoc43AdcC1Ev
 700              		.thumb_set _ZN15rosserial_psoc43AdcC1Ev,_ZN15rosserial_psoc43AdcC2Ev
 701              		.global	_ZN3ADC7adc_msgE
 702              		.bss
 703              		.align	2
 704              		.type	_ZN3ADC7adc_msgE, %object
 705              		.size	_ZN3ADC7adc_msgE, 16
 706              	_ZN3ADC7adc_msgE:
 707 0000 00000000 		.space	16
 707      00000000 
 707      00000000 
 707      00000000 
 708              		.global	_ZN3ADC1pE
 709              		.align	2
 710              		.type	_ZN3ADC1pE, %object
 711              		.size	_ZN3ADC1pE, 20
 712              	_ZN3ADC1pE:
 713 0010 00000000 		.space	20
 713      00000000 
 713      00000000 
 713      00000000 
 713      00000000 
 714              		.global	_ZN3ADC16next_report_timeE
 715              		.align	2
 716              		.type	_ZN3ADC16next_report_timeE, %object
 717              		.size	_ZN3ADC16next_report_timeE, 4
 718              	_ZN3ADC16next_report_timeE:
 719 0024 00000000 		.space	4
 720              		.align	2
 721              	_ZN3ADCL6resultE:
 722 0028 00000000 		.space	6
 722      0000
 723 002e 0000     		.section	.text._ZN3ADC19ADC_SAR_SEQ_ISR_LOCEv,"ax",%progbits
 724              		.align	2
 725              		.global	_ZN3ADC19ADC_SAR_SEQ_ISR_LOCEv
 726              		.code	16
 727              		.thumb_func
 728              		.type	_ZN3ADC19ADC_SAR_SEQ_ISR_LOCEv, %function
 729              	_ZN3ADC19ADC_SAR_SEQ_ISR_LOCEv:
 730              	.LFB148:
 731              		.file 5 ".\\ros_lib\\examples\\ADC\\ADC.cpp"
   1:.\ros_lib\examples\ADC/ADC.cpp **** /* 
   2:.\ros_lib\examples\ADC/ADC.cpp ****  * rosserial ADC Example
   3:.\ros_lib\examples\ADC/ADC.cpp ****  * 
   4:.\ros_lib\examples\ADC/ADC.cpp ****  * This is a poor man's Oscilloscope.  It does not have the sampling 
   5:.\ros_lib\examples\ADC/ADC.cpp ****  * rate or accuracy of a commerical scope, but it is great to get
   6:.\ros_lib\examples\ADC/ADC.cpp ****  * an analog value into ROS in a pinch.
   7:.\ros_lib\examples\ADC/ADC.cpp ****  */
ARM GAS  C:\DOCUME~1\Chuck\LOCALS~1\Temp\ccE33R2l.s 			page 18


   8:.\ros_lib\examples\ADC/ADC.cpp **** 
   9:.\ros_lib\examples\ADC/ADC.cpp **** #include <ros.h>
  10:.\ros_lib\examples\ADC/ADC.cpp **** #include <rosserial_psoc4/Adc.h>
  11:.\ros_lib\examples\ADC/ADC.cpp **** #include "ADC_psoc4.h"
  12:.\ros_lib\examples\ADC/ADC.cpp **** 
  13:.\ros_lib\examples\ADC/ADC.cpp **** extern ros::NodeHandle nh;
  14:.\ros_lib\examples\ADC/ADC.cpp **** 
  15:.\ros_lib\examples\ADC/ADC.cpp **** namespace ADC {
  16:.\ros_lib\examples\ADC/ADC.cpp **** 
  17:.\ros_lib\examples\ADC/ADC.cpp **** rosserial_psoc4::Adc adc_msg;
  18:.\ros_lib\examples\ADC/ADC.cpp **** ros::Publisher p("adc", &adc_msg);
  19:.\ros_lib\examples\ADC/ADC.cpp **** 
  20:.\ros_lib\examples\ADC/ADC.cpp **** uint32_t next_report_time;
  21:.\ros_lib\examples\ADC/ADC.cpp **** const uint32_t kReportIntervalMs = 250;
  22:.\ros_lib\examples\ADC/ADC.cpp **** 
  23:.\ros_lib\examples\ADC/ADC.cpp **** static volatile int16 result[ADC_SAR_SEQ_TOTAL_CHANNELS_NUM];
  24:.\ros_lib\examples\ADC/ADC.cpp **** CY_ISR(ADC_SAR_SEQ_ISR_LOC)
  25:.\ros_lib\examples\ADC/ADC.cpp **** {
 732              		.loc 5 25 0
 733              		.cfi_startproc
 734 0000 80B5     		push	{r7, lr}
 735              	.LCFI26:
 736              		.cfi_def_cfa_offset 8
 737              		.cfi_offset 7, -8
 738              		.cfi_offset 14, -4
 739 0002 82B0     		sub	sp, sp, #8
 740              	.LCFI27:
 741              		.cfi_def_cfa_offset 16
 742 0004 00AF     		add	r7, sp, #0
 743              	.LCFI28:
 744              		.cfi_def_cfa_register 7
 745              	.LBB7:
  26:.\ros_lib\examples\ADC/ADC.cpp ****     uint32 intr_status;
  27:.\ros_lib\examples\ADC/ADC.cpp **** 
  28:.\ros_lib\examples\ADC/ADC.cpp ****     /* Read interrupt status registers */
  29:.\ros_lib\examples\ADC/ADC.cpp ****     intr_status = ADC_SAR_SEQ_SAR_INTR_MASKED_REG;
 746              		.loc 5 29 0
 747 0006 124B     		ldr	r3, .L36
 748 0008 1B68     		ldr	r3, [r3]
 749 000a 3B60     		str	r3, [r7]
 750              	.LBB8:
  30:.\ros_lib\examples\ADC/ADC.cpp ****     /* Check for End of Scan interrupt */
  31:.\ros_lib\examples\ADC/ADC.cpp ****     if((intr_status & ADC_SAR_SEQ_EOS_MASK) != 0u)
 751              		.loc 5 31 0
 752 000c 3A68     		ldr	r2, [r7]
 753 000e 0123     		mov	r3, #1
 754 0010 1340     		and	r3, r2
 755 0012 17D0     		beq	.L33
 756              	.LBB9:
  32:.\ros_lib\examples\ADC/ADC.cpp ****     {
  33:.\ros_lib\examples\ADC/ADC.cpp ****         unsigned int chan;
  34:.\ros_lib\examples\ADC/ADC.cpp ****         for (chan=0; chan<ADC_SAR_SEQ_TOTAL_CHANNELS_NUM; ++chan)
 757              		.loc 5 34 0
 758 0014 0023     		mov	r3, #0
 759 0016 7B60     		str	r3, [r7, #4]
 760 0018 0CE0     		b	.L34
 761              	.L35:
ARM GAS  C:\DOCUME~1\Chuck\LOCALS~1\Temp\ccE33R2l.s 			page 19


  35:.\ros_lib\examples\ADC/ADC.cpp ****         {
  36:.\ros_lib\examples\ADC/ADC.cpp ****             /* Read conversion result */
  37:.\ros_lib\examples\ADC/ADC.cpp ****             result[chan] = ADC_SAR_SEQ_GetResult16(chan);
 762              		.loc 5 37 0 discriminator 2
 763 001a 7B68     		ldr	r3, [r7, #4]
 764 001c 181C     		mov	r0, r3
 765 001e FFF7FEFF 		bl	ADC_SAR_SEQ_GetResult16
 766 0022 031C     		mov	r3, r0
 767 0024 191C     		mov	r1, r3
 768 0026 0B4B     		ldr	r3, .L36+4
 769 0028 7A68     		ldr	r2, [r7, #4]
 770 002a 5200     		lsl	r2, r2, #1
 771 002c D152     		strh	r1, [r2, r3]
  34:.\ros_lib\examples\ADC/ADC.cpp ****         for (chan=0; chan<ADC_SAR_SEQ_TOTAL_CHANNELS_NUM; ++chan)
 772              		.loc 5 34 0 discriminator 2
 773 002e 7B68     		ldr	r3, [r7, #4]
 774 0030 0133     		add	r3, r3, #1
 775 0032 7B60     		str	r3, [r7, #4]
 776              	.L34:
  34:.\ros_lib\examples\ADC/ADC.cpp ****         for (chan=0; chan<ADC_SAR_SEQ_TOTAL_CHANNELS_NUM; ++chan)
 777              		.loc 5 34 0 is_stmt 0 discriminator 1
 778 0034 7A68     		ldr	r2, [r7, #4]
 779 0036 0221     		mov	r1, #2
 780 0038 0023     		mov	r3, #0
 781 003a 9142     		cmp	r1, r2
 782 003c 5B41     		adc	r3, r3, r3
 783 003e DBB2     		uxtb	r3, r3
 784 0040 002B     		cmp	r3, #0
 785 0042 EAD1     		bne	.L35
 786              	.L33:
 787              	.LBE9:
 788              	.LBE8:
  38:.\ros_lib\examples\ADC/ADC.cpp **** 
  39:.\ros_lib\examples\ADC/ADC.cpp ****         }    
  40:.\ros_lib\examples\ADC/ADC.cpp ****     }    
  41:.\ros_lib\examples\ADC/ADC.cpp **** 
  42:.\ros_lib\examples\ADC/ADC.cpp ****     /* Clear handled interrupt */
  43:.\ros_lib\examples\ADC/ADC.cpp ****     ADC_SAR_SEQ_SAR_INTR_REG = intr_status;
 789              		.loc 5 43 0 is_stmt 1
 790 0044 044B     		ldr	r3, .L36+8
 791 0046 3A68     		ldr	r2, [r7]
 792 0048 1A60     		str	r2, [r3]
 793              	.LBE7:
  44:.\ros_lib\examples\ADC/ADC.cpp **** }
 794              		.loc 5 44 0
 795 004a BD46     		mov	sp, r7
 796 004c 02B0     		add	sp, sp, #8
 797              		@ sp needed for prologue
 798 004e 80BD     		pop	{r7, pc}
 799              	.L37:
 800              		.align	2
 801              	.L36:
 802 0050 1C021A40 		.word	1075446300
 803 0054 28000000 		.word	_ZN3ADCL6resultE
 804 0058 10021A40 		.word	1075446288
 805              		.cfi_endproc
 806              	.LFE148:
ARM GAS  C:\DOCUME~1\Chuck\LOCALS~1\Temp\ccE33R2l.s 			page 20


 807              		.size	_ZN3ADC19ADC_SAR_SEQ_ISR_LOCEv, .-_ZN3ADC19ADC_SAR_SEQ_ISR_LOCEv
 808              		.section	.text._ZN3ADC9adc_setupEv,"ax",%progbits
 809              		.align	2
 810              		.global	_ZN3ADC9adc_setupEv
 811              		.code	16
 812              		.thumb_func
 813              		.type	_ZN3ADC9adc_setupEv, %function
 814              	_ZN3ADC9adc_setupEv:
 815              	.LFB149:
  45:.\ros_lib\examples\ADC/ADC.cpp **** 
  46:.\ros_lib\examples\ADC/ADC.cpp **** void adc_setup() {
 816              		.loc 5 46 0
 817              		.cfi_startproc
 818 0000 80B5     		push	{r7, lr}
 819              	.LCFI29:
 820              		.cfi_def_cfa_offset 8
 821              		.cfi_offset 7, -8
 822              		.cfi_offset 14, -4
 823 0002 00AF     		add	r7, sp, #0
 824              	.LCFI30:
 825              		.cfi_def_cfa_register 7
  47:.\ros_lib\examples\ADC/ADC.cpp ****   /* Init input op amp for chan 2 */
  48:.\ros_lib\examples\ADC/ADC.cpp ****   Transimpedance_Start();
 826              		.loc 5 48 0
 827 0004 FFF7FEFF 		bl	Transimpedance_Start
  49:.\ros_lib\examples\ADC/ADC.cpp ****   /* Init and start sequencing SAR ADC */
  50:.\ros_lib\examples\ADC/ADC.cpp ****   ADC_SAR_SEQ_Start();
 828              		.loc 5 50 0
 829 0008 FFF7FEFF 		bl	ADC_SAR_SEQ_Start
  51:.\ros_lib\examples\ADC/ADC.cpp ****   ADC_SAR_SEQ_StartConvert();
 830              		.loc 5 51 0
 831 000c FFF7FEFF 		bl	ADC_SAR_SEQ_StartConvert
  52:.\ros_lib\examples\ADC/ADC.cpp ****   /* Enable interrupt and set interrupt handler to local routine */
  53:.\ros_lib\examples\ADC/ADC.cpp ****   ADC_SAR_SEQ_IRQ_StartEx(ADC_SAR_SEQ_ISR_LOC);
 832              		.loc 5 53 0
 833 0010 024B     		ldr	r3, .L39
 834 0012 181C     		mov	r0, r3
 835 0014 FFF7FEFF 		bl	ADC_SAR_SEQ_IRQ_StartEx
  54:.\ros_lib\examples\ADC/ADC.cpp **** }
 836              		.loc 5 54 0
 837 0018 BD46     		mov	sp, r7
 838              		@ sp needed for prologue
 839 001a 80BD     		pop	{r7, pc}
 840              	.L40:
 841              		.align	2
 842              	.L39:
 843 001c 00000000 		.word	_ZN3ADC19ADC_SAR_SEQ_ISR_LOCEv
 844              		.cfi_endproc
 845              	.LFE149:
 846              		.size	_ZN3ADC9adc_setupEv, .-_ZN3ADC9adc_setupEv
 847              		.section	.text._ZN3ADC10analogReadEi,"ax",%progbits
 848              		.align	2
 849              		.global	_ZN3ADC10analogReadEi
 850              		.code	16
 851              		.thumb_func
 852              		.type	_ZN3ADC10analogReadEi, %function
 853              	_ZN3ADC10analogReadEi:
ARM GAS  C:\DOCUME~1\Chuck\LOCALS~1\Temp\ccE33R2l.s 			page 21


 854              	.LFB150:
  55:.\ros_lib\examples\ADC/ADC.cpp **** 
  56:.\ros_lib\examples\ADC/ADC.cpp **** int analogRead(int pin) {
 855              		.loc 5 56 0
 856              		.cfi_startproc
 857 0000 80B5     		push	{r7, lr}
 858              	.LCFI31:
 859              		.cfi_def_cfa_offset 8
 860              		.cfi_offset 7, -8
 861              		.cfi_offset 14, -4
 862 0002 82B0     		sub	sp, sp, #8
 863              	.LCFI32:
 864              		.cfi_def_cfa_offset 16
 865 0004 00AF     		add	r7, sp, #0
 866              	.LCFI33:
 867              		.cfi_def_cfa_register 7
 868 0006 7860     		str	r0, [r7, #4]
  57:.\ros_lib\examples\ADC/ADC.cpp ****   return result[pin];
 869              		.loc 5 57 0
 870 0008 044B     		ldr	r3, .L43
 871 000a 7A68     		ldr	r2, [r7, #4]
 872 000c 5200     		lsl	r2, r2, #1
 873 000e D35A     		ldrh	r3, [r2, r3]
 874 0010 9BB2     		uxth	r3, r3
 875 0012 1BB2     		sxth	r3, r3
  58:.\ros_lib\examples\ADC/ADC.cpp **** }
 876              		.loc 5 58 0
 877 0014 181C     		mov	r0, r3
 878 0016 BD46     		mov	sp, r7
 879 0018 02B0     		add	sp, sp, #8
 880              		@ sp needed for prologue
 881 001a 80BD     		pop	{r7, pc}
 882              	.L44:
 883              		.align	2
 884              	.L43:
 885 001c 28000000 		.word	_ZN3ADCL6resultE
 886              		.cfi_endproc
 887              	.LFE150:
 888              		.size	_ZN3ADC10analogReadEi, .-_ZN3ADC10analogReadEi
 889              		.section	.text._ZN3ADC5setupEv,"ax",%progbits
 890              		.align	2
 891              		.global	_ZN3ADC5setupEv
 892              		.code	16
 893              		.thumb_func
 894              		.type	_ZN3ADC5setupEv, %function
 895              	_ZN3ADC5setupEv:
 896              	.LFB151:
  59:.\ros_lib\examples\ADC/ADC.cpp **** 
  60:.\ros_lib\examples\ADC/ADC.cpp **** void setup()
  61:.\ros_lib\examples\ADC/ADC.cpp **** { 
 897              		.loc 5 61 0
 898              		.cfi_startproc
 899 0000 80B5     		push	{r7, lr}
 900              	.LCFI34:
 901              		.cfi_def_cfa_offset 8
 902              		.cfi_offset 7, -8
 903              		.cfi_offset 14, -4
ARM GAS  C:\DOCUME~1\Chuck\LOCALS~1\Temp\ccE33R2l.s 			page 22


 904 0002 00AF     		add	r7, sp, #0
 905              	.LCFI35:
 906              		.cfi_def_cfa_register 7
  62:.\ros_lib\examples\ADC/ADC.cpp ****   nh.advertise(p);
 907              		.loc 5 62 0
 908 0004 074A     		ldr	r2, .L46
 909 0006 084B     		ldr	r3, .L46+4
 910 0008 101C     		mov	r0, r2
 911 000a 191C     		mov	r1, r3
 912 000c FFF7FEFF 		bl	_ZN3ros11NodeHandle_I13Psoc4HardwareLi10ELi20ELi200ELi200EE9advertiseERNS_9PublisherE
  63:.\ros_lib\examples\ADC/ADC.cpp ****   next_report_time = SysTimer::millis();
 913              		.loc 5 63 0
 914 0010 FFF7FEFF 		bl	_ZN8SysTimer6millisEv
 915 0014 021C     		mov	r2, r0
 916 0016 054B     		ldr	r3, .L46+8
 917 0018 1A60     		str	r2, [r3]
  64:.\ros_lib\examples\ADC/ADC.cpp ****   adc_setup();
 918              		.loc 5 64 0
 919 001a FFF7FEFF 		bl	_ZN3ADC9adc_setupEv
  65:.\ros_lib\examples\ADC/ADC.cpp **** }
 920              		.loc 5 65 0
 921 001e BD46     		mov	sp, r7
 922              		@ sp needed for prologue
 923 0020 80BD     		pop	{r7, pc}
 924              	.L47:
 925 0022 C046     		.align	2
 926              	.L46:
 927 0024 00000000 		.word	nh
 928 0028 00000000 		.word	_ZN3ADC1pE
 929 002c 00000000 		.word	_ZN3ADC16next_report_timeE
 930              		.cfi_endproc
 931              	.LFE151:
 932              		.size	_ZN3ADC5setupEv, .-_ZN3ADC5setupEv
 933              		.section	.text._ZN3ADC13averageAnalogEi,"ax",%progbits
 934              		.align	2
 935              		.global	_ZN3ADC13averageAnalogEi
 936              		.code	16
 937              		.thumb_func
 938              		.type	_ZN3ADC13averageAnalogEi, %function
 939              	_ZN3ADC13averageAnalogEi:
 940              	.LFB152:
  66:.\ros_lib\examples\ADC/ADC.cpp **** 
  67:.\ros_lib\examples\ADC/ADC.cpp **** //We sum the analog reading to elminate some of the noise
  68:.\ros_lib\examples\ADC/ADC.cpp **** int averageAnalog(int pin){
 941              		.loc 5 68 0
 942              		.cfi_startproc
 943 0000 90B5     		push	{r4, r7, lr}
 944              	.LCFI36:
 945              		.cfi_def_cfa_offset 12
 946              		.cfi_offset 4, -12
 947              		.cfi_offset 7, -8
 948              		.cfi_offset 14, -4
 949 0002 85B0     		sub	sp, sp, #20
 950              	.LCFI37:
 951              		.cfi_def_cfa_offset 32
 952 0004 00AF     		add	r7, sp, #0
 953              	.LCFI38:
ARM GAS  C:\DOCUME~1\Chuck\LOCALS~1\Temp\ccE33R2l.s 			page 23


 954              		.cfi_def_cfa_register 7
 955 0006 7860     		str	r0, [r7, #4]
 956              	.LBB10:
  69:.\ros_lib\examples\ADC/ADC.cpp ****   int v=0;
 957              		.loc 5 69 0
 958 0008 0023     		mov	r3, #0
 959 000a FB60     		str	r3, [r7, #12]
 960              	.LBB11:
  70:.\ros_lib\examples\ADC/ADC.cpp ****   for(int i=0; i<4; i++) v += analogRead(pin);
 961              		.loc 5 70 0
 962 000c 0023     		mov	r3, #0
 963 000e BB60     		str	r3, [r7, #8]
 964 0010 0AE0     		b	.L49
 965              	.L50:
 966              		.loc 5 70 0 is_stmt 0 discriminator 2
 967 0012 7B68     		ldr	r3, [r7, #4]
 968 0014 181C     		mov	r0, r3
 969 0016 FFF7FEFF 		bl	_ZN3ADC10analogReadEi
 970 001a 031C     		mov	r3, r0
 971 001c FA68     		ldr	r2, [r7, #12]
 972 001e D318     		add	r3, r2, r3
 973 0020 FB60     		str	r3, [r7, #12]
 974 0022 BB68     		ldr	r3, [r7, #8]
 975 0024 0133     		add	r3, r3, #1
 976 0026 BB60     		str	r3, [r7, #8]
 977              	.L49:
 978              		.loc 5 70 0 discriminator 1
 979 0028 BB68     		ldr	r3, [r7, #8]
 980 002a 0322     		mov	r2, #3
 981 002c D80F     		lsr	r0, r3, #31
 982 002e D117     		asr	r1, r2, #31
 983 0030 041C     		mov	r4, r0
 984 0032 9A42     		cmp	r2, r3
 985 0034 4C41     		adc	r4, r4, r1
 986 0036 231C     		mov	r3, r4
 987 0038 DBB2     		uxtb	r3, r3
 988 003a 002B     		cmp	r3, #0
 989 003c E9D1     		bne	.L50
 990              	.LBE11:
  71:.\ros_lib\examples\ADC/ADC.cpp ****   if(v<0) v = 0;
 991              		.loc 5 71 0 is_stmt 1
 992 003e FB68     		ldr	r3, [r7, #12]
 993 0040 002B     		cmp	r3, #0
 994 0042 01DA     		bge	.L51
 995              		.loc 5 71 0 is_stmt 0 discriminator 1
 996 0044 0023     		mov	r3, #0
 997 0046 FB60     		str	r3, [r7, #12]
 998              	.L51:
  72:.\ros_lib\examples\ADC/ADC.cpp ****   return v;
 999              		.loc 5 72 0 is_stmt 1
 1000 0048 FB68     		ldr	r3, [r7, #12]
 1001              	.LBE10:
  73:.\ros_lib\examples\ADC/ADC.cpp **** }
 1002              		.loc 5 73 0
 1003 004a 181C     		mov	r0, r3
 1004 004c BD46     		mov	sp, r7
 1005 004e 05B0     		add	sp, sp, #20
ARM GAS  C:\DOCUME~1\Chuck\LOCALS~1\Temp\ccE33R2l.s 			page 24


 1006              		@ sp needed for prologue
 1007 0050 90BD     		pop	{r4, r7, pc}
 1008              		.cfi_endproc
 1009              	.LFE152:
 1010              		.size	_ZN3ADC13averageAnalogEi, .-_ZN3ADC13averageAnalogEi
 1011 0052 C046     		.section	.text._ZN3ADC4loopEv,"ax",%progbits
 1012              		.align	2
 1013              		.global	_ZN3ADC4loopEv
 1014              		.code	16
 1015              		.thumb_func
 1016              		.type	_ZN3ADC4loopEv, %function
 1017              	_ZN3ADC4loopEv:
 1018              	.LFB153:
  74:.\ros_lib\examples\ADC/ADC.cpp **** 
  75:.\ros_lib\examples\ADC/ADC.cpp **** void loop()
  76:.\ros_lib\examples\ADC/ADC.cpp **** {
 1019              		.loc 5 76 0
 1020              		.cfi_startproc
 1021 0000 80B5     		push	{r7, lr}
 1022              	.LCFI39:
 1023              		.cfi_def_cfa_offset 8
 1024              		.cfi_offset 7, -8
 1025              		.cfi_offset 14, -4
 1026 0002 00AF     		add	r7, sp, #0
 1027              	.LCFI40:
 1028              		.cfi_def_cfa_register 7
  77:.\ros_lib\examples\ADC/ADC.cpp ****   if ((int32_t)(SysTimer::millis()-next_report_time) > 0) {
 1029              		.loc 5 77 0
 1030 0004 FFF7FEFF 		bl	_ZN8SysTimer6millisEv
 1031 0008 021C     		mov	r2, r0
 1032 000a 164B     		ldr	r3, .L55
 1033 000c 1B68     		ldr	r3, [r3]
 1034 000e D31A     		sub	r3, r2, r3
 1035 0010 DA17     		asr	r2, r3, #31
 1036 0012 D31A     		sub	r3, r2, r3
 1037 0014 DB0F     		lsr	r3, r3, #31
 1038 0016 DBB2     		uxtb	r3, r3
 1039 0018 002B     		cmp	r3, #0
 1040 001a 20D0     		beq	.L53
  78:.\ros_lib\examples\ADC/ADC.cpp ****     next_report_time += kReportIntervalMs;
 1041              		.loc 5 78 0
 1042 001c 114B     		ldr	r3, .L55
 1043 001e 1B68     		ldr	r3, [r3]
 1044 0020 1A1C     		mov	r2, r3
 1045 0022 FA32     		add	r2, r2, #250
 1046 0024 0F4B     		ldr	r3, .L55
 1047 0026 1A60     		str	r2, [r3]
  79:.\ros_lib\examples\ADC/ADC.cpp **** 
  80:.\ros_lib\examples\ADC/ADC.cpp ****     adc_msg.adc0 = averageAnalog(0);
 1048              		.loc 5 80 0
 1049 0028 0020     		mov	r0, #0
 1050 002a FFF7FEFF 		bl	_ZN3ADC13averageAnalogEi
 1051 002e 031C     		mov	r3, r0
 1052 0030 9AB2     		uxth	r2, r3
 1053 0032 0D4B     		ldr	r3, .L55+4
 1054 0034 9A80     		strh	r2, [r3, #4]
  81:.\ros_lib\examples\ADC/ADC.cpp ****     adc_msg.adc1 = averageAnalog(1);
ARM GAS  C:\DOCUME~1\Chuck\LOCALS~1\Temp\ccE33R2l.s 			page 25


 1055              		.loc 5 81 0
 1056 0036 0120     		mov	r0, #1
 1057 0038 FFF7FEFF 		bl	_ZN3ADC13averageAnalogEi
 1058 003c 031C     		mov	r3, r0
 1059 003e 9AB2     		uxth	r2, r3
 1060 0040 094B     		ldr	r3, .L55+4
 1061 0042 DA80     		strh	r2, [r3, #6]
  82:.\ros_lib\examples\ADC/ADC.cpp ****     adc_msg.adc2 = averageAnalog(2);
 1062              		.loc 5 82 0
 1063 0044 0220     		mov	r0, #2
 1064 0046 FFF7FEFF 		bl	_ZN3ADC13averageAnalogEi
 1065 004a 031C     		mov	r3, r0
 1066 004c 9AB2     		uxth	r2, r3
 1067 004e 064B     		ldr	r3, .L55+4
 1068 0050 1A81     		strh	r2, [r3, #8]
  83:.\ros_lib\examples\ADC/ADC.cpp ****    
  84:.\ros_lib\examples\ADC/ADC.cpp ****     p.publish(&adc_msg);
 1069              		.loc 5 84 0
 1070 0052 064A     		ldr	r2, .L55+8
 1071 0054 044B     		ldr	r3, .L55+4
 1072 0056 101C     		mov	r0, r2
 1073 0058 191C     		mov	r1, r3
 1074 005a FFF7FEFF 		bl	_ZN3ros9Publisher7publishEPKNS_3MsgE
 1075              	.L53:
  85:.\ros_lib\examples\ADC/ADC.cpp ****   }
  86:.\ros_lib\examples\ADC/ADC.cpp **** }
 1076              		.loc 5 86 0
 1077 005e BD46     		mov	sp, r7
 1078              		@ sp needed for prologue
 1079 0060 80BD     		pop	{r7, pc}
 1080              	.L56:
 1081 0062 C046     		.align	2
 1082              	.L55:
 1083 0064 00000000 		.word	_ZN3ADC16next_report_timeE
 1084 0068 00000000 		.word	_ZN3ADC7adc_msgE
 1085 006c 00000000 		.word	_ZN3ADC1pE
 1086              		.cfi_endproc
 1087              	.LFE153:
 1088              		.size	_ZN3ADC4loopEv, .-_ZN3ADC4loopEv
 1089              		.section	.text._ZN3ros11NodeHandle_I13Psoc4HardwareLi10ELi20ELi200ELi200EE9advertiseERNS_9Publishe
 1090              		.align	2
 1091              		.weak	_ZN3ros11NodeHandle_I13Psoc4HardwareLi10ELi20ELi200ELi200EE9advertiseERNS_9PublisherE
 1092              		.code	16
 1093              		.thumb_func
 1094              		.type	_ZN3ros11NodeHandle_I13Psoc4HardwareLi10ELi20ELi200ELi200EE9advertiseERNS_9PublisherE, %func
 1095              	_ZN3ros11NodeHandle_I13Psoc4HardwareLi10ELi20ELi200ELi200EE9advertiseERNS_9PublisherE:
 1096              	.LFB154:
 1097              		.file 6 "./ros_lib/ros/node_handle.h"
   1:./ros_lib/ros/node_handle.h **** /*
   2:./ros_lib/ros/node_handle.h ****  * Software License Agreement (BSD License)
   3:./ros_lib/ros/node_handle.h ****  *
   4:./ros_lib/ros/node_handle.h ****  * Copyright (c) 2011, Willow Garage, Inc.
   5:./ros_lib/ros/node_handle.h ****  * All rights reserved.
   6:./ros_lib/ros/node_handle.h ****  *
   7:./ros_lib/ros/node_handle.h ****  * Redistribution and use in source and binary forms, with or without
   8:./ros_lib/ros/node_handle.h ****  * modification, are permitted provided that the following conditions
   9:./ros_lib/ros/node_handle.h ****  * are met:
ARM GAS  C:\DOCUME~1\Chuck\LOCALS~1\Temp\ccE33R2l.s 			page 26


  10:./ros_lib/ros/node_handle.h ****  *
  11:./ros_lib/ros/node_handle.h ****  *  * Redistributions of source code must retain the above copyright
  12:./ros_lib/ros/node_handle.h ****  *    notice, this list of conditions and the following disclaimer.
  13:./ros_lib/ros/node_handle.h ****  *  * Redistributions in binary form must reproduce the above
  14:./ros_lib/ros/node_handle.h ****  *    copyright notice, this list of conditions and the following
  15:./ros_lib/ros/node_handle.h ****  *    disclaimer in the documentation and/or other materials provided
  16:./ros_lib/ros/node_handle.h ****  *    with the distribution.
  17:./ros_lib/ros/node_handle.h ****  *  * Neither the name of Willow Garage, Inc. nor the names of its
  18:./ros_lib/ros/node_handle.h ****  *    contributors may be used to endorse or promote prducts derived
  19:./ros_lib/ros/node_handle.h ****  *    from this software without specific prior written permission.
  20:./ros_lib/ros/node_handle.h ****  *
  21:./ros_lib/ros/node_handle.h ****  * THIS SOFTWARE IS PROVIDED BY THE COPYRIGHT HOLDERS AND CONTRIBUTORS
  22:./ros_lib/ros/node_handle.h ****  * "AS IS" AND ANY EXPRESS OR IMPLIED WARRANTIES, INCLUDING, BUT NOT
  23:./ros_lib/ros/node_handle.h ****  * LIMITED TO, THE IMPLIED WARRANTIES OF MERCHANTABILITY AND FITNESS
  24:./ros_lib/ros/node_handle.h ****  * FOR A PARTICULAR PURPOSE ARE DISCLAIMED. IN NO EVENT SHALL THE
  25:./ros_lib/ros/node_handle.h ****  * COPYRIGHT OWNER OR CONTRIBUTORS BE LIABLE FOR ANY DIRECT, INDIRECT,
  26:./ros_lib/ros/node_handle.h ****  * INCIDENTAL, SPECIAL, EXEMPLARY, OR CONSEQUENTIAL DAMAGES (INCLUDING,
  27:./ros_lib/ros/node_handle.h ****  * BUT NOT LIMITED TO, PROCUREMENT OF SUBSTITUTE GOODS OR SERVICES;
  28:./ros_lib/ros/node_handle.h ****  * LOSS OF USE, DATA, OR PROFITS; OR BUSINESS INTERRUPTION) HOWEVER
  29:./ros_lib/ros/node_handle.h ****  * CAUSED AND ON ANY THEORY OF LIABILITY, WHETHER IN CONTRACT, STRICT
  30:./ros_lib/ros/node_handle.h ****  * LIABILITY, OR TORT (INCLUDING NEGLIGENCE OR OTHERWISE) ARISING IN
  31:./ros_lib/ros/node_handle.h ****  * ANY WAY OUT OF THE USE OF THIS SOFTWARE, EVEN IF ADVISED OF THE
  32:./ros_lib/ros/node_handle.h ****  * POSSIBILITY OF SUCH DAMAGE.
  33:./ros_lib/ros/node_handle.h ****  */
  34:./ros_lib/ros/node_handle.h **** 
  35:./ros_lib/ros/node_handle.h **** #ifndef ROS_NODE_HANDLE_H_
  36:./ros_lib/ros/node_handle.h **** #define ROS_NODE_HANDLE_H_
  37:./ros_lib/ros/node_handle.h **** 
  38:./ros_lib/ros/node_handle.h **** #ifndef PARAM_REQ_SUPPORT
  39:./ros_lib/ros/node_handle.h **** #define PARAM_REQ_SUPPORT 1
  40:./ros_lib/ros/node_handle.h **** #endif
  41:./ros_lib/ros/node_handle.h **** 
  42:./ros_lib/ros/node_handle.h **** #include "std_msgs/Time.h"
  43:./ros_lib/ros/node_handle.h **** #include "rosserial_msgs/TopicInfo.h"
  44:./ros_lib/ros/node_handle.h **** #include "rosserial_msgs/Log.h"
  45:./ros_lib/ros/node_handle.h **** #if PARAM_REQ_SUPPORT
  46:./ros_lib/ros/node_handle.h **** #include "rosserial_msgs/RequestParam.h"
  47:./ros_lib/ros/node_handle.h **** #endif
  48:./ros_lib/ros/node_handle.h **** 
  49:./ros_lib/ros/node_handle.h **** #define SYNC_SECONDS        2
  50:./ros_lib/ros/node_handle.h **** 
  51:./ros_lib/ros/node_handle.h **** #define MODE_FIRST_FF       0
  52:./ros_lib/ros/node_handle.h **** /*
  53:./ros_lib/ros/node_handle.h ****  * The second sync byte is a protocol version. It's value is 0xff for the first
  54:./ros_lib/ros/node_handle.h ****  * version of the rosserial protocol (used up to hydro), 0xfe for the second version
  55:./ros_lib/ros/node_handle.h ****  * (introduced in hydro), 0xfd for the next, and so on. Its purpose is to enable
  56:./ros_lib/ros/node_handle.h ****  * detection of mismatched protocol versions (e.g. hydro rosserial_python with groovy
  57:./ros_lib/ros/node_handle.h ****  * rosserial_arduino. It must be changed in both this file and in
  58:./ros_lib/ros/node_handle.h ****  * rosserial_python/src/rosserial_python/SerialClient.py
  59:./ros_lib/ros/node_handle.h ****  */
  60:./ros_lib/ros/node_handle.h **** #define MODE_PROTOCOL_VER   1
  61:./ros_lib/ros/node_handle.h **** #define PROTOCOL_VER1		0xff // through groovy
  62:./ros_lib/ros/node_handle.h **** #define PROTOCOL_VER2		0xfe // in hydro
  63:./ros_lib/ros/node_handle.h **** #define PROTOCOL_VER 		PROTOCOL_VER2
  64:./ros_lib/ros/node_handle.h **** #define MODE_SIZE_L         2   
  65:./ros_lib/ros/node_handle.h **** #define MODE_SIZE_H         3
  66:./ros_lib/ros/node_handle.h **** #define MODE_SIZE_CHECKSUM  4   // checksum for msg size received from size L and H
ARM GAS  C:\DOCUME~1\Chuck\LOCALS~1\Temp\ccE33R2l.s 			page 27


  67:./ros_lib/ros/node_handle.h **** #define MODE_TOPIC_L        5   // waiting for topic id
  68:./ros_lib/ros/node_handle.h **** #define MODE_TOPIC_H        6
  69:./ros_lib/ros/node_handle.h **** #define MODE_MESSAGE        7
  70:./ros_lib/ros/node_handle.h **** #define MODE_MSG_CHECKSUM   8   // checksum for msg and topic id 
  71:./ros_lib/ros/node_handle.h **** 
  72:./ros_lib/ros/node_handle.h **** 
  73:./ros_lib/ros/node_handle.h **** 
  74:./ros_lib/ros/node_handle.h **** #define MSG_TIMEOUT 200  // was 20 milliseconds to recieve all of message data
  75:./ros_lib/ros/node_handle.h **** 
  76:./ros_lib/ros/node_handle.h **** #include "msg.h"
  77:./ros_lib/ros/node_handle.h **** 
  78:./ros_lib/ros/node_handle.h **** namespace ros {
  79:./ros_lib/ros/node_handle.h **** 
  80:./ros_lib/ros/node_handle.h ****   class NodeHandleBase_{
  81:./ros_lib/ros/node_handle.h ****     public:
  82:./ros_lib/ros/node_handle.h ****       virtual int publish(int id, const Msg* msg)=0;
  83:./ros_lib/ros/node_handle.h ****       virtual int spinOnce()=0;
  84:./ros_lib/ros/node_handle.h ****       virtual bool connected()=0;
  85:./ros_lib/ros/node_handle.h ****     };
  86:./ros_lib/ros/node_handle.h **** }
  87:./ros_lib/ros/node_handle.h **** 
  88:./ros_lib/ros/node_handle.h **** #include "publisher.h"
  89:./ros_lib/ros/node_handle.h **** #include "subscriber.h"
  90:./ros_lib/ros/node_handle.h **** #include "service_server.h"
  91:./ros_lib/ros/node_handle.h **** #include "service_client.h"
  92:./ros_lib/ros/node_handle.h **** 
  93:./ros_lib/ros/node_handle.h **** namespace ros {
  94:./ros_lib/ros/node_handle.h **** 
  95:./ros_lib/ros/node_handle.h ****   /* Node Handle */
  96:./ros_lib/ros/node_handle.h ****   template<class Hardware,
  97:./ros_lib/ros/node_handle.h ****            int MAX_SUBSCRIBERS=25,
  98:./ros_lib/ros/node_handle.h ****            int MAX_PUBLISHERS=25,
  99:./ros_lib/ros/node_handle.h ****            int INPUT_SIZE=512,
 100:./ros_lib/ros/node_handle.h ****            int OUTPUT_SIZE=512>
 101:./ros_lib/ros/node_handle.h ****   class NodeHandle_ : public NodeHandleBase_
 102:./ros_lib/ros/node_handle.h ****   {
 103:./ros_lib/ros/node_handle.h ****     protected:
 104:./ros_lib/ros/node_handle.h ****       Hardware hardware_;
 105:./ros_lib/ros/node_handle.h **** 
 106:./ros_lib/ros/node_handle.h ****       /* time used for syncing */
 107:./ros_lib/ros/node_handle.h ****       unsigned long rt_time;
 108:./ros_lib/ros/node_handle.h **** 
 109:./ros_lib/ros/node_handle.h ****       /* used for computing current time */
 110:./ros_lib/ros/node_handle.h ****       unsigned long sec_offset, nsec_offset;
 111:./ros_lib/ros/node_handle.h **** 
 112:./ros_lib/ros/node_handle.h ****       unsigned char message_in[INPUT_SIZE];
 113:./ros_lib/ros/node_handle.h ****       unsigned char message_out[OUTPUT_SIZE];
 114:./ros_lib/ros/node_handle.h **** 
 115:./ros_lib/ros/node_handle.h ****       Publisher * publishers[MAX_PUBLISHERS];
 116:./ros_lib/ros/node_handle.h ****       Subscriber_ * subscribers[MAX_SUBSCRIBERS];
 117:./ros_lib/ros/node_handle.h **** 
 118:./ros_lib/ros/node_handle.h ****       /*
 119:./ros_lib/ros/node_handle.h ****        * Setup Functions
 120:./ros_lib/ros/node_handle.h ****        */
 121:./ros_lib/ros/node_handle.h ****     public:
 122:./ros_lib/ros/node_handle.h ****       NodeHandle_() : configured_(false) {}
 123:./ros_lib/ros/node_handle.h ****       
ARM GAS  C:\DOCUME~1\Chuck\LOCALS~1\Temp\ccE33R2l.s 			page 28


 124:./ros_lib/ros/node_handle.h ****       Hardware* getHardware(){
 125:./ros_lib/ros/node_handle.h ****         return &hardware_;
 126:./ros_lib/ros/node_handle.h ****       }
 127:./ros_lib/ros/node_handle.h **** 
 128:./ros_lib/ros/node_handle.h ****       /* Start serial, initialize buffers */
 129:./ros_lib/ros/node_handle.h ****       void initNode(){
 130:./ros_lib/ros/node_handle.h ****         hardware_.init();
 131:./ros_lib/ros/node_handle.h ****         mode_ = 0;
 132:./ros_lib/ros/node_handle.h ****         bytes_ = 0;
 133:./ros_lib/ros/node_handle.h ****         index_ = 0;
 134:./ros_lib/ros/node_handle.h ****         topic_ = 0;
 135:./ros_lib/ros/node_handle.h ****       };
 136:./ros_lib/ros/node_handle.h **** 
 137:./ros_lib/ros/node_handle.h ****       /* Start a named port, which may be network server IP, initialize buffers */
 138:./ros_lib/ros/node_handle.h ****       void initNode(char *portName){
 139:./ros_lib/ros/node_handle.h ****         hardware_.init(portName);
 140:./ros_lib/ros/node_handle.h ****         mode_ = 0;
 141:./ros_lib/ros/node_handle.h ****         bytes_ = 0;
 142:./ros_lib/ros/node_handle.h ****         index_ = 0;
 143:./ros_lib/ros/node_handle.h ****         topic_ = 0;
 144:./ros_lib/ros/node_handle.h ****       };
 145:./ros_lib/ros/node_handle.h **** 
 146:./ros_lib/ros/node_handle.h ****     protected:
 147:./ros_lib/ros/node_handle.h ****       //State machine variables for spinOnce
 148:./ros_lib/ros/node_handle.h ****       int mode_;
 149:./ros_lib/ros/node_handle.h ****       int bytes_;
 150:./ros_lib/ros/node_handle.h ****       int topic_;
 151:./ros_lib/ros/node_handle.h ****       int index_;
 152:./ros_lib/ros/node_handle.h ****       int checksum_;
 153:./ros_lib/ros/node_handle.h **** 
 154:./ros_lib/ros/node_handle.h ****       bool configured_;
 155:./ros_lib/ros/node_handle.h **** 
 156:./ros_lib/ros/node_handle.h ****       /* used for syncing the time */
 157:./ros_lib/ros/node_handle.h ****       unsigned long last_sync_time;
 158:./ros_lib/ros/node_handle.h ****       unsigned long last_sync_receive_time;
 159:./ros_lib/ros/node_handle.h ****       unsigned long last_msg_timeout_time;
 160:./ros_lib/ros/node_handle.h **** 
 161:./ros_lib/ros/node_handle.h ****     public:
 162:./ros_lib/ros/node_handle.h ****       /* This function goes in your loop() function, it handles
 163:./ros_lib/ros/node_handle.h ****        *  serial input and callbacks for subscribers.
 164:./ros_lib/ros/node_handle.h ****        */
 165:./ros_lib/ros/node_handle.h **** 
 166:./ros_lib/ros/node_handle.h **** 
 167:./ros_lib/ros/node_handle.h ****       virtual int spinOnce(){
 168:./ros_lib/ros/node_handle.h **** 
 169:./ros_lib/ros/node_handle.h ****         /* restart if timed out */
 170:./ros_lib/ros/node_handle.h ****         unsigned long c_time = hardware_.time();
 171:./ros_lib/ros/node_handle.h ****         if( (c_time - last_sync_receive_time) > (SYNC_SECONDS*1100) ){
 172:./ros_lib/ros/node_handle.h ****             configured_ = false;
 173:./ros_lib/ros/node_handle.h ****          }
 174:./ros_lib/ros/node_handle.h ****          
 175:./ros_lib/ros/node_handle.h ****         /* reset if message has timed out */
 176:./ros_lib/ros/node_handle.h ****         if ( mode_ != MODE_FIRST_FF){ 
 177:./ros_lib/ros/node_handle.h ****           if (c_time > last_msg_timeout_time){
 178:./ros_lib/ros/node_handle.h ****             mode_ = MODE_FIRST_FF;
 179:./ros_lib/ros/node_handle.h ****           }
 180:./ros_lib/ros/node_handle.h ****         }
ARM GAS  C:\DOCUME~1\Chuck\LOCALS~1\Temp\ccE33R2l.s 			page 29


 181:./ros_lib/ros/node_handle.h **** 
 182:./ros_lib/ros/node_handle.h ****         /* while available buffer, read data */
 183:./ros_lib/ros/node_handle.h ****         while( true )
 184:./ros_lib/ros/node_handle.h ****         {
 185:./ros_lib/ros/node_handle.h ****           int data = hardware_.read();
 186:./ros_lib/ros/node_handle.h ****           if( data < 0 )
 187:./ros_lib/ros/node_handle.h ****             break;
 188:./ros_lib/ros/node_handle.h ****           checksum_ += data;
 189:./ros_lib/ros/node_handle.h ****           if( mode_ == MODE_MESSAGE ){        /* message data being recieved */
 190:./ros_lib/ros/node_handle.h ****             message_in[index_++] = data;
 191:./ros_lib/ros/node_handle.h ****             bytes_--;
 192:./ros_lib/ros/node_handle.h ****             if(bytes_ == 0)                  /* is message complete? if so, checksum */
 193:./ros_lib/ros/node_handle.h ****               mode_ = MODE_MSG_CHECKSUM;
 194:./ros_lib/ros/node_handle.h ****           }else if( mode_ == MODE_FIRST_FF ){
 195:./ros_lib/ros/node_handle.h ****             if(data == 0xff){
 196:./ros_lib/ros/node_handle.h ****               mode_++;
 197:./ros_lib/ros/node_handle.h ****               last_msg_timeout_time = c_time + MSG_TIMEOUT;
 198:./ros_lib/ros/node_handle.h ****             }
 199:./ros_lib/ros/node_handle.h ****           }else if( mode_ == MODE_PROTOCOL_VER ){
 200:./ros_lib/ros/node_handle.h ****             if(data == PROTOCOL_VER){
 201:./ros_lib/ros/node_handle.h ****               mode_++;
 202:./ros_lib/ros/node_handle.h ****             }else{
 203:./ros_lib/ros/node_handle.h ****               mode_ = MODE_FIRST_FF;
 204:./ros_lib/ros/node_handle.h ****               if (configured_ == false) {
 205:./ros_lib/ros/node_handle.h ****                   requestSyncTime(); 	/* send a msg back showing our protocol version */
 206:./ros_lib/ros/node_handle.h ****               }
 207:./ros_lib/ros/node_handle.h ****             }
 208:./ros_lib/ros/node_handle.h **** 	  }else if( mode_ == MODE_SIZE_L ){   /* bottom half of message size */
 209:./ros_lib/ros/node_handle.h ****             bytes_ = data;
 210:./ros_lib/ros/node_handle.h ****             index_ = 0;
 211:./ros_lib/ros/node_handle.h ****             mode_++;
 212:./ros_lib/ros/node_handle.h ****             checksum_ = data;               /* first byte for calculating size checksum */
 213:./ros_lib/ros/node_handle.h ****           }else if( mode_ == MODE_SIZE_H ){   /* top half of message size */
 214:./ros_lib/ros/node_handle.h ****             bytes_ += data<<8;
 215:./ros_lib/ros/node_handle.h **** 	    mode_++;
 216:./ros_lib/ros/node_handle.h ****           }else if( mode_ == MODE_SIZE_CHECKSUM ){  
 217:./ros_lib/ros/node_handle.h ****             if( (checksum_%256) == 255)
 218:./ros_lib/ros/node_handle.h **** 	      mode_++;
 219:./ros_lib/ros/node_handle.h **** 	    else {
 220:./ros_lib/ros/node_handle.h **** 	      mode_ = MODE_FIRST_FF;          /* Abandon the frame if the msg len is wrong */
 221:./ros_lib/ros/node_handle.h ****             }
 222:./ros_lib/ros/node_handle.h **** 	  }else if( mode_ == MODE_TOPIC_L ){  /* bottom half of topic id */
 223:./ros_lib/ros/node_handle.h ****             topic_ = data;
 224:./ros_lib/ros/node_handle.h ****             mode_++;
 225:./ros_lib/ros/node_handle.h ****             checksum_ = data;               /* first byte included in checksum */
 226:./ros_lib/ros/node_handle.h ****           }else if( mode_ == MODE_TOPIC_H ){  /* top half of topic id */
 227:./ros_lib/ros/node_handle.h ****             topic_ += data<<8;
 228:./ros_lib/ros/node_handle.h ****             mode_ = MODE_MESSAGE;
 229:./ros_lib/ros/node_handle.h ****             if(bytes_ == 0)
 230:./ros_lib/ros/node_handle.h ****               mode_ = MODE_MSG_CHECKSUM;  
 231:./ros_lib/ros/node_handle.h ****           }else if( mode_ == MODE_MSG_CHECKSUM ){ /* do checksum */
 232:./ros_lib/ros/node_handle.h ****             mode_ = MODE_FIRST_FF;
 233:./ros_lib/ros/node_handle.h ****             if( (checksum_%256) == 255){
 234:./ros_lib/ros/node_handle.h ****               if(topic_ == rosserial_msgs::TopicInfo::ID_PUBLISHER){
 235:./ros_lib/ros/node_handle.h ****                 requestSyncTime();
 236:./ros_lib/ros/node_handle.h ****                 negotiateTopics();
 237:./ros_lib/ros/node_handle.h ****                 last_sync_time = c_time;
ARM GAS  C:\DOCUME~1\Chuck\LOCALS~1\Temp\ccE33R2l.s 			page 30


 238:./ros_lib/ros/node_handle.h ****                 last_sync_receive_time = c_time;
 239:./ros_lib/ros/node_handle.h ****                 return -1;
 240:./ros_lib/ros/node_handle.h ****               }else if(topic_ == rosserial_msgs::TopicInfo::ID_TIME){
 241:./ros_lib/ros/node_handle.h ****                 syncTime(message_in);
 242:./ros_lib/ros/node_handle.h ****               #if PARAM_REQ_SUPPORT
 243:./ros_lib/ros/node_handle.h ****               }else if (topic_ == rosserial_msgs::TopicInfo::ID_PARAMETER_REQUEST){
 244:./ros_lib/ros/node_handle.h ****                   req_param_resp.deserialize(message_in);
 245:./ros_lib/ros/node_handle.h ****                   param_recieved= true;
 246:./ros_lib/ros/node_handle.h ****               #endif
 247:./ros_lib/ros/node_handle.h ****               }else{
 248:./ros_lib/ros/node_handle.h ****                 if(subscribers[topic_-100])
 249:./ros_lib/ros/node_handle.h ****                   subscribers[topic_-100]->callback( message_in );
 250:./ros_lib/ros/node_handle.h ****               }
 251:./ros_lib/ros/node_handle.h ****             }
 252:./ros_lib/ros/node_handle.h ****           }
 253:./ros_lib/ros/node_handle.h ****         }
 254:./ros_lib/ros/node_handle.h **** 
 255:./ros_lib/ros/node_handle.h ****         /* occasionally sync time */
 256:./ros_lib/ros/node_handle.h ****         if( configured_ && ((c_time-last_sync_time) > (SYNC_SECONDS*500) )){
 257:./ros_lib/ros/node_handle.h ****           requestSyncTime();
 258:./ros_lib/ros/node_handle.h ****           last_sync_time = c_time;
 259:./ros_lib/ros/node_handle.h ****         }
 260:./ros_lib/ros/node_handle.h **** 
 261:./ros_lib/ros/node_handle.h ****         return 0;
 262:./ros_lib/ros/node_handle.h ****       }
 263:./ros_lib/ros/node_handle.h **** 
 264:./ros_lib/ros/node_handle.h **** 
 265:./ros_lib/ros/node_handle.h ****       /* Are we connected to the PC? */
 266:./ros_lib/ros/node_handle.h ****       virtual bool connected() {
 267:./ros_lib/ros/node_handle.h ****         return configured_;
 268:./ros_lib/ros/node_handle.h ****       };
 269:./ros_lib/ros/node_handle.h **** 
 270:./ros_lib/ros/node_handle.h ****       /********************************************************************
 271:./ros_lib/ros/node_handle.h ****        * Time functions
 272:./ros_lib/ros/node_handle.h ****        */
 273:./ros_lib/ros/node_handle.h **** 
 274:./ros_lib/ros/node_handle.h ****       void requestSyncTime()
 275:./ros_lib/ros/node_handle.h ****       {
 276:./ros_lib/ros/node_handle.h ****         std_msgs::Time t;
 277:./ros_lib/ros/node_handle.h ****         publish(rosserial_msgs::TopicInfo::ID_TIME, &t);
 278:./ros_lib/ros/node_handle.h ****         rt_time = hardware_.time();
 279:./ros_lib/ros/node_handle.h ****       }
 280:./ros_lib/ros/node_handle.h **** 
 281:./ros_lib/ros/node_handle.h ****       void syncTime( unsigned char * data )
 282:./ros_lib/ros/node_handle.h ****       {
 283:./ros_lib/ros/node_handle.h ****         std_msgs::Time t;
 284:./ros_lib/ros/node_handle.h ****         unsigned long offset = hardware_.time() - rt_time;
 285:./ros_lib/ros/node_handle.h **** 
 286:./ros_lib/ros/node_handle.h ****         t.deserialize(data);
 287:./ros_lib/ros/node_handle.h ****         t.data.sec += offset/1000;
 288:./ros_lib/ros/node_handle.h ****         t.data.nsec += (offset%1000)*1000000UL;
 289:./ros_lib/ros/node_handle.h **** 
 290:./ros_lib/ros/node_handle.h ****         this->setNow(t.data);
 291:./ros_lib/ros/node_handle.h ****         last_sync_receive_time = hardware_.time();
 292:./ros_lib/ros/node_handle.h ****       }
 293:./ros_lib/ros/node_handle.h **** 
 294:./ros_lib/ros/node_handle.h ****       Time now(){
ARM GAS  C:\DOCUME~1\Chuck\LOCALS~1\Temp\ccE33R2l.s 			page 31


 295:./ros_lib/ros/node_handle.h ****         unsigned long ms = hardware_.time();
 296:./ros_lib/ros/node_handle.h ****         Time current_time;
 297:./ros_lib/ros/node_handle.h ****         current_time.sec = ms/1000 + sec_offset;
 298:./ros_lib/ros/node_handle.h ****         current_time.nsec = (ms%1000)*1000000UL + nsec_offset;
 299:./ros_lib/ros/node_handle.h ****         normalizeSecNSec(current_time.sec, current_time.nsec);
 300:./ros_lib/ros/node_handle.h ****         return current_time;
 301:./ros_lib/ros/node_handle.h ****       }
 302:./ros_lib/ros/node_handle.h **** 
 303:./ros_lib/ros/node_handle.h ****       void setNow( Time & new_now )
 304:./ros_lib/ros/node_handle.h ****       {
 305:./ros_lib/ros/node_handle.h ****         unsigned long ms = hardware_.time();
 306:./ros_lib/ros/node_handle.h ****         sec_offset = new_now.sec - ms/1000 - 1;
 307:./ros_lib/ros/node_handle.h ****         nsec_offset = new_now.nsec - (ms%1000)*1000000UL + 1000000000UL;
 308:./ros_lib/ros/node_handle.h ****         normalizeSecNSec(sec_offset, nsec_offset);
 309:./ros_lib/ros/node_handle.h ****       }
 310:./ros_lib/ros/node_handle.h **** 
 311:./ros_lib/ros/node_handle.h ****       /********************************************************************
 312:./ros_lib/ros/node_handle.h ****        * Topic Management 
 313:./ros_lib/ros/node_handle.h ****        */
 314:./ros_lib/ros/node_handle.h **** 
 315:./ros_lib/ros/node_handle.h ****       /* Register a new publisher */    
 316:./ros_lib/ros/node_handle.h ****       bool advertise(Publisher & p)
 1098              		.loc 6 316 0
 1099              		.cfi_startproc
 1100 0000 90B5     		push	{r4, r7, lr}
 1101              	.LCFI41:
 1102              		.cfi_def_cfa_offset 12
 1103              		.cfi_offset 4, -12
 1104              		.cfi_offset 7, -8
 1105              		.cfi_offset 14, -4
 1106 0002 85B0     		sub	sp, sp, #20
 1107              	.LCFI42:
 1108              		.cfi_def_cfa_offset 32
 1109 0004 00AF     		add	r7, sp, #0
 1110              	.LCFI43:
 1111              		.cfi_def_cfa_register 7
 1112 0006 7860     		str	r0, [r7, #4]
 1113 0008 3960     		str	r1, [r7]
 1114              	.LBB12:
 1115              	.LBB13:
 317:./ros_lib/ros/node_handle.h ****       {
 318:./ros_lib/ros/node_handle.h ****         for(int i = 0; i < MAX_PUBLISHERS; i++){
 1116              		.loc 6 318 0
 1117 000a 0023     		mov	r3, #0
 1118 000c FB60     		str	r3, [r7, #12]
 1119 000e 19E0     		b	.L58
 1120              	.L61:
 319:./ros_lib/ros/node_handle.h ****           if(publishers[i] == 0){ // empty slot
 1121              		.loc 6 319 0
 1122 0010 7B68     		ldr	r3, [r7, #4]
 1123 0012 FA68     		ldr	r2, [r7, #12]
 1124 0014 6A32     		add	r2, r2, #106
 1125 0016 9200     		lsl	r2, r2, #2
 1126 0018 D358     		ldr	r3, [r2, r3]
 1127 001a 002B     		cmp	r3, #0
 1128 001c 0FD1     		bne	.L59
 320:./ros_lib/ros/node_handle.h ****             publishers[i] = &p;
ARM GAS  C:\DOCUME~1\Chuck\LOCALS~1\Temp\ccE33R2l.s 			page 32


 1129              		.loc 6 320 0
 1130 001e 7B68     		ldr	r3, [r7, #4]
 1131 0020 FA68     		ldr	r2, [r7, #12]
 1132 0022 6A32     		add	r2, r2, #106
 1133 0024 9200     		lsl	r2, r2, #2
 1134 0026 3968     		ldr	r1, [r7]
 1135 0028 D150     		str	r1, [r2, r3]
 321:./ros_lib/ros/node_handle.h ****             p.id_ = i+100+MAX_SUBSCRIBERS;
 1136              		.loc 6 321 0
 1137 002a FB68     		ldr	r3, [r7, #12]
 1138 002c 1A1C     		mov	r2, r3
 1139 002e 6E32     		add	r2, r2, #110
 1140 0030 3B68     		ldr	r3, [r7]
 1141 0032 9A60     		str	r2, [r3, #8]
 322:./ros_lib/ros/node_handle.h ****             p.nh_ = this;
 1142              		.loc 6 322 0
 1143 0034 7A68     		ldr	r2, [r7, #4]
 1144 0036 3B68     		ldr	r3, [r7]
 1145 0038 DA60     		str	r2, [r3, #12]
 323:./ros_lib/ros/node_handle.h ****             return true;
 1146              		.loc 6 323 0
 1147 003a 0123     		mov	r3, #1
 1148 003c 0EE0     		b	.L60
 1149              	.L59:
 318:./ros_lib/ros/node_handle.h ****         for(int i = 0; i < MAX_PUBLISHERS; i++){
 1150              		.loc 6 318 0
 1151 003e FB68     		ldr	r3, [r7, #12]
 1152 0040 0133     		add	r3, r3, #1
 1153 0042 FB60     		str	r3, [r7, #12]
 1154              	.L58:
 318:./ros_lib/ros/node_handle.h ****         for(int i = 0; i < MAX_PUBLISHERS; i++){
 1155              		.loc 6 318 0 is_stmt 0 discriminator 1
 1156 0044 FB68     		ldr	r3, [r7, #12]
 1157 0046 1322     		mov	r2, #19
 1158 0048 D80F     		lsr	r0, r3, #31
 1159 004a D117     		asr	r1, r2, #31
 1160 004c 041C     		mov	r4, r0
 1161 004e 9A42     		cmp	r2, r3
 1162 0050 4C41     		adc	r4, r4, r1
 1163 0052 231C     		mov	r3, r4
 1164 0054 DBB2     		uxtb	r3, r3
 1165 0056 002B     		cmp	r3, #0
 1166 0058 DAD1     		bne	.L61
 1167              	.LBE13:
 324:./ros_lib/ros/node_handle.h ****           }
 325:./ros_lib/ros/node_handle.h ****         }
 326:./ros_lib/ros/node_handle.h ****         return false;
 1168              		.loc 6 326 0 is_stmt 1
 1169 005a 0023     		mov	r3, #0
 1170              	.L60:
 1171              	.LBE12:
 327:./ros_lib/ros/node_handle.h ****       }
 1172              		.loc 6 327 0
 1173 005c 181C     		mov	r0, r3
 1174 005e BD46     		mov	sp, r7
 1175 0060 05B0     		add	sp, sp, #20
 1176              		@ sp needed for prologue
ARM GAS  C:\DOCUME~1\Chuck\LOCALS~1\Temp\ccE33R2l.s 			page 33


 1177 0062 90BD     		pop	{r4, r7, pc}
 1178              		.cfi_endproc
 1179              	.LFE154:
 1180              		.size	_ZN3ros11NodeHandle_I13Psoc4HardwareLi10ELi20ELi200ELi200EE9advertiseERNS_9PublisherE, .-_ZN
 1181              		.weak	_ZTVN15rosserial_psoc43AdcE
 1182              		.section	.rodata._ZTVN15rosserial_psoc43AdcE,"aG",%progbits,_ZTVN15rosserial_psoc43AdcE,comdat
 1183              		.align	3
 1184              		.type	_ZTVN15rosserial_psoc43AdcE, %object
 1185              		.size	_ZTVN15rosserial_psoc43AdcE, 24
 1186              	_ZTVN15rosserial_psoc43AdcE:
 1187 0000 00000000 		.word	0
 1188 0004 00000000 		.word	0
 1189 0008 00000000 		.word	_ZNK15rosserial_psoc43Adc9serializeEPh
 1190 000c 00000000 		.word	_ZN15rosserial_psoc43Adc11deserializeEPh
 1191 0010 00000000 		.word	_ZN15rosserial_psoc43Adc7getTypeEv
 1192 0014 00000000 		.word	_ZN15rosserial_psoc43Adc6getMD5Ev
 1193              		.weak	_ZTVN3ros3MsgE
 1194              		.section	.rodata._ZTVN3ros3MsgE,"aG",%progbits,_ZTVN3ros3MsgE,comdat
 1195              		.align	3
 1196              		.type	_ZTVN3ros3MsgE, %object
 1197              		.size	_ZTVN3ros3MsgE, 24
 1198              	_ZTVN3ros3MsgE:
 1199 0000 00000000 		.word	0
 1200 0004 00000000 		.word	0
 1201 0008 00000000 		.word	__cxa_pure_virtual
 1202 000c 00000000 		.word	__cxa_pure_virtual
 1203 0010 00000000 		.word	__cxa_pure_virtual
 1204 0014 00000000 		.word	__cxa_pure_virtual
 1205              		.section	.rodata
 1206 0035 000000   		.align	2
 1207              	.LC18:
 1208 0038 61646300 		.ascii	"adc\000"
 1209              		.section	.text._Z41__static_initialization_and_destruction_0ii,"ax",%progbits
 1210              		.align	2
 1211              		.code	16
 1212              		.thumb_func
 1213              		.type	_Z41__static_initialization_and_destruction_0ii, %function
 1214              	_Z41__static_initialization_and_destruction_0ii:
 1215              	.LFB155:
  87:.\ros_lib\examples\ADC/ADC.cpp **** 
  88:.\ros_lib\examples\ADC/ADC.cpp **** } // namespace ADC...
 1216              		.loc 5 88 0
 1217              		.cfi_startproc
 1218 0000 80B5     		push	{r7, lr}
 1219              	.LCFI44:
 1220              		.cfi_def_cfa_offset 8
 1221              		.cfi_offset 7, -8
 1222              		.cfi_offset 14, -4
 1223 0002 82B0     		sub	sp, sp, #8
 1224              	.LCFI45:
 1225              		.cfi_def_cfa_offset 16
 1226 0004 00AF     		add	r7, sp, #0
 1227              	.LCFI46:
 1228              		.cfi_def_cfa_register 7
 1229 0006 7860     		str	r0, [r7, #4]
 1230 0008 3960     		str	r1, [r7]
 1231              		.loc 5 88 0
ARM GAS  C:\DOCUME~1\Chuck\LOCALS~1\Temp\ccE33R2l.s 			page 34


 1232 000a 7B68     		ldr	r3, [r7, #4]
 1233 000c 012B     		cmp	r3, #1
 1234 000e 10D1     		bne	.L62
 1235              		.loc 5 88 0 is_stmt 0 discriminator 1
 1236 0010 3A68     		ldr	r2, [r7]
 1237 0012 094B     		ldr	r3, .L64
 1238 0014 9A42     		cmp	r2, r3
 1239 0016 0CD1     		bne	.L62
  17:.\ros_lib\examples\ADC/ADC.cpp **** rosserial_psoc4::Adc adc_msg;
 1240              		.loc 5 17 0 is_stmt 1
 1241 0018 084B     		ldr	r3, .L64+4
 1242 001a 181C     		mov	r0, r3
 1243 001c FFF7FEFF 		bl	_ZN15rosserial_psoc43AdcC1Ev
  18:.\ros_lib\examples\ADC/ADC.cpp **** ros::Publisher p("adc", &adc_msg);
 1244              		.loc 5 18 0
 1245 0020 0749     		ldr	r1, .L64+8
 1246 0022 084A     		ldr	r2, .L64+12
 1247 0024 054B     		ldr	r3, .L64+4
 1248 0026 081C     		mov	r0, r1
 1249 0028 111C     		mov	r1, r2
 1250 002a 1A1C     		mov	r2, r3
 1251 002c 0023     		mov	r3, #0
 1252 002e FFF7FEFF 		bl	_ZN3ros9PublisherC1EPKcPNS_3MsgEi
 1253              	.L62:
 1254              		.loc 5 88 0
 1255 0032 BD46     		mov	sp, r7
 1256 0034 02B0     		add	sp, sp, #8
 1257              		@ sp needed for prologue
 1258 0036 80BD     		pop	{r7, pc}
 1259              	.L65:
 1260              		.align	2
 1261              	.L64:
 1262 0038 FFFF0000 		.word	65535
 1263 003c 00000000 		.word	_ZN3ADC7adc_msgE
 1264 0040 00000000 		.word	_ZN3ADC1pE
 1265 0044 38000000 		.word	.LC18
 1266              		.cfi_endproc
 1267              	.LFE155:
 1268              		.size	_Z41__static_initialization_and_destruction_0ii, .-_Z41__static_initialization_and_destructi
 1269              		.section	.rodata
 1270              		.align	2
 1271              		.type	_ZN3ADCL17kReportIntervalMsE, %object
 1272              		.size	_ZN3ADCL17kReportIntervalMsE, 4
 1273              	_ZN3ADCL17kReportIntervalMsE:
 1274 003c FA000000 		.word	250
 1275              		.align	2
 1276              		.type	_ZN14rosserial_msgsL12REQUESTPARAME, %object
 1277              		.size	_ZN14rosserial_msgsL12REQUESTPARAME, 28
 1278              	_ZN14rosserial_msgsL12REQUESTPARAME:
 1279 0040 726F7373 		.ascii	"rosserial_msgs/RequestParam\000"
 1279      65726961 
 1279      6C5F6D73 
 1279      67732F52 
 1279      65717565 
 1280              		.section	.text._GLOBAL__sub_I__ZN3ADC7adc_msgE,"ax",%progbits
 1281              		.align	2
 1282              		.code	16
ARM GAS  C:\DOCUME~1\Chuck\LOCALS~1\Temp\ccE33R2l.s 			page 35


 1283              		.thumb_func
 1284              		.type	_GLOBAL__sub_I__ZN3ADC7adc_msgE, %function
 1285              	_GLOBAL__sub_I__ZN3ADC7adc_msgE:
 1286              	.LFB156:
 1287              		.loc 5 88 0
 1288              		.cfi_startproc
 1289 0000 80B5     		push	{r7, lr}
 1290              	.LCFI47:
 1291              		.cfi_def_cfa_offset 8
 1292              		.cfi_offset 7, -8
 1293              		.cfi_offset 14, -4
 1294 0002 00AF     		add	r7, sp, #0
 1295              	.LCFI48:
 1296              		.cfi_def_cfa_register 7
 1297              		.loc 5 88 0
 1298 0004 034B     		ldr	r3, .L67
 1299 0006 0120     		mov	r0, #1
 1300 0008 191C     		mov	r1, r3
 1301 000a FFF7FEFF 		bl	_Z41__static_initialization_and_destruction_0ii
 1302 000e BD46     		mov	sp, r7
 1303              		@ sp needed for prologue
 1304 0010 80BD     		pop	{r7, pc}
 1305              	.L68:
 1306 0012 C046     		.align	2
 1307              	.L67:
 1308 0014 FFFF0000 		.word	65535
 1309              		.cfi_endproc
 1310              	.LFE156:
 1311              		.size	_GLOBAL__sub_I__ZN3ADC7adc_msgE, .-_GLOBAL__sub_I__ZN3ADC7adc_msgE
 1312              		.section	.init_array,"aw",%init_array
 1313              		.align	2
 1314 0000 00000000 		.word	_GLOBAL__sub_I__ZN3ADC7adc_msgE(target1)
 1315              		.text
 1316              	.Letext0:
 1317              		.file 7 "c:\\program files\\cypress\\psoc creator\\3.0\\psoc creator\\import\\gnu_cs\\arm\\4.7.3\\
 1318              		.file 8 "./ros_lib/ros.h"
 1319              		.file 9 "./ros_lib/Psoc4Hardware.h"
 1320              		.file 10 "./Generated_Source/PSoC4/cytypes.h"
 1321              		.file 11 "./ros_lib/rosserial_msgs/TopicInfo.h"
 1322              		.file 12 ".\\ros_lib\\examples\\ADC\\ADC_psoc4.h"
 1323              		.file 13 "./ros_lib/rosserial_msgs/RequestParam.h"
 1324              		.file 14 "./ros_lib/Uarts.h"