ARM GAS  C:\DOCUME~1\Chuck\LOCALS~1\Temp\ccQZlOLh.s 			page 1


   1              		.cpu cortex-m0
   2              		.fpu softvfp
   3              		.eabi_attribute 20, 1
   4              		.eabi_attribute 21, 1
   5              		.eabi_attribute 23, 3
   6              		.eabi_attribute 24, 1
   7              		.eabi_attribute 25, 1
   8              		.eabi_attribute 26, 1
   9              		.eabi_attribute 30, 6
  10              		.eabi_attribute 34, 0
  11              		.eabi_attribute 18, 4
  12              		.code	16
  13              		.file	"ADC_SAR_Seq_1.c"
  14              		.text
  15              	.Ltext0:
  16              		.cfi_sections	.debug_frame
  17              		.global	ADC_SAR_Seq_1_initVar
  18              		.bss
  19              		.type	ADC_SAR_Seq_1_initVar, %object
  20              		.size	ADC_SAR_Seq_1_initVar, 1
  21              	ADC_SAR_Seq_1_initVar:
  22 0000 00       		.space	1
  23              		.comm	ADC_SAR_Seq_1_offset,4,4
  24              		.comm	ADC_SAR_Seq_1_countsPer10Volt,8,4
  25              		.section	.rodata
  26              		.align	2
  27              		.type	ADC_SAR_Seq_1_channelsConfig, %object
  28              		.size	ADC_SAR_Seq_1_channelsConfig, 8
  29              	ADC_SAR_Seq_1_channelsConfig:
  30 0000 00000000 		.space	8
  30      00000000 
  31              		.section	.text.ADC_SAR_Seq_1_Start,"ax",%progbits
  32              		.align	2
  33              		.global	ADC_SAR_Seq_1_Start
  34              		.code	16
  35              		.thumb_func
  36              		.type	ADC_SAR_Seq_1_Start, %function
  37              	ADC_SAR_Seq_1_Start:
  38              	.LFB0:
  39              		.file 1 ".\\Generated_Source\\PSoC4\\ADC_SAR_Seq_1.c"
   1:.\Generated_Source\PSoC4/ADC_SAR_Seq_1.c **** /*******************************************************************************
   2:.\Generated_Source\PSoC4/ADC_SAR_Seq_1.c **** * File Name: ADC_SAR_Seq_1.c
   3:.\Generated_Source\PSoC4/ADC_SAR_Seq_1.c **** * Version 1.10
   4:.\Generated_Source\PSoC4/ADC_SAR_Seq_1.c **** *
   5:.\Generated_Source\PSoC4/ADC_SAR_Seq_1.c **** * Description:
   6:.\Generated_Source\PSoC4/ADC_SAR_Seq_1.c **** *  This file provides the source code to the API for the Sequencing Successive
   7:.\Generated_Source\PSoC4/ADC_SAR_Seq_1.c **** *  Approximation ADC Component Component.
   8:.\Generated_Source\PSoC4/ADC_SAR_Seq_1.c **** *
   9:.\Generated_Source\PSoC4/ADC_SAR_Seq_1.c **** * Note:
  10:.\Generated_Source\PSoC4/ADC_SAR_Seq_1.c **** *
  11:.\Generated_Source\PSoC4/ADC_SAR_Seq_1.c **** ********************************************************************************
  12:.\Generated_Source\PSoC4/ADC_SAR_Seq_1.c **** * Copyright 2008-2013, Cypress Semiconductor Corporation.  All rights reserved.
  13:.\Generated_Source\PSoC4/ADC_SAR_Seq_1.c **** * You may use this file only in accordance with the license, terms, conditions,
  14:.\Generated_Source\PSoC4/ADC_SAR_Seq_1.c **** * disclaimers, and limitations in the end user license agreement accompanying
  15:.\Generated_Source\PSoC4/ADC_SAR_Seq_1.c **** * the software package with which this file was provided.
  16:.\Generated_Source\PSoC4/ADC_SAR_Seq_1.c **** *******************************************************************************/
  17:.\Generated_Source\PSoC4/ADC_SAR_Seq_1.c **** 
ARM GAS  C:\DOCUME~1\Chuck\LOCALS~1\Temp\ccQZlOLh.s 			page 2


  18:.\Generated_Source\PSoC4/ADC_SAR_Seq_1.c **** #include "CyLib.h"
  19:.\Generated_Source\PSoC4/ADC_SAR_Seq_1.c **** #include "ADC_SAR_Seq_1.h"
  20:.\Generated_Source\PSoC4/ADC_SAR_Seq_1.c **** 
  21:.\Generated_Source\PSoC4/ADC_SAR_Seq_1.c **** 
  22:.\Generated_Source\PSoC4/ADC_SAR_Seq_1.c **** /***************************************
  23:.\Generated_Source\PSoC4/ADC_SAR_Seq_1.c **** * Global data allocation
  24:.\Generated_Source\PSoC4/ADC_SAR_Seq_1.c **** ***************************************/
  25:.\Generated_Source\PSoC4/ADC_SAR_Seq_1.c **** uint8 ADC_SAR_Seq_1_initVar = 0u;
  26:.\Generated_Source\PSoC4/ADC_SAR_Seq_1.c **** volatile int16 ADC_SAR_Seq_1_offset[ADC_SAR_Seq_1_TOTAL_CHANNELS_NUM];
  27:.\Generated_Source\PSoC4/ADC_SAR_Seq_1.c **** volatile int32 ADC_SAR_Seq_1_countsPer10Volt[ADC_SAR_Seq_1_TOTAL_CHANNELS_NUM];   /* Gain compensat
  28:.\Generated_Source\PSoC4/ADC_SAR_Seq_1.c **** 
  29:.\Generated_Source\PSoC4/ADC_SAR_Seq_1.c **** 
  30:.\Generated_Source\PSoC4/ADC_SAR_Seq_1.c **** /***************************************
  31:.\Generated_Source\PSoC4/ADC_SAR_Seq_1.c **** * Local data allocation
  32:.\Generated_Source\PSoC4/ADC_SAR_Seq_1.c **** ***************************************/
  33:.\Generated_Source\PSoC4/ADC_SAR_Seq_1.c **** /* Channels configuration generated by customiser */
  34:.\Generated_Source\PSoC4/ADC_SAR_Seq_1.c **** static const uint32 CYCODE ADC_SAR_Seq_1_channelsConfig[] = { 0x00000000u, 0x00000000u };
  35:.\Generated_Source\PSoC4/ADC_SAR_Seq_1.c **** 
  36:.\Generated_Source\PSoC4/ADC_SAR_Seq_1.c **** 
  37:.\Generated_Source\PSoC4/ADC_SAR_Seq_1.c **** /*******************************************************************************
  38:.\Generated_Source\PSoC4/ADC_SAR_Seq_1.c **** * Function Name: ADC_SAR_Seq_1_Start
  39:.\Generated_Source\PSoC4/ADC_SAR_Seq_1.c **** ********************************************************************************
  40:.\Generated_Source\PSoC4/ADC_SAR_Seq_1.c **** *
  41:.\Generated_Source\PSoC4/ADC_SAR_Seq_1.c **** * Summary:
  42:.\Generated_Source\PSoC4/ADC_SAR_Seq_1.c **** *  Performs all required initialization for this component
  43:.\Generated_Source\PSoC4/ADC_SAR_Seq_1.c **** *  and enables the power. The power will be set to the appropriate
  44:.\Generated_Source\PSoC4/ADC_SAR_Seq_1.c **** *  power based on the clock frequency.
  45:.\Generated_Source\PSoC4/ADC_SAR_Seq_1.c **** *
  46:.\Generated_Source\PSoC4/ADC_SAR_Seq_1.c **** * Parameters:
  47:.\Generated_Source\PSoC4/ADC_SAR_Seq_1.c **** *  None.
  48:.\Generated_Source\PSoC4/ADC_SAR_Seq_1.c **** *
  49:.\Generated_Source\PSoC4/ADC_SAR_Seq_1.c **** * Return:
  50:.\Generated_Source\PSoC4/ADC_SAR_Seq_1.c **** *  None.
  51:.\Generated_Source\PSoC4/ADC_SAR_Seq_1.c **** *
  52:.\Generated_Source\PSoC4/ADC_SAR_Seq_1.c **** * Global variables:
  53:.\Generated_Source\PSoC4/ADC_SAR_Seq_1.c **** *  The ADC_SAR_Seq_1_initVar variable is used to indicate when/if initial
  54:.\Generated_Source\PSoC4/ADC_SAR_Seq_1.c **** *  configuration of this component has happened. The variable is initialized to
  55:.\Generated_Source\PSoC4/ADC_SAR_Seq_1.c **** *  zero and set to 1 the first time ADC_Start() is called. This allows for
  56:.\Generated_Source\PSoC4/ADC_SAR_Seq_1.c **** *  component Re-Start without re-initialization in all subsequent calls to the
  57:.\Generated_Source\PSoC4/ADC_SAR_Seq_1.c **** *  ADC_SAR_Seq_1_Start() routine.
  58:.\Generated_Source\PSoC4/ADC_SAR_Seq_1.c **** *  If re-initialization of the component is required the variable should be set
  59:.\Generated_Source\PSoC4/ADC_SAR_Seq_1.c **** *  to zero before call of ADC_SAR_Seq_1_Start() routine, or the user may call
  60:.\Generated_Source\PSoC4/ADC_SAR_Seq_1.c **** *  ADC_SAR_Seq_1_Init() and ADC_SAR_Seq_1_Enable() as done in the
  61:.\Generated_Source\PSoC4/ADC_SAR_Seq_1.c **** *  ADC_SAR_Seq_1_Start() routine.
  62:.\Generated_Source\PSoC4/ADC_SAR_Seq_1.c **** *
  63:.\Generated_Source\PSoC4/ADC_SAR_Seq_1.c **** *******************************************************************************/
  64:.\Generated_Source\PSoC4/ADC_SAR_Seq_1.c **** void ADC_SAR_Seq_1_Start(void)
  65:.\Generated_Source\PSoC4/ADC_SAR_Seq_1.c **** {
  40              		.loc 1 65 0
  41              		.cfi_startproc
  42 0000 80B5     		push	{r7, lr}
  43              	.LCFI0:
  44              		.cfi_def_cfa_offset 8
  45              		.cfi_offset 7, -8
  46              		.cfi_offset 14, -4
  47 0002 00AF     		add	r7, sp, #0
  48              	.LCFI1:
ARM GAS  C:\DOCUME~1\Chuck\LOCALS~1\Temp\ccQZlOLh.s 			page 3


  49              		.cfi_def_cfa_register 7
  66:.\Generated_Source\PSoC4/ADC_SAR_Seq_1.c ****     /* If not Initialized then initialize all required hardware and software */
  67:.\Generated_Source\PSoC4/ADC_SAR_Seq_1.c ****     if(ADC_SAR_Seq_1_initVar == 0u)
  50              		.loc 1 67 0
  51 0004 064B     		ldr	r3, .L3
  52 0006 1B78     		ldrb	r3, [r3]
  53 0008 002B     		cmp	r3, #0
  54 000a 04D1     		bne	.L2
  68:.\Generated_Source\PSoC4/ADC_SAR_Seq_1.c ****     {
  69:.\Generated_Source\PSoC4/ADC_SAR_Seq_1.c ****         ADC_SAR_Seq_1_Init();
  55              		.loc 1 69 0
  56 000c FFF7FEFF 		bl	ADC_SAR_Seq_1_Init
  70:.\Generated_Source\PSoC4/ADC_SAR_Seq_1.c ****         ADC_SAR_Seq_1_initVar = 1u;
  57              		.loc 1 70 0
  58 0010 034B     		ldr	r3, .L3
  59 0012 0122     		mov	r2, #1
  60 0014 1A70     		strb	r2, [r3]
  61              	.L2:
  71:.\Generated_Source\PSoC4/ADC_SAR_Seq_1.c ****     }
  72:.\Generated_Source\PSoC4/ADC_SAR_Seq_1.c ****     ADC_SAR_Seq_1_Enable();
  62              		.loc 1 72 0
  63 0016 FFF7FEFF 		bl	ADC_SAR_Seq_1_Enable
  73:.\Generated_Source\PSoC4/ADC_SAR_Seq_1.c **** }
  64              		.loc 1 73 0
  65 001a BD46     		mov	sp, r7
  66              		@ sp needed for prologue
  67 001c 80BD     		pop	{r7, pc}
  68              	.L4:
  69 001e C046     		.align	2
  70              	.L3:
  71 0020 00000000 		.word	ADC_SAR_Seq_1_initVar
  72              		.cfi_endproc
  73              	.LFE0:
  74              		.size	ADC_SAR_Seq_1_Start, .-ADC_SAR_Seq_1_Start
  75              		.section	.text.ADC_SAR_Seq_1_Init,"ax",%progbits
  76              		.align	2
  77              		.global	ADC_SAR_Seq_1_Init
  78              		.code	16
  79              		.thumb_func
  80              		.type	ADC_SAR_Seq_1_Init, %function
  81              	ADC_SAR_Seq_1_Init:
  82              	.LFB1:
  74:.\Generated_Source\PSoC4/ADC_SAR_Seq_1.c **** 
  75:.\Generated_Source\PSoC4/ADC_SAR_Seq_1.c **** 
  76:.\Generated_Source\PSoC4/ADC_SAR_Seq_1.c **** /*******************************************************************************
  77:.\Generated_Source\PSoC4/ADC_SAR_Seq_1.c **** * Function Name: ADC_SAR_Seq_1_Init
  78:.\Generated_Source\PSoC4/ADC_SAR_Seq_1.c **** ********************************************************************************
  79:.\Generated_Source\PSoC4/ADC_SAR_Seq_1.c **** *
  80:.\Generated_Source\PSoC4/ADC_SAR_Seq_1.c **** * Summary:
  81:.\Generated_Source\PSoC4/ADC_SAR_Seq_1.c **** *  Initialize component's parameters to the parameters set by user in the
  82:.\Generated_Source\PSoC4/ADC_SAR_Seq_1.c **** *  customizer of the component placed onto schematic. Usually called in
  83:.\Generated_Source\PSoC4/ADC_SAR_Seq_1.c **** *  ADC_SAR_Seq_1_Start().
  84:.\Generated_Source\PSoC4/ADC_SAR_Seq_1.c **** *
  85:.\Generated_Source\PSoC4/ADC_SAR_Seq_1.c **** * Parameters:
  86:.\Generated_Source\PSoC4/ADC_SAR_Seq_1.c **** *  None.
  87:.\Generated_Source\PSoC4/ADC_SAR_Seq_1.c **** *
  88:.\Generated_Source\PSoC4/ADC_SAR_Seq_1.c **** * Return:
ARM GAS  C:\DOCUME~1\Chuck\LOCALS~1\Temp\ccQZlOLh.s 			page 4


  89:.\Generated_Source\PSoC4/ADC_SAR_Seq_1.c **** *  None.
  90:.\Generated_Source\PSoC4/ADC_SAR_Seq_1.c **** *
  91:.\Generated_Source\PSoC4/ADC_SAR_Seq_1.c **** * Global variables:
  92:.\Generated_Source\PSoC4/ADC_SAR_Seq_1.c **** *  The ADC_SAR_Seq_1_offset variable is initialized.
  93:.\Generated_Source\PSoC4/ADC_SAR_Seq_1.c **** *
  94:.\Generated_Source\PSoC4/ADC_SAR_Seq_1.c **** *******************************************************************************/
  95:.\Generated_Source\PSoC4/ADC_SAR_Seq_1.c **** void ADC_SAR_Seq_1_Init(void)
  96:.\Generated_Source\PSoC4/ADC_SAR_Seq_1.c **** {
  83              		.loc 1 96 0
  84              		.cfi_startproc
  85 0000 90B5     		push	{r4, r7, lr}
  86              	.LCFI2:
  87              		.cfi_def_cfa_offset 12
  88              		.cfi_offset 4, -12
  89              		.cfi_offset 7, -8
  90              		.cfi_offset 14, -4
  91 0002 85B0     		sub	sp, sp, #20
  92              	.LCFI3:
  93              		.cfi_def_cfa_offset 32
  94 0004 00AF     		add	r7, sp, #0
  95              	.LCFI4:
  96              		.cfi_def_cfa_register 7
  97:.\Generated_Source\PSoC4/ADC_SAR_Seq_1.c ****     uint32 chNum;
  98:.\Generated_Source\PSoC4/ADC_SAR_Seq_1.c ****     uint32 tmpRegVal;
  99:.\Generated_Source\PSoC4/ADC_SAR_Seq_1.c ****     int32 counts;
 100:.\Generated_Source\PSoC4/ADC_SAR_Seq_1.c **** 
 101:.\Generated_Source\PSoC4/ADC_SAR_Seq_1.c ****     #if(ADC_SAR_Seq_1_TOTAL_CHANNELS_NUM > 1u)
 102:.\Generated_Source\PSoC4/ADC_SAR_Seq_1.c ****         static const uint8 CYCODE ADC_SAR_Seq_1_InputsPlacement[] =
 103:.\Generated_Source\PSoC4/ADC_SAR_Seq_1.c ****         {
 104:.\Generated_Source\PSoC4/ADC_SAR_Seq_1.c ****             (uint8)(ADC_SAR_Seq_1_cy_psoc4_sarmux_8__CH_0_PORT << 4u) |
 105:.\Generated_Source\PSoC4/ADC_SAR_Seq_1.c ****             (uint8)ADC_SAR_Seq_1_cy_psoc4_sarmux_8__CH_0_PIN
 106:.\Generated_Source\PSoC4/ADC_SAR_Seq_1.c ****             ,(uint8)(ADC_SAR_Seq_1_cy_psoc4_sarmux_8__CH_1_PORT << 4u) |
 107:.\Generated_Source\PSoC4/ADC_SAR_Seq_1.c ****              (uint8)ADC_SAR_Seq_1_cy_psoc4_sarmux_8__CH_1_PIN
 108:.\Generated_Source\PSoC4/ADC_SAR_Seq_1.c ****             #if(ADC_SAR_Seq_1_TOTAL_CHANNELS_NUM > 2u)
 109:.\Generated_Source\PSoC4/ADC_SAR_Seq_1.c ****                 ,(uint8)(ADC_SAR_Seq_1_cy_psoc4_sarmux_8__CH_2_PORT << 4u) |
 110:.\Generated_Source\PSoC4/ADC_SAR_Seq_1.c ****                  (uint8)ADC_SAR_Seq_1_cy_psoc4_sarmux_8__CH_2_PIN
 111:.\Generated_Source\PSoC4/ADC_SAR_Seq_1.c ****             #endif /* End ADC_SAR_Seq_1_TOTAL_CHANNELS_NUM > 2u */
 112:.\Generated_Source\PSoC4/ADC_SAR_Seq_1.c ****             #if(ADC_SAR_Seq_1_TOTAL_CHANNELS_NUM > 3u)
 113:.\Generated_Source\PSoC4/ADC_SAR_Seq_1.c ****                 ,(uint8)(ADC_SAR_Seq_1_cy_psoc4_sarmux_8__CH_3_PORT << 4u) |
 114:.\Generated_Source\PSoC4/ADC_SAR_Seq_1.c ****                  (uint8)ADC_SAR_Seq_1_cy_psoc4_sarmux_8__CH_3_PIN
 115:.\Generated_Source\PSoC4/ADC_SAR_Seq_1.c ****             #endif /* End ADC_SAR_Seq_1_TOTAL_CHANNELS_NUM > 3u */
 116:.\Generated_Source\PSoC4/ADC_SAR_Seq_1.c ****             #if(ADC_SAR_Seq_1_TOTAL_CHANNELS_NUM > 4u)
 117:.\Generated_Source\PSoC4/ADC_SAR_Seq_1.c ****                 ,(uint8)(ADC_SAR_Seq_1_cy_psoc4_sarmux_8__CH_4_PORT << 4u) |
 118:.\Generated_Source\PSoC4/ADC_SAR_Seq_1.c ****                  (uint8)ADC_SAR_Seq_1_cy_psoc4_sarmux_8__CH_4_PIN
 119:.\Generated_Source\PSoC4/ADC_SAR_Seq_1.c ****             #endif /* End ADC_SAR_Seq_1_TOTAL_CHANNELS_NUM > 4u */
 120:.\Generated_Source\PSoC4/ADC_SAR_Seq_1.c ****             #if(ADC_SAR_Seq_1_TOTAL_CHANNELS_NUM > 5u)
 121:.\Generated_Source\PSoC4/ADC_SAR_Seq_1.c ****                 ,(uint8)(ADC_SAR_Seq_1_cy_psoc4_sarmux_8__CH_5_PORT << 4u) |
 122:.\Generated_Source\PSoC4/ADC_SAR_Seq_1.c ****                  (uint8)ADC_SAR_Seq_1_cy_psoc4_sarmux_8__CH_5_PIN
 123:.\Generated_Source\PSoC4/ADC_SAR_Seq_1.c ****             #endif /* End ADC_SAR_Seq_1_TOTAL_CHANNELS_NUM > 5u */
 124:.\Generated_Source\PSoC4/ADC_SAR_Seq_1.c ****             #if(ADC_SAR_Seq_1_TOTAL_CHANNELS_NUM > 6u)
 125:.\Generated_Source\PSoC4/ADC_SAR_Seq_1.c ****                 ,(uint8)(ADC_SAR_Seq_1_cy_psoc4_sarmux_8__CH_6_PORT << 4u) |
 126:.\Generated_Source\PSoC4/ADC_SAR_Seq_1.c ****                  (uint8)ADC_SAR_Seq_1_cy_psoc4_sarmux_8__CH_6_PIN
 127:.\Generated_Source\PSoC4/ADC_SAR_Seq_1.c ****             #endif /* End ADC_SAR_Seq_1_TOTAL_CHANNELS_NUM > 6u */
 128:.\Generated_Source\PSoC4/ADC_SAR_Seq_1.c ****             #if(ADC_SAR_Seq_1_TOTAL_CHANNELS_NUM > 7u)
 129:.\Generated_Source\PSoC4/ADC_SAR_Seq_1.c ****                 ,(uint8)(ADC_SAR_Seq_1_cy_psoc4_sarmux_8__CH_7_PORT << 4u) |
 130:.\Generated_Source\PSoC4/ADC_SAR_Seq_1.c ****                  (uint8)ADC_SAR_Seq_1_cy_psoc4_sarmux_8__CH_7_PIN
 131:.\Generated_Source\PSoC4/ADC_SAR_Seq_1.c ****             #endif /* End ADC_SAR_Seq_1_TOTAL_CHANNELS_NUM > 7u */
ARM GAS  C:\DOCUME~1\Chuck\LOCALS~1\Temp\ccQZlOLh.s 			page 5


 132:.\Generated_Source\PSoC4/ADC_SAR_Seq_1.c ****             #if(ADC_SAR_Seq_1_TOTAL_CHANNELS_NUM > 8u)
 133:.\Generated_Source\PSoC4/ADC_SAR_Seq_1.c ****                 ,(uint8)(ADC_SAR_Seq_1_cy_psoc4_sarmux_8__CH_8_PORT << 4u) |
 134:.\Generated_Source\PSoC4/ADC_SAR_Seq_1.c ****                  (uint8)ADC_SAR_Seq_1_cy_psoc4_sarmux_8__CH_8_PIN
 135:.\Generated_Source\PSoC4/ADC_SAR_Seq_1.c ****             #endif /* End ADC_SAR_Seq_1_TOTAL_CHANNELS_NUM > 8u */
 136:.\Generated_Source\PSoC4/ADC_SAR_Seq_1.c ****         };
 137:.\Generated_Source\PSoC4/ADC_SAR_Seq_1.c ****     #endif /* End ADC_SAR_Seq_1_TOTAL_CHANNELS_NUM > 1u */
 138:.\Generated_Source\PSoC4/ADC_SAR_Seq_1.c **** 
 139:.\Generated_Source\PSoC4/ADC_SAR_Seq_1.c ****     #if(ADC_SAR_Seq_1_IRQ_REMOVE == 0u)
 140:.\Generated_Source\PSoC4/ADC_SAR_Seq_1.c ****         /* Start and set interrupt vector */
 141:.\Generated_Source\PSoC4/ADC_SAR_Seq_1.c ****         CyIntSetPriority(ADC_SAR_Seq_1_INTC_NUMBER, ADC_SAR_Seq_1_INTC_PRIOR_NUMBER);
  97              		.loc 1 141 0
  98 0006 0E20     		mov	r0, #14
  99 0008 0321     		mov	r1, #3
 100 000a FFF7FEFF 		bl	CyIntSetPriority
 142:.\Generated_Source\PSoC4/ADC_SAR_Seq_1.c ****         (void)CyIntSetVector(ADC_SAR_Seq_1_INTC_NUMBER, &ADC_SAR_Seq_1_ISR);
 101              		.loc 1 142 0
 102 000e 5B4B     		ldr	r3, .L15
 103 0010 0E20     		mov	r0, #14
 104 0012 191C     		mov	r1, r3
 105 0014 FFF7FEFF 		bl	CyIntSetVector
 143:.\Generated_Source\PSoC4/ADC_SAR_Seq_1.c ****     #endif   /* End ADC_SAR_Seq_1_IRQ_REMOVE */
 144:.\Generated_Source\PSoC4/ADC_SAR_Seq_1.c **** 
 145:.\Generated_Source\PSoC4/ADC_SAR_Seq_1.c ****     /* Init SAR and MUX registers */
 146:.\Generated_Source\PSoC4/ADC_SAR_Seq_1.c ****     ADC_SAR_Seq_1_SAR_CHAN_EN_REG = ADC_SAR_Seq_1_DEFAULT_EN_CHANNELS;
 106              		.loc 1 146 0
 107 0018 594B     		ldr	r3, .L15+4
 108 001a 0322     		mov	r2, #3
 109 001c 1A60     		str	r2, [r3]
 147:.\Generated_Source\PSoC4/ADC_SAR_Seq_1.c ****     ADC_SAR_Seq_1_SAR_CTRL_REG = ADC_SAR_Seq_1_DEFAULT_CTRL_REG_CFG;
 110              		.loc 1 147 0
 111 001e 594B     		ldr	r3, .L15+8
 112 0020 594A     		ldr	r2, .L15+12
 113 0022 1A60     		str	r2, [r3]
 148:.\Generated_Source\PSoC4/ADC_SAR_Seq_1.c ****     ADC_SAR_Seq_1_SAR_SAMPLE_CTRL_REG = ADC_SAR_Seq_1_DEFAULT_SAMPLE_CTRL_REG_CFG;
 114              		.loc 1 148 0
 115 0024 594B     		ldr	r3, .L15+16
 116 0026 5A4A     		ldr	r2, .L15+20
 117 0028 1A60     		str	r2, [r3]
 149:.\Generated_Source\PSoC4/ADC_SAR_Seq_1.c ****     ADC_SAR_Seq_1_SAR_RANGE_THRES_REG = ADC_SAR_Seq_1_DEFAULT_RANGE_THRES_REG_CFG;
 118              		.loc 1 149 0
 119 002a 5A4B     		ldr	r3, .L15+24
 120 002c 5A4A     		ldr	r2, .L15+28
 121 002e 1A60     		str	r2, [r3]
 150:.\Generated_Source\PSoC4/ADC_SAR_Seq_1.c ****     ADC_SAR_Seq_1_SAR_RANGE_COND_REG  = ADC_SAR_Seq_1_COMPARE_MODE;
 122              		.loc 1 150 0
 123 0030 5A4B     		ldr	r3, .L15+32
 124 0032 0022     		mov	r2, #0
 125 0034 1A60     		str	r2, [r3]
 151:.\Generated_Source\PSoC4/ADC_SAR_Seq_1.c ****     ADC_SAR_Seq_1_SAR_SAMPLE_TIME01_REG = ADC_SAR_Seq_1_DEFAULT_SAMPLE_TIME01_REG_CFG;
 126              		.loc 1 151 0
 127 0036 5A4B     		ldr	r3, .L15+36
 128 0038 5A4A     		ldr	r2, .L15+40
 129 003a 1A60     		str	r2, [r3]
 152:.\Generated_Source\PSoC4/ADC_SAR_Seq_1.c ****     ADC_SAR_Seq_1_SAR_SAMPLE_TIME23_REG = ADC_SAR_Seq_1_DEFAULT_SAMPLE_TIME23_REG_CFG;
 130              		.loc 1 152 0
 131 003c 5A4B     		ldr	r3, .L15+44
 132 003e 594A     		ldr	r2, .L15+40
ARM GAS  C:\DOCUME~1\Chuck\LOCALS~1\Temp\ccQZlOLh.s 			page 6


 133 0040 1A60     		str	r2, [r3]
 153:.\Generated_Source\PSoC4/ADC_SAR_Seq_1.c ****     /* Connect Vm to VSSA when even one channel is single-ended or multiple channels configured */
 154:.\Generated_Source\PSoC4/ADC_SAR_Seq_1.c ****     #if(ADC_SAR_Seq_1_DEFAULT_MUX_SWITCH0 != 0u)
 155:.\Generated_Source\PSoC4/ADC_SAR_Seq_1.c ****         ADC_SAR_Seq_1_MUX_SWITCH0_REG |= ADC_SAR_Seq_1_DEFAULT_MUX_SWITCH0; 
 134              		.loc 1 155 0
 135 0042 5A4B     		ldr	r3, .L15+48
 136 0044 594A     		ldr	r2, .L15+48
 137 0046 1268     		ldr	r2, [r2]
 138 0048 8021     		mov	r1, #128
 139 004a 4902     		lsl	r1, r1, #9
 140 004c 0A43     		orr	r2, r1
 141 004e 1A60     		str	r2, [r3]
 156:.\Generated_Source\PSoC4/ADC_SAR_Seq_1.c ****         /* Set MUX_HW_CTRL_VSSA in MUX_SWITCH_HW_CTRL when multiple channels enabled */
 157:.\Generated_Source\PSoC4/ADC_SAR_Seq_1.c ****         #if(ADC_SAR_Seq_1_TOTAL_CHANNELS_NUM > 1u)
 158:.\Generated_Source\PSoC4/ADC_SAR_Seq_1.c ****             ADC_SAR_Seq_1_MUX_SWITCH_HW_CTRL_REG |= ADC_SAR_Seq_1_DEFAULT_MUX_SWITCH0; 
 142              		.loc 1 158 0
 143 0050 574B     		ldr	r3, .L15+52
 144 0052 574A     		ldr	r2, .L15+52
 145 0054 1268     		ldr	r2, [r2]
 146 0056 8021     		mov	r1, #128
 147 0058 4902     		lsl	r1, r1, #9
 148 005a 0A43     		orr	r2, r1
 149 005c 1A60     		str	r2, [r3]
 159:.\Generated_Source\PSoC4/ADC_SAR_Seq_1.c ****         #endif /* ADC_SAR_Seq_1_TOTAL_CHANNELS_NUM > 1u */
 160:.\Generated_Source\PSoC4/ADC_SAR_Seq_1.c ****     #endif /*ADC_SAR_Seq_1_CHANNELS_MODE !=0 */    
 161:.\Generated_Source\PSoC4/ADC_SAR_Seq_1.c **** 
 162:.\Generated_Source\PSoC4/ADC_SAR_Seq_1.c ****     ADC_SAR_Seq_1_SAR_SATURATE_INTR_MASK_REG = 0u;
 150              		.loc 1 162 0
 151 005e 554B     		ldr	r3, .L15+56
 152 0060 0022     		mov	r2, #0
 153 0062 1A60     		str	r2, [r3]
 163:.\Generated_Source\PSoC4/ADC_SAR_Seq_1.c ****     ADC_SAR_Seq_1_SAR_RANGE_INTR_MASK_REG = 0u;
 154              		.loc 1 163 0
 155 0064 544B     		ldr	r3, .L15+60
 156 0066 0022     		mov	r2, #0
 157 0068 1A60     		str	r2, [r3]
 164:.\Generated_Source\PSoC4/ADC_SAR_Seq_1.c ****     ADC_SAR_Seq_1_SAR_INTR_MASK_REG = ADC_SAR_Seq_1_SAR_INTR_MASK;
 158              		.loc 1 164 0
 159 006a 544B     		ldr	r3, .L15+64
 160 006c 0122     		mov	r2, #1
 161 006e 1A60     		str	r2, [r3]
 165:.\Generated_Source\PSoC4/ADC_SAR_Seq_1.c ****     ADC_SAR_Seq_1_ANA_TRIM_REG = ADC_SAR_Seq_1_TRIM_COEF;
 162              		.loc 1 165 0
 163 0070 534B     		ldr	r3, .L15+68
 164 0072 0222     		mov	r2, #2
 165 0074 1A60     		str	r2, [r3]
 166:.\Generated_Source\PSoC4/ADC_SAR_Seq_1.c ****     
 167:.\Generated_Source\PSoC4/ADC_SAR_Seq_1.c ****     /* Read and modify default configuration based on characterization */
 168:.\Generated_Source\PSoC4/ADC_SAR_Seq_1.c ****     tmpRegVal = ADC_SAR_Seq_1_SAR_DFT_CTRL_REG;
 166              		.loc 1 168 0
 167 0076 534B     		ldr	r3, .L15+72
 168 0078 1B68     		ldr	r3, [r3]
 169 007a 7B60     		str	r3, [r7, #4]
 169:.\Generated_Source\PSoC4/ADC_SAR_Seq_1.c ****     #if(ADC_SAR_Seq_1_NOMINAL_CLOCK_FREQ > (ADC_SAR_Seq_1_MAX_FREQUENCY / 2))
 170:.\Generated_Source\PSoC4/ADC_SAR_Seq_1.c ****         tmpRegVal &= (uint32)~ADC_SAR_Seq_1_DCEN;
 171:.\Generated_Source\PSoC4/ADC_SAR_Seq_1.c ****         tmpRegVal |= ADC_SAR_Seq_1_SEL_CSEL_DFT_CHAR;
 172:.\Generated_Source\PSoC4/ADC_SAR_Seq_1.c ****     #else  /* clock speed < 9 Mhz */  
ARM GAS  C:\DOCUME~1\Chuck\LOCALS~1\Temp\ccQZlOLh.s 			page 7


 173:.\Generated_Source\PSoC4/ADC_SAR_Seq_1.c ****         tmpRegVal |= ADC_SAR_Seq_1_DLY_INC;
 170              		.loc 1 173 0
 171 007c 7B68     		ldr	r3, [r7, #4]
 172 007e 0122     		mov	r2, #1
 173 0080 1343     		orr	r3, r2
 174 0082 7B60     		str	r3, [r7, #4]
 174:.\Generated_Source\PSoC4/ADC_SAR_Seq_1.c ****     #endif /* clock speed > 9 Mhz */
 175:.\Generated_Source\PSoC4/ADC_SAR_Seq_1.c ****     ADC_SAR_Seq_1_SAR_DFT_CTRL_REG = tmpRegVal;
 175              		.loc 1 175 0
 176 0084 4F4B     		ldr	r3, .L15+72
 177 0086 7A68     		ldr	r2, [r7, #4]
 178 0088 1A60     		str	r2, [r3]
 176:.\Generated_Source\PSoC4/ADC_SAR_Seq_1.c ****     
 177:.\Generated_Source\PSoC4/ADC_SAR_Seq_1.c ****     #if(ADC_SAR_Seq_1_MAX_RESOLUTION != ADC_SAR_Seq_1_RESOLUTION_12)
 178:.\Generated_Source\PSoC4/ADC_SAR_Seq_1.c ****         ADC_SAR_Seq_1_WOUNDING_REG = ADC_SAR_Seq_1_ALT_WOUNDING;
 179:.\Generated_Source\PSoC4/ADC_SAR_Seq_1.c ****     #endif /* ADC_SAR_Seq_1_MAX_RESOLUTION != ADC_SAR_Seq_1_RESOLUTION_12 */
 180:.\Generated_Source\PSoC4/ADC_SAR_Seq_1.c **** 
 181:.\Generated_Source\PSoC4/ADC_SAR_Seq_1.c ****     for(chNum = 0u; chNum < ADC_SAR_Seq_1_TOTAL_CHANNELS_NUM; chNum++)
 179              		.loc 1 181 0
 180 008a 0023     		mov	r3, #0
 181 008c FB60     		str	r3, [r7, #12]
 182 008e 6EE0     		b	.L6
 183              	.L14:
 182:.\Generated_Source\PSoC4/ADC_SAR_Seq_1.c ****     {
 183:.\Generated_Source\PSoC4/ADC_SAR_Seq_1.c ****         tmpRegVal = (ADC_SAR_Seq_1_channelsConfig[chNum] & ADC_SAR_Seq_1_CHANNEL_CONFIG_MASK);
 184              		.loc 1 183 0
 185 0090 4D4B     		ldr	r3, .L15+76
 186 0092 FA68     		ldr	r2, [r7, #12]
 187 0094 9200     		lsl	r2, r2, #2
 188 0096 D258     		ldr	r2, [r2, r3]
 189 0098 DC23     		mov	r3, #220
 190 009a 9B01     		lsl	r3, r3, #6
 191 009c 1340     		and	r3, r2
 192 009e 7B60     		str	r3, [r7, #4]
 184:.\Generated_Source\PSoC4/ADC_SAR_Seq_1.c ****         #if(ADC_SAR_Seq_1_TOTAL_CHANNELS_NUM > 1u)
 185:.\Generated_Source\PSoC4/ADC_SAR_Seq_1.c ****             tmpRegVal |= ADC_SAR_Seq_1_InputsPlacement[chNum];
 193              		.loc 1 185 0
 194 00a0 4A4A     		ldr	r2, .L15+80
 195 00a2 FB68     		ldr	r3, [r7, #12]
 196 00a4 D318     		add	r3, r2, r3
 197 00a6 1B78     		ldrb	r3, [r3]
 198 00a8 7A68     		ldr	r2, [r7, #4]
 199 00aa 1343     		orr	r3, r2
 200 00ac 7B60     		str	r3, [r7, #4]
 186:.\Generated_Source\PSoC4/ADC_SAR_Seq_1.c ****         #endif /* End ADC_SAR_Seq_1_TOTAL_CHANNELS_NUM > 1u */
 187:.\Generated_Source\PSoC4/ADC_SAR_Seq_1.c ****         /* When the part is wounded to 10-bit then the SUB_RESOLUTION bit 
 188:.\Generated_Source\PSoC4/ADC_SAR_Seq_1.c ****         *  will be ignored and the RESOLUTION bit selects between 10-bit 
 189:.\Generated_Source\PSoC4/ADC_SAR_Seq_1.c ****         *  (0) and 8-bit (1) resolution.
 190:.\Generated_Source\PSoC4/ADC_SAR_Seq_1.c ****         */
 191:.\Generated_Source\PSoC4/ADC_SAR_Seq_1.c ****         #if((ADC_SAR_Seq_1_MAX_RESOLUTION != ADC_SAR_Seq_1_RESOLUTION_12) && \
 192:.\Generated_Source\PSoC4/ADC_SAR_Seq_1.c ****             (ADC_SAR_Seq_1_ALT_WOUNDING == ADC_SAR_Seq_1_WOUNDING_10BIT))
 193:.\Generated_Source\PSoC4/ADC_SAR_Seq_1.c ****             tmpRegVal &= (uint32)(~ADC_SAR_Seq_1_ALT_RESOLUTION_ON);
 194:.\Generated_Source\PSoC4/ADC_SAR_Seq_1.c ****         #endif /* ADC_SAR_Seq_1_MAX_RESOLUTION != ADC_SAR_Seq_1_RESOLUTION_12 */
 195:.\Generated_Source\PSoC4/ADC_SAR_Seq_1.c **** 
 196:.\Generated_Source\PSoC4/ADC_SAR_Seq_1.c ****         #if(ADC_SAR_Seq_1_INJ_CHANNEL_ENABLED)
 197:.\Generated_Source\PSoC4/ADC_SAR_Seq_1.c ****         if(chNum < ADC_SAR_Seq_1_SEQUENCED_CHANNELS_NUM)
 198:.\Generated_Source\PSoC4/ADC_SAR_Seq_1.c ****         #endif /* ADC_SAR_Seq_1_INJ_CHANNEL_ENABLED */
ARM GAS  C:\DOCUME~1\Chuck\LOCALS~1\Temp\ccQZlOLh.s 			page 8


 199:.\Generated_Source\PSoC4/ADC_SAR_Seq_1.c ****         {
 200:.\Generated_Source\PSoC4/ADC_SAR_Seq_1.c ****             CY_SET_REG32((reg32 *)(ADC_SAR_Seq_1_SAR_CHAN_CONFIG_IND + (uint32)(chNum << 2)), tmpRe
 201              		.loc 1 200 0
 202 00ae FB68     		ldr	r3, [r7, #12]
 203 00b0 9B00     		lsl	r3, r3, #2
 204 00b2 474A     		ldr	r2, .L15+84
 205 00b4 9B18     		add	r3, r3, r2
 206 00b6 7A68     		ldr	r2, [r7, #4]
 207 00b8 1A60     		str	r2, [r3]
 201:.\Generated_Source\PSoC4/ADC_SAR_Seq_1.c **** 
 202:.\Generated_Source\PSoC4/ADC_SAR_Seq_1.c ****             if((ADC_SAR_Seq_1_channelsConfig[chNum] & ADC_SAR_Seq_1_IS_SATURATE_EN_MASK) != 0u)
 208              		.loc 1 202 0
 209 00ba 434B     		ldr	r3, .L15+76
 210 00bc FA68     		ldr	r2, [r7, #12]
 211 00be 9200     		lsl	r2, r2, #2
 212 00c0 D258     		ldr	r2, [r2, r3]
 213 00c2 0123     		mov	r3, #1
 214 00c4 1340     		and	r3, r2
 215 00c6 0AD0     		beq	.L7
 203:.\Generated_Source\PSoC4/ADC_SAR_Seq_1.c ****             {
 204:.\Generated_Source\PSoC4/ADC_SAR_Seq_1.c ****                 ADC_SAR_Seq_1_SAR_SATURATE_INTR_MASK_REG |= (uint16)((uint16)1 << chNum);
 216              		.loc 1 204 0
 217 00c8 3A4B     		ldr	r3, .L15+56
 218 00ca 3A4A     		ldr	r2, .L15+56
 219 00cc 1168     		ldr	r1, [r2]
 220 00ce FA68     		ldr	r2, [r7, #12]
 221 00d0 0120     		mov	r0, #1
 222 00d2 041C     		mov	r4, r0
 223 00d4 9440     		lsl	r4, r4, r2
 224 00d6 221C     		mov	r2, r4
 225 00d8 92B2     		uxth	r2, r2
 226 00da 0A43     		orr	r2, r1
 227 00dc 1A60     		str	r2, [r3]
 228              	.L7:
 205:.\Generated_Source\PSoC4/ADC_SAR_Seq_1.c ****             }
 206:.\Generated_Source\PSoC4/ADC_SAR_Seq_1.c **** 
 207:.\Generated_Source\PSoC4/ADC_SAR_Seq_1.c ****             if((ADC_SAR_Seq_1_channelsConfig[chNum] & ADC_SAR_Seq_1_IS_RANGE_CTRL_EN_MASK) != 0u)
 229              		.loc 1 207 0
 230 00de 3A4B     		ldr	r3, .L15+76
 231 00e0 FA68     		ldr	r2, [r7, #12]
 232 00e2 9200     		lsl	r2, r2, #2
 233 00e4 D258     		ldr	r2, [r2, r3]
 234 00e6 0223     		mov	r3, #2
 235 00e8 1340     		and	r3, r2
 236 00ea 0AD0     		beq	.L8
 208:.\Generated_Source\PSoC4/ADC_SAR_Seq_1.c ****             {
 209:.\Generated_Source\PSoC4/ADC_SAR_Seq_1.c ****                 ADC_SAR_Seq_1_SAR_RANGE_INTR_MASK_REG |= (uint16)((uint16)1 << chNum);
 237              		.loc 1 209 0
 238 00ec 324B     		ldr	r3, .L15+60
 239 00ee 324A     		ldr	r2, .L15+60
 240 00f0 1168     		ldr	r1, [r2]
 241 00f2 FA68     		ldr	r2, [r7, #12]
 242 00f4 0120     		mov	r0, #1
 243 00f6 041C     		mov	r4, r0
 244 00f8 9440     		lsl	r4, r4, r2
 245 00fa 221C     		mov	r2, r4
 246 00fc 92B2     		uxth	r2, r2
ARM GAS  C:\DOCUME~1\Chuck\LOCALS~1\Temp\ccQZlOLh.s 			page 9


 247 00fe 0A43     		orr	r2, r1
 248 0100 1A60     		str	r2, [r3]
 249              	.L8:
 210:.\Generated_Source\PSoC4/ADC_SAR_Seq_1.c ****             }
 211:.\Generated_Source\PSoC4/ADC_SAR_Seq_1.c ****         }
 212:.\Generated_Source\PSoC4/ADC_SAR_Seq_1.c ****         #if(ADC_SAR_Seq_1_INJ_CHANNEL_ENABLED)
 213:.\Generated_Source\PSoC4/ADC_SAR_Seq_1.c ****             else
 214:.\Generated_Source\PSoC4/ADC_SAR_Seq_1.c ****             {
 215:.\Generated_Source\PSoC4/ADC_SAR_Seq_1.c ****                 CY_SET_REG32(ADC_SAR_Seq_1_SAR_INJ_CHAN_CONFIG_PTR, tmpRegVal | ADC_SAR_Seq_1_INJ_T
 216:.\Generated_Source\PSoC4/ADC_SAR_Seq_1.c **** 
 217:.\Generated_Source\PSoC4/ADC_SAR_Seq_1.c ****                 if((ADC_SAR_Seq_1_channelsConfig[chNum] & ADC_SAR_Seq_1_IS_SATURATE_EN_MASK) != 0u)
 218:.\Generated_Source\PSoC4/ADC_SAR_Seq_1.c ****                 {
 219:.\Generated_Source\PSoC4/ADC_SAR_Seq_1.c ****                     ADC_SAR_Seq_1_SAR_INTR_MASK_REG |= ADC_SAR_Seq_1_INJ_SATURATE_MASK;
 220:.\Generated_Source\PSoC4/ADC_SAR_Seq_1.c ****                 }
 221:.\Generated_Source\PSoC4/ADC_SAR_Seq_1.c **** 
 222:.\Generated_Source\PSoC4/ADC_SAR_Seq_1.c ****                 if((ADC_SAR_Seq_1_channelsConfig[chNum] & ADC_SAR_Seq_1_IS_RANGE_CTRL_EN_MASK) != 0
 223:.\Generated_Source\PSoC4/ADC_SAR_Seq_1.c ****                 {
 224:.\Generated_Source\PSoC4/ADC_SAR_Seq_1.c ****                     ADC_SAR_Seq_1_SAR_INTR_MASK_REG |= ADC_SAR_Seq_1_INJ_RANGE_MASK;
 225:.\Generated_Source\PSoC4/ADC_SAR_Seq_1.c ****                 }
 226:.\Generated_Source\PSoC4/ADC_SAR_Seq_1.c ****             }
 227:.\Generated_Source\PSoC4/ADC_SAR_Seq_1.c ****         #endif /* ADC_SAR_Seq_1_INJ_CHANNEL_ENABLED */
 228:.\Generated_Source\PSoC4/ADC_SAR_Seq_1.c **** 
 229:.\Generated_Source\PSoC4/ADC_SAR_Seq_1.c ****         if((ADC_SAR_Seq_1_channelsConfig[chNum] & ADC_SAR_Seq_1_ALT_RESOLUTION_ON) != 0u)
 250              		.loc 1 229 0
 251 0102 314B     		ldr	r3, .L15+76
 252 0104 FA68     		ldr	r2, [r7, #12]
 253 0106 9200     		lsl	r2, r2, #2
 254 0108 D258     		ldr	r2, [r2, r3]
 255 010a 8023     		mov	r3, #128
 256 010c 9B00     		lsl	r3, r3, #2
 257 010e 1340     		and	r3, r2
 258 0110 03D0     		beq	.L9
 230:.\Generated_Source\PSoC4/ADC_SAR_Seq_1.c ****         {
 231:.\Generated_Source\PSoC4/ADC_SAR_Seq_1.c ****                counts = (int32)ADC_SAR_Seq_1_DEFAULT_MAX_WRK_ALT;
 259              		.loc 1 231 0
 260 0112 8023     		mov	r3, #128
 261 0114 5B00     		lsl	r3, r3, #1
 262 0116 BB60     		str	r3, [r7, #8]
 263 0118 02E0     		b	.L10
 264              	.L9:
 232:.\Generated_Source\PSoC4/ADC_SAR_Seq_1.c ****         }
 233:.\Generated_Source\PSoC4/ADC_SAR_Seq_1.c ****         else
 234:.\Generated_Source\PSoC4/ADC_SAR_Seq_1.c ****         {
 235:.\Generated_Source\PSoC4/ADC_SAR_Seq_1.c ****                counts = (int32)ADC_SAR_Seq_1_SAR_WRK_MAX_12BIT;
 265              		.loc 1 235 0
 266 011a 8023     		mov	r3, #128
 267 011c 5B01     		lsl	r3, r3, #5
 268 011e BB60     		str	r3, [r7, #8]
 269              	.L10:
 236:.\Generated_Source\PSoC4/ADC_SAR_Seq_1.c ****         }
 237:.\Generated_Source\PSoC4/ADC_SAR_Seq_1.c **** 
 238:.\Generated_Source\PSoC4/ADC_SAR_Seq_1.c ****         if((ADC_SAR_Seq_1_channelsConfig[chNum] & ADC_SAR_Seq_1_DIFFERENTIAL_EN) == 0u)
 270              		.loc 1 238 0
 271 0120 294B     		ldr	r3, .L15+76
 272 0122 FA68     		ldr	r2, [r7, #12]
 273 0124 9200     		lsl	r2, r2, #2
 274 0126 D258     		ldr	r2, [r2, r3]
ARM GAS  C:\DOCUME~1\Chuck\LOCALS~1\Temp\ccQZlOLh.s 			page 10


 275 0128 8023     		mov	r3, #128
 276 012a 5B00     		lsl	r3, r3, #1
 277 012c 1340     		and	r3, r2
 278 012e 05D1     		bne	.L11
 239:.\Generated_Source\PSoC4/ADC_SAR_Seq_1.c ****         {  
 240:.\Generated_Source\PSoC4/ADC_SAR_Seq_1.c ****             #if((ADC_SAR_Seq_1_DEFAULT_SE_RESULT_FORMAT_SEL == ADC_SAR_Seq_1__FSIGNED) && \
 241:.\Generated_Source\PSoC4/ADC_SAR_Seq_1.c ****                 (ADC_SAR_Seq_1_DEFAULT_NEG_INPUT_SEL == ADC_SAR_Seq_1__VREF))
 242:.\Generated_Source\PSoC4/ADC_SAR_Seq_1.c ****                 /* Set offset to the minus half scale to convert results to unsigned format */
 243:.\Generated_Source\PSoC4/ADC_SAR_Seq_1.c ****                 ADC_SAR_Seq_1_offset[chNum] = (int16)(counts / -2);
 244:.\Generated_Source\PSoC4/ADC_SAR_Seq_1.c ****             #else    
 245:.\Generated_Source\PSoC4/ADC_SAR_Seq_1.c ****                 ADC_SAR_Seq_1_offset[chNum] = 0;
 279              		.loc 1 245 0
 280 0130 284B     		ldr	r3, .L15+88
 281 0132 FA68     		ldr	r2, [r7, #12]
 282 0134 5200     		lsl	r2, r2, #1
 283 0136 0021     		mov	r1, #0
 284 0138 D152     		strh	r1, [r2, r3]
 285 013a 04E0     		b	.L12
 286              	.L11:
 246:.\Generated_Source\PSoC4/ADC_SAR_Seq_1.c ****             #endif /* end DEFAULT_SE_RESULT_FORMAT_SEL == ADC_SAR_Seq_1__FSIGNED */    
 247:.\Generated_Source\PSoC4/ADC_SAR_Seq_1.c ****         }
 248:.\Generated_Source\PSoC4/ADC_SAR_Seq_1.c ****         else    /* Differential channel */
 249:.\Generated_Source\PSoC4/ADC_SAR_Seq_1.c ****         {
 250:.\Generated_Source\PSoC4/ADC_SAR_Seq_1.c ****             #if(ADC_SAR_Seq_1_DEFAULT_DIFF_RESULT_FORMAT_SEL == ADC_SAR_Seq_1__FUNSIGNED)
 251:.\Generated_Source\PSoC4/ADC_SAR_Seq_1.c ****                 /* Set offset to the half scale to convert results to signed format */
 252:.\Generated_Source\PSoC4/ADC_SAR_Seq_1.c ****                 ADC_SAR_Seq_1_offset[chNum] = (int16)(counts / 2);
 253:.\Generated_Source\PSoC4/ADC_SAR_Seq_1.c ****             #else    
 254:.\Generated_Source\PSoC4/ADC_SAR_Seq_1.c ****                 ADC_SAR_Seq_1_offset[chNum] = 0;
 287              		.loc 1 254 0
 288 013c 254B     		ldr	r3, .L15+88
 289 013e FA68     		ldr	r2, [r7, #12]
 290 0140 5200     		lsl	r2, r2, #1
 291 0142 0021     		mov	r1, #0
 292 0144 D152     		strh	r1, [r2, r3]
 293              	.L12:
 255:.\Generated_Source\PSoC4/ADC_SAR_Seq_1.c ****             #endif /* end ADC_SAR_Seq_1_DEFAULT_DIFF_RESULT_FORMAT_SEL == ADC_SAR_Seq_1__FUNSIGNED 
 256:.\Generated_Source\PSoC4/ADC_SAR_Seq_1.c ****         }
 257:.\Generated_Source\PSoC4/ADC_SAR_Seq_1.c ****         /* Calculate gain in counts per 10 volts with rounding */
 258:.\Generated_Source\PSoC4/ADC_SAR_Seq_1.c ****         ADC_SAR_Seq_1_countsPer10Volt[chNum] = (int16)(((counts * ADC_SAR_Seq_1_10MV_COUNTS) + 
 294              		.loc 1 258 0
 295 0146 BB68     		ldr	r3, [r7, #8]
 296 0148 234A     		ldr	r2, .L15+92
 297 014a 5343     		mul	r3, r2
 298 014c 8022     		mov	r2, #128
 299 014e D200     		lsl	r2, r2, #3
 300 0150 9B18     		add	r3, r3, r2
 259:.\Generated_Source\PSoC4/ADC_SAR_Seq_1.c ****                             ADC_SAR_Seq_1_DEFAULT_VREF_MV_VALUE) / (ADC_SAR_Seq_1_DEFAULT_VREF_MV_V
 301              		.loc 1 259 0
 302 0152 002B     		cmp	r3, #0
 303 0154 01DA     		bge	.L13
 304 0156 214C     		ldr	r4, .L15+96
 305 0158 1B19     		add	r3, r3, r4
 306              	.L13:
 307 015a DB12     		asr	r3, r3, #11
 258:.\Generated_Source\PSoC4/ADC_SAR_Seq_1.c ****         ADC_SAR_Seq_1_countsPer10Volt[chNum] = (int16)(((counts * ADC_SAR_Seq_1_10MV_COUNTS) + 
 308              		.loc 1 258 0
 309 015c 9BB2     		uxth	r3, r3
ARM GAS  C:\DOCUME~1\Chuck\LOCALS~1\Temp\ccQZlOLh.s 			page 11


 310 015e 19B2     		sxth	r1, r3
 311 0160 1F4B     		ldr	r3, .L15+100
 312 0162 FA68     		ldr	r2, [r7, #12]
 313 0164 9200     		lsl	r2, r2, #2
 314 0166 D150     		str	r1, [r2, r3]
 181:.\Generated_Source\PSoC4/ADC_SAR_Seq_1.c ****     for(chNum = 0u; chNum < ADC_SAR_Seq_1_TOTAL_CHANNELS_NUM; chNum++)
 315              		.loc 1 181 0
 316 0168 FB68     		ldr	r3, [r7, #12]
 317 016a 0133     		add	r3, r3, #1
 318 016c FB60     		str	r3, [r7, #12]
 319              	.L6:
 181:.\Generated_Source\PSoC4/ADC_SAR_Seq_1.c ****     for(chNum = 0u; chNum < ADC_SAR_Seq_1_TOTAL_CHANNELS_NUM; chNum++)
 320              		.loc 1 181 0 is_stmt 0 discriminator 1
 321 016e FB68     		ldr	r3, [r7, #12]
 322 0170 012B     		cmp	r3, #1
 323 0172 8DD9     		bls	.L14
 260:.\Generated_Source\PSoC4/ADC_SAR_Seq_1.c ****     }
 261:.\Generated_Source\PSoC4/ADC_SAR_Seq_1.c **** }
 324              		.loc 1 261 0 is_stmt 1
 325 0174 BD46     		mov	sp, r7
 326 0176 05B0     		add	sp, sp, #20
 327              		@ sp needed for prologue
 328 0178 90BD     		pop	{r4, r7, pc}
 329              	.L16:
 330 017a C046     		.align	2
 331              	.L15:
 332 017c 00000000 		.word	ADC_SAR_Seq_1_ISR
 333 0180 20001A40 		.word	1075445792
 334 0184 00001A40 		.word	1075445760
 335 0188 C0200010 		.word	268443840
 336 018c 04001A40 		.word	1075445764
 337 0190 8C000080 		.word	-2147483508
 338 0194 18001A40 		.word	1075445784
 339 0198 0000FF07 		.word	134152192
 340 019c 1C001A40 		.word	1075445788
 341 01a0 10001A40 		.word	1075445776
 342 01a4 04000400 		.word	262148
 343 01a8 14001A40 		.word	1075445780
 344 01ac 00031A40 		.word	1075446528
 345 01b0 40031A40 		.word	1075446592
 346 01b4 28021A40 		.word	1075446312
 347 01b8 38021A40 		.word	1075446328
 348 01bc 18021A40 		.word	1075446296
 349 01c0 000F1A40 		.word	1075449600
 350 01c4 30001A40 		.word	1075445808
 351 01c8 00000000 		.word	ADC_SAR_Seq_1_channelsConfig
 352 01cc 08000000 		.word	ADC_SAR_Seq_1_InputsPlacement.4650
 353 01d0 80001A40 		.word	1075445888
 354 01d4 00000000 		.word	ADC_SAR_Seq_1_offset
 355 01d8 10270000 		.word	10000
 356 01dc FF070000 		.word	2047
 357 01e0 00000000 		.word	ADC_SAR_Seq_1_countsPer10Volt
 358              		.cfi_endproc
 359              	.LFE1:
 360              		.size	ADC_SAR_Seq_1_Init, .-ADC_SAR_Seq_1_Init
 361              		.section	.text.ADC_SAR_Seq_1_Enable,"ax",%progbits
 362              		.align	2
ARM GAS  C:\DOCUME~1\Chuck\LOCALS~1\Temp\ccQZlOLh.s 			page 12


 363              		.global	ADC_SAR_Seq_1_Enable
 364              		.code	16
 365              		.thumb_func
 366              		.type	ADC_SAR_Seq_1_Enable, %function
 367              	ADC_SAR_Seq_1_Enable:
 368              	.LFB2:
 262:.\Generated_Source\PSoC4/ADC_SAR_Seq_1.c **** 
 263:.\Generated_Source\PSoC4/ADC_SAR_Seq_1.c **** /*******************************************************************************
 264:.\Generated_Source\PSoC4/ADC_SAR_Seq_1.c **** * Function Name: ADC_SAR_1_Enable
 265:.\Generated_Source\PSoC4/ADC_SAR_Seq_1.c **** ********************************************************************************
 266:.\Generated_Source\PSoC4/ADC_SAR_Seq_1.c **** *
 267:.\Generated_Source\PSoC4/ADC_SAR_Seq_1.c **** * Summary:
 268:.\Generated_Source\PSoC4/ADC_SAR_Seq_1.c **** *  Enables the clock and analog power for SAR ADC.
 269:.\Generated_Source\PSoC4/ADC_SAR_Seq_1.c **** *
 270:.\Generated_Source\PSoC4/ADC_SAR_Seq_1.c **** * Parameters:
 271:.\Generated_Source\PSoC4/ADC_SAR_Seq_1.c **** *  None.
 272:.\Generated_Source\PSoC4/ADC_SAR_Seq_1.c **** *
 273:.\Generated_Source\PSoC4/ADC_SAR_Seq_1.c **** * Return:
 274:.\Generated_Source\PSoC4/ADC_SAR_Seq_1.c **** *  None.
 275:.\Generated_Source\PSoC4/ADC_SAR_Seq_1.c **** *
 276:.\Generated_Source\PSoC4/ADC_SAR_Seq_1.c **** *******************************************************************************/
 277:.\Generated_Source\PSoC4/ADC_SAR_Seq_1.c **** void ADC_SAR_Seq_1_Enable(void)
 278:.\Generated_Source\PSoC4/ADC_SAR_Seq_1.c **** {
 369              		.loc 1 278 0
 370              		.cfi_startproc
 371 0000 80B5     		push	{r7, lr}
 372              	.LCFI5:
 373              		.cfi_def_cfa_offset 8
 374              		.cfi_offset 7, -8
 375              		.cfi_offset 14, -4
 376 0002 00AF     		add	r7, sp, #0
 377              	.LCFI6:
 378              		.cfi_def_cfa_register 7
 279:.\Generated_Source\PSoC4/ADC_SAR_Seq_1.c ****     ADC_SAR_Seq_1_SAR_CTRL_REG |= ADC_SAR_Seq_1_ENABLE;
 379              		.loc 1 279 0
 380 0004 054B     		ldr	r3, .L18
 381 0006 054A     		ldr	r2, .L18
 382 0008 1268     		ldr	r2, [r2]
 383 000a 8021     		mov	r1, #128
 384 000c 0906     		lsl	r1, r1, #24
 385 000e 0A43     		orr	r2, r1
 386 0010 1A60     		str	r2, [r3]
 280:.\Generated_Source\PSoC4/ADC_SAR_Seq_1.c ****     /* The block is ready to use 10 us after the enable signal is set high. */
 281:.\Generated_Source\PSoC4/ADC_SAR_Seq_1.c ****     CyDelayUs(ADC_SAR_Seq_1_10US_DELAY);
 387              		.loc 1 281 0
 388 0012 0A20     		mov	r0, #10
 389 0014 FFF7FEFF 		bl	CyDelayUs
 282:.\Generated_Source\PSoC4/ADC_SAR_Seq_1.c **** }
 390              		.loc 1 282 0
 391 0018 BD46     		mov	sp, r7
 392              		@ sp needed for prologue
 393 001a 80BD     		pop	{r7, pc}
 394              	.L19:
 395              		.align	2
 396              	.L18:
 397 001c 00001A40 		.word	1075445760
 398              		.cfi_endproc
ARM GAS  C:\DOCUME~1\Chuck\LOCALS~1\Temp\ccQZlOLh.s 			page 13


 399              	.LFE2:
 400              		.size	ADC_SAR_Seq_1_Enable, .-ADC_SAR_Seq_1_Enable
 401              		.section	.text.ADC_SAR_Seq_1_Stop,"ax",%progbits
 402              		.align	2
 403              		.global	ADC_SAR_Seq_1_Stop
 404              		.code	16
 405              		.thumb_func
 406              		.type	ADC_SAR_Seq_1_Stop, %function
 407              	ADC_SAR_Seq_1_Stop:
 408              	.LFB3:
 283:.\Generated_Source\PSoC4/ADC_SAR_Seq_1.c **** 
 284:.\Generated_Source\PSoC4/ADC_SAR_Seq_1.c **** 
 285:.\Generated_Source\PSoC4/ADC_SAR_Seq_1.c **** /*******************************************************************************
 286:.\Generated_Source\PSoC4/ADC_SAR_Seq_1.c **** * Function Name: ADC_SAR_Seq_1_Stop
 287:.\Generated_Source\PSoC4/ADC_SAR_Seq_1.c **** ********************************************************************************
 288:.\Generated_Source\PSoC4/ADC_SAR_Seq_1.c **** *
 289:.\Generated_Source\PSoC4/ADC_SAR_Seq_1.c **** * Summary:
 290:.\Generated_Source\PSoC4/ADC_SAR_Seq_1.c **** *  This function stops ADC conversions and puts the ADC into its lowest power
 291:.\Generated_Source\PSoC4/ADC_SAR_Seq_1.c **** *  mode.
 292:.\Generated_Source\PSoC4/ADC_SAR_Seq_1.c **** *
 293:.\Generated_Source\PSoC4/ADC_SAR_Seq_1.c **** * Parameters:
 294:.\Generated_Source\PSoC4/ADC_SAR_Seq_1.c **** *  None.
 295:.\Generated_Source\PSoC4/ADC_SAR_Seq_1.c **** *
 296:.\Generated_Source\PSoC4/ADC_SAR_Seq_1.c **** * Return:
 297:.\Generated_Source\PSoC4/ADC_SAR_Seq_1.c **** *  None.
 298:.\Generated_Source\PSoC4/ADC_SAR_Seq_1.c **** *
 299:.\Generated_Source\PSoC4/ADC_SAR_Seq_1.c **** *******************************************************************************/
 300:.\Generated_Source\PSoC4/ADC_SAR_Seq_1.c **** void ADC_SAR_Seq_1_Stop(void)
 301:.\Generated_Source\PSoC4/ADC_SAR_Seq_1.c **** {
 409              		.loc 1 301 0
 410              		.cfi_startproc
 411 0000 80B5     		push	{r7, lr}
 412              	.LCFI7:
 413              		.cfi_def_cfa_offset 8
 414              		.cfi_offset 7, -8
 415              		.cfi_offset 14, -4
 416 0002 00AF     		add	r7, sp, #0
 417              	.LCFI8:
 418              		.cfi_def_cfa_register 7
 302:.\Generated_Source\PSoC4/ADC_SAR_Seq_1.c ****     ADC_SAR_Seq_1_SAR_CTRL_REG &= (uint32)~ADC_SAR_Seq_1_ENABLE;
 419              		.loc 1 302 0
 420 0004 034B     		ldr	r3, .L21
 421 0006 034A     		ldr	r2, .L21
 422 0008 1268     		ldr	r2, [r2]
 423 000a 5200     		lsl	r2, r2, #1
 424 000c 5208     		lsr	r2, r2, #1
 425 000e 1A60     		str	r2, [r3]
 303:.\Generated_Source\PSoC4/ADC_SAR_Seq_1.c **** }
 426              		.loc 1 303 0
 427 0010 BD46     		mov	sp, r7
 428              		@ sp needed for prologue
 429 0012 80BD     		pop	{r7, pc}
 430              	.L22:
 431              		.align	2
 432              	.L21:
 433 0014 00001A40 		.word	1075445760
 434              		.cfi_endproc
ARM GAS  C:\DOCUME~1\Chuck\LOCALS~1\Temp\ccQZlOLh.s 			page 14


 435              	.LFE3:
 436              		.size	ADC_SAR_Seq_1_Stop, .-ADC_SAR_Seq_1_Stop
 437              		.section	.text.ADC_SAR_Seq_1_StartConvert,"ax",%progbits
 438              		.align	2
 439              		.global	ADC_SAR_Seq_1_StartConvert
 440              		.code	16
 441              		.thumb_func
 442              		.type	ADC_SAR_Seq_1_StartConvert, %function
 443              	ADC_SAR_Seq_1_StartConvert:
 444              	.LFB4:
 304:.\Generated_Source\PSoC4/ADC_SAR_Seq_1.c **** 
 305:.\Generated_Source\PSoC4/ADC_SAR_Seq_1.c **** 
 306:.\Generated_Source\PSoC4/ADC_SAR_Seq_1.c **** /*******************************************************************************
 307:.\Generated_Source\PSoC4/ADC_SAR_Seq_1.c **** * Function Name: ADC_SAR_Seq_1_StartConvert
 308:.\Generated_Source\PSoC4/ADC_SAR_Seq_1.c **** ********************************************************************************
 309:.\Generated_Source\PSoC4/ADC_SAR_Seq_1.c **** *
 310:.\Generated_Source\PSoC4/ADC_SAR_Seq_1.c **** * Summary:
 311:.\Generated_Source\PSoC4/ADC_SAR_Seq_1.c **** *  Description:
 312:.\Generated_Source\PSoC4/ADC_SAR_Seq_1.c **** *  For free running mode, this API starts the conversion process and it
 313:.\Generated_Source\PSoC4/ADC_SAR_Seq_1.c **** *  runs continuously.
 314:.\Generated_Source\PSoC4/ADC_SAR_Seq_1.c **** *
 315:.\Generated_Source\PSoC4/ADC_SAR_Seq_1.c **** *  In a triggered mode, this routine triggers every conversion by
 316:.\Generated_Source\PSoC4/ADC_SAR_Seq_1.c **** *  writing into the FW_TRIGGER bit in SAR_START_CTRL reg. In triggered mode,
 317:.\Generated_Source\PSoC4/ADC_SAR_Seq_1.c **** *  every conversion has to start by this API.
 318:.\Generated_Source\PSoC4/ADC_SAR_Seq_1.c **** *
 319:.\Generated_Source\PSoC4/ADC_SAR_Seq_1.c **** * Parameters:
 320:.\Generated_Source\PSoC4/ADC_SAR_Seq_1.c **** *  None.
 321:.\Generated_Source\PSoC4/ADC_SAR_Seq_1.c **** *
 322:.\Generated_Source\PSoC4/ADC_SAR_Seq_1.c **** * Return:
 323:.\Generated_Source\PSoC4/ADC_SAR_Seq_1.c **** *  None.
 324:.\Generated_Source\PSoC4/ADC_SAR_Seq_1.c **** *
 325:.\Generated_Source\PSoC4/ADC_SAR_Seq_1.c **** *******************************************************************************/
 326:.\Generated_Source\PSoC4/ADC_SAR_Seq_1.c **** void ADC_SAR_Seq_1_StartConvert(void)
 327:.\Generated_Source\PSoC4/ADC_SAR_Seq_1.c **** {
 445              		.loc 1 327 0
 446              		.cfi_startproc
 447 0000 80B5     		push	{r7, lr}
 448              	.LCFI9:
 449              		.cfi_def_cfa_offset 8
 450              		.cfi_offset 7, -8
 451              		.cfi_offset 14, -4
 452 0002 00AF     		add	r7, sp, #0
 453              	.LCFI10:
 454              		.cfi_def_cfa_register 7
 328:.\Generated_Source\PSoC4/ADC_SAR_Seq_1.c ****     #if(ADC_SAR_Seq_1_DEFAULT_SAMPLE_MODE_SEL == ADC_SAR_Seq_1__FREERUNNING)
 329:.\Generated_Source\PSoC4/ADC_SAR_Seq_1.c ****         ADC_SAR_Seq_1_SAR_SAMPLE_CTRL_REG |= ADC_SAR_Seq_1_CONTINUOUS_EN;
 455              		.loc 1 329 0
 456 0004 044B     		ldr	r3, .L24
 457 0006 044A     		ldr	r2, .L24
 458 0008 1268     		ldr	r2, [r2]
 459 000a 8021     		mov	r1, #128
 460 000c 4902     		lsl	r1, r1, #9
 461 000e 0A43     		orr	r2, r1
 462 0010 1A60     		str	r2, [r3]
 330:.\Generated_Source\PSoC4/ADC_SAR_Seq_1.c ****     #else /* Firmware trigger */
 331:.\Generated_Source\PSoC4/ADC_SAR_Seq_1.c ****         ADC_SAR_Seq_1_SAR_START_CTRL_REG = ADC_SAR_Seq_1_FW_TRIGGER;
 332:.\Generated_Source\PSoC4/ADC_SAR_Seq_1.c ****     #endif /* End ADC_SAR_Seq_1_DEFAULT_SAMPLE_MODE == ADC_SAR_Seq_1__FREERUNNING */
ARM GAS  C:\DOCUME~1\Chuck\LOCALS~1\Temp\ccQZlOLh.s 			page 15


 333:.\Generated_Source\PSoC4/ADC_SAR_Seq_1.c **** 
 334:.\Generated_Source\PSoC4/ADC_SAR_Seq_1.c **** }
 463              		.loc 1 334 0
 464 0012 BD46     		mov	sp, r7
 465              		@ sp needed for prologue
 466 0014 80BD     		pop	{r7, pc}
 467              	.L25:
 468 0016 C046     		.align	2
 469              	.L24:
 470 0018 04001A40 		.word	1075445764
 471              		.cfi_endproc
 472              	.LFE4:
 473              		.size	ADC_SAR_Seq_1_StartConvert, .-ADC_SAR_Seq_1_StartConvert
 474              		.section	.text.ADC_SAR_Seq_1_StopConvert,"ax",%progbits
 475              		.align	2
 476              		.global	ADC_SAR_Seq_1_StopConvert
 477              		.code	16
 478              		.thumb_func
 479              		.type	ADC_SAR_Seq_1_StopConvert, %function
 480              	ADC_SAR_Seq_1_StopConvert:
 481              	.LFB5:
 335:.\Generated_Source\PSoC4/ADC_SAR_Seq_1.c **** 
 336:.\Generated_Source\PSoC4/ADC_SAR_Seq_1.c **** 
 337:.\Generated_Source\PSoC4/ADC_SAR_Seq_1.c **** /*******************************************************************************
 338:.\Generated_Source\PSoC4/ADC_SAR_Seq_1.c **** * Function Name: ADC_SAR_Seq_1_StopConvert
 339:.\Generated_Source\PSoC4/ADC_SAR_Seq_1.c **** ********************************************************************************
 340:.\Generated_Source\PSoC4/ADC_SAR_Seq_1.c **** *
 341:.\Generated_Source\PSoC4/ADC_SAR_Seq_1.c **** * Summary:
 342:.\Generated_Source\PSoC4/ADC_SAR_Seq_1.c **** *  Forces the ADC to stop all conversions.
 343:.\Generated_Source\PSoC4/ADC_SAR_Seq_1.c **** *
 344:.\Generated_Source\PSoC4/ADC_SAR_Seq_1.c **** * Parameters:
 345:.\Generated_Source\PSoC4/ADC_SAR_Seq_1.c **** *  None.
 346:.\Generated_Source\PSoC4/ADC_SAR_Seq_1.c **** *
 347:.\Generated_Source\PSoC4/ADC_SAR_Seq_1.c **** * Return:
 348:.\Generated_Source\PSoC4/ADC_SAR_Seq_1.c **** *  None.
 349:.\Generated_Source\PSoC4/ADC_SAR_Seq_1.c **** *
 350:.\Generated_Source\PSoC4/ADC_SAR_Seq_1.c **** *******************************************************************************/
 351:.\Generated_Source\PSoC4/ADC_SAR_Seq_1.c **** void ADC_SAR_Seq_1_StopConvert(void)
 352:.\Generated_Source\PSoC4/ADC_SAR_Seq_1.c **** {
 482              		.loc 1 352 0
 483              		.cfi_startproc
 484 0000 80B5     		push	{r7, lr}
 485              	.LCFI11:
 486              		.cfi_def_cfa_offset 8
 487              		.cfi_offset 7, -8
 488              		.cfi_offset 14, -4
 489 0002 00AF     		add	r7, sp, #0
 490              	.LCFI12:
 491              		.cfi_def_cfa_register 7
 353:.\Generated_Source\PSoC4/ADC_SAR_Seq_1.c ****     #if(ADC_SAR_Seq_1_DEFAULT_SAMPLE_MODE_SEL == ADC_SAR_Seq_1__FREERUNNING)
 354:.\Generated_Source\PSoC4/ADC_SAR_Seq_1.c ****         ADC_SAR_Seq_1_SAR_SAMPLE_CTRL_REG &= (uint32)(~ADC_SAR_Seq_1_CONTINUOUS_EN);
 492              		.loc 1 354 0
 493 0004 034B     		ldr	r3, .L27
 494 0006 034A     		ldr	r2, .L27
 495 0008 1168     		ldr	r1, [r2]
 496 000a 034A     		ldr	r2, .L27+4
 497 000c 0A40     		and	r2, r1
ARM GAS  C:\DOCUME~1\Chuck\LOCALS~1\Temp\ccQZlOLh.s 			page 16


 498 000e 1A60     		str	r2, [r3]
 355:.\Generated_Source\PSoC4/ADC_SAR_Seq_1.c ****     #endif /* ADC_SAR_Seq_1_DEFAULT_SAMPLE_MODE == ADC_SAR_Seq_1__FREERUNNING */
 356:.\Generated_Source\PSoC4/ADC_SAR_Seq_1.c **** }
 499              		.loc 1 356 0
 500 0010 BD46     		mov	sp, r7
 501              		@ sp needed for prologue
 502 0012 80BD     		pop	{r7, pc}
 503              	.L28:
 504              		.align	2
 505              	.L27:
 506 0014 04001A40 		.word	1075445764
 507 0018 FFFFFEFF 		.word	-65537
 508              		.cfi_endproc
 509              	.LFE5:
 510              		.size	ADC_SAR_Seq_1_StopConvert, .-ADC_SAR_Seq_1_StopConvert
 511              		.section	.text.ADC_SAR_Seq_1_IsEndConversion,"ax",%progbits
 512              		.align	2
 513              		.global	ADC_SAR_Seq_1_IsEndConversion
 514              		.code	16
 515              		.thumb_func
 516              		.type	ADC_SAR_Seq_1_IsEndConversion, %function
 517              	ADC_SAR_Seq_1_IsEndConversion:
 518              	.LFB6:
 357:.\Generated_Source\PSoC4/ADC_SAR_Seq_1.c **** 
 358:.\Generated_Source\PSoC4/ADC_SAR_Seq_1.c **** 
 359:.\Generated_Source\PSoC4/ADC_SAR_Seq_1.c **** /*******************************************************************************
 360:.\Generated_Source\PSoC4/ADC_SAR_Seq_1.c **** * Function Name: ADC_SAR_Seq_1_IsEndConversion
 361:.\Generated_Source\PSoC4/ADC_SAR_Seq_1.c **** ********************************************************************************
 362:.\Generated_Source\PSoC4/ADC_SAR_Seq_1.c **** *
 363:.\Generated_Source\PSoC4/ADC_SAR_Seq_1.c **** * Summary:
 364:.\Generated_Source\PSoC4/ADC_SAR_Seq_1.c **** *  Description: Checks for ADC end of conversion for the case one
 365:.\Generated_Source\PSoC4/ADC_SAR_Seq_1.c **** *  channel and end of scan for the case of multiple channels. It acts
 366:.\Generated_Source\PSoC4/ADC_SAR_Seq_1.c **** *  as a software version of the EOC. This function provides the
 367:.\Generated_Source\PSoC4/ADC_SAR_Seq_1.c **** *  programmer with two options. In one mode this function
 368:.\Generated_Source\PSoC4/ADC_SAR_Seq_1.c **** *  immediately returns with the conversion status. In the other mode,
 369:.\Generated_Source\PSoC4/ADC_SAR_Seq_1.c **** *  the function does not return (blocking) until the conversion has
 370:.\Generated_Source\PSoC4/ADC_SAR_Seq_1.c **** *  completed.
 371:.\Generated_Source\PSoC4/ADC_SAR_Seq_1.c **** *
 372:.\Generated_Source\PSoC4/ADC_SAR_Seq_1.c **** * Parameters:
 373:.\Generated_Source\PSoC4/ADC_SAR_Seq_1.c **** *  ADC_RETURN_STATUS        -> Immediately returns conversion result status
 374:.\Generated_Source\PSoC4/ADC_SAR_Seq_1.c **** *  ADC_WAIT_FOR_RESULT      -> Does not return until ADC complete
 375:.\Generated_Source\PSoC4/ADC_SAR_Seq_1.c **** *  ADC_RETURN_STATUS_INJ    -> Immediately returns conversion result status
 376:.\Generated_Source\PSoC4/ADC_SAR_Seq_1.c **** *                              for injection channel
 377:.\Generated_Source\PSoC4/ADC_SAR_Seq_1.c **** *  ADC_WAIT_FOR_RESULT_INJ  -> Does not return until ADC completes injection
 378:.\Generated_Source\PSoC4/ADC_SAR_Seq_1.c **** *                              channel conversion
 379:.\Generated_Source\PSoC4/ADC_SAR_Seq_1.c **** *
 380:.\Generated_Source\PSoC4/ADC_SAR_Seq_1.c **** * Return:
 381:.\Generated_Source\PSoC4/ADC_SAR_Seq_1.c **** *  If a non-zero value is returned, the last conversion or scan has completed.
 382:.\Generated_Source\PSoC4/ADC_SAR_Seq_1.c **** *  If the returned value is zero, the ADC is still in the process of a scan.
 383:.\Generated_Source\PSoC4/ADC_SAR_Seq_1.c **** *
 384:.\Generated_Source\PSoC4/ADC_SAR_Seq_1.c **** *******************************************************************************/
 385:.\Generated_Source\PSoC4/ADC_SAR_Seq_1.c **** uint32 ADC_SAR_Seq_1_IsEndConversion(uint32 retMode)
 386:.\Generated_Source\PSoC4/ADC_SAR_Seq_1.c **** {
 519              		.loc 1 386 0
 520              		.cfi_startproc
 521 0000 80B5     		push	{r7, lr}
 522              	.LCFI13:
ARM GAS  C:\DOCUME~1\Chuck\LOCALS~1\Temp\ccQZlOLh.s 			page 17


 523              		.cfi_def_cfa_offset 8
 524              		.cfi_offset 7, -8
 525              		.cfi_offset 14, -4
 526 0002 84B0     		sub	sp, sp, #16
 527              	.LCFI14:
 528              		.cfi_def_cfa_offset 24
 529 0004 00AF     		add	r7, sp, #0
 530              	.LCFI15:
 531              		.cfi_def_cfa_register 7
 532 0006 7860     		str	r0, [r7, #4]
 387:.\Generated_Source\PSoC4/ADC_SAR_Seq_1.c ****     uint32 status = 0u;
 533              		.loc 1 387 0
 534 0008 0023     		mov	r3, #0
 535 000a FB60     		str	r3, [r7, #12]
 388:.\Generated_Source\PSoC4/ADC_SAR_Seq_1.c **** 
 389:.\Generated_Source\PSoC4/ADC_SAR_Seq_1.c ****     if((retMode & (ADC_SAR_Seq_1_RETURN_STATUS | ADC_SAR_Seq_1_WAIT_FOR_RESULT)) != 0u)
 536              		.loc 1 389 0
 537 000c 7A68     		ldr	r2, [r7, #4]
 538 000e 0323     		mov	r3, #3
 539 0010 1340     		and	r3, r2
 540 0012 11D0     		beq	.L30
 541              	.L32:
 390:.\Generated_Source\PSoC4/ADC_SAR_Seq_1.c ****     {
 391:.\Generated_Source\PSoC4/ADC_SAR_Seq_1.c ****         do
 392:.\Generated_Source\PSoC4/ADC_SAR_Seq_1.c ****         {
 393:.\Generated_Source\PSoC4/ADC_SAR_Seq_1.c ****             status = ADC_SAR_Seq_1_SAR_INTR_REG & ADC_SAR_Seq_1_EOS_MASK;
 542              		.loc 1 393 0 discriminator 1
 543 0014 0B4B     		ldr	r3, .L34
 544 0016 1A68     		ldr	r2, [r3]
 545 0018 0123     		mov	r3, #1
 546 001a 1340     		and	r3, r2
 547 001c FB60     		str	r3, [r7, #12]
 394:.\Generated_Source\PSoC4/ADC_SAR_Seq_1.c ****         }while((status == 0u) && ((retMode & ADC_SAR_Seq_1_WAIT_FOR_RESULT) != 0u));
 548              		.loc 1 394 0 discriminator 1
 549 001e FB68     		ldr	r3, [r7, #12]
 550 0020 002B     		cmp	r3, #0
 551 0022 03D1     		bne	.L31
 552 0024 7A68     		ldr	r2, [r7, #4]
 553 0026 0223     		mov	r3, #2
 554 0028 1340     		and	r3, r2
 555 002a F3D1     		bne	.L32
 556              	.L31:
 395:.\Generated_Source\PSoC4/ADC_SAR_Seq_1.c **** 
 396:.\Generated_Source\PSoC4/ADC_SAR_Seq_1.c ****         if(status != 0u)
 557              		.loc 1 396 0
 558 002c FB68     		ldr	r3, [r7, #12]
 559 002e 002B     		cmp	r3, #0
 560 0030 02D0     		beq	.L30
 397:.\Generated_Source\PSoC4/ADC_SAR_Seq_1.c ****         {
 398:.\Generated_Source\PSoC4/ADC_SAR_Seq_1.c ****             /* Clear EOS bit */
 399:.\Generated_Source\PSoC4/ADC_SAR_Seq_1.c ****             ADC_SAR_Seq_1_SAR_INTR_REG = ADC_SAR_Seq_1_EOS_MASK;
 561              		.loc 1 399 0
 562 0032 044B     		ldr	r3, .L34
 563 0034 0122     		mov	r2, #1
 564 0036 1A60     		str	r2, [r3]
 565              	.L30:
 400:.\Generated_Source\PSoC4/ADC_SAR_Seq_1.c ****         }
ARM GAS  C:\DOCUME~1\Chuck\LOCALS~1\Temp\ccQZlOLh.s 			page 18


 401:.\Generated_Source\PSoC4/ADC_SAR_Seq_1.c ****     }
 402:.\Generated_Source\PSoC4/ADC_SAR_Seq_1.c **** 
 403:.\Generated_Source\PSoC4/ADC_SAR_Seq_1.c ****     #if(ADC_SAR_Seq_1_INJ_CHANNEL_ENABLED)
 404:.\Generated_Source\PSoC4/ADC_SAR_Seq_1.c ****         if((retMode & (ADC_SAR_Seq_1_RETURN_STATUS_INJ | ADC_SAR_Seq_1_WAIT_FOR_RESULT_INJ)) != 0u)
 405:.\Generated_Source\PSoC4/ADC_SAR_Seq_1.c ****         {
 406:.\Generated_Source\PSoC4/ADC_SAR_Seq_1.c ****             do
 407:.\Generated_Source\PSoC4/ADC_SAR_Seq_1.c ****             {
 408:.\Generated_Source\PSoC4/ADC_SAR_Seq_1.c ****                 status |= ADC_SAR_Seq_1_SAR_INTR_REG & ADC_SAR_Seq_1_INJ_EOC_MASK;
 409:.\Generated_Source\PSoC4/ADC_SAR_Seq_1.c ****             }while(((status & ADC_SAR_Seq_1_INJ_EOC_MASK) != 0u) &&
 410:.\Generated_Source\PSoC4/ADC_SAR_Seq_1.c ****                    ((retMode & ADC_SAR_Seq_1_WAIT_FOR_RESULT_INJ) != 0u));
 411:.\Generated_Source\PSoC4/ADC_SAR_Seq_1.c **** 
 412:.\Generated_Source\PSoC4/ADC_SAR_Seq_1.c ****             if((status & ADC_SAR_Seq_1_INJ_EOC_MASK) != 0u)
 413:.\Generated_Source\PSoC4/ADC_SAR_Seq_1.c ****             {
 414:.\Generated_Source\PSoC4/ADC_SAR_Seq_1.c ****                 /* Clear Injection EOS bit */
 415:.\Generated_Source\PSoC4/ADC_SAR_Seq_1.c ****                 ADC_SAR_Seq_1_SAR_INTR_REG = ADC_SAR_Seq_1_INJ_EOC_MASK;
 416:.\Generated_Source\PSoC4/ADC_SAR_Seq_1.c ****             }
 417:.\Generated_Source\PSoC4/ADC_SAR_Seq_1.c ****         }
 418:.\Generated_Source\PSoC4/ADC_SAR_Seq_1.c ****     #endif /* ADC_SAR_Seq_1_INJ_CHANNEL_ENABLED */
 419:.\Generated_Source\PSoC4/ADC_SAR_Seq_1.c **** 
 420:.\Generated_Source\PSoC4/ADC_SAR_Seq_1.c ****     return (status);
 566              		.loc 1 420 0
 567 0038 FB68     		ldr	r3, [r7, #12]
 421:.\Generated_Source\PSoC4/ADC_SAR_Seq_1.c **** }
 568              		.loc 1 421 0
 569 003a 181C     		mov	r0, r3
 570 003c BD46     		mov	sp, r7
 571 003e 04B0     		add	sp, sp, #16
 572              		@ sp needed for prologue
 573 0040 80BD     		pop	{r7, pc}
 574              	.L35:
 575 0042 C046     		.align	2
 576              	.L34:
 577 0044 10021A40 		.word	1075446288
 578              		.cfi_endproc
 579              	.LFE6:
 580              		.size	ADC_SAR_Seq_1_IsEndConversion, .-ADC_SAR_Seq_1_IsEndConversion
 581              		.section	.text.ADC_SAR_Seq_1_GetResult16,"ax",%progbits
 582              		.align	2
 583              		.global	ADC_SAR_Seq_1_GetResult16
 584              		.code	16
 585              		.thumb_func
 586              		.type	ADC_SAR_Seq_1_GetResult16, %function
 587              	ADC_SAR_Seq_1_GetResult16:
 588              	.LFB7:
 422:.\Generated_Source\PSoC4/ADC_SAR_Seq_1.c **** 
 423:.\Generated_Source\PSoC4/ADC_SAR_Seq_1.c **** 
 424:.\Generated_Source\PSoC4/ADC_SAR_Seq_1.c **** /*******************************************************************************
 425:.\Generated_Source\PSoC4/ADC_SAR_Seq_1.c **** * Function Name: ADC_SAR_Seq_1_GetResult16
 426:.\Generated_Source\PSoC4/ADC_SAR_Seq_1.c **** ********************************************************************************
 427:.\Generated_Source\PSoC4/ADC_SAR_Seq_1.c **** *
 428:.\Generated_Source\PSoC4/ADC_SAR_Seq_1.c **** * Summary:
 429:.\Generated_Source\PSoC4/ADC_SAR_Seq_1.c **** *  Gets the data available in the SAR DATA register.
 430:.\Generated_Source\PSoC4/ADC_SAR_Seq_1.c **** *
 431:.\Generated_Source\PSoC4/ADC_SAR_Seq_1.c **** * Parameters:
 432:.\Generated_Source\PSoC4/ADC_SAR_Seq_1.c **** *  chan: The ADC channel in which to return the result. The first channel
 433:.\Generated_Source\PSoC4/ADC_SAR_Seq_1.c **** *  is 0 and the injection channel if enabled is the number of valid channels.
 434:.\Generated_Source\PSoC4/ADC_SAR_Seq_1.c **** *
ARM GAS  C:\DOCUME~1\Chuck\LOCALS~1\Temp\ccQZlOLh.s 			page 19


 435:.\Generated_Source\PSoC4/ADC_SAR_Seq_1.c **** * Return:
 436:.\Generated_Source\PSoC4/ADC_SAR_Seq_1.c **** *  Returns converted data as a signed 16-bit integer
 437:.\Generated_Source\PSoC4/ADC_SAR_Seq_1.c **** *
 438:.\Generated_Source\PSoC4/ADC_SAR_Seq_1.c **** *******************************************************************************/
 439:.\Generated_Source\PSoC4/ADC_SAR_Seq_1.c **** int16 ADC_SAR_Seq_1_GetResult16(uint32 chan)
 440:.\Generated_Source\PSoC4/ADC_SAR_Seq_1.c **** {
 589              		.loc 1 440 0
 590              		.cfi_startproc
 591 0000 80B5     		push	{r7, lr}
 592              	.LCFI16:
 593              		.cfi_def_cfa_offset 8
 594              		.cfi_offset 7, -8
 595              		.cfi_offset 14, -4
 596 0002 84B0     		sub	sp, sp, #16
 597              	.LCFI17:
 598              		.cfi_def_cfa_offset 24
 599 0004 00AF     		add	r7, sp, #0
 600              	.LCFI18:
 601              		.cfi_def_cfa_register 7
 602 0006 7860     		str	r0, [r7, #4]
 441:.\Generated_Source\PSoC4/ADC_SAR_Seq_1.c ****     uint32 result;
 442:.\Generated_Source\PSoC4/ADC_SAR_Seq_1.c **** 
 443:.\Generated_Source\PSoC4/ADC_SAR_Seq_1.c ****     /* Halt CPU in debug mode if channel is out of valid range */
 444:.\Generated_Source\PSoC4/ADC_SAR_Seq_1.c ****     CYASSERT(chan < ADC_SAR_Seq_1_TOTAL_CHANNELS_NUM);
 603              		.loc 1 444 0
 604 0008 7B68     		ldr	r3, [r7, #4]
 605 000a 012B     		cmp	r3, #1
 606 000c 02D9     		bls	.L37
 607              		.loc 1 444 0 is_stmt 0 discriminator 1
 608 000e 0020     		mov	r0, #0
 609 0010 FFF7FEFF 		bl	CyHalt
 610              	.L37:
 445:.\Generated_Source\PSoC4/ADC_SAR_Seq_1.c **** 
 446:.\Generated_Source\PSoC4/ADC_SAR_Seq_1.c ****     if(chan < ADC_SAR_Seq_1_SEQUENCED_CHANNELS_NUM)
 611              		.loc 1 446 0 is_stmt 1
 612 0014 7B68     		ldr	r3, [r7, #4]
 613 0016 012B     		cmp	r3, #1
 614 0018 08D8     		bhi	.L38
 447:.\Generated_Source\PSoC4/ADC_SAR_Seq_1.c ****     {
 448:.\Generated_Source\PSoC4/ADC_SAR_Seq_1.c ****         result = CY_GET_REG32((reg32 *)(ADC_SAR_Seq_1_SAR_CHAN_RESULT_IND + (uint32)(chan << 2u))) 
 615              		.loc 1 448 0
 616 001a 7B68     		ldr	r3, [r7, #4]
 617 001c 9B00     		lsl	r3, r3, #2
 618 001e 084A     		ldr	r2, .L41
 619 0020 9B18     		add	r3, r3, r2
 620 0022 1B68     		ldr	r3, [r3]
 621 0024 1B04     		lsl	r3, r3, #16
 622 0026 1B0C     		lsr	r3, r3, #16
 623 0028 FB60     		str	r3, [r7, #12]
 624 002a 01E0     		b	.L39
 625              	.L38:
 449:.\Generated_Source\PSoC4/ADC_SAR_Seq_1.c ****                 ADC_SAR_Seq_1_RESULT_MASK;
 450:.\Generated_Source\PSoC4/ADC_SAR_Seq_1.c ****     }
 451:.\Generated_Source\PSoC4/ADC_SAR_Seq_1.c ****     else
 452:.\Generated_Source\PSoC4/ADC_SAR_Seq_1.c ****     {
 453:.\Generated_Source\PSoC4/ADC_SAR_Seq_1.c ****         #if(ADC_SAR_Seq_1_INJ_CHANNEL_ENABLED)
 454:.\Generated_Source\PSoC4/ADC_SAR_Seq_1.c ****             result = ADC_SAR_Seq_1_SAR_INJ_RESULT_REG & ADC_SAR_Seq_1_RESULT_MASK;
ARM GAS  C:\DOCUME~1\Chuck\LOCALS~1\Temp\ccQZlOLh.s 			page 20


 455:.\Generated_Source\PSoC4/ADC_SAR_Seq_1.c ****         #else
 456:.\Generated_Source\PSoC4/ADC_SAR_Seq_1.c ****             result = 0u;
 626              		.loc 1 456 0
 627 002c 0023     		mov	r3, #0
 628 002e FB60     		str	r3, [r7, #12]
 629              	.L39:
 457:.\Generated_Source\PSoC4/ADC_SAR_Seq_1.c ****         #endif /* ADC_SAR_Seq_1_INJ_CHANNEL_ENABLED */
 458:.\Generated_Source\PSoC4/ADC_SAR_Seq_1.c ****     }
 459:.\Generated_Source\PSoC4/ADC_SAR_Seq_1.c **** 
 460:.\Generated_Source\PSoC4/ADC_SAR_Seq_1.c ****     return ( (int16)result );
 630              		.loc 1 460 0
 631 0030 FB68     		ldr	r3, [r7, #12]
 632 0032 9BB2     		uxth	r3, r3
 633 0034 1BB2     		sxth	r3, r3
 461:.\Generated_Source\PSoC4/ADC_SAR_Seq_1.c **** }
 634              		.loc 1 461 0
 635 0036 181C     		mov	r0, r3
 636 0038 BD46     		mov	sp, r7
 637 003a 04B0     		add	sp, sp, #16
 638              		@ sp needed for prologue
 639 003c 80BD     		pop	{r7, pc}
 640              	.L42:
 641 003e C046     		.align	2
 642              	.L41:
 643 0040 80011A40 		.word	1075446144
 644              		.cfi_endproc
 645              	.LFE7:
 646              		.size	ADC_SAR_Seq_1_GetResult16, .-ADC_SAR_Seq_1_GetResult16
 647              		.section	.text.ADC_SAR_Seq_1_SetChanMask,"ax",%progbits
 648              		.align	2
 649              		.global	ADC_SAR_Seq_1_SetChanMask
 650              		.code	16
 651              		.thumb_func
 652              		.type	ADC_SAR_Seq_1_SetChanMask, %function
 653              	ADC_SAR_Seq_1_SetChanMask:
 654              	.LFB8:
 462:.\Generated_Source\PSoC4/ADC_SAR_Seq_1.c **** 
 463:.\Generated_Source\PSoC4/ADC_SAR_Seq_1.c **** 
 464:.\Generated_Source\PSoC4/ADC_SAR_Seq_1.c **** /*******************************************************************************
 465:.\Generated_Source\PSoC4/ADC_SAR_Seq_1.c **** * Function Name: ADC_SAR_Seq_1_SetChanMask
 466:.\Generated_Source\PSoC4/ADC_SAR_Seq_1.c **** ********************************************************************************
 467:.\Generated_Source\PSoC4/ADC_SAR_Seq_1.c **** *
 468:.\Generated_Source\PSoC4/ADC_SAR_Seq_1.c **** * Summary:
 469:.\Generated_Source\PSoC4/ADC_SAR_Seq_1.c **** *  Sets the channel enable mask.
 470:.\Generated_Source\PSoC4/ADC_SAR_Seq_1.c **** *
 471:.\Generated_Source\PSoC4/ADC_SAR_Seq_1.c **** * Parameters:
 472:.\Generated_Source\PSoC4/ADC_SAR_Seq_1.c **** *  mask: Sets which channels that will be
 473:.\Generated_Source\PSoC4/ADC_SAR_Seq_1.c **** *  scanned. Setting bits for channels that do not exist will have no
 474:.\Generated_Source\PSoC4/ADC_SAR_Seq_1.c **** *  effect. For example, if only 6 channels were enabled, setting a
 475:.\Generated_Source\PSoC4/ADC_SAR_Seq_1.c **** *  mask of 0x0103 would only enable the last two channels (0 and 1).
 476:.\Generated_Source\PSoC4/ADC_SAR_Seq_1.c **** *  This API will not enable the injection channel.
 477:.\Generated_Source\PSoC4/ADC_SAR_Seq_1.c **** *  Examples: If the component is setup to sequence through 8
 478:.\Generated_Source\PSoC4/ADC_SAR_Seq_1.c **** *  channels, a mask of 0x000F would enable channels 0, 1, 2, and 3.
 479:.\Generated_Source\PSoC4/ADC_SAR_Seq_1.c **** *
 480:.\Generated_Source\PSoC4/ADC_SAR_Seq_1.c **** * Return:
 481:.\Generated_Source\PSoC4/ADC_SAR_Seq_1.c **** *  None.
 482:.\Generated_Source\PSoC4/ADC_SAR_Seq_1.c **** *
ARM GAS  C:\DOCUME~1\Chuck\LOCALS~1\Temp\ccQZlOLh.s 			page 21


 483:.\Generated_Source\PSoC4/ADC_SAR_Seq_1.c **** *******************************************************************************/
 484:.\Generated_Source\PSoC4/ADC_SAR_Seq_1.c **** void ADC_SAR_Seq_1_SetChanMask(uint32 mask)
 485:.\Generated_Source\PSoC4/ADC_SAR_Seq_1.c **** {
 655              		.loc 1 485 0
 656              		.cfi_startproc
 657 0000 80B5     		push	{r7, lr}
 658              	.LCFI19:
 659              		.cfi_def_cfa_offset 8
 660              		.cfi_offset 7, -8
 661              		.cfi_offset 14, -4
 662 0002 82B0     		sub	sp, sp, #8
 663              	.LCFI20:
 664              		.cfi_def_cfa_offset 16
 665 0004 00AF     		add	r7, sp, #0
 666              	.LCFI21:
 667              		.cfi_def_cfa_register 7
 668 0006 7860     		str	r0, [r7, #4]
 486:.\Generated_Source\PSoC4/ADC_SAR_Seq_1.c ****     ADC_SAR_Seq_1_SAR_CHAN_EN_REG = mask & ADC_SAR_Seq_1_MAX_CHANNELS_EN_MASK;
 669              		.loc 1 486 0
 670 0008 034B     		ldr	r3, .L44
 671 000a 7968     		ldr	r1, [r7, #4]
 672 000c 0322     		mov	r2, #3
 673 000e 0A40     		and	r2, r1
 674 0010 1A60     		str	r2, [r3]
 487:.\Generated_Source\PSoC4/ADC_SAR_Seq_1.c **** }
 675              		.loc 1 487 0
 676 0012 BD46     		mov	sp, r7
 677 0014 02B0     		add	sp, sp, #8
 678              		@ sp needed for prologue
 679 0016 80BD     		pop	{r7, pc}
 680              	.L45:
 681              		.align	2
 682              	.L44:
 683 0018 20001A40 		.word	1075445792
 684              		.cfi_endproc
 685              	.LFE8:
 686              		.size	ADC_SAR_Seq_1_SetChanMask, .-ADC_SAR_Seq_1_SetChanMask
 687              		.section	.text.ADC_SAR_Seq_1_SetLowLimit,"ax",%progbits
 688              		.align	2
 689              		.global	ADC_SAR_Seq_1_SetLowLimit
 690              		.code	16
 691              		.thumb_func
 692              		.type	ADC_SAR_Seq_1_SetLowLimit, %function
 693              	ADC_SAR_Seq_1_SetLowLimit:
 694              	.LFB9:
 488:.\Generated_Source\PSoC4/ADC_SAR_Seq_1.c **** 
 489:.\Generated_Source\PSoC4/ADC_SAR_Seq_1.c **** #if(ADC_SAR_Seq_1_INJ_CHANNEL_ENABLED)
 490:.\Generated_Source\PSoC4/ADC_SAR_Seq_1.c **** 
 491:.\Generated_Source\PSoC4/ADC_SAR_Seq_1.c **** 
 492:.\Generated_Source\PSoC4/ADC_SAR_Seq_1.c ****     /*******************************************************************************
 493:.\Generated_Source\PSoC4/ADC_SAR_Seq_1.c ****     * Function Name: ADC_SAR_Seq_1_EnableInjection
 494:.\Generated_Source\PSoC4/ADC_SAR_Seq_1.c ****     ********************************************************************************
 495:.\Generated_Source\PSoC4/ADC_SAR_Seq_1.c ****     *
 496:.\Generated_Source\PSoC4/ADC_SAR_Seq_1.c ****     * Summary:
 497:.\Generated_Source\PSoC4/ADC_SAR_Seq_1.c ****     *  Enables the injection channel for the next scan only.
 498:.\Generated_Source\PSoC4/ADC_SAR_Seq_1.c ****     *
 499:.\Generated_Source\PSoC4/ADC_SAR_Seq_1.c ****     * Parameters:
ARM GAS  C:\DOCUME~1\Chuck\LOCALS~1\Temp\ccQZlOLh.s 			page 22


 500:.\Generated_Source\PSoC4/ADC_SAR_Seq_1.c ****     *  None.
 501:.\Generated_Source\PSoC4/ADC_SAR_Seq_1.c ****     *
 502:.\Generated_Source\PSoC4/ADC_SAR_Seq_1.c ****     * Return:
 503:.\Generated_Source\PSoC4/ADC_SAR_Seq_1.c ****     *  None.
 504:.\Generated_Source\PSoC4/ADC_SAR_Seq_1.c ****     *
 505:.\Generated_Source\PSoC4/ADC_SAR_Seq_1.c ****     *******************************************************************************/
 506:.\Generated_Source\PSoC4/ADC_SAR_Seq_1.c ****     void ADC_SAR_Seq_1_EnableInjection(void)
 507:.\Generated_Source\PSoC4/ADC_SAR_Seq_1.c ****     {
 508:.\Generated_Source\PSoC4/ADC_SAR_Seq_1.c ****         ADC_SAR_Seq_1_SAR_INJ_CHAN_CONFIG_REG |= ADC_SAR_Seq_1_INJ_CHAN_EN;
 509:.\Generated_Source\PSoC4/ADC_SAR_Seq_1.c ****     }
 510:.\Generated_Source\PSoC4/ADC_SAR_Seq_1.c **** 
 511:.\Generated_Source\PSoC4/ADC_SAR_Seq_1.c **** #endif /* ADC_SAR_Seq_1_INJ_CHANNEL_ENABLED */
 512:.\Generated_Source\PSoC4/ADC_SAR_Seq_1.c **** 
 513:.\Generated_Source\PSoC4/ADC_SAR_Seq_1.c **** 
 514:.\Generated_Source\PSoC4/ADC_SAR_Seq_1.c **** /*******************************************************************************
 515:.\Generated_Source\PSoC4/ADC_SAR_Seq_1.c **** * Function Name: ADC_SAR_Seq_1_SetLowLimit
 516:.\Generated_Source\PSoC4/ADC_SAR_Seq_1.c **** ********************************************************************************
 517:.\Generated_Source\PSoC4/ADC_SAR_Seq_1.c **** *
 518:.\Generated_Source\PSoC4/ADC_SAR_Seq_1.c **** * Summary:
 519:.\Generated_Source\PSoC4/ADC_SAR_Seq_1.c **** *  Sets the low limit parameter for a limit condition.
 520:.\Generated_Source\PSoC4/ADC_SAR_Seq_1.c **** *
 521:.\Generated_Source\PSoC4/ADC_SAR_Seq_1.c **** * Parameters:
 522:.\Generated_Source\PSoC4/ADC_SAR_Seq_1.c **** *  lowLimit: The low limit for a limit condition.
 523:.\Generated_Source\PSoC4/ADC_SAR_Seq_1.c **** *
 524:.\Generated_Source\PSoC4/ADC_SAR_Seq_1.c **** * Return:
 525:.\Generated_Source\PSoC4/ADC_SAR_Seq_1.c **** *  None.
 526:.\Generated_Source\PSoC4/ADC_SAR_Seq_1.c **** *
 527:.\Generated_Source\PSoC4/ADC_SAR_Seq_1.c **** *******************************************************************************/
 528:.\Generated_Source\PSoC4/ADC_SAR_Seq_1.c **** void ADC_SAR_Seq_1_SetLowLimit(uint32 lowLimit)
 529:.\Generated_Source\PSoC4/ADC_SAR_Seq_1.c **** {
 695              		.loc 1 529 0
 696              		.cfi_startproc
 697 0000 80B5     		push	{r7, lr}
 698              	.LCFI22:
 699              		.cfi_def_cfa_offset 8
 700              		.cfi_offset 7, -8
 701              		.cfi_offset 14, -4
 702 0002 82B0     		sub	sp, sp, #8
 703              	.LCFI23:
 704              		.cfi_def_cfa_offset 16
 705 0004 00AF     		add	r7, sp, #0
 706              	.LCFI24:
 707              		.cfi_def_cfa_register 7
 708 0006 7860     		str	r0, [r7, #4]
 530:.\Generated_Source\PSoC4/ADC_SAR_Seq_1.c ****     ADC_SAR_Seq_1_SAR_RANGE_THRES_REG &= (uint32)(~ADC_SAR_Seq_1_RANGE_LOW_MASK);
 709              		.loc 1 530 0
 710 0008 084B     		ldr	r3, .L47
 711 000a 084A     		ldr	r2, .L47
 712 000c 1268     		ldr	r2, [r2]
 713 000e 120C     		lsr	r2, r2, #16
 714 0010 1204     		lsl	r2, r2, #16
 715 0012 1A60     		str	r2, [r3]
 531:.\Generated_Source\PSoC4/ADC_SAR_Seq_1.c ****     ADC_SAR_Seq_1_SAR_RANGE_THRES_REG |= lowLimit & ADC_SAR_Seq_1_RANGE_LOW_MASK;
 716              		.loc 1 531 0
 717 0014 054B     		ldr	r3, .L47
 718 0016 054A     		ldr	r2, .L47
 719 0018 1168     		ldr	r1, [r2]
ARM GAS  C:\DOCUME~1\Chuck\LOCALS~1\Temp\ccQZlOLh.s 			page 23


 720 001a 7A68     		ldr	r2, [r7, #4]
 721 001c 1204     		lsl	r2, r2, #16
 722 001e 120C     		lsr	r2, r2, #16
 723 0020 0A43     		orr	r2, r1
 724 0022 1A60     		str	r2, [r3]
 532:.\Generated_Source\PSoC4/ADC_SAR_Seq_1.c **** }
 725              		.loc 1 532 0
 726 0024 BD46     		mov	sp, r7
 727 0026 02B0     		add	sp, sp, #8
 728              		@ sp needed for prologue
 729 0028 80BD     		pop	{r7, pc}
 730              	.L48:
 731 002a C046     		.align	2
 732              	.L47:
 733 002c 18001A40 		.word	1075445784
 734              		.cfi_endproc
 735              	.LFE9:
 736              		.size	ADC_SAR_Seq_1_SetLowLimit, .-ADC_SAR_Seq_1_SetLowLimit
 737              		.section	.text.ADC_SAR_Seq_1_SetHighLimit,"ax",%progbits
 738              		.align	2
 739              		.global	ADC_SAR_Seq_1_SetHighLimit
 740              		.code	16
 741              		.thumb_func
 742              		.type	ADC_SAR_Seq_1_SetHighLimit, %function
 743              	ADC_SAR_Seq_1_SetHighLimit:
 744              	.LFB10:
 533:.\Generated_Source\PSoC4/ADC_SAR_Seq_1.c **** 
 534:.\Generated_Source\PSoC4/ADC_SAR_Seq_1.c **** 
 535:.\Generated_Source\PSoC4/ADC_SAR_Seq_1.c **** /*******************************************************************************
 536:.\Generated_Source\PSoC4/ADC_SAR_Seq_1.c **** * Function Name: ADC_SAR_Seq_1_SetHighLimit
 537:.\Generated_Source\PSoC4/ADC_SAR_Seq_1.c **** ********************************************************************************
 538:.\Generated_Source\PSoC4/ADC_SAR_Seq_1.c **** *
 539:.\Generated_Source\PSoC4/ADC_SAR_Seq_1.c **** * Summary:
 540:.\Generated_Source\PSoC4/ADC_SAR_Seq_1.c **** *  Sets the low limit parameter for a limit condition.
 541:.\Generated_Source\PSoC4/ADC_SAR_Seq_1.c **** *
 542:.\Generated_Source\PSoC4/ADC_SAR_Seq_1.c **** * Parameters:
 543:.\Generated_Source\PSoC4/ADC_SAR_Seq_1.c **** *  highLimit: The high limit for a limit condition.
 544:.\Generated_Source\PSoC4/ADC_SAR_Seq_1.c **** *
 545:.\Generated_Source\PSoC4/ADC_SAR_Seq_1.c **** * Return:
 546:.\Generated_Source\PSoC4/ADC_SAR_Seq_1.c **** *  None.
 547:.\Generated_Source\PSoC4/ADC_SAR_Seq_1.c **** *
 548:.\Generated_Source\PSoC4/ADC_SAR_Seq_1.c **** *******************************************************************************/
 549:.\Generated_Source\PSoC4/ADC_SAR_Seq_1.c **** void ADC_SAR_Seq_1_SetHighLimit(uint32 highLimit)
 550:.\Generated_Source\PSoC4/ADC_SAR_Seq_1.c **** {
 745              		.loc 1 550 0
 746              		.cfi_startproc
 747 0000 80B5     		push	{r7, lr}
 748              	.LCFI25:
 749              		.cfi_def_cfa_offset 8
 750              		.cfi_offset 7, -8
 751              		.cfi_offset 14, -4
 752 0002 82B0     		sub	sp, sp, #8
 753              	.LCFI26:
 754              		.cfi_def_cfa_offset 16
 755 0004 00AF     		add	r7, sp, #0
 756              	.LCFI27:
 757              		.cfi_def_cfa_register 7
ARM GAS  C:\DOCUME~1\Chuck\LOCALS~1\Temp\ccQZlOLh.s 			page 24


 758 0006 7860     		str	r0, [r7, #4]
 551:.\Generated_Source\PSoC4/ADC_SAR_Seq_1.c ****     ADC_SAR_Seq_1_SAR_RANGE_THRES_REG &= (uint32)(~ADC_SAR_Seq_1_RANGE_HIGH_MASK);
 759              		.loc 1 551 0
 760 0008 074B     		ldr	r3, .L50
 761 000a 074A     		ldr	r2, .L50
 762 000c 1268     		ldr	r2, [r2]
 763 000e 1204     		lsl	r2, r2, #16
 764 0010 120C     		lsr	r2, r2, #16
 765 0012 1A60     		str	r2, [r3]
 552:.\Generated_Source\PSoC4/ADC_SAR_Seq_1.c ****     ADC_SAR_Seq_1_SAR_RANGE_THRES_REG |= (uint32)(highLimit << ADC_SAR_Seq_1_RANGE_HIGH_OFFSET);
 766              		.loc 1 552 0
 767 0014 044B     		ldr	r3, .L50
 768 0016 044A     		ldr	r2, .L50
 769 0018 1168     		ldr	r1, [r2]
 770 001a 7A68     		ldr	r2, [r7, #4]
 771 001c 1204     		lsl	r2, r2, #16
 772 001e 0A43     		orr	r2, r1
 773 0020 1A60     		str	r2, [r3]
 553:.\Generated_Source\PSoC4/ADC_SAR_Seq_1.c **** }
 774              		.loc 1 553 0
 775 0022 BD46     		mov	sp, r7
 776 0024 02B0     		add	sp, sp, #8
 777              		@ sp needed for prologue
 778 0026 80BD     		pop	{r7, pc}
 779              	.L51:
 780              		.align	2
 781              	.L50:
 782 0028 18001A40 		.word	1075445784
 783              		.cfi_endproc
 784              	.LFE10:
 785              		.size	ADC_SAR_Seq_1_SetHighLimit, .-ADC_SAR_Seq_1_SetHighLimit
 786              		.section	.text.ADC_SAR_Seq_1_SetLimitMask,"ax",%progbits
 787              		.align	2
 788              		.global	ADC_SAR_Seq_1_SetLimitMask
 789              		.code	16
 790              		.thumb_func
 791              		.type	ADC_SAR_Seq_1_SetLimitMask, %function
 792              	ADC_SAR_Seq_1_SetLimitMask:
 793              	.LFB11:
 554:.\Generated_Source\PSoC4/ADC_SAR_Seq_1.c **** 
 555:.\Generated_Source\PSoC4/ADC_SAR_Seq_1.c **** 
 556:.\Generated_Source\PSoC4/ADC_SAR_Seq_1.c **** /*******************************************************************************
 557:.\Generated_Source\PSoC4/ADC_SAR_Seq_1.c **** * Function Name: ADC_SAR_Seq_1_SetLimitMask
 558:.\Generated_Source\PSoC4/ADC_SAR_Seq_1.c **** ********************************************************************************
 559:.\Generated_Source\PSoC4/ADC_SAR_Seq_1.c **** *
 560:.\Generated_Source\PSoC4/ADC_SAR_Seq_1.c **** * Summary:
 561:.\Generated_Source\PSoC4/ADC_SAR_Seq_1.c **** *  Sets the channel limit condition mask.
 562:.\Generated_Source\PSoC4/ADC_SAR_Seq_1.c **** *
 563:.\Generated_Source\PSoC4/ADC_SAR_Seq_1.c **** * Parameters:
 564:.\Generated_Source\PSoC4/ADC_SAR_Seq_1.c **** *  mask: Sets which channels that may cause a
 565:.\Generated_Source\PSoC4/ADC_SAR_Seq_1.c **** *  limit condition interrupt. Setting bits for channels that do not exist
 566:.\Generated_Source\PSoC4/ADC_SAR_Seq_1.c **** *  will have no effect. For example, if only 6 channels were enabled,
 567:.\Generated_Source\PSoC4/ADC_SAR_Seq_1.c **** *  setting a mask of 0x0103 would only enable the last two channels (0 and 1).
 568:.\Generated_Source\PSoC4/ADC_SAR_Seq_1.c **** *
 569:.\Generated_Source\PSoC4/ADC_SAR_Seq_1.c **** * Return:
 570:.\Generated_Source\PSoC4/ADC_SAR_Seq_1.c **** *  None.
 571:.\Generated_Source\PSoC4/ADC_SAR_Seq_1.c **** *
ARM GAS  C:\DOCUME~1\Chuck\LOCALS~1\Temp\ccQZlOLh.s 			page 25


 572:.\Generated_Source\PSoC4/ADC_SAR_Seq_1.c **** *******************************************************************************/
 573:.\Generated_Source\PSoC4/ADC_SAR_Seq_1.c **** void ADC_SAR_Seq_1_SetLimitMask(uint32 mask)
 574:.\Generated_Source\PSoC4/ADC_SAR_Seq_1.c **** {
 794              		.loc 1 574 0
 795              		.cfi_startproc
 796 0000 80B5     		push	{r7, lr}
 797              	.LCFI28:
 798              		.cfi_def_cfa_offset 8
 799              		.cfi_offset 7, -8
 800              		.cfi_offset 14, -4
 801 0002 82B0     		sub	sp, sp, #8
 802              	.LCFI29:
 803              		.cfi_def_cfa_offset 16
 804 0004 00AF     		add	r7, sp, #0
 805              	.LCFI30:
 806              		.cfi_def_cfa_register 7
 807 0006 7860     		str	r0, [r7, #4]
 575:.\Generated_Source\PSoC4/ADC_SAR_Seq_1.c ****     ADC_SAR_Seq_1_SAR_RANGE_INTR_MASK_REG = mask & ADC_SAR_Seq_1_MAX_CHANNELS_EN_MASK;
 808              		.loc 1 575 0
 809 0008 034B     		ldr	r3, .L53
 810 000a 7968     		ldr	r1, [r7, #4]
 811 000c 0322     		mov	r2, #3
 812 000e 0A40     		and	r2, r1
 813 0010 1A60     		str	r2, [r3]
 576:.\Generated_Source\PSoC4/ADC_SAR_Seq_1.c **** }
 814              		.loc 1 576 0
 815 0012 BD46     		mov	sp, r7
 816 0014 02B0     		add	sp, sp, #8
 817              		@ sp needed for prologue
 818 0016 80BD     		pop	{r7, pc}
 819              	.L54:
 820              		.align	2
 821              	.L53:
 822 0018 38021A40 		.word	1075446328
 823              		.cfi_endproc
 824              	.LFE11:
 825              		.size	ADC_SAR_Seq_1_SetLimitMask, .-ADC_SAR_Seq_1_SetLimitMask
 826              		.section	.text.ADC_SAR_Seq_1_SetSatMask,"ax",%progbits
 827              		.align	2
 828              		.global	ADC_SAR_Seq_1_SetSatMask
 829              		.code	16
 830              		.thumb_func
 831              		.type	ADC_SAR_Seq_1_SetSatMask, %function
 832              	ADC_SAR_Seq_1_SetSatMask:
 833              	.LFB12:
 577:.\Generated_Source\PSoC4/ADC_SAR_Seq_1.c **** 
 578:.\Generated_Source\PSoC4/ADC_SAR_Seq_1.c **** 
 579:.\Generated_Source\PSoC4/ADC_SAR_Seq_1.c **** /*******************************************************************************
 580:.\Generated_Source\PSoC4/ADC_SAR_Seq_1.c **** * Function Name: ADC_SAR_Seq_1_SetSatMask
 581:.\Generated_Source\PSoC4/ADC_SAR_Seq_1.c **** ********************************************************************************
 582:.\Generated_Source\PSoC4/ADC_SAR_Seq_1.c **** *
 583:.\Generated_Source\PSoC4/ADC_SAR_Seq_1.c **** * Summary:
 584:.\Generated_Source\PSoC4/ADC_SAR_Seq_1.c **** *  Sets the channel saturation event mask.
 585:.\Generated_Source\PSoC4/ADC_SAR_Seq_1.c **** *
 586:.\Generated_Source\PSoC4/ADC_SAR_Seq_1.c **** * Parameters:
 587:.\Generated_Source\PSoC4/ADC_SAR_Seq_1.c **** *  mask: Sets which channels that may cause a
 588:.\Generated_Source\PSoC4/ADC_SAR_Seq_1.c **** *  saturation event interrupt. Setting bits for channels that do not exist
ARM GAS  C:\DOCUME~1\Chuck\LOCALS~1\Temp\ccQZlOLh.s 			page 26


 589:.\Generated_Source\PSoC4/ADC_SAR_Seq_1.c **** *  will have no effect. For example, if only 8 channels were enabled,
 590:.\Generated_Source\PSoC4/ADC_SAR_Seq_1.c **** *  setting a mask of 0x01C0 would only enable two channels (6 and 7).
 591:.\Generated_Source\PSoC4/ADC_SAR_Seq_1.c **** *
 592:.\Generated_Source\PSoC4/ADC_SAR_Seq_1.c **** * Return:
 593:.\Generated_Source\PSoC4/ADC_SAR_Seq_1.c **** *  None.
 594:.\Generated_Source\PSoC4/ADC_SAR_Seq_1.c **** *
 595:.\Generated_Source\PSoC4/ADC_SAR_Seq_1.c **** *******************************************************************************/
 596:.\Generated_Source\PSoC4/ADC_SAR_Seq_1.c **** void ADC_SAR_Seq_1_SetSatMask(uint32 mask)
 597:.\Generated_Source\PSoC4/ADC_SAR_Seq_1.c **** {
 834              		.loc 1 597 0
 835              		.cfi_startproc
 836 0000 80B5     		push	{r7, lr}
 837              	.LCFI31:
 838              		.cfi_def_cfa_offset 8
 839              		.cfi_offset 7, -8
 840              		.cfi_offset 14, -4
 841 0002 82B0     		sub	sp, sp, #8
 842              	.LCFI32:
 843              		.cfi_def_cfa_offset 16
 844 0004 00AF     		add	r7, sp, #0
 845              	.LCFI33:
 846              		.cfi_def_cfa_register 7
 847 0006 7860     		str	r0, [r7, #4]
 598:.\Generated_Source\PSoC4/ADC_SAR_Seq_1.c ****     ADC_SAR_Seq_1_SAR_SATURATE_INTR_MASK_REG = mask & ADC_SAR_Seq_1_MAX_CHANNELS_EN_MASK;
 848              		.loc 1 598 0
 849 0008 034B     		ldr	r3, .L56
 850 000a 7968     		ldr	r1, [r7, #4]
 851 000c 0322     		mov	r2, #3
 852 000e 0A40     		and	r2, r1
 853 0010 1A60     		str	r2, [r3]
 599:.\Generated_Source\PSoC4/ADC_SAR_Seq_1.c **** }
 854              		.loc 1 599 0
 855 0012 BD46     		mov	sp, r7
 856 0014 02B0     		add	sp, sp, #8
 857              		@ sp needed for prologue
 858 0016 80BD     		pop	{r7, pc}
 859              	.L57:
 860              		.align	2
 861              	.L56:
 862 0018 28021A40 		.word	1075446312
 863              		.cfi_endproc
 864              	.LFE12:
 865              		.size	ADC_SAR_Seq_1_SetSatMask, .-ADC_SAR_Seq_1_SetSatMask
 866              		.section	.text.ADC_SAR_Seq_1_SetOffset,"ax",%progbits
 867              		.align	2
 868              		.global	ADC_SAR_Seq_1_SetOffset
 869              		.code	16
 870              		.thumb_func
 871              		.type	ADC_SAR_Seq_1_SetOffset, %function
 872              	ADC_SAR_Seq_1_SetOffset:
 873              	.LFB13:
 600:.\Generated_Source\PSoC4/ADC_SAR_Seq_1.c **** 
 601:.\Generated_Source\PSoC4/ADC_SAR_Seq_1.c **** 
 602:.\Generated_Source\PSoC4/ADC_SAR_Seq_1.c **** /*******************************************************************************
 603:.\Generated_Source\PSoC4/ADC_SAR_Seq_1.c **** * Function Name: ADC_SAR_Seq_1_SetOffset
 604:.\Generated_Source\PSoC4/ADC_SAR_Seq_1.c **** ********************************************************************************
 605:.\Generated_Source\PSoC4/ADC_SAR_Seq_1.c **** *
ARM GAS  C:\DOCUME~1\Chuck\LOCALS~1\Temp\ccQZlOLh.s 			page 27


 606:.\Generated_Source\PSoC4/ADC_SAR_Seq_1.c **** * Summary:
 607:.\Generated_Source\PSoC4/ADC_SAR_Seq_1.c **** *   Description: Sets the ADC offset which is used by the functions
 608:.\Generated_Source\PSoC4/ADC_SAR_Seq_1.c **** *   ADC_CountsTo_uVolts, ADC_CountsTo_mVolts and ADC_CountsTo_Volts
 609:.\Generated_Source\PSoC4/ADC_SAR_Seq_1.c **** *   to substract the offset from the given reading
 610:.\Generated_Source\PSoC4/ADC_SAR_Seq_1.c **** *   before calculating the voltage conversion.
 611:.\Generated_Source\PSoC4/ADC_SAR_Seq_1.c **** *
 612:.\Generated_Source\PSoC4/ADC_SAR_Seq_1.c **** * Parameters:
 613:.\Generated_Source\PSoC4/ADC_SAR_Seq_1.c **** *  chan: ADC channel number.
 614:.\Generated_Source\PSoC4/ADC_SAR_Seq_1.c **** *  offset: This value is a measured value when the
 615:.\Generated_Source\PSoC4/ADC_SAR_Seq_1.c **** *          inputs are shorted or connected to the same input voltage.
 616:.\Generated_Source\PSoC4/ADC_SAR_Seq_1.c **** *
 617:.\Generated_Source\PSoC4/ADC_SAR_Seq_1.c **** * Return:
 618:.\Generated_Source\PSoC4/ADC_SAR_Seq_1.c **** *  None.
 619:.\Generated_Source\PSoC4/ADC_SAR_Seq_1.c **** *
 620:.\Generated_Source\PSoC4/ADC_SAR_Seq_1.c **** * Global variables:
 621:.\Generated_Source\PSoC4/ADC_SAR_Seq_1.c **** *  ADC_SAR_Seq_1_Offset:  Modified to set the user provided offset.
 622:.\Generated_Source\PSoC4/ADC_SAR_Seq_1.c **** *
 623:.\Generated_Source\PSoC4/ADC_SAR_Seq_1.c **** *******************************************************************************/
 624:.\Generated_Source\PSoC4/ADC_SAR_Seq_1.c **** void ADC_SAR_Seq_1_SetOffset(uint32 chan, int16 offset)
 625:.\Generated_Source\PSoC4/ADC_SAR_Seq_1.c **** {
 874              		.loc 1 625 0
 875              		.cfi_startproc
 876 0000 80B5     		push	{r7, lr}
 877              	.LCFI34:
 878              		.cfi_def_cfa_offset 8
 879              		.cfi_offset 7, -8
 880              		.cfi_offset 14, -4
 881 0002 82B0     		sub	sp, sp, #8
 882              	.LCFI35:
 883              		.cfi_def_cfa_offset 16
 884 0004 00AF     		add	r7, sp, #0
 885              	.LCFI36:
 886              		.cfi_def_cfa_register 7
 887 0006 7860     		str	r0, [r7, #4]
 888 0008 0A1C     		mov	r2, r1
 889 000a BB1C     		add	r3, r7, #2
 890 000c 1A80     		strh	r2, [r3]
 626:.\Generated_Source\PSoC4/ADC_SAR_Seq_1.c ****     /* Halt CPU in debug mode if channel is out of valid range */
 627:.\Generated_Source\PSoC4/ADC_SAR_Seq_1.c ****     CYASSERT(chan < ADC_SAR_Seq_1_TOTAL_CHANNELS_NUM);
 891              		.loc 1 627 0
 892 000e 7B68     		ldr	r3, [r7, #4]
 893 0010 012B     		cmp	r3, #1
 894 0012 02D9     		bls	.L59
 895              		.loc 1 627 0 is_stmt 0 discriminator 1
 896 0014 0020     		mov	r0, #0
 897 0016 FFF7FEFF 		bl	CyHalt
 898              	.L59:
 628:.\Generated_Source\PSoC4/ADC_SAR_Seq_1.c **** 
 629:.\Generated_Source\PSoC4/ADC_SAR_Seq_1.c ****     ADC_SAR_Seq_1_offset[chan] = offset;
 899              		.loc 1 629 0 is_stmt 1
 900 001a 044B     		ldr	r3, .L60
 901 001c 7A68     		ldr	r2, [r7, #4]
 902 001e 5200     		lsl	r2, r2, #1
 903 0020 B91C     		add	r1, r7, #2
 904 0022 0988     		ldrh	r1, [r1]
 905 0024 D152     		strh	r1, [r2, r3]
 630:.\Generated_Source\PSoC4/ADC_SAR_Seq_1.c **** }
ARM GAS  C:\DOCUME~1\Chuck\LOCALS~1\Temp\ccQZlOLh.s 			page 28


 906              		.loc 1 630 0
 907 0026 BD46     		mov	sp, r7
 908 0028 02B0     		add	sp, sp, #8
 909              		@ sp needed for prologue
 910 002a 80BD     		pop	{r7, pc}
 911              	.L61:
 912              		.align	2
 913              	.L60:
 914 002c 00000000 		.word	ADC_SAR_Seq_1_offset
 915              		.cfi_endproc
 916              	.LFE13:
 917              		.size	ADC_SAR_Seq_1_SetOffset, .-ADC_SAR_Seq_1_SetOffset
 918              		.section	.text.ADC_SAR_Seq_1_SetGain,"ax",%progbits
 919              		.align	2
 920              		.global	ADC_SAR_Seq_1_SetGain
 921              		.code	16
 922              		.thumb_func
 923              		.type	ADC_SAR_Seq_1_SetGain, %function
 924              	ADC_SAR_Seq_1_SetGain:
 925              	.LFB14:
 631:.\Generated_Source\PSoC4/ADC_SAR_Seq_1.c **** 
 632:.\Generated_Source\PSoC4/ADC_SAR_Seq_1.c **** 
 633:.\Generated_Source\PSoC4/ADC_SAR_Seq_1.c **** /*******************************************************************************
 634:.\Generated_Source\PSoC4/ADC_SAR_Seq_1.c **** * Function Name: ADC_SAR_Seq_1_SetGain
 635:.\Generated_Source\PSoC4/ADC_SAR_Seq_1.c **** ********************************************************************************
 636:.\Generated_Source\PSoC4/ADC_SAR_Seq_1.c **** *
 637:.\Generated_Source\PSoC4/ADC_SAR_Seq_1.c **** * Summary:
 638:.\Generated_Source\PSoC4/ADC_SAR_Seq_1.c **** *  Description: Sets the ADC gain in counts per 10 volt for the voltage
 639:.\Generated_Source\PSoC4/ADC_SAR_Seq_1.c **** *  conversion functions below. This value is set by default by the
 640:.\Generated_Source\PSoC4/ADC_SAR_Seq_1.c **** *  reference and input range settings. It should only be used to further
 641:.\Generated_Source\PSoC4/ADC_SAR_Seq_1.c **** *  calibrate the ADC with a known input or if an external reference is
 642:.\Generated_Source\PSoC4/ADC_SAR_Seq_1.c **** *  used. Affects the ADC_CountsTo_uVolts, ADC_CountsTo_mVolts
 643:.\Generated_Source\PSoC4/ADC_SAR_Seq_1.c **** *  and ADC_CountsTo_Volts functions by supplying the correct
 644:.\Generated_Source\PSoC4/ADC_SAR_Seq_1.c **** *  conversion between ADC counts and voltage.
 645:.\Generated_Source\PSoC4/ADC_SAR_Seq_1.c **** *
 646:.\Generated_Source\PSoC4/ADC_SAR_Seq_1.c **** * Parameters:
 647:.\Generated_Source\PSoC4/ADC_SAR_Seq_1.c **** *  chan: ADC channel number.
 648:.\Generated_Source\PSoC4/ADC_SAR_Seq_1.c **** *  adcGain: ADC gain in counts per 10 volts.
 649:.\Generated_Source\PSoC4/ADC_SAR_Seq_1.c **** *
 650:.\Generated_Source\PSoC4/ADC_SAR_Seq_1.c **** * Return:
 651:.\Generated_Source\PSoC4/ADC_SAR_Seq_1.c **** *  None.
 652:.\Generated_Source\PSoC4/ADC_SAR_Seq_1.c **** *
 653:.\Generated_Source\PSoC4/ADC_SAR_Seq_1.c **** * Global variables:
 654:.\Generated_Source\PSoC4/ADC_SAR_Seq_1.c **** *  ADC_SAR_Seq_1_CountsPer10Volt:  modified to set the ADC gain in counts 
 655:.\Generated_Source\PSoC4/ADC_SAR_Seq_1.c **** *   per 10 volt.
 656:.\Generated_Source\PSoC4/ADC_SAR_Seq_1.c **** *
 657:.\Generated_Source\PSoC4/ADC_SAR_Seq_1.c **** *******************************************************************************/
 658:.\Generated_Source\PSoC4/ADC_SAR_Seq_1.c **** void ADC_SAR_Seq_1_SetGain(uint32 chan, int32 adcGain)
 659:.\Generated_Source\PSoC4/ADC_SAR_Seq_1.c **** {
 926              		.loc 1 659 0
 927              		.cfi_startproc
 928 0000 80B5     		push	{r7, lr}
 929              	.LCFI37:
 930              		.cfi_def_cfa_offset 8
 931              		.cfi_offset 7, -8
 932              		.cfi_offset 14, -4
 933 0002 82B0     		sub	sp, sp, #8
ARM GAS  C:\DOCUME~1\Chuck\LOCALS~1\Temp\ccQZlOLh.s 			page 29


 934              	.LCFI38:
 935              		.cfi_def_cfa_offset 16
 936 0004 00AF     		add	r7, sp, #0
 937              	.LCFI39:
 938              		.cfi_def_cfa_register 7
 939 0006 7860     		str	r0, [r7, #4]
 940 0008 3960     		str	r1, [r7]
 660:.\Generated_Source\PSoC4/ADC_SAR_Seq_1.c ****     /* Halt CPU in debug mode if channel is out of valid range */
 661:.\Generated_Source\PSoC4/ADC_SAR_Seq_1.c ****     CYASSERT(chan < ADC_SAR_Seq_1_TOTAL_CHANNELS_NUM);
 941              		.loc 1 661 0
 942 000a 7B68     		ldr	r3, [r7, #4]
 943 000c 012B     		cmp	r3, #1
 944 000e 02D9     		bls	.L63
 945              		.loc 1 661 0 is_stmt 0 discriminator 1
 946 0010 0020     		mov	r0, #0
 947 0012 FFF7FEFF 		bl	CyHalt
 948              	.L63:
 662:.\Generated_Source\PSoC4/ADC_SAR_Seq_1.c **** 
 663:.\Generated_Source\PSoC4/ADC_SAR_Seq_1.c ****     ADC_SAR_Seq_1_countsPer10Volt[chan] = adcGain;
 949              		.loc 1 663 0 is_stmt 1
 950 0016 044B     		ldr	r3, .L64
 951 0018 7A68     		ldr	r2, [r7, #4]
 952 001a 9200     		lsl	r2, r2, #2
 953 001c 3968     		ldr	r1, [r7]
 954 001e D150     		str	r1, [r2, r3]
 664:.\Generated_Source\PSoC4/ADC_SAR_Seq_1.c **** }
 955              		.loc 1 664 0
 956 0020 BD46     		mov	sp, r7
 957 0022 02B0     		add	sp, sp, #8
 958              		@ sp needed for prologue
 959 0024 80BD     		pop	{r7, pc}
 960              	.L65:
 961 0026 C046     		.align	2
 962              	.L64:
 963 0028 00000000 		.word	ADC_SAR_Seq_1_countsPer10Volt
 964              		.cfi_endproc
 965              	.LFE14:
 966              		.size	ADC_SAR_Seq_1_SetGain, .-ADC_SAR_Seq_1_SetGain
 967              		.global	__aeabi_idiv
 968              		.section	.text.ADC_SAR_Seq_1_CountsTo_mVolts,"ax",%progbits
 969              		.align	2
 970              		.global	ADC_SAR_Seq_1_CountsTo_mVolts
 971              		.code	16
 972              		.thumb_func
 973              		.type	ADC_SAR_Seq_1_CountsTo_mVolts, %function
 974              	ADC_SAR_Seq_1_CountsTo_mVolts:
 975              	.LFB15:
 665:.\Generated_Source\PSoC4/ADC_SAR_Seq_1.c **** 
 666:.\Generated_Source\PSoC4/ADC_SAR_Seq_1.c **** 
 667:.\Generated_Source\PSoC4/ADC_SAR_Seq_1.c **** #if(ADC_SAR_Seq_1_DEFAULT_JUSTIFICATION_SEL == ADC_SAR_Seq_1__RIGHT)
 668:.\Generated_Source\PSoC4/ADC_SAR_Seq_1.c **** 
 669:.\Generated_Source\PSoC4/ADC_SAR_Seq_1.c **** 
 670:.\Generated_Source\PSoC4/ADC_SAR_Seq_1.c ****     /*******************************************************************************
 671:.\Generated_Source\PSoC4/ADC_SAR_Seq_1.c ****     * Function Name: ADC_SAR_Seq_1_CountsTo_mVolts
 672:.\Generated_Source\PSoC4/ADC_SAR_Seq_1.c ****     ********************************************************************************
 673:.\Generated_Source\PSoC4/ADC_SAR_Seq_1.c ****     *
 674:.\Generated_Source\PSoC4/ADC_SAR_Seq_1.c ****     * Summary:
ARM GAS  C:\DOCUME~1\Chuck\LOCALS~1\Temp\ccQZlOLh.s 			page 30


 675:.\Generated_Source\PSoC4/ADC_SAR_Seq_1.c ****     *  This function converts ADC counts to mVolts
 676:.\Generated_Source\PSoC4/ADC_SAR_Seq_1.c ****     *  This function is not available when left data format justification selected.
 677:.\Generated_Source\PSoC4/ADC_SAR_Seq_1.c ****     *
 678:.\Generated_Source\PSoC4/ADC_SAR_Seq_1.c ****     * Parameters:
 679:.\Generated_Source\PSoC4/ADC_SAR_Seq_1.c ****     *  chan: The ADC channel number.
 680:.\Generated_Source\PSoC4/ADC_SAR_Seq_1.c ****     *  adcCounts: Result from the ADC conversion
 681:.\Generated_Source\PSoC4/ADC_SAR_Seq_1.c ****     *
 682:.\Generated_Source\PSoC4/ADC_SAR_Seq_1.c ****     * Return:
 683:.\Generated_Source\PSoC4/ADC_SAR_Seq_1.c ****     *  Results in mVolts
 684:.\Generated_Source\PSoC4/ADC_SAR_Seq_1.c ****     *
 685:.\Generated_Source\PSoC4/ADC_SAR_Seq_1.c ****     * Global variables:
 686:.\Generated_Source\PSoC4/ADC_SAR_Seq_1.c ****     *  ADC_SAR_Seq_1_countsPer10Volt:  used to convert ADC counts to mVolts.
 687:.\Generated_Source\PSoC4/ADC_SAR_Seq_1.c ****     *  ADC_SAR_Seq_1_Offset:  Used as the offset while converting ADC counts 
 688:.\Generated_Source\PSoC4/ADC_SAR_Seq_1.c ****     *   to mVolts.
 689:.\Generated_Source\PSoC4/ADC_SAR_Seq_1.c ****     *
 690:.\Generated_Source\PSoC4/ADC_SAR_Seq_1.c ****     *******************************************************************************/
 691:.\Generated_Source\PSoC4/ADC_SAR_Seq_1.c ****     int16 ADC_SAR_Seq_1_CountsTo_mVolts(uint32 chan, int16 adcCounts)
 692:.\Generated_Source\PSoC4/ADC_SAR_Seq_1.c ****     {
 976              		.loc 1 692 0
 977              		.cfi_startproc
 978 0000 80B5     		push	{r7, lr}
 979              	.LCFI40:
 980              		.cfi_def_cfa_offset 8
 981              		.cfi_offset 7, -8
 982              		.cfi_offset 14, -4
 983 0002 84B0     		sub	sp, sp, #16
 984              	.LCFI41:
 985              		.cfi_def_cfa_offset 24
 986 0004 00AF     		add	r7, sp, #0
 987              	.LCFI42:
 988              		.cfi_def_cfa_register 7
 989 0006 7860     		str	r0, [r7, #4]
 990 0008 0A1C     		mov	r2, r1
 991 000a BB1C     		add	r3, r7, #2
 992 000c 1A80     		strh	r2, [r3]
 693:.\Generated_Source\PSoC4/ADC_SAR_Seq_1.c ****         int16 mVolts;
 694:.\Generated_Source\PSoC4/ADC_SAR_Seq_1.c **** 
 695:.\Generated_Source\PSoC4/ADC_SAR_Seq_1.c ****         /* Halt CPU in debug mode if channel is out of valid range */
 696:.\Generated_Source\PSoC4/ADC_SAR_Seq_1.c ****         CYASSERT(chan < ADC_SAR_Seq_1_TOTAL_CHANNELS_NUM);
 993              		.loc 1 696 0
 994 000e 7B68     		ldr	r3, [r7, #4]
 995 0010 012B     		cmp	r3, #1
 996 0012 02D9     		bls	.L67
 997              		.loc 1 696 0 is_stmt 0 discriminator 1
 998 0014 0020     		mov	r0, #0
 999 0016 FFF7FEFF 		bl	CyHalt
 1000              	.L67:
 697:.\Generated_Source\PSoC4/ADC_SAR_Seq_1.c **** 
 698:.\Generated_Source\PSoC4/ADC_SAR_Seq_1.c ****         /* Divide the adcCount when accumulate averaging mode selected */
 699:.\Generated_Source\PSoC4/ADC_SAR_Seq_1.c ****         #if(ADC_SAR_Seq_1_DEFAULT_AVG_MODE == ADC_SAR_Seq_1__ACCUMULATE)
 700:.\Generated_Source\PSoC4/ADC_SAR_Seq_1.c ****             if((ADC_SAR_Seq_1_channelsConfig[chan] & ADC_SAR_Seq_1_AVERAGING_EN) != 0u)
 701:.\Generated_Source\PSoC4/ADC_SAR_Seq_1.c ****             {
 702:.\Generated_Source\PSoC4/ADC_SAR_Seq_1.c ****                 adcCounts /= ADC_SAR_Seq_1_DEFAULT_AVG_SAMPLES_DIV;
 703:.\Generated_Source\PSoC4/ADC_SAR_Seq_1.c ****             }    
 704:.\Generated_Source\PSoC4/ADC_SAR_Seq_1.c ****         #endif /* ADC_SAR_Seq_1_DEFAULT_AVG_MODE == ADC_SAR_Seq_1__ACCUMULATE */
 705:.\Generated_Source\PSoC4/ADC_SAR_Seq_1.c **** 
 706:.\Generated_Source\PSoC4/ADC_SAR_Seq_1.c ****         /* Subtract ADC offset */
ARM GAS  C:\DOCUME~1\Chuck\LOCALS~1\Temp\ccQZlOLh.s 			page 31


 707:.\Generated_Source\PSoC4/ADC_SAR_Seq_1.c ****         adcCounts -= ADC_SAR_Seq_1_offset[chan];
 1001              		.loc 1 707 0 is_stmt 1
 1002 001a BB1C     		add	r3, r7, #2
 1003 001c 1A88     		ldrh	r2, [r3]
 1004 001e 1E4B     		ldr	r3, .L73
 1005 0020 7968     		ldr	r1, [r7, #4]
 1006 0022 4900     		lsl	r1, r1, #1
 1007 0024 CB5A     		ldrh	r3, [r1, r3]
 1008 0026 9BB2     		uxth	r3, r3
 1009 0028 9BB2     		uxth	r3, r3
 1010 002a D31A     		sub	r3, r2, r3
 1011 002c 9AB2     		uxth	r2, r3
 1012 002e BB1C     		add	r3, r7, #2
 1013 0030 1A80     		strh	r2, [r3]
 708:.\Generated_Source\PSoC4/ADC_SAR_Seq_1.c **** 
 709:.\Generated_Source\PSoC4/ADC_SAR_Seq_1.c ****         mVolts = (int16)((((int32)adcCounts * ADC_SAR_Seq_1_10MV_COUNTS) + ( (adcCounts > 0) ? 
 1014              		.loc 1 709 0
 1015 0032 BB1C     		add	r3, r7, #2
 1016 0034 0021     		mov	r1, #0
 1017 0036 5B5E     		ldrsh	r3, [r3, r1]
 1018 0038 184A     		ldr	r2, .L73+4
 1019 003a 5A43     		mul	r2, r3
 710:.\Generated_Source\PSoC4/ADC_SAR_Seq_1.c ****                  (ADC_SAR_Seq_1_countsPer10Volt[chan] / 2) : (-(ADC_SAR_Seq_1_countsPer10Volt[chan]
 1020              		.loc 1 710 0
 1021 003c BB1C     		add	r3, r7, #2
 1022 003e 0021     		mov	r1, #0
 1023 0040 5B5E     		ldrsh	r3, [r3, r1]
 1024 0042 002B     		cmp	r3, #0
 1025 0044 08DD     		ble	.L68
 1026              		.loc 1 710 0 is_stmt 0 discriminator 1
 1027 0046 164B     		ldr	r3, .L73+8
 1028 0048 7968     		ldr	r1, [r7, #4]
 1029 004a 8900     		lsl	r1, r1, #2
 1030 004c CB58     		ldr	r3, [r1, r3]
 1031 004e 002B     		cmp	r3, #0
 1032 0050 00DA     		bge	.L69
 1033 0052 0133     		add	r3, r3, #1
 1034              	.L69:
 1035 0054 5B10     		asr	r3, r3, #1
 1036 0056 08E0     		b	.L70
 1037              	.L68:
 1038              		.loc 1 710 0 discriminator 2
 1039 0058 114B     		ldr	r3, .L73+8
 1040 005a 7968     		ldr	r1, [r7, #4]
 1041 005c 8900     		lsl	r1, r1, #2
 1042 005e CB58     		ldr	r3, [r1, r3]
 1043 0060 002B     		cmp	r3, #0
 1044 0062 00DA     		bge	.L71
 1045 0064 0133     		add	r3, r3, #1
 1046              	.L71:
 1047 0066 5B10     		asr	r3, r3, #1
 1048 0068 5B42     		neg	r3, r3
 1049              	.L70:
 709:.\Generated_Source\PSoC4/ADC_SAR_Seq_1.c ****         mVolts = (int16)((((int32)adcCounts * ADC_SAR_Seq_1_10MV_COUNTS) + ( (adcCounts > 0) ? 
 1050              		.loc 1 709 0 is_stmt 1
 1051 006a D218     		add	r2, r2, r3
 711:.\Generated_Source\PSoC4/ADC_SAR_Seq_1.c ****                  / ADC_SAR_Seq_1_countsPer10Volt[chan]);
ARM GAS  C:\DOCUME~1\Chuck\LOCALS~1\Temp\ccQZlOLh.s 			page 32


 1052              		.loc 1 711 0
 1053 006c 0C4B     		ldr	r3, .L73+8
 1054 006e 7968     		ldr	r1, [r7, #4]
 1055 0070 8900     		lsl	r1, r1, #2
 1056 0072 CB58     		ldr	r3, [r1, r3]
 1057 0074 101C     		mov	r0, r2
 1058 0076 191C     		mov	r1, r3
 1059 0078 FFF7FEFF 		bl	__aeabi_idiv
 1060 007c 031C     		mov	r3, r0
 1061 007e 1A1C     		mov	r2, r3
 709:.\Generated_Source\PSoC4/ADC_SAR_Seq_1.c ****         mVolts = (int16)((((int32)adcCounts * ADC_SAR_Seq_1_10MV_COUNTS) + ( (adcCounts > 0) ? 
 1062              		.loc 1 709 0
 1063 0080 3B1C     		mov	r3, r7
 1064 0082 0E33     		add	r3, r3, #14
 1065 0084 1A80     		strh	r2, [r3]
 712:.\Generated_Source\PSoC4/ADC_SAR_Seq_1.c **** 
 713:.\Generated_Source\PSoC4/ADC_SAR_Seq_1.c ****         return( mVolts );
 1066              		.loc 1 713 0
 1067 0086 3B1C     		mov	r3, r7
 1068 0088 0E33     		add	r3, r3, #14
 1069 008a 1B88     		ldrh	r3, [r3]
 1070 008c 1BB2     		sxth	r3, r3
 714:.\Generated_Source\PSoC4/ADC_SAR_Seq_1.c ****     }
 1071              		.loc 1 714 0
 1072 008e 181C     		mov	r0, r3
 1073 0090 BD46     		mov	sp, r7
 1074 0092 04B0     		add	sp, sp, #16
 1075              		@ sp needed for prologue
 1076 0094 80BD     		pop	{r7, pc}
 1077              	.L74:
 1078 0096 C046     		.align	2
 1079              	.L73:
 1080 0098 00000000 		.word	ADC_SAR_Seq_1_offset
 1081 009c 10270000 		.word	10000
 1082 00a0 00000000 		.word	ADC_SAR_Seq_1_countsPer10Volt
 1083              		.cfi_endproc
 1084              	.LFE15:
 1085              		.size	ADC_SAR_Seq_1_CountsTo_mVolts, .-ADC_SAR_Seq_1_CountsTo_mVolts
 1086              		.global	__aeabi_lmul
 1087              		.global	__aeabi_ldivmod
 1088              		.section	.text.ADC_SAR_Seq_1_CountsTo_uVolts,"ax",%progbits
 1089              		.align	2
 1090              		.global	ADC_SAR_Seq_1_CountsTo_uVolts
 1091              		.code	16
 1092              		.thumb_func
 1093              		.type	ADC_SAR_Seq_1_CountsTo_uVolts, %function
 1094              	ADC_SAR_Seq_1_CountsTo_uVolts:
 1095              	.LFB16:
 715:.\Generated_Source\PSoC4/ADC_SAR_Seq_1.c **** 
 716:.\Generated_Source\PSoC4/ADC_SAR_Seq_1.c **** 
 717:.\Generated_Source\PSoC4/ADC_SAR_Seq_1.c ****     /*******************************************************************************
 718:.\Generated_Source\PSoC4/ADC_SAR_Seq_1.c ****     * Function Name: ADC_SAR_Seq_1_CountsTo_uVolts
 719:.\Generated_Source\PSoC4/ADC_SAR_Seq_1.c ****     ********************************************************************************
 720:.\Generated_Source\PSoC4/ADC_SAR_Seq_1.c ****     *
 721:.\Generated_Source\PSoC4/ADC_SAR_Seq_1.c ****     * Summary:
 722:.\Generated_Source\PSoC4/ADC_SAR_Seq_1.c ****     *  This function converts ADC counts to micro Volts
 723:.\Generated_Source\PSoC4/ADC_SAR_Seq_1.c ****     *  This function is not available when left data format justification selected.
ARM GAS  C:\DOCUME~1\Chuck\LOCALS~1\Temp\ccQZlOLh.s 			page 33


 724:.\Generated_Source\PSoC4/ADC_SAR_Seq_1.c ****     *
 725:.\Generated_Source\PSoC4/ADC_SAR_Seq_1.c ****     * Parameters:
 726:.\Generated_Source\PSoC4/ADC_SAR_Seq_1.c ****     *  chan: The ADC channel number.
 727:.\Generated_Source\PSoC4/ADC_SAR_Seq_1.c ****     *  adcCounts: Result from the ADC conversion
 728:.\Generated_Source\PSoC4/ADC_SAR_Seq_1.c ****     *
 729:.\Generated_Source\PSoC4/ADC_SAR_Seq_1.c ****     * Return:
 730:.\Generated_Source\PSoC4/ADC_SAR_Seq_1.c ****     *  Results in uVolts
 731:.\Generated_Source\PSoC4/ADC_SAR_Seq_1.c ****     *
 732:.\Generated_Source\PSoC4/ADC_SAR_Seq_1.c ****     * Global variables:
 733:.\Generated_Source\PSoC4/ADC_SAR_Seq_1.c ****     *  ADC_SAR_Seq_1_countsPer10Volt:  used to convert ADC counts to uVolts.
 734:.\Generated_Source\PSoC4/ADC_SAR_Seq_1.c ****     *  ADC_SAR_Seq_1_Offset:  Used as the offset while converting ADC counts 
 735:.\Generated_Source\PSoC4/ADC_SAR_Seq_1.c ****     *   to mVolts.
 736:.\Generated_Source\PSoC4/ADC_SAR_Seq_1.c ****     *
 737:.\Generated_Source\PSoC4/ADC_SAR_Seq_1.c ****     * Theory: 
 738:.\Generated_Source\PSoC4/ADC_SAR_Seq_1.c ****     *  Care must be taken to not exceed the maximum value for a 31 bit signed
 739:.\Generated_Source\PSoC4/ADC_SAR_Seq_1.c ****     *  number in the conversion to uVolts and at the same time not loose 
 740:.\Generated_Source\PSoC4/ADC_SAR_Seq_1.c ****     *  resolution.
 741:.\Generated_Source\PSoC4/ADC_SAR_Seq_1.c ****     *  To convert adcCounts to microVolts it is required to be multiplied
 742:.\Generated_Source\PSoC4/ADC_SAR_Seq_1.c ****     *  on 10 million and later divide on gain in counts per 10V. 
 743:.\Generated_Source\PSoC4/ADC_SAR_Seq_1.c ****     *
 744:.\Generated_Source\PSoC4/ADC_SAR_Seq_1.c ****     *******************************************************************************/
 745:.\Generated_Source\PSoC4/ADC_SAR_Seq_1.c ****     int32 ADC_SAR_Seq_1_CountsTo_uVolts(uint32 chan, int16 adcCounts)
 746:.\Generated_Source\PSoC4/ADC_SAR_Seq_1.c ****     {
 1096              		.loc 1 746 0
 1097              		.cfi_startproc
 1098 0000 B0B5     		push	{r4, r5, r7, lr}
 1099              	.LCFI43:
 1100              		.cfi_def_cfa_offset 16
 1101              		.cfi_offset 4, -16
 1102              		.cfi_offset 5, -12
 1103              		.cfi_offset 7, -8
 1104              		.cfi_offset 14, -4
 1105 0002 86B0     		sub	sp, sp, #24
 1106              	.LCFI44:
 1107              		.cfi_def_cfa_offset 40
 1108 0004 00AF     		add	r7, sp, #0
 1109              	.LCFI45:
 1110              		.cfi_def_cfa_register 7
 1111 0006 F860     		str	r0, [r7, #12]
 1112 0008 0A1C     		mov	r2, r1
 1113 000a 3B1C     		mov	r3, r7
 1114 000c 0A33     		add	r3, r3, #10
 1115 000e 1A80     		strh	r2, [r3]
 747:.\Generated_Source\PSoC4/ADC_SAR_Seq_1.c ****         int64 uVolts;
 748:.\Generated_Source\PSoC4/ADC_SAR_Seq_1.c **** 
 749:.\Generated_Source\PSoC4/ADC_SAR_Seq_1.c ****         /* Halt CPU in debug mode if channel is out of valid range */
 750:.\Generated_Source\PSoC4/ADC_SAR_Seq_1.c ****         CYASSERT(chan < ADC_SAR_Seq_1_TOTAL_CHANNELS_NUM);
 1116              		.loc 1 750 0
 1117 0010 FB68     		ldr	r3, [r7, #12]
 1118 0012 012B     		cmp	r3, #1
 1119 0014 02D9     		bls	.L76
 1120              		.loc 1 750 0 is_stmt 0 discriminator 1
 1121 0016 0020     		mov	r0, #0
 1122 0018 FFF7FEFF 		bl	CyHalt
 1123              	.L76:
 751:.\Generated_Source\PSoC4/ADC_SAR_Seq_1.c **** 
 752:.\Generated_Source\PSoC4/ADC_SAR_Seq_1.c ****         /* Divide the adcCount when accumulate averaging mode selected */
ARM GAS  C:\DOCUME~1\Chuck\LOCALS~1\Temp\ccQZlOLh.s 			page 34


 753:.\Generated_Source\PSoC4/ADC_SAR_Seq_1.c ****         #if(ADC_SAR_Seq_1_DEFAULT_AVG_MODE == ADC_SAR_Seq_1__ACCUMULATE)
 754:.\Generated_Source\PSoC4/ADC_SAR_Seq_1.c ****             if((ADC_SAR_Seq_1_channelsConfig[chan] & ADC_SAR_Seq_1_AVERAGING_EN) != 0u)
 755:.\Generated_Source\PSoC4/ADC_SAR_Seq_1.c ****             {
 756:.\Generated_Source\PSoC4/ADC_SAR_Seq_1.c ****                 adcCounts /= ADC_SAR_Seq_1_DEFAULT_AVG_SAMPLES_DIV;
 757:.\Generated_Source\PSoC4/ADC_SAR_Seq_1.c ****             }    
 758:.\Generated_Source\PSoC4/ADC_SAR_Seq_1.c ****         #endif /* ADC_SAR_Seq_1_DEFAULT_AVG_MODE == ADC_SAR_Seq_1__ACCUMULATE */
 759:.\Generated_Source\PSoC4/ADC_SAR_Seq_1.c **** 
 760:.\Generated_Source\PSoC4/ADC_SAR_Seq_1.c ****         /* Subtract ADC offset */
 761:.\Generated_Source\PSoC4/ADC_SAR_Seq_1.c ****         adcCounts -= ADC_SAR_Seq_1_offset[chan];
 1124              		.loc 1 761 0 is_stmt 1
 1125 001c 3B1C     		mov	r3, r7
 1126 001e 0A33     		add	r3, r3, #10
 1127 0020 1A88     		ldrh	r2, [r3]
 1128 0022 1B4B     		ldr	r3, .L78+8
 1129 0024 F968     		ldr	r1, [r7, #12]
 1130 0026 4900     		lsl	r1, r1, #1
 1131 0028 CB5A     		ldrh	r3, [r1, r3]
 1132 002a 9BB2     		uxth	r3, r3
 1133 002c 9BB2     		uxth	r3, r3
 1134 002e D31A     		sub	r3, r2, r3
 1135 0030 9AB2     		uxth	r2, r3
 1136 0032 3B1C     		mov	r3, r7
 1137 0034 0A33     		add	r3, r3, #10
 1138 0036 1A80     		strh	r2, [r3]
 762:.\Generated_Source\PSoC4/ADC_SAR_Seq_1.c **** 
 763:.\Generated_Source\PSoC4/ADC_SAR_Seq_1.c ****         uVolts = ((int64)adcCounts * ADC_SAR_Seq_1_10UV_COUNTS) / ADC_SAR_Seq_1_countsPer10Volt[cha
 1139              		.loc 1 763 0
 1140 0038 3B1C     		mov	r3, r7
 1141 003a 0A33     		add	r3, r3, #10
 1142 003c 0022     		mov	r2, #0
 1143 003e 9B5E     		ldrsh	r3, [r3, r2]
 1144 0040 1A1C     		mov	r2, r3
 1145 0042 3A60     		str	r2, [r7]
 1146 0044 DB17     		asr	r3, r3, #31
 1147 0046 7B60     		str	r3, [r7, #4]
 1148 0048 3868     		ldr	r0, [r7]
 1149 004a 7968     		ldr	r1, [r7, #4]
 1150 004c 0F4B     		ldr	r3, .L78+4
 1151 004e 0E4A     		ldr	r2, .L78
 1152 0050 FFF7FEFF 		bl	__aeabi_lmul
 1153 0054 021C     		mov	r2, r0
 1154 0056 0B1C     		mov	r3, r1
 1155 0058 0E49     		ldr	r1, .L78+12
 1156 005a F868     		ldr	r0, [r7, #12]
 1157 005c 8000     		lsl	r0, r0, #2
 1158 005e 4158     		ldr	r1, [r0, r1]
 1159 0060 0C1C     		mov	r4, r1
 1160 0062 C917     		asr	r1, r1, #31
 1161 0064 0D1C     		mov	r5, r1
 1162 0066 101C     		mov	r0, r2
 1163 0068 191C     		mov	r1, r3
 1164 006a 221C     		mov	r2, r4
 1165 006c 2B1C     		mov	r3, r5
 1166 006e FFF7FEFF 		bl	__aeabi_ldivmod
 1167 0072 031C     		mov	r3, r0
 1168 0074 0C1C     		mov	r4, r1
 1169 0076 3B61     		str	r3, [r7, #16]
ARM GAS  C:\DOCUME~1\Chuck\LOCALS~1\Temp\ccQZlOLh.s 			page 35


 1170 0078 7C61     		str	r4, [r7, #20]
 764:.\Generated_Source\PSoC4/ADC_SAR_Seq_1.c **** 
 765:.\Generated_Source\PSoC4/ADC_SAR_Seq_1.c ****         return( (int32)uVolts );
 1171              		.loc 1 765 0
 1172 007a 3B69     		ldr	r3, [r7, #16]
 766:.\Generated_Source\PSoC4/ADC_SAR_Seq_1.c ****     }
 1173              		.loc 1 766 0
 1174 007c 181C     		mov	r0, r3
 1175 007e BD46     		mov	sp, r7
 1176 0080 06B0     		add	sp, sp, #24
 1177              		@ sp needed for prologue
 1178 0082 B0BD     		pop	{r4, r5, r7, pc}
 1179              	.L79:
 1180 0084 C046C046 		.align	3
 1181              	.L78:
 1182 0088 80969800 		.word	10000000
 1183 008c 00000000 		.word	0
 1184 0090 00000000 		.word	ADC_SAR_Seq_1_offset
 1185 0094 00000000 		.word	ADC_SAR_Seq_1_countsPer10Volt
 1186              		.cfi_endproc
 1187              	.LFE16:
 1188              		.size	ADC_SAR_Seq_1_CountsTo_uVolts, .-ADC_SAR_Seq_1_CountsTo_uVolts
 1189              		.global	__aeabi_i2f
 1190              		.global	__aeabi_fmul
 1191              		.global	__aeabi_fdiv
 1192              		.section	.text.ADC_SAR_Seq_1_CountsTo_Volts,"ax",%progbits
 1193              		.align	2
 1194              		.global	ADC_SAR_Seq_1_CountsTo_Volts
 1195              		.code	16
 1196              		.thumb_func
 1197              		.type	ADC_SAR_Seq_1_CountsTo_Volts, %function
 1198              	ADC_SAR_Seq_1_CountsTo_Volts:
 1199              	.LFB17:
 767:.\Generated_Source\PSoC4/ADC_SAR_Seq_1.c **** 
 768:.\Generated_Source\PSoC4/ADC_SAR_Seq_1.c **** 
 769:.\Generated_Source\PSoC4/ADC_SAR_Seq_1.c ****     /*******************************************************************************
 770:.\Generated_Source\PSoC4/ADC_SAR_Seq_1.c ****     * Function Name: ADC_SAR_Seq_1_CountsTo_Volts
 771:.\Generated_Source\PSoC4/ADC_SAR_Seq_1.c ****     ********************************************************************************
 772:.\Generated_Source\PSoC4/ADC_SAR_Seq_1.c ****     *
 773:.\Generated_Source\PSoC4/ADC_SAR_Seq_1.c ****     * Summary:
 774:.\Generated_Source\PSoC4/ADC_SAR_Seq_1.c ****     *  Converts the ADC output to Volts as a floating point number.
 775:.\Generated_Source\PSoC4/ADC_SAR_Seq_1.c ****     *  This function is not available when left data format justification selected.
 776:.\Generated_Source\PSoC4/ADC_SAR_Seq_1.c ****     *
 777:.\Generated_Source\PSoC4/ADC_SAR_Seq_1.c ****     * Parameters:
 778:.\Generated_Source\PSoC4/ADC_SAR_Seq_1.c ****     *  chan: The ADC channel number.
 779:.\Generated_Source\PSoC4/ADC_SAR_Seq_1.c ****     *  Result from the ADC conversion
 780:.\Generated_Source\PSoC4/ADC_SAR_Seq_1.c ****     *
 781:.\Generated_Source\PSoC4/ADC_SAR_Seq_1.c ****     * Return:
 782:.\Generated_Source\PSoC4/ADC_SAR_Seq_1.c ****     *  Results in Volts
 783:.\Generated_Source\PSoC4/ADC_SAR_Seq_1.c ****     *
 784:.\Generated_Source\PSoC4/ADC_SAR_Seq_1.c ****     * Global variables:
 785:.\Generated_Source\PSoC4/ADC_SAR_Seq_1.c ****     *  ADC_SAR_Seq_1_countsPer10Volt:  used to convert ADC counts to Volts.
 786:.\Generated_Source\PSoC4/ADC_SAR_Seq_1.c ****     *  ADC_SAR_Seq_1_Offset:  Used as the offset while converting ADC counts 
 787:.\Generated_Source\PSoC4/ADC_SAR_Seq_1.c ****     *   to mVolts.
 788:.\Generated_Source\PSoC4/ADC_SAR_Seq_1.c ****     *
 789:.\Generated_Source\PSoC4/ADC_SAR_Seq_1.c ****     *******************************************************************************/
 790:.\Generated_Source\PSoC4/ADC_SAR_Seq_1.c ****     float32 ADC_SAR_Seq_1_CountsTo_Volts(uint32 chan, int16 adcCounts)
ARM GAS  C:\DOCUME~1\Chuck\LOCALS~1\Temp\ccQZlOLh.s 			page 36


 791:.\Generated_Source\PSoC4/ADC_SAR_Seq_1.c ****     {
 1200              		.loc 1 791 0
 1201              		.cfi_startproc
 1202 0000 90B5     		push	{r4, r7, lr}
 1203              	.LCFI46:
 1204              		.cfi_def_cfa_offset 12
 1205              		.cfi_offset 4, -12
 1206              		.cfi_offset 7, -8
 1207              		.cfi_offset 14, -4
 1208 0002 85B0     		sub	sp, sp, #20
 1209              	.LCFI47:
 1210              		.cfi_def_cfa_offset 32
 1211 0004 00AF     		add	r7, sp, #0
 1212              	.LCFI48:
 1213              		.cfi_def_cfa_register 7
 1214 0006 7860     		str	r0, [r7, #4]
 1215 0008 0A1C     		mov	r2, r1
 1216 000a BB1C     		add	r3, r7, #2
 1217 000c 1A80     		strh	r2, [r3]
 792:.\Generated_Source\PSoC4/ADC_SAR_Seq_1.c ****         float32 volts;
 793:.\Generated_Source\PSoC4/ADC_SAR_Seq_1.c **** 
 794:.\Generated_Source\PSoC4/ADC_SAR_Seq_1.c ****         /* Halt CPU in debug mode if channel is out of valid range */
 795:.\Generated_Source\PSoC4/ADC_SAR_Seq_1.c ****         CYASSERT(chan < ADC_SAR_Seq_1_TOTAL_CHANNELS_NUM);
 1218              		.loc 1 795 0
 1219 000e 7B68     		ldr	r3, [r7, #4]
 1220 0010 012B     		cmp	r3, #1
 1221 0012 02D9     		bls	.L81
 1222              		.loc 1 795 0 is_stmt 0 discriminator 1
 1223 0014 0020     		mov	r0, #0
 1224 0016 FFF7FEFF 		bl	CyHalt
 1225              	.L81:
 796:.\Generated_Source\PSoC4/ADC_SAR_Seq_1.c **** 
 797:.\Generated_Source\PSoC4/ADC_SAR_Seq_1.c ****         /* Divide the adcCount when accumulate averaging mode selected */
 798:.\Generated_Source\PSoC4/ADC_SAR_Seq_1.c ****         #if(ADC_SAR_Seq_1_DEFAULT_AVG_MODE == ADC_SAR_Seq_1__ACCUMULATE)
 799:.\Generated_Source\PSoC4/ADC_SAR_Seq_1.c ****             if((ADC_SAR_Seq_1_channelsConfig[chan] & ADC_SAR_Seq_1_AVERAGING_EN) != 0u)
 800:.\Generated_Source\PSoC4/ADC_SAR_Seq_1.c ****             {
 801:.\Generated_Source\PSoC4/ADC_SAR_Seq_1.c ****                 adcCounts /= ADC_SAR_Seq_1_DEFAULT_AVG_SAMPLES_DIV;
 802:.\Generated_Source\PSoC4/ADC_SAR_Seq_1.c ****             }    
 803:.\Generated_Source\PSoC4/ADC_SAR_Seq_1.c ****         #endif /* ADC_SAR_Seq_1_DEFAULT_AVG_MODE == ADC_SAR_Seq_1__ACCUMULATE */
 804:.\Generated_Source\PSoC4/ADC_SAR_Seq_1.c **** 
 805:.\Generated_Source\PSoC4/ADC_SAR_Seq_1.c ****         /* Subtract ADC offset */
 806:.\Generated_Source\PSoC4/ADC_SAR_Seq_1.c ****         adcCounts -= ADC_SAR_Seq_1_offset[chan];
 1226              		.loc 1 806 0 is_stmt 1
 1227 001a BB1C     		add	r3, r7, #2
 1228 001c 1A88     		ldrh	r2, [r3]
 1229 001e 154B     		ldr	r3, .L83
 1230 0020 7968     		ldr	r1, [r7, #4]
 1231 0022 4900     		lsl	r1, r1, #1
 1232 0024 CB5A     		ldrh	r3, [r1, r3]
 1233 0026 9BB2     		uxth	r3, r3
 1234 0028 9BB2     		uxth	r3, r3
 1235 002a D31A     		sub	r3, r2, r3
 1236 002c 9AB2     		uxth	r2, r3
 1237 002e BB1C     		add	r3, r7, #2
 1238 0030 1A80     		strh	r2, [r3]
 807:.\Generated_Source\PSoC4/ADC_SAR_Seq_1.c **** 
 808:.\Generated_Source\PSoC4/ADC_SAR_Seq_1.c ****         volts = ((float32)adcCounts * ADC_SAR_Seq_1_10V_COUNTS) / (float32)ADC_SAR_Seq_1_countsPer1
ARM GAS  C:\DOCUME~1\Chuck\LOCALS~1\Temp\ccQZlOLh.s 			page 37


 1239              		.loc 1 808 0
 1240 0032 BB1C     		add	r3, r7, #2
 1241 0034 0022     		mov	r2, #0
 1242 0036 9B5E     		ldrsh	r3, [r3, r2]
 1243 0038 181C     		mov	r0, r3
 1244 003a FFF7FEFF 		bl	__aeabi_i2f
 1245 003e 031C     		add	r3, r0, #0
 1246 0040 181C     		add	r0, r3, #0
 1247 0042 0D49     		ldr	r1, .L83+4
 1248 0044 FFF7FEFF 		bl	__aeabi_fmul
 1249 0048 031C     		add	r3, r0, #0
 1250 004a 1C1C     		add	r4, r3, #0
 1251 004c 0B4B     		ldr	r3, .L83+8
 1252 004e 7A68     		ldr	r2, [r7, #4]
 1253 0050 9200     		lsl	r2, r2, #2
 1254 0052 D358     		ldr	r3, [r2, r3]
 1255 0054 181C     		mov	r0, r3
 1256 0056 FFF7FEFF 		bl	__aeabi_i2f
 1257 005a 031C     		add	r3, r0, #0
 1258 005c 201C     		add	r0, r4, #0
 1259 005e 191C     		add	r1, r3, #0
 1260 0060 FFF7FEFF 		bl	__aeabi_fdiv
 1261 0064 031C     		add	r3, r0, #0
 1262 0066 FB60     		str	r3, [r7, #12]
 809:.\Generated_Source\PSoC4/ADC_SAR_Seq_1.c **** 
 810:.\Generated_Source\PSoC4/ADC_SAR_Seq_1.c ****         return( volts );
 1263              		.loc 1 810 0
 1264 0068 FB68     		ldr	r3, [r7, #12]
 811:.\Generated_Source\PSoC4/ADC_SAR_Seq_1.c ****     }
 1265              		.loc 1 811 0
 1266 006a 181C     		add	r0, r3, #0
 1267 006c BD46     		mov	sp, r7
 1268 006e 05B0     		add	sp, sp, #20
 1269              		@ sp needed for prologue
 1270 0070 90BD     		pop	{r4, r7, pc}
 1271              	.L84:
 1272 0072 C046     		.align	2
 1273              	.L83:
 1274 0074 00000000 		.word	ADC_SAR_Seq_1_offset
 1275 0078 00002041 		.word	1092616192
 1276 007c 00000000 		.word	ADC_SAR_Seq_1_countsPer10Volt
 1277              		.cfi_endproc
 1278              	.LFE17:
 1279              		.size	ADC_SAR_Seq_1_CountsTo_Volts, .-ADC_SAR_Seq_1_CountsTo_Volts
 1280              		.section	.rodata
 1281              		.align	2
 1282              		.type	ADC_SAR_Seq_1_InputsPlacement.4650, %object
 1283              		.size	ADC_SAR_Seq_1_InputsPlacement.4650, 2
 1284              	ADC_SAR_Seq_1_InputsPlacement.4650:
 1285 0008 07       		.byte	7
 1286 0009 06       		.byte	6
 1287 000a 0000     		.text
 1288              	.Letext0:
 1289              		.file 2 ".\\Generated_Source\\PSoC4\\cytypes.h"