ARM GAS  C:\DOCUME~1\Chuck\LOCALS~1\Temp\ccFkkxMw.s 			page 1


   1              		.cpu cortex-m0
   2              		.fpu softvfp
   3              		.eabi_attribute 20, 1
   4              		.eabi_attribute 21, 1
   5              		.eabi_attribute 23, 3
   6              		.eabi_attribute 24, 1
   7              		.eabi_attribute 25, 1
   8              		.eabi_attribute 26, 1
   9              		.eabi_attribute 30, 6
  10              		.eabi_attribute 34, 0
  11              		.eabi_attribute 18, 4
  12              		.code	16
  13              		.file	"Blink.cpp"
  14              		.text
  15              	.Ltext0:
  16              		.cfi_sections	.debug_frame
  17              		.section	.text._ZNK8std_msgs5Empty9serializeEPh,"axG",%progbits,_ZNK8std_msgs5Empty9serializeEPh,c
  18              		.align	2
  19              		.weak	_ZNK8std_msgs5Empty9serializeEPh
  20              		.code	16
  21              		.thumb_func
  22              		.type	_ZNK8std_msgs5Empty9serializeEPh, %function
  23              	_ZNK8std_msgs5Empty9serializeEPh:
  24              	.LFB138:
  25              		.file 1 "./ros_lib/std_msgs/Empty.h"
   1:./ros_lib/std_msgs/Empty.h **** #ifndef _ROS_std_msgs_Empty_h
   2:./ros_lib/std_msgs/Empty.h **** #define _ROS_std_msgs_Empty_h
   3:./ros_lib/std_msgs/Empty.h **** 
   4:./ros_lib/std_msgs/Empty.h **** #include <stdint.h>
   5:./ros_lib/std_msgs/Empty.h **** #include <string.h>
   6:./ros_lib/std_msgs/Empty.h **** #include <stdlib.h>
   7:./ros_lib/std_msgs/Empty.h **** #include "ros/msg.h"
   8:./ros_lib/std_msgs/Empty.h **** 
   9:./ros_lib/std_msgs/Empty.h **** namespace std_msgs
  10:./ros_lib/std_msgs/Empty.h **** {
  11:./ros_lib/std_msgs/Empty.h **** 
  12:./ros_lib/std_msgs/Empty.h ****   class Empty : public ros::Msg
  13:./ros_lib/std_msgs/Empty.h ****   {
  14:./ros_lib/std_msgs/Empty.h ****     public:
  15:./ros_lib/std_msgs/Empty.h **** 
  16:./ros_lib/std_msgs/Empty.h ****     virtual int serialize(unsigned char *outbuffer) const
  26              		.loc 1 16 0
  27              		.cfi_startproc
  28 0000 80B5     		push	{r7, lr}
  29              	.LCFI0:
  30              		.cfi_def_cfa_offset 8
  31              		.cfi_offset 7, -8
  32              		.cfi_offset 14, -4
  33 0002 84B0     		sub	sp, sp, #16
  34              	.LCFI1:
  35              		.cfi_def_cfa_offset 24
  36 0004 00AF     		add	r7, sp, #0
  37              	.LCFI2:
  38              		.cfi_def_cfa_register 7
  39 0006 7860     		str	r0, [r7, #4]
  40 0008 3960     		str	r1, [r7]
  41              	.LBB2:
ARM GAS  C:\DOCUME~1\Chuck\LOCALS~1\Temp\ccFkkxMw.s 			page 2


  17:./ros_lib/std_msgs/Empty.h ****     {
  18:./ros_lib/std_msgs/Empty.h ****       int offset = 0;
  42              		.loc 1 18 0
  43 000a 0023     		mov	r3, #0
  44 000c FB60     		str	r3, [r7, #12]
  19:./ros_lib/std_msgs/Empty.h **** #ifndef ROS_MSG_DONT_SERIALIZE
  20:./ros_lib/std_msgs/Empty.h **** #endif
  21:./ros_lib/std_msgs/Empty.h ****       return offset;
  45              		.loc 1 21 0
  46 000e FB68     		ldr	r3, [r7, #12]
  47              	.LBE2:
  22:./ros_lib/std_msgs/Empty.h ****     }
  48              		.loc 1 22 0
  49 0010 181C     		mov	r0, r3
  50 0012 BD46     		mov	sp, r7
  51 0014 04B0     		add	sp, sp, #16
  52              		@ sp needed for prologue
  53 0016 80BD     		pop	{r7, pc}
  54              		.cfi_endproc
  55              	.LFE138:
  56              		.size	_ZNK8std_msgs5Empty9serializeEPh, .-_ZNK8std_msgs5Empty9serializeEPh
  57              		.section	.text._ZN8std_msgs5Empty11deserializeEPh,"axG",%progbits,_ZN8std_msgs5Empty11deserializeE
  58              		.align	2
  59              		.weak	_ZN8std_msgs5Empty11deserializeEPh
  60              		.code	16
  61              		.thumb_func
  62              		.type	_ZN8std_msgs5Empty11deserializeEPh, %function
  63              	_ZN8std_msgs5Empty11deserializeEPh:
  64              	.LFB139:
  23:./ros_lib/std_msgs/Empty.h **** 
  24:./ros_lib/std_msgs/Empty.h ****     virtual int deserialize(unsigned char *inbuffer)
  65              		.loc 1 24 0
  66              		.cfi_startproc
  67 0000 80B5     		push	{r7, lr}
  68              	.LCFI3:
  69              		.cfi_def_cfa_offset 8
  70              		.cfi_offset 7, -8
  71              		.cfi_offset 14, -4
  72 0002 84B0     		sub	sp, sp, #16
  73              	.LCFI4:
  74              		.cfi_def_cfa_offset 24
  75 0004 00AF     		add	r7, sp, #0
  76              	.LCFI5:
  77              		.cfi_def_cfa_register 7
  78 0006 7860     		str	r0, [r7, #4]
  79 0008 3960     		str	r1, [r7]
  80              	.LBB3:
  25:./ros_lib/std_msgs/Empty.h ****     {
  26:./ros_lib/std_msgs/Empty.h ****       int offset = 0;
  81              		.loc 1 26 0
  82 000a 0023     		mov	r3, #0
  83 000c FB60     		str	r3, [r7, #12]
  27:./ros_lib/std_msgs/Empty.h **** #ifndef ROS_MSG_DONT_DESERIALIZE
  28:./ros_lib/std_msgs/Empty.h **** #endif
  29:./ros_lib/std_msgs/Empty.h ****      return offset;
  84              		.loc 1 29 0
  85 000e FB68     		ldr	r3, [r7, #12]
ARM GAS  C:\DOCUME~1\Chuck\LOCALS~1\Temp\ccFkkxMw.s 			page 3


  86              	.LBE3:
  30:./ros_lib/std_msgs/Empty.h ****     }
  87              		.loc 1 30 0
  88 0010 181C     		mov	r0, r3
  89 0012 BD46     		mov	sp, r7
  90 0014 04B0     		add	sp, sp, #16
  91              		@ sp needed for prologue
  92 0016 80BD     		pop	{r7, pc}
  93              		.cfi_endproc
  94              	.LFE139:
  95              		.size	_ZN8std_msgs5Empty11deserializeEPh, .-_ZN8std_msgs5Empty11deserializeEPh
  96              		.section	.rodata
  97              		.align	2
  98              	.LC0:
  99 0000 7374645F 		.ascii	"std_msgs/Empty\000"
  99      6D736773 
  99      2F456D70 
  99      747900
 100              		.section	.text._ZN8std_msgs5Empty7getTypeEv,"axG",%progbits,_ZN8std_msgs5Empty7getTypeEv,comdat
 101              		.align	2
 102              		.weak	_ZN8std_msgs5Empty7getTypeEv
 103              		.code	16
 104              		.thumb_func
 105              		.type	_ZN8std_msgs5Empty7getTypeEv, %function
 106              	_ZN8std_msgs5Empty7getTypeEv:
 107              	.LFB140:
  31:./ros_lib/std_msgs/Empty.h **** 
  32:./ros_lib/std_msgs/Empty.h ****     const char * getType(){ return "std_msgs/Empty"; };
 108              		.loc 1 32 0
 109              		.cfi_startproc
 110 0000 80B5     		push	{r7, lr}
 111              	.LCFI6:
 112              		.cfi_def_cfa_offset 8
 113              		.cfi_offset 7, -8
 114              		.cfi_offset 14, -4
 115 0002 82B0     		sub	sp, sp, #8
 116              	.LCFI7:
 117              		.cfi_def_cfa_offset 16
 118 0004 00AF     		add	r7, sp, #0
 119              	.LCFI8:
 120              		.cfi_def_cfa_register 7
 121 0006 7860     		str	r0, [r7, #4]
 122              		.loc 1 32 0
 123 0008 024B     		ldr	r3, .L7
 124 000a 181C     		mov	r0, r3
 125 000c BD46     		mov	sp, r7
 126 000e 02B0     		add	sp, sp, #8
 127              		@ sp needed for prologue
 128 0010 80BD     		pop	{r7, pc}
 129              	.L8:
 130 0012 C046     		.align	2
 131              	.L7:
 132 0014 00000000 		.word	.LC0
 133              		.cfi_endproc
 134              	.LFE140:
 135              		.size	_ZN8std_msgs5Empty7getTypeEv, .-_ZN8std_msgs5Empty7getTypeEv
 136              		.section	.rodata
ARM GAS  C:\DOCUME~1\Chuck\LOCALS~1\Temp\ccFkkxMw.s 			page 4


 137 000f 00       		.align	2
 138              	.LC2:
 139 0010 64343164 		.ascii	"d41d8cd98f00b204e9800998ecf8427e\000"
 139      38636439 
 139      38663030 
 139      62323034 
 139      65393830 
 140              		.section	.text._ZN8std_msgs5Empty6getMD5Ev,"axG",%progbits,_ZN8std_msgs5Empty6getMD5Ev,comdat
 141              		.align	2
 142              		.weak	_ZN8std_msgs5Empty6getMD5Ev
 143              		.code	16
 144              		.thumb_func
 145              		.type	_ZN8std_msgs5Empty6getMD5Ev, %function
 146              	_ZN8std_msgs5Empty6getMD5Ev:
 147              	.LFB141:
  33:./ros_lib/std_msgs/Empty.h ****     const char * getMD5(){ return "d41d8cd98f00b204e9800998ecf8427e"; };
 148              		.loc 1 33 0
 149              		.cfi_startproc
 150 0000 80B5     		push	{r7, lr}
 151              	.LCFI9:
 152              		.cfi_def_cfa_offset 8
 153              		.cfi_offset 7, -8
 154              		.cfi_offset 14, -4
 155 0002 82B0     		sub	sp, sp, #8
 156              	.LCFI10:
 157              		.cfi_def_cfa_offset 16
 158 0004 00AF     		add	r7, sp, #0
 159              	.LCFI11:
 160              		.cfi_def_cfa_register 7
 161 0006 7860     		str	r0, [r7, #4]
 162              		.loc 1 33 0
 163 0008 024B     		ldr	r3, .L11
 164 000a 181C     		mov	r0, r3
 165 000c BD46     		mov	sp, r7
 166 000e 02B0     		add	sp, sp, #8
 167              		@ sp needed for prologue
 168 0010 80BD     		pop	{r7, pc}
 169              	.L12:
 170 0012 C046     		.align	2
 171              	.L11:
 172 0014 10000000 		.word	.LC2
 173              		.cfi_endproc
 174              	.LFE141:
 175              		.size	_ZN8std_msgs5Empty6getMD5Ev, .-_ZN8std_msgs5Empty6getMD5Ev
 176              		.global	_ZN5Blink5ledOnE
 177              		.bss
 178              		.type	_ZN5Blink5ledOnE, %object
 179              		.size	_ZN5Blink5ledOnE, 1
 180              	_ZN5Blink5ledOnE:
 181 0000 00       		.space	1
 182              		.section	.text._ZN5Blink9messageCbERKN8std_msgs5EmptyE,"ax",%progbits
 183              		.align	2
 184              		.global	_ZN5Blink9messageCbERKN8std_msgs5EmptyE
 185              		.code	16
 186              		.thumb_func
 187              		.type	_ZN5Blink9messageCbERKN8std_msgs5EmptyE, %function
 188              	_ZN5Blink9messageCbERKN8std_msgs5EmptyE:
ARM GAS  C:\DOCUME~1\Chuck\LOCALS~1\Temp\ccFkkxMw.s 			page 5


 189              	.LFB142:
 190              		.file 2 ".\\ros_lib\\examples\\Blink\\Blink.cpp"
   1:.\ros_lib\examples\Blink/Blink.cpp **** /* 
   2:.\ros_lib\examples\Blink/Blink.cpp ****  * rosserial Subscriber Example
   3:.\ros_lib\examples\Blink/Blink.cpp ****  * Blinks an LED on callback
   4:.\ros_lib\examples\Blink/Blink.cpp ****  */
   5:.\ros_lib\examples\Blink/Blink.cpp ****  
   6:.\ros_lib\examples\Blink/Blink.cpp **** extern "C" {
   7:.\ros_lib\examples\Blink/Blink.cpp ****   #include "project.h"
   8:.\ros_lib\examples\Blink/Blink.cpp **** }
   9:.\ros_lib\examples\Blink/Blink.cpp **** 
  10:.\ros_lib\examples\Blink/Blink.cpp **** #include <ros.h>
  11:.\ros_lib\examples\Blink/Blink.cpp **** #include <std_msgs/Empty.h>
  12:.\ros_lib\examples\Blink/Blink.cpp **** extern ros::NodeHandle  nh;
  13:.\ros_lib\examples\Blink/Blink.cpp **** 
  14:.\ros_lib\examples\Blink/Blink.cpp **** namespace Blink {
  15:.\ros_lib\examples\Blink/Blink.cpp **** 
  16:.\ros_lib\examples\Blink/Blink.cpp **** uint8_t ledOn;
  17:.\ros_lib\examples\Blink/Blink.cpp **** void messageCb( const std_msgs::Empty& toggle_msg){
 191              		.loc 2 17 0
 192              		.cfi_startproc
 193 0000 80B5     		push	{r7, lr}
 194              	.LCFI12:
 195              		.cfi_def_cfa_offset 8
 196              		.cfi_offset 7, -8
 197              		.cfi_offset 14, -4
 198 0002 82B0     		sub	sp, sp, #8
 199              	.LCFI13:
 200              		.cfi_def_cfa_offset 16
 201 0004 00AF     		add	r7, sp, #0
 202              	.LCFI14:
 203              		.cfi_def_cfa_register 7
 204 0006 7860     		str	r0, [r7, #4]
  18:.\ros_lib\examples\Blink/Blink.cpp ****   ledOn = 1-ledOn;
 205              		.loc 2 18 0
 206 0008 044B     		ldr	r3, .L14
 207 000a 1B78     		ldrb	r3, [r3]
 208 000c 0122     		mov	r2, #1
 209 000e D31A     		sub	r3, r2, r3
 210 0010 DAB2     		uxtb	r2, r3
 211 0012 024B     		ldr	r3, .L14
 212 0014 1A70     		strb	r2, [r3]
  19:.\ros_lib\examples\Blink/Blink.cpp **** }
 213              		.loc 2 19 0
 214 0016 BD46     		mov	sp, r7
 215 0018 02B0     		add	sp, sp, #8
 216              		@ sp needed for prologue
 217 001a 80BD     		pop	{r7, pc}
 218              	.L15:
 219              		.align	2
 220              	.L14:
 221 001c 00000000 		.word	_ZN5Blink5ledOnE
 222              		.cfi_endproc
 223              	.LFE142:
 224              		.size	_ZN5Blink9messageCbERKN8std_msgs5EmptyE, .-_ZN5Blink9messageCbERKN8std_msgs5EmptyE
 225              		.global	_ZN5Blink3subE
 226              		.bss
ARM GAS  C:\DOCUME~1\Chuck\LOCALS~1\Temp\ccFkkxMw.s 			page 6


 227 0001 000000   		.align	2
 228              		.type	_ZN5Blink3subE, %object
 229              		.size	_ZN5Blink3subE, 28
 230              	_ZN5Blink3subE:
 231 0004 00000000 		.space	28
 231      00000000 
 231      00000000 
 231      00000000 
 231      00000000 
 232              		.section	.text._ZN5Blink5setupEv,"ax",%progbits
 233              		.align	2
 234              		.global	_ZN5Blink5setupEv
 235              		.code	16
 236              		.thumb_func
 237              		.type	_ZN5Blink5setupEv, %function
 238              	_ZN5Blink5setupEv:
 239              	.LFB143:
  20:.\ros_lib\examples\Blink/Blink.cpp **** 
  21:.\ros_lib\examples\Blink/Blink.cpp **** ros::Subscriber<std_msgs::Empty> sub("toggle_led", &messageCb );
  22:.\ros_lib\examples\Blink/Blink.cpp **** 
  23:.\ros_lib\examples\Blink/Blink.cpp **** void setup()
  24:.\ros_lib\examples\Blink/Blink.cpp **** {
 240              		.loc 2 24 0
 241              		.cfi_startproc
 242 0000 80B5     		push	{r7, lr}
 243              	.LCFI15:
 244              		.cfi_def_cfa_offset 8
 245              		.cfi_offset 7, -8
 246              		.cfi_offset 14, -4
 247 0002 00AF     		add	r7, sp, #0
 248              	.LCFI16:
 249              		.cfi_def_cfa_register 7
  25:.\ros_lib\examples\Blink/Blink.cpp ****   ledOn = 0;
 250              		.loc 2 25 0
 251 0004 074B     		ldr	r3, .L17
 252 0006 0022     		mov	r2, #0
 253 0008 1A70     		strb	r2, [r3]
  26:.\ros_lib\examples\Blink/Blink.cpp ****   P1_6_Write(ledOn);
 254              		.loc 2 26 0
 255 000a 064B     		ldr	r3, .L17
 256 000c 1B78     		ldrb	r3, [r3]
 257 000e 181C     		mov	r0, r3
 258 0010 FFF7FEFF 		bl	P1_6_Write
  27:.\ros_lib\examples\Blink/Blink.cpp ****   nh.subscribe(sub);
 259              		.loc 2 27 0
 260 0014 044A     		ldr	r2, .L17+4
 261 0016 054B     		ldr	r3, .L17+8
 262 0018 101C     		mov	r0, r2
 263 001a 191C     		mov	r1, r3
 264 001c FFF7FEFF 		bl	_ZN3ros11NodeHandle_I13Psoc4HardwareLi10ELi20ELi200ELi200EE9subscribeIN8std_msgs5EmptyEEEbRNS_1
  28:.\ros_lib\examples\Blink/Blink.cpp **** }
 265              		.loc 2 28 0
 266 0020 BD46     		mov	sp, r7
 267              		@ sp needed for prologue
 268 0022 80BD     		pop	{r7, pc}
 269              	.L18:
 270              		.align	2
ARM GAS  C:\DOCUME~1\Chuck\LOCALS~1\Temp\ccFkkxMw.s 			page 7


 271              	.L17:
 272 0024 00000000 		.word	_ZN5Blink5ledOnE
 273 0028 00000000 		.word	nh
 274 002c 00000000 		.word	_ZN5Blink3subE
 275              		.cfi_endproc
 276              	.LFE143:
 277              		.size	_ZN5Blink5setupEv, .-_ZN5Blink5setupEv
 278              		.section	.text._ZN5Blink4loopEv,"ax",%progbits
 279              		.align	2
 280              		.global	_ZN5Blink4loopEv
 281              		.code	16
 282              		.thumb_func
 283              		.type	_ZN5Blink4loopEv, %function
 284              	_ZN5Blink4loopEv:
 285              	.LFB144:
  29:.\ros_lib\examples\Blink/Blink.cpp **** 
  30:.\ros_lib\examples\Blink/Blink.cpp **** void loop()
  31:.\ros_lib\examples\Blink/Blink.cpp **** {  
 286              		.loc 2 31 0
 287              		.cfi_startproc
 288 0000 80B5     		push	{r7, lr}
 289              	.LCFI17:
 290              		.cfi_def_cfa_offset 8
 291              		.cfi_offset 7, -8
 292              		.cfi_offset 14, -4
 293 0002 00AF     		add	r7, sp, #0
 294              	.LCFI18:
 295              		.cfi_def_cfa_register 7
  32:.\ros_lib\examples\Blink/Blink.cpp ****   P1_6_Write(ledOn);
 296              		.loc 2 32 0
 297 0004 034B     		ldr	r3, .L20
 298 0006 1B78     		ldrb	r3, [r3]
 299 0008 181C     		mov	r0, r3
 300 000a FFF7FEFF 		bl	P1_6_Write
  33:.\ros_lib\examples\Blink/Blink.cpp **** }
 301              		.loc 2 33 0
 302 000e BD46     		mov	sp, r7
 303              		@ sp needed for prologue
 304 0010 80BD     		pop	{r7, pc}
 305              	.L21:
 306 0012 C046     		.align	2
 307              	.L20:
 308 0014 00000000 		.word	_ZN5Blink5ledOnE
 309              		.cfi_endproc
 310              	.LFE144:
 311              		.size	_ZN5Blink4loopEv, .-_ZN5Blink4loopEv
 312              		.section	.text._ZN3ros11Subscriber_C2Ev,"axG",%progbits,_ZN3ros11Subscriber_C5Ev,comdat
 313              		.align	2
 314              		.weak	_ZN3ros11Subscriber_C2Ev
 315              		.code	16
 316              		.thumb_func
 317              		.type	_ZN3ros11Subscriber_C2Ev, %function
 318              	_ZN3ros11Subscriber_C2Ev:
 319              	.LFB147:
 320              		.file 3 "./ros_lib/ros/subscriber.h"
   1:./ros_lib/ros/subscriber.h **** /* 
   2:./ros_lib/ros/subscriber.h ****  * Software License Agreement (BSD License)
ARM GAS  C:\DOCUME~1\Chuck\LOCALS~1\Temp\ccFkkxMw.s 			page 8


   3:./ros_lib/ros/subscriber.h ****  *
   4:./ros_lib/ros/subscriber.h ****  * Copyright (c) 2011, Willow Garage, Inc.
   5:./ros_lib/ros/subscriber.h ****  * All rights reserved.
   6:./ros_lib/ros/subscriber.h ****  *
   7:./ros_lib/ros/subscriber.h ****  * Redistribution and use in source and binary forms, with or without
   8:./ros_lib/ros/subscriber.h ****  * modification, are permitted provided that the following conditions
   9:./ros_lib/ros/subscriber.h ****  * are met:
  10:./ros_lib/ros/subscriber.h ****  *
  11:./ros_lib/ros/subscriber.h ****  *  * Redistributions of source code must retain the above copyright
  12:./ros_lib/ros/subscriber.h ****  *    notice, this list of conditions and the following disclaimer.
  13:./ros_lib/ros/subscriber.h ****  *  * Redistributions in binary form must reproduce the above
  14:./ros_lib/ros/subscriber.h ****  *    copyright notice, this list of conditions and the following
  15:./ros_lib/ros/subscriber.h ****  *    disclaimer in the documentation and/or other materials provided
  16:./ros_lib/ros/subscriber.h ****  *    with the distribution.
  17:./ros_lib/ros/subscriber.h ****  *  * Neither the name of Willow Garage, Inc. nor the names of its
  18:./ros_lib/ros/subscriber.h ****  *    contributors may be used to endorse or promote prducts derived
  19:./ros_lib/ros/subscriber.h ****  *    from this software without specific prior written permission.
  20:./ros_lib/ros/subscriber.h ****  *
  21:./ros_lib/ros/subscriber.h ****  * THIS SOFTWARE IS PROVIDED BY THE COPYRIGHT HOLDERS AND CONTRIBUTORS
  22:./ros_lib/ros/subscriber.h ****  * "AS IS" AND ANY EXPRESS OR IMPLIED WARRANTIES, INCLUDING, BUT NOT
  23:./ros_lib/ros/subscriber.h ****  * LIMITED TO, THE IMPLIED WARRANTIES OF MERCHANTABILITY AND FITNESS
  24:./ros_lib/ros/subscriber.h ****  * FOR A PARTICULAR PURPOSE ARE DISCLAIMED. IN NO EVENT SHALL THE
  25:./ros_lib/ros/subscriber.h ****  * COPYRIGHT OWNER OR CONTRIBUTORS BE LIABLE FOR ANY DIRECT, INDIRECT,
  26:./ros_lib/ros/subscriber.h ****  * INCIDENTAL, SPECIAL, EXEMPLARY, OR CONSEQUENTIAL DAMAGES (INCLUDING,
  27:./ros_lib/ros/subscriber.h ****  * BUT NOT LIMITED TO, PROCUREMENT OF SUBSTITUTE GOODS OR SERVICES;
  28:./ros_lib/ros/subscriber.h ****  * LOSS OF USE, DATA, OR PROFITS; OR BUSINESS INTERRUPTION) HOWEVER
  29:./ros_lib/ros/subscriber.h ****  * CAUSED AND ON ANY THEORY OF LIABILITY, WHETHER IN CONTRACT, STRICT
  30:./ros_lib/ros/subscriber.h ****  * LIABILITY, OR TORT (INCLUDING NEGLIGENCE OR OTHERWISE) ARISING IN
  31:./ros_lib/ros/subscriber.h ****  * ANY WAY OUT OF THE USE OF THIS SOFTWARE, EVEN IF ADVISED OF THE
  32:./ros_lib/ros/subscriber.h ****  * POSSIBILITY OF SUCH DAMAGE.
  33:./ros_lib/ros/subscriber.h ****  */
  34:./ros_lib/ros/subscriber.h **** 
  35:./ros_lib/ros/subscriber.h **** #ifndef ROS_SUBSCRIBER_H_
  36:./ros_lib/ros/subscriber.h **** #define ROS_SUBSCRIBER_H_
  37:./ros_lib/ros/subscriber.h **** 
  38:./ros_lib/ros/subscriber.h **** #include "rosserial_msgs/TopicInfo.h"
  39:./ros_lib/ros/subscriber.h **** 
  40:./ros_lib/ros/subscriber.h **** namespace ros {
  41:./ros_lib/ros/subscriber.h **** 
  42:./ros_lib/ros/subscriber.h ****   /* Base class for objects subscribers. */
  43:./ros_lib/ros/subscriber.h ****   class Subscriber_
 321              		.loc 3 43 0
 322              		.cfi_startproc
 323 0000 80B5     		push	{r7, lr}
 324              	.LCFI19:
 325              		.cfi_def_cfa_offset 8
 326              		.cfi_offset 7, -8
 327              		.cfi_offset 14, -4
 328 0002 82B0     		sub	sp, sp, #8
 329              	.LCFI20:
 330              		.cfi_def_cfa_offset 16
 331 0004 00AF     		add	r7, sp, #0
 332              	.LCFI21:
 333              		.cfi_def_cfa_register 7
 334 0006 7860     		str	r0, [r7, #4]
 335              	.LBB4:
 336              		.loc 3 43 0
ARM GAS  C:\DOCUME~1\Chuck\LOCALS~1\Temp\ccFkkxMw.s 			page 9


 337 0008 7B68     		ldr	r3, [r7, #4]
 338 000a 034A     		ldr	r2, .L25
 339 000c 1A60     		str	r2, [r3]
 340              	.LBE4:
 341 000e 7B68     		ldr	r3, [r7, #4]
 342 0010 181C     		mov	r0, r3
 343 0012 BD46     		mov	sp, r7
 344 0014 02B0     		add	sp, sp, #8
 345              		@ sp needed for prologue
 346 0016 80BD     		pop	{r7, pc}
 347              	.L26:
 348              		.align	2
 349              	.L25:
 350 0018 08000000 		.word	_ZTVN3ros11Subscriber_E+8
 351              		.cfi_endproc
 352              	.LFE147:
 353              		.size	_ZN3ros11Subscriber_C2Ev, .-_ZN3ros11Subscriber_C2Ev
 354              		.weak	_ZN3ros11Subscriber_C1Ev
 355              		.thumb_set _ZN3ros11Subscriber_C1Ev,_ZN3ros11Subscriber_C2Ev
 356              		.section	.text._ZN3ros3MsgC2Ev,"axG",%progbits,_ZN3ros3MsgC5Ev,comdat
 357              		.align	2
 358              		.weak	_ZN3ros3MsgC2Ev
 359              		.code	16
 360              		.thumb_func
 361              		.type	_ZN3ros3MsgC2Ev, %function
 362              	_ZN3ros3MsgC2Ev:
 363              	.LFB151:
 364              		.file 4 "./ros_lib/ros/msg.h"
   1:./ros_lib/ros/msg.h **** /* 
   2:./ros_lib/ros/msg.h ****  * Software License Agreement (BSD License)
   3:./ros_lib/ros/msg.h ****  *
   4:./ros_lib/ros/msg.h ****  * Copyright (c) 2011, Willow Garage, Inc.
   5:./ros_lib/ros/msg.h ****  * All rights reserved.
   6:./ros_lib/ros/msg.h ****  *
   7:./ros_lib/ros/msg.h ****  * Redistribution and use in source and binary forms, with or without
   8:./ros_lib/ros/msg.h ****  * modification, are permitted provided that the following conditions
   9:./ros_lib/ros/msg.h ****  * are met:
  10:./ros_lib/ros/msg.h ****  *
  11:./ros_lib/ros/msg.h ****  *  * Redistributions of source code must retain the above copyright
  12:./ros_lib/ros/msg.h ****  *    notice, this list of conditions and the following disclaimer.
  13:./ros_lib/ros/msg.h ****  *  * Redistributions in binary form must reproduce the above
  14:./ros_lib/ros/msg.h ****  *    copyright notice, this list of conditions and the following
  15:./ros_lib/ros/msg.h ****  *    disclaimer in the documentation and/or other materials provided
  16:./ros_lib/ros/msg.h ****  *    with the distribution.
  17:./ros_lib/ros/msg.h ****  *  * Neither the name of Willow Garage, Inc. nor the names of its
  18:./ros_lib/ros/msg.h ****  *    contributors may be used to endorse or promote prducts derived
  19:./ros_lib/ros/msg.h ****  *    from this software without specific prior written permission.
  20:./ros_lib/ros/msg.h ****  *
  21:./ros_lib/ros/msg.h ****  * THIS SOFTWARE IS PROVIDED BY THE COPYRIGHT HOLDERS AND CONTRIBUTORS
  22:./ros_lib/ros/msg.h ****  * "AS IS" AND ANY EXPRESS OR IMPLIED WARRANTIES, INCLUDING, BUT NOT
  23:./ros_lib/ros/msg.h ****  * LIMITED TO, THE IMPLIED WARRANTIES OF MERCHANTABILITY AND FITNESS
  24:./ros_lib/ros/msg.h ****  * FOR A PARTICULAR PURPOSE ARE DISCLAIMED. IN NO EVENT SHALL THE
  25:./ros_lib/ros/msg.h ****  * COPYRIGHT OWNER OR CONTRIBUTORS BE LIABLE FOR ANY DIRECT, INDIRECT,
  26:./ros_lib/ros/msg.h ****  * INCIDENTAL, SPECIAL, EXEMPLARY, OR CONSEQUENTIAL DAMAGES (INCLUDING,
  27:./ros_lib/ros/msg.h ****  * BUT NOT LIMITED TO, PROCUREMENT OF SUBSTITUTE GOODS OR SERVICES;
  28:./ros_lib/ros/msg.h ****  * LOSS OF USE, DATA, OR PROFITS; OR BUSINESS INTERRUPTION) HOWEVER
  29:./ros_lib/ros/msg.h ****  * CAUSED AND ON ANY THEORY OF LIABILITY, WHETHER IN CONTRACT, STRICT
ARM GAS  C:\DOCUME~1\Chuck\LOCALS~1\Temp\ccFkkxMw.s 			page 10


  30:./ros_lib/ros/msg.h ****  * LIABILITY, OR TORT (INCLUDING NEGLIGENCE OR OTHERWISE) ARISING IN
  31:./ros_lib/ros/msg.h ****  * ANY WAY OUT OF THE USE OF THIS SOFTWARE, EVEN IF ADVISED OF THE
  32:./ros_lib/ros/msg.h ****  * POSSIBILITY OF SUCH DAMAGE.
  33:./ros_lib/ros/msg.h ****  */
  34:./ros_lib/ros/msg.h **** 
  35:./ros_lib/ros/msg.h **** #ifndef _ROS_MSG_H_
  36:./ros_lib/ros/msg.h **** #define _ROS_MSG_H_
  37:./ros_lib/ros/msg.h **** 
  38:./ros_lib/ros/msg.h **** namespace ros {
  39:./ros_lib/ros/msg.h **** 
  40:./ros_lib/ros/msg.h ****   /* Base Message Type */
  41:./ros_lib/ros/msg.h ****   class Msg
 365              		.loc 4 41 0
 366              		.cfi_startproc
 367 0000 80B5     		push	{r7, lr}
 368              	.LCFI22:
 369              		.cfi_def_cfa_offset 8
 370              		.cfi_offset 7, -8
 371              		.cfi_offset 14, -4
 372 0002 82B0     		sub	sp, sp, #8
 373              	.LCFI23:
 374              		.cfi_def_cfa_offset 16
 375 0004 00AF     		add	r7, sp, #0
 376              	.LCFI24:
 377              		.cfi_def_cfa_register 7
 378 0006 7860     		str	r0, [r7, #4]
 379              	.LBB5:
 380              		.loc 4 41 0
 381 0008 7B68     		ldr	r3, [r7, #4]
 382 000a 034A     		ldr	r2, .L30
 383 000c 1A60     		str	r2, [r3]
 384              	.LBE5:
 385 000e 7B68     		ldr	r3, [r7, #4]
 386 0010 181C     		mov	r0, r3
 387 0012 BD46     		mov	sp, r7
 388 0014 02B0     		add	sp, sp, #8
 389              		@ sp needed for prologue
 390 0016 80BD     		pop	{r7, pc}
 391              	.L31:
 392              		.align	2
 393              	.L30:
 394 0018 08000000 		.word	_ZTVN3ros3MsgE+8
 395              		.cfi_endproc
 396              	.LFE151:
 397              		.size	_ZN3ros3MsgC2Ev, .-_ZN3ros3MsgC2Ev
 398              		.weak	_ZN3ros3MsgC1Ev
 399              		.thumb_set _ZN3ros3MsgC1Ev,_ZN3ros3MsgC2Ev
 400              		.section	.text._ZN8std_msgs5EmptyC2Ev,"axG",%progbits,_ZN8std_msgs5EmptyC5Ev,comdat
 401              		.align	2
 402              		.weak	_ZN8std_msgs5EmptyC2Ev
 403              		.code	16
 404              		.thumb_func
 405              		.type	_ZN8std_msgs5EmptyC2Ev, %function
 406              	_ZN8std_msgs5EmptyC2Ev:
 407              	.LFB153:
  12:./ros_lib/std_msgs/Empty.h ****   class Empty : public ros::Msg
 408              		.loc 1 12 0
ARM GAS  C:\DOCUME~1\Chuck\LOCALS~1\Temp\ccFkkxMw.s 			page 11


 409              		.cfi_startproc
 410 0000 80B5     		push	{r7, lr}
 411              	.LCFI25:
 412              		.cfi_def_cfa_offset 8
 413              		.cfi_offset 7, -8
 414              		.cfi_offset 14, -4
 415 0002 82B0     		sub	sp, sp, #8
 416              	.LCFI26:
 417              		.cfi_def_cfa_offset 16
 418 0004 00AF     		add	r7, sp, #0
 419              	.LCFI27:
 420              		.cfi_def_cfa_register 7
 421 0006 7860     		str	r0, [r7, #4]
 422              	.LBB6:
  12:./ros_lib/std_msgs/Empty.h ****   class Empty : public ros::Msg
 423              		.loc 1 12 0
 424 0008 7B68     		ldr	r3, [r7, #4]
 425 000a 181C     		mov	r0, r3
 426 000c FFF7FEFF 		bl	_ZN3ros3MsgC2Ev
 427 0010 7B68     		ldr	r3, [r7, #4]
 428 0012 034A     		ldr	r2, .L35
 429 0014 1A60     		str	r2, [r3]
 430              	.LBE6:
 431 0016 7B68     		ldr	r3, [r7, #4]
 432 0018 181C     		mov	r0, r3
 433 001a BD46     		mov	sp, r7
 434 001c 02B0     		add	sp, sp, #8
 435              		@ sp needed for prologue
 436 001e 80BD     		pop	{r7, pc}
 437              	.L36:
 438              		.align	2
 439              	.L35:
 440 0020 08000000 		.word	_ZTVN8std_msgs5EmptyE+8
 441              		.cfi_endproc
 442              	.LFE153:
 443              		.size	_ZN8std_msgs5EmptyC2Ev, .-_ZN8std_msgs5EmptyC2Ev
 444              		.weak	_ZN8std_msgs5EmptyC1Ev
 445              		.thumb_set _ZN8std_msgs5EmptyC1Ev,_ZN8std_msgs5EmptyC2Ev
 446              		.section	.text._ZN3ros10SubscriberIN8std_msgs5EmptyEEC2EPKcPFvRKS2_Ei,"axG",%progbits,_ZN3ros10Sub
 447              		.align	2
 448              		.weak	_ZN3ros10SubscriberIN8std_msgs5EmptyEEC2EPKcPFvRKS2_Ei
 449              		.code	16
 450              		.thumb_func
 451              		.type	_ZN3ros10SubscriberIN8std_msgs5EmptyEEC2EPKcPFvRKS2_Ei, %function
 452              	_ZN3ros10SubscriberIN8std_msgs5EmptyEEC2EPKcPFvRKS2_Ei:
 453              	.LFB155:
  44:./ros_lib/ros/subscriber.h ****   {
  45:./ros_lib/ros/subscriber.h ****     public:
  46:./ros_lib/ros/subscriber.h ****       virtual void callback(unsigned char *data)=0;
  47:./ros_lib/ros/subscriber.h ****       virtual int getEndpointType()=0;
  48:./ros_lib/ros/subscriber.h **** 
  49:./ros_lib/ros/subscriber.h ****       // id_ is set by NodeHandle when we advertise 
  50:./ros_lib/ros/subscriber.h ****       int id_;
  51:./ros_lib/ros/subscriber.h **** 
  52:./ros_lib/ros/subscriber.h ****       virtual const char * getMsgType()=0;
  53:./ros_lib/ros/subscriber.h ****       virtual const char * getMsgMD5()=0;
  54:./ros_lib/ros/subscriber.h ****       const char * topic_;
ARM GAS  C:\DOCUME~1\Chuck\LOCALS~1\Temp\ccFkkxMw.s 			page 12


  55:./ros_lib/ros/subscriber.h ****   };
  56:./ros_lib/ros/subscriber.h **** 
  57:./ros_lib/ros/subscriber.h **** 
  58:./ros_lib/ros/subscriber.h ****   /* Actual subscriber, templated on message type. */
  59:./ros_lib/ros/subscriber.h ****   template<typename MsgT>
  60:./ros_lib/ros/subscriber.h ****   class Subscriber: public Subscriber_{
  61:./ros_lib/ros/subscriber.h ****     public:
  62:./ros_lib/ros/subscriber.h ****       typedef void(*CallbackT)(const MsgT&);
  63:./ros_lib/ros/subscriber.h ****       MsgT msg;
  64:./ros_lib/ros/subscriber.h ****       // Rosserial standard callback
  65:./ros_lib/ros/subscriber.h ****       Subscriber(const char * topic_name, CallbackT cb, int endpoint=rosserial_msgs::TopicInfo::ID_
 454              		.loc 3 65 0
 455              		.cfi_startproc
 456 0000 80B5     		push	{r7, lr}
 457              	.LCFI28:
 458              		.cfi_def_cfa_offset 8
 459              		.cfi_offset 7, -8
 460              		.cfi_offset 14, -4
 461 0002 84B0     		sub	sp, sp, #16
 462              	.LCFI29:
 463              		.cfi_def_cfa_offset 24
 464 0004 00AF     		add	r7, sp, #0
 465              	.LCFI30:
 466              		.cfi_def_cfa_register 7
 467 0006 F860     		str	r0, [r7, #12]
 468 0008 B960     		str	r1, [r7, #8]
 469 000a 7A60     		str	r2, [r7, #4]
 470 000c 3B60     		str	r3, [r7]
 471              	.LBB7:
  66:./ros_lib/ros/subscriber.h ****         cb_(cb), cbp_(NULL),
  67:./ros_lib/ros/subscriber.h ****         endpoint_(endpoint)
 472              		.loc 3 67 0
 473 000e FB68     		ldr	r3, [r7, #12]
 474 0010 181C     		mov	r0, r3
 475 0012 FFF7FEFF 		bl	_ZN3ros11Subscriber_C2Ev
 476 0016 FB68     		ldr	r3, [r7, #12]
 477 0018 0B4A     		ldr	r2, .L40
 478 001a 1A60     		str	r2, [r3]
 479 001c FB68     		ldr	r3, [r7, #12]
 480 001e 0C33     		add	r3, r3, #12
 481 0020 181C     		mov	r0, r3
 482 0022 FFF7FEFF 		bl	_ZN8std_msgs5EmptyC1Ev
 483 0026 FB68     		ldr	r3, [r7, #12]
 484 0028 7A68     		ldr	r2, [r7, #4]
 485 002a 1A61     		str	r2, [r3, #16]
 486 002c FB68     		ldr	r3, [r7, #12]
 487 002e 0022     		mov	r2, #0
 488 0030 5A61     		str	r2, [r3, #20]
 489 0032 FB68     		ldr	r3, [r7, #12]
 490 0034 3A68     		ldr	r2, [r7]
 491 0036 9A61     		str	r2, [r3, #24]
  68:./ros_lib/ros/subscriber.h ****       {
  69:./ros_lib/ros/subscriber.h ****         topic_ = topic_name;
 492              		.loc 3 69 0
 493 0038 FB68     		ldr	r3, [r7, #12]
 494 003a BA68     		ldr	r2, [r7, #8]
 495 003c 9A60     		str	r2, [r3, #8]
ARM GAS  C:\DOCUME~1\Chuck\LOCALS~1\Temp\ccFkkxMw.s 			page 13


 496              	.LBE7:
 497 003e FB68     		ldr	r3, [r7, #12]
  70:./ros_lib/ros/subscriber.h ****       };
 498              		.loc 3 70 0
 499 0040 181C     		mov	r0, r3
 500 0042 BD46     		mov	sp, r7
 501 0044 04B0     		add	sp, sp, #16
 502              		@ sp needed for prologue
 503 0046 80BD     		pop	{r7, pc}
 504              	.L41:
 505              		.align	2
 506              	.L40:
 507 0048 08000000 		.word	_ZTVN3ros10SubscriberIN8std_msgs5EmptyEEE+8
 508              		.cfi_endproc
 509              	.LFE155:
 510              		.size	_ZN3ros10SubscriberIN8std_msgs5EmptyEEC2EPKcPFvRKS2_Ei, .-_ZN3ros10SubscriberIN8std_msgs5Emp
 511              		.weak	_ZN3ros10SubscriberIN8std_msgs5EmptyEEC1EPKcPFvRKS2_Ei
 512              		.thumb_set _ZN3ros10SubscriberIN8std_msgs5EmptyEEC1EPKcPFvRKS2_Ei,_ZN3ros10SubscriberIN8std_msgs5E
 513              		.section	.text._ZN3ros11NodeHandle_I13Psoc4HardwareLi10ELi20ELi200ELi200EE9subscribeIN8std_msgs5Em
 514              		.align	2
 515              		.weak	_ZN3ros11NodeHandle_I13Psoc4HardwareLi10ELi20ELi200ELi200EE9subscribeIN8std_msgs5EmptyEEEbRN
 516              		.code	16
 517              		.thumb_func
 518              		.type	_ZN3ros11NodeHandle_I13Psoc4HardwareLi10ELi20ELi200ELi200EE9subscribeIN8std_msgs5EmptyEEEbRN
 519              	_ZN3ros11NodeHandle_I13Psoc4HardwareLi10ELi20ELi200ELi200EE9subscribeIN8std_msgs5EmptyEEEbRNS_10Sub
 520              	.LFB157:
 521              		.file 5 "./ros_lib/ros/node_handle.h"
   1:./ros_lib/ros/node_handle.h **** /*
   2:./ros_lib/ros/node_handle.h ****  * Software License Agreement (BSD License)
   3:./ros_lib/ros/node_handle.h ****  *
   4:./ros_lib/ros/node_handle.h ****  * Copyright (c) 2011, Willow Garage, Inc.
   5:./ros_lib/ros/node_handle.h ****  * All rights reserved.
   6:./ros_lib/ros/node_handle.h ****  *
   7:./ros_lib/ros/node_handle.h ****  * Redistribution and use in source and binary forms, with or without
   8:./ros_lib/ros/node_handle.h ****  * modification, are permitted provided that the following conditions
   9:./ros_lib/ros/node_handle.h ****  * are met:
  10:./ros_lib/ros/node_handle.h ****  *
  11:./ros_lib/ros/node_handle.h ****  *  * Redistributions of source code must retain the above copyright
  12:./ros_lib/ros/node_handle.h ****  *    notice, this list of conditions and the following disclaimer.
  13:./ros_lib/ros/node_handle.h ****  *  * Redistributions in binary form must reproduce the above
  14:./ros_lib/ros/node_handle.h ****  *    copyright notice, this list of conditions and the following
  15:./ros_lib/ros/node_handle.h ****  *    disclaimer in the documentation and/or other materials provided
  16:./ros_lib/ros/node_handle.h ****  *    with the distribution.
  17:./ros_lib/ros/node_handle.h ****  *  * Neither the name of Willow Garage, Inc. nor the names of its
  18:./ros_lib/ros/node_handle.h ****  *    contributors may be used to endorse or promote prducts derived
  19:./ros_lib/ros/node_handle.h ****  *    from this software without specific prior written permission.
  20:./ros_lib/ros/node_handle.h ****  *
  21:./ros_lib/ros/node_handle.h ****  * THIS SOFTWARE IS PROVIDED BY THE COPYRIGHT HOLDERS AND CONTRIBUTORS
  22:./ros_lib/ros/node_handle.h ****  * "AS IS" AND ANY EXPRESS OR IMPLIED WARRANTIES, INCLUDING, BUT NOT
  23:./ros_lib/ros/node_handle.h ****  * LIMITED TO, THE IMPLIED WARRANTIES OF MERCHANTABILITY AND FITNESS
  24:./ros_lib/ros/node_handle.h ****  * FOR A PARTICULAR PURPOSE ARE DISCLAIMED. IN NO EVENT SHALL THE
  25:./ros_lib/ros/node_handle.h ****  * COPYRIGHT OWNER OR CONTRIBUTORS BE LIABLE FOR ANY DIRECT, INDIRECT,
  26:./ros_lib/ros/node_handle.h ****  * INCIDENTAL, SPECIAL, EXEMPLARY, OR CONSEQUENTIAL DAMAGES (INCLUDING,
  27:./ros_lib/ros/node_handle.h ****  * BUT NOT LIMITED TO, PROCUREMENT OF SUBSTITUTE GOODS OR SERVICES;
  28:./ros_lib/ros/node_handle.h ****  * LOSS OF USE, DATA, OR PROFITS; OR BUSINESS INTERRUPTION) HOWEVER
  29:./ros_lib/ros/node_handle.h ****  * CAUSED AND ON ANY THEORY OF LIABILITY, WHETHER IN CONTRACT, STRICT
  30:./ros_lib/ros/node_handle.h ****  * LIABILITY, OR TORT (INCLUDING NEGLIGENCE OR OTHERWISE) ARISING IN
ARM GAS  C:\DOCUME~1\Chuck\LOCALS~1\Temp\ccFkkxMw.s 			page 14


  31:./ros_lib/ros/node_handle.h ****  * ANY WAY OUT OF THE USE OF THIS SOFTWARE, EVEN IF ADVISED OF THE
  32:./ros_lib/ros/node_handle.h ****  * POSSIBILITY OF SUCH DAMAGE.
  33:./ros_lib/ros/node_handle.h ****  */
  34:./ros_lib/ros/node_handle.h **** 
  35:./ros_lib/ros/node_handle.h **** #ifndef ROS_NODE_HANDLE_H_
  36:./ros_lib/ros/node_handle.h **** #define ROS_NODE_HANDLE_H_
  37:./ros_lib/ros/node_handle.h **** 
  38:./ros_lib/ros/node_handle.h **** #ifndef PARAM_REQ_SUPPORT
  39:./ros_lib/ros/node_handle.h **** #define PARAM_REQ_SUPPORT 1
  40:./ros_lib/ros/node_handle.h **** #endif
  41:./ros_lib/ros/node_handle.h **** 
  42:./ros_lib/ros/node_handle.h **** #include "std_msgs/Time.h"
  43:./ros_lib/ros/node_handle.h **** #include "rosserial_msgs/TopicInfo.h"
  44:./ros_lib/ros/node_handle.h **** #include "rosserial_msgs/Log.h"
  45:./ros_lib/ros/node_handle.h **** #if PARAM_REQ_SUPPORT
  46:./ros_lib/ros/node_handle.h **** #include "rosserial_msgs/RequestParam.h"
  47:./ros_lib/ros/node_handle.h **** #endif
  48:./ros_lib/ros/node_handle.h **** 
  49:./ros_lib/ros/node_handle.h **** #define SYNC_SECONDS        2
  50:./ros_lib/ros/node_handle.h **** 
  51:./ros_lib/ros/node_handle.h **** #define MODE_FIRST_FF       0
  52:./ros_lib/ros/node_handle.h **** /*
  53:./ros_lib/ros/node_handle.h ****  * The second sync byte is a protocol version. It's value is 0xff for the first
  54:./ros_lib/ros/node_handle.h ****  * version of the rosserial protocol (used up to hydro), 0xfe for the second version
  55:./ros_lib/ros/node_handle.h ****  * (introduced in hydro), 0xfd for the next, and so on. Its purpose is to enable
  56:./ros_lib/ros/node_handle.h ****  * detection of mismatched protocol versions (e.g. hydro rosserial_python with groovy
  57:./ros_lib/ros/node_handle.h ****  * rosserial_arduino. It must be changed in both this file and in
  58:./ros_lib/ros/node_handle.h ****  * rosserial_python/src/rosserial_python/SerialClient.py
  59:./ros_lib/ros/node_handle.h ****  */
  60:./ros_lib/ros/node_handle.h **** #define MODE_PROTOCOL_VER   1
  61:./ros_lib/ros/node_handle.h **** #define PROTOCOL_VER1		0xff // through groovy
  62:./ros_lib/ros/node_handle.h **** #define PROTOCOL_VER2		0xfe // in hydro
  63:./ros_lib/ros/node_handle.h **** #define PROTOCOL_VER 		PROTOCOL_VER2
  64:./ros_lib/ros/node_handle.h **** #define MODE_SIZE_L         2   
  65:./ros_lib/ros/node_handle.h **** #define MODE_SIZE_H         3
  66:./ros_lib/ros/node_handle.h **** #define MODE_SIZE_CHECKSUM  4   // checksum for msg size received from size L and H
  67:./ros_lib/ros/node_handle.h **** #define MODE_TOPIC_L        5   // waiting for topic id
  68:./ros_lib/ros/node_handle.h **** #define MODE_TOPIC_H        6
  69:./ros_lib/ros/node_handle.h **** #define MODE_MESSAGE        7
  70:./ros_lib/ros/node_handle.h **** #define MODE_MSG_CHECKSUM   8   // checksum for msg and topic id 
  71:./ros_lib/ros/node_handle.h **** 
  72:./ros_lib/ros/node_handle.h **** 
  73:./ros_lib/ros/node_handle.h **** 
  74:./ros_lib/ros/node_handle.h **** #define MSG_TIMEOUT 200  // was 20 milliseconds to recieve all of message data
  75:./ros_lib/ros/node_handle.h **** 
  76:./ros_lib/ros/node_handle.h **** #include "msg.h"
  77:./ros_lib/ros/node_handle.h **** 
  78:./ros_lib/ros/node_handle.h **** namespace ros {
  79:./ros_lib/ros/node_handle.h **** 
  80:./ros_lib/ros/node_handle.h ****   class NodeHandleBase_{
  81:./ros_lib/ros/node_handle.h ****     public:
  82:./ros_lib/ros/node_handle.h ****       virtual int publish(int id, const Msg* msg)=0;
  83:./ros_lib/ros/node_handle.h ****       virtual int spinOnce()=0;
  84:./ros_lib/ros/node_handle.h ****       virtual bool connected()=0;
  85:./ros_lib/ros/node_handle.h ****     };
  86:./ros_lib/ros/node_handle.h **** }
  87:./ros_lib/ros/node_handle.h **** 
ARM GAS  C:\DOCUME~1\Chuck\LOCALS~1\Temp\ccFkkxMw.s 			page 15


  88:./ros_lib/ros/node_handle.h **** #include "publisher.h"
  89:./ros_lib/ros/node_handle.h **** #include "subscriber.h"
  90:./ros_lib/ros/node_handle.h **** #include "service_server.h"
  91:./ros_lib/ros/node_handle.h **** #include "service_client.h"
  92:./ros_lib/ros/node_handle.h **** 
  93:./ros_lib/ros/node_handle.h **** namespace ros {
  94:./ros_lib/ros/node_handle.h **** 
  95:./ros_lib/ros/node_handle.h ****   /* Node Handle */
  96:./ros_lib/ros/node_handle.h ****   template<class Hardware,
  97:./ros_lib/ros/node_handle.h ****            int MAX_SUBSCRIBERS=25,
  98:./ros_lib/ros/node_handle.h ****            int MAX_PUBLISHERS=25,
  99:./ros_lib/ros/node_handle.h ****            int INPUT_SIZE=512,
 100:./ros_lib/ros/node_handle.h ****            int OUTPUT_SIZE=512>
 101:./ros_lib/ros/node_handle.h ****   class NodeHandle_ : public NodeHandleBase_
 102:./ros_lib/ros/node_handle.h ****   {
 103:./ros_lib/ros/node_handle.h ****     protected:
 104:./ros_lib/ros/node_handle.h ****       Hardware hardware_;
 105:./ros_lib/ros/node_handle.h **** 
 106:./ros_lib/ros/node_handle.h ****       /* time used for syncing */
 107:./ros_lib/ros/node_handle.h ****       unsigned long rt_time;
 108:./ros_lib/ros/node_handle.h **** 
 109:./ros_lib/ros/node_handle.h ****       /* used for computing current time */
 110:./ros_lib/ros/node_handle.h ****       unsigned long sec_offset, nsec_offset;
 111:./ros_lib/ros/node_handle.h **** 
 112:./ros_lib/ros/node_handle.h ****       unsigned char message_in[INPUT_SIZE];
 113:./ros_lib/ros/node_handle.h ****       unsigned char message_out[OUTPUT_SIZE];
 114:./ros_lib/ros/node_handle.h **** 
 115:./ros_lib/ros/node_handle.h ****       Publisher * publishers[MAX_PUBLISHERS];
 116:./ros_lib/ros/node_handle.h ****       Subscriber_ * subscribers[MAX_SUBSCRIBERS];
 117:./ros_lib/ros/node_handle.h **** 
 118:./ros_lib/ros/node_handle.h ****       /*
 119:./ros_lib/ros/node_handle.h ****        * Setup Functions
 120:./ros_lib/ros/node_handle.h ****        */
 121:./ros_lib/ros/node_handle.h ****     public:
 122:./ros_lib/ros/node_handle.h ****       NodeHandle_() : configured_(false) {}
 123:./ros_lib/ros/node_handle.h ****       
 124:./ros_lib/ros/node_handle.h ****       Hardware* getHardware(){
 125:./ros_lib/ros/node_handle.h ****         return &hardware_;
 126:./ros_lib/ros/node_handle.h ****       }
 127:./ros_lib/ros/node_handle.h **** 
 128:./ros_lib/ros/node_handle.h ****       /* Start serial, initialize buffers */
 129:./ros_lib/ros/node_handle.h ****       void initNode(){
 130:./ros_lib/ros/node_handle.h ****         hardware_.init();
 131:./ros_lib/ros/node_handle.h ****         mode_ = 0;
 132:./ros_lib/ros/node_handle.h ****         bytes_ = 0;
 133:./ros_lib/ros/node_handle.h ****         index_ = 0;
 134:./ros_lib/ros/node_handle.h ****         topic_ = 0;
 135:./ros_lib/ros/node_handle.h ****       };
 136:./ros_lib/ros/node_handle.h **** 
 137:./ros_lib/ros/node_handle.h ****       /* Start a named port, which may be network server IP, initialize buffers */
 138:./ros_lib/ros/node_handle.h ****       void initNode(char *portName){
 139:./ros_lib/ros/node_handle.h ****         hardware_.init(portName);
 140:./ros_lib/ros/node_handle.h ****         mode_ = 0;
 141:./ros_lib/ros/node_handle.h ****         bytes_ = 0;
 142:./ros_lib/ros/node_handle.h ****         index_ = 0;
 143:./ros_lib/ros/node_handle.h ****         topic_ = 0;
 144:./ros_lib/ros/node_handle.h ****       };
ARM GAS  C:\DOCUME~1\Chuck\LOCALS~1\Temp\ccFkkxMw.s 			page 16


 145:./ros_lib/ros/node_handle.h **** 
 146:./ros_lib/ros/node_handle.h ****     protected:
 147:./ros_lib/ros/node_handle.h ****       //State machine variables for spinOnce
 148:./ros_lib/ros/node_handle.h ****       int mode_;
 149:./ros_lib/ros/node_handle.h ****       int bytes_;
 150:./ros_lib/ros/node_handle.h ****       int topic_;
 151:./ros_lib/ros/node_handle.h ****       int index_;
 152:./ros_lib/ros/node_handle.h ****       int checksum_;
 153:./ros_lib/ros/node_handle.h **** 
 154:./ros_lib/ros/node_handle.h ****       bool configured_;
 155:./ros_lib/ros/node_handle.h **** 
 156:./ros_lib/ros/node_handle.h ****       /* used for syncing the time */
 157:./ros_lib/ros/node_handle.h ****       unsigned long last_sync_time;
 158:./ros_lib/ros/node_handle.h ****       unsigned long last_sync_receive_time;
 159:./ros_lib/ros/node_handle.h ****       unsigned long last_msg_timeout_time;
 160:./ros_lib/ros/node_handle.h **** 
 161:./ros_lib/ros/node_handle.h ****     public:
 162:./ros_lib/ros/node_handle.h ****       /* This function goes in your loop() function, it handles
 163:./ros_lib/ros/node_handle.h ****        *  serial input and callbacks for subscribers.
 164:./ros_lib/ros/node_handle.h ****        */
 165:./ros_lib/ros/node_handle.h **** 
 166:./ros_lib/ros/node_handle.h **** 
 167:./ros_lib/ros/node_handle.h ****       virtual int spinOnce(){
 168:./ros_lib/ros/node_handle.h **** 
 169:./ros_lib/ros/node_handle.h ****         /* restart if timed out */
 170:./ros_lib/ros/node_handle.h ****         unsigned long c_time = hardware_.time();
 171:./ros_lib/ros/node_handle.h ****         if( (c_time - last_sync_receive_time) > (SYNC_SECONDS*1100) ){
 172:./ros_lib/ros/node_handle.h ****             configured_ = false;
 173:./ros_lib/ros/node_handle.h ****          }
 174:./ros_lib/ros/node_handle.h ****          
 175:./ros_lib/ros/node_handle.h ****         /* reset if message has timed out */
 176:./ros_lib/ros/node_handle.h ****         if ( mode_ != MODE_FIRST_FF){ 
 177:./ros_lib/ros/node_handle.h ****           if (c_time > last_msg_timeout_time){
 178:./ros_lib/ros/node_handle.h ****             mode_ = MODE_FIRST_FF;
 179:./ros_lib/ros/node_handle.h ****           }
 180:./ros_lib/ros/node_handle.h ****         }
 181:./ros_lib/ros/node_handle.h **** 
 182:./ros_lib/ros/node_handle.h ****         /* while available buffer, read data */
 183:./ros_lib/ros/node_handle.h ****         while( true )
 184:./ros_lib/ros/node_handle.h ****         {
 185:./ros_lib/ros/node_handle.h ****           int data = hardware_.read();
 186:./ros_lib/ros/node_handle.h ****           if( data < 0 )
 187:./ros_lib/ros/node_handle.h ****             break;
 188:./ros_lib/ros/node_handle.h ****           checksum_ += data;
 189:./ros_lib/ros/node_handle.h ****           if( mode_ == MODE_MESSAGE ){        /* message data being recieved */
 190:./ros_lib/ros/node_handle.h ****             message_in[index_++] = data;
 191:./ros_lib/ros/node_handle.h ****             bytes_--;
 192:./ros_lib/ros/node_handle.h ****             if(bytes_ == 0)                  /* is message complete? if so, checksum */
 193:./ros_lib/ros/node_handle.h ****               mode_ = MODE_MSG_CHECKSUM;
 194:./ros_lib/ros/node_handle.h ****           }else if( mode_ == MODE_FIRST_FF ){
 195:./ros_lib/ros/node_handle.h ****             if(data == 0xff){
 196:./ros_lib/ros/node_handle.h ****               mode_++;
 197:./ros_lib/ros/node_handle.h ****               last_msg_timeout_time = c_time + MSG_TIMEOUT;
 198:./ros_lib/ros/node_handle.h ****             }
 199:./ros_lib/ros/node_handle.h ****           }else if( mode_ == MODE_PROTOCOL_VER ){
 200:./ros_lib/ros/node_handle.h ****             if(data == PROTOCOL_VER){
 201:./ros_lib/ros/node_handle.h ****               mode_++;
ARM GAS  C:\DOCUME~1\Chuck\LOCALS~1\Temp\ccFkkxMw.s 			page 17


 202:./ros_lib/ros/node_handle.h ****             }else{
 203:./ros_lib/ros/node_handle.h ****               mode_ = MODE_FIRST_FF;
 204:./ros_lib/ros/node_handle.h ****               if (configured_ == false) {
 205:./ros_lib/ros/node_handle.h ****                   requestSyncTime(); 	/* send a msg back showing our protocol version */
 206:./ros_lib/ros/node_handle.h ****               }
 207:./ros_lib/ros/node_handle.h ****             }
 208:./ros_lib/ros/node_handle.h **** 	  }else if( mode_ == MODE_SIZE_L ){   /* bottom half of message size */
 209:./ros_lib/ros/node_handle.h ****             bytes_ = data;
 210:./ros_lib/ros/node_handle.h ****             index_ = 0;
 211:./ros_lib/ros/node_handle.h ****             mode_++;
 212:./ros_lib/ros/node_handle.h ****             checksum_ = data;               /* first byte for calculating size checksum */
 213:./ros_lib/ros/node_handle.h ****           }else if( mode_ == MODE_SIZE_H ){   /* top half of message size */
 214:./ros_lib/ros/node_handle.h ****             bytes_ += data<<8;
 215:./ros_lib/ros/node_handle.h **** 	    mode_++;
 216:./ros_lib/ros/node_handle.h ****           }else if( mode_ == MODE_SIZE_CHECKSUM ){  
 217:./ros_lib/ros/node_handle.h ****             if( (checksum_%256) == 255)
 218:./ros_lib/ros/node_handle.h **** 	      mode_++;
 219:./ros_lib/ros/node_handle.h **** 	    else {
 220:./ros_lib/ros/node_handle.h **** 	      mode_ = MODE_FIRST_FF;          /* Abandon the frame if the msg len is wrong */
 221:./ros_lib/ros/node_handle.h ****             }
 222:./ros_lib/ros/node_handle.h **** 	  }else if( mode_ == MODE_TOPIC_L ){  /* bottom half of topic id */
 223:./ros_lib/ros/node_handle.h ****             topic_ = data;
 224:./ros_lib/ros/node_handle.h ****             mode_++;
 225:./ros_lib/ros/node_handle.h ****             checksum_ = data;               /* first byte included in checksum */
 226:./ros_lib/ros/node_handle.h ****           }else if( mode_ == MODE_TOPIC_H ){  /* top half of topic id */
 227:./ros_lib/ros/node_handle.h ****             topic_ += data<<8;
 228:./ros_lib/ros/node_handle.h ****             mode_ = MODE_MESSAGE;
 229:./ros_lib/ros/node_handle.h ****             if(bytes_ == 0)
 230:./ros_lib/ros/node_handle.h ****               mode_ = MODE_MSG_CHECKSUM;  
 231:./ros_lib/ros/node_handle.h ****           }else if( mode_ == MODE_MSG_CHECKSUM ){ /* do checksum */
 232:./ros_lib/ros/node_handle.h ****             mode_ = MODE_FIRST_FF;
 233:./ros_lib/ros/node_handle.h ****             if( (checksum_%256) == 255){
 234:./ros_lib/ros/node_handle.h ****               if(topic_ == rosserial_msgs::TopicInfo::ID_PUBLISHER){
 235:./ros_lib/ros/node_handle.h ****                 requestSyncTime();
 236:./ros_lib/ros/node_handle.h ****                 negotiateTopics();
 237:./ros_lib/ros/node_handle.h ****                 last_sync_time = c_time;
 238:./ros_lib/ros/node_handle.h ****                 last_sync_receive_time = c_time;
 239:./ros_lib/ros/node_handle.h ****                 return -1;
 240:./ros_lib/ros/node_handle.h ****               }else if(topic_ == rosserial_msgs::TopicInfo::ID_TIME){
 241:./ros_lib/ros/node_handle.h ****                 syncTime(message_in);
 242:./ros_lib/ros/node_handle.h ****               #if PARAM_REQ_SUPPORT
 243:./ros_lib/ros/node_handle.h ****               }else if (topic_ == rosserial_msgs::TopicInfo::ID_PARAMETER_REQUEST){
 244:./ros_lib/ros/node_handle.h ****                   req_param_resp.deserialize(message_in);
 245:./ros_lib/ros/node_handle.h ****                   param_recieved= true;
 246:./ros_lib/ros/node_handle.h ****               #endif
 247:./ros_lib/ros/node_handle.h ****               }else{
 248:./ros_lib/ros/node_handle.h ****                 if(subscribers[topic_-100])
 249:./ros_lib/ros/node_handle.h ****                   subscribers[topic_-100]->callback( message_in );
 250:./ros_lib/ros/node_handle.h ****               }
 251:./ros_lib/ros/node_handle.h ****             }
 252:./ros_lib/ros/node_handle.h ****           }
 253:./ros_lib/ros/node_handle.h ****         }
 254:./ros_lib/ros/node_handle.h **** 
 255:./ros_lib/ros/node_handle.h ****         /* occasionally sync time */
 256:./ros_lib/ros/node_handle.h ****         if( configured_ && ((c_time-last_sync_time) > (SYNC_SECONDS*500) )){
 257:./ros_lib/ros/node_handle.h ****           requestSyncTime();
 258:./ros_lib/ros/node_handle.h ****           last_sync_time = c_time;
ARM GAS  C:\DOCUME~1\Chuck\LOCALS~1\Temp\ccFkkxMw.s 			page 18


 259:./ros_lib/ros/node_handle.h ****         }
 260:./ros_lib/ros/node_handle.h **** 
 261:./ros_lib/ros/node_handle.h ****         return 0;
 262:./ros_lib/ros/node_handle.h ****       }
 263:./ros_lib/ros/node_handle.h **** 
 264:./ros_lib/ros/node_handle.h **** 
 265:./ros_lib/ros/node_handle.h ****       /* Are we connected to the PC? */
 266:./ros_lib/ros/node_handle.h ****       virtual bool connected() {
 267:./ros_lib/ros/node_handle.h ****         return configured_;
 268:./ros_lib/ros/node_handle.h ****       };
 269:./ros_lib/ros/node_handle.h **** 
 270:./ros_lib/ros/node_handle.h ****       /********************************************************************
 271:./ros_lib/ros/node_handle.h ****        * Time functions
 272:./ros_lib/ros/node_handle.h ****        */
 273:./ros_lib/ros/node_handle.h **** 
 274:./ros_lib/ros/node_handle.h ****       void requestSyncTime()
 275:./ros_lib/ros/node_handle.h ****       {
 276:./ros_lib/ros/node_handle.h ****         std_msgs::Time t;
 277:./ros_lib/ros/node_handle.h ****         publish(rosserial_msgs::TopicInfo::ID_TIME, &t);
 278:./ros_lib/ros/node_handle.h ****         rt_time = hardware_.time();
 279:./ros_lib/ros/node_handle.h ****       }
 280:./ros_lib/ros/node_handle.h **** 
 281:./ros_lib/ros/node_handle.h ****       void syncTime( unsigned char * data )
 282:./ros_lib/ros/node_handle.h ****       {
 283:./ros_lib/ros/node_handle.h ****         std_msgs::Time t;
 284:./ros_lib/ros/node_handle.h ****         unsigned long offset = hardware_.time() - rt_time;
 285:./ros_lib/ros/node_handle.h **** 
 286:./ros_lib/ros/node_handle.h ****         t.deserialize(data);
 287:./ros_lib/ros/node_handle.h ****         t.data.sec += offset/1000;
 288:./ros_lib/ros/node_handle.h ****         t.data.nsec += (offset%1000)*1000000UL;
 289:./ros_lib/ros/node_handle.h **** 
 290:./ros_lib/ros/node_handle.h ****         this->setNow(t.data);
 291:./ros_lib/ros/node_handle.h ****         last_sync_receive_time = hardware_.time();
 292:./ros_lib/ros/node_handle.h ****       }
 293:./ros_lib/ros/node_handle.h **** 
 294:./ros_lib/ros/node_handle.h ****       Time now(){
 295:./ros_lib/ros/node_handle.h ****         unsigned long ms = hardware_.time();
 296:./ros_lib/ros/node_handle.h ****         Time current_time;
 297:./ros_lib/ros/node_handle.h ****         current_time.sec = ms/1000 + sec_offset;
 298:./ros_lib/ros/node_handle.h ****         current_time.nsec = (ms%1000)*1000000UL + nsec_offset;
 299:./ros_lib/ros/node_handle.h ****         normalizeSecNSec(current_time.sec, current_time.nsec);
 300:./ros_lib/ros/node_handle.h ****         return current_time;
 301:./ros_lib/ros/node_handle.h ****       }
 302:./ros_lib/ros/node_handle.h **** 
 303:./ros_lib/ros/node_handle.h ****       void setNow( Time & new_now )
 304:./ros_lib/ros/node_handle.h ****       {
 305:./ros_lib/ros/node_handle.h ****         unsigned long ms = hardware_.time();
 306:./ros_lib/ros/node_handle.h ****         sec_offset = new_now.sec - ms/1000 - 1;
 307:./ros_lib/ros/node_handle.h ****         nsec_offset = new_now.nsec - (ms%1000)*1000000UL + 1000000000UL;
 308:./ros_lib/ros/node_handle.h ****         normalizeSecNSec(sec_offset, nsec_offset);
 309:./ros_lib/ros/node_handle.h ****       }
 310:./ros_lib/ros/node_handle.h **** 
 311:./ros_lib/ros/node_handle.h ****       /********************************************************************
 312:./ros_lib/ros/node_handle.h ****        * Topic Management 
 313:./ros_lib/ros/node_handle.h ****        */
 314:./ros_lib/ros/node_handle.h **** 
 315:./ros_lib/ros/node_handle.h ****       /* Register a new publisher */    
ARM GAS  C:\DOCUME~1\Chuck\LOCALS~1\Temp\ccFkkxMw.s 			page 19


 316:./ros_lib/ros/node_handle.h ****       bool advertise(Publisher & p)
 317:./ros_lib/ros/node_handle.h ****       {
 318:./ros_lib/ros/node_handle.h ****         for(int i = 0; i < MAX_PUBLISHERS; i++){
 319:./ros_lib/ros/node_handle.h ****           if(publishers[i] == 0){ // empty slot
 320:./ros_lib/ros/node_handle.h ****             publishers[i] = &p;
 321:./ros_lib/ros/node_handle.h ****             p.id_ = i+100+MAX_SUBSCRIBERS;
 322:./ros_lib/ros/node_handle.h ****             p.nh_ = this;
 323:./ros_lib/ros/node_handle.h ****             return true;
 324:./ros_lib/ros/node_handle.h ****           }
 325:./ros_lib/ros/node_handle.h ****         }
 326:./ros_lib/ros/node_handle.h ****         return false;
 327:./ros_lib/ros/node_handle.h ****       }
 328:./ros_lib/ros/node_handle.h **** 
 329:./ros_lib/ros/node_handle.h ****       /* Register a new subscriber */
 330:./ros_lib/ros/node_handle.h ****       template<typename MsgT>
 331:./ros_lib/ros/node_handle.h ****       bool subscribe(Subscriber< MsgT> & s){
 522              		.loc 5 331 0
 523              		.cfi_startproc
 524 0000 90B5     		push	{r4, r7, lr}
 525              	.LCFI31:
 526              		.cfi_def_cfa_offset 12
 527              		.cfi_offset 4, -12
 528              		.cfi_offset 7, -8
 529              		.cfi_offset 14, -4
 530 0002 85B0     		sub	sp, sp, #20
 531              	.LCFI32:
 532              		.cfi_def_cfa_offset 32
 533 0004 00AF     		add	r7, sp, #0
 534              	.LCFI33:
 535              		.cfi_def_cfa_register 7
 536 0006 7860     		str	r0, [r7, #4]
 537 0008 3960     		str	r1, [r7]
 538              	.LBB8:
 539              	.LBB9:
 332:./ros_lib/ros/node_handle.h ****         for(int i = 0; i < MAX_SUBSCRIBERS; i++){
 540              		.loc 5 332 0
 541 000a 0023     		mov	r3, #0
 542 000c FB60     		str	r3, [r7, #12]
 543 000e 16E0     		b	.L43
 544              	.L46:
 333:./ros_lib/ros/node_handle.h ****           if(subscribers[i] == 0){ // empty slot
 545              		.loc 5 333 0
 546 0010 7B68     		ldr	r3, [r7, #4]
 547 0012 FA68     		ldr	r2, [r7, #12]
 548 0014 7E32     		add	r2, r2, #126
 549 0016 9200     		lsl	r2, r2, #2
 550 0018 D358     		ldr	r3, [r2, r3]
 551 001a 002B     		cmp	r3, #0
 552 001c 0CD1     		bne	.L44
 334:./ros_lib/ros/node_handle.h ****             subscribers[i] = (Subscriber_*) &s;
 553              		.loc 5 334 0
 554 001e 3968     		ldr	r1, [r7]
 555 0020 7B68     		ldr	r3, [r7, #4]
 556 0022 FA68     		ldr	r2, [r7, #12]
 557 0024 7E32     		add	r2, r2, #126
 558 0026 9200     		lsl	r2, r2, #2
 559 0028 D150     		str	r1, [r2, r3]
ARM GAS  C:\DOCUME~1\Chuck\LOCALS~1\Temp\ccFkkxMw.s 			page 20


 335:./ros_lib/ros/node_handle.h ****             s.id_ = i+100;
 560              		.loc 5 335 0
 561 002a FB68     		ldr	r3, [r7, #12]
 562 002c 1A1C     		mov	r2, r3
 563 002e 6432     		add	r2, r2, #100
 564 0030 3B68     		ldr	r3, [r7]
 565 0032 5A60     		str	r2, [r3, #4]
 336:./ros_lib/ros/node_handle.h ****             return true;
 566              		.loc 5 336 0
 567 0034 0123     		mov	r3, #1
 568 0036 0EE0     		b	.L45
 569              	.L44:
 332:./ros_lib/ros/node_handle.h ****         for(int i = 0; i < MAX_SUBSCRIBERS; i++){
 570              		.loc 5 332 0
 571 0038 FB68     		ldr	r3, [r7, #12]
 572 003a 0133     		add	r3, r3, #1
 573 003c FB60     		str	r3, [r7, #12]
 574              	.L43:
 332:./ros_lib/ros/node_handle.h ****         for(int i = 0; i < MAX_SUBSCRIBERS; i++){
 575              		.loc 5 332 0 is_stmt 0 discriminator 1
 576 003e FB68     		ldr	r3, [r7, #12]
 577 0040 0922     		mov	r2, #9
 578 0042 D80F     		lsr	r0, r3, #31
 579 0044 D117     		asr	r1, r2, #31
 580 0046 041C     		mov	r4, r0
 581 0048 9A42     		cmp	r2, r3
 582 004a 4C41     		adc	r4, r4, r1
 583 004c 231C     		mov	r3, r4
 584 004e DBB2     		uxtb	r3, r3
 585 0050 002B     		cmp	r3, #0
 586 0052 DDD1     		bne	.L46
 587              	.LBE9:
 337:./ros_lib/ros/node_handle.h ****           }
 338:./ros_lib/ros/node_handle.h ****         }
 339:./ros_lib/ros/node_handle.h ****         return false;
 588              		.loc 5 339 0 is_stmt 1
 589 0054 0023     		mov	r3, #0
 590              	.L45:
 591              	.LBE8:
 340:./ros_lib/ros/node_handle.h ****       }
 592              		.loc 5 340 0
 593 0056 181C     		mov	r0, r3
 594 0058 BD46     		mov	sp, r7
 595 005a 05B0     		add	sp, sp, #20
 596              		@ sp needed for prologue
 597 005c 90BD     		pop	{r4, r7, pc}
 598              		.cfi_endproc
 599              	.LFE157:
 600              		.size	_ZN3ros11NodeHandle_I13Psoc4HardwareLi10ELi20ELi200ELi200EE9subscribeIN8std_msgs5EmptyEEEbRN
 601              		.weak	_ZTVN3ros10SubscriberIN8std_msgs5EmptyEEE
 602 005e C046     		.section	.rodata._ZTVN3ros10SubscriberIN8std_msgs5EmptyEEE,"aG",%progbits,_ZTVN3ros10SubscriberIN8
 603              		.align	3
 604              		.type	_ZTVN3ros10SubscriberIN8std_msgs5EmptyEEE, %object
 605              		.size	_ZTVN3ros10SubscriberIN8std_msgs5EmptyEEE, 24
 606              	_ZTVN3ros10SubscriberIN8std_msgs5EmptyEEE:
 607 0000 00000000 		.word	0
 608 0004 00000000 		.word	0
ARM GAS  C:\DOCUME~1\Chuck\LOCALS~1\Temp\ccFkkxMw.s 			page 21


 609 0008 00000000 		.word	_ZN3ros10SubscriberIN8std_msgs5EmptyEE8callbackEPh
 610 000c 00000000 		.word	_ZN3ros10SubscriberIN8std_msgs5EmptyEE15getEndpointTypeEv
 611 0010 00000000 		.word	_ZN3ros10SubscriberIN8std_msgs5EmptyEE10getMsgTypeEv
 612 0014 00000000 		.word	_ZN3ros10SubscriberIN8std_msgs5EmptyEE9getMsgMD5Ev
 613              		.weak	_ZTVN8std_msgs5EmptyE
 614              		.section	.rodata._ZTVN8std_msgs5EmptyE,"aG",%progbits,_ZTVN8std_msgs5EmptyE,comdat
 615              		.align	3
 616              		.type	_ZTVN8std_msgs5EmptyE, %object
 617              		.size	_ZTVN8std_msgs5EmptyE, 24
 618              	_ZTVN8std_msgs5EmptyE:
 619 0000 00000000 		.word	0
 620 0004 00000000 		.word	0
 621 0008 00000000 		.word	_ZNK8std_msgs5Empty9serializeEPh
 622 000c 00000000 		.word	_ZN8std_msgs5Empty11deserializeEPh
 623 0010 00000000 		.word	_ZN8std_msgs5Empty7getTypeEv
 624 0014 00000000 		.word	_ZN8std_msgs5Empty6getMD5Ev
 625              		.weak	_ZTVN3ros11Subscriber_E
 626              		.section	.rodata._ZTVN3ros11Subscriber_E,"aG",%progbits,_ZTVN3ros11Subscriber_E,comdat
 627              		.align	3
 628              		.type	_ZTVN3ros11Subscriber_E, %object
 629              		.size	_ZTVN3ros11Subscriber_E, 24
 630              	_ZTVN3ros11Subscriber_E:
 631 0000 00000000 		.word	0
 632 0004 00000000 		.word	0
 633 0008 00000000 		.word	__cxa_pure_virtual
 634 000c 00000000 		.word	__cxa_pure_virtual
 635 0010 00000000 		.word	__cxa_pure_virtual
 636 0014 00000000 		.word	__cxa_pure_virtual
 637              		.weak	_ZTVN3ros3MsgE
 638              		.section	.rodata._ZTVN3ros3MsgE,"aG",%progbits,_ZTVN3ros3MsgE,comdat
 639              		.align	3
 640              		.type	_ZTVN3ros3MsgE, %object
 641              		.size	_ZTVN3ros3MsgE, 24
 642              	_ZTVN3ros3MsgE:
 643 0000 00000000 		.word	0
 644 0004 00000000 		.word	0
 645 0008 00000000 		.word	__cxa_pure_virtual
 646 000c 00000000 		.word	__cxa_pure_virtual
 647 0010 00000000 		.word	__cxa_pure_virtual
 648 0014 00000000 		.word	__cxa_pure_virtual
 649              		.section	.rodata
 650 0031 000000   		.align	2
 651              	.LC14:
 652 0034 746F6767 		.ascii	"toggle_led\000"
 652      6C655F6C 
 652      656400
 653              		.section	.text._Z41__static_initialization_and_destruction_0ii,"ax",%progbits
 654              		.align	2
 655              		.code	16
 656              		.thumb_func
 657              		.type	_Z41__static_initialization_and_destruction_0ii, %function
 658              	_Z41__static_initialization_and_destruction_0ii:
 659              	.LFB158:
  34:.\ros_lib\examples\Blink/Blink.cpp **** 
  35:.\ros_lib\examples\Blink/Blink.cpp **** } // namespace Blink
 660              		.loc 2 35 0
 661              		.cfi_startproc
ARM GAS  C:\DOCUME~1\Chuck\LOCALS~1\Temp\ccFkkxMw.s 			page 22


 662 0000 80B5     		push	{r7, lr}
 663              	.LCFI34:
 664              		.cfi_def_cfa_offset 8
 665              		.cfi_offset 7, -8
 666              		.cfi_offset 14, -4
 667 0002 82B0     		sub	sp, sp, #8
 668              	.LCFI35:
 669              		.cfi_def_cfa_offset 16
 670 0004 00AF     		add	r7, sp, #0
 671              	.LCFI36:
 672              		.cfi_def_cfa_register 7
 673 0006 7860     		str	r0, [r7, #4]
 674 0008 3960     		str	r1, [r7]
 675              		.loc 2 35 0
 676 000a 7B68     		ldr	r3, [r7, #4]
 677 000c 012B     		cmp	r3, #1
 678 000e 0CD1     		bne	.L47
 679              		.loc 2 35 0 is_stmt 0 discriminator 1
 680 0010 3A68     		ldr	r2, [r7]
 681 0012 074B     		ldr	r3, .L49
 682 0014 9A42     		cmp	r2, r3
 683 0016 08D1     		bne	.L47
  21:.\ros_lib\examples\Blink/Blink.cpp **** ros::Subscriber<std_msgs::Empty> sub("toggle_led", &messageCb );
 684              		.loc 2 21 0 is_stmt 1
 685 0018 0649     		ldr	r1, .L49+4
 686 001a 074A     		ldr	r2, .L49+8
 687 001c 074B     		ldr	r3, .L49+12
 688 001e 081C     		mov	r0, r1
 689 0020 111C     		mov	r1, r2
 690 0022 1A1C     		mov	r2, r3
 691 0024 0123     		mov	r3, #1
 692 0026 FFF7FEFF 		bl	_ZN3ros10SubscriberIN8std_msgs5EmptyEEC1EPKcPFvRKS2_Ei
 693              	.L47:
 694              		.loc 2 35 0
 695 002a BD46     		mov	sp, r7
 696 002c 02B0     		add	sp, sp, #8
 697              		@ sp needed for prologue
 698 002e 80BD     		pop	{r7, pc}
 699              	.L50:
 700              		.align	2
 701              	.L49:
 702 0030 FFFF0000 		.word	65535
 703 0034 00000000 		.word	_ZN5Blink3subE
 704 0038 34000000 		.word	.LC14
 705 003c 00000000 		.word	_ZN5Blink9messageCbERKN8std_msgs5EmptyE
 706              		.cfi_endproc
 707              	.LFE158:
 708              		.size	_Z41__static_initialization_and_destruction_0ii, .-_Z41__static_initialization_and_destructi
 709              		.section	.rodata
 710 003f 00       		.align	2
 711              		.type	_ZN14rosserial_msgsL12REQUESTPARAME, %object
 712              		.size	_ZN14rosserial_msgsL12REQUESTPARAME, 28
 713              	_ZN14rosserial_msgsL12REQUESTPARAME:
 714 0040 726F7373 		.ascii	"rosserial_msgs/RequestParam\000"
 714      65726961 
 714      6C5F6D73 
 714      67732F52 
ARM GAS  C:\DOCUME~1\Chuck\LOCALS~1\Temp\ccFkkxMw.s 			page 23


 714      65717565 
 715              		.section	.text._ZN3ros10SubscriberIN8std_msgs5EmptyEE8callbackEPh,"axG",%progbits,_ZN3ros10Subscri
 716              		.align	2
 717              		.weak	_ZN3ros10SubscriberIN8std_msgs5EmptyEE8callbackEPh
 718              		.code	16
 719              		.thumb_func
 720              		.type	_ZN3ros10SubscriberIN8std_msgs5EmptyEE8callbackEPh, %function
 721              	_ZN3ros10SubscriberIN8std_msgs5EmptyEE8callbackEPh:
 722              	.LFB159:
  71:./ros_lib/ros/subscriber.h ****       // callback with message pointer allows use of member-function callbacks
  72:./ros_lib/ros/subscriber.h ****       typedef void(*CallbackTPtr)(const MsgT*);
  73:./ros_lib/ros/subscriber.h ****       Subscriber(const char * topic_name, CallbackTPtr cbp, int endpoint=rosserial_msgs::TopicInfo:
  74:./ros_lib/ros/subscriber.h ****         cb_(NULL), cbp_(cbp),
  75:./ros_lib/ros/subscriber.h ****         endpoint_(endpoint)
  76:./ros_lib/ros/subscriber.h ****       {
  77:./ros_lib/ros/subscriber.h ****         topic_ = topic_name;
  78:./ros_lib/ros/subscriber.h ****       };
  79:./ros_lib/ros/subscriber.h ****       // uninitialized callback pointer
  80:./ros_lib/ros/subscriber.h ****       Subscriber(int endpoint=rosserial_msgs::TopicInfo::ID_SUBSCRIBER) :
  81:./ros_lib/ros/subscriber.h ****         cb_(NULL), cbp_(NULL),
  82:./ros_lib/ros/subscriber.h ****         endpoint_(endpoint)
  83:./ros_lib/ros/subscriber.h ****       {
  84:./ros_lib/ros/subscriber.h ****       };
  85:./ros_lib/ros/subscriber.h **** 
  86:./ros_lib/ros/subscriber.h ****       virtual void callback(unsigned char* data){
 723              		.loc 3 86 0
 724              		.cfi_startproc
 725 0000 80B5     		push	{r7, lr}
 726              	.LCFI37:
 727              		.cfi_def_cfa_offset 8
 728              		.cfi_offset 7, -8
 729              		.cfi_offset 14, -4
 730 0002 82B0     		sub	sp, sp, #8
 731              	.LCFI38:
 732              		.cfi_def_cfa_offset 16
 733 0004 00AF     		add	r7, sp, #0
 734              	.LCFI39:
 735              		.cfi_def_cfa_register 7
 736 0006 7860     		str	r0, [r7, #4]
 737 0008 3960     		str	r1, [r7]
  87:./ros_lib/ros/subscriber.h ****         msg.deserialize(data);
 738              		.loc 3 87 0
 739 000a 7B68     		ldr	r3, [r7, #4]
 740 000c 1A1C     		mov	r2, r3
 741 000e 0C32     		add	r2, r2, #12
 742 0010 3B68     		ldr	r3, [r7]
 743 0012 101C     		mov	r0, r2
 744 0014 191C     		mov	r1, r3
 745 0016 FFF7FEFF 		bl	_ZN8std_msgs5Empty11deserializeEPh
  88:./ros_lib/ros/subscriber.h ****         if (cb_) {
 746              		.loc 3 88 0
 747 001a 7B68     		ldr	r3, [r7, #4]
 748 001c 1B69     		ldr	r3, [r3, #16]
 749 001e 002B     		cmp	r3, #0
 750 0020 06D0     		beq	.L52
  89:./ros_lib/ros/subscriber.h ****           this->cb_(msg);
 751              		.loc 3 89 0
ARM GAS  C:\DOCUME~1\Chuck\LOCALS~1\Temp\ccFkkxMw.s 			page 24


 752 0022 7B68     		ldr	r3, [r7, #4]
 753 0024 1B69     		ldr	r3, [r3, #16]
 754 0026 7A68     		ldr	r2, [r7, #4]
 755 0028 0C32     		add	r2, r2, #12
 756 002a 101C     		mov	r0, r2
 757 002c 9847     		blx	r3
 758 002e 09E0     		b	.L51
 759              	.L52:
  90:./ros_lib/ros/subscriber.h ****         } else if (cbp_) {
 760              		.loc 3 90 0
 761 0030 7B68     		ldr	r3, [r7, #4]
 762 0032 5B69     		ldr	r3, [r3, #20]
 763 0034 002B     		cmp	r3, #0
 764 0036 05D0     		beq	.L51
  91:./ros_lib/ros/subscriber.h ****           this->cbp_(&msg);
 765              		.loc 3 91 0
 766 0038 7B68     		ldr	r3, [r7, #4]
 767 003a 5B69     		ldr	r3, [r3, #20]
 768 003c 7A68     		ldr	r2, [r7, #4]
 769 003e 0C32     		add	r2, r2, #12
 770 0040 101C     		mov	r0, r2
 771 0042 9847     		blx	r3
 772              	.L51:
  92:./ros_lib/ros/subscriber.h ****         }
  93:./ros_lib/ros/subscriber.h ****       }
 773              		.loc 3 93 0
 774 0044 BD46     		mov	sp, r7
 775 0046 02B0     		add	sp, sp, #8
 776              		@ sp needed for prologue
 777 0048 80BD     		pop	{r7, pc}
 778              		.cfi_endproc
 779              	.LFE159:
 780              		.size	_ZN3ros10SubscriberIN8std_msgs5EmptyEE8callbackEPh, .-_ZN3ros10SubscriberIN8std_msgs5EmptyEE
 781 004a C046     		.section	.text._ZN3ros10SubscriberIN8std_msgs5EmptyEE15getEndpointTypeEv,"axG",%progbits,_ZN3ros10
 782              		.align	2
 783              		.weak	_ZN3ros10SubscriberIN8std_msgs5EmptyEE15getEndpointTypeEv
 784              		.code	16
 785              		.thumb_func
 786              		.type	_ZN3ros10SubscriberIN8std_msgs5EmptyEE15getEndpointTypeEv, %function
 787              	_ZN3ros10SubscriberIN8std_msgs5EmptyEE15getEndpointTypeEv:
 788              	.LFB160:
  94:./ros_lib/ros/subscriber.h **** 
  95:./ros_lib/ros/subscriber.h ****       virtual const char * getMsgType(){ return this->msg.getType(); }
  96:./ros_lib/ros/subscriber.h ****       virtual const char * getMsgMD5(){ return this->msg.getMD5(); }
  97:./ros_lib/ros/subscriber.h ****       virtual int getEndpointType(){ return endpoint_; }
 789              		.loc 3 97 0
 790              		.cfi_startproc
 791 0000 80B5     		push	{r7, lr}
 792              	.LCFI40:
 793              		.cfi_def_cfa_offset 8
 794              		.cfi_offset 7, -8
 795              		.cfi_offset 14, -4
 796 0002 82B0     		sub	sp, sp, #8
 797              	.LCFI41:
 798              		.cfi_def_cfa_offset 16
 799 0004 00AF     		add	r7, sp, #0
 800              	.LCFI42:
ARM GAS  C:\DOCUME~1\Chuck\LOCALS~1\Temp\ccFkkxMw.s 			page 25


 801              		.cfi_def_cfa_register 7
 802 0006 7860     		str	r0, [r7, #4]
 803              		.loc 3 97 0
 804 0008 7B68     		ldr	r3, [r7, #4]
 805 000a 9B69     		ldr	r3, [r3, #24]
 806 000c 181C     		mov	r0, r3
 807 000e BD46     		mov	sp, r7
 808 0010 02B0     		add	sp, sp, #8
 809              		@ sp needed for prologue
 810 0012 80BD     		pop	{r7, pc}
 811              		.cfi_endproc
 812              	.LFE160:
 813              		.size	_ZN3ros10SubscriberIN8std_msgs5EmptyEE15getEndpointTypeEv, .-_ZN3ros10SubscriberIN8std_msgs5
 814              		.section	.text._ZN3ros10SubscriberIN8std_msgs5EmptyEE10getMsgTypeEv,"axG",%progbits,_ZN3ros10Subsc
 815              		.align	2
 816              		.weak	_ZN3ros10SubscriberIN8std_msgs5EmptyEE10getMsgTypeEv
 817              		.code	16
 818              		.thumb_func
 819              		.type	_ZN3ros10SubscriberIN8std_msgs5EmptyEE10getMsgTypeEv, %function
 820              	_ZN3ros10SubscriberIN8std_msgs5EmptyEE10getMsgTypeEv:
 821              	.LFB161:
  95:./ros_lib/ros/subscriber.h ****       virtual const char * getMsgType(){ return this->msg.getType(); }
 822              		.loc 3 95 0
 823              		.cfi_startproc
 824 0000 80B5     		push	{r7, lr}
 825              	.LCFI43:
 826              		.cfi_def_cfa_offset 8
 827              		.cfi_offset 7, -8
 828              		.cfi_offset 14, -4
 829 0002 82B0     		sub	sp, sp, #8
 830              	.LCFI44:
 831              		.cfi_def_cfa_offset 16
 832 0004 00AF     		add	r7, sp, #0
 833              	.LCFI45:
 834              		.cfi_def_cfa_register 7
 835 0006 7860     		str	r0, [r7, #4]
  95:./ros_lib/ros/subscriber.h ****       virtual const char * getMsgType(){ return this->msg.getType(); }
 836              		.loc 3 95 0
 837 0008 7B68     		ldr	r3, [r7, #4]
 838 000a 0C33     		add	r3, r3, #12
 839 000c 181C     		mov	r0, r3
 840 000e FFF7FEFF 		bl	_ZN8std_msgs5Empty7getTypeEv
 841 0012 031C     		mov	r3, r0
 842 0014 181C     		mov	r0, r3
 843 0016 BD46     		mov	sp, r7
 844 0018 02B0     		add	sp, sp, #8
 845              		@ sp needed for prologue
 846 001a 80BD     		pop	{r7, pc}
 847              		.cfi_endproc
 848              	.LFE161:
 849              		.size	_ZN3ros10SubscriberIN8std_msgs5EmptyEE10getMsgTypeEv, .-_ZN3ros10SubscriberIN8std_msgs5Empty
 850              		.section	.text._ZN3ros10SubscriberIN8std_msgs5EmptyEE9getMsgMD5Ev,"axG",%progbits,_ZN3ros10Subscri
 851              		.align	2
 852              		.weak	_ZN3ros10SubscriberIN8std_msgs5EmptyEE9getMsgMD5Ev
 853              		.code	16
 854              		.thumb_func
 855              		.type	_ZN3ros10SubscriberIN8std_msgs5EmptyEE9getMsgMD5Ev, %function
ARM GAS  C:\DOCUME~1\Chuck\LOCALS~1\Temp\ccFkkxMw.s 			page 26


 856              	_ZN3ros10SubscriberIN8std_msgs5EmptyEE9getMsgMD5Ev:
 857              	.LFB162:
  96:./ros_lib/ros/subscriber.h ****       virtual const char * getMsgMD5(){ return this->msg.getMD5(); }
 858              		.loc 3 96 0
 859              		.cfi_startproc
 860 0000 80B5     		push	{r7, lr}
 861              	.LCFI46:
 862              		.cfi_def_cfa_offset 8
 863              		.cfi_offset 7, -8
 864              		.cfi_offset 14, -4
 865 0002 82B0     		sub	sp, sp, #8
 866              	.LCFI47:
 867              		.cfi_def_cfa_offset 16
 868 0004 00AF     		add	r7, sp, #0
 869              	.LCFI48:
 870              		.cfi_def_cfa_register 7
 871 0006 7860     		str	r0, [r7, #4]
  96:./ros_lib/ros/subscriber.h ****       virtual const char * getMsgMD5(){ return this->msg.getMD5(); }
 872              		.loc 3 96 0
 873 0008 7B68     		ldr	r3, [r7, #4]
 874 000a 0C33     		add	r3, r3, #12
 875 000c 181C     		mov	r0, r3
 876 000e FFF7FEFF 		bl	_ZN8std_msgs5Empty6getMD5Ev
 877 0012 031C     		mov	r3, r0
 878 0014 181C     		mov	r0, r3
 879 0016 BD46     		mov	sp, r7
 880 0018 02B0     		add	sp, sp, #8
 881              		@ sp needed for prologue
 882 001a 80BD     		pop	{r7, pc}
 883              		.cfi_endproc
 884              	.LFE162:
 885              		.size	_ZN3ros10SubscriberIN8std_msgs5EmptyEE9getMsgMD5Ev, .-_ZN3ros10SubscriberIN8std_msgs5EmptyEE
 886              		.section	.text._GLOBAL__sub_I__ZN5Blink5ledOnE,"ax",%progbits
 887              		.align	2
 888              		.code	16
 889              		.thumb_func
 890              		.type	_GLOBAL__sub_I__ZN5Blink5ledOnE, %function
 891              	_GLOBAL__sub_I__ZN5Blink5ledOnE:
 892              	.LFB163:
 893              		.loc 2 35 0
 894              		.cfi_startproc
 895 0000 80B5     		push	{r7, lr}
 896              	.LCFI49:
 897              		.cfi_def_cfa_offset 8
 898              		.cfi_offset 7, -8
 899              		.cfi_offset 14, -4
 900 0002 00AF     		add	r7, sp, #0
 901              	.LCFI50:
 902              		.cfi_def_cfa_register 7
 903              		.loc 2 35 0
 904 0004 034B     		ldr	r3, .L61
 905 0006 0120     		mov	r0, #1
 906 0008 191C     		mov	r1, r3
 907 000a FFF7FEFF 		bl	_Z41__static_initialization_and_destruction_0ii
 908 000e BD46     		mov	sp, r7
 909              		@ sp needed for prologue
 910 0010 80BD     		pop	{r7, pc}
ARM GAS  C:\DOCUME~1\Chuck\LOCALS~1\Temp\ccFkkxMw.s 			page 27


 911              	.L62:
 912 0012 C046     		.align	2
 913              	.L61:
 914 0014 FFFF0000 		.word	65535
 915              		.cfi_endproc
 916              	.LFE163:
 917              		.size	_GLOBAL__sub_I__ZN5Blink5ledOnE, .-_GLOBAL__sub_I__ZN5Blink5ledOnE
 918              		.section	.init_array,"aw",%init_array
 919              		.align	2
 920 0000 00000000 		.word	_GLOBAL__sub_I__ZN5Blink5ledOnE(target1)
 921              		.text
 922              	.Letext0:
 923              		.file 6 "c:\\program files\\cypress\\psoc creator\\3.0\\psoc creator\\import\\gnu_cs\\arm\\4.7.3\\
 924              		.file 7 "./ros_lib/ros.h"
 925              		.file 8 "./ros_lib/Psoc4Hardware.h"
 926              		.file 9 "./ros_lib/rosserial_msgs/TopicInfo.h"
 927              		.file 10 "./ros_lib/std_msgs/Time.h"
 928              		.file 11 "./ros_lib/rosserial_msgs/RequestParam.h"
 929              		.file 12 "./ros_lib/Uarts.h"