ARM GAS  C:\DOCUME~1\Chuck\LOCALS~1\Temp\ccgKfZst.s 			page 1


   1              		.cpu cortex-m0
   2              		.fpu softvfp
   3              		.eabi_attribute 20, 1
   4              		.eabi_attribute 21, 1
   5              		.eabi_attribute 23, 3
   6              		.eabi_attribute 24, 1
   7              		.eabi_attribute 25, 1
   8              		.eabi_attribute 26, 1
   9              		.eabi_attribute 30, 6
  10              		.eabi_attribute 34, 0
  11              		.eabi_attribute 18, 4
  12              		.code	16
  13              		.file	"button_example.cpp"
  14              		.text
  15              	.Ltext0:
  16              		.cfi_sections	.debug_frame
  17              		.section	.text._ZNK14rosserial_msgs3Log9serializeEPh,"axG",%progbits,_ZNK14rosserial_msgs3Log9seri
  18              		.align	2
  19              		.weak	_ZNK14rosserial_msgs3Log9serializeEPh
  20              		.code	16
  21              		.thumb_func
  22              		.type	_ZNK14rosserial_msgs3Log9serializeEPh, %function
  23              	_ZNK14rosserial_msgs3Log9serializeEPh:
  24              	.LFB25:
  25              		.file 1 "./ros_lib/rosserial_msgs/Log.h"
   1:./ros_lib/rosserial_msgs/Log.h **** #ifndef _ROS_rosserial_msgs_Log_h
   2:./ros_lib/rosserial_msgs/Log.h **** #define _ROS_rosserial_msgs_Log_h
   3:./ros_lib/rosserial_msgs/Log.h **** 
   4:./ros_lib/rosserial_msgs/Log.h **** #include <stdint.h>
   5:./ros_lib/rosserial_msgs/Log.h **** #include <string.h>
   6:./ros_lib/rosserial_msgs/Log.h **** #include <stdlib.h>
   7:./ros_lib/rosserial_msgs/Log.h **** #include "ros/msg.h"
   8:./ros_lib/rosserial_msgs/Log.h **** 
   9:./ros_lib/rosserial_msgs/Log.h **** namespace rosserial_msgs
  10:./ros_lib/rosserial_msgs/Log.h **** {
  11:./ros_lib/rosserial_msgs/Log.h **** 
  12:./ros_lib/rosserial_msgs/Log.h ****   class Log : public ros::Msg
  13:./ros_lib/rosserial_msgs/Log.h ****   {
  14:./ros_lib/rosserial_msgs/Log.h ****     public:
  15:./ros_lib/rosserial_msgs/Log.h ****       uint8_t level;
  16:./ros_lib/rosserial_msgs/Log.h ****       char * msg;
  17:./ros_lib/rosserial_msgs/Log.h ****       enum { ROSDEBUG = 0 };
  18:./ros_lib/rosserial_msgs/Log.h ****       enum { INFO = 1 };
  19:./ros_lib/rosserial_msgs/Log.h ****       enum { WARN = 2 };
  20:./ros_lib/rosserial_msgs/Log.h ****       enum { ERROR = 3 };
  21:./ros_lib/rosserial_msgs/Log.h ****       enum { FATAL = 4 };
  22:./ros_lib/rosserial_msgs/Log.h **** 
  23:./ros_lib/rosserial_msgs/Log.h ****     virtual int serialize(unsigned char *outbuffer) const
  26              		.loc 1 23 0
  27              		.cfi_startproc
  28 0000 80B5     		push	{r7, lr}
  29              	.LCFI0:
  30              		.cfi_def_cfa_offset 8
  31              		.cfi_offset 7, -8
  32              		.cfi_offset 14, -4
  33 0002 84B0     		sub	sp, sp, #16
  34              	.LCFI1:
ARM GAS  C:\DOCUME~1\Chuck\LOCALS~1\Temp\ccgKfZst.s 			page 2


  35              		.cfi_def_cfa_offset 24
  36 0004 00AF     		add	r7, sp, #0
  37              	.LCFI2:
  38              		.cfi_def_cfa_register 7
  39 0006 7860     		str	r0, [r7, #4]
  40 0008 3960     		str	r1, [r7]
  41              	.LBB2:
  24:./ros_lib/rosserial_msgs/Log.h ****     {
  25:./ros_lib/rosserial_msgs/Log.h ****       int offset = 0;
  42              		.loc 1 25 0
  43 000a 0023     		mov	r3, #0
  44 000c FB60     		str	r3, [r7, #12]
  26:./ros_lib/rosserial_msgs/Log.h **** #ifndef ROS_MSG_DONT_SERIALIZE
  27:./ros_lib/rosserial_msgs/Log.h ****       *(outbuffer + offset + 0) = (this->level >> (8 * 0)) & 0xFF;
  45              		.loc 1 27 0
  46 000e FB68     		ldr	r3, [r7, #12]
  47 0010 3A68     		ldr	r2, [r7]
  48 0012 D318     		add	r3, r2, r3
  49 0014 7A68     		ldr	r2, [r7, #4]
  50 0016 1279     		ldrb	r2, [r2, #4]
  51 0018 1A70     		strb	r2, [r3]
  28:./ros_lib/rosserial_msgs/Log.h ****       offset += sizeof(this->level);
  52              		.loc 1 28 0
  53 001a FB68     		ldr	r3, [r7, #12]
  54 001c 0133     		add	r3, r3, #1
  55 001e FB60     		str	r3, [r7, #12]
  29:./ros_lib/rosserial_msgs/Log.h ****       uint32_t length_msg = strlen( (const char*) this->msg);
  56              		.loc 1 29 0
  57 0020 7B68     		ldr	r3, [r7, #4]
  58 0022 9B68     		ldr	r3, [r3, #8]
  59 0024 181C     		mov	r0, r3
  60 0026 FFF7FEFF 		bl	strlen
  61 002a 031C     		mov	r3, r0
  62 002c BB60     		str	r3, [r7, #8]
  30:./ros_lib/rosserial_msgs/Log.h ****       memcpy(outbuffer + offset, &length_msg, sizeof(uint32_t));
  63              		.loc 1 30 0
  64 002e FB68     		ldr	r3, [r7, #12]
  65 0030 3A68     		ldr	r2, [r7]
  66 0032 D218     		add	r2, r2, r3
  67 0034 3B1C     		mov	r3, r7
  68 0036 0833     		add	r3, r3, #8
  69 0038 101C     		mov	r0, r2
  70 003a 191C     		mov	r1, r3
  71 003c 0422     		mov	r2, #4
  72 003e FFF7FEFF 		bl	memcpy
  31:./ros_lib/rosserial_msgs/Log.h ****       offset += 4;
  73              		.loc 1 31 0
  74 0042 FB68     		ldr	r3, [r7, #12]
  75 0044 0433     		add	r3, r3, #4
  76 0046 FB60     		str	r3, [r7, #12]
  32:./ros_lib/rosserial_msgs/Log.h ****       memcpy(outbuffer + offset, this->msg, length_msg);
  77              		.loc 1 32 0
  78 0048 FB68     		ldr	r3, [r7, #12]
  79 004a 3A68     		ldr	r2, [r7]
  80 004c D118     		add	r1, r2, r3
  81 004e 7B68     		ldr	r3, [r7, #4]
  82 0050 9A68     		ldr	r2, [r3, #8]
ARM GAS  C:\DOCUME~1\Chuck\LOCALS~1\Temp\ccgKfZst.s 			page 3


  83 0052 BB68     		ldr	r3, [r7, #8]
  84 0054 081C     		mov	r0, r1
  85 0056 111C     		mov	r1, r2
  86 0058 1A1C     		mov	r2, r3
  87 005a FFF7FEFF 		bl	memcpy
  33:./ros_lib/rosserial_msgs/Log.h ****       offset += length_msg;
  88              		.loc 1 33 0
  89 005e FA68     		ldr	r2, [r7, #12]
  90 0060 BB68     		ldr	r3, [r7, #8]
  91 0062 D318     		add	r3, r2, r3
  92 0064 FB60     		str	r3, [r7, #12]
  34:./ros_lib/rosserial_msgs/Log.h **** #endif
  35:./ros_lib/rosserial_msgs/Log.h ****       return offset;
  93              		.loc 1 35 0
  94 0066 FB68     		ldr	r3, [r7, #12]
  95              	.LBE2:
  36:./ros_lib/rosserial_msgs/Log.h ****     }
  96              		.loc 1 36 0
  97 0068 181C     		mov	r0, r3
  98 006a BD46     		mov	sp, r7
  99 006c 04B0     		add	sp, sp, #16
 100              		@ sp needed for prologue
 101 006e 80BD     		pop	{r7, pc}
 102              		.cfi_endproc
 103              	.LFE25:
 104              		.size	_ZNK14rosserial_msgs3Log9serializeEPh, .-_ZNK14rosserial_msgs3Log9serializeEPh
 105              		.section	.text._ZN14rosserial_msgs3Log11deserializeEPh,"axG",%progbits,_ZN14rosserial_msgs3Log11de
 106              		.align	2
 107              		.weak	_ZN14rosserial_msgs3Log11deserializeEPh
 108              		.code	16
 109              		.thumb_func
 110              		.type	_ZN14rosserial_msgs3Log11deserializeEPh, %function
 111              	_ZN14rosserial_msgs3Log11deserializeEPh:
 112              	.LFB26:
  37:./ros_lib/rosserial_msgs/Log.h **** 
  38:./ros_lib/rosserial_msgs/Log.h ****     virtual int deserialize(unsigned char *inbuffer)
 113              		.loc 1 38 0
 114              		.cfi_startproc
 115 0000 80B5     		push	{r7, lr}
 116              	.LCFI3:
 117              		.cfi_def_cfa_offset 8
 118              		.cfi_offset 7, -8
 119              		.cfi_offset 14, -4
 120 0002 86B0     		sub	sp, sp, #24
 121              	.LCFI4:
 122              		.cfi_def_cfa_offset 32
 123 0004 00AF     		add	r7, sp, #0
 124              	.LCFI5:
 125              		.cfi_def_cfa_register 7
 126 0006 7860     		str	r0, [r7, #4]
 127 0008 3960     		str	r1, [r7]
 128              	.LBB3:
  39:./ros_lib/rosserial_msgs/Log.h ****     {
  40:./ros_lib/rosserial_msgs/Log.h ****       int offset = 0;
 129              		.loc 1 40 0
 130 000a 0023     		mov	r3, #0
 131 000c 3B61     		str	r3, [r7, #16]
ARM GAS  C:\DOCUME~1\Chuck\LOCALS~1\Temp\ccgKfZst.s 			page 4


  41:./ros_lib/rosserial_msgs/Log.h **** #ifndef ROS_MSG_DONT_DESERIALIZE
  42:./ros_lib/rosserial_msgs/Log.h ****       this->level =  ((uint8_t) (*(inbuffer + offset)));
 132              		.loc 1 42 0
 133 000e 3B69     		ldr	r3, [r7, #16]
 134 0010 3A68     		ldr	r2, [r7]
 135 0012 D318     		add	r3, r2, r3
 136 0014 1A78     		ldrb	r2, [r3]
 137 0016 7B68     		ldr	r3, [r7, #4]
 138 0018 1A71     		strb	r2, [r3, #4]
  43:./ros_lib/rosserial_msgs/Log.h ****       offset += sizeof(this->level);
 139              		.loc 1 43 0
 140 001a 3B69     		ldr	r3, [r7, #16]
 141 001c 0133     		add	r3, r3, #1
 142 001e 3B61     		str	r3, [r7, #16]
  44:./ros_lib/rosserial_msgs/Log.h ****       uint32_t length_msg;
  45:./ros_lib/rosserial_msgs/Log.h ****       memcpy(&length_msg, (inbuffer + offset), sizeof(uint32_t));
 143              		.loc 1 45 0
 144 0020 3B69     		ldr	r3, [r7, #16]
 145 0022 3A68     		ldr	r2, [r7]
 146 0024 D318     		add	r3, r2, r3
 147 0026 3A1C     		mov	r2, r7
 148 0028 0C32     		add	r2, r2, #12
 149 002a 101C     		mov	r0, r2
 150 002c 191C     		mov	r1, r3
 151 002e 0422     		mov	r2, #4
 152 0030 FFF7FEFF 		bl	memcpy
  46:./ros_lib/rosserial_msgs/Log.h ****       offset += 4;
 153              		.loc 1 46 0
 154 0034 3B69     		ldr	r3, [r7, #16]
 155 0036 0433     		add	r3, r3, #4
 156 0038 3B61     		str	r3, [r7, #16]
 157              	.LBB4:
  47:./ros_lib/rosserial_msgs/Log.h ****       for(unsigned int k= offset; k< offset+length_msg; ++k){
 158              		.loc 1 47 0
 159 003a 3B69     		ldr	r3, [r7, #16]
 160 003c 7B61     		str	r3, [r7, #20]
 161 003e 0BE0     		b	.L4
 162              	.L5:
  48:./ros_lib/rosserial_msgs/Log.h ****           inbuffer[k-1]=inbuffer[k];
 163              		.loc 1 48 0 discriminator 2
 164 0040 7B69     		ldr	r3, [r7, #20]
 165 0042 013B     		sub	r3, r3, #1
 166 0044 3A68     		ldr	r2, [r7]
 167 0046 D318     		add	r3, r2, r3
 168 0048 3968     		ldr	r1, [r7]
 169 004a 7A69     		ldr	r2, [r7, #20]
 170 004c 8A18     		add	r2, r1, r2
 171 004e 1278     		ldrb	r2, [r2]
 172 0050 1A70     		strb	r2, [r3]
  47:./ros_lib/rosserial_msgs/Log.h ****       for(unsigned int k= offset; k< offset+length_msg; ++k){
 173              		.loc 1 47 0 discriminator 2
 174 0052 7B69     		ldr	r3, [r7, #20]
 175 0054 0133     		add	r3, r3, #1
 176 0056 7B61     		str	r3, [r7, #20]
 177              	.L4:
  47:./ros_lib/rosserial_msgs/Log.h ****       for(unsigned int k= offset; k< offset+length_msg; ++k){
 178              		.loc 1 47 0 is_stmt 0 discriminator 1
ARM GAS  C:\DOCUME~1\Chuck\LOCALS~1\Temp\ccgKfZst.s 			page 5


 179 0058 3A69     		ldr	r2, [r7, #16]
 180 005a FB68     		ldr	r3, [r7, #12]
 181 005c D318     		add	r3, r2, r3
 182 005e 7A69     		ldr	r2, [r7, #20]
 183 0060 9A42     		cmp	r2, r3
 184 0062 9B41     		sbc	r3, r3, r3
 185 0064 5B42     		neg	r3, r3
 186 0066 DBB2     		uxtb	r3, r3
 187 0068 002B     		cmp	r3, #0
 188 006a E9D1     		bne	.L5
 189              	.LBE4:
  49:./ros_lib/rosserial_msgs/Log.h ****       }
  50:./ros_lib/rosserial_msgs/Log.h ****       inbuffer[offset+length_msg-1]=0;
 190              		.loc 1 50 0 is_stmt 1
 191 006c 3A69     		ldr	r2, [r7, #16]
 192 006e FB68     		ldr	r3, [r7, #12]
 193 0070 D318     		add	r3, r2, r3
 194 0072 013B     		sub	r3, r3, #1
 195 0074 3A68     		ldr	r2, [r7]
 196 0076 D318     		add	r3, r2, r3
 197 0078 0022     		mov	r2, #0
 198 007a 1A70     		strb	r2, [r3]
  51:./ros_lib/rosserial_msgs/Log.h ****       this->msg = (char *)(inbuffer + offset-1);
 199              		.loc 1 51 0
 200 007c 3B69     		ldr	r3, [r7, #16]
 201 007e 013B     		sub	r3, r3, #1
 202 0080 3A68     		ldr	r2, [r7]
 203 0082 D218     		add	r2, r2, r3
 204 0084 7B68     		ldr	r3, [r7, #4]
 205 0086 9A60     		str	r2, [r3, #8]
  52:./ros_lib/rosserial_msgs/Log.h ****       offset += length_msg;
 206              		.loc 1 52 0
 207 0088 3A69     		ldr	r2, [r7, #16]
 208 008a FB68     		ldr	r3, [r7, #12]
 209 008c D318     		add	r3, r2, r3
 210 008e 3B61     		str	r3, [r7, #16]
  53:./ros_lib/rosserial_msgs/Log.h **** #endif
  54:./ros_lib/rosserial_msgs/Log.h ****      return offset;
 211              		.loc 1 54 0
 212 0090 3B69     		ldr	r3, [r7, #16]
 213              	.LBE3:
  55:./ros_lib/rosserial_msgs/Log.h ****     }
 214              		.loc 1 55 0
 215 0092 181C     		mov	r0, r3
 216 0094 BD46     		mov	sp, r7
 217 0096 06B0     		add	sp, sp, #24
 218              		@ sp needed for prologue
 219 0098 80BD     		pop	{r7, pc}
 220              		.cfi_endproc
 221              	.LFE26:
 222              		.size	_ZN14rosserial_msgs3Log11deserializeEPh, .-_ZN14rosserial_msgs3Log11deserializeEPh
 223 009a C046     		.section	.rodata
 224              		.align	2
 225              	.LC0:
 226 0000 726F7373 		.ascii	"rosserial_msgs/Log\000"
 226      65726961 
 226      6C5F6D73 
ARM GAS  C:\DOCUME~1\Chuck\LOCALS~1\Temp\ccgKfZst.s 			page 6


 226      67732F4C 
 226      6F6700
 227              		.section	.text._ZN14rosserial_msgs3Log7getTypeEv,"axG",%progbits,_ZN14rosserial_msgs3Log7getTypeEv
 228              		.align	2
 229              		.weak	_ZN14rosserial_msgs3Log7getTypeEv
 230              		.code	16
 231              		.thumb_func
 232              		.type	_ZN14rosserial_msgs3Log7getTypeEv, %function
 233              	_ZN14rosserial_msgs3Log7getTypeEv:
 234              	.LFB27:
  56:./ros_lib/rosserial_msgs/Log.h **** 
  57:./ros_lib/rosserial_msgs/Log.h ****     const char * getType(){ return "rosserial_msgs/Log"; };
 235              		.loc 1 57 0
 236              		.cfi_startproc
 237 0000 80B5     		push	{r7, lr}
 238              	.LCFI6:
 239              		.cfi_def_cfa_offset 8
 240              		.cfi_offset 7, -8
 241              		.cfi_offset 14, -4
 242 0002 82B0     		sub	sp, sp, #8
 243              	.LCFI7:
 244              		.cfi_def_cfa_offset 16
 245 0004 00AF     		add	r7, sp, #0
 246              	.LCFI8:
 247              		.cfi_def_cfa_register 7
 248 0006 7860     		str	r0, [r7, #4]
 249              		.loc 1 57 0
 250 0008 024B     		ldr	r3, .L9
 251 000a 181C     		mov	r0, r3
 252 000c BD46     		mov	sp, r7
 253 000e 02B0     		add	sp, sp, #8
 254              		@ sp needed for prologue
 255 0010 80BD     		pop	{r7, pc}
 256              	.L10:
 257 0012 C046     		.align	2
 258              	.L9:
 259 0014 00000000 		.word	.LC0
 260              		.cfi_endproc
 261              	.LFE27:
 262              		.size	_ZN14rosserial_msgs3Log7getTypeEv, .-_ZN14rosserial_msgs3Log7getTypeEv
 263              		.section	.rodata
 264 0013 00       		.align	2
 265              	.LC2:
 266 0014 31316162 		.ascii	"11abd731c25933261cd6183bd12d6295\000"
 266      64373331 
 266      63323539 
 266      33333236 
 266      31636436 
 267              		.section	.text._ZN14rosserial_msgs3Log6getMD5Ev,"axG",%progbits,_ZN14rosserial_msgs3Log6getMD5Ev,c
 268              		.align	2
 269              		.weak	_ZN14rosserial_msgs3Log6getMD5Ev
 270              		.code	16
 271              		.thumb_func
 272              		.type	_ZN14rosserial_msgs3Log6getMD5Ev, %function
 273              	_ZN14rosserial_msgs3Log6getMD5Ev:
 274              	.LFB28:
  58:./ros_lib/rosserial_msgs/Log.h ****     const char * getMD5(){ return "11abd731c25933261cd6183bd12d6295"; };
ARM GAS  C:\DOCUME~1\Chuck\LOCALS~1\Temp\ccgKfZst.s 			page 7


 275              		.loc 1 58 0
 276              		.cfi_startproc
 277 0000 80B5     		push	{r7, lr}
 278              	.LCFI9:
 279              		.cfi_def_cfa_offset 8
 280              		.cfi_offset 7, -8
 281              		.cfi_offset 14, -4
 282 0002 82B0     		sub	sp, sp, #8
 283              	.LCFI10:
 284              		.cfi_def_cfa_offset 16
 285 0004 00AF     		add	r7, sp, #0
 286              	.LCFI11:
 287              		.cfi_def_cfa_register 7
 288 0006 7860     		str	r0, [r7, #4]
 289              		.loc 1 58 0
 290 0008 024B     		ldr	r3, .L13
 291 000a 181C     		mov	r0, r3
 292 000c BD46     		mov	sp, r7
 293 000e 02B0     		add	sp, sp, #8
 294              		@ sp needed for prologue
 295 0010 80BD     		pop	{r7, pc}
 296              	.L14:
 297 0012 C046     		.align	2
 298              	.L13:
 299 0014 14000000 		.word	.LC2
 300              		.cfi_endproc
 301              	.LFE28:
 302              		.size	_ZN14rosserial_msgs3Log6getMD5Ev, .-_ZN14rosserial_msgs3Log6getMD5Ev
 303              		.section	.text._ZN3ros9PublisherC2EPKcPNS_3MsgEi,"axG",%progbits,_ZN3ros9PublisherC5EPKcPNS_3MsgEi
 304              		.align	2
 305              		.weak	_ZN3ros9PublisherC2EPKcPNS_3MsgEi
 306              		.code	16
 307              		.thumb_func
 308              		.type	_ZN3ros9PublisherC2EPKcPNS_3MsgEi, %function
 309              	_ZN3ros9PublisherC2EPKcPNS_3MsgEi:
 310              	.LFB38:
 311              		.file 2 "./ros_lib/ros/publisher.h"
   1:./ros_lib/ros/publisher.h **** /* 
   2:./ros_lib/ros/publisher.h ****  * Software License Agreement (BSD License)
   3:./ros_lib/ros/publisher.h ****  *
   4:./ros_lib/ros/publisher.h ****  * Copyright (c) 2011, Willow Garage, Inc.
   5:./ros_lib/ros/publisher.h ****  * All rights reserved.
   6:./ros_lib/ros/publisher.h ****  *
   7:./ros_lib/ros/publisher.h ****  * Redistribution and use in source and binary forms, with or without
   8:./ros_lib/ros/publisher.h ****  * modification, are permitted provided that the following conditions
   9:./ros_lib/ros/publisher.h ****  * are met:
  10:./ros_lib/ros/publisher.h ****  *
  11:./ros_lib/ros/publisher.h ****  *  * Redistributions of source code must retain the above copyright
  12:./ros_lib/ros/publisher.h ****  *    notice, this list of conditions and the following disclaimer.
  13:./ros_lib/ros/publisher.h ****  *  * Redistributions in binary form must reproduce the above
  14:./ros_lib/ros/publisher.h ****  *    copyright notice, this list of conditions and the following
  15:./ros_lib/ros/publisher.h ****  *    disclaimer in the documentation and/or other materials provided
  16:./ros_lib/ros/publisher.h ****  *    with the distribution.
  17:./ros_lib/ros/publisher.h ****  *  * Neither the name of Willow Garage, Inc. nor the names of its
  18:./ros_lib/ros/publisher.h ****  *    contributors may be used to endorse or promote prducts derived
  19:./ros_lib/ros/publisher.h ****  *    from this software without specific prior written permission.
  20:./ros_lib/ros/publisher.h ****  *
ARM GAS  C:\DOCUME~1\Chuck\LOCALS~1\Temp\ccgKfZst.s 			page 8


  21:./ros_lib/ros/publisher.h ****  * THIS SOFTWARE IS PROVIDED BY THE COPYRIGHT HOLDERS AND CONTRIBUTORS
  22:./ros_lib/ros/publisher.h ****  * "AS IS" AND ANY EXPRESS OR IMPLIED WARRANTIES, INCLUDING, BUT NOT
  23:./ros_lib/ros/publisher.h ****  * LIMITED TO, THE IMPLIED WARRANTIES OF MERCHANTABILITY AND FITNESS
  24:./ros_lib/ros/publisher.h ****  * FOR A PARTICULAR PURPOSE ARE DISCLAIMED. IN NO EVENT SHALL THE
  25:./ros_lib/ros/publisher.h ****  * COPYRIGHT OWNER OR CONTRIBUTORS BE LIABLE FOR ANY DIRECT, INDIRECT,
  26:./ros_lib/ros/publisher.h ****  * INCIDENTAL, SPECIAL, EXEMPLARY, OR CONSEQUENTIAL DAMAGES (INCLUDING,
  27:./ros_lib/ros/publisher.h ****  * BUT NOT LIMITED TO, PROCUREMENT OF SUBSTITUTE GOODS OR SERVICES;
  28:./ros_lib/ros/publisher.h ****  * LOSS OF USE, DATA, OR PROFITS; OR BUSINESS INTERRUPTION) HOWEVER
  29:./ros_lib/ros/publisher.h ****  * CAUSED AND ON ANY THEORY OF LIABILITY, WHETHER IN CONTRACT, STRICT
  30:./ros_lib/ros/publisher.h ****  * LIABILITY, OR TORT (INCLUDING NEGLIGENCE OR OTHERWISE) ARISING IN
  31:./ros_lib/ros/publisher.h ****  * ANY WAY OUT OF THE USE OF THIS SOFTWARE, EVEN IF ADVISED OF THE
  32:./ros_lib/ros/publisher.h ****  * POSSIBILITY OF SUCH DAMAGE.
  33:./ros_lib/ros/publisher.h ****  */
  34:./ros_lib/ros/publisher.h **** 
  35:./ros_lib/ros/publisher.h **** #ifndef _ROS_PUBLISHER_H_
  36:./ros_lib/ros/publisher.h **** #define _ROS_PUBLISHER_H_
  37:./ros_lib/ros/publisher.h **** 
  38:./ros_lib/ros/publisher.h **** #include "rosserial_msgs/TopicInfo.h"
  39:./ros_lib/ros/publisher.h **** #include "node_handle.h"
  40:./ros_lib/ros/publisher.h **** 
  41:./ros_lib/ros/publisher.h **** namespace ros {
  42:./ros_lib/ros/publisher.h **** 
  43:./ros_lib/ros/publisher.h ****   /* Generic Publisher */
  44:./ros_lib/ros/publisher.h ****   class Publisher
  45:./ros_lib/ros/publisher.h ****   {
  46:./ros_lib/ros/publisher.h ****     public:
  47:./ros_lib/ros/publisher.h ****       Publisher( const char * topic_name, Msg * msg, int endpoint=rosserial_msgs::TopicInfo::ID_PUB
 312              		.loc 2 47 0
 313              		.cfi_startproc
 314 0000 80B5     		push	{r7, lr}
 315              	.LCFI12:
 316              		.cfi_def_cfa_offset 8
 317              		.cfi_offset 7, -8
 318              		.cfi_offset 14, -4
 319 0002 84B0     		sub	sp, sp, #16
 320              	.LCFI13:
 321              		.cfi_def_cfa_offset 24
 322 0004 00AF     		add	r7, sp, #0
 323              	.LCFI14:
 324              		.cfi_def_cfa_register 7
 325 0006 F860     		str	r0, [r7, #12]
 326 0008 B960     		str	r1, [r7, #8]
 327 000a 7A60     		str	r2, [r7, #4]
 328 000c 3B60     		str	r3, [r7]
 329              	.LBB5:
  48:./ros_lib/ros/publisher.h ****         topic_(topic_name), 
  49:./ros_lib/ros/publisher.h ****         msg_(msg),
  50:./ros_lib/ros/publisher.h ****         endpoint_(endpoint) {};
 330              		.loc 2 50 0
 331 000e FB68     		ldr	r3, [r7, #12]
 332 0010 BA68     		ldr	r2, [r7, #8]
 333 0012 1A60     		str	r2, [r3]
 334 0014 FB68     		ldr	r3, [r7, #12]
 335 0016 7A68     		ldr	r2, [r7, #4]
 336 0018 5A60     		str	r2, [r3, #4]
 337 001a FB68     		ldr	r3, [r7, #12]
 338 001c 3A68     		ldr	r2, [r7]
ARM GAS  C:\DOCUME~1\Chuck\LOCALS~1\Temp\ccgKfZst.s 			page 9


 339 001e 1A61     		str	r2, [r3, #16]
 340              	.LBE5:
 341 0020 FB68     		ldr	r3, [r7, #12]
 342 0022 181C     		mov	r0, r3
 343 0024 BD46     		mov	sp, r7
 344 0026 04B0     		add	sp, sp, #16
 345              		@ sp needed for prologue
 346 0028 80BD     		pop	{r7, pc}
 347              		.cfi_endproc
 348              	.LFE38:
 349              		.size	_ZN3ros9PublisherC2EPKcPNS_3MsgEi, .-_ZN3ros9PublisherC2EPKcPNS_3MsgEi
 350              		.weak	_ZN3ros9PublisherC1EPKcPNS_3MsgEi
 351              		.thumb_set _ZN3ros9PublisherC1EPKcPNS_3MsgEi,_ZN3ros9PublisherC2EPKcPNS_3MsgEi
 352 002a C046     		.section	.text._ZN3ros9Publisher7publishEPKNS_3MsgE,"axG",%progbits,_ZN3ros9Publisher7publishEPKNS
 353              		.align	2
 354              		.weak	_ZN3ros9Publisher7publishEPKNS_3MsgE
 355              		.code	16
 356              		.thumb_func
 357              		.type	_ZN3ros9Publisher7publishEPKNS_3MsgE, %function
 358              	_ZN3ros9Publisher7publishEPKNS_3MsgE:
 359              	.LFB40:
  51:./ros_lib/ros/publisher.h ****       // rosserial standard signature
  52:./ros_lib/ros/publisher.h ****       int publish( const Msg * msg ) { return nh_->publish(id_, msg); };
 360              		.loc 2 52 0
 361              		.cfi_startproc
 362 0000 90B5     		push	{r4, r7, lr}
 363              	.LCFI15:
 364              		.cfi_def_cfa_offset 12
 365              		.cfi_offset 4, -12
 366              		.cfi_offset 7, -8
 367              		.cfi_offset 14, -4
 368 0002 83B0     		sub	sp, sp, #12
 369              	.LCFI16:
 370              		.cfi_def_cfa_offset 24
 371 0004 00AF     		add	r7, sp, #0
 372              	.LCFI17:
 373              		.cfi_def_cfa_register 7
 374 0006 7860     		str	r0, [r7, #4]
 375 0008 3960     		str	r1, [r7]
 376              		.loc 2 52 0
 377 000a 7B68     		ldr	r3, [r7, #4]
 378 000c DB68     		ldr	r3, [r3, #12]
 379 000e 1B68     		ldr	r3, [r3]
 380 0010 1C68     		ldr	r4, [r3]
 381 0012 7B68     		ldr	r3, [r7, #4]
 382 0014 D968     		ldr	r1, [r3, #12]
 383 0016 7B68     		ldr	r3, [r7, #4]
 384 0018 9A68     		ldr	r2, [r3, #8]
 385 001a 3B68     		ldr	r3, [r7]
 386 001c 081C     		mov	r0, r1
 387 001e 111C     		mov	r1, r2
 388 0020 1A1C     		mov	r2, r3
 389 0022 A047     		blx	r4
 390 0024 031C     		mov	r3, r0
 391 0026 181C     		mov	r0, r3
 392 0028 BD46     		mov	sp, r7
 393 002a 03B0     		add	sp, sp, #12
ARM GAS  C:\DOCUME~1\Chuck\LOCALS~1\Temp\ccgKfZst.s 			page 10


 394              		@ sp needed for prologue
 395 002c 90BD     		pop	{r4, r7, pc}
 396              		.cfi_endproc
 397              	.LFE40:
 398              		.size	_ZN3ros9Publisher7publishEPKNS_3MsgE, .-_ZN3ros9Publisher7publishEPKNS_3MsgE
 399 002e C046     		.section	.text._ZN8SysTimer6millisEv,"axG",%progbits,_ZN8SysTimer6millisEv,comdat
 400              		.align	2
 401              		.weak	_ZN8SysTimer6millisEv
 402              		.code	16
 403              		.thumb_func
 404              		.type	_ZN8SysTimer6millisEv, %function
 405              	_ZN8SysTimer6millisEv:
 406              	.LFB89:
 407              		.file 3 "./ros_lib/SysTimer.h"
   1:./ros_lib/SysTimer.h **** /* ========================================
   2:./ros_lib/SysTimer.h ****  *
   3:./ros_lib/SysTimer.h ****  * The following firmware was developed by Chuck Harrison
   4:./ros_lib/SysTimer.h ****  * This work is licensed under a Creative Commons Attribution 3.0 Unported License.
   5:./ros_lib/SysTimer.h ****  * 
   6:./ros_lib/SysTimer.h ****  * http://creativecommons.org/licenses/by/3.0/deed.en_US
   7:./ros_lib/SysTimer.h ****  * 
   8:./ros_lib/SysTimer.h ****  * You are free to:
   9:./ros_lib/SysTimer.h ****  * -To Share — to copy, distribute and transmit the work 
  10:./ros_lib/SysTimer.h ****  * -To Remix — to adapt the work 
  11:./ros_lib/SysTimer.h ****  * -To make commercial use of the work
  12:./ros_lib/SysTimer.h ****  *
  13:./ros_lib/SysTimer.h ****  * ========================================
  14:./ros_lib/SysTimer.h ****  */
  15:./ros_lib/SysTimer.h **** 
  16:./ros_lib/SysTimer.h **** #ifndef ROS_SYSTIMER_H_
  17:./ros_lib/SysTimer.h **** #define ROS_SYSTIMER_H_
  18:./ros_lib/SysTimer.h **** 
  19:./ros_lib/SysTimer.h **** typedef void (* cyisraddress)(void); // should we #include the whole cytypes.h?
  20:./ros_lib/SysTimer.h **** #define CY_ISR(FuncName)        void FuncName (void)
  21:./ros_lib/SysTimer.h **** 
  22:./ros_lib/SysTimer.h **** extern "C" {
  23:./ros_lib/SysTimer.h **** cyisraddress CyIntSetSysVector(uint8_t number, cyisraddress address);
  24:./ros_lib/SysTimer.h **** }
  25:./ros_lib/SysTimer.h **** 
  26:./ros_lib/SysTimer.h **** CY_ISR(SysTick_ISR); //forward declaration for SysTimer::init()
  27:./ros_lib/SysTimer.h **** 
  28:./ros_lib/SysTimer.h **** #define SYSTICK_INTERRUPT_VECTOR_NUMBER 15u /* Cortex-M0 hard vector */
  29:./ros_lib/SysTimer.h **** 
  30:./ros_lib/SysTimer.h **** /* clock and interrupt rates, in Hz */
  31:./ros_lib/SysTimer.h **** #define CLOCK_FREQ     24000000u
  32:./ros_lib/SysTimer.h **** #define INTERRUPT_FREQ 1000u
  33:./ros_lib/SysTimer.h **** 
  34:./ros_lib/SysTimer.h **** 
  35:./ros_lib/SysTimer.h **** class SysTimer
  36:./ros_lib/SysTimer.h **** {
  37:./ros_lib/SysTimer.h ****   public:
  38:./ros_lib/SysTimer.h ****     static void init() {
  39:./ros_lib/SysTimer.h ****       CyIntSetSysVector(SYSTICK_INTERRUPT_VECTOR_NUMBER, SysTick_ISR);
  40:./ros_lib/SysTimer.h ****       // must eventually do this:
  41:./ros_lib/SysTimer.h ****       //  SysTick_Config(CLOCK_FREQ / INTERRUPT_FREQ); /* defined in auto-generated core_cm0.h */
  42:./ros_lib/SysTimer.h ****       //  CyGlobalIntEnable;
  43:./ros_lib/SysTimer.h ****       millis_ = 0;
ARM GAS  C:\DOCUME~1\Chuck\LOCALS~1\Temp\ccgKfZst.s 			page 11


  44:./ros_lib/SysTimer.h ****     };
  45:./ros_lib/SysTimer.h ****     static uint32_t millis() { return millis_; };
 408              		.loc 3 45 0
 409              		.cfi_startproc
 410 0000 80B5     		push	{r7, lr}
 411              	.LCFI18:
 412              		.cfi_def_cfa_offset 8
 413              		.cfi_offset 7, -8
 414              		.cfi_offset 14, -4
 415 0002 00AF     		add	r7, sp, #0
 416              	.LCFI19:
 417              		.cfi_def_cfa_register 7
 418              		.loc 3 45 0
 419 0004 024B     		ldr	r3, .L22
 420 0006 1B68     		ldr	r3, [r3]
 421 0008 181C     		mov	r0, r3
 422 000a BD46     		mov	sp, r7
 423              		@ sp needed for prologue
 424 000c 80BD     		pop	{r7, pc}
 425              	.L23:
 426 000e C046     		.align	2
 427              	.L22:
 428 0010 00000000 		.word	_ZN8SysTimer7millis_E
 429              		.cfi_endproc
 430              	.LFE89:
 431              		.size	_ZN8SysTimer6millisEv, .-_ZN8SysTimer6millisEv
 432              		.section	.text._ZNK8std_msgs4Bool9serializeEPh,"axG",%progbits,_ZNK8std_msgs4Bool9serializeEPh,com
 433              		.align	2
 434              		.weak	_ZNK8std_msgs4Bool9serializeEPh
 435              		.code	16
 436              		.thumb_func
 437              		.type	_ZNK8std_msgs4Bool9serializeEPh, %function
 438              	_ZNK8std_msgs4Bool9serializeEPh:
 439              	.LFB105:
 440              		.file 4 "./ros_lib/std_msgs/Bool.h"
   1:./ros_lib/std_msgs/Bool.h **** #ifndef _ROS_std_msgs_Bool_h
   2:./ros_lib/std_msgs/Bool.h **** #define _ROS_std_msgs_Bool_h
   3:./ros_lib/std_msgs/Bool.h **** 
   4:./ros_lib/std_msgs/Bool.h **** #include <stdint.h>
   5:./ros_lib/std_msgs/Bool.h **** #include <string.h>
   6:./ros_lib/std_msgs/Bool.h **** #include <stdlib.h>
   7:./ros_lib/std_msgs/Bool.h **** #include "ros/msg.h"
   8:./ros_lib/std_msgs/Bool.h **** 
   9:./ros_lib/std_msgs/Bool.h **** namespace std_msgs
  10:./ros_lib/std_msgs/Bool.h **** {
  11:./ros_lib/std_msgs/Bool.h **** 
  12:./ros_lib/std_msgs/Bool.h ****   class Bool : public ros::Msg
  13:./ros_lib/std_msgs/Bool.h ****   {
  14:./ros_lib/std_msgs/Bool.h ****     public:
  15:./ros_lib/std_msgs/Bool.h ****       bool data;
  16:./ros_lib/std_msgs/Bool.h **** 
  17:./ros_lib/std_msgs/Bool.h ****     virtual int serialize(unsigned char *outbuffer) const
 441              		.loc 4 17 0
 442              		.cfi_startproc
 443 0000 80B5     		push	{r7, lr}
 444              	.LCFI20:
 445              		.cfi_def_cfa_offset 8
ARM GAS  C:\DOCUME~1\Chuck\LOCALS~1\Temp\ccgKfZst.s 			page 12


 446              		.cfi_offset 7, -8
 447              		.cfi_offset 14, -4
 448 0002 84B0     		sub	sp, sp, #16
 449              	.LCFI21:
 450              		.cfi_def_cfa_offset 24
 451 0004 00AF     		add	r7, sp, #0
 452              	.LCFI22:
 453              		.cfi_def_cfa_register 7
 454 0006 7860     		str	r0, [r7, #4]
 455 0008 3960     		str	r1, [r7]
 456              	.LBB6:
  18:./ros_lib/std_msgs/Bool.h ****     {
  19:./ros_lib/std_msgs/Bool.h ****       int offset = 0;
 457              		.loc 4 19 0
 458 000a 0023     		mov	r3, #0
 459 000c FB60     		str	r3, [r7, #12]
  20:./ros_lib/std_msgs/Bool.h **** #ifndef ROS_MSG_DONT_SERIALIZE
  21:./ros_lib/std_msgs/Bool.h ****       union {
  22:./ros_lib/std_msgs/Bool.h ****         bool real;
  23:./ros_lib/std_msgs/Bool.h ****         uint8_t base;
  24:./ros_lib/std_msgs/Bool.h ****       } u_data;
  25:./ros_lib/std_msgs/Bool.h ****       u_data.real = this->data;
 460              		.loc 4 25 0
 461 000e 7B68     		ldr	r3, [r7, #4]
 462 0010 1A79     		ldrb	r2, [r3, #4]
 463 0012 3B1C     		mov	r3, r7
 464 0014 0833     		add	r3, r3, #8
 465 0016 1A70     		strb	r2, [r3]
  26:./ros_lib/std_msgs/Bool.h ****       *(outbuffer + offset + 0) = (u_data.base >> (8 * 0)) & 0xFF;
 466              		.loc 4 26 0
 467 0018 FB68     		ldr	r3, [r7, #12]
 468 001a 3A68     		ldr	r2, [r7]
 469 001c D318     		add	r3, r2, r3
 470 001e 3A1C     		mov	r2, r7
 471 0020 0832     		add	r2, r2, #8
 472 0022 1278     		ldrb	r2, [r2]
 473 0024 1A70     		strb	r2, [r3]
  27:./ros_lib/std_msgs/Bool.h ****       offset += sizeof(this->data);
 474              		.loc 4 27 0
 475 0026 FB68     		ldr	r3, [r7, #12]
 476 0028 0133     		add	r3, r3, #1
 477 002a FB60     		str	r3, [r7, #12]
  28:./ros_lib/std_msgs/Bool.h **** #endif
  29:./ros_lib/std_msgs/Bool.h ****       return offset;
 478              		.loc 4 29 0
 479 002c FB68     		ldr	r3, [r7, #12]
 480              	.LBE6:
  30:./ros_lib/std_msgs/Bool.h ****     }
 481              		.loc 4 30 0
 482 002e 181C     		mov	r0, r3
 483 0030 BD46     		mov	sp, r7
 484 0032 04B0     		add	sp, sp, #16
 485              		@ sp needed for prologue
 486 0034 80BD     		pop	{r7, pc}
 487              		.cfi_endproc
 488              	.LFE105:
 489              		.size	_ZNK8std_msgs4Bool9serializeEPh, .-_ZNK8std_msgs4Bool9serializeEPh
ARM GAS  C:\DOCUME~1\Chuck\LOCALS~1\Temp\ccgKfZst.s 			page 13


 490 0036 C046     		.section	.text._ZN8std_msgs4Bool11deserializeEPh,"axG",%progbits,_ZN8std_msgs4Bool11deserializeEPh
 491              		.align	2
 492              		.weak	_ZN8std_msgs4Bool11deserializeEPh
 493              		.code	16
 494              		.thumb_func
 495              		.type	_ZN8std_msgs4Bool11deserializeEPh, %function
 496              	_ZN8std_msgs4Bool11deserializeEPh:
 497              	.LFB106:
  31:./ros_lib/std_msgs/Bool.h **** 
  32:./ros_lib/std_msgs/Bool.h ****     virtual int deserialize(unsigned char *inbuffer)
 498              		.loc 4 32 0
 499              		.cfi_startproc
 500 0000 80B5     		push	{r7, lr}
 501              	.LCFI23:
 502              		.cfi_def_cfa_offset 8
 503              		.cfi_offset 7, -8
 504              		.cfi_offset 14, -4
 505 0002 84B0     		sub	sp, sp, #16
 506              	.LCFI24:
 507              		.cfi_def_cfa_offset 24
 508 0004 00AF     		add	r7, sp, #0
 509              	.LCFI25:
 510              		.cfi_def_cfa_register 7
 511 0006 7860     		str	r0, [r7, #4]
 512 0008 3960     		str	r1, [r7]
 513              	.LBB7:
  33:./ros_lib/std_msgs/Bool.h ****     {
  34:./ros_lib/std_msgs/Bool.h ****       int offset = 0;
 514              		.loc 4 34 0
 515 000a 0023     		mov	r3, #0
 516 000c FB60     		str	r3, [r7, #12]
  35:./ros_lib/std_msgs/Bool.h **** #ifndef ROS_MSG_DONT_DESERIALIZE
  36:./ros_lib/std_msgs/Bool.h ****       union {
  37:./ros_lib/std_msgs/Bool.h ****         bool real;
  38:./ros_lib/std_msgs/Bool.h ****         uint8_t base;
  39:./ros_lib/std_msgs/Bool.h ****       } u_data;
  40:./ros_lib/std_msgs/Bool.h ****       u_data.base = 0;
 517              		.loc 4 40 0
 518 000e 3B1C     		mov	r3, r7
 519 0010 0833     		add	r3, r3, #8
 520 0012 0022     		mov	r2, #0
 521 0014 1A70     		strb	r2, [r3]
  41:./ros_lib/std_msgs/Bool.h ****       u_data.base |= ((uint8_t) (*(inbuffer + offset + 0))) << (8 * 0);
 522              		.loc 4 41 0
 523 0016 3B1C     		mov	r3, r7
 524 0018 0833     		add	r3, r3, #8
 525 001a 1A78     		ldrb	r2, [r3]
 526 001c FB68     		ldr	r3, [r7, #12]
 527 001e 3968     		ldr	r1, [r7]
 528 0020 CB18     		add	r3, r1, r3
 529 0022 1B78     		ldrb	r3, [r3]
 530 0024 1343     		orr	r3, r2
 531 0026 DAB2     		uxtb	r2, r3
 532 0028 3B1C     		mov	r3, r7
 533 002a 0833     		add	r3, r3, #8
 534 002c 1A70     		strb	r2, [r3]
  42:./ros_lib/std_msgs/Bool.h ****       this->data = u_data.real;
ARM GAS  C:\DOCUME~1\Chuck\LOCALS~1\Temp\ccgKfZst.s 			page 14


 535              		.loc 4 42 0
 536 002e 3B1C     		mov	r3, r7
 537 0030 0833     		add	r3, r3, #8
 538 0032 1A78     		ldrb	r2, [r3]
 539 0034 7B68     		ldr	r3, [r7, #4]
 540 0036 1A71     		strb	r2, [r3, #4]
  43:./ros_lib/std_msgs/Bool.h ****       offset += sizeof(this->data);
 541              		.loc 4 43 0
 542 0038 FB68     		ldr	r3, [r7, #12]
 543 003a 0133     		add	r3, r3, #1
 544 003c FB60     		str	r3, [r7, #12]
  44:./ros_lib/std_msgs/Bool.h **** #endif
  45:./ros_lib/std_msgs/Bool.h ****      return offset;
 545              		.loc 4 45 0
 546 003e FB68     		ldr	r3, [r7, #12]
 547              	.LBE7:
  46:./ros_lib/std_msgs/Bool.h ****     }
 548              		.loc 4 46 0
 549 0040 181C     		mov	r0, r3
 550 0042 BD46     		mov	sp, r7
 551 0044 04B0     		add	sp, sp, #16
 552              		@ sp needed for prologue
 553 0046 80BD     		pop	{r7, pc}
 554              		.cfi_endproc
 555              	.LFE106:
 556              		.size	_ZN8std_msgs4Bool11deserializeEPh, .-_ZN8std_msgs4Bool11deserializeEPh
 557              		.section	.rodata
 558 0035 000000   		.align	2
 559              	.LC5:
 560 0038 7374645F 		.ascii	"std_msgs/Bool\000"
 560      6D736773 
 560      2F426F6F 
 560      6C00
 561              		.section	.text._ZN8std_msgs4Bool7getTypeEv,"axG",%progbits,_ZN8std_msgs4Bool7getTypeEv,comdat
 562              		.align	2
 563              		.weak	_ZN8std_msgs4Bool7getTypeEv
 564              		.code	16
 565              		.thumb_func
 566              		.type	_ZN8std_msgs4Bool7getTypeEv, %function
 567              	_ZN8std_msgs4Bool7getTypeEv:
 568              	.LFB107:
  47:./ros_lib/std_msgs/Bool.h **** 
  48:./ros_lib/std_msgs/Bool.h ****     const char * getType(){ return "std_msgs/Bool"; };
 569              		.loc 4 48 0
 570              		.cfi_startproc
 571 0000 80B5     		push	{r7, lr}
 572              	.LCFI26:
 573              		.cfi_def_cfa_offset 8
 574              		.cfi_offset 7, -8
 575              		.cfi_offset 14, -4
 576 0002 82B0     		sub	sp, sp, #8
 577              	.LCFI27:
 578              		.cfi_def_cfa_offset 16
 579 0004 00AF     		add	r7, sp, #0
 580              	.LCFI28:
 581              		.cfi_def_cfa_register 7
 582 0006 7860     		str	r0, [r7, #4]
ARM GAS  C:\DOCUME~1\Chuck\LOCALS~1\Temp\ccgKfZst.s 			page 15


 583              		.loc 4 48 0
 584 0008 024B     		ldr	r3, .L30
 585 000a 181C     		mov	r0, r3
 586 000c BD46     		mov	sp, r7
 587 000e 02B0     		add	sp, sp, #8
 588              		@ sp needed for prologue
 589 0010 80BD     		pop	{r7, pc}
 590              	.L31:
 591 0012 C046     		.align	2
 592              	.L30:
 593 0014 38000000 		.word	.LC5
 594              		.cfi_endproc
 595              	.LFE107:
 596              		.size	_ZN8std_msgs4Bool7getTypeEv, .-_ZN8std_msgs4Bool7getTypeEv
 597              		.section	.rodata
 598 0046 0000     		.align	2
 599              	.LC7:
 600 0048 38623934 		.ascii	"8b94c1b53db61fb6aed406028ad6332a\000"
 600      63316235 
 600      33646236 
 600      31666236 
 600      61656434 
 601              		.section	.text._ZN8std_msgs4Bool6getMD5Ev,"axG",%progbits,_ZN8std_msgs4Bool6getMD5Ev,comdat
 602              		.align	2
 603              		.weak	_ZN8std_msgs4Bool6getMD5Ev
 604              		.code	16
 605              		.thumb_func
 606              		.type	_ZN8std_msgs4Bool6getMD5Ev, %function
 607              	_ZN8std_msgs4Bool6getMD5Ev:
 608              	.LFB108:
  49:./ros_lib/std_msgs/Bool.h ****     const char * getMD5(){ return "8b94c1b53db61fb6aed406028ad6332a"; };
 609              		.loc 4 49 0
 610              		.cfi_startproc
 611 0000 80B5     		push	{r7, lr}
 612              	.LCFI29:
 613              		.cfi_def_cfa_offset 8
 614              		.cfi_offset 7, -8
 615              		.cfi_offset 14, -4
 616 0002 82B0     		sub	sp, sp, #8
 617              	.LCFI30:
 618              		.cfi_def_cfa_offset 16
 619 0004 00AF     		add	r7, sp, #0
 620              	.LCFI31:
 621              		.cfi_def_cfa_register 7
 622 0006 7860     		str	r0, [r7, #4]
 623              		.loc 4 49 0
 624 0008 024B     		ldr	r3, .L34
 625 000a 181C     		mov	r0, r3
 626 000c BD46     		mov	sp, r7
 627 000e 02B0     		add	sp, sp, #8
 628              		@ sp needed for prologue
 629 0010 80BD     		pop	{r7, pc}
 630              	.L35:
 631 0012 C046     		.align	2
 632              	.L34:
 633 0014 48000000 		.word	.LC7
 634              		.cfi_endproc
ARM GAS  C:\DOCUME~1\Chuck\LOCALS~1\Temp\ccgKfZst.s 			page 16


 635              	.LFE108:
 636              		.size	_ZN8std_msgs4Bool6getMD5Ev, .-_ZN8std_msgs4Bool6getMD5Ev
 637              		.section	.text._ZN3ros3MsgC2Ev,"axG",%progbits,_ZN3ros3MsgC5Ev,comdat
 638              		.align	2
 639              		.weak	_ZN3ros3MsgC2Ev
 640              		.code	16
 641              		.thumb_func
 642              		.type	_ZN3ros3MsgC2Ev, %function
 643              	_ZN3ros3MsgC2Ev:
 644              	.LFB144:
 645              		.file 5 "./ros_lib/ros/msg.h"
   1:./ros_lib/ros/msg.h **** /* 
   2:./ros_lib/ros/msg.h ****  * Software License Agreement (BSD License)
   3:./ros_lib/ros/msg.h ****  *
   4:./ros_lib/ros/msg.h ****  * Copyright (c) 2011, Willow Garage, Inc.
   5:./ros_lib/ros/msg.h ****  * All rights reserved.
   6:./ros_lib/ros/msg.h ****  *
   7:./ros_lib/ros/msg.h ****  * Redistribution and use in source and binary forms, with or without
   8:./ros_lib/ros/msg.h ****  * modification, are permitted provided that the following conditions
   9:./ros_lib/ros/msg.h ****  * are met:
  10:./ros_lib/ros/msg.h ****  *
  11:./ros_lib/ros/msg.h ****  *  * Redistributions of source code must retain the above copyright
  12:./ros_lib/ros/msg.h ****  *    notice, this list of conditions and the following disclaimer.
  13:./ros_lib/ros/msg.h ****  *  * Redistributions in binary form must reproduce the above
  14:./ros_lib/ros/msg.h ****  *    copyright notice, this list of conditions and the following
  15:./ros_lib/ros/msg.h ****  *    disclaimer in the documentation and/or other materials provided
  16:./ros_lib/ros/msg.h ****  *    with the distribution.
  17:./ros_lib/ros/msg.h ****  *  * Neither the name of Willow Garage, Inc. nor the names of its
  18:./ros_lib/ros/msg.h ****  *    contributors may be used to endorse or promote prducts derived
  19:./ros_lib/ros/msg.h ****  *    from this software without specific prior written permission.
  20:./ros_lib/ros/msg.h ****  *
  21:./ros_lib/ros/msg.h ****  * THIS SOFTWARE IS PROVIDED BY THE COPYRIGHT HOLDERS AND CONTRIBUTORS
  22:./ros_lib/ros/msg.h ****  * "AS IS" AND ANY EXPRESS OR IMPLIED WARRANTIES, INCLUDING, BUT NOT
  23:./ros_lib/ros/msg.h ****  * LIMITED TO, THE IMPLIED WARRANTIES OF MERCHANTABILITY AND FITNESS
  24:./ros_lib/ros/msg.h ****  * FOR A PARTICULAR PURPOSE ARE DISCLAIMED. IN NO EVENT SHALL THE
  25:./ros_lib/ros/msg.h ****  * COPYRIGHT OWNER OR CONTRIBUTORS BE LIABLE FOR ANY DIRECT, INDIRECT,
  26:./ros_lib/ros/msg.h ****  * INCIDENTAL, SPECIAL, EXEMPLARY, OR CONSEQUENTIAL DAMAGES (INCLUDING,
  27:./ros_lib/ros/msg.h ****  * BUT NOT LIMITED TO, PROCUREMENT OF SUBSTITUTE GOODS OR SERVICES;
  28:./ros_lib/ros/msg.h ****  * LOSS OF USE, DATA, OR PROFITS; OR BUSINESS INTERRUPTION) HOWEVER
  29:./ros_lib/ros/msg.h ****  * CAUSED AND ON ANY THEORY OF LIABILITY, WHETHER IN CONTRACT, STRICT
  30:./ros_lib/ros/msg.h ****  * LIABILITY, OR TORT (INCLUDING NEGLIGENCE OR OTHERWISE) ARISING IN
  31:./ros_lib/ros/msg.h ****  * ANY WAY OUT OF THE USE OF THIS SOFTWARE, EVEN IF ADVISED OF THE
  32:./ros_lib/ros/msg.h ****  * POSSIBILITY OF SUCH DAMAGE.
  33:./ros_lib/ros/msg.h ****  */
  34:./ros_lib/ros/msg.h **** 
  35:./ros_lib/ros/msg.h **** #ifndef _ROS_MSG_H_
  36:./ros_lib/ros/msg.h **** #define _ROS_MSG_H_
  37:./ros_lib/ros/msg.h **** 
  38:./ros_lib/ros/msg.h **** namespace ros {
  39:./ros_lib/ros/msg.h **** 
  40:./ros_lib/ros/msg.h ****   /* Base Message Type */
  41:./ros_lib/ros/msg.h ****   class Msg
 646              		.loc 5 41 0
 647              		.cfi_startproc
 648 0000 80B5     		push	{r7, lr}
 649              	.LCFI32:
 650              		.cfi_def_cfa_offset 8
ARM GAS  C:\DOCUME~1\Chuck\LOCALS~1\Temp\ccgKfZst.s 			page 17


 651              		.cfi_offset 7, -8
 652              		.cfi_offset 14, -4
 653 0002 82B0     		sub	sp, sp, #8
 654              	.LCFI33:
 655              		.cfi_def_cfa_offset 16
 656 0004 00AF     		add	r7, sp, #0
 657              	.LCFI34:
 658              		.cfi_def_cfa_register 7
 659 0006 7860     		str	r0, [r7, #4]
 660              	.LBB8:
 661              		.loc 5 41 0
 662 0008 7B68     		ldr	r3, [r7, #4]
 663 000a 034A     		ldr	r2, .L39
 664 000c 1A60     		str	r2, [r3]
 665              	.LBE8:
 666 000e 7B68     		ldr	r3, [r7, #4]
 667 0010 181C     		mov	r0, r3
 668 0012 BD46     		mov	sp, r7
 669 0014 02B0     		add	sp, sp, #8
 670              		@ sp needed for prologue
 671 0016 80BD     		pop	{r7, pc}
 672              	.L40:
 673              		.align	2
 674              	.L39:
 675 0018 08000000 		.word	_ZTVN3ros3MsgE+8
 676              		.cfi_endproc
 677              	.LFE144:
 678              		.size	_ZN3ros3MsgC2Ev, .-_ZN3ros3MsgC2Ev
 679              		.weak	_ZN3ros3MsgC1Ev
 680              		.thumb_set _ZN3ros3MsgC1Ev,_ZN3ros3MsgC2Ev
 681              		.section	.text._ZN8std_msgs4BoolC2Ev,"axG",%progbits,_ZN8std_msgs4BoolC5Ev,comdat
 682              		.align	2
 683              		.weak	_ZN8std_msgs4BoolC2Ev
 684              		.code	16
 685              		.thumb_func
 686              		.type	_ZN8std_msgs4BoolC2Ev, %function
 687              	_ZN8std_msgs4BoolC2Ev:
 688              	.LFB146:
  12:./ros_lib/std_msgs/Bool.h ****   class Bool : public ros::Msg
 689              		.loc 4 12 0
 690              		.cfi_startproc
 691 0000 80B5     		push	{r7, lr}
 692              	.LCFI35:
 693              		.cfi_def_cfa_offset 8
 694              		.cfi_offset 7, -8
 695              		.cfi_offset 14, -4
 696 0002 82B0     		sub	sp, sp, #8
 697              	.LCFI36:
 698              		.cfi_def_cfa_offset 16
 699 0004 00AF     		add	r7, sp, #0
 700              	.LCFI37:
 701              		.cfi_def_cfa_register 7
 702 0006 7860     		str	r0, [r7, #4]
 703              	.LBB9:
  12:./ros_lib/std_msgs/Bool.h ****   class Bool : public ros::Msg
 704              		.loc 4 12 0
 705 0008 7B68     		ldr	r3, [r7, #4]
ARM GAS  C:\DOCUME~1\Chuck\LOCALS~1\Temp\ccgKfZst.s 			page 18


 706 000a 181C     		mov	r0, r3
 707 000c FFF7FEFF 		bl	_ZN3ros3MsgC2Ev
 708 0010 7B68     		ldr	r3, [r7, #4]
 709 0012 034A     		ldr	r2, .L44
 710 0014 1A60     		str	r2, [r3]
 711              	.LBE9:
 712 0016 7B68     		ldr	r3, [r7, #4]
 713 0018 181C     		mov	r0, r3
 714 001a BD46     		mov	sp, r7
 715 001c 02B0     		add	sp, sp, #8
 716              		@ sp needed for prologue
 717 001e 80BD     		pop	{r7, pc}
 718              	.L45:
 719              		.align	2
 720              	.L44:
 721 0020 08000000 		.word	_ZTVN8std_msgs4BoolE+8
 722              		.cfi_endproc
 723              	.LFE146:
 724              		.size	_ZN8std_msgs4BoolC2Ev, .-_ZN8std_msgs4BoolC2Ev
 725              		.weak	_ZN8std_msgs4BoolC1Ev
 726              		.thumb_set _ZN8std_msgs4BoolC1Ev,_ZN8std_msgs4BoolC2Ev
 727              		.global	_ZN6Button10pushed_msgE
 728              		.bss
 729              		.align	2
 730              		.type	_ZN6Button10pushed_msgE, %object
 731              		.size	_ZN6Button10pushed_msgE, 8
 732              	_ZN6Button10pushed_msgE:
 733 0000 00000000 		.space	8
 733      00000000 
 734              		.global	_ZN6Button10pub_buttonE
 735              		.align	2
 736              		.type	_ZN6Button10pub_buttonE, %object
 737              		.size	_ZN6Button10pub_buttonE, 20
 738              	_ZN6Button10pub_buttonE:
 739 0008 00000000 		.space	20
 739      00000000 
 739      00000000 
 739      00000000 
 739      00000000 
 740              		.global	_ZN6Button12last_readingE
 741              		.type	_ZN6Button12last_readingE, %object
 742              		.size	_ZN6Button12last_readingE, 1
 743              	_ZN6Button12last_readingE:
 744 001c 00       		.space	1
 745              		.global	_ZN6Button18last_debounce_timeE
 746 001d 000000   		.align	2
 747              		.type	_ZN6Button18last_debounce_timeE, %object
 748              		.size	_ZN6Button18last_debounce_timeE, 4
 749              	_ZN6Button18last_debounce_timeE:
 750 0020 00000000 		.space	4
 751              		.global	_ZN6Button14debounce_delayE
 752              		.data
 753              		.align	2
 754              		.type	_ZN6Button14debounce_delayE, %object
 755              		.size	_ZN6Button14debounce_delayE, 4
 756              	_ZN6Button14debounce_delayE:
 757 0000 32000000 		.word	50
ARM GAS  C:\DOCUME~1\Chuck\LOCALS~1\Temp\ccgKfZst.s 			page 19


 758              		.global	_ZN6Button9publishedE
 759              		.type	_ZN6Button9publishedE, %object
 760              		.size	_ZN6Button9publishedE, 1
 761              	_ZN6Button9publishedE:
 762 0004 01       		.byte	1
 763 0005 000000   		.section	.text._ZN6Button5setupEv,"ax",%progbits
 764              		.align	2
 765              		.global	_ZN6Button5setupEv
 766              		.code	16
 767              		.thumb_func
 768              		.type	_ZN6Button5setupEv, %function
 769              	_ZN6Button5setupEv:
 770              	.LFB148:
 771              		.file 6 ".\\ros_lib\\examples\\button_example\\button_example.cpp"
   1:.\ros_lib\examples\button_example/button_example.cpp **** /* 
   2:.\ros_lib\examples\button_example/button_example.cpp ****  * Button Example for Rosserial on PSoC4
   3:.\ros_lib\examples\button_example/button_example.cpp ****  *  demo board SW1 button is on P0.7
   4:.\ros_lib\examples\button_example/button_example.cpp ****  */
   5:.\ros_lib\examples\button_example/button_example.cpp **** 
   6:.\ros_lib\examples\button_example/button_example.cpp **** #include <ros.h>
   7:.\ros_lib\examples\button_example/button_example.cpp **** #include <std_msgs/Bool.h>
   8:.\ros_lib\examples\button_example/button_example.cpp **** #include "button_example.h"
   9:.\ros_lib\examples\button_example/button_example.cpp **** // this defn from Cypress-generated Port).c:
  10:.\ros_lib\examples\button_example/button_example.cpp **** #define SetP4PinDriveMode(shift, mode)  \
  11:.\ros_lib\examples\button_example/button_example.cpp ****     do { \
  12:.\ros_lib\examples\button_example/button_example.cpp ****         Port0_PC =   (Port0_PC & \
  13:.\ros_lib\examples\button_example/button_example.cpp ****                                 (uint32)(~(uint32)(Port0_DRIVE_MODE_IND_MASK << (Port0_DRIVE_MODE_B
  14:.\ros_lib\examples\button_example/button_example.cpp ****                                 (uint32)((uint32)(mode) << (Port0_DRIVE_MODE_BITS * (shift))); \
  15:.\ros_lib\examples\button_example/button_example.cpp ****     } while (0)
  16:.\ros_lib\examples\button_example/button_example.cpp **** 
  17:.\ros_lib\examples\button_example/button_example.cpp **** 
  18:.\ros_lib\examples\button_example/button_example.cpp **** extern ros::NodeHandle  nh;
  19:.\ros_lib\examples\button_example/button_example.cpp **** 
  20:.\ros_lib\examples\button_example/button_example.cpp **** namespace Button {
  21:.\ros_lib\examples\button_example/button_example.cpp **** 
  22:.\ros_lib\examples\button_example/button_example.cpp **** std_msgs::Bool pushed_msg;
  23:.\ros_lib\examples\button_example/button_example.cpp **** ros::Publisher pub_button("pushed", &pushed_msg);
  24:.\ros_lib\examples\button_example/button_example.cpp **** 
  25:.\ros_lib\examples\button_example/button_example.cpp **** bool last_reading;
  26:.\ros_lib\examples\button_example/button_example.cpp **** long last_debounce_time=0;
  27:.\ros_lib\examples\button_example/button_example.cpp **** long debounce_delay=50;
  28:.\ros_lib\examples\button_example/button_example.cpp **** bool published = true;
  29:.\ros_lib\examples\button_example/button_example.cpp **** 
  30:.\ros_lib\examples\button_example/button_example.cpp **** void setup()
  31:.\ros_lib\examples\button_example/button_example.cpp **** {
 772              		.loc 6 31 0
 773              		.cfi_startproc
 774 0000 80B5     		push	{r7, lr}
 775              	.LCFI38:
 776              		.cfi_def_cfa_offset 8
 777              		.cfi_offset 7, -8
 778              		.cfi_offset 14, -4
 779 0002 00AF     		add	r7, sp, #0
 780              	.LCFI39:
 781              		.cfi_def_cfa_register 7
  32:.\ros_lib\examples\button_example/button_example.cpp ****   nh.advertise(pub_button);
 782              		.loc 6 32 0
ARM GAS  C:\DOCUME~1\Chuck\LOCALS~1\Temp\ccgKfZst.s 			page 20


 783 0004 0D4A     		ldr	r2, .L47
 784 0006 0E4B     		ldr	r3, .L47+4
 785 0008 101C     		mov	r0, r2
 786 000a 191C     		mov	r1, r3
 787 000c FFF7FEFF 		bl	_ZN3ros11NodeHandle_I13Psoc4HardwareLi10ELi20ELi200ELi200EE9advertiseERNS_9PublisherE
  33:.\ros_lib\examples\button_example/button_example.cpp ****   
  34:.\ros_lib\examples\button_example/button_example.cpp ****   //Enable the pullup resistor on the button
  35:.\ros_lib\examples\button_example/button_example.cpp ****   SetP4PinDriveMode(Port0__7__SHIFT, Port0_DM_RES_UP);
 788              		.loc 6 35 0
 789 0010 0C4B     		ldr	r3, .L47+8
 790 0012 0C4A     		ldr	r2, .L47+8
 791 0014 1168     		ldr	r1, [r2]
 792 0016 0C4A     		ldr	r2, .L47+12
 793 0018 0A40     		and	r2, r1
 794 001a 8021     		mov	r1, #128
 795 001c C903     		lsl	r1, r1, #15
 796 001e 0A43     		orr	r2, r1
 797 0020 1A60     		str	r2, [r3]
  36:.\ros_lib\examples\button_example/button_example.cpp ****   
  37:.\ros_lib\examples\button_example/button_example.cpp ****   //The button is a normally open button
  38:.\ros_lib\examples\button_example/button_example.cpp ****   last_reading = !( (Port0_Read()>>Port0__7__SHIFT) & 0x01 );
 798              		.loc 6 38 0
 799 0022 FFF7FEFF 		bl	Port0_Read
 800 0026 031C     		mov	r3, r0
 801 0028 DBB2     		uxtb	r3, r3
 802 002a DB43     		mvn	r3, r3
 803 002c DBB2     		uxtb	r3, r3
 804 002e DB09     		lsr	r3, r3, #7
 805 0030 DAB2     		uxtb	r2, r3
 806 0032 064B     		ldr	r3, .L47+16
 807 0034 1A70     		strb	r2, [r3]
  39:.\ros_lib\examples\button_example/button_example.cpp ****  
  40:.\ros_lib\examples\button_example/button_example.cpp **** }
 808              		.loc 6 40 0
 809 0036 BD46     		mov	sp, r7
 810              		@ sp needed for prologue
 811 0038 80BD     		pop	{r7, pc}
 812              	.L48:
 813 003a C046     		.align	2
 814              	.L47:
 815 003c 00000000 		.word	nh
 816 0040 00000000 		.word	_ZN6Button10pub_buttonE
 817 0044 08000440 		.word	1074003976
 818 0048 FFFF1FFF 		.word	-14680065
 819 004c 00000000 		.word	_ZN6Button12last_readingE
 820              		.cfi_endproc
 821              	.LFE148:
 822              		.size	_ZN6Button5setupEv, .-_ZN6Button5setupEv
 823              		.section	.rodata
 824 0069 000000   		.align	2
 825              	.LC21:
 826 006c 62757474 		.ascii	"button pushed\000"
 826      6F6E2070 
 826      75736865 
 826      6400
 827              		.section	.text._ZN6Button4loopEv,"ax",%progbits
 828              		.align	2
ARM GAS  C:\DOCUME~1\Chuck\LOCALS~1\Temp\ccgKfZst.s 			page 21


 829              		.global	_ZN6Button4loopEv
 830              		.code	16
 831              		.thumb_func
 832              		.type	_ZN6Button4loopEv, %function
 833              	_ZN6Button4loopEv:
 834              	.LFB149:
  41:.\ros_lib\examples\button_example/button_example.cpp **** 
  42:.\ros_lib\examples\button_example/button_example.cpp **** void loop()
  43:.\ros_lib\examples\button_example/button_example.cpp **** {
 835              		.loc 6 43 0
 836              		.cfi_startproc
 837 0000 80B5     		push	{r7, lr}
 838              	.LCFI40:
 839              		.cfi_def_cfa_offset 8
 840              		.cfi_offset 7, -8
 841              		.cfi_offset 14, -4
 842 0002 82B0     		sub	sp, sp, #8
 843              	.LCFI41:
 844              		.cfi_def_cfa_offset 16
 845 0004 00AF     		add	r7, sp, #0
 846              	.LCFI42:
 847              		.cfi_def_cfa_register 7
 848              	.LBB10:
  44:.\ros_lib\examples\button_example/button_example.cpp ****   
  45:.\ros_lib\examples\button_example/button_example.cpp ****   bool reading = !( (Port0_Read()>>Port0__7__SHIFT) & 0x01 );
 849              		.loc 6 45 0
 850 0006 FFF7FEFF 		bl	Port0_Read
 851 000a 031C     		mov	r3, r0
 852 000c DAB2     		uxtb	r2, r3
 853 000e FB1D     		add	r3, r7, #7
 854 0010 D243     		mvn	r2, r2
 855 0012 D2B2     		uxtb	r2, r2
 856 0014 D209     		lsr	r2, r2, #7
 857 0016 1A70     		strb	r2, [r3]
  46:.\ros_lib\examples\button_example/button_example.cpp ****   
  47:.\ros_lib\examples\button_example/button_example.cpp ****   if (last_reading!= reading){
 858              		.loc 6 47 0
 859 0018 214B     		ldr	r3, .L54
 860 001a 1B78     		ldrb	r3, [r3]
 861 001c FA1D     		add	r2, r7, #7
 862 001e 1278     		ldrb	r2, [r2]
 863 0020 9A42     		cmp	r2, r3
 864 0022 08D0     		beq	.L50
  48:.\ros_lib\examples\button_example/button_example.cpp ****       last_debounce_time = SysTimer::millis();
 865              		.loc 6 48 0
 866 0024 FFF7FEFF 		bl	_ZN8SysTimer6millisEv
 867 0028 031C     		mov	r3, r0
 868 002a 1A1C     		mov	r2, r3
 869 002c 1D4B     		ldr	r3, .L54+4
 870 002e 1A60     		str	r2, [r3]
  49:.\ros_lib\examples\button_example/button_example.cpp ****       published = false;
 871              		.loc 6 49 0
 872 0030 1D4B     		ldr	r3, .L54+8
 873 0032 0022     		mov	r2, #0
 874 0034 1A70     		strb	r2, [r3]
 875              	.L50:
  50:.\ros_lib\examples\button_example/button_example.cpp ****   }
ARM GAS  C:\DOCUME~1\Chuck\LOCALS~1\Temp\ccgKfZst.s 			page 22


  51:.\ros_lib\examples\button_example/button_example.cpp ****   
  52:.\ros_lib\examples\button_example/button_example.cpp ****   //if the button value has not changed for the debounce delay, we know its stable
  53:.\ros_lib\examples\button_example/button_example.cpp ****   if ( !published && ((int32_t)SysTimer::millis() - last_debounce_time)  > debounce_delay) {
 876              		.loc 6 53 0
 877 0036 1C4B     		ldr	r3, .L54+8
 878 0038 1B78     		ldrb	r3, [r3]
 879 003a 0122     		mov	r2, #1
 880 003c 5340     		eor	r3, r2
 881 003e DBB2     		uxtb	r3, r3
 882 0040 002B     		cmp	r3, #0
 883 0042 0CD0     		beq	.L51
 884              		.loc 6 53 0 is_stmt 0 discriminator 1
 885 0044 FFF7FEFF 		bl	_ZN8SysTimer6millisEv
 886 0048 031C     		mov	r3, r0
 887 004a 1A1C     		mov	r2, r3
 888 004c 154B     		ldr	r3, .L54+4
 889 004e 1B68     		ldr	r3, [r3]
 890 0050 D21A     		sub	r2, r2, r3
 891 0052 164B     		ldr	r3, .L54+12
 892 0054 1B68     		ldr	r3, [r3]
 893 0056 9A42     		cmp	r2, r3
 894 0058 01DD     		ble	.L51
 895              		.loc 6 53 0 discriminator 3
 896 005a 0123     		mov	r3, #1
 897 005c 00E0     		b	.L52
 898              	.L51:
 899              		.loc 6 53 0 discriminator 2
 900 005e 0023     		mov	r3, #0
 901              	.L52:
 902              		.loc 6 53 0 discriminator 4
 903 0060 002B     		cmp	r3, #0
 904 0062 16D0     		beq	.L53
  54:.\ros_lib\examples\button_example/button_example.cpp ****     pushed_msg.data = reading;
 905              		.loc 6 54 0 is_stmt 1
 906 0064 124B     		ldr	r3, .L54+16
 907 0066 FA1D     		add	r2, r7, #7
 908 0068 1278     		ldrb	r2, [r2]
 909 006a 1A71     		strb	r2, [r3, #4]
  55:.\ros_lib\examples\button_example/button_example.cpp ****     pub_button.publish(&pushed_msg);
 910              		.loc 6 55 0
 911 006c 114A     		ldr	r2, .L54+20
 912 006e 104B     		ldr	r3, .L54+16
 913 0070 101C     		mov	r0, r2
 914 0072 191C     		mov	r1, r3
 915 0074 FFF7FEFF 		bl	_ZN3ros9Publisher7publishEPKNS_3MsgE
  56:.\ros_lib\examples\button_example/button_example.cpp ****     published = true;
 916              		.loc 6 56 0
 917 0078 0B4B     		ldr	r3, .L54+8
 918 007a 0122     		mov	r2, #1
 919 007c 1A70     		strb	r2, [r3]
  57:.\ros_lib\examples\button_example/button_example.cpp ****     if (reading) {
 920              		.loc 6 57 0
 921 007e FB1D     		add	r3, r7, #7
 922 0080 1B78     		ldrb	r3, [r3]
 923 0082 002B     		cmp	r3, #0
 924 0084 05D0     		beq	.L53
  58:.\ros_lib\examples\button_example/button_example.cpp ****       nh.loginfo("button pushed");
ARM GAS  C:\DOCUME~1\Chuck\LOCALS~1\Temp\ccgKfZst.s 			page 23


 925              		.loc 6 58 0
 926 0086 0C4A     		ldr	r2, .L54+24
 927 0088 0C4B     		ldr	r3, .L54+28
 928 008a 101C     		mov	r0, r2
 929 008c 191C     		mov	r1, r3
 930 008e FFF7FEFF 		bl	_ZN3ros11NodeHandle_I13Psoc4HardwareLi10ELi20ELi200ELi200EE7loginfoEPKc
 931              	.L53:
  59:.\ros_lib\examples\button_example/button_example.cpp ****     }
  60:.\ros_lib\examples\button_example/button_example.cpp ****   }
  61:.\ros_lib\examples\button_example/button_example.cpp **** 
  62:.\ros_lib\examples\button_example/button_example.cpp ****   last_reading = reading;
 932              		.loc 6 62 0
 933 0092 034B     		ldr	r3, .L54
 934 0094 FA1D     		add	r2, r7, #7
 935 0096 1278     		ldrb	r2, [r2]
 936 0098 1A70     		strb	r2, [r3]
 937              	.LBE10:
  63:.\ros_lib\examples\button_example/button_example.cpp **** }
 938              		.loc 6 63 0
 939 009a BD46     		mov	sp, r7
 940 009c 02B0     		add	sp, sp, #8
 941              		@ sp needed for prologue
 942 009e 80BD     		pop	{r7, pc}
 943              	.L55:
 944              		.align	2
 945              	.L54:
 946 00a0 00000000 		.word	_ZN6Button12last_readingE
 947 00a4 00000000 		.word	_ZN6Button18last_debounce_timeE
 948 00a8 00000000 		.word	_ZN6Button9publishedE
 949 00ac 00000000 		.word	_ZN6Button14debounce_delayE
 950 00b0 00000000 		.word	_ZN6Button10pushed_msgE
 951 00b4 00000000 		.word	_ZN6Button10pub_buttonE
 952 00b8 00000000 		.word	nh
 953 00bc 6C000000 		.word	.LC21
 954              		.cfi_endproc
 955              	.LFE149:
 956              		.size	_ZN6Button4loopEv, .-_ZN6Button4loopEv
 957              		.section	.text._ZN3ros11NodeHandle_I13Psoc4HardwareLi10ELi20ELi200ELi200EE9advertiseERNS_9Publishe
 958              		.align	2
 959              		.weak	_ZN3ros11NodeHandle_I13Psoc4HardwareLi10ELi20ELi200ELi200EE9advertiseERNS_9PublisherE
 960              		.code	16
 961              		.thumb_func
 962              		.type	_ZN3ros11NodeHandle_I13Psoc4HardwareLi10ELi20ELi200ELi200EE9advertiseERNS_9PublisherE, %func
 963              	_ZN3ros11NodeHandle_I13Psoc4HardwareLi10ELi20ELi200ELi200EE9advertiseERNS_9PublisherE:
 964              	.LFB150:
 965              		.file 7 "./ros_lib/ros/node_handle.h"
   1:./ros_lib/ros/node_handle.h **** /*
   2:./ros_lib/ros/node_handle.h ****  * Software License Agreement (BSD License)
   3:./ros_lib/ros/node_handle.h ****  *
   4:./ros_lib/ros/node_handle.h ****  * Copyright (c) 2011, Willow Garage, Inc.
   5:./ros_lib/ros/node_handle.h ****  * All rights reserved.
   6:./ros_lib/ros/node_handle.h ****  *
   7:./ros_lib/ros/node_handle.h ****  * Redistribution and use in source and binary forms, with or without
   8:./ros_lib/ros/node_handle.h ****  * modification, are permitted provided that the following conditions
   9:./ros_lib/ros/node_handle.h ****  * are met:
  10:./ros_lib/ros/node_handle.h ****  *
  11:./ros_lib/ros/node_handle.h ****  *  * Redistributions of source code must retain the above copyright
ARM GAS  C:\DOCUME~1\Chuck\LOCALS~1\Temp\ccgKfZst.s 			page 24


  12:./ros_lib/ros/node_handle.h ****  *    notice, this list of conditions and the following disclaimer.
  13:./ros_lib/ros/node_handle.h ****  *  * Redistributions in binary form must reproduce the above
  14:./ros_lib/ros/node_handle.h ****  *    copyright notice, this list of conditions and the following
  15:./ros_lib/ros/node_handle.h ****  *    disclaimer in the documentation and/or other materials provided
  16:./ros_lib/ros/node_handle.h ****  *    with the distribution.
  17:./ros_lib/ros/node_handle.h ****  *  * Neither the name of Willow Garage, Inc. nor the names of its
  18:./ros_lib/ros/node_handle.h ****  *    contributors may be used to endorse or promote prducts derived
  19:./ros_lib/ros/node_handle.h ****  *    from this software without specific prior written permission.
  20:./ros_lib/ros/node_handle.h ****  *
  21:./ros_lib/ros/node_handle.h ****  * THIS SOFTWARE IS PROVIDED BY THE COPYRIGHT HOLDERS AND CONTRIBUTORS
  22:./ros_lib/ros/node_handle.h ****  * "AS IS" AND ANY EXPRESS OR IMPLIED WARRANTIES, INCLUDING, BUT NOT
  23:./ros_lib/ros/node_handle.h ****  * LIMITED TO, THE IMPLIED WARRANTIES OF MERCHANTABILITY AND FITNESS
  24:./ros_lib/ros/node_handle.h ****  * FOR A PARTICULAR PURPOSE ARE DISCLAIMED. IN NO EVENT SHALL THE
  25:./ros_lib/ros/node_handle.h ****  * COPYRIGHT OWNER OR CONTRIBUTORS BE LIABLE FOR ANY DIRECT, INDIRECT,
  26:./ros_lib/ros/node_handle.h ****  * INCIDENTAL, SPECIAL, EXEMPLARY, OR CONSEQUENTIAL DAMAGES (INCLUDING,
  27:./ros_lib/ros/node_handle.h ****  * BUT NOT LIMITED TO, PROCUREMENT OF SUBSTITUTE GOODS OR SERVICES;
  28:./ros_lib/ros/node_handle.h ****  * LOSS OF USE, DATA, OR PROFITS; OR BUSINESS INTERRUPTION) HOWEVER
  29:./ros_lib/ros/node_handle.h ****  * CAUSED AND ON ANY THEORY OF LIABILITY, WHETHER IN CONTRACT, STRICT
  30:./ros_lib/ros/node_handle.h ****  * LIABILITY, OR TORT (INCLUDING NEGLIGENCE OR OTHERWISE) ARISING IN
  31:./ros_lib/ros/node_handle.h ****  * ANY WAY OUT OF THE USE OF THIS SOFTWARE, EVEN IF ADVISED OF THE
  32:./ros_lib/ros/node_handle.h ****  * POSSIBILITY OF SUCH DAMAGE.
  33:./ros_lib/ros/node_handle.h ****  */
  34:./ros_lib/ros/node_handle.h **** 
  35:./ros_lib/ros/node_handle.h **** #ifndef ROS_NODE_HANDLE_H_
  36:./ros_lib/ros/node_handle.h **** #define ROS_NODE_HANDLE_H_
  37:./ros_lib/ros/node_handle.h **** 
  38:./ros_lib/ros/node_handle.h **** #ifndef PARAM_REQ_SUPPORT
  39:./ros_lib/ros/node_handle.h **** #define PARAM_REQ_SUPPORT 1
  40:./ros_lib/ros/node_handle.h **** #endif
  41:./ros_lib/ros/node_handle.h **** 
  42:./ros_lib/ros/node_handle.h **** #include "std_msgs/Time.h"
  43:./ros_lib/ros/node_handle.h **** #include "rosserial_msgs/TopicInfo.h"
  44:./ros_lib/ros/node_handle.h **** #include "rosserial_msgs/Log.h"
  45:./ros_lib/ros/node_handle.h **** #if PARAM_REQ_SUPPORT
  46:./ros_lib/ros/node_handle.h **** #include "rosserial_msgs/RequestParam.h"
  47:./ros_lib/ros/node_handle.h **** #endif
  48:./ros_lib/ros/node_handle.h **** 
  49:./ros_lib/ros/node_handle.h **** #define SYNC_SECONDS        2
  50:./ros_lib/ros/node_handle.h **** 
  51:./ros_lib/ros/node_handle.h **** #define MODE_FIRST_FF       0
  52:./ros_lib/ros/node_handle.h **** /*
  53:./ros_lib/ros/node_handle.h ****  * The second sync byte is a protocol version. It's value is 0xff for the first
  54:./ros_lib/ros/node_handle.h ****  * version of the rosserial protocol (used up to hydro), 0xfe for the second version
  55:./ros_lib/ros/node_handle.h ****  * (introduced in hydro), 0xfd for the next, and so on. Its purpose is to enable
  56:./ros_lib/ros/node_handle.h ****  * detection of mismatched protocol versions (e.g. hydro rosserial_python with groovy
  57:./ros_lib/ros/node_handle.h ****  * rosserial_arduino. It must be changed in both this file and in
  58:./ros_lib/ros/node_handle.h ****  * rosserial_python/src/rosserial_python/SerialClient.py
  59:./ros_lib/ros/node_handle.h ****  */
  60:./ros_lib/ros/node_handle.h **** #define MODE_PROTOCOL_VER   1
  61:./ros_lib/ros/node_handle.h **** #define PROTOCOL_VER1		0xff // through groovy
  62:./ros_lib/ros/node_handle.h **** #define PROTOCOL_VER2		0xfe // in hydro
  63:./ros_lib/ros/node_handle.h **** #define PROTOCOL_VER 		PROTOCOL_VER2
  64:./ros_lib/ros/node_handle.h **** #define MODE_SIZE_L         2   
  65:./ros_lib/ros/node_handle.h **** #define MODE_SIZE_H         3
  66:./ros_lib/ros/node_handle.h **** #define MODE_SIZE_CHECKSUM  4   // checksum for msg size received from size L and H
  67:./ros_lib/ros/node_handle.h **** #define MODE_TOPIC_L        5   // waiting for topic id
  68:./ros_lib/ros/node_handle.h **** #define MODE_TOPIC_H        6
ARM GAS  C:\DOCUME~1\Chuck\LOCALS~1\Temp\ccgKfZst.s 			page 25


  69:./ros_lib/ros/node_handle.h **** #define MODE_MESSAGE        7
  70:./ros_lib/ros/node_handle.h **** #define MODE_MSG_CHECKSUM   8   // checksum for msg and topic id 
  71:./ros_lib/ros/node_handle.h **** 
  72:./ros_lib/ros/node_handle.h **** 
  73:./ros_lib/ros/node_handle.h **** 
  74:./ros_lib/ros/node_handle.h **** #define MSG_TIMEOUT 200  // was 20 milliseconds to recieve all of message data
  75:./ros_lib/ros/node_handle.h **** 
  76:./ros_lib/ros/node_handle.h **** #include "msg.h"
  77:./ros_lib/ros/node_handle.h **** 
  78:./ros_lib/ros/node_handle.h **** namespace ros {
  79:./ros_lib/ros/node_handle.h **** 
  80:./ros_lib/ros/node_handle.h ****   class NodeHandleBase_{
  81:./ros_lib/ros/node_handle.h ****     public:
  82:./ros_lib/ros/node_handle.h ****       virtual int publish(int id, const Msg* msg)=0;
  83:./ros_lib/ros/node_handle.h ****       virtual int spinOnce()=0;
  84:./ros_lib/ros/node_handle.h ****       virtual bool connected()=0;
  85:./ros_lib/ros/node_handle.h ****     };
  86:./ros_lib/ros/node_handle.h **** }
  87:./ros_lib/ros/node_handle.h **** 
  88:./ros_lib/ros/node_handle.h **** #include "publisher.h"
  89:./ros_lib/ros/node_handle.h **** #include "subscriber.h"
  90:./ros_lib/ros/node_handle.h **** #include "service_server.h"
  91:./ros_lib/ros/node_handle.h **** #include "service_client.h"
  92:./ros_lib/ros/node_handle.h **** 
  93:./ros_lib/ros/node_handle.h **** namespace ros {
  94:./ros_lib/ros/node_handle.h **** 
  95:./ros_lib/ros/node_handle.h ****   /* Node Handle */
  96:./ros_lib/ros/node_handle.h ****   template<class Hardware,
  97:./ros_lib/ros/node_handle.h ****            int MAX_SUBSCRIBERS=25,
  98:./ros_lib/ros/node_handle.h ****            int MAX_PUBLISHERS=25,
  99:./ros_lib/ros/node_handle.h ****            int INPUT_SIZE=512,
 100:./ros_lib/ros/node_handle.h ****            int OUTPUT_SIZE=512>
 101:./ros_lib/ros/node_handle.h ****   class NodeHandle_ : public NodeHandleBase_
 102:./ros_lib/ros/node_handle.h ****   {
 103:./ros_lib/ros/node_handle.h ****     protected:
 104:./ros_lib/ros/node_handle.h ****       Hardware hardware_;
 105:./ros_lib/ros/node_handle.h **** 
 106:./ros_lib/ros/node_handle.h ****       /* time used for syncing */
 107:./ros_lib/ros/node_handle.h ****       unsigned long rt_time;
 108:./ros_lib/ros/node_handle.h **** 
 109:./ros_lib/ros/node_handle.h ****       /* used for computing current time */
 110:./ros_lib/ros/node_handle.h ****       unsigned long sec_offset, nsec_offset;
 111:./ros_lib/ros/node_handle.h **** 
 112:./ros_lib/ros/node_handle.h ****       unsigned char message_in[INPUT_SIZE];
 113:./ros_lib/ros/node_handle.h ****       unsigned char message_out[OUTPUT_SIZE];
 114:./ros_lib/ros/node_handle.h **** 
 115:./ros_lib/ros/node_handle.h ****       Publisher * publishers[MAX_PUBLISHERS];
 116:./ros_lib/ros/node_handle.h ****       Subscriber_ * subscribers[MAX_SUBSCRIBERS];
 117:./ros_lib/ros/node_handle.h **** 
 118:./ros_lib/ros/node_handle.h ****       /*
 119:./ros_lib/ros/node_handle.h ****        * Setup Functions
 120:./ros_lib/ros/node_handle.h ****        */
 121:./ros_lib/ros/node_handle.h ****     public:
 122:./ros_lib/ros/node_handle.h ****       NodeHandle_() : configured_(false) {}
 123:./ros_lib/ros/node_handle.h ****       
 124:./ros_lib/ros/node_handle.h ****       Hardware* getHardware(){
 125:./ros_lib/ros/node_handle.h ****         return &hardware_;
ARM GAS  C:\DOCUME~1\Chuck\LOCALS~1\Temp\ccgKfZst.s 			page 26


 126:./ros_lib/ros/node_handle.h ****       }
 127:./ros_lib/ros/node_handle.h **** 
 128:./ros_lib/ros/node_handle.h ****       /* Start serial, initialize buffers */
 129:./ros_lib/ros/node_handle.h ****       void initNode(){
 130:./ros_lib/ros/node_handle.h ****         hardware_.init();
 131:./ros_lib/ros/node_handle.h ****         mode_ = 0;
 132:./ros_lib/ros/node_handle.h ****         bytes_ = 0;
 133:./ros_lib/ros/node_handle.h ****         index_ = 0;
 134:./ros_lib/ros/node_handle.h ****         topic_ = 0;
 135:./ros_lib/ros/node_handle.h ****       };
 136:./ros_lib/ros/node_handle.h **** 
 137:./ros_lib/ros/node_handle.h ****       /* Start a named port, which may be network server IP, initialize buffers */
 138:./ros_lib/ros/node_handle.h ****       void initNode(char *portName){
 139:./ros_lib/ros/node_handle.h ****         hardware_.init(portName);
 140:./ros_lib/ros/node_handle.h ****         mode_ = 0;
 141:./ros_lib/ros/node_handle.h ****         bytes_ = 0;
 142:./ros_lib/ros/node_handle.h ****         index_ = 0;
 143:./ros_lib/ros/node_handle.h ****         topic_ = 0;
 144:./ros_lib/ros/node_handle.h ****       };
 145:./ros_lib/ros/node_handle.h **** 
 146:./ros_lib/ros/node_handle.h ****     protected:
 147:./ros_lib/ros/node_handle.h ****       //State machine variables for spinOnce
 148:./ros_lib/ros/node_handle.h ****       int mode_;
 149:./ros_lib/ros/node_handle.h ****       int bytes_;
 150:./ros_lib/ros/node_handle.h ****       int topic_;
 151:./ros_lib/ros/node_handle.h ****       int index_;
 152:./ros_lib/ros/node_handle.h ****       int checksum_;
 153:./ros_lib/ros/node_handle.h **** 
 154:./ros_lib/ros/node_handle.h ****       bool configured_;
 155:./ros_lib/ros/node_handle.h **** 
 156:./ros_lib/ros/node_handle.h ****       /* used for syncing the time */
 157:./ros_lib/ros/node_handle.h ****       unsigned long last_sync_time;
 158:./ros_lib/ros/node_handle.h ****       unsigned long last_sync_receive_time;
 159:./ros_lib/ros/node_handle.h ****       unsigned long last_msg_timeout_time;
 160:./ros_lib/ros/node_handle.h **** 
 161:./ros_lib/ros/node_handle.h ****     public:
 162:./ros_lib/ros/node_handle.h ****       /* This function goes in your loop() function, it handles
 163:./ros_lib/ros/node_handle.h ****        *  serial input and callbacks for subscribers.
 164:./ros_lib/ros/node_handle.h ****        */
 165:./ros_lib/ros/node_handle.h **** 
 166:./ros_lib/ros/node_handle.h **** 
 167:./ros_lib/ros/node_handle.h ****       virtual int spinOnce(){
 168:./ros_lib/ros/node_handle.h **** 
 169:./ros_lib/ros/node_handle.h ****         /* restart if timed out */
 170:./ros_lib/ros/node_handle.h ****         unsigned long c_time = hardware_.time();
 171:./ros_lib/ros/node_handle.h ****         if( (c_time - last_sync_receive_time) > (SYNC_SECONDS*1100) ){
 172:./ros_lib/ros/node_handle.h ****             configured_ = false;
 173:./ros_lib/ros/node_handle.h ****          }
 174:./ros_lib/ros/node_handle.h ****          
 175:./ros_lib/ros/node_handle.h ****         /* reset if message has timed out */
 176:./ros_lib/ros/node_handle.h ****         if ( mode_ != MODE_FIRST_FF){ 
 177:./ros_lib/ros/node_handle.h ****           if (c_time > last_msg_timeout_time){
 178:./ros_lib/ros/node_handle.h ****             mode_ = MODE_FIRST_FF;
 179:./ros_lib/ros/node_handle.h ****           }
 180:./ros_lib/ros/node_handle.h ****         }
 181:./ros_lib/ros/node_handle.h **** 
 182:./ros_lib/ros/node_handle.h ****         /* while available buffer, read data */
ARM GAS  C:\DOCUME~1\Chuck\LOCALS~1\Temp\ccgKfZst.s 			page 27


 183:./ros_lib/ros/node_handle.h ****         while( true )
 184:./ros_lib/ros/node_handle.h ****         {
 185:./ros_lib/ros/node_handle.h ****           int data = hardware_.read();
 186:./ros_lib/ros/node_handle.h ****           if( data < 0 )
 187:./ros_lib/ros/node_handle.h ****             break;
 188:./ros_lib/ros/node_handle.h ****           checksum_ += data;
 189:./ros_lib/ros/node_handle.h ****           if( mode_ == MODE_MESSAGE ){        /* message data being recieved */
 190:./ros_lib/ros/node_handle.h ****             message_in[index_++] = data;
 191:./ros_lib/ros/node_handle.h ****             bytes_--;
 192:./ros_lib/ros/node_handle.h ****             if(bytes_ == 0)                  /* is message complete? if so, checksum */
 193:./ros_lib/ros/node_handle.h ****               mode_ = MODE_MSG_CHECKSUM;
 194:./ros_lib/ros/node_handle.h ****           }else if( mode_ == MODE_FIRST_FF ){
 195:./ros_lib/ros/node_handle.h ****             if(data == 0xff){
 196:./ros_lib/ros/node_handle.h ****               mode_++;
 197:./ros_lib/ros/node_handle.h ****               last_msg_timeout_time = c_time + MSG_TIMEOUT;
 198:./ros_lib/ros/node_handle.h ****             }
 199:./ros_lib/ros/node_handle.h ****           }else if( mode_ == MODE_PROTOCOL_VER ){
 200:./ros_lib/ros/node_handle.h ****             if(data == PROTOCOL_VER){
 201:./ros_lib/ros/node_handle.h ****               mode_++;
 202:./ros_lib/ros/node_handle.h ****             }else{
 203:./ros_lib/ros/node_handle.h ****               mode_ = MODE_FIRST_FF;
 204:./ros_lib/ros/node_handle.h ****               if (configured_ == false) {
 205:./ros_lib/ros/node_handle.h ****                   requestSyncTime(); 	/* send a msg back showing our protocol version */
 206:./ros_lib/ros/node_handle.h ****               }
 207:./ros_lib/ros/node_handle.h ****             }
 208:./ros_lib/ros/node_handle.h **** 	  }else if( mode_ == MODE_SIZE_L ){   /* bottom half of message size */
 209:./ros_lib/ros/node_handle.h ****             bytes_ = data;
 210:./ros_lib/ros/node_handle.h ****             index_ = 0;
 211:./ros_lib/ros/node_handle.h ****             mode_++;
 212:./ros_lib/ros/node_handle.h ****             checksum_ = data;               /* first byte for calculating size checksum */
 213:./ros_lib/ros/node_handle.h ****           }else if( mode_ == MODE_SIZE_H ){   /* top half of message size */
 214:./ros_lib/ros/node_handle.h ****             bytes_ += data<<8;
 215:./ros_lib/ros/node_handle.h **** 	    mode_++;
 216:./ros_lib/ros/node_handle.h ****           }else if( mode_ == MODE_SIZE_CHECKSUM ){  
 217:./ros_lib/ros/node_handle.h ****             if( (checksum_%256) == 255)
 218:./ros_lib/ros/node_handle.h **** 	      mode_++;
 219:./ros_lib/ros/node_handle.h **** 	    else {
 220:./ros_lib/ros/node_handle.h **** 	      mode_ = MODE_FIRST_FF;          /* Abandon the frame if the msg len is wrong */
 221:./ros_lib/ros/node_handle.h ****             }
 222:./ros_lib/ros/node_handle.h **** 	  }else if( mode_ == MODE_TOPIC_L ){  /* bottom half of topic id */
 223:./ros_lib/ros/node_handle.h ****             topic_ = data;
 224:./ros_lib/ros/node_handle.h ****             mode_++;
 225:./ros_lib/ros/node_handle.h ****             checksum_ = data;               /* first byte included in checksum */
 226:./ros_lib/ros/node_handle.h ****           }else if( mode_ == MODE_TOPIC_H ){  /* top half of topic id */
 227:./ros_lib/ros/node_handle.h ****             topic_ += data<<8;
 228:./ros_lib/ros/node_handle.h ****             mode_ = MODE_MESSAGE;
 229:./ros_lib/ros/node_handle.h ****             if(bytes_ == 0)
 230:./ros_lib/ros/node_handle.h ****               mode_ = MODE_MSG_CHECKSUM;  
 231:./ros_lib/ros/node_handle.h ****           }else if( mode_ == MODE_MSG_CHECKSUM ){ /* do checksum */
 232:./ros_lib/ros/node_handle.h ****             mode_ = MODE_FIRST_FF;
 233:./ros_lib/ros/node_handle.h ****             if( (checksum_%256) == 255){
 234:./ros_lib/ros/node_handle.h ****               if(topic_ == rosserial_msgs::TopicInfo::ID_PUBLISHER){
 235:./ros_lib/ros/node_handle.h ****                 requestSyncTime();
 236:./ros_lib/ros/node_handle.h ****                 negotiateTopics();
 237:./ros_lib/ros/node_handle.h ****                 last_sync_time = c_time;
 238:./ros_lib/ros/node_handle.h ****                 last_sync_receive_time = c_time;
 239:./ros_lib/ros/node_handle.h ****                 return -1;
ARM GAS  C:\DOCUME~1\Chuck\LOCALS~1\Temp\ccgKfZst.s 			page 28


 240:./ros_lib/ros/node_handle.h ****               }else if(topic_ == rosserial_msgs::TopicInfo::ID_TIME){
 241:./ros_lib/ros/node_handle.h ****                 syncTime(message_in);
 242:./ros_lib/ros/node_handle.h ****               #if PARAM_REQ_SUPPORT
 243:./ros_lib/ros/node_handle.h ****               }else if (topic_ == rosserial_msgs::TopicInfo::ID_PARAMETER_REQUEST){
 244:./ros_lib/ros/node_handle.h ****                   req_param_resp.deserialize(message_in);
 245:./ros_lib/ros/node_handle.h ****                   param_recieved= true;
 246:./ros_lib/ros/node_handle.h ****               #endif
 247:./ros_lib/ros/node_handle.h ****               }else{
 248:./ros_lib/ros/node_handle.h ****                 if(subscribers[topic_-100])
 249:./ros_lib/ros/node_handle.h ****                   subscribers[topic_-100]->callback( message_in );
 250:./ros_lib/ros/node_handle.h ****               }
 251:./ros_lib/ros/node_handle.h ****             }
 252:./ros_lib/ros/node_handle.h ****           }
 253:./ros_lib/ros/node_handle.h ****         }
 254:./ros_lib/ros/node_handle.h **** 
 255:./ros_lib/ros/node_handle.h ****         /* occasionally sync time */
 256:./ros_lib/ros/node_handle.h ****         if( configured_ && ((c_time-last_sync_time) > (SYNC_SECONDS*500) )){
 257:./ros_lib/ros/node_handle.h ****           requestSyncTime();
 258:./ros_lib/ros/node_handle.h ****           last_sync_time = c_time;
 259:./ros_lib/ros/node_handle.h ****         }
 260:./ros_lib/ros/node_handle.h **** 
 261:./ros_lib/ros/node_handle.h ****         return 0;
 262:./ros_lib/ros/node_handle.h ****       }
 263:./ros_lib/ros/node_handle.h **** 
 264:./ros_lib/ros/node_handle.h **** 
 265:./ros_lib/ros/node_handle.h ****       /* Are we connected to the PC? */
 266:./ros_lib/ros/node_handle.h ****       virtual bool connected() {
 267:./ros_lib/ros/node_handle.h ****         return configured_;
 268:./ros_lib/ros/node_handle.h ****       };
 269:./ros_lib/ros/node_handle.h **** 
 270:./ros_lib/ros/node_handle.h ****       /********************************************************************
 271:./ros_lib/ros/node_handle.h ****        * Time functions
 272:./ros_lib/ros/node_handle.h ****        */
 273:./ros_lib/ros/node_handle.h **** 
 274:./ros_lib/ros/node_handle.h ****       void requestSyncTime()
 275:./ros_lib/ros/node_handle.h ****       {
 276:./ros_lib/ros/node_handle.h ****         std_msgs::Time t;
 277:./ros_lib/ros/node_handle.h ****         publish(rosserial_msgs::TopicInfo::ID_TIME, &t);
 278:./ros_lib/ros/node_handle.h ****         rt_time = hardware_.time();
 279:./ros_lib/ros/node_handle.h ****       }
 280:./ros_lib/ros/node_handle.h **** 
 281:./ros_lib/ros/node_handle.h ****       void syncTime( unsigned char * data )
 282:./ros_lib/ros/node_handle.h ****       {
 283:./ros_lib/ros/node_handle.h ****         std_msgs::Time t;
 284:./ros_lib/ros/node_handle.h ****         unsigned long offset = hardware_.time() - rt_time;
 285:./ros_lib/ros/node_handle.h **** 
 286:./ros_lib/ros/node_handle.h ****         t.deserialize(data);
 287:./ros_lib/ros/node_handle.h ****         t.data.sec += offset/1000;
 288:./ros_lib/ros/node_handle.h ****         t.data.nsec += (offset%1000)*1000000UL;
 289:./ros_lib/ros/node_handle.h **** 
 290:./ros_lib/ros/node_handle.h ****         this->setNow(t.data);
 291:./ros_lib/ros/node_handle.h ****         last_sync_receive_time = hardware_.time();
 292:./ros_lib/ros/node_handle.h ****       }
 293:./ros_lib/ros/node_handle.h **** 
 294:./ros_lib/ros/node_handle.h ****       Time now(){
 295:./ros_lib/ros/node_handle.h ****         unsigned long ms = hardware_.time();
 296:./ros_lib/ros/node_handle.h ****         Time current_time;
ARM GAS  C:\DOCUME~1\Chuck\LOCALS~1\Temp\ccgKfZst.s 			page 29


 297:./ros_lib/ros/node_handle.h ****         current_time.sec = ms/1000 + sec_offset;
 298:./ros_lib/ros/node_handle.h ****         current_time.nsec = (ms%1000)*1000000UL + nsec_offset;
 299:./ros_lib/ros/node_handle.h ****         normalizeSecNSec(current_time.sec, current_time.nsec);
 300:./ros_lib/ros/node_handle.h ****         return current_time;
 301:./ros_lib/ros/node_handle.h ****       }
 302:./ros_lib/ros/node_handle.h **** 
 303:./ros_lib/ros/node_handle.h ****       void setNow( Time & new_now )
 304:./ros_lib/ros/node_handle.h ****       {
 305:./ros_lib/ros/node_handle.h ****         unsigned long ms = hardware_.time();
 306:./ros_lib/ros/node_handle.h ****         sec_offset = new_now.sec - ms/1000 - 1;
 307:./ros_lib/ros/node_handle.h ****         nsec_offset = new_now.nsec - (ms%1000)*1000000UL + 1000000000UL;
 308:./ros_lib/ros/node_handle.h ****         normalizeSecNSec(sec_offset, nsec_offset);
 309:./ros_lib/ros/node_handle.h ****       }
 310:./ros_lib/ros/node_handle.h **** 
 311:./ros_lib/ros/node_handle.h ****       /********************************************************************
 312:./ros_lib/ros/node_handle.h ****        * Topic Management 
 313:./ros_lib/ros/node_handle.h ****        */
 314:./ros_lib/ros/node_handle.h **** 
 315:./ros_lib/ros/node_handle.h ****       /* Register a new publisher */    
 316:./ros_lib/ros/node_handle.h ****       bool advertise(Publisher & p)
 966              		.loc 7 316 0
 967              		.cfi_startproc
 968 0000 90B5     		push	{r4, r7, lr}
 969              	.LCFI43:
 970              		.cfi_def_cfa_offset 12
 971              		.cfi_offset 4, -12
 972              		.cfi_offset 7, -8
 973              		.cfi_offset 14, -4
 974 0002 85B0     		sub	sp, sp, #20
 975              	.LCFI44:
 976              		.cfi_def_cfa_offset 32
 977 0004 00AF     		add	r7, sp, #0
 978              	.LCFI45:
 979              		.cfi_def_cfa_register 7
 980 0006 7860     		str	r0, [r7, #4]
 981 0008 3960     		str	r1, [r7]
 982              	.LBB11:
 983              	.LBB12:
 317:./ros_lib/ros/node_handle.h ****       {
 318:./ros_lib/ros/node_handle.h ****         for(int i = 0; i < MAX_PUBLISHERS; i++){
 984              		.loc 7 318 0
 985 000a 0023     		mov	r3, #0
 986 000c FB60     		str	r3, [r7, #12]
 987 000e 19E0     		b	.L57
 988              	.L60:
 319:./ros_lib/ros/node_handle.h ****           if(publishers[i] == 0){ // empty slot
 989              		.loc 7 319 0
 990 0010 7B68     		ldr	r3, [r7, #4]
 991 0012 FA68     		ldr	r2, [r7, #12]
 992 0014 6A32     		add	r2, r2, #106
 993 0016 9200     		lsl	r2, r2, #2
 994 0018 D358     		ldr	r3, [r2, r3]
 995 001a 002B     		cmp	r3, #0
 996 001c 0FD1     		bne	.L58
 320:./ros_lib/ros/node_handle.h ****             publishers[i] = &p;
 997              		.loc 7 320 0
 998 001e 7B68     		ldr	r3, [r7, #4]
ARM GAS  C:\DOCUME~1\Chuck\LOCALS~1\Temp\ccgKfZst.s 			page 30


 999 0020 FA68     		ldr	r2, [r7, #12]
 1000 0022 6A32     		add	r2, r2, #106
 1001 0024 9200     		lsl	r2, r2, #2
 1002 0026 3968     		ldr	r1, [r7]
 1003 0028 D150     		str	r1, [r2, r3]
 321:./ros_lib/ros/node_handle.h ****             p.id_ = i+100+MAX_SUBSCRIBERS;
 1004              		.loc 7 321 0
 1005 002a FB68     		ldr	r3, [r7, #12]
 1006 002c 1A1C     		mov	r2, r3
 1007 002e 6E32     		add	r2, r2, #110
 1008 0030 3B68     		ldr	r3, [r7]
 1009 0032 9A60     		str	r2, [r3, #8]
 322:./ros_lib/ros/node_handle.h ****             p.nh_ = this;
 1010              		.loc 7 322 0
 1011 0034 7A68     		ldr	r2, [r7, #4]
 1012 0036 3B68     		ldr	r3, [r7]
 1013 0038 DA60     		str	r2, [r3, #12]
 323:./ros_lib/ros/node_handle.h ****             return true;
 1014              		.loc 7 323 0
 1015 003a 0123     		mov	r3, #1
 1016 003c 0EE0     		b	.L59
 1017              	.L58:
 318:./ros_lib/ros/node_handle.h ****         for(int i = 0; i < MAX_PUBLISHERS; i++){
 1018              		.loc 7 318 0
 1019 003e FB68     		ldr	r3, [r7, #12]
 1020 0040 0133     		add	r3, r3, #1
 1021 0042 FB60     		str	r3, [r7, #12]
 1022              	.L57:
 318:./ros_lib/ros/node_handle.h ****         for(int i = 0; i < MAX_PUBLISHERS; i++){
 1023              		.loc 7 318 0 is_stmt 0 discriminator 1
 1024 0044 FB68     		ldr	r3, [r7, #12]
 1025 0046 1322     		mov	r2, #19
 1026 0048 D80F     		lsr	r0, r3, #31
 1027 004a D117     		asr	r1, r2, #31
 1028 004c 041C     		mov	r4, r0
 1029 004e 9A42     		cmp	r2, r3
 1030 0050 4C41     		adc	r4, r4, r1
 1031 0052 231C     		mov	r3, r4
 1032 0054 DBB2     		uxtb	r3, r3
 1033 0056 002B     		cmp	r3, #0
 1034 0058 DAD1     		bne	.L60
 1035              	.LBE12:
 324:./ros_lib/ros/node_handle.h ****           }
 325:./ros_lib/ros/node_handle.h ****         }
 326:./ros_lib/ros/node_handle.h ****         return false;
 1036              		.loc 7 326 0 is_stmt 1
 1037 005a 0023     		mov	r3, #0
 1038              	.L59:
 1039              	.LBE11:
 327:./ros_lib/ros/node_handle.h ****       }
 1040              		.loc 7 327 0
 1041 005c 181C     		mov	r0, r3
 1042 005e BD46     		mov	sp, r7
 1043 0060 05B0     		add	sp, sp, #20
 1044              		@ sp needed for prologue
 1045 0062 90BD     		pop	{r4, r7, pc}
 1046              		.cfi_endproc
ARM GAS  C:\DOCUME~1\Chuck\LOCALS~1\Temp\ccgKfZst.s 			page 31


 1047              	.LFE150:
 1048              		.size	_ZN3ros11NodeHandle_I13Psoc4HardwareLi10ELi20ELi200ELi200EE9advertiseERNS_9PublisherE, .-_ZN
 1049              		.section	.text._ZN3ros11NodeHandle_I13Psoc4HardwareLi10ELi20ELi200ELi200EE7loginfoEPKc,"axG",%prog
 1050              		.align	2
 1051              		.weak	_ZN3ros11NodeHandle_I13Psoc4HardwareLi10ELi20ELi200ELi200EE7loginfoEPKc
 1052              		.code	16
 1053              		.thumb_func
 1054              		.type	_ZN3ros11NodeHandle_I13Psoc4HardwareLi10ELi20ELi200ELi200EE7loginfoEPKc, %function
 1055              	_ZN3ros11NodeHandle_I13Psoc4HardwareLi10ELi20ELi200ELi200EE7loginfoEPKc:
 1056              	.LFB151:
 328:./ros_lib/ros/node_handle.h **** 
 329:./ros_lib/ros/node_handle.h ****       /* Register a new subscriber */
 330:./ros_lib/ros/node_handle.h ****       template<typename MsgT>
 331:./ros_lib/ros/node_handle.h ****       bool subscribe(Subscriber< MsgT> & s){
 332:./ros_lib/ros/node_handle.h ****         for(int i = 0; i < MAX_SUBSCRIBERS; i++){
 333:./ros_lib/ros/node_handle.h ****           if(subscribers[i] == 0){ // empty slot
 334:./ros_lib/ros/node_handle.h ****             subscribers[i] = (Subscriber_*) &s;
 335:./ros_lib/ros/node_handle.h ****             s.id_ = i+100;
 336:./ros_lib/ros/node_handle.h ****             return true;
 337:./ros_lib/ros/node_handle.h ****           }
 338:./ros_lib/ros/node_handle.h ****         }
 339:./ros_lib/ros/node_handle.h ****         return false;
 340:./ros_lib/ros/node_handle.h ****       }
 341:./ros_lib/ros/node_handle.h **** 
 342:./ros_lib/ros/node_handle.h ****       /* Register a new Service Server */
 343:./ros_lib/ros/node_handle.h ****       template<typename MReq, typename MRes>
 344:./ros_lib/ros/node_handle.h ****       bool advertiseService(ServiceServer<MReq,MRes>& srv){
 345:./ros_lib/ros/node_handle.h ****         bool v = advertise(srv.pub);
 346:./ros_lib/ros/node_handle.h ****         for(int i = 0; i < MAX_SUBSCRIBERS; i++){
 347:./ros_lib/ros/node_handle.h ****           if(subscribers[i] == 0){ // empty slot
 348:./ros_lib/ros/node_handle.h ****             subscribers[i] = (Subscriber_*) &srv;
 349:./ros_lib/ros/node_handle.h ****             srv.id_ = i+100;
 350:./ros_lib/ros/node_handle.h ****             return v;
 351:./ros_lib/ros/node_handle.h ****           }
 352:./ros_lib/ros/node_handle.h ****         }
 353:./ros_lib/ros/node_handle.h ****         return false;
 354:./ros_lib/ros/node_handle.h ****       }
 355:./ros_lib/ros/node_handle.h **** 
 356:./ros_lib/ros/node_handle.h ****       /* Register a new Service Client */
 357:./ros_lib/ros/node_handle.h ****       template<typename MReq, typename MRes>
 358:./ros_lib/ros/node_handle.h ****       bool serviceClient(ServiceClient<MReq, MRes>& srv){
 359:./ros_lib/ros/node_handle.h ****         bool v = advertise(srv.pub);
 360:./ros_lib/ros/node_handle.h ****         for(int i = 0; i < MAX_SUBSCRIBERS; i++){
 361:./ros_lib/ros/node_handle.h ****           if(subscribers[i] == 0){ // empty slot
 362:./ros_lib/ros/node_handle.h ****             subscribers[i] = (Subscriber_*) &srv;
 363:./ros_lib/ros/node_handle.h ****             srv.id_ = i+100;
 364:./ros_lib/ros/node_handle.h ****             return v;
 365:./ros_lib/ros/node_handle.h ****           }
 366:./ros_lib/ros/node_handle.h ****         }
 367:./ros_lib/ros/node_handle.h ****         return false;
 368:./ros_lib/ros/node_handle.h ****       }
 369:./ros_lib/ros/node_handle.h **** 
 370:./ros_lib/ros/node_handle.h ****       void negotiateTopics()
 371:./ros_lib/ros/node_handle.h ****       {
 372:./ros_lib/ros/node_handle.h ****         rosserial_msgs::TopicInfo ti;
 373:./ros_lib/ros/node_handle.h ****         int i;
 374:./ros_lib/ros/node_handle.h ****         for(i = 0; i < MAX_PUBLISHERS; i++)
ARM GAS  C:\DOCUME~1\Chuck\LOCALS~1\Temp\ccgKfZst.s 			page 32


 375:./ros_lib/ros/node_handle.h ****         {
 376:./ros_lib/ros/node_handle.h ****           if(publishers[i] != 0) // non-empty slot
 377:./ros_lib/ros/node_handle.h ****           {
 378:./ros_lib/ros/node_handle.h ****             ti.topic_id = publishers[i]->id_;
 379:./ros_lib/ros/node_handle.h ****             ti.topic_name = (char *) publishers[i]->topic_;
 380:./ros_lib/ros/node_handle.h ****             ti.message_type = (char *) publishers[i]->msg_->getType();
 381:./ros_lib/ros/node_handle.h ****             ti.md5sum = (char *) publishers[i]->msg_->getMD5();
 382:./ros_lib/ros/node_handle.h ****             ti.buffer_size = OUTPUT_SIZE;
 383:./ros_lib/ros/node_handle.h ****             publish( publishers[i]->getEndpointType(), &ti );
 384:./ros_lib/ros/node_handle.h ****           }
 385:./ros_lib/ros/node_handle.h ****         }
 386:./ros_lib/ros/node_handle.h ****         for(i = 0; i < MAX_SUBSCRIBERS; i++)
 387:./ros_lib/ros/node_handle.h ****         {
 388:./ros_lib/ros/node_handle.h ****           if(subscribers[i] != 0) // non-empty slot
 389:./ros_lib/ros/node_handle.h ****           {
 390:./ros_lib/ros/node_handle.h ****             ti.topic_id = subscribers[i]->id_;
 391:./ros_lib/ros/node_handle.h ****             ti.topic_name = (char *) subscribers[i]->topic_;
 392:./ros_lib/ros/node_handle.h ****             ti.message_type = (char *) subscribers[i]->getMsgType();
 393:./ros_lib/ros/node_handle.h ****             ti.md5sum = (char *) subscribers[i]->getMsgMD5();
 394:./ros_lib/ros/node_handle.h ****             ti.buffer_size = INPUT_SIZE;
 395:./ros_lib/ros/node_handle.h ****             publish( subscribers[i]->getEndpointType(), &ti );
 396:./ros_lib/ros/node_handle.h ****           }
 397:./ros_lib/ros/node_handle.h ****         }
 398:./ros_lib/ros/node_handle.h ****         configured_ = true;
 399:./ros_lib/ros/node_handle.h ****       }
 400:./ros_lib/ros/node_handle.h **** 
 401:./ros_lib/ros/node_handle.h ****       virtual int publish(int id, const Msg * msg)
 402:./ros_lib/ros/node_handle.h ****       {
 403:./ros_lib/ros/node_handle.h ****         if(id >= 100 && !configured_) 
 404:./ros_lib/ros/node_handle.h **** 	  return 0;
 405:./ros_lib/ros/node_handle.h **** 
 406:./ros_lib/ros/node_handle.h ****         /* serialize message */
 407:./ros_lib/ros/node_handle.h ****         int l = msg->serialize(message_out+7);
 408:./ros_lib/ros/node_handle.h **** 
 409:./ros_lib/ros/node_handle.h ****         /* setup the header */
 410:./ros_lib/ros/node_handle.h ****         message_out[0] = 0xff;
 411:./ros_lib/ros/node_handle.h ****         message_out[1] = PROTOCOL_VER;
 412:./ros_lib/ros/node_handle.h ****         message_out[2] = (unsigned char) l&255;
 413:./ros_lib/ros/node_handle.h ****         message_out[3] = (unsigned char) l>>8;
 414:./ros_lib/ros/node_handle.h **** 	message_out[4] = 255 - ((message_out[2] + message_out[3])%256);
 415:./ros_lib/ros/node_handle.h ****         message_out[5] = (unsigned char) id&255;
 416:./ros_lib/ros/node_handle.h ****         message_out[6] = ((unsigned char) id>>8);
 417:./ros_lib/ros/node_handle.h **** 
 418:./ros_lib/ros/node_handle.h ****         /* calculate checksum */
 419:./ros_lib/ros/node_handle.h ****         int chk = 0;
 420:./ros_lib/ros/node_handle.h ****         for(int i =5; i<l+7; i++)
 421:./ros_lib/ros/node_handle.h ****           chk += message_out[i];
 422:./ros_lib/ros/node_handle.h ****         l += 7;
 423:./ros_lib/ros/node_handle.h ****         message_out[l++] = 255 - (chk%256);
 424:./ros_lib/ros/node_handle.h ****         if( l <= OUTPUT_SIZE ){
 425:./ros_lib/ros/node_handle.h ****           hardware_.write(message_out, l);
 426:./ros_lib/ros/node_handle.h ****           return l;
 427:./ros_lib/ros/node_handle.h ****         }else{
 428:./ros_lib/ros/node_handle.h ****           logerror("Message from device dropped: message larger than buffer.");
 429:./ros_lib/ros/node_handle.h ****           return 0;
 430:./ros_lib/ros/node_handle.h ****         }
 431:./ros_lib/ros/node_handle.h ****       }
ARM GAS  C:\DOCUME~1\Chuck\LOCALS~1\Temp\ccgKfZst.s 			page 33


 432:./ros_lib/ros/node_handle.h **** 
 433:./ros_lib/ros/node_handle.h ****       /********************************************************************
 434:./ros_lib/ros/node_handle.h ****        * Logging
 435:./ros_lib/ros/node_handle.h ****        */
 436:./ros_lib/ros/node_handle.h ****     private:
 437:./ros_lib/ros/node_handle.h ****       void log(char byte, const char * msg){
 438:./ros_lib/ros/node_handle.h ****         rosserial_msgs::Log l;
 439:./ros_lib/ros/node_handle.h ****         l.level= byte;
 440:./ros_lib/ros/node_handle.h ****         l.msg = (char*)msg;
 441:./ros_lib/ros/node_handle.h ****         publish(rosserial_msgs::TopicInfo::ID_LOG, &l);
 442:./ros_lib/ros/node_handle.h ****       }
 443:./ros_lib/ros/node_handle.h **** 
 444:./ros_lib/ros/node_handle.h ****     public:
 445:./ros_lib/ros/node_handle.h ****       void logdebug(const char* msg){
 446:./ros_lib/ros/node_handle.h ****         log(rosserial_msgs::Log::ROSDEBUG, msg);
 447:./ros_lib/ros/node_handle.h ****       }
 448:./ros_lib/ros/node_handle.h ****       void loginfo(const char * msg){
 1057              		.loc 7 448 0
 1058              		.cfi_startproc
 1059 0000 80B5     		push	{r7, lr}
 1060              	.LCFI46:
 1061              		.cfi_def_cfa_offset 8
 1062              		.cfi_offset 7, -8
 1063              		.cfi_offset 14, -4
 1064 0002 82B0     		sub	sp, sp, #8
 1065              	.LCFI47:
 1066              		.cfi_def_cfa_offset 16
 1067 0004 00AF     		add	r7, sp, #0
 1068              	.LCFI48:
 1069              		.cfi_def_cfa_register 7
 1070 0006 7860     		str	r0, [r7, #4]
 1071 0008 3960     		str	r1, [r7]
 449:./ros_lib/ros/node_handle.h ****         log(rosserial_msgs::Log::INFO, msg);
 1072              		.loc 7 449 0
 1073 000a 7A68     		ldr	r2, [r7, #4]
 1074 000c 3B68     		ldr	r3, [r7]
 1075 000e 101C     		mov	r0, r2
 1076 0010 0121     		mov	r1, #1
 1077 0012 1A1C     		mov	r2, r3
 1078 0014 FFF7FEFF 		bl	_ZN3ros11NodeHandle_I13Psoc4HardwareLi10ELi20ELi200ELi200EE3logEcPKc
 450:./ros_lib/ros/node_handle.h ****       }
 1079              		.loc 7 450 0
 1080 0018 BD46     		mov	sp, r7
 1081 001a 02B0     		add	sp, sp, #8
 1082              		@ sp needed for prologue
 1083 001c 80BD     		pop	{r7, pc}
 1084              		.cfi_endproc
 1085              	.LFE151:
 1086              		.size	_ZN3ros11NodeHandle_I13Psoc4HardwareLi10ELi20ELi200ELi200EE7loginfoEPKc, .-_ZN3ros11NodeHand
 1087 001e C046     		.section	.text._ZN14rosserial_msgs3LogC2Ev,"axG",%progbits,_ZN14rosserial_msgs3LogC5Ev,comdat
 1088              		.align	2
 1089              		.weak	_ZN14rosserial_msgs3LogC2Ev
 1090              		.code	16
 1091              		.thumb_func
 1092              		.type	_ZN14rosserial_msgs3LogC2Ev, %function
 1093              	_ZN14rosserial_msgs3LogC2Ev:
 1094              	.LFB154:
ARM GAS  C:\DOCUME~1\Chuck\LOCALS~1\Temp\ccgKfZst.s 			page 34


  12:./ros_lib/rosserial_msgs/Log.h ****   class Log : public ros::Msg
 1095              		.loc 1 12 0
 1096              		.cfi_startproc
 1097 0000 80B5     		push	{r7, lr}
 1098              	.LCFI49:
 1099              		.cfi_def_cfa_offset 8
 1100              		.cfi_offset 7, -8
 1101              		.cfi_offset 14, -4
 1102 0002 82B0     		sub	sp, sp, #8
 1103              	.LCFI50:
 1104              		.cfi_def_cfa_offset 16
 1105 0004 00AF     		add	r7, sp, #0
 1106              	.LCFI51:
 1107              		.cfi_def_cfa_register 7
 1108 0006 7860     		str	r0, [r7, #4]
 1109              	.LBB13:
  12:./ros_lib/rosserial_msgs/Log.h ****   class Log : public ros::Msg
 1110              		.loc 1 12 0
 1111 0008 7B68     		ldr	r3, [r7, #4]
 1112 000a 181C     		mov	r0, r3
 1113 000c FFF7FEFF 		bl	_ZN3ros3MsgC2Ev
 1114 0010 7B68     		ldr	r3, [r7, #4]
 1115 0012 034A     		ldr	r2, .L65
 1116 0014 1A60     		str	r2, [r3]
 1117              	.LBE13:
 1118 0016 7B68     		ldr	r3, [r7, #4]
 1119 0018 181C     		mov	r0, r3
 1120 001a BD46     		mov	sp, r7
 1121 001c 02B0     		add	sp, sp, #8
 1122              		@ sp needed for prologue
 1123 001e 80BD     		pop	{r7, pc}
 1124              	.L66:
 1125              		.align	2
 1126              	.L65:
 1127 0020 08000000 		.word	_ZTVN14rosserial_msgs3LogE+8
 1128              		.cfi_endproc
 1129              	.LFE154:
 1130              		.size	_ZN14rosserial_msgs3LogC2Ev, .-_ZN14rosserial_msgs3LogC2Ev
 1131              		.weak	_ZN14rosserial_msgs3LogC1Ev
 1132              		.thumb_set _ZN14rosserial_msgs3LogC1Ev,_ZN14rosserial_msgs3LogC2Ev
 1133              		.section	.text._ZN3ros11NodeHandle_I13Psoc4HardwareLi10ELi20ELi200ELi200EE3logEcPKc,"axG",%progbit
 1134              		.align	2
 1135              		.weak	_ZN3ros11NodeHandle_I13Psoc4HardwareLi10ELi20ELi200ELi200EE3logEcPKc
 1136              		.code	16
 1137              		.thumb_func
 1138              		.type	_ZN3ros11NodeHandle_I13Psoc4HardwareLi10ELi20ELi200ELi200EE3logEcPKc, %function
 1139              	_ZN3ros11NodeHandle_I13Psoc4HardwareLi10ELi20ELi200ELi200EE3logEcPKc:
 1140              	.LFB152:
 437:./ros_lib/ros/node_handle.h ****       void log(char byte, const char * msg){
 1141              		.loc 7 437 0
 1142              		.cfi_startproc
 1143 0000 80B5     		push	{r7, lr}
 1144              	.LCFI52:
 1145              		.cfi_def_cfa_offset 8
 1146              		.cfi_offset 7, -8
 1147              		.cfi_offset 14, -4
 1148 0002 88B0     		sub	sp, sp, #32
ARM GAS  C:\DOCUME~1\Chuck\LOCALS~1\Temp\ccgKfZst.s 			page 35


 1149              	.LCFI53:
 1150              		.cfi_def_cfa_offset 40
 1151 0004 00AF     		add	r7, sp, #0
 1152              	.LCFI54:
 1153              		.cfi_def_cfa_register 7
 1154 0006 F860     		str	r0, [r7, #12]
 1155 0008 7A60     		str	r2, [r7, #4]
 1156 000a 3B1C     		mov	r3, r7
 1157 000c 0B33     		add	r3, r3, #11
 1158 000e 0A1C     		add	r2, r1, #0
 1159 0010 1A70     		strb	r2, [r3]
 1160              	.LBB14:
 438:./ros_lib/ros/node_handle.h ****         rosserial_msgs::Log l;
 1161              		.loc 7 438 0
 1162 0012 3B1C     		mov	r3, r7
 1163 0014 1433     		add	r3, r3, #20
 1164 0016 181C     		mov	r0, r3
 1165 0018 FFF7FEFF 		bl	_ZN14rosserial_msgs3LogC1Ev
 439:./ros_lib/ros/node_handle.h ****         l.level= byte;
 1166              		.loc 7 439 0
 1167 001c 3B1C     		mov	r3, r7
 1168 001e 1433     		add	r3, r3, #20
 1169 0020 3A1C     		mov	r2, r7
 1170 0022 0B32     		add	r2, r2, #11
 1171 0024 1278     		ldrb	r2, [r2]
 1172 0026 1A71     		strb	r2, [r3, #4]
 440:./ros_lib/ros/node_handle.h ****         l.msg = (char*)msg;
 1173              		.loc 7 440 0
 1174 0028 3B1C     		mov	r3, r7
 1175 002a 1433     		add	r3, r3, #20
 1176 002c 7A68     		ldr	r2, [r7, #4]
 1177 002e 9A60     		str	r2, [r3, #8]
 441:./ros_lib/ros/node_handle.h ****         publish(rosserial_msgs::TopicInfo::ID_LOG, &l);
 1178              		.loc 7 441 0
 1179 0030 FB68     		ldr	r3, [r7, #12]
 1180 0032 1B68     		ldr	r3, [r3]
 1181 0034 1B68     		ldr	r3, [r3]
 1182 0036 F968     		ldr	r1, [r7, #12]
 1183 0038 3A1C     		mov	r2, r7
 1184 003a 1432     		add	r2, r2, #20
 1185 003c 081C     		mov	r0, r1
 1186 003e 0721     		mov	r1, #7
 1187 0040 9847     		blx	r3
 1188              	.LBE14:
 442:./ros_lib/ros/node_handle.h ****       }
 1189              		.loc 7 442 0
 1190 0042 BD46     		mov	sp, r7
 1191 0044 08B0     		add	sp, sp, #32
 1192              		@ sp needed for prologue
 1193 0046 80BD     		pop	{r7, pc}
 1194              		.cfi_endproc
 1195              	.LFE152:
 1196              		.size	_ZN3ros11NodeHandle_I13Psoc4HardwareLi10ELi20ELi200ELi200EE3logEcPKc, .-_ZN3ros11NodeHandle_
 1197              		.weak	_ZTVN8std_msgs4BoolE
 1198              		.section	.rodata._ZTVN8std_msgs4BoolE,"aG",%progbits,_ZTVN8std_msgs4BoolE,comdat
 1199              		.align	3
 1200              		.type	_ZTVN8std_msgs4BoolE, %object
ARM GAS  C:\DOCUME~1\Chuck\LOCALS~1\Temp\ccgKfZst.s 			page 36


 1201              		.size	_ZTVN8std_msgs4BoolE, 24
 1202              	_ZTVN8std_msgs4BoolE:
 1203 0000 00000000 		.word	0
 1204 0004 00000000 		.word	0
 1205 0008 00000000 		.word	_ZNK8std_msgs4Bool9serializeEPh
 1206 000c 00000000 		.word	_ZN8std_msgs4Bool11deserializeEPh
 1207 0010 00000000 		.word	_ZN8std_msgs4Bool7getTypeEv
 1208 0014 00000000 		.word	_ZN8std_msgs4Bool6getMD5Ev
 1209              		.weak	_ZTVN14rosserial_msgs3LogE
 1210              		.section	.rodata._ZTVN14rosserial_msgs3LogE,"aG",%progbits,_ZTVN14rosserial_msgs3LogE,comdat
 1211              		.align	3
 1212              		.type	_ZTVN14rosserial_msgs3LogE, %object
 1213              		.size	_ZTVN14rosserial_msgs3LogE, 24
 1214              	_ZTVN14rosserial_msgs3LogE:
 1215 0000 00000000 		.word	0
 1216 0004 00000000 		.word	0
 1217 0008 00000000 		.word	_ZNK14rosserial_msgs3Log9serializeEPh
 1218 000c 00000000 		.word	_ZN14rosserial_msgs3Log11deserializeEPh
 1219 0010 00000000 		.word	_ZN14rosserial_msgs3Log7getTypeEv
 1220 0014 00000000 		.word	_ZN14rosserial_msgs3Log6getMD5Ev
 1221              		.weak	_ZTVN3ros3MsgE
 1222              		.section	.rodata._ZTVN3ros3MsgE,"aG",%progbits,_ZTVN3ros3MsgE,comdat
 1223              		.align	3
 1224              		.type	_ZTVN3ros3MsgE, %object
 1225              		.size	_ZTVN3ros3MsgE, 24
 1226              	_ZTVN3ros3MsgE:
 1227 0000 00000000 		.word	0
 1228 0004 00000000 		.word	0
 1229 0008 00000000 		.word	__cxa_pure_virtual
 1230 000c 00000000 		.word	__cxa_pure_virtual
 1231 0010 00000000 		.word	__cxa_pure_virtual
 1232 0014 00000000 		.word	__cxa_pure_virtual
 1233              		.section	.rodata
 1234 007a 0000     		.align	2
 1235              	.LC26:
 1236 007c 70757368 		.ascii	"pushed\000"
 1236      656400
 1237              		.section	.text._Z41__static_initialization_and_destruction_0ii,"ax",%progbits
 1238              		.align	2
 1239              		.code	16
 1240              		.thumb_func
 1241              		.type	_Z41__static_initialization_and_destruction_0ii, %function
 1242              	_Z41__static_initialization_and_destruction_0ii:
 1243              	.LFB158:
  64:.\ros_lib\examples\button_example/button_example.cpp **** 
  65:.\ros_lib\examples\button_example/button_example.cpp **** } //namespace
 1244              		.loc 6 65 0
 1245              		.cfi_startproc
 1246 0000 80B5     		push	{r7, lr}
 1247              	.LCFI55:
 1248              		.cfi_def_cfa_offset 8
 1249              		.cfi_offset 7, -8
 1250              		.cfi_offset 14, -4
 1251 0002 82B0     		sub	sp, sp, #8
 1252              	.LCFI56:
 1253              		.cfi_def_cfa_offset 16
 1254 0004 00AF     		add	r7, sp, #0
ARM GAS  C:\DOCUME~1\Chuck\LOCALS~1\Temp\ccgKfZst.s 			page 37


 1255              	.LCFI57:
 1256              		.cfi_def_cfa_register 7
 1257 0006 7860     		str	r0, [r7, #4]
 1258 0008 3960     		str	r1, [r7]
 1259              		.loc 6 65 0
 1260 000a 7B68     		ldr	r3, [r7, #4]
 1261 000c 012B     		cmp	r3, #1
 1262 000e 10D1     		bne	.L68
 1263              		.loc 6 65 0 is_stmt 0 discriminator 1
 1264 0010 3A68     		ldr	r2, [r7]
 1265 0012 094B     		ldr	r3, .L70
 1266 0014 9A42     		cmp	r2, r3
 1267 0016 0CD1     		bne	.L68
  22:.\ros_lib\examples\button_example/button_example.cpp **** std_msgs::Bool pushed_msg;
 1268              		.loc 6 22 0 is_stmt 1
 1269 0018 084B     		ldr	r3, .L70+4
 1270 001a 181C     		mov	r0, r3
 1271 001c FFF7FEFF 		bl	_ZN8std_msgs4BoolC1Ev
  23:.\ros_lib\examples\button_example/button_example.cpp **** ros::Publisher pub_button("pushed", &pushed_msg);
 1272              		.loc 6 23 0
 1273 0020 0749     		ldr	r1, .L70+8
 1274 0022 084A     		ldr	r2, .L70+12
 1275 0024 054B     		ldr	r3, .L70+4
 1276 0026 081C     		mov	r0, r1
 1277 0028 111C     		mov	r1, r2
 1278 002a 1A1C     		mov	r2, r3
 1279 002c 0023     		mov	r3, #0
 1280 002e FFF7FEFF 		bl	_ZN3ros9PublisherC1EPKcPNS_3MsgEi
 1281              	.L68:
 1282              		.loc 6 65 0
 1283 0032 BD46     		mov	sp, r7
 1284 0034 02B0     		add	sp, sp, #8
 1285              		@ sp needed for prologue
 1286 0036 80BD     		pop	{r7, pc}
 1287              	.L71:
 1288              		.align	2
 1289              	.L70:
 1290 0038 FFFF0000 		.word	65535
 1291 003c 00000000 		.word	_ZN6Button10pushed_msgE
 1292 0040 00000000 		.word	_ZN6Button10pub_buttonE
 1293 0044 7C000000 		.word	.LC26
 1294              		.cfi_endproc
 1295              	.LFE158:
 1296              		.size	_Z41__static_initialization_and_destruction_0ii, .-_Z41__static_initialization_and_destructi
 1297              		.section	.rodata
 1298 0083 00       		.align	2
 1299              		.type	_ZN14rosserial_msgsL12REQUESTPARAME, %object
 1300              		.size	_ZN14rosserial_msgsL12REQUESTPARAME, 28
 1301              	_ZN14rosserial_msgsL12REQUESTPARAME:
 1302 0084 726F7373 		.ascii	"rosserial_msgs/RequestParam\000"
 1302      65726961 
 1302      6C5F6D73 
 1302      67732F52 
 1302      65717565 
 1303              		.section	.text._GLOBAL__sub_I__ZN6Button10pushed_msgE,"ax",%progbits
 1304              		.align	2
 1305              		.code	16
ARM GAS  C:\DOCUME~1\Chuck\LOCALS~1\Temp\ccgKfZst.s 			page 38


 1306              		.thumb_func
 1307              		.type	_GLOBAL__sub_I__ZN6Button10pushed_msgE, %function
 1308              	_GLOBAL__sub_I__ZN6Button10pushed_msgE:
 1309              	.LFB159:
 1310              		.loc 6 65 0
 1311              		.cfi_startproc
 1312 0000 80B5     		push	{r7, lr}
 1313              	.LCFI58:
 1314              		.cfi_def_cfa_offset 8
 1315              		.cfi_offset 7, -8
 1316              		.cfi_offset 14, -4
 1317 0002 00AF     		add	r7, sp, #0
 1318              	.LCFI59:
 1319              		.cfi_def_cfa_register 7
 1320              		.loc 6 65 0
 1321 0004 034B     		ldr	r3, .L73
 1322 0006 0120     		mov	r0, #1
 1323 0008 191C     		mov	r1, r3
 1324 000a FFF7FEFF 		bl	_Z41__static_initialization_and_destruction_0ii
 1325 000e BD46     		mov	sp, r7
 1326              		@ sp needed for prologue
 1327 0010 80BD     		pop	{r7, pc}
 1328              	.L74:
 1329 0012 C046     		.align	2
 1330              	.L73:
 1331 0014 FFFF0000 		.word	65535
 1332              		.cfi_endproc
 1333              	.LFE159:
 1334              		.size	_GLOBAL__sub_I__ZN6Button10pushed_msgE, .-_GLOBAL__sub_I__ZN6Button10pushed_msgE
 1335              		.section	.init_array,"aw",%init_array
 1336              		.align	2
 1337 0000 00000000 		.word	_GLOBAL__sub_I__ZN6Button10pushed_msgE(target1)
 1338              		.text
 1339              	.Letext0:
 1340              		.file 8 "c:\\program files\\cypress\\psoc creator\\3.0\\psoc creator\\import\\gnu_cs\\arm\\4.7.3\\
 1341              		.file 9 "./ros_lib/ros.h"
 1342              		.file 10 "./ros_lib/rosserial_msgs/TopicInfo.h"
 1343              		.file 11 "./ros_lib/Psoc4Hardware.h"
 1344              		.file 12 "./Generated_Source/PSoC4/cytypes.h"
 1345              		.file 13 "./ros_lib/std_msgs/Time.h"
 1346              		.file 14 ".\\ros_lib\\examples\\button_example\\button_example.h"
 1347              		.file 15 "./ros_lib/rosserial_msgs/RequestParam.h"
 1348              		.file 16 "./ros_lib/Uarts.h"