ARM GAS  C:\DOCUME~1\Chuck\LOCALS~1\Temp\cclVEGdP.s 			page 1


   1              		.cpu cortex-m0
   2              		.fpu softvfp
   3              		.eabi_attribute 20, 1
   4              		.eabi_attribute 21, 1
   5              		.eabi_attribute 23, 3
   6              		.eabi_attribute 24, 1
   7              		.eabi_attribute 25, 1
   8              		.eabi_attribute 26, 1
   9              		.eabi_attribute 30, 6
  10              		.eabi_attribute 34, 0
  11              		.eabi_attribute 18, 4
  12              		.code	16
  13              		.file	"CapSense.c"
  14              		.text
  15              	.Ltext0:
  16              		.cfi_sections	.debug_frame
  17              		.global	CapSense_lowLevelTuningDone
  18              		.bss
  19              		.type	CapSense_lowLevelTuningDone, %object
  20              		.size	CapSense_lowLevelTuningDone, 1
  21              	CapSense_lowLevelTuningDone:
  22 0000 00       		.space	1
  23              	CapSense_initVar:
  24 0001 00       		.space	1
  25              		.global	CapSense_csdStatusVar
  26              		.type	CapSense_csdStatusVar, %object
  27              		.size	CapSense_csdStatusVar, 1
  28              	CapSense_csdStatusVar:
  29 0002 00       		.space	1
  30              		.global	CapSense_sensorIndex
  31              		.type	CapSense_sensorIndex, %object
  32              		.size	CapSense_sensorIndex, 1
  33              	CapSense_sensorIndex:
  34 0003 00       		.space	1
  35              		.global	CapSense_sensorRaw
  36              		.align	2
  37              		.type	CapSense_sensorRaw, %object
  38              		.size	CapSense_sensorRaw, 2
  39              	CapSense_sensorRaw:
  40 0004 0000     		.space	2
  41              		.comm	CapSense_csdTrim1,1,1
  42              		.comm	CapSense_unscannedSnsDriveMode,1,4
  43              		.comm	CapSense_sensorEnableMaskBackup,1,4
  44              		.global	CapSense_sensorEnableMask
  45 0006 0000     		.data
  46              		.align	2
  47              		.type	CapSense_sensorEnableMask, %object
  48              		.size	CapSense_sensorEnableMask, 1
  49              	CapSense_sensorEnableMask:
  50 0000 01       		.byte	1
  51              		.global	CapSense_pcTable
  52 0001 000000   		.align	2
  53              		.type	CapSense_pcTable, %object
  54              		.size	CapSense_pcTable, 4
  55              	CapSense_pcTable:
  56 0004 08030440 		.word	1074004744
  57              		.global	CapSense_portTable
ARM GAS  C:\DOCUME~1\Chuck\LOCALS~1\Temp\cclVEGdP.s 			page 2


  58              		.section	.rodata
  59              		.align	2
  60              		.type	CapSense_portTable, %object
  61              		.size	CapSense_portTable, 1
  62              	CapSense_portTable:
  63 0000 03       		.byte	3
  64              		.global	CapSense_maskTable
  65 0001 000000   		.align	2
  66              		.type	CapSense_maskTable, %object
  67              		.size	CapSense_maskTable, 4
  68              	CapSense_maskTable:
  69 0004 02000000 		.word	2
  70              		.global	CapSense_pinShiftTbl
  71              		.align	2
  72              		.type	CapSense_pinShiftTbl, %object
  73              		.size	CapSense_pinShiftTbl, 1
  74              	CapSense_pinShiftTbl:
  75 0008 01       		.byte	1
  76              		.comm	CapSense_modulationIDAC,1,4
  77              		.comm	CapSense_compensationIDAC,1,4
  78              		.global	CapSense_widgetResolution
  79              		.data
  80              		.align	2
  81              		.type	CapSense_widgetResolution, %object
  82              		.size	CapSense_widgetResolution, 4
  83              	CapSense_widgetResolution:
  84 0008 0000FF0F 		.word	268369920
  85              		.comm	CapSense_senseClkDividerVal,1,4
  86              		.comm	CapSense_sampleClkDividerVal,1,4
  87              		.global	CapSense_widgetNumber
  88              		.section	.rodata
  89 0009 000000   		.align	2
  90              		.type	CapSense_widgetNumber, %object
  91              		.size	CapSense_widgetNumber, 1
  92              	CapSense_widgetNumber:
  93 000c 00       		.space	1
  94              		.global	CapSense_prtSelTbl
  95 000d 000000   		.align	2
  96              		.type	CapSense_prtSelTbl, %object
  97              		.size	CapSense_prtSelTbl, 20
  98              	CapSense_prtSelTbl:
  99 0010 00000140 		.word	1073807360
 100 0014 04000140 		.word	1073807364
 101 0018 08000140 		.word	1073807368
 102 001c 0C000140 		.word	1073807372
 103 0020 10000140 		.word	1073807376
 104              		.global	CapSense_prtCfgTbl
 105              		.align	2
 106              		.type	CapSense_prtCfgTbl, %object
 107              		.size	CapSense_prtCfgTbl, 20
 108              	CapSense_prtCfgTbl:
 109 0024 08000440 		.word	1074003976
 110 0028 08010440 		.word	1074004232
 111 002c 08020440 		.word	1074004488
 112 0030 08030440 		.word	1074004744
 113 0034 08040440 		.word	1074005000
 114              		.global	CapSense_prtDRTbl
ARM GAS  C:\DOCUME~1\Chuck\LOCALS~1\Temp\cclVEGdP.s 			page 3


 115              		.align	2
 116              		.type	CapSense_prtDRTbl, %object
 117              		.size	CapSense_prtDRTbl, 20
 118              	CapSense_prtDRTbl:
 119 0038 00000440 		.word	1074003968
 120 003c 00010440 		.word	1074004224
 121 0040 00020440 		.word	1074004480
 122 0044 00030440 		.word	1074004736
 123 0048 00040440 		.word	1074004992
 124              		.section	.text.CapSense_Init,"ax",%progbits
 125              		.align	2
 126              		.global	CapSense_Init
 127              		.code	16
 128              		.thumb_func
 129              		.type	CapSense_Init, %function
 130              	CapSense_Init:
 131              	.LFB33:
 132              		.file 1 ".\\Generated_Source\\PSoC4\\CapSense.c"
   1:.\Generated_Source\PSoC4/CapSense.c **** /*******************************************************************************
   2:.\Generated_Source\PSoC4/CapSense.c **** * File Name: CapSense.c
   3:.\Generated_Source\PSoC4/CapSense.c **** * Version 2.0
   4:.\Generated_Source\PSoC4/CapSense.c **** *
   5:.\Generated_Source\PSoC4/CapSense.c **** * Description:
   6:.\Generated_Source\PSoC4/CapSense.c **** *  This file provides the source code for scanning APIs for the CapSense CSD 
   7:.\Generated_Source\PSoC4/CapSense.c **** *  component.
   8:.\Generated_Source\PSoC4/CapSense.c **** *
   9:.\Generated_Source\PSoC4/CapSense.c **** * Note:
  10:.\Generated_Source\PSoC4/CapSense.c **** *
  11:.\Generated_Source\PSoC4/CapSense.c **** ********************************************************************************
  12:.\Generated_Source\PSoC4/CapSense.c **** * Copyright 2014, Cypress Semiconductor Corporation.  All rights reserved.
  13:.\Generated_Source\PSoC4/CapSense.c **** * You may use this file only in accordance with the license, terms, conditions,
  14:.\Generated_Source\PSoC4/CapSense.c **** * disclaimers, and limitations in the end user license agreement accompanying
  15:.\Generated_Source\PSoC4/CapSense.c **** * the software package with which this file was provided.
  16:.\Generated_Source\PSoC4/CapSense.c **** *******************************************************************************/
  17:.\Generated_Source\PSoC4/CapSense.c **** 
  18:.\Generated_Source\PSoC4/CapSense.c **** #include "CapSense.h"
  19:.\Generated_Source\PSoC4/CapSense.c **** #include "CapSense_PVT.h"
  20:.\Generated_Source\PSoC4/CapSense.c **** #include "cypins.h"
  21:.\Generated_Source\PSoC4/CapSense.c **** 
  22:.\Generated_Source\PSoC4/CapSense.c **** #if(0u != CapSense_CSHL_API_GENERATE)
  23:.\Generated_Source\PSoC4/CapSense.c **** 	#include "CapSense_CSHL.h"
  24:.\Generated_Source\PSoC4/CapSense.c **** 	extern uint8 CapSense_numberOfSensors[];
  25:.\Generated_Source\PSoC4/CapSense.c **** 	extern uint8 CapSense_rawDataIndex[];
  26:.\Generated_Source\PSoC4/CapSense.c **** #endif /* (0u != CapSense_CSHL_API_GENERATE) */
  27:.\Generated_Source\PSoC4/CapSense.c **** 
  28:.\Generated_Source\PSoC4/CapSense.c **** /* SmartSense functions */
  29:.\Generated_Source\PSoC4/CapSense.c **** #if (CapSense_TUNING_METHOD == CapSense__TUNING_AUTO)
  30:.\Generated_Source\PSoC4/CapSense.c ****     uint8 CapSense_lowLevelTuningDone = 0u;
  31:.\Generated_Source\PSoC4/CapSense.c **** 	extern uint8 scanSpeedTbl[((CapSense_TOTAL_SENSOR_COUNT - 1u) / 8u) + 1u];
  32:.\Generated_Source\PSoC4/CapSense.c **** #endif /* (CapSense_TUNING_METHOD == CapSense__TUNING_AUTO) */
  33:.\Generated_Source\PSoC4/CapSense.c **** 
  34:.\Generated_Source\PSoC4/CapSense.c **** #if(CapSense_PRS_OPTIONS != CapSense__PRS_NONE)
  35:.\Generated_Source\PSoC4/CapSense.c **** 	uint8 CapSense_prescalersTuningDone = 0u;
  36:.\Generated_Source\PSoC4/CapSense.c **** #endif /* (CapSense_PRS_OPTIONS == CapSense__PRS_NONE) */
  37:.\Generated_Source\PSoC4/CapSense.c **** 
  38:.\Generated_Source\PSoC4/CapSense.c **** static uint8 CapSense_initVar = 0u;
  39:.\Generated_Source\PSoC4/CapSense.c ****             
ARM GAS  C:\DOCUME~1\Chuck\LOCALS~1\Temp\cclVEGdP.s 			page 4


  40:.\Generated_Source\PSoC4/CapSense.c **** /* Global software variables */
  41:.\Generated_Source\PSoC4/CapSense.c **** volatile uint8 CapSense_csdStatusVar = 0u;   /* CapSense CSD status, variable */
  42:.\Generated_Source\PSoC4/CapSense.c **** volatile uint8 CapSense_sensorIndex = 0u;    /* Index of scannig sensor */
  43:.\Generated_Source\PSoC4/CapSense.c **** 
  44:.\Generated_Source\PSoC4/CapSense.c **** /* Global array of Raw Counts */
  45:.\Generated_Source\PSoC4/CapSense.c **** uint16 CapSense_sensorRaw[CapSense_TOTAL_SENSOR_COUNT] = {0u};
  46:.\Generated_Source\PSoC4/CapSense.c **** 
  47:.\Generated_Source\PSoC4/CapSense.c **** /* Backup variables for trim registers*/
  48:.\Generated_Source\PSoC4/CapSense.c **** #if (CapSense_IDAC1_POLARITY == CapSense__IDAC_SINK)
  49:.\Generated_Source\PSoC4/CapSense.c **** 	uint8 CapSense_csdTrim2;   
  50:.\Generated_Source\PSoC4/CapSense.c **** #else
  51:.\Generated_Source\PSoC4/CapSense.c ****     uint8 CapSense_csdTrim1;	
  52:.\Generated_Source\PSoC4/CapSense.c **** #endif /* (CapSense_IDAC1_POLARITY == CapSense__IDAC_SINK) */
  53:.\Generated_Source\PSoC4/CapSense.c **** 
  54:.\Generated_Source\PSoC4/CapSense.c **** /* Global array of un-scanned sensors state */
  55:.\Generated_Source\PSoC4/CapSense.c **** uint8 CapSense_unscannedSnsDriveMode[CapSense_TOTAL_SENSOR_COUNT];
  56:.\Generated_Source\PSoC4/CapSense.c **** 
  57:.\Generated_Source\PSoC4/CapSense.c **** /* Backup array for CapSense_sensorEnableMask */
  58:.\Generated_Source\PSoC4/CapSense.c **** uint8 CapSense_sensorEnableMaskBackup[(((CapSense_TOTAL_SENSOR_COUNT - 1u) / 8u) + 1u)];
  59:.\Generated_Source\PSoC4/CapSense.c **** 
  60:.\Generated_Source\PSoC4/CapSense.c **** /* Configured constants and arrays by Customizer */
  61:.\Generated_Source\PSoC4/CapSense.c **** uint8 CapSense_sensorEnableMask[(((CapSense_TOTAL_SENSOR_COUNT - 1u) / 8u) + 1u)] = {
  62:.\Generated_Source\PSoC4/CapSense.c **** 0x1u, };
  63:.\Generated_Source\PSoC4/CapSense.c **** 
  64:.\Generated_Source\PSoC4/CapSense.c **** reg32 * CapSense_pcTable[] = {
  65:.\Generated_Source\PSoC4/CapSense.c ****     (reg32 *)CapSense_Sns__Button0__BTN__PC, 
  66:.\Generated_Source\PSoC4/CapSense.c **** };
  67:.\Generated_Source\PSoC4/CapSense.c **** 
  68:.\Generated_Source\PSoC4/CapSense.c **** const uint8 CapSense_portTable[] = {
  69:.\Generated_Source\PSoC4/CapSense.c ****     CapSense_Sns__Button0__BTN__PORT, 
  70:.\Generated_Source\PSoC4/CapSense.c **** };
  71:.\Generated_Source\PSoC4/CapSense.c **** 
  72:.\Generated_Source\PSoC4/CapSense.c **** const uint32 CapSense_maskTable[] = {
  73:.\Generated_Source\PSoC4/CapSense.c ****     CapSense_Sns__Button0__BTN__MASK, 
  74:.\Generated_Source\PSoC4/CapSense.c **** };
  75:.\Generated_Source\PSoC4/CapSense.c **** 
  76:.\Generated_Source\PSoC4/CapSense.c **** const uint8 CapSense_pinShiftTbl[] = {
  77:.\Generated_Source\PSoC4/CapSense.c ****     (uint8) CapSense_Sns__Button0__BTN__SHIFT, 
  78:.\Generated_Source\PSoC4/CapSense.c **** };
  79:.\Generated_Source\PSoC4/CapSense.c **** 
  80:.\Generated_Source\PSoC4/CapSense.c **** uint8 CapSense_modulationIDAC[CapSense_TOTAL_SENSOR_COUNT];
  81:.\Generated_Source\PSoC4/CapSense.c **** uint8 CapSense_compensationIDAC[CapSense_TOTAL_SENSOR_COUNT];
  82:.\Generated_Source\PSoC4/CapSense.c **** 
  83:.\Generated_Source\PSoC4/CapSense.c **** uint32 CapSense_widgetResolution[CapSense_RESOLUTIONS_TBL_SIZE] = {
  84:.\Generated_Source\PSoC4/CapSense.c ****     CapSense_RESOLUTION_12_BITS,
  85:.\Generated_Source\PSoC4/CapSense.c **** };
  86:.\Generated_Source\PSoC4/CapSense.c **** 
  87:.\Generated_Source\PSoC4/CapSense.c **** uint8 CapSense_senseClkDividerVal[CapSense_TOTAL_SCANSLOT_COUNT];
  88:.\Generated_Source\PSoC4/CapSense.c **** uint8 CapSense_sampleClkDividerVal[CapSense_TOTAL_SCANSLOT_COUNT];
  89:.\Generated_Source\PSoC4/CapSense.c **** 
  90:.\Generated_Source\PSoC4/CapSense.c **** const uint8 CapSense_widgetNumber[CapSense_TOTAL_SENSOR_COUNT] = {
  91:.\Generated_Source\PSoC4/CapSense.c ****     0u, /* Button0__BTN */
  92:.\Generated_Source\PSoC4/CapSense.c **** };
  93:.\Generated_Source\PSoC4/CapSense.c **** 
  94:.\Generated_Source\PSoC4/CapSense.c **** 
  95:.\Generated_Source\PSoC4/CapSense.c **** 
  96:.\Generated_Source\PSoC4/CapSense.c **** reg32* const CapSense_prtSelTbl[] = {
ARM GAS  C:\DOCUME~1\Chuck\LOCALS~1\Temp\cclVEGdP.s 			page 5


  97:.\Generated_Source\PSoC4/CapSense.c **** 	((reg32 *) CYREG_HSIOM_PORT_SEL0),
  98:.\Generated_Source\PSoC4/CapSense.c **** 	((reg32 *) CYREG_HSIOM_PORT_SEL1),
  99:.\Generated_Source\PSoC4/CapSense.c **** 	((reg32 *) CYREG_HSIOM_PORT_SEL2),
 100:.\Generated_Source\PSoC4/CapSense.c **** 	((reg32 *) CYREG_HSIOM_PORT_SEL3),
 101:.\Generated_Source\PSoC4/CapSense.c **** #if(0u == CapSense_M0S8CSD_BLOCK_VER)
 102:.\Generated_Source\PSoC4/CapSense.c **** 	((reg32 *) CYREG_HSIOM_PORT_SEL4)	
 103:.\Generated_Source\PSoC4/CapSense.c **** #endif /* (0u == CapSense_M0S8CSD_BLOCK_VER) */
 104:.\Generated_Source\PSoC4/CapSense.c **** };
 105:.\Generated_Source\PSoC4/CapSense.c **** 
 106:.\Generated_Source\PSoC4/CapSense.c **** reg32* const CapSense_prtCfgTbl[] = {
 107:.\Generated_Source\PSoC4/CapSense.c **** 	((reg32 *) CYREG_PRT0_PC),
 108:.\Generated_Source\PSoC4/CapSense.c **** 	((reg32 *) CYREG_PRT1_PC),
 109:.\Generated_Source\PSoC4/CapSense.c **** 	((reg32 *) CYREG_PRT2_PC),
 110:.\Generated_Source\PSoC4/CapSense.c **** 	((reg32 *) CYREG_PRT3_PC),
 111:.\Generated_Source\PSoC4/CapSense.c **** #if(0u == CapSense_M0S8CSD_BLOCK_VER)
 112:.\Generated_Source\PSoC4/CapSense.c **** 	((reg32 *) CYREG_PRT4_PC)	
 113:.\Generated_Source\PSoC4/CapSense.c **** #endif /* (0u == CapSense_M0S8CSD_BLOCK_VER) */	
 114:.\Generated_Source\PSoC4/CapSense.c **** };
 115:.\Generated_Source\PSoC4/CapSense.c **** 
 116:.\Generated_Source\PSoC4/CapSense.c **** reg32* const CapSense_prtDRTbl[] = {
 117:.\Generated_Source\PSoC4/CapSense.c **** 	((reg32 *) CYREG_PRT0_DR),
 118:.\Generated_Source\PSoC4/CapSense.c **** 	((reg32 *) CYREG_PRT1_DR),
 119:.\Generated_Source\PSoC4/CapSense.c **** 	((reg32 *) CYREG_PRT2_DR),
 120:.\Generated_Source\PSoC4/CapSense.c **** 	((reg32 *) CYREG_PRT3_DR),
 121:.\Generated_Source\PSoC4/CapSense.c **** #if(0u == CapSense_M0S8CSD_BLOCK_VER)
 122:.\Generated_Source\PSoC4/CapSense.c **** 	((reg32 *) CYREG_PRT4_DR),
 123:.\Generated_Source\PSoC4/CapSense.c **** #endif /* (0u == CapSense_M0S8CSD_BLOCK_VER) */	
 124:.\Generated_Source\PSoC4/CapSense.c **** };
 125:.\Generated_Source\PSoC4/CapSense.c ****     
 126:.\Generated_Source\PSoC4/CapSense.c **** 
 127:.\Generated_Source\PSoC4/CapSense.c **** /*******************************************************************************
 128:.\Generated_Source\PSoC4/CapSense.c **** * Function Name: CapSense_Init
 129:.\Generated_Source\PSoC4/CapSense.c **** ********************************************************************************
 130:.\Generated_Source\PSoC4/CapSense.c **** *
 131:.\Generated_Source\PSoC4/CapSense.c **** * Summary:
 132:.\Generated_Source\PSoC4/CapSense.c **** *  API initializes default CapSense configuration provided by the customizer that defines 
 133:.\Generated_Source\PSoC4/CapSense.c **** *  the mode of component operations and resets all the sensors to an inactive state.
 134:.\Generated_Source\PSoC4/CapSense.c **** *
 135:.\Generated_Source\PSoC4/CapSense.c **** * Parameters:
 136:.\Generated_Source\PSoC4/CapSense.c **** *  None
 137:.\Generated_Source\PSoC4/CapSense.c **** *
 138:.\Generated_Source\PSoC4/CapSense.c **** * Return:
 139:.\Generated_Source\PSoC4/CapSense.c **** *  None
 140:.\Generated_Source\PSoC4/CapSense.c **** *
 141:.\Generated_Source\PSoC4/CapSense.c **** * Global Variables:
 142:.\Generated_Source\PSoC4/CapSense.c **** *  CapSense_immunityIndex - defines immunity level.
 143:.\Generated_Source\PSoC4/CapSense.c **** *
 144:.\Generated_Source\PSoC4/CapSense.c **** * Side Effects:
 145:.\Generated_Source\PSoC4/CapSense.c **** *  None
 146:.\Generated_Source\PSoC4/CapSense.c **** * 
 147:.\Generated_Source\PSoC4/CapSense.c **** *******************************************************************************/
 148:.\Generated_Source\PSoC4/CapSense.c **** void CapSense_Init(void)
 149:.\Generated_Source\PSoC4/CapSense.c **** {   
 133              		.loc 1 149 0
 134              		.cfi_startproc
 135 0000 80B5     		push	{r7, lr}
 136              	.LCFI0:
ARM GAS  C:\DOCUME~1\Chuck\LOCALS~1\Temp\cclVEGdP.s 			page 6


 137              		.cfi_def_cfa_offset 8
 138              		.cfi_offset 7, -8
 139              		.cfi_offset 14, -4
 140 0002 82B0     		sub	sp, sp, #8
 141              	.LCFI1:
 142              		.cfi_def_cfa_offset 16
 143 0004 00AF     		add	r7, sp, #0
 144              	.LCFI2:
 145              		.cfi_def_cfa_register 7
 150:.\Generated_Source\PSoC4/CapSense.c **** 	uint32 curSensor;
 151:.\Generated_Source\PSoC4/CapSense.c **** 	
 152:.\Generated_Source\PSoC4/CapSense.c **** 	#if(CapSense_IS_SHIELD_ENABLE)
 153:.\Generated_Source\PSoC4/CapSense.c **** 		
 154:.\Generated_Source\PSoC4/CapSense.c **** 		#if((CapSense_CSH_TANK_PREGARGE_OPTION == CapSense__CAPPRIOBUF) || (0u != CapSense_CSH_TANK_ENABL
 155:.\Generated_Source\PSoC4/CapSense.c **** 			uint32 newRegValue;
 156:.\Generated_Source\PSoC4/CapSense.c **** 			
 157:.\Generated_Source\PSoC4/CapSense.c **** 			newRegValue = CapSense_CTANK_CONNECTION_REG;
 158:.\Generated_Source\PSoC4/CapSense.c **** 	        newRegValue &= ~(CapSense_CSD_CTANK_CONNECTION_MASK);
 159:.\Generated_Source\PSoC4/CapSense.c **** 			newRegValue |= CapSense_CSD_CTANK_TO_AMUXBUS_B;
 160:.\Generated_Source\PSoC4/CapSense.c **** 	        CapSense_CTANK_CONNECTION_REG = newRegValue;
 161:.\Generated_Source\PSoC4/CapSense.c **** 			
 162:.\Generated_Source\PSoC4/CapSense.c **** 			#if(CapSense_CSH_TANK_PREGARGE_OPTION == CapSense__CAPPRIOBUF)
 163:.\Generated_Source\PSoC4/CapSense.c **** 				newRegValue = CapSense_CTANK_PORT_PC_REG;
 164:.\Generated_Source\PSoC4/CapSense.c **** 		        newRegValue &= ~(CapSense_CSD_CTANK_PC_MASK);
 165:.\Generated_Source\PSoC4/CapSense.c **** 				newRegValue |= CapSense_CTANK_PC_STRONG_MODE;
 166:.\Generated_Source\PSoC4/CapSense.c **** 		        CapSense_CTANK_PORT_PC_REG = newRegValue;
 167:.\Generated_Source\PSoC4/CapSense.c **** 				
 168:.\Generated_Source\PSoC4/CapSense.c **** 				newRegValue = CapSense_CTANK_PORT_DR_REG;
 169:.\Generated_Source\PSoC4/CapSense.c **** 		        newRegValue &= ~(CapSense_CTANK_DR_MASK);
 170:.\Generated_Source\PSoC4/CapSense.c **** 				newRegValue |= CapSense_CTANK_DR_CONFIG;
 171:.\Generated_Source\PSoC4/CapSense.c **** 		        CapSense_CTANK_PORT_DR_REG = newRegValue;
 172:.\Generated_Source\PSoC4/CapSense.c **** 			#endif /* (CapSense_CSH_TANK_PREGARGE_OPTION == CapSense__CAPPRIOBUF) */
 173:.\Generated_Source\PSoC4/CapSense.c **** 	        
 174:.\Generated_Source\PSoC4/CapSense.c **** 		#endif /* ((CapSense_CSH_TANK_PREGARGE_OPTION == CapSense__CAPPRIOBUF) || (CapSense_CSH_TANK_ENAB
 175:.\Generated_Source\PSoC4/CapSense.c **** 		
 176:.\Generated_Source\PSoC4/CapSense.c **** 		CapSense_EnableShieldElectrode((uint32)CapSense_SHIELD_PIN_NUMBER, (uint32)CapSense_SHIELD_PORT_N
 177:.\Generated_Source\PSoC4/CapSense.c **** 		
 178:.\Generated_Source\PSoC4/CapSense.c **** 	#endif /* (CapSense_IS_SHIELD_ENABLE) */
 179:.\Generated_Source\PSoC4/CapSense.c **** 	
 180:.\Generated_Source\PSoC4/CapSense.c **** 	for(curSensor = 0u; curSensor < CapSense_TOTAL_SENSOR_COUNT; curSensor++)
 146              		.loc 1 180 0
 147 0006 0023     		mov	r3, #0
 148 0008 7B60     		str	r3, [r7, #4]
 149 000a 07E0     		b	.L2
 150              	.L3:
 181:.\Generated_Source\PSoC4/CapSense.c **** 	{
 182:.\Generated_Source\PSoC4/CapSense.c **** 		CapSense_unscannedSnsDriveMode[curSensor] = CapSense_CONNECT_INACTIVE_SNS;
 151              		.loc 1 182 0 discriminator 2
 152 000c 0A4A     		ldr	r2, .L4
 153 000e 7B68     		ldr	r3, [r7, #4]
 154 0010 D318     		add	r3, r2, r3
 155 0012 0022     		mov	r2, #0
 156 0014 1A70     		strb	r2, [r3]
 180:.\Generated_Source\PSoC4/CapSense.c **** 	for(curSensor = 0u; curSensor < CapSense_TOTAL_SENSOR_COUNT; curSensor++)
 157              		.loc 1 180 0 discriminator 2
 158 0016 7B68     		ldr	r3, [r7, #4]
 159 0018 0133     		add	r3, r3, #1
ARM GAS  C:\DOCUME~1\Chuck\LOCALS~1\Temp\cclVEGdP.s 			page 7


 160 001a 7B60     		str	r3, [r7, #4]
 161              	.L2:
 180:.\Generated_Source\PSoC4/CapSense.c **** 	for(curSensor = 0u; curSensor < CapSense_TOTAL_SENSOR_COUNT; curSensor++)
 162              		.loc 1 180 0 is_stmt 0 discriminator 1
 163 001c 7B68     		ldr	r3, [r7, #4]
 164 001e 002B     		cmp	r3, #0
 165 0020 F4D0     		beq	.L3
 183:.\Generated_Source\PSoC4/CapSense.c **** 	}
 184:.\Generated_Source\PSoC4/CapSense.c ****     
 185:.\Generated_Source\PSoC4/CapSense.c **** 	CapSense_CsdHwBlockInit();
 166              		.loc 1 185 0 is_stmt 1
 167 0022 FFF7FEFF 		bl	CapSense_CsdHwBlockInit
 186:.\Generated_Source\PSoC4/CapSense.c ****     CapSense_SetShieldDelay(CapSense_SHIELD_DELAY );
 168              		.loc 1 186 0
 169 0026 0020     		mov	r0, #0
 170 0028 FFF7FEFF 		bl	CapSense_SetShieldDelay
 187:.\Generated_Source\PSoC4/CapSense.c **** 	
 188:.\Generated_Source\PSoC4/CapSense.c **** 	/* Clear all sensors */
 189:.\Generated_Source\PSoC4/CapSense.c ****     CapSense_ClearSensors();
 171              		.loc 1 189 0
 172 002c FFF7FEFF 		bl	CapSense_ClearSensors
 190:.\Generated_Source\PSoC4/CapSense.c **** }
 173              		.loc 1 190 0
 174 0030 BD46     		mov	sp, r7
 175 0032 02B0     		add	sp, sp, #8
 176              		@ sp needed for prologue
 177 0034 80BD     		pop	{r7, pc}
 178              	.L5:
 179 0036 C046     		.align	2
 180              	.L4:
 181 0038 00000000 		.word	CapSense_unscannedSnsDriveMode
 182              		.cfi_endproc
 183              	.LFE33:
 184              		.size	CapSense_Init, .-CapSense_Init
 185              		.section	.text.CapSense_CsdHwBlockInit,"ax",%progbits
 186              		.align	2
 187              		.global	CapSense_CsdHwBlockInit
 188              		.code	16
 189              		.thumb_func
 190              		.type	CapSense_CsdHwBlockInit, %function
 191              	CapSense_CsdHwBlockInit:
 192              	.LFB34:
 191:.\Generated_Source\PSoC4/CapSense.c **** 
 192:.\Generated_Source\PSoC4/CapSense.c **** /*******************************************************************************
 193:.\Generated_Source\PSoC4/CapSense.c **** * Function Name: CapSense_CsdHwBlockInit
 194:.\Generated_Source\PSoC4/CapSense.c **** ********************************************************************************
 195:.\Generated_Source\PSoC4/CapSense.c **** *
 196:.\Generated_Source\PSoC4/CapSense.c **** * Summary:
 197:.\Generated_Source\PSoC4/CapSense.c **** *  Initialises the hardware parameters of the CSD block 
 198:.\Generated_Source\PSoC4/CapSense.c **** *
 199:.\Generated_Source\PSoC4/CapSense.c **** * Parameters:
 200:.\Generated_Source\PSoC4/CapSense.c **** *  None
 201:.\Generated_Source\PSoC4/CapSense.c **** *
 202:.\Generated_Source\PSoC4/CapSense.c **** * Return:
 203:.\Generated_Source\PSoC4/CapSense.c **** *  None
 204:.\Generated_Source\PSoC4/CapSense.c **** *
 205:.\Generated_Source\PSoC4/CapSense.c **** * Global Variables:
ARM GAS  C:\DOCUME~1\Chuck\LOCALS~1\Temp\cclVEGdP.s 			page 8


 206:.\Generated_Source\PSoC4/CapSense.c **** *  CapSense_csdTrim1 - Contains IDAC trim register value for Sourcing Mode.
 207:.\Generated_Source\PSoC4/CapSense.c **** *  CapSense_csdTrim2 - Contains IDAC trim register value for Sinking Mode.
 208:.\Generated_Source\PSoC4/CapSense.c **** *
 209:.\Generated_Source\PSoC4/CapSense.c **** * Side Effects:
 210:.\Generated_Source\PSoC4/CapSense.c **** *  None
 211:.\Generated_Source\PSoC4/CapSense.c **** * 
 212:.\Generated_Source\PSoC4/CapSense.c **** *******************************************************************************/
 213:.\Generated_Source\PSoC4/CapSense.c **** void CapSense_CsdHwBlockInit(void)
 214:.\Generated_Source\PSoC4/CapSense.c **** {
 193              		.loc 1 214 0
 194              		.cfi_startproc
 195 0000 80B5     		push	{r7, lr}
 196              	.LCFI3:
 197              		.cfi_def_cfa_offset 8
 198              		.cfi_offset 7, -8
 199              		.cfi_offset 14, -4
 200 0002 82B0     		sub	sp, sp, #8
 201              	.LCFI4:
 202              		.cfi_def_cfa_offset 16
 203 0004 00AF     		add	r7, sp, #0
 204              	.LCFI5:
 205              		.cfi_def_cfa_register 7
 215:.\Generated_Source\PSoC4/CapSense.c **** 	uint32 newRegValue;
 216:.\Generated_Source\PSoC4/CapSense.c **** 	
 217:.\Generated_Source\PSoC4/CapSense.c **** 	    /* Set trim registers for CSD Mode */ 
 218:.\Generated_Source\PSoC4/CapSense.c ****     #if (CapSense_IDAC1_POLARITY == CapSense__IDAC_SINK)
 219:.\Generated_Source\PSoC4/CapSense.c **** 		/* iDAC1 Sinking Mode */ 
 220:.\Generated_Source\PSoC4/CapSense.c **** 		CapSense_csdTrim2 = (uint8)CapSense_CSD_TRIM2_REG;
 221:.\Generated_Source\PSoC4/CapSense.c **** 		newRegValue = CapSense_csdTrim2;
 222:.\Generated_Source\PSoC4/CapSense.c **** 		newRegValue &= CapSense_CSD_IDAC1_TRIM_MASK;
 223:.\Generated_Source\PSoC4/CapSense.c **** 		newRegValue |= (uint32)((uint32)CapSense_SFLASH_CSD_TRIM2_REG & (uint32)CapSense_CSFLASH_TRIM_IDA
 224:.\Generated_Source\PSoC4/CapSense.c **** 		
 225:.\Generated_Source\PSoC4/CapSense.c **** 		#if (CapSense_IDAC_CNT == 2u)
 226:.\Generated_Source\PSoC4/CapSense.c **** 		    /* iDAC2 Sinking Mode */ 
 227:.\Generated_Source\PSoC4/CapSense.c **** 			newRegValue &= CapSense_CSD_IDAC2_TRIM_MASK;
 228:.\Generated_Source\PSoC4/CapSense.c **** 			newRegValue |= (uint32)((uint32)CapSense_SFLASH_CSD_TRIM2_REG & (uint32)CapSense_CSFLASH_TRIM_ID
 229:.\Generated_Source\PSoC4/CapSense.c **** 		#endif /* (CapSense_IDAC_CNT == 2u) */
 230:.\Generated_Source\PSoC4/CapSense.c **** 		CapSense_CSD_TRIM2_REG = newRegValue;
 231:.\Generated_Source\PSoC4/CapSense.c ****     #else   
 232:.\Generated_Source\PSoC4/CapSense.c **** 		/* iDAC1 Sourcing Mode */ 
 233:.\Generated_Source\PSoC4/CapSense.c **** 		CapSense_csdTrim1 = (uint8)CapSense_CSD_TRIM1_REG;
 206              		.loc 1 233 0
 207 0006 244B     		ldr	r3, .L7
 208 0008 1B68     		ldr	r3, [r3]
 209 000a DAB2     		uxtb	r2, r3
 210 000c 234B     		ldr	r3, .L7+4
 211 000e 1A70     		strb	r2, [r3]
 234:.\Generated_Source\PSoC4/CapSense.c **** 		newRegValue = CapSense_csdTrim1;
 212              		.loc 1 234 0
 213 0010 224B     		ldr	r3, .L7+4
 214 0012 1B78     		ldrb	r3, [r3]
 215 0014 7B60     		str	r3, [r7, #4]
 235:.\Generated_Source\PSoC4/CapSense.c **** 		newRegValue &= CapSense_CSD_IDAC1_TRIM_MASK;
 216              		.loc 1 235 0
 217 0016 7B68     		ldr	r3, [r7, #4]
 218 0018 0F22     		mov	r2, #15
 219 001a 9343     		bic	r3, r2
ARM GAS  C:\DOCUME~1\Chuck\LOCALS~1\Temp\cclVEGdP.s 			page 9


 220 001c 7B60     		str	r3, [r7, #4]
 236:.\Generated_Source\PSoC4/CapSense.c **** 		newRegValue |= (uint32)((uint32)CapSense_SFLASH_CSD_TRIM1_REG & (uint32)CapSense_CSFLASH_TRIM_IDA
 221              		.loc 1 236 0
 222 001e 204B     		ldr	r3, .L7+8
 223 0020 1B78     		ldrb	r3, [r3]
 224 0022 DBB2     		uxtb	r3, r3
 225 0024 1A1C     		mov	r2, r3
 226 0026 0F23     		mov	r3, #15
 227 0028 1340     		and	r3, r2
 228 002a 7A68     		ldr	r2, [r7, #4]
 229 002c 1343     		orr	r3, r2
 230 002e 7B60     		str	r3, [r7, #4]
 237:.\Generated_Source\PSoC4/CapSense.c **** 		#if (CapSense_IDAC_CNT == 2u)
 238:.\Generated_Source\PSoC4/CapSense.c **** 		     /* iDAC2 Sourcing Mode */ 
 239:.\Generated_Source\PSoC4/CapSense.c **** 			newRegValue &= CapSense_CSD_IDAC2_TRIM_MASK;
 231              		.loc 1 239 0
 232 0030 7B68     		ldr	r3, [r7, #4]
 233 0032 F022     		mov	r2, #240
 234 0034 9343     		bic	r3, r2
 235 0036 7B60     		str	r3, [r7, #4]
 240:.\Generated_Source\PSoC4/CapSense.c **** 			newRegValue |= (uint32)((uint32)CapSense_SFLASH_CSD_TRIM1_REG & (uint32)CapSense_CSFLASH_TRIM_ID
 236              		.loc 1 240 0
 237 0038 194B     		ldr	r3, .L7+8
 238 003a 1B78     		ldrb	r3, [r3]
 239 003c DBB2     		uxtb	r3, r3
 240 003e 1A1C     		mov	r2, r3
 241 0040 F023     		mov	r3, #240
 242 0042 1340     		and	r3, r2
 243 0044 7A68     		ldr	r2, [r7, #4]
 244 0046 1343     		orr	r3, r2
 245 0048 7B60     		str	r3, [r7, #4]
 241:.\Generated_Source\PSoC4/CapSense.c **** 		#endif		
 242:.\Generated_Source\PSoC4/CapSense.c **** 		CapSense_CSD_TRIM1_REG = newRegValue;
 246              		.loc 1 242 0
 247 004a 134B     		ldr	r3, .L7
 248 004c 7A68     		ldr	r2, [r7, #4]
 249 004e 1A60     		str	r2, [r3]
 243:.\Generated_Source\PSoC4/CapSense.c ****     #endif /* (CapSense_IDAC1_POLARITY == CapSense__IDAC_SINK) */
 244:.\Generated_Source\PSoC4/CapSense.c **** 	
 245:.\Generated_Source\PSoC4/CapSense.c **** 	/* Configure CSD and IDAC */
 246:.\Generated_Source\PSoC4/CapSense.c **** 	#if (CapSense_IDAC_CNT > 1u)
 247:.\Generated_Source\PSoC4/CapSense.c **** 		CapSense_CSD_IDAC_REG = CapSense_DEFAULT_CSD_IDAC_CONFIG;
 250              		.loc 1 247 0
 251 0050 144B     		ldr	r3, .L7+12
 252 0052 154A     		ldr	r2, .L7+16
 253 0054 1A60     		str	r2, [r3]
 248:.\Generated_Source\PSoC4/CapSense.c **** 		CapSense_CSD_CFG_REG = CapSense_DEFAULT_CSD_CONFIG;
 254              		.loc 1 248 0
 255 0056 154B     		ldr	r3, .L7+20
 256 0058 154A     		ldr	r2, .L7+24
 257 005a 1A60     		str	r2, [r3]
 249:.\Generated_Source\PSoC4/CapSense.c **** 	#else
 250:.\Generated_Source\PSoC4/CapSense.c **** 		CapSense_CSD_IDAC_REG &= ~(CapSense_CSD_IDAC1_MODE_MASK  | CapSense_CSD_IDAC1_DATA_MASK);
 251:.\Generated_Source\PSoC4/CapSense.c **** 		CapSense_CSD_IDAC_REG |= CapSense_DEFAULT_CSD_IDAC_CONFIG;
 252:.\Generated_Source\PSoC4/CapSense.c **** 		
 253:.\Generated_Source\PSoC4/CapSense.c **** 		CapSense_CSD_CFG_REG &= ~(CapSense_CSD_CONFIG_MASK);
 254:.\Generated_Source\PSoC4/CapSense.c **** 		CapSense_CSD_CFG_REG |= (CapSense_DEFAULT_CSD_CONFIG);
ARM GAS  C:\DOCUME~1\Chuck\LOCALS~1\Temp\cclVEGdP.s 			page 10


 255:.\Generated_Source\PSoC4/CapSense.c **** 	#endif /* (CapSense_IDAC_CNT > 1u) */
 256:.\Generated_Source\PSoC4/CapSense.c **** 	
 257:.\Generated_Source\PSoC4/CapSense.c **** 	
 258:.\Generated_Source\PSoC4/CapSense.c **** 	/* Connect Cmod to AMUX bus */ 
 259:.\Generated_Source\PSoC4/CapSense.c **** 	newRegValue = CapSense_CMOD_CONNECTION_REG; 
 258              		.loc 1 259 0
 259 005c 154B     		ldr	r3, .L7+28
 260 005e 1B68     		ldr	r3, [r3]
 261 0060 7B60     		str	r3, [r7, #4]
 260:.\Generated_Source\PSoC4/CapSense.c ****     newRegValue &= ~(CapSense_CSD_CMOD_CONNECTION_MASK);
 262              		.loc 1 260 0
 263 0062 7A68     		ldr	r2, [r7, #4]
 264 0064 144B     		ldr	r3, .L7+32
 265 0066 1340     		and	r3, r2
 266 0068 7B60     		str	r3, [r7, #4]
 261:.\Generated_Source\PSoC4/CapSense.c ****     newRegValue |= CapSense_CSD_CMOD_TO_AMUXBUS_A;
 267              		.loc 1 261 0
 268 006a 7B68     		ldr	r3, [r7, #4]
 269 006c C022     		mov	r2, #192
 270 006e D200     		lsl	r2, r2, #3
 271 0070 1343     		orr	r3, r2
 272 0072 7B60     		str	r3, [r7, #4]
 262:.\Generated_Source\PSoC4/CapSense.c ****     CapSense_CMOD_CONNECTION_REG = newRegValue;
 273              		.loc 1 262 0
 274 0074 0F4B     		ldr	r3, .L7+28
 275 0076 7A68     		ldr	r2, [r7, #4]
 276 0078 1A60     		str	r2, [r3]
 263:.\Generated_Source\PSoC4/CapSense.c **** 	
 264:.\Generated_Source\PSoC4/CapSense.c **** 	/* Configure Dead Band PWM if it is enabled */
 265:.\Generated_Source\PSoC4/CapSense.c **** 	#if(CapSense_CSD_4B_PWM_MODE != CapSense__PWM_OFF)
 266:.\Generated_Source\PSoC4/CapSense.c **** 		CapSense_CSD_4B_PWM_REG = CapSense_DEFAULT_CSD_4B_PWM_CONFIG;
 267:.\Generated_Source\PSoC4/CapSense.c **** 	#endif /* (CapSense_CSD_4B_PWM_MODE != CapSense__PWM_OFF) */
 268:.\Generated_Source\PSoC4/CapSense.c **** 
 269:.\Generated_Source\PSoC4/CapSense.c **** 	/* Setup ISR */
 270:.\Generated_Source\PSoC4/CapSense.c **** 	CyIntDisable(CapSense_ISR_NUMBER);
 277              		.loc 1 270 0
 278 007a 0F20     		mov	r0, #15
 279 007c FFF7FEFF 		bl	CyIntDisable
 271:.\Generated_Source\PSoC4/CapSense.c **** 	#if !defined(CY_EXTERNAL_INTERRUPT_CONFIG)		
 272:.\Generated_Source\PSoC4/CapSense.c **** 	    (void)CyIntSetVector(CapSense_ISR_NUMBER, &CapSense_ISR);
 280              		.loc 1 272 0
 281 0080 0E4B     		ldr	r3, .L7+36
 282 0082 0F20     		mov	r0, #15
 283 0084 191C     		mov	r1, r3
 284 0086 FFF7FEFF 		bl	CyIntSetVector
 273:.\Generated_Source\PSoC4/CapSense.c **** 	    CyIntSetPriority(CapSense_ISR_NUMBER, CapSense_ISR_PRIORITY);
 285              		.loc 1 273 0
 286 008a 0F20     		mov	r0, #15
 287 008c 0321     		mov	r1, #3
 288 008e FFF7FEFF 		bl	CyIntSetPriority
 274:.\Generated_Source\PSoC4/CapSense.c **** 	#endif /* (CY_EXTERNAL_INTERRUPT_CONFIG) */
 275:.\Generated_Source\PSoC4/CapSense.c **** }
 289              		.loc 1 275 0
 290 0092 BD46     		mov	sp, r7
 291 0094 02B0     		add	sp, sp, #8
 292              		@ sp needed for prologue
 293 0096 80BD     		pop	{r7, pc}
ARM GAS  C:\DOCUME~1\Chuck\LOCALS~1\Temp\cclVEGdP.s 			page 11


 294              	.L8:
 295              		.align	2
 296              	.L7:
 297 0098 00FF0840 		.word	1074331392
 298 009c 00000000 		.word	CapSense_csdTrim1
 299 00a0 62F1FF0F 		.word	268431714
 300 00a4 08000840 		.word	1074266120
 301 00a8 00020001 		.word	16777728
 302 00ac 04000840 		.word	1074266116
 303 00b0 0008A001 		.word	27265024
 304 00b4 10000140 		.word	1073807376
 305 00b8 FFF0FFFF 		.word	-3841
 306 00bc 00000000 		.word	CapSense_ISR
 307              		.cfi_endproc
 308              	.LFE34:
 309              		.size	CapSense_CsdHwBlockInit, .-CapSense_CsdHwBlockInit
 310              		.section	.text.CapSense_Enable,"ax",%progbits
 311              		.align	2
 312              		.global	CapSense_Enable
 313              		.code	16
 314              		.thumb_func
 315              		.type	CapSense_Enable, %function
 316              	CapSense_Enable:
 317              	.LFB35:
 276:.\Generated_Source\PSoC4/CapSense.c **** 
 277:.\Generated_Source\PSoC4/CapSense.c **** 
 278:.\Generated_Source\PSoC4/CapSense.c **** /*******************************************************************************
 279:.\Generated_Source\PSoC4/CapSense.c **** * Function Name: CapSense_Enable
 280:.\Generated_Source\PSoC4/CapSense.c **** ********************************************************************************
 281:.\Generated_Source\PSoC4/CapSense.c **** *
 282:.\Generated_Source\PSoC4/CapSense.c **** * Summary:
 283:.\Generated_Source\PSoC4/CapSense.c **** *  Enables the CSD block and related resources to an active mode.
 284:.\Generated_Source\PSoC4/CapSense.c **** *
 285:.\Generated_Source\PSoC4/CapSense.c **** * Parameters:
 286:.\Generated_Source\PSoC4/CapSense.c **** *  None
 287:.\Generated_Source\PSoC4/CapSense.c **** *
 288:.\Generated_Source\PSoC4/CapSense.c **** * Return:
 289:.\Generated_Source\PSoC4/CapSense.c **** *  None
 290:.\Generated_Source\PSoC4/CapSense.c **** *
 291:.\Generated_Source\PSoC4/CapSense.c **** * Global Variables:
 292:.\Generated_Source\PSoC4/CapSense.c **** *  None.
 293:.\Generated_Source\PSoC4/CapSense.c **** *
 294:.\Generated_Source\PSoC4/CapSense.c **** * Side Effects:
 295:.\Generated_Source\PSoC4/CapSense.c **** *  None
 296:.\Generated_Source\PSoC4/CapSense.c **** * 
 297:.\Generated_Source\PSoC4/CapSense.c **** *******************************************************************************/
 298:.\Generated_Source\PSoC4/CapSense.c **** void CapSense_Enable(void)
 299:.\Generated_Source\PSoC4/CapSense.c **** {
 318              		.loc 1 299 0
 319              		.cfi_startproc
 320 0000 80B5     		push	{r7, lr}
 321              	.LCFI6:
 322              		.cfi_def_cfa_offset 8
 323              		.cfi_offset 7, -8
 324              		.cfi_offset 14, -4
 325 0002 82B0     		sub	sp, sp, #8
 326              	.LCFI7:
ARM GAS  C:\DOCUME~1\Chuck\LOCALS~1\Temp\cclVEGdP.s 			page 12


 327              		.cfi_def_cfa_offset 16
 328 0004 00AF     		add	r7, sp, #0
 329              	.LCFI8:
 330              		.cfi_def_cfa_register 7
 300:.\Generated_Source\PSoC4/CapSense.c ****     uint32 newRegValue;
 301:.\Generated_Source\PSoC4/CapSense.c ****     
 302:.\Generated_Source\PSoC4/CapSense.c ****     /* Enable Clocks */
 303:.\Generated_Source\PSoC4/CapSense.c **** 	CapSense_SenseClk_Stop();
 331              		.loc 1 303 0
 332 0006 FFF7FEFF 		bl	CapSense_SenseClk_Stop
 304:.\Generated_Source\PSoC4/CapSense.c **** 	CapSense_SampleClk_Stop();
 333              		.loc 1 304 0
 334 000a FFF7FEFF 		bl	CapSense_SampleClk_Stop
 305:.\Generated_Source\PSoC4/CapSense.c **** 	
 306:.\Generated_Source\PSoC4/CapSense.c **** 	CapSense_SampleClk_SetDividerValue((uint16)CapSense_INITIAL_CLK_DIVIDER);
 335              		.loc 1 306 0
 336 000e 0020     		mov	r0, #0
 337 0010 0021     		mov	r1, #0
 338 0012 FFF7FEFF 		bl	CapSense_SampleClk_SetFractionalDividerRegister
 307:.\Generated_Source\PSoC4/CapSense.c **** 	CapSense_SenseClk_SetDividerValue((uint16)CapSense_INITIAL_CLK_DIVIDER);
 339              		.loc 1 307 0
 340 0016 0020     		mov	r0, #0
 341 0018 0021     		mov	r1, #0
 342 001a FFF7FEFF 		bl	CapSense_SenseClk_SetFractionalDividerRegister
 308:.\Generated_Source\PSoC4/CapSense.c **** 	
 309:.\Generated_Source\PSoC4/CapSense.c **** 	#if (0u == CapSense_IS_M0S8PERI_BLOCK)
 310:.\Generated_Source\PSoC4/CapSense.c **** 		CapSense_SenseClk_Start();
 343              		.loc 1 310 0
 344 001e FFF7FEFF 		bl	CapSense_SenseClk_Start
 311:.\Generated_Source\PSoC4/CapSense.c **** 		CapSense_SampleClk_Start();
 345              		.loc 1 311 0
 346 0022 FFF7FEFF 		bl	CapSense_SampleClk_Start
 312:.\Generated_Source\PSoC4/CapSense.c **** 	#else
 313:.\Generated_Source\PSoC4/CapSense.c **** 		CapSense_SampleClk_Start();
 314:.\Generated_Source\PSoC4/CapSense.c **** 		CapSense_SenseClk_StartEx(CapSense_SampleClk__DIV_ID);
 315:.\Generated_Source\PSoC4/CapSense.c **** 	#endif /* (0u == CapSense_IS_M0S8PERI_BLOCK) */
 316:.\Generated_Source\PSoC4/CapSense.c **** 	
 317:.\Generated_Source\PSoC4/CapSense.c **** 	/* Enable the CSD block */
 318:.\Generated_Source\PSoC4/CapSense.c ****     newRegValue = CapSense_CSD_CFG_REG;
 347              		.loc 1 318 0
 348 0026 084B     		ldr	r3, .L10
 349 0028 1B68     		ldr	r3, [r3]
 350 002a 7B60     		str	r3, [r7, #4]
 319:.\Generated_Source\PSoC4/CapSense.c ****     newRegValue |= (CapSense_CSD_CFG_ENABLE | CapSense_CSD_CFG_SENSE_COMP_EN 
 351              		.loc 1 319 0
 352 002c 7B68     		ldr	r3, [r7, #4]
 353 002e 074A     		ldr	r2, .L10+4
 354 0030 1343     		orr	r3, r2
 355 0032 7B60     		str	r3, [r7, #4]
 320:.\Generated_Source\PSoC4/CapSense.c ****                                                    | CapSense_CSD_CFG_SENSE_EN);    
 321:.\Generated_Source\PSoC4/CapSense.c ****     CapSense_CSD_CFG_REG = newRegValue;
 356              		.loc 1 321 0
 357 0034 044B     		ldr	r3, .L10
 358 0036 7A68     		ldr	r2, [r7, #4]
 359 0038 1A60     		str	r2, [r3]
 322:.\Generated_Source\PSoC4/CapSense.c **** 
 323:.\Generated_Source\PSoC4/CapSense.c ****     /* Enable interrupt */
ARM GAS  C:\DOCUME~1\Chuck\LOCALS~1\Temp\cclVEGdP.s 			page 13


 324:.\Generated_Source\PSoC4/CapSense.c ****     CyIntEnable(CapSense_ISR_NUMBER);
 360              		.loc 1 324 0
 361 003a 0F20     		mov	r0, #15
 362 003c FFF7FEFF 		bl	CyIntEnable
 325:.\Generated_Source\PSoC4/CapSense.c **** }
 363              		.loc 1 325 0
 364 0040 BD46     		mov	sp, r7
 365 0042 02B0     		add	sp, sp, #8
 366              		@ sp needed for prologue
 367 0044 80BD     		pop	{r7, pc}
 368              	.L11:
 369 0046 C046     		.align	2
 370              	.L10:
 371 0048 04000840 		.word	1074266116
 372 004c 00100880 		.word	-2146955264
 373              		.cfi_endproc
 374              	.LFE35:
 375              		.size	CapSense_Enable, .-CapSense_Enable
 376              		.section	.text.CapSense_Start,"ax",%progbits
 377              		.align	2
 378              		.global	CapSense_Start
 379              		.code	16
 380              		.thumb_func
 381              		.type	CapSense_Start, %function
 382              	CapSense_Start:
 383              	.LFB36:
 326:.\Generated_Source\PSoC4/CapSense.c **** 
 327:.\Generated_Source\PSoC4/CapSense.c **** 
 328:.\Generated_Source\PSoC4/CapSense.c **** /*******************************************************************************
 329:.\Generated_Source\PSoC4/CapSense.c **** * Function Name: CapSense_Start
 330:.\Generated_Source\PSoC4/CapSense.c **** ********************************************************************************
 331:.\Generated_Source\PSoC4/CapSense.c **** *
 332:.\Generated_Source\PSoC4/CapSense.c **** * Summary:
 333:.\Generated_Source\PSoC4/CapSense.c **** *  This is the preferred method to begin the component operation. CapSense_Start() 
 334:.\Generated_Source\PSoC4/CapSense.c **** *  calls the CapSense_Init() function, and then calls the CapSense_Enable() 
 335:.\Generated_Source\PSoC4/CapSense.c **** *  function. Initializes the registers and starts the CSD method of the CapSense 
 336:.\Generated_Source\PSoC4/CapSense.c **** *  component. Resets all the sensors to an inactive state. Enables interrupts for 
 337:.\Generated_Source\PSoC4/CapSense.c **** *  sensors scanning. When the SmartSense tuning mode is selected, the tuning procedure
 338:.\Generated_Source\PSoC4/CapSense.c **** *  is applied for all the sensors. The CapSense_Start() routine must be called before 
 339:.\Generated_Source\PSoC4/CapSense.c **** *  any other API routines.
 340:.\Generated_Source\PSoC4/CapSense.c **** *
 341:.\Generated_Source\PSoC4/CapSense.c **** * Parameters:
 342:.\Generated_Source\PSoC4/CapSense.c **** *  None
 343:.\Generated_Source\PSoC4/CapSense.c **** *
 344:.\Generated_Source\PSoC4/CapSense.c **** * Return:
 345:.\Generated_Source\PSoC4/CapSense.c **** *  None
 346:.\Generated_Source\PSoC4/CapSense.c **** *
 347:.\Generated_Source\PSoC4/CapSense.c **** * Global Variables:
 348:.\Generated_Source\PSoC4/CapSense.c **** *   CapSense_initVar - used to check the initial configuration, 
 349:.\Generated_Source\PSoC4/CapSense.c **** *   modified on the first function call.
 350:.\Generated_Source\PSoC4/CapSense.c **** *  CapSense_lowLevelTuningDone - Used to notify the Tuner GUI that 
 351:.\Generated_Source\PSoC4/CapSense.c **** *   tuning of the scanning parameters is done. 
 352:.\Generated_Source\PSoC4/CapSense.c **** *
 353:.\Generated_Source\PSoC4/CapSense.c **** * Side Effects:
 354:.\Generated_Source\PSoC4/CapSense.c **** *  None
 355:.\Generated_Source\PSoC4/CapSense.c **** * 
 356:.\Generated_Source\PSoC4/CapSense.c **** *******************************************************************************/
ARM GAS  C:\DOCUME~1\Chuck\LOCALS~1\Temp\cclVEGdP.s 			page 14


 357:.\Generated_Source\PSoC4/CapSense.c **** void CapSense_Start(void)
 358:.\Generated_Source\PSoC4/CapSense.c **** {
 384              		.loc 1 358 0
 385              		.cfi_startproc
 386 0000 80B5     		push	{r7, lr}
 387              	.LCFI9:
 388              		.cfi_def_cfa_offset 8
 389              		.cfi_offset 7, -8
 390              		.cfi_offset 14, -4
 391 0002 00AF     		add	r7, sp, #0
 392              	.LCFI10:
 393              		.cfi_def_cfa_register 7
 359:.\Generated_Source\PSoC4/CapSense.c **** 	#if((0u != CapSense_AUTOCALIBRATION_ENABLE) && (CapSense_TUNING_METHOD != CapSense__TUNING_AUTO))
 360:.\Generated_Source\PSoC4/CapSense.c **** 		uint32 curSensor;
 361:.\Generated_Source\PSoC4/CapSense.c **** 		uint32 rawLevel;
 362:.\Generated_Source\PSoC4/CapSense.c **** 		uint32 widget;
 363:.\Generated_Source\PSoC4/CapSense.c ****     #endif /* ((0u != CapSense_AUTOCALIBRATION_ENABLE) && (CapSense_TUNING_METHOD != CapSense__TUNI
 364:.\Generated_Source\PSoC4/CapSense.c **** 	
 365:.\Generated_Source\PSoC4/CapSense.c ****     if (CapSense_initVar == 0u)
 394              		.loc 1 365 0
 395 0004 0C4B     		ldr	r3, .L14
 396 0006 1B78     		ldrb	r3, [r3]
 397 0008 002B     		cmp	r3, #0
 398 000a 04D1     		bne	.L13
 366:.\Generated_Source\PSoC4/CapSense.c ****     {
 367:.\Generated_Source\PSoC4/CapSense.c ****         CapSense_Init();
 399              		.loc 1 367 0
 400 000c FFF7FEFF 		bl	CapSense_Init
 368:.\Generated_Source\PSoC4/CapSense.c ****         CapSense_initVar = 1u;
 401              		.loc 1 368 0
 402 0010 094B     		ldr	r3, .L14
 403 0012 0122     		mov	r2, #1
 404 0014 1A70     		strb	r2, [r3]
 405              	.L13:
 369:.\Generated_Source\PSoC4/CapSense.c ****     }
 370:.\Generated_Source\PSoC4/CapSense.c ****     CapSense_Enable();
 406              		.loc 1 370 0
 407 0016 FFF7FEFF 		bl	CapSense_Enable
 371:.\Generated_Source\PSoC4/CapSense.c **** 	
 372:.\Generated_Source\PSoC4/CapSense.c ****     /* AutoTunning start */
 373:.\Generated_Source\PSoC4/CapSense.c ****     #if ((CapSense_TUNING_METHOD == CapSense__TUNING_AUTO) &&\
 374:.\Generated_Source\PSoC4/CapSense.c **** 		 (0u != CapSense_CSHL_API_GENERATE))
 375:.\Generated_Source\PSoC4/CapSense.c ****         /* AutoTune by sensor basis */
 376:.\Generated_Source\PSoC4/CapSense.c ****         CapSense_AutoTune();
 408              		.loc 1 376 0
 409 001a FFF7FEFF 		bl	CapSense_AutoTune
 377:.\Generated_Source\PSoC4/CapSense.c ****         CapSense_lowLevelTuningDone = 1u;
 410              		.loc 1 377 0
 411 001e 074B     		ldr	r3, .L14+4
 412 0020 0122     		mov	r2, #1
 413 0022 1A70     		strb	r2, [r3]
 378:.\Generated_Source\PSoC4/CapSense.c **** 	#else
 379:.\Generated_Source\PSoC4/CapSense.c **** 		#if(0u != CapSense_AUTOCALIBRATION_ENABLE)
 380:.\Generated_Source\PSoC4/CapSense.c **** 			
 381:.\Generated_Source\PSoC4/CapSense.c **** 			#if(CapSense_IDAC_CNT > 1u)
 382:.\Generated_Source\PSoC4/CapSense.c **** 				CapSense_CSD_IDAC_REG &= ~(CapSense_CSD_IDAC2_MODE_MASK);	
 383:.\Generated_Source\PSoC4/CapSense.c **** 			#endif /* (CapSense_IDAC_CNT > 1u) */
ARM GAS  C:\DOCUME~1\Chuck\LOCALS~1\Temp\cclVEGdP.s 			page 15


 384:.\Generated_Source\PSoC4/CapSense.c **** 			
 385:.\Generated_Source\PSoC4/CapSense.c **** 			for(curSensor = 0u; curSensor < CapSense_TOTAL_SCANSLOT_COUNT; curSensor++)
 386:.\Generated_Source\PSoC4/CapSense.c **** 			{
 387:.\Generated_Source\PSoC4/CapSense.c **** 				widget = CapSense_widgetNumber[curSensor];
 388:.\Generated_Source\PSoC4/CapSense.c **** 				rawLevel = CapSense_widgetResolution[widget] >> CapSense_RESOLUTION_OFFSET;
 389:.\Generated_Source\PSoC4/CapSense.c **** 				
 390:.\Generated_Source\PSoC4/CapSense.c **** 				/* Calibration level should be equal to 85% from scanning resolution */
 391:.\Generated_Source\PSoC4/CapSense.c **** 				rawLevel = (rawLevel * 85u) / 100u;
 392:.\Generated_Source\PSoC4/CapSense.c **** 				
 393:.\Generated_Source\PSoC4/CapSense.c **** 				CapSense_CalibrateSensor(curSensor, rawLevel, CapSense_modulationIDAC);
 394:.\Generated_Source\PSoC4/CapSense.c **** 			}
 395:.\Generated_Source\PSoC4/CapSense.c **** 			
 396:.\Generated_Source\PSoC4/CapSense.c **** 			#if(CapSense_IDAC_CNT > 1u)
 397:.\Generated_Source\PSoC4/CapSense.c **** 				for(curSensor = 0u; curSensor < CapSense_TOTAL_SCANSLOT_COUNT; curSensor++)
 398:.\Generated_Source\PSoC4/CapSense.c **** 			    {
 399:.\Generated_Source\PSoC4/CapSense.c **** 				    CapSense_compensationIDAC[curSensor] = (CapSense_modulationIDAC[curSensor] + 1u) / 2u;
 400:.\Generated_Source\PSoC4/CapSense.c **** 					CapSense_modulationIDAC[curSensor] = CapSense_modulationIDAC[curSensor] / 2u;
 401:.\Generated_Source\PSoC4/CapSense.c **** 			    }
 402:.\Generated_Source\PSoC4/CapSense.c **** 				CapSense_CSD_IDAC_REG |= CapSense_CSD_IDAC2_MODE_FIXED;
 403:.\Generated_Source\PSoC4/CapSense.c **** 			#endif /* (CapSense_IDAC_CNT > 1u) */
 404:.\Generated_Source\PSoC4/CapSense.c **** 			
 405:.\Generated_Source\PSoC4/CapSense.c ****         #endif /* (0u != CapSense_AUTOCALIBRATION_ENABLE) */ 	
 406:.\Generated_Source\PSoC4/CapSense.c ****     #endif /* ((CapSense_TUNING_METHOD == CapSense__TUNING_AUTO) &&
 407:.\Generated_Source\PSoC4/CapSense.c **** 		       (0u != CapSense_CSHL_API_GENERATE)) */	
 408:.\Generated_Source\PSoC4/CapSense.c **** 	
 409:.\Generated_Source\PSoC4/CapSense.c **** 	/* Connect sense comparator input to AMUXA */
 410:.\Generated_Source\PSoC4/CapSense.c **** 	CapSense_CSD_CFG_REG |= CapSense_CSD_CFG_SENSE_INSEL;
 414              		.loc 1 410 0
 415 0024 064B     		ldr	r3, .L14+8
 416 0026 064A     		ldr	r2, .L14+8
 417 0028 1268     		ldr	r2, [r2]
 418 002a 8021     		mov	r1, #128
 419 002c C903     		lsl	r1, r1, #15
 420 002e 0A43     		orr	r2, r1
 421 0030 1A60     		str	r2, [r3]
 411:.\Generated_Source\PSoC4/CapSense.c **** }
 422              		.loc 1 411 0
 423 0032 BD46     		mov	sp, r7
 424              		@ sp needed for prologue
 425 0034 80BD     		pop	{r7, pc}
 426              	.L15:
 427 0036 C046     		.align	2
 428              	.L14:
 429 0038 01000000 		.word	CapSense_initVar
 430 003c 00000000 		.word	CapSense_lowLevelTuningDone
 431 0040 04000840 		.word	1074266116
 432              		.cfi_endproc
 433              	.LFE36:
 434              		.size	CapSense_Start, .-CapSense_Start
 435              		.section	.text.CapSense_Stop,"ax",%progbits
 436              		.align	2
 437              		.global	CapSense_Stop
 438              		.code	16
 439              		.thumb_func
 440              		.type	CapSense_Stop, %function
 441              	CapSense_Stop:
 442              	.LFB37:
ARM GAS  C:\DOCUME~1\Chuck\LOCALS~1\Temp\cclVEGdP.s 			page 16


 412:.\Generated_Source\PSoC4/CapSense.c **** 
 413:.\Generated_Source\PSoC4/CapSense.c **** 
 414:.\Generated_Source\PSoC4/CapSense.c **** /*******************************************************************************
 415:.\Generated_Source\PSoC4/CapSense.c **** * Function Name: CapSense_Stop
 416:.\Generated_Source\PSoC4/CapSense.c **** ********************************************************************************
 417:.\Generated_Source\PSoC4/CapSense.c **** *
 418:.\Generated_Source\PSoC4/CapSense.c **** * Summary:
 419:.\Generated_Source\PSoC4/CapSense.c **** *  Stops the sensor scanning, disables component interrupts, and resets all the 
 420:.\Generated_Source\PSoC4/CapSense.c **** *  sensors to an inactive state. Disables the Active mode power template bits for
 421:.\Generated_Source\PSoC4/CapSense.c **** *  the subcomponents used within CapSense.
 422:.\Generated_Source\PSoC4/CapSense.c **** *
 423:.\Generated_Source\PSoC4/CapSense.c **** * Parameters:
 424:.\Generated_Source\PSoC4/CapSense.c **** *  None
 425:.\Generated_Source\PSoC4/CapSense.c **** *
 426:.\Generated_Source\PSoC4/CapSense.c **** * Return:
 427:.\Generated_Source\PSoC4/CapSense.c **** *  None
 428:.\Generated_Source\PSoC4/CapSense.c **** *
 429:.\Generated_Source\PSoC4/CapSense.c **** * Global Variables:
 430:.\Generated_Source\PSoC4/CapSense.c **** *  CapSense_csdTrim1 - Contains the IDAC trim register value for the Sourcing Mode.
 431:.\Generated_Source\PSoC4/CapSense.c **** *  CapSense_csdTrim2 - Contains the IDAC trim register value for vSinking Mode.
 432:.\Generated_Source\PSoC4/CapSense.c **** *
 433:.\Generated_Source\PSoC4/CapSense.c **** * Side Effects:
 434:.\Generated_Source\PSoC4/CapSense.c **** *  This function should be called after scans are completed.
 435:.\Generated_Source\PSoC4/CapSense.c **** *
 436:.\Generated_Source\PSoC4/CapSense.c **** *******************************************************************************/
 437:.\Generated_Source\PSoC4/CapSense.c **** void CapSense_Stop(void)
 438:.\Generated_Source\PSoC4/CapSense.c **** {
 443              		.loc 1 438 0
 444              		.cfi_startproc
 445 0000 80B5     		push	{r7, lr}
 446              	.LCFI11:
 447              		.cfi_def_cfa_offset 8
 448              		.cfi_offset 7, -8
 449              		.cfi_offset 14, -4
 450 0002 00AF     		add	r7, sp, #0
 451              	.LCFI12:
 452              		.cfi_def_cfa_register 7
 439:.\Generated_Source\PSoC4/CapSense.c ****     /* Disable interrupt */
 440:.\Generated_Source\PSoC4/CapSense.c ****     CyIntDisable(CapSense_ISR_NUMBER);
 453              		.loc 1 440 0
 454 0004 0F20     		mov	r0, #15
 455 0006 FFF7FEFF 		bl	CyIntDisable
 441:.\Generated_Source\PSoC4/CapSense.c **** 	
 442:.\Generated_Source\PSoC4/CapSense.c **** 	CapSense_CSD_CFG_REG &= ~(CapSense_CSD_CFG_SENSE_COMP_EN | CapSense_CSD_CFG_SENSE_EN);
 456              		.loc 1 442 0
 457 000a 094B     		ldr	r3, .L17
 458 000c 084A     		ldr	r2, .L17
 459 000e 1168     		ldr	r1, [r2]
 460 0010 084A     		ldr	r2, .L17+4
 461 0012 0A40     		and	r2, r1
 462 0014 1A60     		str	r2, [r3]
 443:.\Generated_Source\PSoC4/CapSense.c **** 	
 444:.\Generated_Source\PSoC4/CapSense.c **** 	#if(CapSense_IDAC_CNT == 2u)
 445:.\Generated_Source\PSoC4/CapSense.c **** 		CapSense_CSD_CFG_REG &= ~(CapSense_CSD_CFG_ENABLE);
 463              		.loc 1 445 0
 464 0016 064B     		ldr	r3, .L17
 465 0018 054A     		ldr	r2, .L17
ARM GAS  C:\DOCUME~1\Chuck\LOCALS~1\Temp\cclVEGdP.s 			page 17


 466 001a 1268     		ldr	r2, [r2]
 467 001c 5200     		lsl	r2, r2, #1
 468 001e 5208     		lsr	r2, r2, #1
 469 0020 1A60     		str	r2, [r3]
 446:.\Generated_Source\PSoC4/CapSense.c **** 	#endif /* (CapSense_IDAC_CNT == 2u) */
 447:.\Generated_Source\PSoC4/CapSense.c **** 
 448:.\Generated_Source\PSoC4/CapSense.c ****     /* Disable the Clocks */
 449:.\Generated_Source\PSoC4/CapSense.c ****     CapSense_SenseClk_Stop();
 470              		.loc 1 449 0
 471 0022 FFF7FEFF 		bl	CapSense_SenseClk_Stop
 450:.\Generated_Source\PSoC4/CapSense.c ****     CapSense_SampleClk_Stop();
 472              		.loc 1 450 0
 473 0026 FFF7FEFF 		bl	CapSense_SampleClk_Stop
 451:.\Generated_Source\PSoC4/CapSense.c **** }
 474              		.loc 1 451 0
 475 002a BD46     		mov	sp, r7
 476              		@ sp needed for prologue
 477 002c 80BD     		pop	{r7, pc}
 478              	.L18:
 479 002e C046     		.align	2
 480              	.L17:
 481 0030 04000840 		.word	1074266116
 482 0034 FFEFF7FF 		.word	-528385
 483              		.cfi_endproc
 484              	.LFE37:
 485              		.size	CapSense_Stop, .-CapSense_Stop
 486              		.section	.text.CapSense_FindNextSensor,"ax",%progbits
 487              		.align	2
 488              		.global	CapSense_FindNextSensor
 489              		.code	16
 490              		.thumb_func
 491              		.type	CapSense_FindNextSensor, %function
 492              	CapSense_FindNextSensor:
 493              	.LFB38:
 452:.\Generated_Source\PSoC4/CapSense.c **** 
 453:.\Generated_Source\PSoC4/CapSense.c **** 
 454:.\Generated_Source\PSoC4/CapSense.c **** /*******************************************************************************
 455:.\Generated_Source\PSoC4/CapSense.c **** * Function Name: CapSense_FindNextSensor
 456:.\Generated_Source\PSoC4/CapSense.c **** ********************************************************************************
 457:.\Generated_Source\PSoC4/CapSense.c **** *
 458:.\Generated_Source\PSoC4/CapSense.c **** * Summary:
 459:.\Generated_Source\PSoC4/CapSense.c **** *  Finds the next sensor to scan. 
 460:.\Generated_Source\PSoC4/CapSense.c **** *
 461:.\Generated_Source\PSoC4/CapSense.c **** * Parameters:
 462:.\Generated_Source\PSoC4/CapSense.c **** *  snsIndex:  Current index of sensor.
 463:.\Generated_Source\PSoC4/CapSense.c **** *
 464:.\Generated_Source\PSoC4/CapSense.c **** * Return:
 465:.\Generated_Source\PSoC4/CapSense.c **** *  Returns the next sensor index to scan.
 466:.\Generated_Source\PSoC4/CapSense.c **** *
 467:.\Generated_Source\PSoC4/CapSense.c **** * Global Variables:
 468:.\Generated_Source\PSoC4/CapSense.c **** *  CapSense_sensorEnableMask[] - used to store bit masks of the enabled sensors.
 469:.\Generated_Source\PSoC4/CapSense.c **** *
 470:.\Generated_Source\PSoC4/CapSense.c **** * Side Effects:
 471:.\Generated_Source\PSoC4/CapSense.c **** *  This function affects the  current scanning and should not
 472:.\Generated_Source\PSoC4/CapSense.c **** *  be used outside the component.
 473:.\Generated_Source\PSoC4/CapSense.c **** *
 474:.\Generated_Source\PSoC4/CapSense.c **** *******************************************************************************/
ARM GAS  C:\DOCUME~1\Chuck\LOCALS~1\Temp\cclVEGdP.s 			page 18


 475:.\Generated_Source\PSoC4/CapSense.c **** uint8 CapSense_FindNextSensor(uint8 snsIndex)
 476:.\Generated_Source\PSoC4/CapSense.c **** {
 494              		.loc 1 476 0
 495              		.cfi_startproc
 496 0000 80B5     		push	{r7, lr}
 497              	.LCFI13:
 498              		.cfi_def_cfa_offset 8
 499              		.cfi_offset 7, -8
 500              		.cfi_offset 14, -4
 501 0002 84B0     		sub	sp, sp, #16
 502              	.LCFI14:
 503              		.cfi_def_cfa_offset 24
 504 0004 00AF     		add	r7, sp, #0
 505              	.LCFI15:
 506              		.cfi_def_cfa_register 7
 507 0006 021C     		mov	r2, r0
 508 0008 FB1D     		add	r3, r7, #7
 509 000a 1A70     		strb	r2, [r3]
 510              	.L22:
 477:.\Generated_Source\PSoC4/CapSense.c ****     uint32 enableFlag;
 478:.\Generated_Source\PSoC4/CapSense.c ****     
 479:.\Generated_Source\PSoC4/CapSense.c ****     /* Check if sensor enabled */
 480:.\Generated_Source\PSoC4/CapSense.c ****     do
 481:.\Generated_Source\PSoC4/CapSense.c ****     {
 482:.\Generated_Source\PSoC4/CapSense.c ****         /* Proceed with next sensor */
 483:.\Generated_Source\PSoC4/CapSense.c ****         snsIndex++;
 511              		.loc 1 483 0
 512 000c FB1D     		add	r3, r7, #7
 513 000e FA1D     		add	r2, r7, #7
 514 0010 1278     		ldrb	r2, [r2]
 515 0012 0132     		add	r2, r2, #1
 516 0014 1A70     		strb	r2, [r3]
 484:.\Generated_Source\PSoC4/CapSense.c ****         if(snsIndex == CapSense_TOTAL_SENSOR_COUNT)
 517              		.loc 1 484 0
 518 0016 FB1D     		add	r3, r7, #7
 519 0018 1B78     		ldrb	r3, [r3]
 520 001a 012B     		cmp	r3, #1
 521 001c 0CD0     		beq	.L24
 522              	.L20:
 485:.\Generated_Source\PSoC4/CapSense.c ****         {
 486:.\Generated_Source\PSoC4/CapSense.c ****             break;
 487:.\Generated_Source\PSoC4/CapSense.c ****         }
 488:.\Generated_Source\PSoC4/CapSense.c ****         enableFlag = CapSense_GetBitValue(CapSense_sensorEnableMask, (uint32)snsIndex);
 523              		.loc 1 488 0
 524 001e FB1D     		add	r3, r7, #7
 525 0020 1B78     		ldrb	r3, [r3]
 526 0022 094A     		ldr	r2, .L25
 527 0024 101C     		mov	r0, r2
 528 0026 191C     		mov	r1, r3
 529 0028 FFF7FEFF 		bl	CapSense_GetBitValue
 530 002c 031C     		mov	r3, r0
 531 002e FB60     		str	r3, [r7, #12]
 489:.\Generated_Source\PSoC4/CapSense.c ****     }    
 490:.\Generated_Source\PSoC4/CapSense.c ****     while(enableFlag == 0u);
 532              		.loc 1 490 0
 533 0030 FB68     		ldr	r3, [r7, #12]
 534 0032 002B     		cmp	r3, #0
ARM GAS  C:\DOCUME~1\Chuck\LOCALS~1\Temp\cclVEGdP.s 			page 19


 535 0034 EAD0     		beq	.L22
 536 0036 00E0     		b	.L21
 537              	.L24:
 486:.\Generated_Source\PSoC4/CapSense.c ****             break;
 538              		.loc 1 486 0
 539 0038 C046     		mov	r8, r8
 540              	.L21:
 491:.\Generated_Source\PSoC4/CapSense.c ****     
 492:.\Generated_Source\PSoC4/CapSense.c ****     return ((uint8)snsIndex);
 541              		.loc 1 492 0
 542 003a FB1D     		add	r3, r7, #7
 543 003c 1B78     		ldrb	r3, [r3]
 493:.\Generated_Source\PSoC4/CapSense.c **** }
 544              		.loc 1 493 0
 545 003e 181C     		mov	r0, r3
 546 0040 BD46     		mov	sp, r7
 547 0042 04B0     		add	sp, sp, #16
 548              		@ sp needed for prologue
 549 0044 80BD     		pop	{r7, pc}
 550              	.L26:
 551 0046 C046     		.align	2
 552              	.L25:
 553 0048 00000000 		.word	CapSense_sensorEnableMask
 554              		.cfi_endproc
 555              	.LFE38:
 556              		.size	CapSense_FindNextSensor, .-CapSense_FindNextSensor
 557              		.section	.text.CapSense_ScanSensor,"ax",%progbits
 558              		.align	2
 559              		.global	CapSense_ScanSensor
 560              		.code	16
 561              		.thumb_func
 562              		.type	CapSense_ScanSensor, %function
 563              	CapSense_ScanSensor:
 564              	.LFB39:
 494:.\Generated_Source\PSoC4/CapSense.c **** 
 495:.\Generated_Source\PSoC4/CapSense.c **** 
 496:.\Generated_Source\PSoC4/CapSense.c **** /*******************************************************************************
 497:.\Generated_Source\PSoC4/CapSense.c **** * Function Name: CapSense_ScanSensor
 498:.\Generated_Source\PSoC4/CapSense.c **** ********************************************************************************
 499:.\Generated_Source\PSoC4/CapSense.c **** *
 500:.\Generated_Source\PSoC4/CapSense.c **** * Summary:
 501:.\Generated_Source\PSoC4/CapSense.c **** *  Sets the scan settings and starts scanning a sensor. After scanning is complete,
 502:.\Generated_Source\PSoC4/CapSense.c **** *  the ISR copies the measured sensor raw data to the global raw sensor array. 
 503:.\Generated_Source\PSoC4/CapSense.c **** *  Use of the ISR ensures this function is non-blocking. 
 504:.\Generated_Source\PSoC4/CapSense.c **** *  Each sensor has a unique number within the sensor array. 
 505:.\Generated_Source\PSoC4/CapSense.c **** *  This number is assigned by the CapSense customizer in sequence.
 506:.\Generated_Source\PSoC4/CapSense.c **** *
 507:.\Generated_Source\PSoC4/CapSense.c **** * Parameters:
 508:.\Generated_Source\PSoC4/CapSense.c **** *  sensor:  Sensor number.
 509:.\Generated_Source\PSoC4/CapSense.c **** *
 510:.\Generated_Source\PSoC4/CapSense.c **** * Return:
 511:.\Generated_Source\PSoC4/CapSense.c **** *  None
 512:.\Generated_Source\PSoC4/CapSense.c **** *
 513:.\Generated_Source\PSoC4/CapSense.c **** * Global Variables:
 514:.\Generated_Source\PSoC4/CapSense.c **** *  CapSense_csdStatusVar - used to provide the status and mode of the scanning process. 
 515:.\Generated_Source\PSoC4/CapSense.c **** *  Sets the busy status(scan in progress) and mode of scan as single scan.
 516:.\Generated_Source\PSoC4/CapSense.c **** *  CapSense_sensorIndex - used to store a sensor scanning sensor number.
ARM GAS  C:\DOCUME~1\Chuck\LOCALS~1\Temp\cclVEGdP.s 			page 20


 517:.\Generated_Source\PSoC4/CapSense.c **** *  Sets to the provided sensor argument.
 518:.\Generated_Source\PSoC4/CapSense.c **** *
 519:.\Generated_Source\PSoC4/CapSense.c **** * Side Effects:
 520:.\Generated_Source\PSoC4/CapSense.c **** *  None
 521:.\Generated_Source\PSoC4/CapSense.c **** * 
 522:.\Generated_Source\PSoC4/CapSense.c **** *******************************************************************************/
 523:.\Generated_Source\PSoC4/CapSense.c **** void CapSense_ScanSensor(uint32 sensor)
 524:.\Generated_Source\PSoC4/CapSense.c **** {
 565              		.loc 1 524 0
 566              		.cfi_startproc
 567 0000 80B5     		push	{r7, lr}
 568              	.LCFI16:
 569              		.cfi_def_cfa_offset 8
 570              		.cfi_offset 7, -8
 571              		.cfi_offset 14, -4
 572 0002 82B0     		sub	sp, sp, #8
 573              	.LCFI17:
 574              		.cfi_def_cfa_offset 16
 575 0004 00AF     		add	r7, sp, #0
 576              	.LCFI18:
 577              		.cfi_def_cfa_register 7
 578 0006 7860     		str	r0, [r7, #4]
 525:.\Generated_Source\PSoC4/CapSense.c ****     /* Clears status/control variable and set sensorIndex */
 526:.\Generated_Source\PSoC4/CapSense.c ****     CapSense_csdStatusVar = 0u;
 579              		.loc 1 526 0
 580 0008 084B     		ldr	r3, .L28
 581 000a 0022     		mov	r2, #0
 582 000c 1A70     		strb	r2, [r3]
 527:.\Generated_Source\PSoC4/CapSense.c ****     CapSense_sensorIndex = (uint8)sensor;
 583              		.loc 1 527 0
 584 000e 7B68     		ldr	r3, [r7, #4]
 585 0010 DAB2     		uxtb	r2, r3
 586 0012 074B     		ldr	r3, .L28+4
 587 0014 1A70     		strb	r2, [r3]
 528:.\Generated_Source\PSoC4/CapSense.c ****     
 529:.\Generated_Source\PSoC4/CapSense.c ****     /* Start of sensor scan */
 530:.\Generated_Source\PSoC4/CapSense.c ****     CapSense_csdStatusVar = (CapSense_SW_STS_BUSY | CapSense_SW_CTRL_SINGLE_SCAN);
 588              		.loc 1 530 0
 589 0016 054B     		ldr	r3, .L28
 590 0018 8122     		mov	r2, #129
 591 001a 1A70     		strb	r2, [r3]
 531:.\Generated_Source\PSoC4/CapSense.c ****     CapSense_PreScan(sensor);
 592              		.loc 1 531 0
 593 001c 7B68     		ldr	r3, [r7, #4]
 594 001e 181C     		mov	r0, r3
 595 0020 FFF7FEFF 		bl	CapSense_PreScan
 532:.\Generated_Source\PSoC4/CapSense.c **** }
 596              		.loc 1 532 0
 597 0024 BD46     		mov	sp, r7
 598 0026 02B0     		add	sp, sp, #8
 599              		@ sp needed for prologue
 600 0028 80BD     		pop	{r7, pc}
 601              	.L29:
 602 002a C046     		.align	2
 603              	.L28:
 604 002c 00000000 		.word	CapSense_csdStatusVar
 605 0030 00000000 		.word	CapSense_sensorIndex
ARM GAS  C:\DOCUME~1\Chuck\LOCALS~1\Temp\cclVEGdP.s 			page 21


 606              		.cfi_endproc
 607              	.LFE39:
 608              		.size	CapSense_ScanSensor, .-CapSense_ScanSensor
 609              		.section	.text.CapSense_ScanWidget,"ax",%progbits
 610              		.align	2
 611              		.global	CapSense_ScanWidget
 612              		.code	16
 613              		.thumb_func
 614              		.type	CapSense_ScanWidget, %function
 615              	CapSense_ScanWidget:
 616              	.LFB40:
 533:.\Generated_Source\PSoC4/CapSense.c **** 
 534:.\Generated_Source\PSoC4/CapSense.c **** 
 535:.\Generated_Source\PSoC4/CapSense.c **** #if(0u != CapSense_CSHL_API_GENERATE)
 536:.\Generated_Source\PSoC4/CapSense.c **** /*******************************************************************************
 537:.\Generated_Source\PSoC4/CapSense.c **** * Function Name: CapSense_ScanWidget
 538:.\Generated_Source\PSoC4/CapSense.c **** ********************************************************************************
 539:.\Generated_Source\PSoC4/CapSense.c **** *
 540:.\Generated_Source\PSoC4/CapSense.c **** * Summary:
 541:.\Generated_Source\PSoC4/CapSense.c **** *  Sets the scan settings and starts scanning a widget.
 542:.\Generated_Source\PSoC4/CapSense.c **** *
 543:.\Generated_Source\PSoC4/CapSense.c **** * Parameters:
 544:.\Generated_Source\PSoC4/CapSense.c **** *  uint32 widget: Widget number.
 545:.\Generated_Source\PSoC4/CapSense.c **** *
 546:.\Generated_Source\PSoC4/CapSense.c **** * Return:
 547:.\Generated_Source\PSoC4/CapSense.c **** *  None
 548:.\Generated_Source\PSoC4/CapSense.c **** *
 549:.\Generated_Source\PSoC4/CapSense.c **** * Global Variables:
 550:.\Generated_Source\PSoC4/CapSense.c **** *  CapSense_csdStatusVar - used to provide the status and mode of the scanning process. 
 551:.\Generated_Source\PSoC4/CapSense.c **** *  Sets the busy status(scan in progress) and clears the single scan mode.
 552:.\Generated_Source\PSoC4/CapSense.c **** *  CapSense_sensorIndex - used to store a sensor scanning sensor number.
 553:.\Generated_Source\PSoC4/CapSense.c **** *  Sets to 0xFF and provided to function CapSense_FindNextSensor or
 554:.\Generated_Source\PSoC4/CapSense.c **** *  CapSense_sensorEnableMask[] - used to store bit masks of the enabled sensors.
 555:.\Generated_Source\PSoC4/CapSense.c **** *  CapSense_sensorEnableMaskBackup[] - used to backup bit masks of the enabled
 556:.\Generated_Source\PSoC4/CapSense.c **** *   sensors.
 557:.\Generated_Source\PSoC4/CapSense.c **** *
 558:.\Generated_Source\PSoC4/CapSense.c **** * Side Effects:
 559:.\Generated_Source\PSoC4/CapSense.c **** *  None
 560:.\Generated_Source\PSoC4/CapSense.c **** * 
 561:.\Generated_Source\PSoC4/CapSense.c **** *******************************************************************************/
 562:.\Generated_Source\PSoC4/CapSense.c **** void CapSense_ScanWidget(uint32 widget)
 563:.\Generated_Source\PSoC4/CapSense.c **** {
 617              		.loc 1 563 0
 618              		.cfi_startproc
 619 0000 80B5     		push	{r7, lr}
 620              	.LCFI19:
 621              		.cfi_def_cfa_offset 8
 622              		.cfi_offset 7, -8
 623              		.cfi_offset 14, -4
 624 0002 86B0     		sub	sp, sp, #24
 625              	.LCFI20:
 626              		.cfi_def_cfa_offset 32
 627 0004 00AF     		add	r7, sp, #0
 628              	.LCFI21:
 629              		.cfi_def_cfa_register 7
 630 0006 7860     		str	r0, [r7, #4]
 564:.\Generated_Source\PSoC4/CapSense.c ****     uint32 sensorsPerWidget;
ARM GAS  C:\DOCUME~1\Chuck\LOCALS~1\Temp\cclVEGdP.s 			page 22


 565:.\Generated_Source\PSoC4/CapSense.c ****     uint32 lastSensor;
 566:.\Generated_Source\PSoC4/CapSense.c ****     uint32 snsIndex;
 567:.\Generated_Source\PSoC4/CapSense.c **** 
 568:.\Generated_Source\PSoC4/CapSense.c **** 	/* Get first sensor in widget */
 569:.\Generated_Source\PSoC4/CapSense.c **** 	CapSense_sensorIndex = CapSense_rawDataIndex[widget];
 631              		.loc 1 569 0
 632 0008 2E4A     		ldr	r2, .L39
 633 000a 7B68     		ldr	r3, [r7, #4]
 634 000c D318     		add	r3, r2, r3
 635 000e 1A78     		ldrb	r2, [r3]
 636 0010 2D4B     		ldr	r3, .L39+4
 637 0012 1A70     		strb	r2, [r3]
 570:.\Generated_Source\PSoC4/CapSense.c **** 	
 571:.\Generated_Source\PSoC4/CapSense.c **** 	/* Get number of sensors in widget */
 572:.\Generated_Source\PSoC4/CapSense.c **** 	sensorsPerWidget = CapSense_numberOfSensors[widget];
 638              		.loc 1 572 0
 639 0014 2D4A     		ldr	r2, .L39+8
 640 0016 7B68     		ldr	r3, [r7, #4]
 641 0018 D318     		add	r3, r2, r3
 642 001a 1B78     		ldrb	r3, [r3]
 643 001c 7B61     		str	r3, [r7, #20]
 573:.\Generated_Source\PSoC4/CapSense.c **** 	
 574:.\Generated_Source\PSoC4/CapSense.c **** 	/* Check if generic Sensor */
 575:.\Generated_Source\PSoC4/CapSense.c **** 	if(sensorsPerWidget == 0u)
 644              		.loc 1 575 0
 645 001e 7B69     		ldr	r3, [r7, #20]
 646 0020 002B     		cmp	r3, #0
 647 0022 01D1     		bne	.L31
 576:.\Generated_Source\PSoC4/CapSense.c **** 	{
 577:.\Generated_Source\PSoC4/CapSense.c **** 		sensorsPerWidget = 1u;
 648              		.loc 1 577 0
 649 0024 0123     		mov	r3, #1
 650 0026 7B61     		str	r3, [r7, #20]
 651              	.L31:
 578:.\Generated_Source\PSoC4/CapSense.c **** 	}
 579:.\Generated_Source\PSoC4/CapSense.c **** 	
 580:.\Generated_Source\PSoC4/CapSense.c **** 	/* Get last sensor in widget */
 581:.\Generated_Source\PSoC4/CapSense.c **** 	lastSensor = (CapSense_rawDataIndex[widget] + sensorsPerWidget) - 1u;
 652              		.loc 1 581 0
 653 0028 264A     		ldr	r2, .L39
 654 002a 7B68     		ldr	r3, [r7, #4]
 655 002c D318     		add	r3, r2, r3
 656 002e 1B78     		ldrb	r3, [r3]
 657 0030 1A1C     		mov	r2, r3
 658 0032 7B69     		ldr	r3, [r7, #20]
 659 0034 D318     		add	r3, r2, r3
 660 0036 013B     		sub	r3, r3, #1
 661 0038 FB60     		str	r3, [r7, #12]
 582:.\Generated_Source\PSoC4/CapSense.c **** 
 583:.\Generated_Source\PSoC4/CapSense.c **** 	/* Backup sensorEnableMask array */
 584:.\Generated_Source\PSoC4/CapSense.c **** 	for(snsIndex = 0u; snsIndex < CapSense_TOTAL_SENSOR_MASK; snsIndex++)
 662              		.loc 1 584 0
 663 003a 0023     		mov	r3, #0
 664 003c 3B61     		str	r3, [r7, #16]
 665 003e 0AE0     		b	.L32
 666              	.L33:
 585:.\Generated_Source\PSoC4/CapSense.c **** 	{
ARM GAS  C:\DOCUME~1\Chuck\LOCALS~1\Temp\cclVEGdP.s 			page 23


 586:.\Generated_Source\PSoC4/CapSense.c **** 		/* Backup sensorEnableMask array */
 587:.\Generated_Source\PSoC4/CapSense.c **** 		CapSense_sensorEnableMaskBackup[snsIndex] = CapSense_sensorEnableMask[snsIndex];
 667              		.loc 1 587 0 discriminator 2
 668 0040 234A     		ldr	r2, .L39+12
 669 0042 3B69     		ldr	r3, [r7, #16]
 670 0044 D318     		add	r3, r2, r3
 671 0046 1A78     		ldrb	r2, [r3]
 672 0048 2249     		ldr	r1, .L39+16
 673 004a 3B69     		ldr	r3, [r7, #16]
 674 004c CB18     		add	r3, r1, r3
 675 004e 1A70     		strb	r2, [r3]
 584:.\Generated_Source\PSoC4/CapSense.c **** 	for(snsIndex = 0u; snsIndex < CapSense_TOTAL_SENSOR_MASK; snsIndex++)
 676              		.loc 1 584 0 discriminator 2
 677 0050 3B69     		ldr	r3, [r7, #16]
 678 0052 0133     		add	r3, r3, #1
 679 0054 3B61     		str	r3, [r7, #16]
 680              	.L32:
 584:.\Generated_Source\PSoC4/CapSense.c **** 	for(snsIndex = 0u; snsIndex < CapSense_TOTAL_SENSOR_MASK; snsIndex++)
 681              		.loc 1 584 0 is_stmt 0 discriminator 1
 682 0056 3B69     		ldr	r3, [r7, #16]
 683 0058 002B     		cmp	r3, #0
 684 005a F1D0     		beq	.L33
 588:.\Generated_Source\PSoC4/CapSense.c **** 	}
 589:.\Generated_Source\PSoC4/CapSense.c **** 
 590:.\Generated_Source\PSoC4/CapSense.c **** 	/* Update sensorEnableMask to scan the sensors that belong to widget */
 591:.\Generated_Source\PSoC4/CapSense.c **** 	for(snsIndex = 0u; snsIndex < CapSense_TOTAL_SENSOR_COUNT; snsIndex++)
 685              		.loc 1 591 0 is_stmt 1
 686 005c 0023     		mov	r3, #0
 687 005e 3B61     		str	r3, [r7, #16]
 688 0060 1CE0     		b	.L34
 689              	.L37:
 592:.\Generated_Source\PSoC4/CapSense.c **** 	{
 593:.\Generated_Source\PSoC4/CapSense.c **** 		/* Update sensorEnableMask array bits to scan the widget only */ 
 594:.\Generated_Source\PSoC4/CapSense.c **** 	    if((snsIndex >= CapSense_sensorIndex) && (snsIndex <= lastSensor))
 690              		.loc 1 594 0
 691 0062 194B     		ldr	r3, .L39+4
 692 0064 1B78     		ldrb	r3, [r3]
 693 0066 DBB2     		uxtb	r3, r3
 694 0068 1A1C     		mov	r2, r3
 695 006a 3B69     		ldr	r3, [r7, #16]
 696 006c 9A42     		cmp	r2, r3
 697 006e 0BD8     		bhi	.L35
 698              		.loc 1 594 0 is_stmt 0 discriminator 1
 699 0070 3A69     		ldr	r2, [r7, #16]
 700 0072 FB68     		ldr	r3, [r7, #12]
 701 0074 9A42     		cmp	r2, r3
 702 0076 07D8     		bhi	.L35
 595:.\Generated_Source\PSoC4/CapSense.c **** 		{
 596:.\Generated_Source\PSoC4/CapSense.c **** 		    /* Set sensor bit to scan */
 597:.\Generated_Source\PSoC4/CapSense.c **** 			CapSense_SetBitValue(CapSense_sensorEnableMask, snsIndex, 1u);
 703              		.loc 1 597 0 is_stmt 1
 704 0078 154A     		ldr	r2, .L39+12
 705 007a 3B69     		ldr	r3, [r7, #16]
 706 007c 101C     		mov	r0, r2
 707 007e 191C     		mov	r1, r3
 708 0080 0122     		mov	r2, #1
 709 0082 FFF7FEFF 		bl	CapSense_SetBitValue
ARM GAS  C:\DOCUME~1\Chuck\LOCALS~1\Temp\cclVEGdP.s 			page 24


 710 0086 06E0     		b	.L36
 711              	.L35:
 598:.\Generated_Source\PSoC4/CapSense.c **** 		}
 599:.\Generated_Source\PSoC4/CapSense.c **** 		else
 600:.\Generated_Source\PSoC4/CapSense.c **** 		{
 601:.\Generated_Source\PSoC4/CapSense.c **** 		    /* Reset sensor bit to do not scan */
 602:.\Generated_Source\PSoC4/CapSense.c **** 		    CapSense_SetBitValue(CapSense_sensorEnableMask, snsIndex, 0u);
 712              		.loc 1 602 0
 713 0088 114A     		ldr	r2, .L39+12
 714 008a 3B69     		ldr	r3, [r7, #16]
 715 008c 101C     		mov	r0, r2
 716 008e 191C     		mov	r1, r3
 717 0090 0022     		mov	r2, #0
 718 0092 FFF7FEFF 		bl	CapSense_SetBitValue
 719              	.L36:
 591:.\Generated_Source\PSoC4/CapSense.c **** 	for(snsIndex = 0u; snsIndex < CapSense_TOTAL_SENSOR_COUNT; snsIndex++)
 720              		.loc 1 591 0
 721 0096 3B69     		ldr	r3, [r7, #16]
 722 0098 0133     		add	r3, r3, #1
 723 009a 3B61     		str	r3, [r7, #16]
 724              	.L34:
 591:.\Generated_Source\PSoC4/CapSense.c **** 	for(snsIndex = 0u; snsIndex < CapSense_TOTAL_SENSOR_COUNT; snsIndex++)
 725              		.loc 1 591 0 is_stmt 0 discriminator 1
 726 009c 3B69     		ldr	r3, [r7, #16]
 727 009e 002B     		cmp	r3, #0
 728 00a0 DFD0     		beq	.L37
 603:.\Generated_Source\PSoC4/CapSense.c **** 		}
 604:.\Generated_Source\PSoC4/CapSense.c **** 	}
 605:.\Generated_Source\PSoC4/CapSense.c **** 
 606:.\Generated_Source\PSoC4/CapSense.c ****     /* Check end of scan condition */
 607:.\Generated_Source\PSoC4/CapSense.c ****     if(CapSense_sensorIndex < CapSense_TOTAL_SENSOR_COUNT)
 729              		.loc 1 607 0 is_stmt 1
 730 00a2 094B     		ldr	r3, .L39+4
 731 00a4 1B78     		ldrb	r3, [r3]
 732 00a6 DBB2     		uxtb	r3, r3
 733 00a8 002B     		cmp	r3, #0
 734 00aa 08D1     		bne	.L30
 608:.\Generated_Source\PSoC4/CapSense.c ****     {
 609:.\Generated_Source\PSoC4/CapSense.c **** 		/* Set widget busy bit in status/control variable*/ 
 610:.\Generated_Source\PSoC4/CapSense.c **** 		CapSense_csdStatusVar = (CapSense_SW_STS_BUSY | CapSense_SW_CTRL_WIDGET_SCAN);
 735              		.loc 1 610 0
 736 00ac 0A4B     		ldr	r3, .L39+20
 737 00ae 4122     		mov	r2, #65
 738 00b0 1A70     		strb	r2, [r3]
 611:.\Generated_Source\PSoC4/CapSense.c **** 		/* Scan first sensor of widget*/ 
 612:.\Generated_Source\PSoC4/CapSense.c ****         CapSense_PreScan((uint32)CapSense_sensorIndex);
 739              		.loc 1 612 0
 740 00b2 054B     		ldr	r3, .L39+4
 741 00b4 1B78     		ldrb	r3, [r3]
 742 00b6 DBB2     		uxtb	r3, r3
 743 00b8 181C     		mov	r0, r3
 744 00ba FFF7FEFF 		bl	CapSense_PreScan
 745              	.L30:
 613:.\Generated_Source\PSoC4/CapSense.c ****     }
 614:.\Generated_Source\PSoC4/CapSense.c **** }
 746              		.loc 1 614 0
 747 00be BD46     		mov	sp, r7
ARM GAS  C:\DOCUME~1\Chuck\LOCALS~1\Temp\cclVEGdP.s 			page 25


 748 00c0 06B0     		add	sp, sp, #24
 749              		@ sp needed for prologue
 750 00c2 80BD     		pop	{r7, pc}
 751              	.L40:
 752              		.align	2
 753              	.L39:
 754 00c4 00000000 		.word	CapSense_rawDataIndex
 755 00c8 00000000 		.word	CapSense_sensorIndex
 756 00cc 00000000 		.word	CapSense_numberOfSensors
 757 00d0 00000000 		.word	CapSense_sensorEnableMask
 758 00d4 00000000 		.word	CapSense_sensorEnableMaskBackup
 759 00d8 00000000 		.word	CapSense_csdStatusVar
 760              		.cfi_endproc
 761              	.LFE40:
 762              		.size	CapSense_ScanWidget, .-CapSense_ScanWidget
 763              		.section	.text.CapSense_ScanEnabledWidgets,"ax",%progbits
 764              		.align	2
 765              		.global	CapSense_ScanEnabledWidgets
 766              		.code	16
 767              		.thumb_func
 768              		.type	CapSense_ScanEnabledWidgets, %function
 769              	CapSense_ScanEnabledWidgets:
 770              	.LFB41:
 615:.\Generated_Source\PSoC4/CapSense.c **** #endif /* (0u != CapSense_CSHL_API_GENERATE) */
 616:.\Generated_Source\PSoC4/CapSense.c **** 
 617:.\Generated_Source\PSoC4/CapSense.c **** 
 618:.\Generated_Source\PSoC4/CapSense.c **** /*******************************************************************************
 619:.\Generated_Source\PSoC4/CapSense.c **** * Function Name: CapSense_ScanEnableWidgets
 620:.\Generated_Source\PSoC4/CapSense.c **** ********************************************************************************
 621:.\Generated_Source\PSoC4/CapSense.c **** *
 622:.\Generated_Source\PSoC4/CapSense.c **** * Summary:
 623:.\Generated_Source\PSoC4/CapSense.c **** *  This is the preferred method to scan all of the enabled widgets. 
 624:.\Generated_Source\PSoC4/CapSense.c **** *  The API starts scanning a sensor within the enabled widgets. 
 625:.\Generated_Source\PSoC4/CapSense.c **** *  The ISR continues scanning the sensors until all the enabled widgets are scanned. 
 626:.\Generated_Source\PSoC4/CapSense.c **** *  Use of the ISR ensures this function is non-blocking.
 627:.\Generated_Source\PSoC4/CapSense.c **** *  All the widgets are enabled by default except proximity widgets. 
 628:.\Generated_Source\PSoC4/CapSense.c **** *  The proximity widgets must be manually enabled as their long scan time 
 629:.\Generated_Source\PSoC4/CapSense.c **** *  is incompatible with a fast response required of other widget types.
 630:.\Generated_Source\PSoC4/CapSense.c **** *
 631:.\Generated_Source\PSoC4/CapSense.c **** * Parameters:
 632:.\Generated_Source\PSoC4/CapSense.c **** *  None
 633:.\Generated_Source\PSoC4/CapSense.c **** *
 634:.\Generated_Source\PSoC4/CapSense.c **** * Return:
 635:.\Generated_Source\PSoC4/CapSense.c **** *  None
 636:.\Generated_Source\PSoC4/CapSense.c **** *
 637:.\Generated_Source\PSoC4/CapSense.c **** * Global Variables:
 638:.\Generated_Source\PSoC4/CapSense.c **** *  CapSense_csdStatusVar - used to provide the status and mode of the scanning process. 
 639:.\Generated_Source\PSoC4/CapSense.c **** *  Sets the busy status(scan in progress) and clears the single scan mode.
 640:.\Generated_Source\PSoC4/CapSense.c **** *  CapSense_sensorIndex - used to store a sensor scanning sensor number.
 641:.\Generated_Source\PSoC4/CapSense.c **** *  Sets to 0xFF and provided to function CapSense_FindNextSensor or
 642:.\Generated_Source\PSoC4/CapSense.c **** *
 643:.\Generated_Source\PSoC4/CapSense.c **** * Side Effects:
 644:.\Generated_Source\PSoC4/CapSense.c **** *  None
 645:.\Generated_Source\PSoC4/CapSense.c **** * 
 646:.\Generated_Source\PSoC4/CapSense.c **** *******************************************************************************/
 647:.\Generated_Source\PSoC4/CapSense.c **** void CapSense_ScanEnabledWidgets(void)
 648:.\Generated_Source\PSoC4/CapSense.c **** {
ARM GAS  C:\DOCUME~1\Chuck\LOCALS~1\Temp\cclVEGdP.s 			page 26


 771              		.loc 1 648 0
 772              		.cfi_startproc
 773 0000 80B5     		push	{r7, lr}
 774              	.LCFI22:
 775              		.cfi_def_cfa_offset 8
 776              		.cfi_offset 7, -8
 777              		.cfi_offset 14, -4
 778 0002 00AF     		add	r7, sp, #0
 779              	.LCFI23:
 780              		.cfi_def_cfa_register 7
 649:.\Generated_Source\PSoC4/CapSense.c ****     /* Clears status/control variable and set sensorIndex */
 650:.\Generated_Source\PSoC4/CapSense.c ****     CapSense_csdStatusVar = 0u;
 781              		.loc 1 650 0
 782 0004 124B     		ldr	r3, .L43
 783 0006 0022     		mov	r2, #0
 784 0008 1A70     		strb	r2, [r3]
 651:.\Generated_Source\PSoC4/CapSense.c ****     CapSense_sensorIndex = 0xFFu;
 785              		.loc 1 651 0
 786 000a 124B     		ldr	r3, .L43+4
 787 000c FF22     		mov	r2, #255
 788 000e 1A70     		strb	r2, [r3]
 652:.\Generated_Source\PSoC4/CapSense.c ****     
 653:.\Generated_Source\PSoC4/CapSense.c ****     /* Find next sensor */
 654:.\Generated_Source\PSoC4/CapSense.c ****     CapSense_sensorIndex = (uint8)CapSense_FindNextSensor(CapSense_sensorIndex);
 789              		.loc 1 654 0
 790 0010 104B     		ldr	r3, .L43+4
 791 0012 1B78     		ldrb	r3, [r3]
 792 0014 DBB2     		uxtb	r3, r3
 793 0016 181C     		mov	r0, r3
 794 0018 FFF7FEFF 		bl	CapSense_FindNextSensor
 795 001c 031C     		mov	r3, r0
 796 001e 1A1C     		mov	r2, r3
 797 0020 0C4B     		ldr	r3, .L43+4
 798 0022 1A70     		strb	r2, [r3]
 655:.\Generated_Source\PSoC4/CapSense.c **** 
 656:.\Generated_Source\PSoC4/CapSense.c ****     /* Check end of scan condition */
 657:.\Generated_Source\PSoC4/CapSense.c ****     if(CapSense_sensorIndex < CapSense_TOTAL_SENSOR_COUNT)
 799              		.loc 1 657 0
 800 0024 0B4B     		ldr	r3, .L43+4
 801 0026 1B78     		ldrb	r3, [r3]
 802 0028 DBB2     		uxtb	r3, r3
 803 002a 002B     		cmp	r3, #0
 804 002c 0DD1     		bne	.L41
 658:.\Generated_Source\PSoC4/CapSense.c ****     {
 659:.\Generated_Source\PSoC4/CapSense.c ****         CapSense_csdStatusVar |= CapSense_SW_STS_BUSY;
 805              		.loc 1 659 0
 806 002e 084B     		ldr	r3, .L43
 807 0030 1B78     		ldrb	r3, [r3]
 808 0032 DBB2     		uxtb	r3, r3
 809 0034 0122     		mov	r2, #1
 810 0036 1343     		orr	r3, r2
 811 0038 DAB2     		uxtb	r2, r3
 812 003a 054B     		ldr	r3, .L43
 813 003c 1A70     		strb	r2, [r3]
 660:.\Generated_Source\PSoC4/CapSense.c ****         CapSense_PreScan((uint32)CapSense_sensorIndex);
 814              		.loc 1 660 0
 815 003e 054B     		ldr	r3, .L43+4
ARM GAS  C:\DOCUME~1\Chuck\LOCALS~1\Temp\cclVEGdP.s 			page 27


 816 0040 1B78     		ldrb	r3, [r3]
 817 0042 DBB2     		uxtb	r3, r3
 818 0044 181C     		mov	r0, r3
 819 0046 FFF7FEFF 		bl	CapSense_PreScan
 820              	.L41:
 661:.\Generated_Source\PSoC4/CapSense.c ****     }
 662:.\Generated_Source\PSoC4/CapSense.c **** }
 821              		.loc 1 662 0
 822 004a BD46     		mov	sp, r7
 823              		@ sp needed for prologue
 824 004c 80BD     		pop	{r7, pc}
 825              	.L44:
 826 004e C046     		.align	2
 827              	.L43:
 828 0050 00000000 		.word	CapSense_csdStatusVar
 829 0054 00000000 		.word	CapSense_sensorIndex
 830              		.cfi_endproc
 831              	.LFE41:
 832              		.size	CapSense_ScanEnabledWidgets, .-CapSense_ScanEnabledWidgets
 833              		.section	.text.CapSense_IsBusy,"ax",%progbits
 834              		.align	2
 835              		.global	CapSense_IsBusy
 836              		.code	16
 837              		.thumb_func
 838              		.type	CapSense_IsBusy, %function
 839              	CapSense_IsBusy:
 840              	.LFB42:
 663:.\Generated_Source\PSoC4/CapSense.c **** 
 664:.\Generated_Source\PSoC4/CapSense.c **** 
 665:.\Generated_Source\PSoC4/CapSense.c **** /*******************************************************************************
 666:.\Generated_Source\PSoC4/CapSense.c **** * Function Name: CapSense_IsBusy
 667:.\Generated_Source\PSoC4/CapSense.c **** ********************************************************************************
 668:.\Generated_Source\PSoC4/CapSense.c **** *
 669:.\Generated_Source\PSoC4/CapSense.c **** * Summary:
 670:.\Generated_Source\PSoC4/CapSense.c **** *  Returns the state of the CapSense component. 1 means that scanning in 
 671:.\Generated_Source\PSoC4/CapSense.c **** *  progress and 0 means that scanning is complete.
 672:.\Generated_Source\PSoC4/CapSense.c **** *
 673:.\Generated_Source\PSoC4/CapSense.c **** * Parameters:
 674:.\Generated_Source\PSoC4/CapSense.c **** *  None
 675:.\Generated_Source\PSoC4/CapSense.c **** *
 676:.\Generated_Source\PSoC4/CapSense.c **** * Return:
 677:.\Generated_Source\PSoC4/CapSense.c **** *  Returns the state of scanning. 1 - scanning in progress, 0 - scanning 
 678:.\Generated_Source\PSoC4/CapSense.c **** *  completed.
 679:.\Generated_Source\PSoC4/CapSense.c **** *
 680:.\Generated_Source\PSoC4/CapSense.c **** * Global Variables:
 681:.\Generated_Source\PSoC4/CapSense.c **** *  CapSense_csdStatusVar - used to provide the status and mode of the scanning process. 
 682:.\Generated_Source\PSoC4/CapSense.c **** *  Checks the busy status.
 683:.\Generated_Source\PSoC4/CapSense.c **** *
 684:.\Generated_Source\PSoC4/CapSense.c **** * Side Effects:
 685:.\Generated_Source\PSoC4/CapSense.c **** *  None
 686:.\Generated_Source\PSoC4/CapSense.c **** * 
 687:.\Generated_Source\PSoC4/CapSense.c **** *******************************************************************************/
 688:.\Generated_Source\PSoC4/CapSense.c **** uint32 CapSense_IsBusy(void)
 689:.\Generated_Source\PSoC4/CapSense.c **** {
 841              		.loc 1 689 0
 842              		.cfi_startproc
 843 0000 80B5     		push	{r7, lr}
ARM GAS  C:\DOCUME~1\Chuck\LOCALS~1\Temp\cclVEGdP.s 			page 28


 844              	.LCFI24:
 845              		.cfi_def_cfa_offset 8
 846              		.cfi_offset 7, -8
 847              		.cfi_offset 14, -4
 848 0002 00AF     		add	r7, sp, #0
 849              	.LCFI25:
 850              		.cfi_def_cfa_register 7
 690:.\Generated_Source\PSoC4/CapSense.c ****     return ((uint32)((0u != (CapSense_csdStatusVar & CapSense_SW_STS_BUSY)) ? 1u : 0u));
 851              		.loc 1 690 0
 852 0004 044B     		ldr	r3, .L47
 853 0006 1B78     		ldrb	r3, [r3]
 854 0008 DBB2     		uxtb	r3, r3
 855 000a 1A1C     		mov	r2, r3
 856 000c 0123     		mov	r3, #1
 857 000e 1340     		and	r3, r2
 691:.\Generated_Source\PSoC4/CapSense.c **** }
 858              		.loc 1 691 0
 859 0010 181C     		mov	r0, r3
 860 0012 BD46     		mov	sp, r7
 861              		@ sp needed for prologue
 862 0014 80BD     		pop	{r7, pc}
 863              	.L48:
 864 0016 C046     		.align	2
 865              	.L47:
 866 0018 00000000 		.word	CapSense_csdStatusVar
 867              		.cfi_endproc
 868              	.LFE42:
 869              		.size	CapSense_IsBusy, .-CapSense_IsBusy
 870              		.section	.text.CapSense_ReadSensorRaw,"ax",%progbits
 871              		.align	2
 872              		.global	CapSense_ReadSensorRaw
 873              		.code	16
 874              		.thumb_func
 875              		.type	CapSense_ReadSensorRaw, %function
 876              	CapSense_ReadSensorRaw:
 877              	.LFB43:
 692:.\Generated_Source\PSoC4/CapSense.c **** 
 693:.\Generated_Source\PSoC4/CapSense.c **** 
 694:.\Generated_Source\PSoC4/CapSense.c **** /*******************************************************************************
 695:.\Generated_Source\PSoC4/CapSense.c **** * Function Name: CapSense_ReadSensorRaw
 696:.\Generated_Source\PSoC4/CapSense.c **** ********************************************************************************
 697:.\Generated_Source\PSoC4/CapSense.c **** *
 698:.\Generated_Source\PSoC4/CapSense.c **** * Summary:
 699:.\Generated_Source\PSoC4/CapSense.c **** *  Returns sensor raw data from the global CapSense_sensorRaw[ ] array. 
 700:.\Generated_Source\PSoC4/CapSense.c **** *  Each scan sensor has a unique number within the sensor array. 
 701:.\Generated_Source\PSoC4/CapSense.c **** *  This number is assigned by the CapSense customizer in sequence. 
 702:.\Generated_Source\PSoC4/CapSense.c **** *  Raw data can be used to perform calculations outside of the CapSense 
 703:.\Generated_Source\PSoC4/CapSense.c **** *  provided framework.
 704:.\Generated_Source\PSoC4/CapSense.c **** *
 705:.\Generated_Source\PSoC4/CapSense.c **** * Parameters:
 706:.\Generated_Source\PSoC4/CapSense.c **** *  sensor:  Sensor number.
 707:.\Generated_Source\PSoC4/CapSense.c **** *
 708:.\Generated_Source\PSoC4/CapSense.c **** * Return:
 709:.\Generated_Source\PSoC4/CapSense.c **** *  Returns the current raw data value for a defined sensor number.
 710:.\Generated_Source\PSoC4/CapSense.c **** *
 711:.\Generated_Source\PSoC4/CapSense.c **** * Global Variables:
 712:.\Generated_Source\PSoC4/CapSense.c **** *  CapSense_sensorRaw[] - used to store sensors raw data.
ARM GAS  C:\DOCUME~1\Chuck\LOCALS~1\Temp\cclVEGdP.s 			page 29


 713:.\Generated_Source\PSoC4/CapSense.c **** *
 714:.\Generated_Source\PSoC4/CapSense.c **** * Side Effects: 
 715:.\Generated_Source\PSoC4/CapSense.c **** *  None
 716:.\Generated_Source\PSoC4/CapSense.c **** *
 717:.\Generated_Source\PSoC4/CapSense.c **** *******************************************************************************/
 718:.\Generated_Source\PSoC4/CapSense.c **** uint16 CapSense_ReadSensorRaw(uint32 sensor)
 719:.\Generated_Source\PSoC4/CapSense.c **** {
 878              		.loc 1 719 0
 879              		.cfi_startproc
 880 0000 80B5     		push	{r7, lr}
 881              	.LCFI26:
 882              		.cfi_def_cfa_offset 8
 883              		.cfi_offset 7, -8
 884              		.cfi_offset 14, -4
 885 0002 82B0     		sub	sp, sp, #8
 886              	.LCFI27:
 887              		.cfi_def_cfa_offset 16
 888 0004 00AF     		add	r7, sp, #0
 889              	.LCFI28:
 890              		.cfi_def_cfa_register 7
 891 0006 7860     		str	r0, [r7, #4]
 720:.\Generated_Source\PSoC4/CapSense.c ****     return CapSense_sensorRaw[sensor];
 892              		.loc 1 720 0
 893 0008 034B     		ldr	r3, .L51
 894 000a 7A68     		ldr	r2, [r7, #4]
 895 000c 5200     		lsl	r2, r2, #1
 896 000e D35A     		ldrh	r3, [r2, r3]
 721:.\Generated_Source\PSoC4/CapSense.c **** }
 897              		.loc 1 721 0
 898 0010 181C     		mov	r0, r3
 899 0012 BD46     		mov	sp, r7
 900 0014 02B0     		add	sp, sp, #8
 901              		@ sp needed for prologue
 902 0016 80BD     		pop	{r7, pc}
 903              	.L52:
 904              		.align	2
 905              	.L51:
 906 0018 00000000 		.word	CapSense_sensorRaw
 907              		.cfi_endproc
 908              	.LFE43:
 909              		.size	CapSense_ReadSensorRaw, .-CapSense_ReadSensorRaw
 910              		.section	.text.CapSense_WriteSensorRaw,"ax",%progbits
 911              		.align	2
 912              		.global	CapSense_WriteSensorRaw
 913              		.code	16
 914              		.thumb_func
 915              		.type	CapSense_WriteSensorRaw, %function
 916              	CapSense_WriteSensorRaw:
 917              	.LFB44:
 722:.\Generated_Source\PSoC4/CapSense.c **** 
 723:.\Generated_Source\PSoC4/CapSense.c **** 
 724:.\Generated_Source\PSoC4/CapSense.c **** /*******************************************************************************
 725:.\Generated_Source\PSoC4/CapSense.c **** * Function Name: CapSense_WriteSensorRaw
 726:.\Generated_Source\PSoC4/CapSense.c **** ********************************************************************************
 727:.\Generated_Source\PSoC4/CapSense.c **** *
 728:.\Generated_Source\PSoC4/CapSense.c **** * Summary:
 729:.\Generated_Source\PSoC4/CapSense.c **** *  This API writes the raw count value passed as an argument to the sensor Raw count array.
ARM GAS  C:\DOCUME~1\Chuck\LOCALS~1\Temp\cclVEGdP.s 			page 30


 730:.\Generated_Source\PSoC4/CapSense.c **** *
 731:.\Generated_Source\PSoC4/CapSense.c **** * Parameters:
 732:.\Generated_Source\PSoC4/CapSense.c **** *  sensor:  Sensor number.
 733:.\Generated_Source\PSoC4/CapSense.c **** *  value: Raw count value.
 734:.\Generated_Source\PSoC4/CapSense.c **** *
 735:.\Generated_Source\PSoC4/CapSense.c **** * Global Variables:
 736:.\Generated_Source\PSoC4/CapSense.c **** *  CapSense_sensorRaw[] - used to store sensors raw data.
 737:.\Generated_Source\PSoC4/CapSense.c **** *
 738:.\Generated_Source\PSoC4/CapSense.c **** * Return:
 739:.\Generated_Source\PSoC4/CapSense.c **** *  None
 740:.\Generated_Source\PSoC4/CapSense.c **** *
 741:.\Generated_Source\PSoC4/CapSense.c **** * Side Effects: 
 742:.\Generated_Source\PSoC4/CapSense.c **** *  None
 743:.\Generated_Source\PSoC4/CapSense.c **** *
 744:.\Generated_Source\PSoC4/CapSense.c **** *******************************************************************************/
 745:.\Generated_Source\PSoC4/CapSense.c **** void CapSense_WriteSensorRaw(uint32 sensor, uint16 value)
 746:.\Generated_Source\PSoC4/CapSense.c **** {
 918              		.loc 1 746 0
 919              		.cfi_startproc
 920 0000 80B5     		push	{r7, lr}
 921              	.LCFI29:
 922              		.cfi_def_cfa_offset 8
 923              		.cfi_offset 7, -8
 924              		.cfi_offset 14, -4
 925 0002 82B0     		sub	sp, sp, #8
 926              	.LCFI30:
 927              		.cfi_def_cfa_offset 16
 928 0004 00AF     		add	r7, sp, #0
 929              	.LCFI31:
 930              		.cfi_def_cfa_register 7
 931 0006 7860     		str	r0, [r7, #4]
 932 0008 0A1C     		mov	r2, r1
 933 000a BB1C     		add	r3, r7, #2
 934 000c 1A80     		strh	r2, [r3]
 747:.\Generated_Source\PSoC4/CapSense.c **** 	CapSense_sensorRaw[sensor] = value;
 935              		.loc 1 747 0
 936 000e 044B     		ldr	r3, .L54
 937 0010 7A68     		ldr	r2, [r7, #4]
 938 0012 5200     		lsl	r2, r2, #1
 939 0014 B91C     		add	r1, r7, #2
 940 0016 0988     		ldrh	r1, [r1]
 941 0018 D152     		strh	r1, [r2, r3]
 748:.\Generated_Source\PSoC4/CapSense.c **** }
 942              		.loc 1 748 0
 943 001a BD46     		mov	sp, r7
 944 001c 02B0     		add	sp, sp, #8
 945              		@ sp needed for prologue
 946 001e 80BD     		pop	{r7, pc}
 947              	.L55:
 948              		.align	2
 949              	.L54:
 950 0020 00000000 		.word	CapSense_sensorRaw
 951              		.cfi_endproc
 952              	.LFE44:
 953              		.size	CapSense_WriteSensorRaw, .-CapSense_WriteSensorRaw
 954              		.section	.text.CapSense_SetScanResolution,"ax",%progbits
 955              		.align	2
ARM GAS  C:\DOCUME~1\Chuck\LOCALS~1\Temp\cclVEGdP.s 			page 31


 956              		.global	CapSense_SetScanResolution
 957              		.code	16
 958              		.thumb_func
 959              		.type	CapSense_SetScanResolution, %function
 960              	CapSense_SetScanResolution:
 961              	.LFB45:
 749:.\Generated_Source\PSoC4/CapSense.c **** 
 750:.\Generated_Source\PSoC4/CapSense.c **** 
 751:.\Generated_Source\PSoC4/CapSense.c **** #if (CapSense_TUNING_METHOD != CapSense__TUNING_NONE)
 752:.\Generated_Source\PSoC4/CapSense.c **** 	/*******************************************************************************
 753:.\Generated_Source\PSoC4/CapSense.c **** 	* Function Name: CapSense_SetScanResolution
 754:.\Generated_Source\PSoC4/CapSense.c **** 	********************************************************************************
 755:.\Generated_Source\PSoC4/CapSense.c **** 	*
 756:.\Generated_Source\PSoC4/CapSense.c **** 	* Summary:
 757:.\Generated_Source\PSoC4/CapSense.c **** 	*  Sets a value of the sensor scan resolution for a widget. 
 758:.\Generated_Source\PSoC4/CapSense.c **** 	*  The MIN resolution can be set 8-bit. The MAX Resolution can be set 16 bit.
 759:.\Generated_Source\PSoC4/CapSense.c **** 	*  This function is not available for the tuning mode "None".
 760:.\Generated_Source\PSoC4/CapSense.c **** 	*
 761:.\Generated_Source\PSoC4/CapSense.c **** 	* Parameters:
 762:.\Generated_Source\PSoC4/CapSense.c **** 	*  widget:     Widget index.
 763:.\Generated_Source\PSoC4/CapSense.c **** 	*  resolution: Represents the resolution value. The following defines which are available in the
 764:.\Generated_Source\PSoC4/CapSense.c **** 	*			   CapSense.h file should be used:
 765:.\Generated_Source\PSoC4/CapSense.c **** 	*			   CapSense_RESOLUTION_6_BITS
 766:.\Generated_Source\PSoC4/CapSense.c **** 	*			   CapSense_RESOLUTION_7_BITS
 767:.\Generated_Source\PSoC4/CapSense.c **** 	*			   CapSense_RESOLUTION_8_BITS
 768:.\Generated_Source\PSoC4/CapSense.c **** 	*			   CapSense_RESOLUTION_9_BITS
 769:.\Generated_Source\PSoC4/CapSense.c **** 	*			   CapSense_RESOLUTION_10_BITS
 770:.\Generated_Source\PSoC4/CapSense.c **** 	*			   CapSense_RESOLUTION_11_BITS
 771:.\Generated_Source\PSoC4/CapSense.c **** 	*			   CapSense_RESOLUTION_12_BITS
 772:.\Generated_Source\PSoC4/CapSense.c **** 	*			   CapSense_RESOLUTION_13_BITS
 773:.\Generated_Source\PSoC4/CapSense.c **** 	*			   CapSense_RESOLUTION_14_BITS
 774:.\Generated_Source\PSoC4/CapSense.c **** 	*			   CapSense_RESOLUTION_15_BITS
 775:.\Generated_Source\PSoC4/CapSense.c **** 	*			   CapSense_RESOLUTION_16_BITS
 776:.\Generated_Source\PSoC4/CapSense.c **** 	*
 777:.\Generated_Source\PSoC4/CapSense.c **** 	* Return:
 778:.\Generated_Source\PSoC4/CapSense.c **** 	*  None
 779:.\Generated_Source\PSoC4/CapSense.c **** 	*
 780:.\Generated_Source\PSoC4/CapSense.c **** 	* Global Variables:
 781:.\Generated_Source\PSoC4/CapSense.c **** 	*  CapSense_widgetResolution[] - used to store scan resolution of each widget.
 782:.\Generated_Source\PSoC4/CapSense.c **** 	*
 783:.\Generated_Source\PSoC4/CapSense.c **** 	* Side Effects: 
 784:.\Generated_Source\PSoC4/CapSense.c **** 	*  None
 785:.\Generated_Source\PSoC4/CapSense.c **** 	*
 786:.\Generated_Source\PSoC4/CapSense.c **** 	*******************************************************************************/
 787:.\Generated_Source\PSoC4/CapSense.c **** 	void CapSense_SetScanResolution(uint32 widget, uint32 resolution)
 788:.\Generated_Source\PSoC4/CapSense.c **** 	{ 
 962              		.loc 1 788 0
 963              		.cfi_startproc
 964 0000 80B5     		push	{r7, lr}
 965              	.LCFI32:
 966              		.cfi_def_cfa_offset 8
 967              		.cfi_offset 7, -8
 968              		.cfi_offset 14, -4
 969 0002 82B0     		sub	sp, sp, #8
 970              	.LCFI33:
 971              		.cfi_def_cfa_offset 16
 972 0004 00AF     		add	r7, sp, #0
ARM GAS  C:\DOCUME~1\Chuck\LOCALS~1\Temp\cclVEGdP.s 			page 32


 973              	.LCFI34:
 974              		.cfi_def_cfa_register 7
 975 0006 7860     		str	r0, [r7, #4]
 976 0008 3960     		str	r1, [r7]
 789:.\Generated_Source\PSoC4/CapSense.c ****         CapSense_widgetResolution[widget] = resolution;
 977              		.loc 1 789 0
 978 000a 044B     		ldr	r3, .L57
 979 000c 7A68     		ldr	r2, [r7, #4]
 980 000e 9200     		lsl	r2, r2, #2
 981 0010 3968     		ldr	r1, [r7]
 982 0012 D150     		str	r1, [r2, r3]
 790:.\Generated_Source\PSoC4/CapSense.c **** 	}
 983              		.loc 1 790 0
 984 0014 BD46     		mov	sp, r7
 985 0016 02B0     		add	sp, sp, #8
 986              		@ sp needed for prologue
 987 0018 80BD     		pop	{r7, pc}
 988              	.L58:
 989 001a C046     		.align	2
 990              	.L57:
 991 001c 00000000 		.word	CapSense_widgetResolution
 992              		.cfi_endproc
 993              	.LFE45:
 994              		.size	CapSense_SetScanResolution, .-CapSense_SetScanResolution
 995              		.section	.text.CapSense_GetScanResolution,"ax",%progbits
 996              		.align	2
 997              		.global	CapSense_GetScanResolution
 998              		.code	16
 999              		.thumb_func
 1000              		.type	CapSense_GetScanResolution, %function
 1001              	CapSense_GetScanResolution:
 1002              	.LFB46:
 791:.\Generated_Source\PSoC4/CapSense.c **** #endif /* (CapSense_TUNING_METHOD != CapSense__TUNING_NONE) */
 792:.\Generated_Source\PSoC4/CapSense.c **** 
 793:.\Generated_Source\PSoC4/CapSense.c **** 
 794:.\Generated_Source\PSoC4/CapSense.c **** /*******************************************************************************
 795:.\Generated_Source\PSoC4/CapSense.c **** * Function Name: CapSense_GetScanResolution
 796:.\Generated_Source\PSoC4/CapSense.c **** ********************************************************************************
 797:.\Generated_Source\PSoC4/CapSense.c **** *
 798:.\Generated_Source\PSoC4/CapSense.c **** * Summary:
 799:.\Generated_Source\PSoC4/CapSense.c **** *  Returns the resolution value for the appropriate sensor.
 800:.\Generated_Source\PSoC4/CapSense.c **** *  This function is not available for tuning mode "None".
 801:.\Generated_Source\PSoC4/CapSense.c **** *
 802:.\Generated_Source\PSoC4/CapSense.c **** * Parameters:
 803:.\Generated_Source\PSoC4/CapSense.c **** *  widget:     Widget index.
 804:.\Generated_Source\PSoC4/CapSense.c **** *
 805:.\Generated_Source\PSoC4/CapSense.c **** * Return:
 806:.\Generated_Source\PSoC4/CapSense.c **** *  resolution: Returns the resolution value for the appropriate sensor. 
 807:.\Generated_Source\PSoC4/CapSense.c **** *              The resolution values are defined in the CapSense.h file 
 808:.\Generated_Source\PSoC4/CapSense.c **** *              The defines are encountered below:
 809:.\Generated_Source\PSoC4/CapSense.c **** *			   CapSense_RESOLUTION_6_BITS
 810:.\Generated_Source\PSoC4/CapSense.c **** *			   CapSense_RESOLUTION_7_BITS
 811:.\Generated_Source\PSoC4/CapSense.c **** *			   CapSense_RESOLUTION_8_BITS
 812:.\Generated_Source\PSoC4/CapSense.c **** *			   CapSense_RESOLUTION_9_BITS
 813:.\Generated_Source\PSoC4/CapSense.c **** *			   CapSense_RESOLUTION_10_BITS
 814:.\Generated_Source\PSoC4/CapSense.c **** *			   CapSense_RESOLUTION_11_BITS
 815:.\Generated_Source\PSoC4/CapSense.c **** *			   CapSense_RESOLUTION_12_BITS
ARM GAS  C:\DOCUME~1\Chuck\LOCALS~1\Temp\cclVEGdP.s 			page 33


 816:.\Generated_Source\PSoC4/CapSense.c **** *			   CapSense_RESOLUTION_13_BITS
 817:.\Generated_Source\PSoC4/CapSense.c **** *			   CapSense_RESOLUTION_14_BITS
 818:.\Generated_Source\PSoC4/CapSense.c **** *			   CapSense_RESOLUTION_15_BITS
 819:.\Generated_Source\PSoC4/CapSense.c **** *			   CapSense_RESOLUTION_16_BITS
 820:.\Generated_Source\PSoC4/CapSense.c **** *
 821:.\Generated_Source\PSoC4/CapSense.c **** * Global Variables:
 822:.\Generated_Source\PSoC4/CapSense.c **** *  CapSense_widgetResolution[] - used to store scan resolution of every widget.
 823:.\Generated_Source\PSoC4/CapSense.c **** *
 824:.\Generated_Source\PSoC4/CapSense.c **** * Side Effects: 
 825:.\Generated_Source\PSoC4/CapSense.c **** *  None
 826:.\Generated_Source\PSoC4/CapSense.c **** *
 827:.\Generated_Source\PSoC4/CapSense.c **** *******************************************************************************/
 828:.\Generated_Source\PSoC4/CapSense.c **** uint32 CapSense_GetScanResolution(uint32 widget)
 829:.\Generated_Source\PSoC4/CapSense.c **** {
 1003              		.loc 1 829 0
 1004              		.cfi_startproc
 1005 0000 80B5     		push	{r7, lr}
 1006              	.LCFI35:
 1007              		.cfi_def_cfa_offset 8
 1008              		.cfi_offset 7, -8
 1009              		.cfi_offset 14, -4
 1010 0002 82B0     		sub	sp, sp, #8
 1011              	.LCFI36:
 1012              		.cfi_def_cfa_offset 16
 1013 0004 00AF     		add	r7, sp, #0
 1014              	.LCFI37:
 1015              		.cfi_def_cfa_register 7
 1016 0006 7860     		str	r0, [r7, #4]
 830:.\Generated_Source\PSoC4/CapSense.c **** 	return(CapSense_widgetResolution[widget]);
 1017              		.loc 1 830 0
 1018 0008 034B     		ldr	r3, .L61
 1019 000a 7A68     		ldr	r2, [r7, #4]
 1020 000c 9200     		lsl	r2, r2, #2
 1021 000e D358     		ldr	r3, [r2, r3]
 831:.\Generated_Source\PSoC4/CapSense.c **** }
 1022              		.loc 1 831 0
 1023 0010 181C     		mov	r0, r3
 1024 0012 BD46     		mov	sp, r7
 1025 0014 02B0     		add	sp, sp, #8
 1026              		@ sp needed for prologue
 1027 0016 80BD     		pop	{r7, pc}
 1028              	.L62:
 1029              		.align	2
 1030              	.L61:
 1031 0018 00000000 		.word	CapSense_widgetResolution
 1032              		.cfi_endproc
 1033              	.LFE46:
 1034              		.size	CapSense_GetScanResolution, .-CapSense_GetScanResolution
 1035              		.section	.text.CapSense_ClearSensors,"ax",%progbits
 1036              		.align	2
 1037              		.global	CapSense_ClearSensors
 1038              		.code	16
 1039              		.thumb_func
 1040              		.type	CapSense_ClearSensors, %function
 1041              	CapSense_ClearSensors:
 1042              	.LFB47:
 832:.\Generated_Source\PSoC4/CapSense.c **** 
ARM GAS  C:\DOCUME~1\Chuck\LOCALS~1\Temp\cclVEGdP.s 			page 34


 833:.\Generated_Source\PSoC4/CapSense.c **** 
 834:.\Generated_Source\PSoC4/CapSense.c **** /*******************************************************************************
 835:.\Generated_Source\PSoC4/CapSense.c **** * Function Name: CapSense_ClearSensors
 836:.\Generated_Source\PSoC4/CapSense.c **** ********************************************************************************
 837:.\Generated_Source\PSoC4/CapSense.c **** *
 838:.\Generated_Source\PSoC4/CapSense.c **** * Summary:
 839:.\Generated_Source\PSoC4/CapSense.c **** *  Resets all the sensors to the non-sampling state by sequentially disconnecting
 840:.\Generated_Source\PSoC4/CapSense.c **** *  all the sensors from Analog MUX Bus and putting them to an inactive state.
 841:.\Generated_Source\PSoC4/CapSense.c **** *
 842:.\Generated_Source\PSoC4/CapSense.c **** * Parameters:
 843:.\Generated_Source\PSoC4/CapSense.c **** *  None
 844:.\Generated_Source\PSoC4/CapSense.c **** *
 845:.\Generated_Source\PSoC4/CapSense.c **** * Return:
 846:.\Generated_Source\PSoC4/CapSense.c **** *  None
 847:.\Generated_Source\PSoC4/CapSense.c **** *
 848:.\Generated_Source\PSoC4/CapSense.c **** * Global Variables:
 849:.\Generated_Source\PSoC4/CapSense.c **** *  None
 850:.\Generated_Source\PSoC4/CapSense.c **** *
 851:.\Generated_Source\PSoC4/CapSense.c **** * Side Effects: 
 852:.\Generated_Source\PSoC4/CapSense.c **** *  None
 853:.\Generated_Source\PSoC4/CapSense.c **** *
 854:.\Generated_Source\PSoC4/CapSense.c **** *******************************************************************************/
 855:.\Generated_Source\PSoC4/CapSense.c **** void CapSense_ClearSensors(void)
 856:.\Generated_Source\PSoC4/CapSense.c **** {
 1043              		.loc 1 856 0
 1044              		.cfi_startproc
 1045 0000 80B5     		push	{r7, lr}
 1046              	.LCFI38:
 1047              		.cfi_def_cfa_offset 8
 1048              		.cfi_offset 7, -8
 1049              		.cfi_offset 14, -4
 1050 0002 82B0     		sub	sp, sp, #8
 1051              	.LCFI39:
 1052              		.cfi_def_cfa_offset 16
 1053 0004 00AF     		add	r7, sp, #0
 1054              	.LCFI40:
 1055              		.cfi_def_cfa_register 7
 857:.\Generated_Source\PSoC4/CapSense.c **** 	uint32 snsIndex;
 858:.\Generated_Source\PSoC4/CapSense.c **** 	
 859:.\Generated_Source\PSoC4/CapSense.c ****     for (snsIndex = 0u; snsIndex < CapSense_TOTAL_SENSOR_COUNT; snsIndex++)
 1056              		.loc 1 859 0
 1057 0006 0023     		mov	r3, #0
 1058 0008 7B60     		str	r3, [r7, #4]
 1059 000a 06E0     		b	.L64
 1060              	.L65:
 860:.\Generated_Source\PSoC4/CapSense.c ****     {
 861:.\Generated_Source\PSoC4/CapSense.c ****         CapSense_DisableScanSlot(snsIndex);
 1061              		.loc 1 861 0 discriminator 2
 1062 000c 7B68     		ldr	r3, [r7, #4]
 1063 000e 181C     		mov	r0, r3
 1064 0010 FFF7FEFF 		bl	CapSense_DisableSensor
 859:.\Generated_Source\PSoC4/CapSense.c ****     for (snsIndex = 0u; snsIndex < CapSense_TOTAL_SENSOR_COUNT; snsIndex++)
 1065              		.loc 1 859 0 discriminator 2
 1066 0014 7B68     		ldr	r3, [r7, #4]
 1067 0016 0133     		add	r3, r3, #1
 1068 0018 7B60     		str	r3, [r7, #4]
 1069              	.L64:
ARM GAS  C:\DOCUME~1\Chuck\LOCALS~1\Temp\cclVEGdP.s 			page 35


 859:.\Generated_Source\PSoC4/CapSense.c ****     for (snsIndex = 0u; snsIndex < CapSense_TOTAL_SENSOR_COUNT; snsIndex++)
 1070              		.loc 1 859 0 is_stmt 0 discriminator 1
 1071 001a 7B68     		ldr	r3, [r7, #4]
 1072 001c 002B     		cmp	r3, #0
 1073 001e F5D0     		beq	.L65
 862:.\Generated_Source\PSoC4/CapSense.c ****     }
 863:.\Generated_Source\PSoC4/CapSense.c **** }
 1074              		.loc 1 863 0 is_stmt 1
 1075 0020 BD46     		mov	sp, r7
 1076 0022 02B0     		add	sp, sp, #8
 1077              		@ sp needed for prologue
 1078 0024 80BD     		pop	{r7, pc}
 1079              		.cfi_endproc
 1080              	.LFE47:
 1081              		.size	CapSense_ClearSensors, .-CapSense_ClearSensors
 1082 0026 C046     		.section	.text.CapSense_EnableSensor,"ax",%progbits
 1083              		.align	2
 1084              		.global	CapSense_EnableSensor
 1085              		.code	16
 1086              		.thumb_func
 1087              		.type	CapSense_EnableSensor, %function
 1088              	CapSense_EnableSensor:
 1089              	.LFB48:
 864:.\Generated_Source\PSoC4/CapSense.c **** 
 865:.\Generated_Source\PSoC4/CapSense.c **** 
 866:.\Generated_Source\PSoC4/CapSense.c **** #if (CapSense_IS_COMPLEX_SCANSLOTS)
 867:.\Generated_Source\PSoC4/CapSense.c ****     /*******************************************************************************
 868:.\Generated_Source\PSoC4/CapSense.c ****     * Function Name: CapSense_EnableScanSlot
 869:.\Generated_Source\PSoC4/CapSense.c ****     ********************************************************************************
 870:.\Generated_Source\PSoC4/CapSense.c ****     *
 871:.\Generated_Source\PSoC4/CapSense.c ****     * Summary:
 872:.\Generated_Source\PSoC4/CapSense.c ****     *  Configures the selected slot to measure during the next measurement 
 873:.\Generated_Source\PSoC4/CapSense.c ****     *  cycle. The corresponding pin/pins are set to Analog High-Z mode and 
 874:.\Generated_Source\PSoC4/CapSense.c ****     *  connected to the Analog Mux Bus. This also enables the comparator function.
 875:.\Generated_Source\PSoC4/CapSense.c ****     *
 876:.\Generated_Source\PSoC4/CapSense.c ****     * Parameters:
 877:.\Generated_Source\PSoC4/CapSense.c ****     *  slot:  Slot number.
 878:.\Generated_Source\PSoC4/CapSense.c ****     *
 879:.\Generated_Source\PSoC4/CapSense.c ****     * Return:
 880:.\Generated_Source\PSoC4/CapSense.c ****     *  None
 881:.\Generated_Source\PSoC4/CapSense.c ****     *
 882:.\Generated_Source\PSoC4/CapSense.c ****     * Global Constants:
 883:.\Generated_Source\PSoC4/CapSense.c ****     *  CapSense_portTable[]  - used to store the port number that pin 
 884:.\Generated_Source\PSoC4/CapSense.c ****     *  belongs to for each sensor.
 885:.\Generated_Source\PSoC4/CapSense.c ****     *  CapSense_maskTable[]  - used to store the pin within the port for 
 886:.\Generated_Source\PSoC4/CapSense.c ****     *  each sensor.
 887:.\Generated_Source\PSoC4/CapSense.c ****     *  CapSense_indexTable[] - used to store indexes of complex sensors.
 888:.\Generated_Source\PSoC4/CapSense.c ****     *  The offset and position in this array are stored in a port and mask table for 
 889:.\Generated_Source\PSoC4/CapSense.c ****     *  complex sensors.
 890:.\Generated_Source\PSoC4/CapSense.c ****     *  Bit 7 (msb) is used to define the sensor type: single or complex.
 891:.\Generated_Source\PSoC4/CapSense.c ****     *
 892:.\Generated_Source\PSoC4/CapSense.c **** 	* Side Effects: 
 893:.\Generated_Source\PSoC4/CapSense.c **** 	*  None
 894:.\Generated_Source\PSoC4/CapSense.c **** 	*
 895:.\Generated_Source\PSoC4/CapSense.c ****     *******************************************************************************/
 896:.\Generated_Source\PSoC4/CapSense.c ****     void CapSense_EnableScanSlot(uint32 slot)
 897:.\Generated_Source\PSoC4/CapSense.c ****     {
ARM GAS  C:\DOCUME~1\Chuck\LOCALS~1\Temp\cclVEGdP.s 			page 36


 898:.\Generated_Source\PSoC4/CapSense.c ****         uint8 j;
 899:.\Generated_Source\PSoC4/CapSense.c ****         uint8 snsNumber;
 900:.\Generated_Source\PSoC4/CapSense.c ****         const uint8 *index;
 901:.\Generated_Source\PSoC4/CapSense.c ****         /* Read sensor type: single or complex */
 902:.\Generated_Source\PSoC4/CapSense.c ****         uint8 snsType = CapSense_portTable[slot];
 903:.\Generated_Source\PSoC4/CapSense.c **** 
 904:.\Generated_Source\PSoC4/CapSense.c ****         /* Check if sensor is complex */
 905:.\Generated_Source\PSoC4/CapSense.c ****         if ((snsType & CapSense_COMPLEX_SS_FLAG) == 0u)
 906:.\Generated_Source\PSoC4/CapSense.c ****         {
 907:.\Generated_Source\PSoC4/CapSense.c ****             /* Enable sensor (single) */
 908:.\Generated_Source\PSoC4/CapSense.c ****             CapSense_EnableSensor(slot);
 909:.\Generated_Source\PSoC4/CapSense.c ****         }
 910:.\Generated_Source\PSoC4/CapSense.c ****         else
 911:.\Generated_Source\PSoC4/CapSense.c ****         {
 912:.\Generated_Source\PSoC4/CapSense.c ****             /* Enable complex sensor */
 913:.\Generated_Source\PSoC4/CapSense.c ****             snsType &= ~CapSense_COMPLEX_SS_FLAG;
 914:.\Generated_Source\PSoC4/CapSense.c ****             index = &CapSense_indexTable[snsType];
 915:.\Generated_Source\PSoC4/CapSense.c ****             snsNumber = CapSense_maskTable[slot];
 916:.\Generated_Source\PSoC4/CapSense.c ****                         
 917:.\Generated_Source\PSoC4/CapSense.c ****             for (j = 0u; j < snsNumber; j++)
 918:.\Generated_Source\PSoC4/CapSense.c ****             {
 919:.\Generated_Source\PSoC4/CapSense.c ****                 CapSense_EnableSensor(index[j]);
 920:.\Generated_Source\PSoC4/CapSense.c ****             }
 921:.\Generated_Source\PSoC4/CapSense.c ****         }
 922:.\Generated_Source\PSoC4/CapSense.c ****     }
 923:.\Generated_Source\PSoC4/CapSense.c ****     
 924:.\Generated_Source\PSoC4/CapSense.c ****     
 925:.\Generated_Source\PSoC4/CapSense.c ****     /*******************************************************************************
 926:.\Generated_Source\PSoC4/CapSense.c ****     * Function Name: CapSense_DisableScanSlot
 927:.\Generated_Source\PSoC4/CapSense.c ****     ********************************************************************************
 928:.\Generated_Source\PSoC4/CapSense.c ****     *
 929:.\Generated_Source\PSoC4/CapSense.c ****     * Summary:
 930:.\Generated_Source\PSoC4/CapSense.c ****     *  Disables the selected slot. The corresponding pin/pins is/are disconnected 
 931:.\Generated_Source\PSoC4/CapSense.c ****     *  from the Analog Mux Bus and connected to GND, High_Z or Shield electrode.
 932:.\Generated_Source\PSoC4/CapSense.c ****     *
 933:.\Generated_Source\PSoC4/CapSense.c ****     * Parameters:
 934:.\Generated_Source\PSoC4/CapSense.c ****     *  slot:  Slot number.
 935:.\Generated_Source\PSoC4/CapSense.c ****     *
 936:.\Generated_Source\PSoC4/CapSense.c ****     * Return:
 937:.\Generated_Source\PSoC4/CapSense.c ****     *  None
 938:.\Generated_Source\PSoC4/CapSense.c ****     *
 939:.\Generated_Source\PSoC4/CapSense.c ****     * Global Variables:
 940:.\Generated_Source\PSoC4/CapSense.c ****     *  CapSense_portTable[]  - used to store the port number that pin 
 941:.\Generated_Source\PSoC4/CapSense.c ****     *  belongs to for each sensor.
 942:.\Generated_Source\PSoC4/CapSense.c ****     *  CapSense_maskTable[]  - used to store the pin within the port for 
 943:.\Generated_Source\PSoC4/CapSense.c ****     *  each sensor.
 944:.\Generated_Source\PSoC4/CapSense.c ****     *  CapSense_indexTable[] - used to store indexes of complex sensors.
 945:.\Generated_Source\PSoC4/CapSense.c ****     *  The offset and position in this array are stored in a port and mask table for 
 946:.\Generated_Source\PSoC4/CapSense.c ****     *  complex sensors.
 947:.\Generated_Source\PSoC4/CapSense.c ****     *  7bit(msb) is used to define the sensor type: single or complex.
 948:.\Generated_Source\PSoC4/CapSense.c ****     *
 949:.\Generated_Source\PSoC4/CapSense.c **** 	* Side Effects: 
 950:.\Generated_Source\PSoC4/CapSense.c **** 	*  None
 951:.\Generated_Source\PSoC4/CapSense.c **** 	*
 952:.\Generated_Source\PSoC4/CapSense.c ****     *******************************************************************************/
 953:.\Generated_Source\PSoC4/CapSense.c ****     void CapSense_DisableScanSlot(uint32 slot)
 954:.\Generated_Source\PSoC4/CapSense.c ****     {
ARM GAS  C:\DOCUME~1\Chuck\LOCALS~1\Temp\cclVEGdP.s 			page 37


 955:.\Generated_Source\PSoC4/CapSense.c ****         uint8 j;
 956:.\Generated_Source\PSoC4/CapSense.c ****         uint8 snsNumber;
 957:.\Generated_Source\PSoC4/CapSense.c ****         const uint8 *index;
 958:.\Generated_Source\PSoC4/CapSense.c **** 
 959:.\Generated_Source\PSoC4/CapSense.c ****         /* Read sensor type: single or complex */
 960:.\Generated_Source\PSoC4/CapSense.c ****         uint8 snsType = CapSense_portTable[slot];
 961:.\Generated_Source\PSoC4/CapSense.c ****         
 962:.\Generated_Source\PSoC4/CapSense.c ****         /* Check if sensor is complex */
 963:.\Generated_Source\PSoC4/CapSense.c ****         if ((snsType & CapSense_COMPLEX_SS_FLAG) == 0u)
 964:.\Generated_Source\PSoC4/CapSense.c ****         {
 965:.\Generated_Source\PSoC4/CapSense.c ****             /* Disable sensor (single) */
 966:.\Generated_Source\PSoC4/CapSense.c ****             CapSense_DisableSensor(slot);
 967:.\Generated_Source\PSoC4/CapSense.c ****         }
 968:.\Generated_Source\PSoC4/CapSense.c ****         else
 969:.\Generated_Source\PSoC4/CapSense.c ****         {
 970:.\Generated_Source\PSoC4/CapSense.c ****             /* Disable complex sensor */
 971:.\Generated_Source\PSoC4/CapSense.c ****             snsType &= ~CapSense_COMPLEX_SS_FLAG;
 972:.\Generated_Source\PSoC4/CapSense.c ****             index = &CapSense_indexTable[snsType];
 973:.\Generated_Source\PSoC4/CapSense.c ****             snsNumber = CapSense_maskTable[slot];
 974:.\Generated_Source\PSoC4/CapSense.c ****                         
 975:.\Generated_Source\PSoC4/CapSense.c ****             for (j=0; j < snsNumber; j++)
 976:.\Generated_Source\PSoC4/CapSense.c ****             {
 977:.\Generated_Source\PSoC4/CapSense.c ****                 CapSense_DisableSensor(index[j]);
 978:.\Generated_Source\PSoC4/CapSense.c ****             }
 979:.\Generated_Source\PSoC4/CapSense.c ****         } 
 980:.\Generated_Source\PSoC4/CapSense.c ****     }
 981:.\Generated_Source\PSoC4/CapSense.c **** #endif  /* CapSense_IS_COMPLEX_SCANSLOTS */
 982:.\Generated_Source\PSoC4/CapSense.c **** 
 983:.\Generated_Source\PSoC4/CapSense.c **** 
 984:.\Generated_Source\PSoC4/CapSense.c **** /*******************************************************************************
 985:.\Generated_Source\PSoC4/CapSense.c **** * Function Name: CapSense_EnableSensor
 986:.\Generated_Source\PSoC4/CapSense.c **** ********************************************************************************
 987:.\Generated_Source\PSoC4/CapSense.c **** *
 988:.\Generated_Source\PSoC4/CapSense.c **** * Summary:
 989:.\Generated_Source\PSoC4/CapSense.c **** *  Configures the selected sensor to measure during the next measurement cycle.
 990:.\Generated_Source\PSoC4/CapSense.c **** *  The corresponding pins are set to Analog High-Z mode and connected to the
 991:.\Generated_Source\PSoC4/CapSense.c **** *  Analog Mux Bus. This also enables the comparator function.
 992:.\Generated_Source\PSoC4/CapSense.c **** *
 993:.\Generated_Source\PSoC4/CapSense.c **** * Parameters:
 994:.\Generated_Source\PSoC4/CapSense.c **** *  sensor:  Sensor number.
 995:.\Generated_Source\PSoC4/CapSense.c **** *
 996:.\Generated_Source\PSoC4/CapSense.c **** * Return:
 997:.\Generated_Source\PSoC4/CapSense.c **** *  None
 998:.\Generated_Source\PSoC4/CapSense.c **** *
 999:.\Generated_Source\PSoC4/CapSense.c **** * Global Variables:
1000:.\Generated_Source\PSoC4/CapSense.c **** *  CapSense_portTable[] - used to store the port number that pin 
1001:.\Generated_Source\PSoC4/CapSense.c **** *  belongs to for each sensor.
1002:.\Generated_Source\PSoC4/CapSense.c **** *  CapSense_pinShiftTbl[] - used to store position of pin that 
1003:.\Generated_Source\PSoC4/CapSense.c **** *  configured as sensor in port. 
1004:.\Generated_Source\PSoC4/CapSense.c **** *  CapSense_prtSelTbl[] - Contains pointers to the HSIOM 
1005:.\Generated_Source\PSoC4/CapSense.c **** *  registers for each port. 
1006:.\Generated_Source\PSoC4/CapSense.c **** *  CapSense_PrtCfgTb[] - Contains pointers to the port config 
1007:.\Generated_Source\PSoC4/CapSense.c **** *  registers for each port.
1008:.\Generated_Source\PSoC4/CapSense.c **** *
1009:.\Generated_Source\PSoC4/CapSense.c **** * Side Effects: 
1010:.\Generated_Source\PSoC4/CapSense.c **** *  None
1011:.\Generated_Source\PSoC4/CapSense.c **** *
ARM GAS  C:\DOCUME~1\Chuck\LOCALS~1\Temp\cclVEGdP.s 			page 38


1012:.\Generated_Source\PSoC4/CapSense.c **** *******************************************************************************/
1013:.\Generated_Source\PSoC4/CapSense.c **** __INLINE void CapSense_EnableSensor(uint32 sensor)
1014:.\Generated_Source\PSoC4/CapSense.c **** {
 1090              		.loc 1 1014 0
 1091              		.cfi_startproc
 1092 0000 90B5     		push	{r4, r7, lr}
 1093              	.LCFI41:
 1094              		.cfi_def_cfa_offset 12
 1095              		.cfi_offset 4, -12
 1096              		.cfi_offset 7, -8
 1097              		.cfi_offset 14, -4
 1098 0002 87B0     		sub	sp, sp, #28
 1099              	.LCFI42:
 1100              		.cfi_def_cfa_offset 40
 1101 0004 00AF     		add	r7, sp, #0
 1102              	.LCFI43:
 1103              		.cfi_def_cfa_register 7
 1104 0006 7860     		str	r0, [r7, #4]
1015:.\Generated_Source\PSoC4/CapSense.c **** 	uint8  pinModeShift;
1016:.\Generated_Source\PSoC4/CapSense.c ****     uint8  pinHSIOMShift;
1017:.\Generated_Source\PSoC4/CapSense.c **** 	uint8 interruptState;
1018:.\Generated_Source\PSoC4/CapSense.c **** 	uint32 newRegisterValue;
1019:.\Generated_Source\PSoC4/CapSense.c ****     uint32 port;
1020:.\Generated_Source\PSoC4/CapSense.c **** 	
1021:.\Generated_Source\PSoC4/CapSense.c **** 	port = (uint32) CapSense_portTable[sensor];
 1105              		.loc 1 1021 0
 1106 0008 2C4A     		ldr	r2, .L67
 1107 000a 7B68     		ldr	r3, [r7, #4]
 1108 000c D318     		add	r3, r2, r3
 1109 000e 1B78     		ldrb	r3, [r3]
 1110 0010 7B61     		str	r3, [r7, #20]
1022:.\Generated_Source\PSoC4/CapSense.c ****     pinModeShift = CapSense_pinShiftTbl[sensor]  * CapSense_PC_PIN_CFG_SIZE;
 1111              		.loc 1 1022 0
 1112 0012 2B4A     		ldr	r2, .L67+4
 1113 0014 7B68     		ldr	r3, [r7, #4]
 1114 0016 D318     		add	r3, r2, r3
 1115 0018 1B78     		ldrb	r3, [r3]
 1116 001a 3A1C     		mov	r2, r7
 1117 001c 1332     		add	r2, r2, #19
 1118 001e 191C     		add	r1, r3, #0
 1119 0020 4900     		lsl	r1, r1, #1
 1120 0022 CB18     		add	r3, r1, r3
 1121 0024 1370     		strb	r3, [r2]
1023:.\Generated_Source\PSoC4/CapSense.c ****     pinHSIOMShift = CapSense_pinShiftTbl[sensor] * CapSense_HSIOM_PIN_CFG_SIZE;
 1122              		.loc 1 1023 0
 1123 0026 264A     		ldr	r2, .L67+4
 1124 0028 7B68     		ldr	r3, [r7, #4]
 1125 002a D318     		add	r3, r2, r3
 1126 002c 1A78     		ldrb	r2, [r3]
 1127 002e 3B1C     		mov	r3, r7
 1128 0030 1233     		add	r3, r3, #18
 1129 0032 9200     		lsl	r2, r2, #2
 1130 0034 1A70     		strb	r2, [r3]
1024:.\Generated_Source\PSoC4/CapSense.c **** 
1025:.\Generated_Source\PSoC4/CapSense.c **** 	interruptState = CyEnterCriticalSection();
 1131              		.loc 1 1025 0
 1132 0036 3C1C     		mov	r4, r7
ARM GAS  C:\DOCUME~1\Chuck\LOCALS~1\Temp\cclVEGdP.s 			page 39


 1133 0038 1134     		add	r4, r4, #17
 1134 003a FFF7FEFF 		bl	CyEnterCriticalSection
 1135 003e 031C     		mov	r3, r0
 1136 0040 2370     		strb	r3, [r4]
1026:.\Generated_Source\PSoC4/CapSense.c **** 	
1027:.\Generated_Source\PSoC4/CapSense.c **** 	newRegisterValue = *CapSense_prtSelTbl[port];
 1137              		.loc 1 1027 0
 1138 0042 204B     		ldr	r3, .L67+8
 1139 0044 7A69     		ldr	r2, [r7, #20]
 1140 0046 9200     		lsl	r2, r2, #2
 1141 0048 D358     		ldr	r3, [r2, r3]
 1142 004a 1B68     		ldr	r3, [r3]
 1143 004c FB60     		str	r3, [r7, #12]
1028:.\Generated_Source\PSoC4/CapSense.c **** 	newRegisterValue &= ~(CapSense_CSD_HSIOM_MASK << pinHSIOMShift);
 1144              		.loc 1 1028 0
 1145 004e 3B1C     		mov	r3, r7
 1146 0050 1233     		add	r3, r3, #18
 1147 0052 1B78     		ldrb	r3, [r3]
 1148 0054 0F22     		mov	r2, #15
 1149 0056 111C     		mov	r1, r2
 1150 0058 9940     		lsl	r1, r1, r3
 1151 005a 0B1C     		mov	r3, r1
 1152 005c DA43     		mvn	r2, r3
 1153 005e FB68     		ldr	r3, [r7, #12]
 1154 0060 1340     		and	r3, r2
 1155 0062 FB60     		str	r3, [r7, #12]
1029:.\Generated_Source\PSoC4/CapSense.c **** 	newRegisterValue |= (uint32)((uint32)CapSense_CSD_SENSE_PORT_MODE << pinHSIOMShift);
 1156              		.loc 1 1029 0
 1157 0064 3B1C     		mov	r3, r7
 1158 0066 1233     		add	r3, r3, #18
 1159 0068 1B78     		ldrb	r3, [r3]
 1160 006a 0422     		mov	r2, #4
 1161 006c 141C     		mov	r4, r2
 1162 006e 9C40     		lsl	r4, r4, r3
 1163 0070 231C     		mov	r3, r4
 1164 0072 FA68     		ldr	r2, [r7, #12]
 1165 0074 1343     		orr	r3, r2
 1166 0076 FB60     		str	r3, [r7, #12]
1030:.\Generated_Source\PSoC4/CapSense.c ****    
1031:.\Generated_Source\PSoC4/CapSense.c ****     *CapSense_prtCfgTbl[port] &= (uint32)~((uint32)CapSense_CSD_PIN_MODE_MASK << pinModeShift);
 1167              		.loc 1 1031 0
 1168 0078 134B     		ldr	r3, .L67+12
 1169 007a 7A69     		ldr	r2, [r7, #20]
 1170 007c 9200     		lsl	r2, r2, #2
 1171 007e D358     		ldr	r3, [r2, r3]
 1172 0080 114A     		ldr	r2, .L67+12
 1173 0082 7969     		ldr	r1, [r7, #20]
 1174 0084 8900     		lsl	r1, r1, #2
 1175 0086 8A58     		ldr	r2, [r1, r2]
 1176 0088 1268     		ldr	r2, [r2]
 1177 008a 391C     		mov	r1, r7
 1178 008c 1331     		add	r1, r1, #19
 1179 008e 0978     		ldrb	r1, [r1]
 1180 0090 0720     		mov	r0, #7
 1181 0092 041C     		mov	r4, r0
 1182 0094 8C40     		lsl	r4, r4, r1
 1183 0096 211C     		mov	r1, r4
ARM GAS  C:\DOCUME~1\Chuck\LOCALS~1\Temp\cclVEGdP.s 			page 40


 1184 0098 C943     		mvn	r1, r1
 1185 009a 0A40     		and	r2, r1
 1186 009c 1A60     		str	r2, [r3]
1032:.\Generated_Source\PSoC4/CapSense.c ****     *CapSense_prtSelTbl[port] = newRegisterValue;
 1187              		.loc 1 1032 0
 1188 009e 094B     		ldr	r3, .L67+8
 1189 00a0 7A69     		ldr	r2, [r7, #20]
 1190 00a2 9200     		lsl	r2, r2, #2
 1191 00a4 D358     		ldr	r3, [r2, r3]
 1192 00a6 FA68     		ldr	r2, [r7, #12]
 1193 00a8 1A60     		str	r2, [r3]
1033:.\Generated_Source\PSoC4/CapSense.c **** 	
1034:.\Generated_Source\PSoC4/CapSense.c **** 	CyExitCriticalSection(interruptState);
 1194              		.loc 1 1034 0
 1195 00aa 3B1C     		mov	r3, r7
 1196 00ac 1133     		add	r3, r3, #17
 1197 00ae 1B78     		ldrb	r3, [r3]
 1198 00b0 181C     		mov	r0, r3
 1199 00b2 FFF7FEFF 		bl	CyExitCriticalSection
1035:.\Generated_Source\PSoC4/CapSense.c **** }
 1200              		.loc 1 1035 0
 1201 00b6 BD46     		mov	sp, r7
 1202 00b8 07B0     		add	sp, sp, #28
 1203              		@ sp needed for prologue
 1204 00ba 90BD     		pop	{r4, r7, pc}
 1205              	.L68:
 1206              		.align	2
 1207              	.L67:
 1208 00bc 00000000 		.word	CapSense_portTable
 1209 00c0 00000000 		.word	CapSense_pinShiftTbl
 1210 00c4 00000000 		.word	CapSense_prtSelTbl
 1211 00c8 00000000 		.word	CapSense_prtCfgTbl
 1212              		.cfi_endproc
 1213              	.LFE48:
 1214              		.size	CapSense_EnableSensor, .-CapSense_EnableSensor
 1215              		.section	.text.CapSense_DisableSensor,"ax",%progbits
 1216              		.align	2
 1217              		.global	CapSense_DisableSensor
 1218              		.code	16
 1219              		.thumb_func
 1220              		.type	CapSense_DisableSensor, %function
 1221              	CapSense_DisableSensor:
 1222              	.LFB49:
1036:.\Generated_Source\PSoC4/CapSense.c **** 
1037:.\Generated_Source\PSoC4/CapSense.c **** 
1038:.\Generated_Source\PSoC4/CapSense.c **** /*******************************************************************************
1039:.\Generated_Source\PSoC4/CapSense.c **** * Function Name: CapSense_DisableSensor
1040:.\Generated_Source\PSoC4/CapSense.c **** ********************************************************************************
1041:.\Generated_Source\PSoC4/CapSense.c **** *
1042:.\Generated_Source\PSoC4/CapSense.c **** * Summary:
1043:.\Generated_Source\PSoC4/CapSense.c **** *  Disables the selected sensor. The corresponding pin is disconnected from the
1044:.\Generated_Source\PSoC4/CapSense.c **** *  Analog Mux Bus and connected to GND, High_Z or Shield electrode.
1045:.\Generated_Source\PSoC4/CapSense.c **** *
1046:.\Generated_Source\PSoC4/CapSense.c **** * Parameters:
1047:.\Generated_Source\PSoC4/CapSense.c **** *  sensor:  Sensor number
1048:.\Generated_Source\PSoC4/CapSense.c **** *
1049:.\Generated_Source\PSoC4/CapSense.c **** * Return:
ARM GAS  C:\DOCUME~1\Chuck\LOCALS~1\Temp\cclVEGdP.s 			page 41


1050:.\Generated_Source\PSoC4/CapSense.c **** *  None
1051:.\Generated_Source\PSoC4/CapSense.c **** *
1052:.\Generated_Source\PSoC4/CapSense.c **** * Global Variables:
1053:.\Generated_Source\PSoC4/CapSense.c **** *  CapSense_portTable[] - used to store the port number that pin 
1054:.\Generated_Source\PSoC4/CapSense.c **** *  belongs to for each sensor.
1055:.\Generated_Source\PSoC4/CapSense.c **** *  CapSense_pinShiftTbl[] - used to store position of pin that 
1056:.\Generated_Source\PSoC4/CapSense.c **** *  configured as a sensor in the port. 
1057:.\Generated_Source\PSoC4/CapSense.c **** *  CapSense_prtSelTbl[] - Contains pointers to the HSIOM 
1058:.\Generated_Source\PSoC4/CapSense.c **** *  registers for each port. 
1059:.\Generated_Source\PSoC4/CapSense.c **** *  CapSense_PrtCfgTb[] - Contains pointers to the port config 
1060:.\Generated_Source\PSoC4/CapSense.c **** *  registers for each port.
1061:.\Generated_Source\PSoC4/CapSense.c **** *
1062:.\Generated_Source\PSoC4/CapSense.c **** * Side Effects: 
1063:.\Generated_Source\PSoC4/CapSense.c **** *  None
1064:.\Generated_Source\PSoC4/CapSense.c **** *
1065:.\Generated_Source\PSoC4/CapSense.c **** *******************************************************************************/
1066:.\Generated_Source\PSoC4/CapSense.c **** __INLINE void CapSense_DisableSensor(uint32 sensor)
1067:.\Generated_Source\PSoC4/CapSense.c **** {
 1223              		.loc 1 1067 0
 1224              		.cfi_startproc
 1225 0000 90B5     		push	{r4, r7, lr}
 1226              	.LCFI44:
 1227              		.cfi_def_cfa_offset 12
 1228              		.cfi_offset 4, -12
 1229              		.cfi_offset 7, -8
 1230              		.cfi_offset 14, -4
 1231 0002 89B0     		sub	sp, sp, #36
 1232              	.LCFI45:
 1233              		.cfi_def_cfa_offset 48
 1234 0004 00AF     		add	r7, sp, #0
 1235              	.LCFI46:
 1236              		.cfi_def_cfa_register 7
 1237 0006 7860     		str	r0, [r7, #4]
1068:.\Generated_Source\PSoC4/CapSense.c ****     uint8 interruptState;
1069:.\Generated_Source\PSoC4/CapSense.c **** 	uint32 newRegisterValue;
1070:.\Generated_Source\PSoC4/CapSense.c **** 	
1071:.\Generated_Source\PSoC4/CapSense.c ****     uint32 port = (uint32) CapSense_portTable[sensor];
 1238              		.loc 1 1071 0
 1239 0008 404A     		ldr	r2, .L73
 1240 000a 7B68     		ldr	r3, [r7, #4]
 1241 000c D318     		add	r3, r2, r3
 1242 000e 1B78     		ldrb	r3, [r3]
 1243 0010 7B61     		str	r3, [r7, #20]
1072:.\Generated_Source\PSoC4/CapSense.c ****     uint8  pinHSIOMShift = CapSense_pinShiftTbl[sensor] * CapSense_HSIOM_PIN_CFG_SIZE;
 1244              		.loc 1 1072 0
 1245 0012 3F4A     		ldr	r2, .L73+4
 1246 0014 7B68     		ldr	r3, [r7, #4]
 1247 0016 D318     		add	r3, r2, r3
 1248 0018 1A78     		ldrb	r2, [r3]
 1249 001a 3B1C     		mov	r3, r7
 1250 001c 1333     		add	r3, r3, #19
 1251 001e 9200     		lsl	r2, r2, #2
 1252 0020 1A70     		strb	r2, [r3]
1073:.\Generated_Source\PSoC4/CapSense.c ****     uint8  pinModeShift = CapSense_pinShiftTbl[sensor]  * CapSense_PC_PIN_CFG_SIZE;
 1253              		.loc 1 1073 0
 1254 0022 3B4A     		ldr	r2, .L73+4
 1255 0024 7B68     		ldr	r3, [r7, #4]
ARM GAS  C:\DOCUME~1\Chuck\LOCALS~1\Temp\cclVEGdP.s 			page 42


 1256 0026 D318     		add	r3, r2, r3
 1257 0028 1B78     		ldrb	r3, [r3]
 1258 002a 3A1C     		mov	r2, r7
 1259 002c 1232     		add	r2, r2, #18
 1260 002e 191C     		add	r1, r3, #0
 1261 0030 4900     		lsl	r1, r1, #1
 1262 0032 CB18     		add	r3, r1, r3
 1263 0034 1370     		strb	r3, [r2]
1074:.\Generated_Source\PSoC4/CapSense.c **** 
1075:.\Generated_Source\PSoC4/CapSense.c **** 	uint32 inactiveConnect = CapSense_SNS_HIZANALOG_CONNECT;
 1264              		.loc 1 1075 0
 1265 0036 0023     		mov	r3, #0
 1266 0038 FB61     		str	r3, [r7, #28]
1076:.\Generated_Source\PSoC4/CapSense.c **** 	uint32 sensorState = CapSense_unscannedSnsDriveMode[sensor];
 1267              		.loc 1 1076 0
 1268 003a 364A     		ldr	r2, .L73+8
 1269 003c 7B68     		ldr	r3, [r7, #4]
 1270 003e D318     		add	r3, r2, r3
 1271 0040 1B78     		ldrb	r3, [r3]
 1272 0042 BB61     		str	r3, [r7, #24]
1077:.\Generated_Source\PSoC4/CapSense.c **** 
1078:.\Generated_Source\PSoC4/CapSense.c ****     *CapSense_prtSelTbl[port] &= ~(CapSense_CSD_HSIOM_MASK << pinHSIOMShift);
 1273              		.loc 1 1078 0
 1274 0044 344B     		ldr	r3, .L73+12
 1275 0046 7A69     		ldr	r2, [r7, #20]
 1276 0048 9200     		lsl	r2, r2, #2
 1277 004a D358     		ldr	r3, [r2, r3]
 1278 004c 324A     		ldr	r2, .L73+12
 1279 004e 7969     		ldr	r1, [r7, #20]
 1280 0050 8900     		lsl	r1, r1, #2
 1281 0052 8A58     		ldr	r2, [r1, r2]
 1282 0054 1268     		ldr	r2, [r2]
 1283 0056 391C     		mov	r1, r7
 1284 0058 1331     		add	r1, r1, #19
 1285 005a 0978     		ldrb	r1, [r1]
 1286 005c 0F20     		mov	r0, #15
 1287 005e 041C     		mov	r4, r0
 1288 0060 8C40     		lsl	r4, r4, r1
 1289 0062 211C     		mov	r1, r4
 1290 0064 C943     		mvn	r1, r1
 1291 0066 0A40     		and	r2, r1
 1292 0068 1A60     		str	r2, [r3]
1079:.\Generated_Source\PSoC4/CapSense.c **** 
1080:.\Generated_Source\PSoC4/CapSense.c **** 	#if(CapSense_IS_SHIELD_ENABLE == 0)
1081:.\Generated_Source\PSoC4/CapSense.c **** 	    /* Connected to Ground if shield is disabled */
1082:.\Generated_Source\PSoC4/CapSense.c **** 	    if(sensorState == CapSense__SHIELD)
 1293              		.loc 1 1082 0
 1294 006a BB69     		ldr	r3, [r7, #24]
 1295 006c 022B     		cmp	r3, #2
 1296 006e 01D1     		bne	.L70
1083:.\Generated_Source\PSoC4/CapSense.c **** 		{
1084:.\Generated_Source\PSoC4/CapSense.c **** 			sensorState = CapSense__GROUND;
 1297              		.loc 1 1084 0
 1298 0070 0023     		mov	r3, #0
 1299 0072 BB61     		str	r3, [r7, #24]
 1300              	.L70:
1085:.\Generated_Source\PSoC4/CapSense.c **** 		}
ARM GAS  C:\DOCUME~1\Chuck\LOCALS~1\Temp\cclVEGdP.s 			page 43


1086:.\Generated_Source\PSoC4/CapSense.c **** 	#endif /* (CapSense_IS_SHIELD_ENABLE == 0) */
1087:.\Generated_Source\PSoC4/CapSense.c **** 
1088:.\Generated_Source\PSoC4/CapSense.c **** 	if(sensorState != (uint32)CapSense__SHIELD)
 1301              		.loc 1 1088 0
 1302 0074 BB69     		ldr	r3, [r7, #24]
 1303 0076 022B     		cmp	r3, #2
 1304 0078 45D0     		beq	.L69
1089:.\Generated_Source\PSoC4/CapSense.c **** 	{
1090:.\Generated_Source\PSoC4/CapSense.c **** 	    if(sensorState != (uint32)CapSense__HIZ_ANALOG)
 1305              		.loc 1 1090 0
 1306 007a BB69     		ldr	r3, [r7, #24]
 1307 007c 012B     		cmp	r3, #1
 1308 007e 01D0     		beq	.L72
1091:.\Generated_Source\PSoC4/CapSense.c **** 		{   
1092:.\Generated_Source\PSoC4/CapSense.c **** 		    /* Connected to Ground */
1093:.\Generated_Source\PSoC4/CapSense.c **** 		    inactiveConnect = CapSense_SNS_GROUND_CONNECT;
 1309              		.loc 1 1093 0
 1310 0080 0623     		mov	r3, #6
 1311 0082 FB61     		str	r3, [r7, #28]
 1312              	.L72:
1094:.\Generated_Source\PSoC4/CapSense.c **** 		}
1095:.\Generated_Source\PSoC4/CapSense.c **** 		
1096:.\Generated_Source\PSoC4/CapSense.c ****         interruptState = CyEnterCriticalSection();
 1313              		.loc 1 1096 0
 1314 0084 3C1C     		mov	r4, r7
 1315 0086 1134     		add	r4, r4, #17
 1316 0088 FFF7FEFF 		bl	CyEnterCriticalSection
 1317 008c 031C     		mov	r3, r0
 1318 008e 2370     		strb	r3, [r4]
1097:.\Generated_Source\PSoC4/CapSense.c **** 
1098:.\Generated_Source\PSoC4/CapSense.c ****         /* Set drive mode */
1099:.\Generated_Source\PSoC4/CapSense.c ****     	newRegisterValue = *CapSense_prtCfgTbl[port];
 1319              		.loc 1 1099 0
 1320 0090 224B     		ldr	r3, .L73+16
 1321 0092 7A69     		ldr	r2, [r7, #20]
 1322 0094 9200     		lsl	r2, r2, #2
 1323 0096 D358     		ldr	r3, [r2, r3]
 1324 0098 1B68     		ldr	r3, [r3]
 1325 009a FB60     		str	r3, [r7, #12]
1100:.\Generated_Source\PSoC4/CapSense.c ****     	newRegisterValue &= ~(CapSense_CSD_PIN_MODE_MASK << pinModeShift);
 1326              		.loc 1 1100 0
 1327 009c 3B1C     		mov	r3, r7
 1328 009e 1233     		add	r3, r3, #18
 1329 00a0 1B78     		ldrb	r3, [r3]
 1330 00a2 0722     		mov	r2, #7
 1331 00a4 111C     		mov	r1, r2
 1332 00a6 9940     		lsl	r1, r1, r3
 1333 00a8 0B1C     		mov	r3, r1
 1334 00aa DA43     		mvn	r2, r3
 1335 00ac FB68     		ldr	r3, [r7, #12]
 1336 00ae 1340     		and	r3, r2
 1337 00b0 FB60     		str	r3, [r7, #12]
1101:.\Generated_Source\PSoC4/CapSense.c ****     	newRegisterValue |=  (uint32)(inactiveConnect << pinModeShift);
 1338              		.loc 1 1101 0
 1339 00b2 3B1C     		mov	r3, r7
 1340 00b4 1233     		add	r3, r3, #18
 1341 00b6 1B78     		ldrb	r3, [r3]
ARM GAS  C:\DOCUME~1\Chuck\LOCALS~1\Temp\cclVEGdP.s 			page 44


 1342 00b8 FA69     		ldr	r2, [r7, #28]
 1343 00ba 141C     		mov	r4, r2
 1344 00bc 9C40     		lsl	r4, r4, r3
 1345 00be 231C     		mov	r3, r4
 1346 00c0 FA68     		ldr	r2, [r7, #12]
 1347 00c2 1343     		orr	r3, r2
 1348 00c4 FB60     		str	r3, [r7, #12]
1102:.\Generated_Source\PSoC4/CapSense.c ****         *CapSense_prtCfgTbl[port] =  newRegisterValue;
 1349              		.loc 1 1102 0
 1350 00c6 154B     		ldr	r3, .L73+16
 1351 00c8 7A69     		ldr	r2, [r7, #20]
 1352 00ca 9200     		lsl	r2, r2, #2
 1353 00cc D358     		ldr	r3, [r2, r3]
 1354 00ce FA68     		ldr	r2, [r7, #12]
 1355 00d0 1A60     		str	r2, [r3]
1103:.\Generated_Source\PSoC4/CapSense.c ****         
1104:.\Generated_Source\PSoC4/CapSense.c ****         CyExitCriticalSection(interruptState);
 1356              		.loc 1 1104 0
 1357 00d2 3B1C     		mov	r3, r7
 1358 00d4 1133     		add	r3, r3, #17
 1359 00d6 1B78     		ldrb	r3, [r3]
 1360 00d8 181C     		mov	r0, r3
 1361 00da FFF7FEFF 		bl	CyExitCriticalSection
1105:.\Generated_Source\PSoC4/CapSense.c **** 
1106:.\Generated_Source\PSoC4/CapSense.c ****     	*CapSense_prtDRTbl[port]  &=  (uint32)~(uint32)((uint32)1u << CapSense_pinShiftTbl[sensor]); 
 1362              		.loc 1 1106 0
 1363 00de 104B     		ldr	r3, .L73+20
 1364 00e0 7A69     		ldr	r2, [r7, #20]
 1365 00e2 9200     		lsl	r2, r2, #2
 1366 00e4 D358     		ldr	r3, [r2, r3]
 1367 00e6 0E4A     		ldr	r2, .L73+20
 1368 00e8 7969     		ldr	r1, [r7, #20]
 1369 00ea 8900     		lsl	r1, r1, #2
 1370 00ec 8A58     		ldr	r2, [r1, r2]
 1371 00ee 1268     		ldr	r2, [r2]
 1372 00f0 0748     		ldr	r0, .L73+4
 1373 00f2 7968     		ldr	r1, [r7, #4]
 1374 00f4 4118     		add	r1, r0, r1
 1375 00f6 0978     		ldrb	r1, [r1]
 1376 00f8 0120     		mov	r0, #1
 1377 00fa 041C     		mov	r4, r0
 1378 00fc 8C40     		lsl	r4, r4, r1
 1379 00fe 211C     		mov	r1, r4
 1380 0100 C943     		mvn	r1, r1
 1381 0102 0A40     		and	r2, r1
 1382 0104 1A60     		str	r2, [r3]
 1383              	.L69:
1107:.\Generated_Source\PSoC4/CapSense.c ****     }
1108:.\Generated_Source\PSoC4/CapSense.c **** 	#if(CapSense_IS_SHIELD_ENABLE != 0)
1109:.\Generated_Source\PSoC4/CapSense.c **** 	else
1110:.\Generated_Source\PSoC4/CapSense.c **** 	{
1111:.\Generated_Source\PSoC4/CapSense.c **** 		/* Connect to Shield */
1112:.\Generated_Source\PSoC4/CapSense.c **** 		*CapSense_prtSelTbl[port] |= (CapSense_CSD_SHIELD_PORT_MODE << pinHSIOMShift);
1113:.\Generated_Source\PSoC4/CapSense.c **** 	}
1114:.\Generated_Source\PSoC4/CapSense.c **** 	#endif /* (CapSense_IS_SHIELD_ENABLE) */
1115:.\Generated_Source\PSoC4/CapSense.c **** }
 1384              		.loc 1 1115 0
ARM GAS  C:\DOCUME~1\Chuck\LOCALS~1\Temp\cclVEGdP.s 			page 45


 1385 0106 BD46     		mov	sp, r7
 1386 0108 09B0     		add	sp, sp, #36
 1387              		@ sp needed for prologue
 1388 010a 90BD     		pop	{r4, r7, pc}
 1389              	.L74:
 1390              		.align	2
 1391              	.L73:
 1392 010c 00000000 		.word	CapSense_portTable
 1393 0110 00000000 		.word	CapSense_pinShiftTbl
 1394 0114 00000000 		.word	CapSense_unscannedSnsDriveMode
 1395 0118 00000000 		.word	CapSense_prtSelTbl
 1396 011c 00000000 		.word	CapSense_prtCfgTbl
 1397 0120 00000000 		.word	CapSense_prtDRTbl
 1398              		.cfi_endproc
 1399              	.LFE49:
 1400              		.size	CapSense_DisableSensor, .-CapSense_DisableSensor
 1401              		.section	.text.CapSense_SetDriveModeAllPins,"ax",%progbits
 1402              		.align	2
 1403              		.global	CapSense_SetDriveModeAllPins
 1404              		.code	16
 1405              		.thumb_func
 1406              		.type	CapSense_SetDriveModeAllPins, %function
 1407              	CapSense_SetDriveModeAllPins:
 1408              	.LFB50:
1116:.\Generated_Source\PSoC4/CapSense.c **** 
1117:.\Generated_Source\PSoC4/CapSense.c **** 
1118:.\Generated_Source\PSoC4/CapSense.c **** /*******************************************************************************
1119:.\Generated_Source\PSoC4/CapSense.c **** * Function Name: CapSense_SetDriveModeAllPins
1120:.\Generated_Source\PSoC4/CapSense.c **** ********************************************************************************
1121:.\Generated_Source\PSoC4/CapSense.c **** *
1122:.\Generated_Source\PSoC4/CapSense.c **** * Summary:
1123:.\Generated_Source\PSoC4/CapSense.c **** * This API sets the drive mode of port pins used by the CapSense
1124:.\Generated_Source\PSoC4/CapSense.c **** * component (sensors, guard, shield, shield tank and Cmod) to drive the 
1125:.\Generated_Source\PSoC4/CapSense.c **** * mode specified by the argument.
1126:.\Generated_Source\PSoC4/CapSense.c **** *
1127:.\Generated_Source\PSoC4/CapSense.c **** * Parameters:
1128:.\Generated_Source\PSoC4/CapSense.c **** *  driveMode:  Drive mode definition.
1129:.\Generated_Source\PSoC4/CapSense.c **** *
1130:.\Generated_Source\PSoC4/CapSense.c **** * Return:
1131:.\Generated_Source\PSoC4/CapSense.c **** *  None
1132:.\Generated_Source\PSoC4/CapSense.c **** *
1133:.\Generated_Source\PSoC4/CapSense.c **** * Global Variables:
1134:.\Generated_Source\PSoC4/CapSense.c **** *  CapSense_portTable[] - used to store the port number that pin 
1135:.\Generated_Source\PSoC4/CapSense.c **** *  belongs to for each sensor.
1136:.\Generated_Source\PSoC4/CapSense.c **** *  CapSense_pinShiftTbl[] - used to store position of pin that 
1137:.\Generated_Source\PSoC4/CapSense.c **** *  configured as a sensor in the port. 
1138:.\Generated_Source\PSoC4/CapSense.c **** *
1139:.\Generated_Source\PSoC4/CapSense.c **** * Side Effects: 
1140:.\Generated_Source\PSoC4/CapSense.c **** *  This API shall be called only after CapSense component is stopped.
1141:.\Generated_Source\PSoC4/CapSense.c **** *
1142:.\Generated_Source\PSoC4/CapSense.c **** *******************************************************************************/
1143:.\Generated_Source\PSoC4/CapSense.c **** void CapSense_SetDriveModeAllPins(uint32 driveMode)
1144:.\Generated_Source\PSoC4/CapSense.c **** {
 1409              		.loc 1 1144 0
 1410              		.cfi_startproc
 1411 0000 80B5     		push	{r7, lr}
 1412              	.LCFI47:
ARM GAS  C:\DOCUME~1\Chuck\LOCALS~1\Temp\cclVEGdP.s 			page 46


 1413              		.cfi_def_cfa_offset 8
 1414              		.cfi_offset 7, -8
 1415              		.cfi_offset 14, -4
 1416 0002 86B0     		sub	sp, sp, #24
 1417              	.LCFI48:
 1418              		.cfi_def_cfa_offset 32
 1419 0004 00AF     		add	r7, sp, #0
 1420              	.LCFI49:
 1421              		.cfi_def_cfa_register 7
 1422 0006 7860     		str	r0, [r7, #4]
1145:.\Generated_Source\PSoC4/CapSense.c **** 	uint32 curSensor;
1146:.\Generated_Source\PSoC4/CapSense.c **** 	uint32 prtNumberTmp;
1147:.\Generated_Source\PSoC4/CapSense.c **** 	uint32 pinNumberTmp;
1148:.\Generated_Source\PSoC4/CapSense.c **** 	
1149:.\Generated_Source\PSoC4/CapSense.c **** 	for(curSensor = 0u; curSensor < CapSense_TOTAL_SENSOR_COUNT; curSensor++)
 1423              		.loc 1 1149 0
 1424 0008 0023     		mov	r3, #0
 1425 000a 7B61     		str	r3, [r7, #20]
 1426 000c 14E0     		b	.L76
 1427              	.L77:
1150:.\Generated_Source\PSoC4/CapSense.c **** 	{
1151:.\Generated_Source\PSoC4/CapSense.c **** 		prtNumberTmp = CapSense_portTable[curSensor];
 1428              		.loc 1 1151 0 discriminator 2
 1429 000e 104A     		ldr	r2, .L78
 1430 0010 7B69     		ldr	r3, [r7, #20]
 1431 0012 D318     		add	r3, r2, r3
 1432 0014 1B78     		ldrb	r3, [r3]
 1433 0016 3B61     		str	r3, [r7, #16]
1152:.\Generated_Source\PSoC4/CapSense.c **** 		pinNumberTmp = CapSense_pinShiftTbl[curSensor];
 1434              		.loc 1 1152 0 discriminator 2
 1435 0018 0E4A     		ldr	r2, .L78+4
 1436 001a 7B69     		ldr	r3, [r7, #20]
 1437 001c D318     		add	r3, r2, r3
 1438 001e 1B78     		ldrb	r3, [r3]
 1439 0020 FB60     		str	r3, [r7, #12]
1153:.\Generated_Source\PSoC4/CapSense.c **** 		
1154:.\Generated_Source\PSoC4/CapSense.c **** 		CapSense_SetPinDriveMode(driveMode, pinNumberTmp, prtNumberTmp);
 1440              		.loc 1 1154 0 discriminator 2
 1441 0022 7968     		ldr	r1, [r7, #4]
 1442 0024 FA68     		ldr	r2, [r7, #12]
 1443 0026 3B69     		ldr	r3, [r7, #16]
 1444 0028 081C     		mov	r0, r1
 1445 002a 111C     		mov	r1, r2
 1446 002c 1A1C     		mov	r2, r3
 1447 002e FFF7FEFF 		bl	CapSense_SetPinDriveMode
1149:.\Generated_Source\PSoC4/CapSense.c **** 	for(curSensor = 0u; curSensor < CapSense_TOTAL_SENSOR_COUNT; curSensor++)
 1448              		.loc 1 1149 0 discriminator 2
 1449 0032 7B69     		ldr	r3, [r7, #20]
 1450 0034 0133     		add	r3, r3, #1
 1451 0036 7B61     		str	r3, [r7, #20]
 1452              	.L76:
1149:.\Generated_Source\PSoC4/CapSense.c **** 	for(curSensor = 0u; curSensor < CapSense_TOTAL_SENSOR_COUNT; curSensor++)
 1453              		.loc 1 1149 0 is_stmt 0 discriminator 1
 1454 0038 7B69     		ldr	r3, [r7, #20]
 1455 003a 002B     		cmp	r3, #0
 1456 003c E7D0     		beq	.L77
1155:.\Generated_Source\PSoC4/CapSense.c **** 	}
ARM GAS  C:\DOCUME~1\Chuck\LOCALS~1\Temp\cclVEGdP.s 			page 47


1156:.\Generated_Source\PSoC4/CapSense.c **** 	
1157:.\Generated_Source\PSoC4/CapSense.c **** 	CapSense_SetPinDriveMode(driveMode, (uint32)CapSense_CMOD_PIN_NUMBER, (uint32)CapSense_CMOD_PRT_NU
 1457              		.loc 1 1157 0 is_stmt 1
 1458 003e 7B68     		ldr	r3, [r7, #4]
 1459 0040 181C     		mov	r0, r3
 1460 0042 0221     		mov	r1, #2
 1461 0044 0422     		mov	r2, #4
 1462 0046 FFF7FEFF 		bl	CapSense_SetPinDriveMode
1158:.\Generated_Source\PSoC4/CapSense.c **** 	
1159:.\Generated_Source\PSoC4/CapSense.c **** 	#if(0u != CapSense_CSH_TANK_ENABLE)
1160:.\Generated_Source\PSoC4/CapSense.c **** 		CapSense_SetPinDriveMode(driveMode, (uint32)CapSense_CTANK_PIN_NUMBER, (uint32)CapSense_CTANK_PRT
1161:.\Generated_Source\PSoC4/CapSense.c **** 	#endif /* (0u != CapSense_CSH_TANK_ENABLE) */	
1162:.\Generated_Source\PSoC4/CapSense.c **** 	
1163:.\Generated_Source\PSoC4/CapSense.c **** 	#if(0u != CapSense_IS_SHIELD_ENABLE)
1164:.\Generated_Source\PSoC4/CapSense.c **** 		CapSense_SetPinDriveMode(driveMode, (uint32)CapSense_SHIELD_PIN_NUMBER, (uint32)CapSense_SHIELD_P
1165:.\Generated_Source\PSoC4/CapSense.c **** 	#endif /* (0u != CapSense_IS_SHIELD_ENABLE) */	
1166:.\Generated_Source\PSoC4/CapSense.c **** }
 1463              		.loc 1 1166 0
 1464 004a BD46     		mov	sp, r7
 1465 004c 06B0     		add	sp, sp, #24
 1466              		@ sp needed for prologue
 1467 004e 80BD     		pop	{r7, pc}
 1468              	.L79:
 1469              		.align	2
 1470              	.L78:
 1471 0050 00000000 		.word	CapSense_portTable
 1472 0054 00000000 		.word	CapSense_pinShiftTbl
 1473              		.cfi_endproc
 1474              	.LFE50:
 1475              		.size	CapSense_SetDriveModeAllPins, .-CapSense_SetDriveModeAllPins
 1476              		.section	.text.CapSense_RestoreDriveModeAllPins,"ax",%progbits
 1477              		.align	2
 1478              		.global	CapSense_RestoreDriveModeAllPins
 1479              		.code	16
 1480              		.thumb_func
 1481              		.type	CapSense_RestoreDriveModeAllPins, %function
 1482              	CapSense_RestoreDriveModeAllPins:
 1483              	.LFB51:
1167:.\Generated_Source\PSoC4/CapSense.c **** 
1168:.\Generated_Source\PSoC4/CapSense.c **** 
1169:.\Generated_Source\PSoC4/CapSense.c **** /*******************************************************************************
1170:.\Generated_Source\PSoC4/CapSense.c **** * Function Name: CapSense_RestoreDriveModeAllPins
1171:.\Generated_Source\PSoC4/CapSense.c **** ********************************************************************************
1172:.\Generated_Source\PSoC4/CapSense.c **** *
1173:.\Generated_Source\PSoC4/CapSense.c **** * Summary:
1174:.\Generated_Source\PSoC4/CapSense.c **** *  This API restores the drive for all the CapSense port pins to the original
1175:.\Generated_Source\PSoC4/CapSense.c **** *  state.
1176:.\Generated_Source\PSoC4/CapSense.c **** *
1177:.\Generated_Source\PSoC4/CapSense.c **** * Parameters:
1178:.\Generated_Source\PSoC4/CapSense.c **** *  None
1179:.\Generated_Source\PSoC4/CapSense.c **** *
1180:.\Generated_Source\PSoC4/CapSense.c **** * Return:
1181:.\Generated_Source\PSoC4/CapSense.c **** *  None
1182:.\Generated_Source\PSoC4/CapSense.c **** *
1183:.\Generated_Source\PSoC4/CapSense.c **** * Global Variables:
1184:.\Generated_Source\PSoC4/CapSense.c **** *  CapSense_prtSelTbl[] - Contains pointers to the HSIOM 
1185:.\Generated_Source\PSoC4/CapSense.c **** *  registers for each port. 
ARM GAS  C:\DOCUME~1\Chuck\LOCALS~1\Temp\cclVEGdP.s 			page 48


1186:.\Generated_Source\PSoC4/CapSense.c **** *
1187:.\Generated_Source\PSoC4/CapSense.c **** * Side Effects: 
1188:.\Generated_Source\PSoC4/CapSense.c **** *  This API is called only after the CapSense component is stopped.
1189:.\Generated_Source\PSoC4/CapSense.c **** *
1190:.\Generated_Source\PSoC4/CapSense.c **** *******************************************************************************/
1191:.\Generated_Source\PSoC4/CapSense.c **** void CapSense_RestoreDriveModeAllPins(void)
1192:.\Generated_Source\PSoC4/CapSense.c **** {
 1484              		.loc 1 1192 0
 1485              		.cfi_startproc
 1486 0000 80B5     		push	{r7, lr}
 1487              	.LCFI50:
 1488              		.cfi_def_cfa_offset 8
 1489              		.cfi_offset 7, -8
 1490              		.cfi_offset 14, -4
 1491 0002 82B0     		sub	sp, sp, #8
 1492              	.LCFI51:
 1493              		.cfi_def_cfa_offset 16
 1494 0004 00AF     		add	r7, sp, #0
 1495              	.LCFI52:
 1496              		.cfi_def_cfa_register 7
1193:.\Generated_Source\PSoC4/CapSense.c **** 	uint32 newRegisterValue;
1194:.\Generated_Source\PSoC4/CapSense.c **** 	
1195:.\Generated_Source\PSoC4/CapSense.c **** 	CapSense_SetDriveModeAllPins(CY_SYS_PINS_DM_ALG_HIZ);
 1497              		.loc 1 1195 0
 1498 0006 0020     		mov	r0, #0
 1499 0008 FFF7FEFF 		bl	CapSense_SetDriveModeAllPins
1196:.\Generated_Source\PSoC4/CapSense.c **** 	
1197:.\Generated_Source\PSoC4/CapSense.c **** 	newRegisterValue = CapSense_CMOD_CONNECTION_REG; 
 1500              		.loc 1 1197 0
 1501 000c 084B     		ldr	r3, .L81
 1502 000e 1B68     		ldr	r3, [r3]
 1503 0010 7B60     		str	r3, [r7, #4]
1198:.\Generated_Source\PSoC4/CapSense.c ****     newRegisterValue &= ~(CapSense_CSD_CMOD_CONNECTION_MASK);
 1504              		.loc 1 1198 0
 1505 0012 7A68     		ldr	r2, [r7, #4]
 1506 0014 074B     		ldr	r3, .L81+4
 1507 0016 1340     		and	r3, r2
 1508 0018 7B60     		str	r3, [r7, #4]
1199:.\Generated_Source\PSoC4/CapSense.c ****     newRegisterValue |= CapSense_CSD_CMOD_TO_AMUXBUS_A;
 1509              		.loc 1 1199 0
 1510 001a 7B68     		ldr	r3, [r7, #4]
 1511 001c C022     		mov	r2, #192
 1512 001e D200     		lsl	r2, r2, #3
 1513 0020 1343     		orr	r3, r2
 1514 0022 7B60     		str	r3, [r7, #4]
1200:.\Generated_Source\PSoC4/CapSense.c ****     CapSense_CMOD_CONNECTION_REG = newRegisterValue;
 1515              		.loc 1 1200 0
 1516 0024 024B     		ldr	r3, .L81
 1517 0026 7A68     		ldr	r2, [r7, #4]
 1518 0028 1A60     		str	r2, [r3]
1201:.\Generated_Source\PSoC4/CapSense.c **** 	
1202:.\Generated_Source\PSoC4/CapSense.c **** 	#if(0u != CapSense_CSH_TANK_ENABLE)
1203:.\Generated_Source\PSoC4/CapSense.c **** 		newRegisterValue = CapSense_CTANK_CONNECTION_REG;
1204:.\Generated_Source\PSoC4/CapSense.c ****         newRegisterValue &= ~(CapSense_CSD_CTANK_CONNECTION_MASK);
1205:.\Generated_Source\PSoC4/CapSense.c **** 		newRegisterValue |= CapSense_CSD_CTANK_TO_AMUXBUS_B;
1206:.\Generated_Source\PSoC4/CapSense.c ****         CapSense_CTANK_CONNECTION_REG = newRegisterValue;
1207:.\Generated_Source\PSoC4/CapSense.c **** 	#endif/* (0u != CapSense_CSH_TANK_ENABLE) */
ARM GAS  C:\DOCUME~1\Chuck\LOCALS~1\Temp\cclVEGdP.s 			page 49


1208:.\Generated_Source\PSoC4/CapSense.c **** 	
1209:.\Generated_Source\PSoC4/CapSense.c **** 	#if(0u != CapSense_IS_SHIELD_ENABLE)
1210:.\Generated_Source\PSoC4/CapSense.c **** 		newRegisterValue = *CapSense_prtSelTbl[CapSense_SHIELD_PORT_NUMBER];
1211:.\Generated_Source\PSoC4/CapSense.c ****         newRegisterValue &= ~(CapSense_CSD_HSIOM_MASK << ((uint32)CapSense_SHIELD_PIN_NUMBER * CapS
1212:.\Generated_Source\PSoC4/CapSense.c ****         newRegisterValue |= (CapSense_CSD_SHIELD_PORT_MODE << ((uint32)CapSense_SHIELD_PIN_NUMBER *
1213:.\Generated_Source\PSoC4/CapSense.c ****         *CapSense_prtSelTbl[CapSense_SHIELD_PORT_NUMBER] = newRegisterValue;
1214:.\Generated_Source\PSoC4/CapSense.c **** 	#endif /* (0u != CapSense_IS_SHIELD_ENABLE) */	
1215:.\Generated_Source\PSoC4/CapSense.c **** }
 1519              		.loc 1 1215 0
 1520 002a BD46     		mov	sp, r7
 1521 002c 02B0     		add	sp, sp, #8
 1522              		@ sp needed for prologue
 1523 002e 80BD     		pop	{r7, pc}
 1524              	.L82:
 1525              		.align	2
 1526              	.L81:
 1527 0030 10000140 		.word	1073807376
 1528 0034 FFF0FFFF 		.word	-3841
 1529              		.cfi_endproc
 1530              	.LFE51:
 1531              		.size	CapSense_RestoreDriveModeAllPins, .-CapSense_RestoreDriveModeAllPins
 1532              		.section	.text.CapSense_SetPinDriveMode,"ax",%progbits
 1533              		.align	2
 1534              		.global	CapSense_SetPinDriveMode
 1535              		.code	16
 1536              		.thumb_func
 1537              		.type	CapSense_SetPinDriveMode, %function
 1538              	CapSense_SetPinDriveMode:
 1539              	.LFB52:
1216:.\Generated_Source\PSoC4/CapSense.c **** 
1217:.\Generated_Source\PSoC4/CapSense.c **** 
1218:.\Generated_Source\PSoC4/CapSense.c **** /*******************************************************************************
1219:.\Generated_Source\PSoC4/CapSense.c **** * Function Name: CapSense_SetPinDriveMode
1220:.\Generated_Source\PSoC4/CapSense.c **** ********************************************************************************
1221:.\Generated_Source\PSoC4/CapSense.c **** *
1222:.\Generated_Source\PSoC4/CapSense.c **** * Summary:
1223:.\Generated_Source\PSoC4/CapSense.c **** * This API sets the drive mode for the appropriate port/pin.
1224:.\Generated_Source\PSoC4/CapSense.c **** *
1225:.\Generated_Source\PSoC4/CapSense.c **** * Parameters:
1226:.\Generated_Source\PSoC4/CapSense.c **** *  driveMode:  Drive mode definition.
1227:.\Generated_Source\PSoC4/CapSense.c **** *  portNumber: contains port number (0, 1, 2).
1228:.\Generated_Source\PSoC4/CapSense.c **** *  pinNumber: contains pin number (0, 1, 2, ... , 7).
1229:.\Generated_Source\PSoC4/CapSense.c **** *
1230:.\Generated_Source\PSoC4/CapSense.c **** * Return:
1231:.\Generated_Source\PSoC4/CapSense.c **** *  None
1232:.\Generated_Source\PSoC4/CapSense.c **** *
1233:.\Generated_Source\PSoC4/CapSense.c **** * Global Variables:
1234:.\Generated_Source\PSoC4/CapSense.c **** *  CapSense_prtSelTbl[] - Contains pointers to the HSIOM 
1235:.\Generated_Source\PSoC4/CapSense.c **** *  registers for each port. 
1236:.\Generated_Source\PSoC4/CapSense.c **** *  CapSense_prtCfgTb[] - Contains pointers to the port config 
1237:.\Generated_Source\PSoC4/CapSense.c **** *  registers for each port.
1238:.\Generated_Source\PSoC4/CapSense.c **** *
1239:.\Generated_Source\PSoC4/CapSense.c **** * Side Effects: 
1240:.\Generated_Source\PSoC4/CapSense.c **** *  This API is called only after CapSense component is stopped.
1241:.\Generated_Source\PSoC4/CapSense.c **** *
1242:.\Generated_Source\PSoC4/CapSense.c **** *******************************************************************************/
1243:.\Generated_Source\PSoC4/CapSense.c **** void CapSense_SetPinDriveMode(uint32 driveMode, uint32 pinNumber, uint32 portNumber)
ARM GAS  C:\DOCUME~1\Chuck\LOCALS~1\Temp\cclVEGdP.s 			page 50


1244:.\Generated_Source\PSoC4/CapSense.c **** {	
 1540              		.loc 1 1244 0
 1541              		.cfi_startproc
 1542 0000 80B5     		push	{r7, lr}
 1543              	.LCFI53:
 1544              		.cfi_def_cfa_offset 8
 1545              		.cfi_offset 7, -8
 1546              		.cfi_offset 14, -4
 1547 0002 86B0     		sub	sp, sp, #24
 1548              	.LCFI54:
 1549              		.cfi_def_cfa_offset 32
 1550 0004 00AF     		add	r7, sp, #0
 1551              	.LCFI55:
 1552              		.cfi_def_cfa_register 7
 1553 0006 F860     		str	r0, [r7, #12]
 1554 0008 B960     		str	r1, [r7, #8]
 1555 000a 7A60     		str	r2, [r7, #4]
1245:.\Generated_Source\PSoC4/CapSense.c **** 	uint32  pinModeShift;
1246:.\Generated_Source\PSoC4/CapSense.c **** 	uint32 newRegisterValue;
1247:.\Generated_Source\PSoC4/CapSense.c **** 	
1248:.\Generated_Source\PSoC4/CapSense.c **** 	pinModeShift  = pinNumber * CapSense_PC_PIN_CFG_SIZE;
 1556              		.loc 1 1248 0
 1557 000c BA68     		ldr	r2, [r7, #8]
 1558 000e 131C     		mov	r3, r2
 1559 0010 5B00     		lsl	r3, r3, #1
 1560 0012 9B18     		add	r3, r3, r2
 1561 0014 7B61     		str	r3, [r7, #20]
1249:.\Generated_Source\PSoC4/CapSense.c **** 	
1250:.\Generated_Source\PSoC4/CapSense.c **** 	newRegisterValue = *CapSense_prtCfgTbl[portNumber];
 1562              		.loc 1 1250 0
 1563 0016 104B     		ldr	r3, .L84
 1564 0018 7A68     		ldr	r2, [r7, #4]
 1565 001a 9200     		lsl	r2, r2, #2
 1566 001c D358     		ldr	r3, [r2, r3]
 1567 001e 1B68     		ldr	r3, [r3]
 1568 0020 3B61     		str	r3, [r7, #16]
1251:.\Generated_Source\PSoC4/CapSense.c **** 	newRegisterValue &= ~(CapSense_CSD_PIN_MODE_MASK << pinModeShift);
 1569              		.loc 1 1251 0
 1570 0022 7B69     		ldr	r3, [r7, #20]
 1571 0024 0722     		mov	r2, #7
 1572 0026 111C     		mov	r1, r2
 1573 0028 9940     		lsl	r1, r1, r3
 1574 002a 0B1C     		mov	r3, r1
 1575 002c DA43     		mvn	r2, r3
 1576 002e 3B69     		ldr	r3, [r7, #16]
 1577 0030 1340     		and	r3, r2
 1578 0032 3B61     		str	r3, [r7, #16]
1252:.\Generated_Source\PSoC4/CapSense.c **** 	newRegisterValue |=  (uint32)((uint32)driveMode << pinModeShift);
 1579              		.loc 1 1252 0
 1580 0034 7B69     		ldr	r3, [r7, #20]
 1581 0036 FA68     		ldr	r2, [r7, #12]
 1582 0038 111C     		mov	r1, r2
 1583 003a 9940     		lsl	r1, r1, r3
 1584 003c 0B1C     		mov	r3, r1
 1585 003e 3A69     		ldr	r2, [r7, #16]
 1586 0040 1343     		orr	r3, r2
 1587 0042 3B61     		str	r3, [r7, #16]
ARM GAS  C:\DOCUME~1\Chuck\LOCALS~1\Temp\cclVEGdP.s 			page 51


1253:.\Generated_Source\PSoC4/CapSense.c ****     *CapSense_prtCfgTbl[portNumber] =  newRegisterValue;
 1588              		.loc 1 1253 0
 1589 0044 044B     		ldr	r3, .L84
 1590 0046 7A68     		ldr	r2, [r7, #4]
 1591 0048 9200     		lsl	r2, r2, #2
 1592 004a D358     		ldr	r3, [r2, r3]
 1593 004c 3A69     		ldr	r2, [r7, #16]
 1594 004e 1A60     		str	r2, [r3]
1254:.\Generated_Source\PSoC4/CapSense.c **** }
 1595              		.loc 1 1254 0
 1596 0050 BD46     		mov	sp, r7
 1597 0052 06B0     		add	sp, sp, #24
 1598              		@ sp needed for prologue
 1599 0054 80BD     		pop	{r7, pc}
 1600              	.L85:
 1601 0056 C046     		.align	2
 1602              	.L84:
 1603 0058 00000000 		.word	CapSense_prtCfgTbl
 1604              		.cfi_endproc
 1605              	.LFE52:
 1606              		.size	CapSense_SetPinDriveMode, .-CapSense_SetPinDriveMode
 1607              		.section	.text.CapSense_PreScan,"ax",%progbits
 1608              		.align	2
 1609              		.global	CapSense_PreScan
 1610              		.code	16
 1611              		.thumb_func
 1612              		.type	CapSense_PreScan, %function
 1613              	CapSense_PreScan:
 1614              	.LFB53:
1255:.\Generated_Source\PSoC4/CapSense.c **** 
1256:.\Generated_Source\PSoC4/CapSense.c **** 
1257:.\Generated_Source\PSoC4/CapSense.c **** /*******************************************************************************
1258:.\Generated_Source\PSoC4/CapSense.c **** * Function Name: CapSense_PreScan
1259:.\Generated_Source\PSoC4/CapSense.c **** ********************************************************************************
1260:.\Generated_Source\PSoC4/CapSense.c **** *
1261:.\Generated_Source\PSoC4/CapSense.c **** * Summary:
1262:.\Generated_Source\PSoC4/CapSense.c **** *  Sets required settings, enables a sensor, removes Vref from AMUX and starts the 
1263:.\Generated_Source\PSoC4/CapSense.c **** *  scanning process of the sensor.
1264:.\Generated_Source\PSoC4/CapSense.c **** *
1265:.\Generated_Source\PSoC4/CapSense.c **** * Parameters:
1266:.\Generated_Source\PSoC4/CapSense.c **** *  sensor:  Sensor number.
1267:.\Generated_Source\PSoC4/CapSense.c **** *
1268:.\Generated_Source\PSoC4/CapSense.c **** * Return:
1269:.\Generated_Source\PSoC4/CapSense.c **** *  None
1270:.\Generated_Source\PSoC4/CapSense.c **** *
1271:.\Generated_Source\PSoC4/CapSense.c **** * Global Variables:
1272:.\Generated_Source\PSoC4/CapSense.c **** * CapSense_widgetNumber[] - This array contains numbers of widgets for each sensor.
1273:.\Generated_Source\PSoC4/CapSense.c **** * CapSense_widgetResolution[] - Contains the widget resolution.
1274:.\Generated_Source\PSoC4/CapSense.c **** *
1275:.\Generated_Source\PSoC4/CapSense.c **** * Side Effects: 
1276:.\Generated_Source\PSoC4/CapSense.c **** *  None
1277:.\Generated_Source\PSoC4/CapSense.c **** *
1278:.\Generated_Source\PSoC4/CapSense.c **** *******************************************************************************/
1279:.\Generated_Source\PSoC4/CapSense.c **** void CapSense_PreScan(uint32 sensor)
1280:.\Generated_Source\PSoC4/CapSense.c **** {
 1615              		.loc 1 1280 0
 1616              		.cfi_startproc
ARM GAS  C:\DOCUME~1\Chuck\LOCALS~1\Temp\cclVEGdP.s 			page 52


 1617 0000 90B5     		push	{r4, r7, lr}
 1618              	.LCFI56:
 1619              		.cfi_def_cfa_offset 12
 1620              		.cfi_offset 4, -12
 1621              		.cfi_offset 7, -8
 1622              		.cfi_offset 14, -4
 1623 0002 89B0     		sub	sp, sp, #36
 1624              	.LCFI57:
 1625              		.cfi_def_cfa_offset 48
 1626 0004 00AF     		add	r7, sp, #0
 1627              	.LCFI58:
 1628              		.cfi_def_cfa_register 7
 1629 0006 7860     		str	r0, [r7, #4]
1281:.\Generated_Source\PSoC4/CapSense.c ****     uint8 widget;
1282:.\Generated_Source\PSoC4/CapSense.c ****     uint8 interruptState;
1283:.\Generated_Source\PSoC4/CapSense.c **** 	uint32 newRegValue;
1284:.\Generated_Source\PSoC4/CapSense.c **** 	uint32 counterResolution;
1285:.\Generated_Source\PSoC4/CapSense.c **** 	
1286:.\Generated_Source\PSoC4/CapSense.c **** 	#if(CapSense_PRS_OPTIONS == CapSense__PRS_AUTO)
1287:.\Generated_Source\PSoC4/CapSense.c **** 		uint8 senseClkDivMath;
1288:.\Generated_Source\PSoC4/CapSense.c **** 		uint8 sampleClkDivMath;
1289:.\Generated_Source\PSoC4/CapSense.c **** 	#endif /* (CapSense_PRS_OPTIONS == CapSense__PRS_AUTO) */	
1290:.\Generated_Source\PSoC4/CapSense.c **** 	
1291:.\Generated_Source\PSoC4/CapSense.c **** 	#if ((CapSense_TUNING_METHOD == CapSense__TUNING_AUTO) &&\
1292:.\Generated_Source\PSoC4/CapSense.c **** 		 (0 != CapSense_IS_OVERSAMPLING_EN))
1293:.\Generated_Source\PSoC4/CapSense.c **** 		uint32 oversamplingFactor;
1294:.\Generated_Source\PSoC4/CapSense.c **** 	#endif /* ((CapSense_TUNING_METHOD == CapSense__TUNING_AUTO) &&\
1295:.\Generated_Source\PSoC4/CapSense.c **** 	           (0 != CapSense_IS_OVERSAMPLING_EN)) */
1296:.\Generated_Source\PSoC4/CapSense.c **** 
1297:.\Generated_Source\PSoC4/CapSense.c ****     /* Define widget sensor belongs to */
1298:.\Generated_Source\PSoC4/CapSense.c ****     widget = CapSense_widgetNumber[sensor];
 1630              		.loc 1 1298 0
 1631 0008 3B1C     		mov	r3, r7
 1632 000a 1B33     		add	r3, r3, #27
 1633 000c 3D49     		ldr	r1, .L88
 1634 000e 7A68     		ldr	r2, [r7, #4]
 1635 0010 8A18     		add	r2, r1, r2
 1636 0012 1278     		ldrb	r2, [r2]
 1637 0014 1A70     		strb	r2, [r3]
1299:.\Generated_Source\PSoC4/CapSense.c **** 
1300:.\Generated_Source\PSoC4/CapSense.c **** 	/* Recalculate Counter Resolution to MSB 16 bits */
1301:.\Generated_Source\PSoC4/CapSense.c **** 	counterResolution = CapSense_widgetResolution[widget];
 1638              		.loc 1 1301 0
 1639 0016 3B1C     		mov	r3, r7
 1640 0018 1B33     		add	r3, r3, #27
 1641 001a 1A78     		ldrb	r2, [r3]
 1642 001c 3A4B     		ldr	r3, .L88+4
 1643 001e 9200     		lsl	r2, r2, #2
 1644 0020 D358     		ldr	r3, [r2, r3]
 1645 0022 FB61     		str	r3, [r7, #28]
1302:.\Generated_Source\PSoC4/CapSense.c **** 	
1303:.\Generated_Source\PSoC4/CapSense.c **** 	#if ((CapSense_TUNING_METHOD == CapSense__TUNING_AUTO) &&\
1304:.\Generated_Source\PSoC4/CapSense.c **** 		 (0 != CapSense_IS_OVERSAMPLING_EN))
1305:.\Generated_Source\PSoC4/CapSense.c **** 	    oversamplingFactor = CapSense_GetBitValue(scanSpeedTbl, sensor);
 1646              		.loc 1 1305 0
 1647 0024 394A     		ldr	r2, .L88+8
 1648 0026 7B68     		ldr	r3, [r7, #4]
ARM GAS  C:\DOCUME~1\Chuck\LOCALS~1\Temp\cclVEGdP.s 			page 53


 1649 0028 101C     		mov	r0, r2
 1650 002a 191C     		mov	r1, r3
 1651 002c FFF7FEFF 		bl	CapSense_GetBitValue
 1652 0030 031C     		mov	r3, r0
 1653 0032 7B61     		str	r3, [r7, #20]
1306:.\Generated_Source\PSoC4/CapSense.c **** 
1307:.\Generated_Source\PSoC4/CapSense.c **** 		if(counterResolution < CapSense_RESOLUTION_16_BITS)
 1654              		.loc 1 1307 0
 1655 0034 FA69     		ldr	r2, [r7, #28]
 1656 0036 364B     		ldr	r3, .L88+12
 1657 0038 9A42     		cmp	r2, r3
 1658 003a 0AD8     		bhi	.L87
1308:.\Generated_Source\PSoC4/CapSense.c **** 		{
1309:.\Generated_Source\PSoC4/CapSense.c **** 			counterResolution <<= oversamplingFactor;
 1659              		.loc 1 1309 0
 1660 003c 7B69     		ldr	r3, [r7, #20]
 1661 003e FA69     		ldr	r2, [r7, #28]
 1662 0040 111C     		mov	r1, r2
 1663 0042 9940     		lsl	r1, r1, r3
 1664 0044 0B1C     		mov	r3, r1
 1665 0046 FB61     		str	r3, [r7, #28]
1310:.\Generated_Source\PSoC4/CapSense.c **** 			counterResolution |= (uint32)(CapSense_RESOLUTION_8_BITS);
 1666              		.loc 1 1310 0
 1667 0048 FB69     		ldr	r3, [r7, #28]
 1668 004a FF22     		mov	r2, #255
 1669 004c 1204     		lsl	r2, r2, #16
 1670 004e 1343     		orr	r3, r2
 1671 0050 FB61     		str	r3, [r7, #28]
 1672              	.L87:
1311:.\Generated_Source\PSoC4/CapSense.c **** 		}
1312:.\Generated_Source\PSoC4/CapSense.c **** 	#endif /* ((CapSense_TUNING_METHOD == CapSense__TUNING_AUTO) &&\
1313:.\Generated_Source\PSoC4/CapSense.c **** 	           (0 != CapSense_IS_OVERSAMPLING_EN)) */
1314:.\Generated_Source\PSoC4/CapSense.c **** 	
1315:.\Generated_Source\PSoC4/CapSense.c **** 	#if (0u != CapSense_IS_M0S8PERI_BLOCK)
1316:.\Generated_Source\PSoC4/CapSense.c **** 		CapSense_SenseClk_Stop();
1317:.\Generated_Source\PSoC4/CapSense.c **** 		CapSense_SampleClk_Stop();
1318:.\Generated_Source\PSoC4/CapSense.c **** 	#endif /* (0u != CapSense_IS_M0S8PERI_BLOCK) */
1319:.\Generated_Source\PSoC4/CapSense.c **** 
1320:.\Generated_Source\PSoC4/CapSense.c **** 	#if (0u != CapSense_MULTIPLE_FREQUENCY_SET)
1321:.\Generated_Source\PSoC4/CapSense.c **** 		CapSense_SampleClk_SetDividerValue((uint16)CapSense_sampleClkDividerVal[sensor]);
 1673              		.loc 1 1321 0
 1674 0052 304A     		ldr	r2, .L88+16
 1675 0054 7B68     		ldr	r3, [r7, #4]
 1676 0056 D318     		add	r3, r2, r3
 1677 0058 1B78     		ldrb	r3, [r3]
 1678 005a 013B     		sub	r3, r3, #1
 1679 005c 9BB2     		uxth	r3, r3
 1680 005e 181C     		mov	r0, r3
 1681 0060 0021     		mov	r1, #0
 1682 0062 FFF7FEFF 		bl	CapSense_SampleClk_SetFractionalDividerRegister
1322:.\Generated_Source\PSoC4/CapSense.c **** 		CapSense_SenseClk_SetDividerValue((uint16)CapSense_senseClkDividerVal[sensor]);
 1683              		.loc 1 1322 0
 1684 0066 2C4A     		ldr	r2, .L88+20
 1685 0068 7B68     		ldr	r3, [r7, #4]
 1686 006a D318     		add	r3, r2, r3
 1687 006c 1B78     		ldrb	r3, [r3]
 1688 006e 013B     		sub	r3, r3, #1
ARM GAS  C:\DOCUME~1\Chuck\LOCALS~1\Temp\cclVEGdP.s 			page 54


 1689 0070 9BB2     		uxth	r3, r3
 1690 0072 181C     		mov	r0, r3
 1691 0074 0021     		mov	r1, #0
 1692 0076 FFF7FEFF 		bl	CapSense_SenseClk_SetFractionalDividerRegister
1323:.\Generated_Source\PSoC4/CapSense.c **** 	#else
1324:.\Generated_Source\PSoC4/CapSense.c **** 		CapSense_SampleClk_SetDividerValue((uint16)CapSense_sampleClkDividerVal);
1325:.\Generated_Source\PSoC4/CapSense.c **** 		CapSense_SenseClk_SetDividerValue((uint16)CapSense_senseClkDividerVal);
1326:.\Generated_Source\PSoC4/CapSense.c **** 	#endif /* (0u != CapSense_MULTIPLE_FREQUENCY_SET) */
1327:.\Generated_Source\PSoC4/CapSense.c **** 
1328:.\Generated_Source\PSoC4/CapSense.c **** 	#if (0u != CapSense_IS_M0S8PERI_BLOCK)
1329:.\Generated_Source\PSoC4/CapSense.c **** 		CapSense_SampleClk_Start();
1330:.\Generated_Source\PSoC4/CapSense.c **** 		CapSense_SenseClk_StartEx(CapSense_SampleClk__DIV_ID);
1331:.\Generated_Source\PSoC4/CapSense.c **** 		
1332:.\Generated_Source\PSoC4/CapSense.c **** 		#if(CapSense_PRS_OPTIONS == CapSense__PRS_NONE)
1333:.\Generated_Source\PSoC4/CapSense.c **** 			CyIntDisable(CapSense_ISR_NUMBER);
1334:.\Generated_Source\PSoC4/CapSense.c **** 			CapSense_CSD_CNT_REG = CapSense_ONE_CYCLE;
1335:.\Generated_Source\PSoC4/CapSense.c **** 			while(0u != (CapSense_CSD_CNT_REG & CapSense_RESOLUTION_16_BITS))
1336:.\Generated_Source\PSoC4/CapSense.c **** 			{
1337:.\Generated_Source\PSoC4/CapSense.c **** 			/* Wait until scanning is complete */ 
1338:.\Generated_Source\PSoC4/CapSense.c **** 			}
1339:.\Generated_Source\PSoC4/CapSense.c **** 			CapSense_CSD_INTR_REG = 1u;
1340:.\Generated_Source\PSoC4/CapSense.c **** 			CyIntClearPending(CapSense_ISR_NUMBER);
1341:.\Generated_Source\PSoC4/CapSense.c **** 			CyIntEnable(CapSense_ISR_NUMBER); 
1342:.\Generated_Source\PSoC4/CapSense.c **** 		#endif /* CapSense_PRS_OPTIONS == CapSense__PRS_NONE */
1343:.\Generated_Source\PSoC4/CapSense.c **** 	#endif /* (0u != CapSense_IS_M0S8PERI_BLOCK) */
1344:.\Generated_Source\PSoC4/CapSense.c **** 
1345:.\Generated_Source\PSoC4/CapSense.c **** #if(CapSense_PRS_OPTIONS != CapSense__PRS_NONE)
1346:.\Generated_Source\PSoC4/CapSense.c **** 
1347:.\Generated_Source\PSoC4/CapSense.c **** 	#if(CapSense_TUNING_METHOD == CapSense__TUNING_AUTO)
1348:.\Generated_Source\PSoC4/CapSense.c **** 		if(CapSense_prescalersTuningDone != 0u)
1349:.\Generated_Source\PSoC4/CapSense.c **** 		{
1350:.\Generated_Source\PSoC4/CapSense.c **** 	#endif /* (CapSense_TUNING_METHOD == CapSense__TUNING_AUTO) */
1351:.\Generated_Source\PSoC4/CapSense.c **** 			
1352:.\Generated_Source\PSoC4/CapSense.c **** 			CyIntDisable(CapSense_ISR_NUMBER);
1353:.\Generated_Source\PSoC4/CapSense.c **** 			
1354:.\Generated_Source\PSoC4/CapSense.c **** 			newRegValue = CapSense_CSD_CFG_REG;
1355:.\Generated_Source\PSoC4/CapSense.c **** 			newRegValue |= CapSense_CSD_CFG_PRS_SELECT;
1356:.\Generated_Source\PSoC4/CapSense.c **** 			
1357:.\Generated_Source\PSoC4/CapSense.c **** 			#if(CapSense_PRS_OPTIONS == CapSense__PRS_AUTO)
1358:.\Generated_Source\PSoC4/CapSense.c **** 				
1359:.\Generated_Source\PSoC4/CapSense.c **** 				newRegValue &= ~(CapSense_PRS_MODE_MASK);
1360:.\Generated_Source\PSoC4/CapSense.c **** 				
1361:.\Generated_Source\PSoC4/CapSense.c **** 				#if (0u != CapSense_MULTIPLE_FREQUENCY_SET)
1362:.\Generated_Source\PSoC4/CapSense.c **** 					senseClkDivMath = CapSense_senseClkDividerVal[sensor];
1363:.\Generated_Source\PSoC4/CapSense.c **** 					sampleClkDivMath = CapSense_sampleClkDividerVal[sensor];
1364:.\Generated_Source\PSoC4/CapSense.c **** 				#else
1365:.\Generated_Source\PSoC4/CapSense.c **** 					senseClkDivMath = CapSense_senseClkDividerVal;
1366:.\Generated_Source\PSoC4/CapSense.c **** 					sampleClkDivMath = CapSense_sampleClkDividerVal;
1367:.\Generated_Source\PSoC4/CapSense.c **** 				#endif /* ( CapSense_MULTIPLE_FREQUENCY_SET) */
1368:.\Generated_Source\PSoC4/CapSense.c **** 				
1369:.\Generated_Source\PSoC4/CapSense.c **** 				#if(0u == CapSense_IS_M0S8PERI_BLOCK)
1370:.\Generated_Source\PSoC4/CapSense.c **** 					senseClkDivMath *= sampleClkDivMath;
1371:.\Generated_Source\PSoC4/CapSense.c **** 				#endif /* (0u == CapSense_IS_M0S8PERI_BLOCK) */	
1372:.\Generated_Source\PSoC4/CapSense.c **** 				
1373:.\Generated_Source\PSoC4/CapSense.c **** 				if((senseClkDivMath * CapSense_RESOLUTION_12_BITS) <\
1374:.\Generated_Source\PSoC4/CapSense.c **** 				   (sampleClkDivMath * CapSense_widgetResolution[widget]))
1375:.\Generated_Source\PSoC4/CapSense.c **** 				{
ARM GAS  C:\DOCUME~1\Chuck\LOCALS~1\Temp\cclVEGdP.s 			page 55


1376:.\Generated_Source\PSoC4/CapSense.c **** 					newRegValue |= CapSense_CSD_PRS_12_BIT;
1377:.\Generated_Source\PSoC4/CapSense.c **** 				}
1378:.\Generated_Source\PSoC4/CapSense.c **** 			#endif /* (CapSense_PRS_OPTIONS == CapSense__PRS_AUTO) */
1379:.\Generated_Source\PSoC4/CapSense.c **** 			
1380:.\Generated_Source\PSoC4/CapSense.c **** 			CapSense_CSD_CFG_REG = newRegValue;
1381:.\Generated_Source\PSoC4/CapSense.c **** 			
1382:.\Generated_Source\PSoC4/CapSense.c **** 			CyIntEnable(CapSense_ISR_NUMBER);
1383:.\Generated_Source\PSoC4/CapSense.c **** 			
1384:.\Generated_Source\PSoC4/CapSense.c **** 	#if(CapSense_TUNING_METHOD == CapSense__TUNING_AUTO)	
1385:.\Generated_Source\PSoC4/CapSense.c **** 		}
1386:.\Generated_Source\PSoC4/CapSense.c **** 	#endif /* (CapSense_PRS_OPTIONS != CapSense__PRS_NONE) */
1387:.\Generated_Source\PSoC4/CapSense.c **** 
1388:.\Generated_Source\PSoC4/CapSense.c **** #endif /* (CapSense_PRS_OPTIONS == CapSense__PRS_NONE) */
1389:.\Generated_Source\PSoC4/CapSense.c **** 	
1390:.\Generated_Source\PSoC4/CapSense.c **** 	/* Set Idac Value */
1391:.\Generated_Source\PSoC4/CapSense.c **** 	CyIntDisable(CapSense_ISR_NUMBER);
 1693              		.loc 1 1391 0
 1694 007a 0F20     		mov	r0, #15
 1695 007c FFF7FEFF 		bl	CyIntDisable
1392:.\Generated_Source\PSoC4/CapSense.c ****     newRegValue = CapSense_CSD_IDAC_REG;
 1696              		.loc 1 1392 0
 1697 0080 264B     		ldr	r3, .L88+24
 1698 0082 1B68     		ldr	r3, [r3]
 1699 0084 3B61     		str	r3, [r7, #16]
1393:.\Generated_Source\PSoC4/CapSense.c ****  
1394:.\Generated_Source\PSoC4/CapSense.c **** #if (CapSense_IDAC_CNT == 1u)    
1395:.\Generated_Source\PSoC4/CapSense.c **** 	newRegValue &= ~(CapSense_CSD_IDAC1_DATA_MASK);
1396:.\Generated_Source\PSoC4/CapSense.c **** 	newRegValue |= CapSense_modulationIDAC[sensor];
1397:.\Generated_Source\PSoC4/CapSense.c **** #else
1398:.\Generated_Source\PSoC4/CapSense.c **** 	newRegValue &= ~(CapSense_CSD_IDAC1_DATA_MASK | CapSense_CSD_IDAC2_DATA_MASK);
 1700              		.loc 1 1398 0
 1701 0086 3A69     		ldr	r2, [r7, #16]
 1702 0088 254B     		ldr	r3, .L88+28
 1703 008a 1340     		and	r3, r2
 1704 008c 3B61     		str	r3, [r7, #16]
1399:.\Generated_Source\PSoC4/CapSense.c **** 	newRegValue |= (CapSense_modulationIDAC[sensor] | 
 1705              		.loc 1 1399 0
 1706 008e 254A     		ldr	r2, .L88+32
 1707 0090 7B68     		ldr	r3, [r7, #4]
 1708 0092 D318     		add	r3, r2, r3
 1709 0094 1B78     		ldrb	r3, [r3]
 1710 0096 1A1C     		mov	r2, r3
1400:.\Generated_Source\PSoC4/CapSense.c **** 							(uint32)((uint32)CapSense_compensationIDAC[sensor] <<
 1711              		.loc 1 1400 0
 1712 0098 2349     		ldr	r1, .L88+36
 1713 009a 7B68     		ldr	r3, [r7, #4]
 1714 009c CB18     		add	r3, r1, r3
 1715 009e 1B78     		ldrb	r3, [r3]
 1716 00a0 1B04     		lsl	r3, r3, #16
1399:.\Generated_Source\PSoC4/CapSense.c **** 	newRegValue |= (CapSense_modulationIDAC[sensor] | 
 1717              		.loc 1 1399 0
 1718 00a2 1343     		orr	r3, r2
 1719 00a4 3A69     		ldr	r2, [r7, #16]
 1720 00a6 1343     		orr	r3, r2
 1721 00a8 3B61     		str	r3, [r7, #16]
1401:.\Generated_Source\PSoC4/CapSense.c **** 							CapSense_CSD_IDAC2_DATA_OFFSET));                               
1402:.\Generated_Source\PSoC4/CapSense.c **** #endif /* (CapSense_IDAC_CNT == 1u) */
ARM GAS  C:\DOCUME~1\Chuck\LOCALS~1\Temp\cclVEGdP.s 			page 56


1403:.\Generated_Source\PSoC4/CapSense.c **** 	
1404:.\Generated_Source\PSoC4/CapSense.c **** 	CapSense_CSD_IDAC_REG = newRegValue;
 1722              		.loc 1 1404 0
 1723 00aa 1C4B     		ldr	r3, .L88+24
 1724 00ac 3A69     		ldr	r2, [r7, #16]
 1725 00ae 1A60     		str	r2, [r3]
1405:.\Generated_Source\PSoC4/CapSense.c **** 
1406:.\Generated_Source\PSoC4/CapSense.c **** #if(CapSense_CMOD_PREGARGE_OPTION == CapSense__CAPPRIOBUF)
1407:.\Generated_Source\PSoC4/CapSense.c **** 	newRegValue = CapSense_CMOD_CONNECTION_REG;
1408:.\Generated_Source\PSoC4/CapSense.c **** 	newRegValue &= ~(CapSense_CSD_CMOD_CONNECTION_MASK);
1409:.\Generated_Source\PSoC4/CapSense.c **** 	newRegValue |= CapSense_CSD_CMOD_TO_AMUXBUS_A;
1410:.\Generated_Source\PSoC4/CapSense.c **** 	CapSense_CMOD_CONNECTION_REG = newRegValue;
1411:.\Generated_Source\PSoC4/CapSense.c **** 	
1412:.\Generated_Source\PSoC4/CapSense.c **** 	newRegValue = CapSense_CMOD_PORT_PC_REG;
1413:.\Generated_Source\PSoC4/CapSense.c **** 	newRegValue &= ~(CapSense_CSD_CMOD_PC_MASK);
1414:.\Generated_Source\PSoC4/CapSense.c **** 	newRegValue |= CapSense_CMOD_PC_HIGH_Z_MODE;
1415:.\Generated_Source\PSoC4/CapSense.c **** 	CapSense_CMOD_PORT_PC_REG = newRegValue;
1416:.\Generated_Source\PSoC4/CapSense.c **** #endif /* (CapSense_CMOD_PREGARGE_OPTION == CapSense__CAPPRIOBUF) */
1417:.\Generated_Source\PSoC4/CapSense.c **** 
1418:.\Generated_Source\PSoC4/CapSense.c ****     /* Disconnect Vref Buffer from AMUX */
1419:.\Generated_Source\PSoC4/CapSense.c **** 	newRegValue = CapSense_CSD_CFG_REG;
 1726              		.loc 1 1419 0
 1727 00b0 1E4B     		ldr	r3, .L88+40
 1728 00b2 1B68     		ldr	r3, [r3]
 1729 00b4 3B61     		str	r3, [r7, #16]
1420:.\Generated_Source\PSoC4/CapSense.c **** 	newRegValue &= ~(CapSense_PRECHARGE_CONFIG_MASK);
 1730              		.loc 1 1420 0
 1731 00b6 3A69     		ldr	r2, [r7, #16]
 1732 00b8 1D4B     		ldr	r3, .L88+44
 1733 00ba 1340     		and	r3, r2
 1734 00bc 3B61     		str	r3, [r7, #16]
1421:.\Generated_Source\PSoC4/CapSense.c **** 	newRegValue |= CapSense_CTANK_PRECHARGE_CONFIG;
 1735              		.loc 1 1421 0
 1736 00be 3B69     		ldr	r3, [r7, #16]
 1737 00c0 1C4A     		ldr	r2, .L88+48
 1738 00c2 1343     		orr	r3, r2
 1739 00c4 3B61     		str	r3, [r7, #16]
1422:.\Generated_Source\PSoC4/CapSense.c **** 	
1423:.\Generated_Source\PSoC4/CapSense.c **** 	CyIntEnable(CapSense_ISR_NUMBER);
 1740              		.loc 1 1423 0
 1741 00c6 0F20     		mov	r0, #15
 1742 00c8 FFF7FEFF 		bl	CyIntEnable
1424:.\Generated_Source\PSoC4/CapSense.c **** 	
1425:.\Generated_Source\PSoC4/CapSense.c ****     /* Enable Sensor */
1426:.\Generated_Source\PSoC4/CapSense.c ****     CapSense_EnableScanSlot(sensor);
 1743              		.loc 1 1426 0
 1744 00cc 7B68     		ldr	r3, [r7, #4]
 1745 00ce 181C     		mov	r0, r3
 1746 00d0 FFF7FEFF 		bl	CapSense_EnableSensor
1427:.\Generated_Source\PSoC4/CapSense.c ****     
1428:.\Generated_Source\PSoC4/CapSense.c **** 	interruptState = CyEnterCriticalSection();
 1747              		.loc 1 1428 0
 1748 00d4 3C1C     		mov	r4, r7
 1749 00d6 0F34     		add	r4, r4, #15
 1750 00d8 FFF7FEFF 		bl	CyEnterCriticalSection
 1751 00dc 031C     		mov	r3, r0
 1752 00de 2370     		strb	r3, [r4]
ARM GAS  C:\DOCUME~1\Chuck\LOCALS~1\Temp\cclVEGdP.s 			page 57


1429:.\Generated_Source\PSoC4/CapSense.c **** 	CapSense_CSD_CFG_REG = newRegValue;
 1753              		.loc 1 1429 0
 1754 00e0 124B     		ldr	r3, .L88+40
 1755 00e2 3A69     		ldr	r2, [r7, #16]
 1756 00e4 1A60     		str	r2, [r3]
1430:.\Generated_Source\PSoC4/CapSense.c **** 	CyDelayCycles(CapSense_GLITCH_ELIMINATION_CYCLES);
 1757              		.loc 1 1430 0
 1758 00e6 6F20     		mov	r0, #111
 1759 00e8 FFF7FEFF 		bl	CyDelayCycles
1431:.\Generated_Source\PSoC4/CapSense.c **** 	
1432:.\Generated_Source\PSoC4/CapSense.c **** 	/* `#START CapSense_PreScan_Debug` */
1433:.\Generated_Source\PSoC4/CapSense.c **** 
1434:.\Generated_Source\PSoC4/CapSense.c **** 	/* `#END` */
1435:.\Generated_Source\PSoC4/CapSense.c **** 	
1436:.\Generated_Source\PSoC4/CapSense.c ****     CapSense_CSD_CNT_REG = counterResolution;
 1760              		.loc 1 1436 0
 1761 00ec 124B     		ldr	r3, .L88+52
 1762 00ee FA69     		ldr	r2, [r7, #28]
 1763 00f0 1A60     		str	r2, [r3]
1437:.\Generated_Source\PSoC4/CapSense.c ****     CyExitCriticalSection(interruptState);
 1764              		.loc 1 1437 0
 1765 00f2 3B1C     		mov	r3, r7
 1766 00f4 0F33     		add	r3, r3, #15
 1767 00f6 1B78     		ldrb	r3, [r3]
 1768 00f8 181C     		mov	r0, r3
 1769 00fa FFF7FEFF 		bl	CyExitCriticalSection
1438:.\Generated_Source\PSoC4/CapSense.c **** }
 1770              		.loc 1 1438 0
 1771 00fe BD46     		mov	sp, r7
 1772 0100 09B0     		add	sp, sp, #36
 1773              		@ sp needed for prologue
 1774 0102 90BD     		pop	{r4, r7, pc}
 1775              	.L89:
 1776              		.align	2
 1777              	.L88:
 1778 0104 00000000 		.word	CapSense_widgetNumber
 1779 0108 00000000 		.word	CapSense_widgetResolution
 1780 010c 00000000 		.word	scanSpeedTbl
 1781 0110 FFFFFEFF 		.word	-65537
 1782 0114 00000000 		.word	CapSense_sampleClkDividerVal
 1783 0118 00000000 		.word	CapSense_senseClkDividerVal
 1784 011c 08000840 		.word	1074266120
 1785 0120 00FF80FF 		.word	-8323328
 1786 0124 00000000 		.word	CapSense_modulationIDAC
 1787 0128 00000000 		.word	CapSense_compensationIDAC
 1788 012c 04000840 		.word	1074266116
 1789 0130 FF1FDFFF 		.word	-2154497
 1790 0134 20002000 		.word	2097184
 1791 0138 0C000840 		.word	1074266124
 1792              		.cfi_endproc
 1793              	.LFE53:
 1794              		.size	CapSense_PreScan, .-CapSense_PreScan
 1795              		.section	.text.CapSense_PostScan,"ax",%progbits
 1796              		.align	2
 1797              		.global	CapSense_PostScan
 1798              		.code	16
 1799              		.thumb_func
ARM GAS  C:\DOCUME~1\Chuck\LOCALS~1\Temp\cclVEGdP.s 			page 58


 1800              		.type	CapSense_PostScan, %function
 1801              	CapSense_PostScan:
 1802              	.LFB54:
1439:.\Generated_Source\PSoC4/CapSense.c **** 
1440:.\Generated_Source\PSoC4/CapSense.c **** 
1441:.\Generated_Source\PSoC4/CapSense.c **** /*******************************************************************************
1442:.\Generated_Source\PSoC4/CapSense.c **** * Function Name: CapSense_PostScan
1443:.\Generated_Source\PSoC4/CapSense.c **** ********************************************************************************
1444:.\Generated_Source\PSoC4/CapSense.c **** *
1445:.\Generated_Source\PSoC4/CapSense.c **** * Summary:
1446:.\Generated_Source\PSoC4/CapSense.c **** *  Stores the results of measurement in the CapSense_sensorRaw[] array,
1447:.\Generated_Source\PSoC4/CapSense.c **** *  sets the scanning sensor in the non-sampling state, turns off Idac(Current Source IDAC),
1448:.\Generated_Source\PSoC4/CapSense.c **** *  disconnects the IDAC(Sink mode), and applies Vref on AMUX.
1449:.\Generated_Source\PSoC4/CapSense.c **** *
1450:.\Generated_Source\PSoC4/CapSense.c **** * Parameters:
1451:.\Generated_Source\PSoC4/CapSense.c **** *  sensor:  Sensor number.
1452:.\Generated_Source\PSoC4/CapSense.c **** *
1453:.\Generated_Source\PSoC4/CapSense.c **** * Return:
1454:.\Generated_Source\PSoC4/CapSense.c **** *  None
1455:.\Generated_Source\PSoC4/CapSense.c **** *
1456:.\Generated_Source\PSoC4/CapSense.c **** * Global Variables:
1457:.\Generated_Source\PSoC4/CapSense.c **** *  CapSense_sensorRaw[] - used to store sensors raw data.
1458:.\Generated_Source\PSoC4/CapSense.c **** *
1459:.\Generated_Source\PSoC4/CapSense.c **** * Side Effects: 
1460:.\Generated_Source\PSoC4/CapSense.c **** *  None
1461:.\Generated_Source\PSoC4/CapSense.c **** *
1462:.\Generated_Source\PSoC4/CapSense.c **** *******************************************************************************/
1463:.\Generated_Source\PSoC4/CapSense.c **** void CapSense_PostScan(uint32 sensor)
1464:.\Generated_Source\PSoC4/CapSense.c **** {	
 1803              		.loc 1 1464 0
 1804              		.cfi_startproc
 1805 0000 80B5     		push	{r7, lr}
 1806              	.LCFI59:
 1807              		.cfi_def_cfa_offset 8
 1808              		.cfi_offset 7, -8
 1809              		.cfi_offset 14, -4
 1810 0002 86B0     		sub	sp, sp, #24
 1811              	.LCFI60:
 1812              		.cfi_def_cfa_offset 32
 1813 0004 00AF     		add	r7, sp, #0
 1814              	.LCFI61:
 1815              		.cfi_def_cfa_register 7
 1816 0006 7860     		str	r0, [r7, #4]
1465:.\Generated_Source\PSoC4/CapSense.c **** 	uint32 newRegValue;
1466:.\Generated_Source\PSoC4/CapSense.c **** #if ((CapSense_TUNING_METHOD == CapSense__TUNING_AUTO) &&\
1467:.\Generated_Source\PSoC4/CapSense.c **** 	 (0 != CapSense_IS_OVERSAMPLING_EN))
1468:.\Generated_Source\PSoC4/CapSense.c ****     uint32 oversamplingFactor;
1469:.\Generated_Source\PSoC4/CapSense.c ****     uint32 widget;
1470:.\Generated_Source\PSoC4/CapSense.c **** #endif /* ((CapSense_TUNING_METHOD == CapSense__TUNING_AUTO) &&\
1471:.\Generated_Source\PSoC4/CapSense.c **** 		   (0 != CapSense_IS_OVERSAMPLING_EN)) */	
1472:.\Generated_Source\PSoC4/CapSense.c **** 
1473:.\Generated_Source\PSoC4/CapSense.c **** 	/* `#START CapSense_PostScan_Debug` */
1474:.\Generated_Source\PSoC4/CapSense.c **** 
1475:.\Generated_Source\PSoC4/CapSense.c **** 	/* `#END` */
1476:.\Generated_Source\PSoC4/CapSense.c **** 
1477:.\Generated_Source\PSoC4/CapSense.c **** 
1478:.\Generated_Source\PSoC4/CapSense.c ****     /* Read SlotResult from Raw Counter */
ARM GAS  C:\DOCUME~1\Chuck\LOCALS~1\Temp\cclVEGdP.s 			page 59


1479:.\Generated_Source\PSoC4/CapSense.c ****     CapSense_sensorRaw[sensor]  = (uint16)CapSense_CSD_CNT_REG;
 1817              		.loc 1 1479 0
 1818 0008 254B     		ldr	r3, .L92
 1819 000a 1B68     		ldr	r3, [r3]
 1820 000c 99B2     		uxth	r1, r3
 1821 000e 254B     		ldr	r3, .L92+4
 1822 0010 7A68     		ldr	r2, [r7, #4]
 1823 0012 5200     		lsl	r2, r2, #1
 1824 0014 D152     		strh	r1, [r2, r3]
1480:.\Generated_Source\PSoC4/CapSense.c **** 	
1481:.\Generated_Source\PSoC4/CapSense.c **** #if ((CapSense_TUNING_METHOD == CapSense__TUNING_AUTO) &&\
1482:.\Generated_Source\PSoC4/CapSense.c **** 	 (0 != CapSense_IS_OVERSAMPLING_EN))
1483:.\Generated_Source\PSoC4/CapSense.c **** 	widget = CapSense_widgetNumber[sensor];
 1825              		.loc 1 1483 0
 1826 0016 244A     		ldr	r2, .L92+8
 1827 0018 7B68     		ldr	r3, [r7, #4]
 1828 001a D318     		add	r3, r2, r3
 1829 001c 1B78     		ldrb	r3, [r3]
 1830 001e 7B61     		str	r3, [r7, #20]
1484:.\Generated_Source\PSoC4/CapSense.c **** 	if(CapSense_widgetResolution[widget] < CapSense_RESOLUTION_16_BITS)
 1831              		.loc 1 1484 0
 1832 0020 224B     		ldr	r3, .L92+12
 1833 0022 7A69     		ldr	r2, [r7, #20]
 1834 0024 9200     		lsl	r2, r2, #2
 1835 0026 D258     		ldr	r2, [r2, r3]
 1836 0028 214B     		ldr	r3, .L92+16
 1837 002a 9A42     		cmp	r2, r3
 1838 002c 15D8     		bhi	.L91
1485:.\Generated_Source\PSoC4/CapSense.c **** 	{
1486:.\Generated_Source\PSoC4/CapSense.c **** 		oversamplingFactor = CapSense_GetBitValue(scanSpeedTbl, sensor);
 1839              		.loc 1 1486 0
 1840 002e 214A     		ldr	r2, .L92+20
 1841 0030 7B68     		ldr	r3, [r7, #4]
 1842 0032 101C     		mov	r0, r2
 1843 0034 191C     		mov	r1, r3
 1844 0036 FFF7FEFF 		bl	CapSense_GetBitValue
 1845 003a 031C     		mov	r3, r0
 1846 003c 3B61     		str	r3, [r7, #16]
1487:.\Generated_Source\PSoC4/CapSense.c **** 		CapSense_sensorRaw[sensor] >>= oversamplingFactor;
 1847              		.loc 1 1487 0
 1848 003e 194B     		ldr	r3, .L92+4
 1849 0040 7A68     		ldr	r2, [r7, #4]
 1850 0042 5200     		lsl	r2, r2, #1
 1851 0044 D35A     		ldrh	r3, [r2, r3]
 1852 0046 1A1C     		mov	r2, r3
 1853 0048 3B69     		ldr	r3, [r7, #16]
 1854 004a 111C     		mov	r1, r2
 1855 004c 1941     		asr	r1, r1, r3
 1856 004e 0B1C     		mov	r3, r1
 1857 0050 99B2     		uxth	r1, r3
 1858 0052 144B     		ldr	r3, .L92+4
 1859 0054 7A68     		ldr	r2, [r7, #4]
 1860 0056 5200     		lsl	r2, r2, #1
 1861 0058 D152     		strh	r1, [r2, r3]
 1862              	.L91:
1488:.\Generated_Source\PSoC4/CapSense.c **** 	}
1489:.\Generated_Source\PSoC4/CapSense.c **** #endif /* ((CapSense_TUNING_METHOD == CapSense__TUNING_AUTO) &&\
ARM GAS  C:\DOCUME~1\Chuck\LOCALS~1\Temp\cclVEGdP.s 			page 60


1490:.\Generated_Source\PSoC4/CapSense.c **** 		   (0 != CapSense_IS_OVERSAMPLING_EN)) */
1491:.\Generated_Source\PSoC4/CapSense.c **** 
1492:.\Generated_Source\PSoC4/CapSense.c ****     /* Disable Sensor */
1493:.\Generated_Source\PSoC4/CapSense.c ****     CapSense_DisableScanSlot(sensor);
 1863              		.loc 1 1493 0
 1864 005a 7B68     		ldr	r3, [r7, #4]
 1865 005c 181C     		mov	r0, r3
 1866 005e FFF7FEFF 		bl	CapSense_DisableSensor
1494:.\Generated_Source\PSoC4/CapSense.c **** 
1495:.\Generated_Source\PSoC4/CapSense.c **** 	CyIntDisable(CapSense_ISR_NUMBER);
 1867              		.loc 1 1495 0
 1868 0062 0F20     		mov	r0, #15
 1869 0064 FFF7FEFF 		bl	CyIntDisable
1496:.\Generated_Source\PSoC4/CapSense.c **** 	
1497:.\Generated_Source\PSoC4/CapSense.c **** #if(CapSense_CMOD_PREGARGE_OPTION == CapSense__CAPPRIOBUF)
1498:.\Generated_Source\PSoC4/CapSense.c **** 	newRegValue = CapSense_CMOD_CONNECTION_REG;
1499:.\Generated_Source\PSoC4/CapSense.c **** 	newRegValue &= ~(CapSense_CSD_CMOD_CONNECTION_MASK);
1500:.\Generated_Source\PSoC4/CapSense.c **** 	newRegValue |= CapSense_CSD_CMOD_TO_AMUXBUS_B;
1501:.\Generated_Source\PSoC4/CapSense.c **** 	CapSense_CMOD_CONNECTION_REG = newRegValue;
1502:.\Generated_Source\PSoC4/CapSense.c **** 	
1503:.\Generated_Source\PSoC4/CapSense.c **** 	newRegValue = CapSense_CMOD_PORT_PC_REG;
1504:.\Generated_Source\PSoC4/CapSense.c **** 	newRegValue &= ~(CapSense_CSD_CMOD_PC_MASK);
1505:.\Generated_Source\PSoC4/CapSense.c **** 	newRegValue |= CapSense_CMOD_PC_STRONG_MODE;
1506:.\Generated_Source\PSoC4/CapSense.c **** 	CapSense_CMOD_PORT_PC_REG = newRegValue;
1507:.\Generated_Source\PSoC4/CapSense.c **** 		
1508:.\Generated_Source\PSoC4/CapSense.c **** 	newRegValue = CapSense_CMOD_PORT_DR_REG;
1509:.\Generated_Source\PSoC4/CapSense.c ****     newRegValue &= ~(CapSense_CMOD_DR_MASK);
1510:.\Generated_Source\PSoC4/CapSense.c **** 	newRegValue |= CapSense_CMOD_DR_CONFIG;
1511:.\Generated_Source\PSoC4/CapSense.c ****     CapSense_CMOD_PORT_DR_REG = newRegValue;    
1512:.\Generated_Source\PSoC4/CapSense.c **** #endif /* (CapSense_CMOD_PREGARGE_OPTION == CapSense__CAPPRIOBUF) */
1513:.\Generated_Source\PSoC4/CapSense.c **** 	
1514:.\Generated_Source\PSoC4/CapSense.c **** 	/* Connect Vref Buffer to AMUX bus  */
1515:.\Generated_Source\PSoC4/CapSense.c **** 	newRegValue = CapSense_CSD_CFG_REG;
 1870              		.loc 1 1515 0
 1871 0068 134B     		ldr	r3, .L92+24
 1872 006a 1B68     		ldr	r3, [r3]
 1873 006c FB60     		str	r3, [r7, #12]
1516:.\Generated_Source\PSoC4/CapSense.c **** 	newRegValue &= ~(CapSense_PRECHARGE_CONFIG_MASK);
 1874              		.loc 1 1516 0
 1875 006e FA68     		ldr	r2, [r7, #12]
 1876 0070 124B     		ldr	r3, .L92+28
 1877 0072 1340     		and	r3, r2
 1878 0074 FB60     		str	r3, [r7, #12]
1517:.\Generated_Source\PSoC4/CapSense.c **** 	newRegValue |= CapSense_CMOD_PRECHARGE_CONFIG;
 1879              		.loc 1 1517 0
 1880 0076 FB68     		ldr	r3, [r7, #12]
 1881 0078 A022     		mov	r2, #160
 1882 007a 1202     		lsl	r2, r2, #8
 1883 007c 1343     		orr	r3, r2
 1884 007e FB60     		str	r3, [r7, #12]
1518:.\Generated_Source\PSoC4/CapSense.c **** 	CapSense_CSD_CFG_REG = newRegValue;
 1885              		.loc 1 1518 0
 1886 0080 0D4B     		ldr	r3, .L92+24
 1887 0082 FA68     		ldr	r2, [r7, #12]
 1888 0084 1A60     		str	r2, [r3]
1519:.\Generated_Source\PSoC4/CapSense.c **** 
1520:.\Generated_Source\PSoC4/CapSense.c **** 	/* Set Idac Value = 0 */
ARM GAS  C:\DOCUME~1\Chuck\LOCALS~1\Temp\cclVEGdP.s 			page 61


1521:.\Generated_Source\PSoC4/CapSense.c **** #if (CapSense_IDAC_CNT == 1u)   
1522:.\Generated_Source\PSoC4/CapSense.c **** 	CapSense_CSD_IDAC_REG &= ~(CapSense_CSD_IDAC1_DATA_MASK);
1523:.\Generated_Source\PSoC4/CapSense.c **** #else
1524:.\Generated_Source\PSoC4/CapSense.c **** 	CapSense_CSD_IDAC_REG &= ~(CapSense_CSD_IDAC1_DATA_MASK | CapSense_CSD_IDAC2_DATA_MASK);          
 1889              		.loc 1 1524 0
 1890 0086 0E4B     		ldr	r3, .L92+32
 1891 0088 0D4A     		ldr	r2, .L92+32
 1892 008a 1168     		ldr	r1, [r2]
 1893 008c 0D4A     		ldr	r2, .L92+36
 1894 008e 0A40     		and	r2, r1
 1895 0090 1A60     		str	r2, [r3]
1525:.\Generated_Source\PSoC4/CapSense.c **** #endif /* (CapSense_IDAC_CNT == 1u) */
1526:.\Generated_Source\PSoC4/CapSense.c **** 
1527:.\Generated_Source\PSoC4/CapSense.c **** 	CyIntEnable(CapSense_ISR_NUMBER);
 1896              		.loc 1 1527 0
 1897 0092 0F20     		mov	r0, #15
 1898 0094 FFF7FEFF 		bl	CyIntEnable
1528:.\Generated_Source\PSoC4/CapSense.c **** }
 1899              		.loc 1 1528 0
 1900 0098 BD46     		mov	sp, r7
 1901 009a 06B0     		add	sp, sp, #24
 1902              		@ sp needed for prologue
 1903 009c 80BD     		pop	{r7, pc}
 1904              	.L93:
 1905 009e C046     		.align	2
 1906              	.L92:
 1907 00a0 0C000840 		.word	1074266124
 1908 00a4 00000000 		.word	CapSense_sensorRaw
 1909 00a8 00000000 		.word	CapSense_widgetNumber
 1910 00ac 00000000 		.word	CapSense_widgetResolution
 1911 00b0 FFFFFEFF 		.word	-65537
 1912 00b4 00000000 		.word	scanSpeedTbl
 1913 00b8 04000840 		.word	1074266116
 1914 00bc FF1FDFFF 		.word	-2154497
 1915 00c0 08000840 		.word	1074266120
 1916 00c4 00FF80FF 		.word	-8323328
 1917              		.cfi_endproc
 1918              	.LFE54:
 1919              		.size	CapSense_PostScan, .-CapSense_PostScan
 1920              		.section	.text.CapSense_EnableShieldElectrode,"ax",%progbits
 1921              		.align	2
 1922              		.global	CapSense_EnableShieldElectrode
 1923              		.code	16
 1924              		.thumb_func
 1925              		.type	CapSense_EnableShieldElectrode, %function
 1926              	CapSense_EnableShieldElectrode:
 1927              	.LFB55:
1529:.\Generated_Source\PSoC4/CapSense.c **** 
1530:.\Generated_Source\PSoC4/CapSense.c **** 
1531:.\Generated_Source\PSoC4/CapSense.c **** /*******************************************************************************
1532:.\Generated_Source\PSoC4/CapSense.c **** * Function Name: CapSense_EnableShieldElectrode
1533:.\Generated_Source\PSoC4/CapSense.c **** ********************************************************************************
1534:.\Generated_Source\PSoC4/CapSense.c **** *
1535:.\Generated_Source\PSoC4/CapSense.c **** * Summary:
1536:.\Generated_Source\PSoC4/CapSense.c **** *  This API enables or disables the shield electrode on a specified port pin.
1537:.\Generated_Source\PSoC4/CapSense.c **** *
1538:.\Generated_Source\PSoC4/CapSense.c **** * Parameters:
ARM GAS  C:\DOCUME~1\Chuck\LOCALS~1\Temp\cclVEGdP.s 			page 62


1539:.\Generated_Source\PSoC4/CapSense.c **** *  portNumber: contains the shield electrode port number (0, 1, 2).
1540:.\Generated_Source\PSoC4/CapSense.c **** *  pinNumber: contains the shield electrode pin number (0, 1, 2, ... , 7).
1541:.\Generated_Source\PSoC4/CapSense.c **** *
1542:.\Generated_Source\PSoC4/CapSense.c **** * Return:
1543:.\Generated_Source\PSoC4/CapSense.c **** *  None
1544:.\Generated_Source\PSoC4/CapSense.c **** *
1545:.\Generated_Source\PSoC4/CapSense.c **** * Global Variables:
1546:.\Generated_Source\PSoC4/CapSense.c **** *  CapSense_prtCfgTbl[] - Contains pointers to the port config registers for each port.
1547:.\Generated_Source\PSoC4/CapSense.c **** *  CapSense_prtSelTbl[] - Contains pointers to the HSIOM registers for each port.
1548:.\Generated_Source\PSoC4/CapSense.c **** *
1549:.\Generated_Source\PSoC4/CapSense.c **** * Side Effects: 
1550:.\Generated_Source\PSoC4/CapSense.c **** *  None
1551:.\Generated_Source\PSoC4/CapSense.c **** *
1552:.\Generated_Source\PSoC4/CapSense.c **** *******************************************************************************/
1553:.\Generated_Source\PSoC4/CapSense.c **** void CapSense_EnableShieldElectrode(uint32 pinNumber, uint32 portNumber)
1554:.\Generated_Source\PSoC4/CapSense.c **** {
 1928              		.loc 1 1554 0
 1929              		.cfi_startproc
 1930 0000 90B5     		push	{r4, r7, lr}
 1931              	.LCFI62:
 1932              		.cfi_def_cfa_offset 12
 1933              		.cfi_offset 4, -12
 1934              		.cfi_offset 7, -8
 1935              		.cfi_offset 14, -4
 1936 0002 85B0     		sub	sp, sp, #20
 1937              	.LCFI63:
 1938              		.cfi_def_cfa_offset 32
 1939 0004 00AF     		add	r7, sp, #0
 1940              	.LCFI64:
 1941              		.cfi_def_cfa_register 7
 1942 0006 7860     		str	r0, [r7, #4]
 1943 0008 3960     		str	r1, [r7]
1555:.\Generated_Source\PSoC4/CapSense.c **** 	uint32 newRegValue;
1556:.\Generated_Source\PSoC4/CapSense.c **** 	
1557:.\Generated_Source\PSoC4/CapSense.c **** 	*CapSense_prtCfgTbl[portNumber] &= ~(CapSense_CSD_PIN_MODE_MASK << (pinNumber * CapSense_PC_PIN_CF
 1944              		.loc 1 1557 0
 1945 000a 1B4B     		ldr	r3, .L95
 1946 000c 3A68     		ldr	r2, [r7]
 1947 000e 9200     		lsl	r2, r2, #2
 1948 0010 D258     		ldr	r2, [r2, r3]
 1949 0012 194B     		ldr	r3, .L95
 1950 0014 3968     		ldr	r1, [r7]
 1951 0016 8900     		lsl	r1, r1, #2
 1952 0018 CB58     		ldr	r3, [r1, r3]
 1953 001a 1868     		ldr	r0, [r3]
 1954 001c 7968     		ldr	r1, [r7, #4]
 1955 001e 0B1C     		mov	r3, r1
 1956 0020 5B00     		lsl	r3, r3, #1
 1957 0022 5B18     		add	r3, r3, r1
 1958 0024 0721     		mov	r1, #7
 1959 0026 0C1C     		mov	r4, r1
 1960 0028 9C40     		lsl	r4, r4, r3
 1961 002a 231C     		mov	r3, r4
 1962 002c DB43     		mvn	r3, r3
 1963 002e 0340     		and	r3, r0
 1964 0030 1360     		str	r3, [r2]
1558:.\Generated_Source\PSoC4/CapSense.c **** 	newRegValue = *CapSense_prtSelTbl[portNumber];
ARM GAS  C:\DOCUME~1\Chuck\LOCALS~1\Temp\cclVEGdP.s 			page 63


 1965              		.loc 1 1558 0
 1966 0032 124B     		ldr	r3, .L95+4
 1967 0034 3A68     		ldr	r2, [r7]
 1968 0036 9200     		lsl	r2, r2, #2
 1969 0038 D358     		ldr	r3, [r2, r3]
 1970 003a 1B68     		ldr	r3, [r3]
 1971 003c FB60     		str	r3, [r7, #12]
1559:.\Generated_Source\PSoC4/CapSense.c ****     newRegValue &= ~(CapSense_CSD_HSIOM_MASK << (pinNumber * CapSense_HSIOM_PIN_CFG_SIZE));
 1972              		.loc 1 1559 0
 1973 003e 7B68     		ldr	r3, [r7, #4]
 1974 0040 9B00     		lsl	r3, r3, #2
 1975 0042 0F22     		mov	r2, #15
 1976 0044 111C     		mov	r1, r2
 1977 0046 9940     		lsl	r1, r1, r3
 1978 0048 0B1C     		mov	r3, r1
 1979 004a DA43     		mvn	r2, r3
 1980 004c FB68     		ldr	r3, [r7, #12]
 1981 004e 1340     		and	r3, r2
 1982 0050 FB60     		str	r3, [r7, #12]
1560:.\Generated_Source\PSoC4/CapSense.c ****     newRegValue |= (CapSense_CSD_SHIELD_PORT_MODE << (pinNumber * CapSense_HSIOM_PIN_CFG_SIZE));
 1983              		.loc 1 1560 0
 1984 0052 7B68     		ldr	r3, [r7, #4]
 1985 0054 9B00     		lsl	r3, r3, #2
 1986 0056 0522     		mov	r2, #5
 1987 0058 141C     		mov	r4, r2
 1988 005a 9C40     		lsl	r4, r4, r3
 1989 005c 231C     		mov	r3, r4
 1990 005e FA68     		ldr	r2, [r7, #12]
 1991 0060 1343     		orr	r3, r2
 1992 0062 FB60     		str	r3, [r7, #12]
1561:.\Generated_Source\PSoC4/CapSense.c ****     *CapSense_prtSelTbl[portNumber] = newRegValue;
 1993              		.loc 1 1561 0
 1994 0064 054B     		ldr	r3, .L95+4
 1995 0066 3A68     		ldr	r2, [r7]
 1996 0068 9200     		lsl	r2, r2, #2
 1997 006a D358     		ldr	r3, [r2, r3]
 1998 006c FA68     		ldr	r2, [r7, #12]
 1999 006e 1A60     		str	r2, [r3]
1562:.\Generated_Source\PSoC4/CapSense.c **** }
 2000              		.loc 1 1562 0
 2001 0070 BD46     		mov	sp, r7
 2002 0072 05B0     		add	sp, sp, #20
 2003              		@ sp needed for prologue
 2004 0074 90BD     		pop	{r4, r7, pc}
 2005              	.L96:
 2006 0076 C046     		.align	2
 2007              	.L95:
 2008 0078 00000000 		.word	CapSense_prtCfgTbl
 2009 007c 00000000 		.word	CapSense_prtSelTbl
 2010              		.cfi_endproc
 2011              	.LFE55:
 2012              		.size	CapSense_EnableShieldElectrode, .-CapSense_EnableShieldElectrode
 2013              		.section	.text.CapSense_SetShieldDelay,"ax",%progbits
 2014              		.align	2
 2015              		.global	CapSense_SetShieldDelay
 2016              		.code	16
 2017              		.thumb_func
ARM GAS  C:\DOCUME~1\Chuck\LOCALS~1\Temp\cclVEGdP.s 			page 64


 2018              		.type	CapSense_SetShieldDelay, %function
 2019              	CapSense_SetShieldDelay:
 2020              	.LFB56:
1563:.\Generated_Source\PSoC4/CapSense.c **** 
1564:.\Generated_Source\PSoC4/CapSense.c **** 
1565:.\Generated_Source\PSoC4/CapSense.c **** /*******************************************************************************
1566:.\Generated_Source\PSoC4/CapSense.c **** * Function Name: CapSense_SetShieldDelay
1567:.\Generated_Source\PSoC4/CapSense.c **** ********************************************************************************
1568:.\Generated_Source\PSoC4/CapSense.c **** *
1569:.\Generated_Source\PSoC4/CapSense.c **** * Summary:
1570:.\Generated_Source\PSoC4/CapSense.c **** *  This API sets a shield delay.
1571:.\Generated_Source\PSoC4/CapSense.c **** *
1572:.\Generated_Source\PSoC4/CapSense.c **** * Parameters:
1573:.\Generated_Source\PSoC4/CapSense.c **** *  delay:  shield delay value:
1574:.\Generated_Source\PSoC4/CapSense.c **** *                               0 - no delay
1575:.\Generated_Source\PSoC4/CapSense.c **** *                               1 - 1 cycle delay
1576:.\Generated_Source\PSoC4/CapSense.c **** *                               2 - 2 cycles delay
1577:.\Generated_Source\PSoC4/CapSense.c **** *
1578:.\Generated_Source\PSoC4/CapSense.c **** * Return:
1579:.\Generated_Source\PSoC4/CapSense.c **** *  None
1580:.\Generated_Source\PSoC4/CapSense.c **** *
1581:.\Generated_Source\PSoC4/CapSense.c **** * Global Variables:
1582:.\Generated_Source\PSoC4/CapSense.c **** *  None
1583:.\Generated_Source\PSoC4/CapSense.c **** *
1584:.\Generated_Source\PSoC4/CapSense.c **** * Side Effects: 
1585:.\Generated_Source\PSoC4/CapSense.c **** *  None
1586:.\Generated_Source\PSoC4/CapSense.c **** *
1587:.\Generated_Source\PSoC4/CapSense.c **** *******************************************************************************/
1588:.\Generated_Source\PSoC4/CapSense.c **** void CapSense_SetShieldDelay(uint32 delay)
1589:.\Generated_Source\PSoC4/CapSense.c **** {
 2021              		.loc 1 1589 0
 2022              		.cfi_startproc
 2023 0000 80B5     		push	{r7, lr}
 2024              	.LCFI65:
 2025              		.cfi_def_cfa_offset 8
 2026              		.cfi_offset 7, -8
 2027              		.cfi_offset 14, -4
 2028 0002 84B0     		sub	sp, sp, #16
 2029              	.LCFI66:
 2030              		.cfi_def_cfa_offset 24
 2031 0004 00AF     		add	r7, sp, #0
 2032              	.LCFI67:
 2033              		.cfi_def_cfa_register 7
 2034 0006 7860     		str	r0, [r7, #4]
1590:.\Generated_Source\PSoC4/CapSense.c ****     uint32 newRegValue;
1591:.\Generated_Source\PSoC4/CapSense.c ****     
1592:.\Generated_Source\PSoC4/CapSense.c ****     delay &= 0x03u;
 2035              		.loc 1 1592 0
 2036 0008 7A68     		ldr	r2, [r7, #4]
 2037 000a 0323     		mov	r3, #3
 2038 000c 1340     		and	r3, r2
 2039 000e 7B60     		str	r3, [r7, #4]
1593:.\Generated_Source\PSoC4/CapSense.c ****     
1594:.\Generated_Source\PSoC4/CapSense.c ****     newRegValue = CapSense_CSD_CFG_REG;
 2040              		.loc 1 1594 0
 2041 0010 064B     		ldr	r3, .L98
 2042 0012 1B68     		ldr	r3, [r3]
ARM GAS  C:\DOCUME~1\Chuck\LOCALS~1\Temp\cclVEGdP.s 			page 65


 2043 0014 FB60     		str	r3, [r7, #12]
1595:.\Generated_Source\PSoC4/CapSense.c ****     newRegValue &= (uint32)(~(uint32)CapSense_SHIELD_DELAY);    
1596:.\Generated_Source\PSoC4/CapSense.c ****     newRegValue |= (delay << CapSense_CSD_CFG_SHIELD_DELAY_POS);    
 2044              		.loc 1 1596 0
 2045 0016 7B68     		ldr	r3, [r7, #4]
 2046 0018 5B02     		lsl	r3, r3, #9
 2047 001a FA68     		ldr	r2, [r7, #12]
 2048 001c 1343     		orr	r3, r2
 2049 001e FB60     		str	r3, [r7, #12]
1597:.\Generated_Source\PSoC4/CapSense.c ****     CapSense_CSD_CFG_REG = newRegValue;
 2050              		.loc 1 1597 0
 2051 0020 024B     		ldr	r3, .L98
 2052 0022 FA68     		ldr	r2, [r7, #12]
 2053 0024 1A60     		str	r2, [r3]
1598:.\Generated_Source\PSoC4/CapSense.c **** }
 2054              		.loc 1 1598 0
 2055 0026 BD46     		mov	sp, r7
 2056 0028 04B0     		add	sp, sp, #16
 2057              		@ sp needed for prologue
 2058 002a 80BD     		pop	{r7, pc}
 2059              	.L99:
 2060              		.align	2
 2061              	.L98:
 2062 002c 04000840 		.word	1074266116
 2063              		.cfi_endproc
 2064              	.LFE56:
 2065              		.size	CapSense_SetShieldDelay, .-CapSense_SetShieldDelay
 2066              		.section	.text.CapSense_ReadCurrentScanningSensor,"ax",%progbits
 2067              		.align	2
 2068              		.global	CapSense_ReadCurrentScanningSensor
 2069              		.code	16
 2070              		.thumb_func
 2071              		.type	CapSense_ReadCurrentScanningSensor, %function
 2072              	CapSense_ReadCurrentScanningSensor:
 2073              	.LFB57:
1599:.\Generated_Source\PSoC4/CapSense.c **** 
1600:.\Generated_Source\PSoC4/CapSense.c **** 
1601:.\Generated_Source\PSoC4/CapSense.c **** /*******************************************************************************
1602:.\Generated_Source\PSoC4/CapSense.c **** * Function Name: CapSense_ReadCurrentScanningSensor
1603:.\Generated_Source\PSoC4/CapSense.c **** ********************************************************************************
1604:.\Generated_Source\PSoC4/CapSense.c **** *
1605:.\Generated_Source\PSoC4/CapSense.c **** * Summary:
1606:.\Generated_Source\PSoC4/CapSense.c **** *  This API returns scanning sensor number when sensor scan is in progress. 
1607:.\Generated_Source\PSoC4/CapSense.c **** *  When sensor scan is completed the API returns 
1608:.\Generated_Source\PSoC4/CapSense.c **** *  $INSTANCE_NAME`_NOT_SENSOR (0xFFFFFFFF) (when no sensor is scanned).
1609:.\Generated_Source\PSoC4/CapSense.c **** *
1610:.\Generated_Source\PSoC4/CapSense.c **** * Parameters:
1611:.\Generated_Source\PSoC4/CapSense.c **** *	None.
1612:.\Generated_Source\PSoC4/CapSense.c **** *
1613:.\Generated_Source\PSoC4/CapSense.c **** * Return:
1614:.\Generated_Source\PSoC4/CapSense.c **** *  Returns Sensor number if sensor is being scanned and 
1615:.\Generated_Source\PSoC4/CapSense.c **** *  $INSTANCE_NAME`_NOT_SENSOR (0xFFFFFFFF) if scanning is complete.
1616:.\Generated_Source\PSoC4/CapSense.c **** *
1617:.\Generated_Source\PSoC4/CapSense.c **** * Global Variables:
1618:.\Generated_Source\PSoC4/CapSense.c **** *  CapSense_sensorIndex - the sensor number is being scanned.
1619:.\Generated_Source\PSoC4/CapSense.c **** *
1620:.\Generated_Source\PSoC4/CapSense.c **** * Side Effects: 
ARM GAS  C:\DOCUME~1\Chuck\LOCALS~1\Temp\cclVEGdP.s 			page 66


1621:.\Generated_Source\PSoC4/CapSense.c **** *  None
1622:.\Generated_Source\PSoC4/CapSense.c **** *
1623:.\Generated_Source\PSoC4/CapSense.c **** *******************************************************************************/
1624:.\Generated_Source\PSoC4/CapSense.c **** uint32 CapSense_ReadCurrentScanningSensor(void)
1625:.\Generated_Source\PSoC4/CapSense.c **** {
 2074              		.loc 1 1625 0
 2075              		.cfi_startproc
 2076 0000 80B5     		push	{r7, lr}
 2077              	.LCFI68:
 2078              		.cfi_def_cfa_offset 8
 2079              		.cfi_offset 7, -8
 2080              		.cfi_offset 14, -4
 2081 0002 00AF     		add	r7, sp, #0
 2082              	.LCFI69:
 2083              		.cfi_def_cfa_register 7
1626:.\Generated_Source\PSoC4/CapSense.c ****     return ((uint32)(( 0u != (CapSense_csdStatusVar & CapSense_SW_STS_BUSY)) ? 
 2084              		.loc 1 1626 0
 2085 0004 074B     		ldr	r3, .L104
 2086 0006 1B78     		ldrb	r3, [r3]
 2087 0008 DBB2     		uxtb	r3, r3
 2088 000a 1A1C     		mov	r2, r3
 2089 000c 0123     		mov	r3, #1
 2090 000e 1340     		and	r3, r2
 2091 0010 03D0     		beq	.L101
 2092              		.loc 1 1626 0 is_stmt 0 discriminator 1
 2093 0012 054B     		ldr	r3, .L104+4
 2094 0014 1B78     		ldrb	r3, [r3]
 2095 0016 DBB2     		uxtb	r3, r3
 2096 0018 01E0     		b	.L102
 2097              	.L101:
 2098              		.loc 1 1626 0 discriminator 2
 2099 001a 0123     		mov	r3, #1
 2100 001c 5B42     		neg	r3, r3
 2101              	.L102:
1627:.\Generated_Source\PSoC4/CapSense.c ****                      CapSense_sensorIndex : CapSense_NOT_SENSOR));
1628:.\Generated_Source\PSoC4/CapSense.c **** }
 2102              		.loc 1 1628 0 is_stmt 1 discriminator 3
 2103 001e 181C     		mov	r0, r3
 2104 0020 BD46     		mov	sp, r7
 2105              		@ sp needed for prologue
 2106 0022 80BD     		pop	{r7, pc}
 2107              	.L105:
 2108              		.align	2
 2109              	.L104:
 2110 0024 00000000 		.word	CapSense_csdStatusVar
 2111 0028 00000000 		.word	CapSense_sensorIndex
 2112              		.cfi_endproc
 2113              	.LFE57:
 2114              		.size	CapSense_ReadCurrentScanningSensor, .-CapSense_ReadCurrentScanningSensor
 2115              		.section	.text.CapSense_GetBitValue,"ax",%progbits
 2116              		.align	2
 2117              		.global	CapSense_GetBitValue
 2118              		.code	16
 2119              		.thumb_func
 2120              		.type	CapSense_GetBitValue, %function
 2121              	CapSense_GetBitValue:
 2122              	.LFB58:
ARM GAS  C:\DOCUME~1\Chuck\LOCALS~1\Temp\cclVEGdP.s 			page 67


1629:.\Generated_Source\PSoC4/CapSense.c **** 
1630:.\Generated_Source\PSoC4/CapSense.c **** 
1631:.\Generated_Source\PSoC4/CapSense.c **** /*******************************************************************************
1632:.\Generated_Source\PSoC4/CapSense.c **** * Function Name: CapSense_GetBitValue
1633:.\Generated_Source\PSoC4/CapSense.c **** ********************************************************************************
1634:.\Generated_Source\PSoC4/CapSense.c **** *
1635:.\Generated_Source\PSoC4/CapSense.c **** * Summary:
1636:.\Generated_Source\PSoC4/CapSense.c **** *  The API returns a bit status of the bit in the table array which contains the masks.
1637:.\Generated_Source\PSoC4/CapSense.c **** * 
1638:.\Generated_Source\PSoC4/CapSense.c **** * Parameters:
1639:.\Generated_Source\PSoC4/CapSense.c **** *  table[] - array with bit masks.
1640:.\Generated_Source\PSoC4/CapSense.c **** *  position - position of bit in the table[] array.
1641:.\Generated_Source\PSoC4/CapSense.c **** *
1642:.\Generated_Source\PSoC4/CapSense.c **** * Return:
1643:.\Generated_Source\PSoC4/CapSense.c **** *  0 - bit is not set; 1 - bit is set.
1644:.\Generated_Source\PSoC4/CapSense.c **** *
1645:.\Generated_Source\PSoC4/CapSense.c **** * Global Variables:
1646:.\Generated_Source\PSoC4/CapSense.c **** *  None
1647:.\Generated_Source\PSoC4/CapSense.c **** *
1648:.\Generated_Source\PSoC4/CapSense.c **** * Side Effects:
1649:.\Generated_Source\PSoC4/CapSense.c **** *  None
1650:.\Generated_Source\PSoC4/CapSense.c **** *
1651:.\Generated_Source\PSoC4/CapSense.c **** *******************************************************************************/
1652:.\Generated_Source\PSoC4/CapSense.c **** uint32 CapSense_GetBitValue(const uint8 table[], uint32 position)
1653:.\Generated_Source\PSoC4/CapSense.c **** {
 2123              		.loc 1 1653 0
 2124              		.cfi_startproc
 2125 0000 80B5     		push	{r7, lr}
 2126              	.LCFI70:
 2127              		.cfi_def_cfa_offset 8
 2128              		.cfi_offset 7, -8
 2129              		.cfi_offset 14, -4
 2130 0002 84B0     		sub	sp, sp, #16
 2131              	.LCFI71:
 2132              		.cfi_def_cfa_offset 24
 2133 0004 00AF     		add	r7, sp, #0
 2134              	.LCFI72:
 2135              		.cfi_def_cfa_register 7
 2136 0006 7860     		str	r0, [r7, #4]
 2137 0008 3960     		str	r1, [r7]
1654:.\Generated_Source\PSoC4/CapSense.c ****     uint32 offset;
1655:.\Generated_Source\PSoC4/CapSense.c **** 	uint8 enMask;
1656:.\Generated_Source\PSoC4/CapSense.c **** 	
1657:.\Generated_Source\PSoC4/CapSense.c **** 	/* position is divided by 8 to calculate the element of the 
1658:.\Generated_Source\PSoC4/CapSense.c **** 	   table[] array that contains the enable bit 
1659:.\Generated_Source\PSoC4/CapSense.c **** 	   for an appropriate sensor.
1660:.\Generated_Source\PSoC4/CapSense.c **** 	*/
1661:.\Generated_Source\PSoC4/CapSense.c **** 	offset = (position >> 3u);
 2138              		.loc 1 1661 0
 2139 000a 3B68     		ldr	r3, [r7]
 2140 000c DB08     		lsr	r3, r3, #3
 2141 000e FB60     		str	r3, [r7, #12]
1662:.\Generated_Source\PSoC4/CapSense.c **** 	
1663:.\Generated_Source\PSoC4/CapSense.c **** 	/* The enMask calculation for the appropriate sensor. Operation (position & 0x07u) 
1664:.\Generated_Source\PSoC4/CapSense.c **** 	   intends to calculate the enable bit offset for the 8-bit element of the 
1665:.\Generated_Source\PSoC4/CapSense.c **** 	   table[] array.
1666:.\Generated_Source\PSoC4/CapSense.c **** 	*/
ARM GAS  C:\DOCUME~1\Chuck\LOCALS~1\Temp\cclVEGdP.s 			page 68


1667:.\Generated_Source\PSoC4/CapSense.c **** 	enMask = 0x01u << (position & 0x07u);
 2142              		.loc 1 1667 0
 2143 0010 3A68     		ldr	r2, [r7]
 2144 0012 0723     		mov	r3, #7
 2145 0014 1340     		and	r3, r2
 2146 0016 0122     		mov	r2, #1
 2147 0018 9A40     		lsl	r2, r2, r3
 2148 001a 3B1C     		mov	r3, r7
 2149 001c 0B33     		add	r3, r3, #11
 2150 001e 1A70     		strb	r2, [r3]
1668:.\Generated_Source\PSoC4/CapSense.c ****     
1669:.\Generated_Source\PSoC4/CapSense.c ****     return ((0u !=(table[offset] & enMask)) ? 1Lu : 0Lu);
 2151              		.loc 1 1669 0
 2152 0020 7A68     		ldr	r2, [r7, #4]
 2153 0022 FB68     		ldr	r3, [r7, #12]
 2154 0024 D318     		add	r3, r2, r3
 2155 0026 1B78     		ldrb	r3, [r3]
 2156 0028 3A1C     		mov	r2, r7
 2157 002a 0B32     		add	r2, r2, #11
 2158 002c 1278     		ldrb	r2, [r2]
 2159 002e 1340     		and	r3, r2
 2160 0030 DBB2     		uxtb	r3, r3
 2161 0032 002B     		cmp	r3, #0
 2162 0034 01D0     		beq	.L107
 2163              		.loc 1 1669 0 is_stmt 0 discriminator 1
 2164 0036 0123     		mov	r3, #1
 2165 0038 00E0     		b	.L108
 2166              	.L107:
 2167              		.loc 1 1669 0 discriminator 2
 2168 003a 0023     		mov	r3, #0
 2169              	.L108:
1670:.\Generated_Source\PSoC4/CapSense.c **** }
 2170              		.loc 1 1670 0 is_stmt 1 discriminator 3
 2171 003c 181C     		mov	r0, r3
 2172 003e BD46     		mov	sp, r7
 2173 0040 04B0     		add	sp, sp, #16
 2174              		@ sp needed for prologue
 2175 0042 80BD     		pop	{r7, pc}
 2176              		.cfi_endproc
 2177              	.LFE58:
 2178              		.size	CapSense_GetBitValue, .-CapSense_GetBitValue
 2179              		.section	.text.CapSense_SetBitValue,"ax",%progbits
 2180              		.align	2
 2181              		.global	CapSense_SetBitValue
 2182              		.code	16
 2183              		.thumb_func
 2184              		.type	CapSense_SetBitValue, %function
 2185              	CapSense_SetBitValue:
 2186              	.LFB59:
1671:.\Generated_Source\PSoC4/CapSense.c **** 
1672:.\Generated_Source\PSoC4/CapSense.c **** 
1673:.\Generated_Source\PSoC4/CapSense.c **** /*******************************************************************************
1674:.\Generated_Source\PSoC4/CapSense.c **** * Function Name: CapSense_SetBitValue
1675:.\Generated_Source\PSoC4/CapSense.c **** ********************************************************************************
1676:.\Generated_Source\PSoC4/CapSense.c **** *
1677:.\Generated_Source\PSoC4/CapSense.c **** * Summary:
1678:.\Generated_Source\PSoC4/CapSense.c **** *  The API sets a bit status of the bit in the table array which contains masks.
ARM GAS  C:\DOCUME~1\Chuck\LOCALS~1\Temp\cclVEGdP.s 			page 69


1679:.\Generated_Source\PSoC4/CapSense.c **** * 
1680:.\Generated_Source\PSoC4/CapSense.c **** * Parameters:
1681:.\Generated_Source\PSoC4/CapSense.c **** *  table[] - array with bit masks.
1682:.\Generated_Source\PSoC4/CapSense.c **** *  position - position of bit in the table[] array.
1683:.\Generated_Source\PSoC4/CapSense.c **** *  value: 0 - bit is not set; 1 - bit is set.
1684:.\Generated_Source\PSoC4/CapSense.c **** *
1685:.\Generated_Source\PSoC4/CapSense.c **** * Return:
1686:.\Generated_Source\PSoC4/CapSense.c **** *  None
1687:.\Generated_Source\PSoC4/CapSense.c **** *
1688:.\Generated_Source\PSoC4/CapSense.c **** * Global Variables:
1689:.\Generated_Source\PSoC4/CapSense.c **** *  None
1690:.\Generated_Source\PSoC4/CapSense.c **** *
1691:.\Generated_Source\PSoC4/CapSense.c **** * Side Effects:
1692:.\Generated_Source\PSoC4/CapSense.c **** *  None
1693:.\Generated_Source\PSoC4/CapSense.c **** *
1694:.\Generated_Source\PSoC4/CapSense.c **** *******************************************************************************/
1695:.\Generated_Source\PSoC4/CapSense.c **** void CapSense_SetBitValue(uint8 table[], uint32 position, uint32 value)
1696:.\Generated_Source\PSoC4/CapSense.c **** {
 2187              		.loc 1 1696 0
 2188              		.cfi_startproc
 2189 0000 80B5     		push	{r7, lr}
 2190              	.LCFI73:
 2191              		.cfi_def_cfa_offset 8
 2192              		.cfi_offset 7, -8
 2193              		.cfi_offset 14, -4
 2194 0002 86B0     		sub	sp, sp, #24
 2195              	.LCFI74:
 2196              		.cfi_def_cfa_offset 32
 2197 0004 00AF     		add	r7, sp, #0
 2198              	.LCFI75:
 2199              		.cfi_def_cfa_register 7
 2200 0006 F860     		str	r0, [r7, #12]
 2201 0008 B960     		str	r1, [r7, #8]
 2202 000a 7A60     		str	r2, [r7, #4]
1697:.\Generated_Source\PSoC4/CapSense.c ****     uint32 offset;
1698:.\Generated_Source\PSoC4/CapSense.c **** 	uint8 enMask;
1699:.\Generated_Source\PSoC4/CapSense.c **** 	
1700:.\Generated_Source\PSoC4/CapSense.c **** 	/* position is divided by 8 to calculate the element of the 
1701:.\Generated_Source\PSoC4/CapSense.c **** 	   table[] array that contains the enable bit 
1702:.\Generated_Source\PSoC4/CapSense.c **** 	   for an appropriate sensor.
1703:.\Generated_Source\PSoC4/CapSense.c **** 	*/
1704:.\Generated_Source\PSoC4/CapSense.c **** 	offset = (position >> 3u);
 2203              		.loc 1 1704 0
 2204 000c BB68     		ldr	r3, [r7, #8]
 2205 000e DB08     		lsr	r3, r3, #3
 2206 0010 7B61     		str	r3, [r7, #20]
1705:.\Generated_Source\PSoC4/CapSense.c **** 	
1706:.\Generated_Source\PSoC4/CapSense.c **** 	/* The enMask calculation for the appropriate sensor. Operation (position & 0x07u) 
1707:.\Generated_Source\PSoC4/CapSense.c **** 	   intends to calculate the enable bit offset for the 8-bit element of the 
1708:.\Generated_Source\PSoC4/CapSense.c **** 	   table[] array.
1709:.\Generated_Source\PSoC4/CapSense.c **** 	*/
1710:.\Generated_Source\PSoC4/CapSense.c **** 	enMask = 0x01u << (position & 0x07u);
 2207              		.loc 1 1710 0
 2208 0012 BA68     		ldr	r2, [r7, #8]
 2209 0014 0723     		mov	r3, #7
 2210 0016 1340     		and	r3, r2
 2211 0018 0122     		mov	r2, #1
ARM GAS  C:\DOCUME~1\Chuck\LOCALS~1\Temp\cclVEGdP.s 			page 70


 2212 001a 9A40     		lsl	r2, r2, r3
 2213 001c 3B1C     		mov	r3, r7
 2214 001e 1333     		add	r3, r3, #19
 2215 0020 1A70     		strb	r2, [r3]
1711:.\Generated_Source\PSoC4/CapSense.c **** 	
1712:.\Generated_Source\PSoC4/CapSense.c **** 	if(0u != value)
 2216              		.loc 1 1712 0
 2217 0022 7B68     		ldr	r3, [r7, #4]
 2218 0024 002B     		cmp	r3, #0
 2219 0026 0DD0     		beq	.L111
1713:.\Generated_Source\PSoC4/CapSense.c **** 	{
1714:.\Generated_Source\PSoC4/CapSense.c **** 		table[offset] |= enMask;
 2220              		.loc 1 1714 0
 2221 0028 FA68     		ldr	r2, [r7, #12]
 2222 002a 7B69     		ldr	r3, [r7, #20]
 2223 002c D318     		add	r3, r2, r3
 2224 002e F968     		ldr	r1, [r7, #12]
 2225 0030 7A69     		ldr	r2, [r7, #20]
 2226 0032 8A18     		add	r2, r1, r2
 2227 0034 1178     		ldrb	r1, [r2]
 2228 0036 3A1C     		mov	r2, r7
 2229 0038 1332     		add	r2, r2, #19
 2230 003a 1278     		ldrb	r2, [r2]
 2231 003c 0A43     		orr	r2, r1
 2232 003e D2B2     		uxtb	r2, r2
 2233 0040 1A70     		strb	r2, [r3]
 2234 0042 0EE0     		b	.L110
 2235              	.L111:
1715:.\Generated_Source\PSoC4/CapSense.c **** 	}
1716:.\Generated_Source\PSoC4/CapSense.c **** 	else
1717:.\Generated_Source\PSoC4/CapSense.c **** 	{
1718:.\Generated_Source\PSoC4/CapSense.c **** 		table[offset] &= (uint8)~(enMask);
 2236              		.loc 1 1718 0
 2237 0044 FA68     		ldr	r2, [r7, #12]
 2238 0046 7B69     		ldr	r3, [r7, #20]
 2239 0048 D318     		add	r3, r2, r3
 2240 004a F968     		ldr	r1, [r7, #12]
 2241 004c 7A69     		ldr	r2, [r7, #20]
 2242 004e 8A18     		add	r2, r1, r2
 2243 0050 1278     		ldrb	r2, [r2]
 2244 0052 391C     		mov	r1, r7
 2245 0054 1331     		add	r1, r1, #19
 2246 0056 0978     		ldrb	r1, [r1]
 2247 0058 C943     		mvn	r1, r1
 2248 005a C9B2     		uxtb	r1, r1
 2249 005c 0A40     		and	r2, r1
 2250 005e D2B2     		uxtb	r2, r2
 2251 0060 1A70     		strb	r2, [r3]
 2252              	.L110:
1719:.\Generated_Source\PSoC4/CapSense.c **** 	}
1720:.\Generated_Source\PSoC4/CapSense.c **** }
 2253              		.loc 1 1720 0
 2254 0062 BD46     		mov	sp, r7
 2255 0064 06B0     		add	sp, sp, #24
 2256              		@ sp needed for prologue
 2257 0066 80BD     		pop	{r7, pc}
 2258              		.cfi_endproc
ARM GAS  C:\DOCUME~1\Chuck\LOCALS~1\Temp\cclVEGdP.s 			page 71


 2259              	.LFE59:
 2260              		.size	CapSense_SetBitValue, .-CapSense_SetBitValue
 2261              		.section	.text.CapSense_GetSenseClkDivider,"ax",%progbits
 2262              		.align	2
 2263              		.global	CapSense_GetSenseClkDivider
 2264              		.code	16
 2265              		.thumb_func
 2266              		.type	CapSense_GetSenseClkDivider, %function
 2267              	CapSense_GetSenseClkDivider:
 2268              	.LFB60:
1721:.\Generated_Source\PSoC4/CapSense.c **** 
1722:.\Generated_Source\PSoC4/CapSense.c **** 
1723:.\Generated_Source\PSoC4/CapSense.c **** 
1724:.\Generated_Source\PSoC4/CapSense.c **** /*******************************************************************************
1725:.\Generated_Source\PSoC4/CapSense.c **** * Function Name: CapSense_GetSenseClkDivider
1726:.\Generated_Source\PSoC4/CapSense.c **** ********************************************************************************
1727:.\Generated_Source\PSoC4/CapSense.c **** *
1728:.\Generated_Source\PSoC4/CapSense.c **** * Summary:
1729:.\Generated_Source\PSoC4/CapSense.c **** *  This API returns a value of the sense clock divider for the  sensor.
1730:.\Generated_Source\PSoC4/CapSense.c **** *
1731:.\Generated_Source\PSoC4/CapSense.c **** * Parameters:
1732:.\Generated_Source\PSoC4/CapSense.c **** *  sensor: sensor index. The index value can be 
1733:.\Generated_Source\PSoC4/CapSense.c **** *  from 0 to (CapSense_TOTAL_SENSOR_COUNT-1).
1734:.\Generated_Source\PSoC4/CapSense.c **** *
1735:.\Generated_Source\PSoC4/CapSense.c **** * Return:
1736:.\Generated_Source\PSoC4/CapSense.c **** *  This API returns the sense clock divider of the sensor. 
1737:.\Generated_Source\PSoC4/CapSense.c **** *
1738:.\Generated_Source\PSoC4/CapSense.c **** * Global Variables:
1739:.\Generated_Source\PSoC4/CapSense.c **** *  CapSense_senseClkDividerVal[] - stores the sense clock divider values.
1740:.\Generated_Source\PSoC4/CapSense.c **** * 
1741:.\Generated_Source\PSoC4/CapSense.c **** * Side Effects:
1742:.\Generated_Source\PSoC4/CapSense.c **** *  None
1743:.\Generated_Source\PSoC4/CapSense.c **** *
1744:.\Generated_Source\PSoC4/CapSense.c **** *******************************************************************************/
1745:.\Generated_Source\PSoC4/CapSense.c **** uint32 CapSense_GetSenseClkDivider(uint32 sensor)
1746:.\Generated_Source\PSoC4/CapSense.c **** {
 2269              		.loc 1 1746 0
 2270              		.cfi_startproc
 2271 0000 80B5     		push	{r7, lr}
 2272              	.LCFI76:
 2273              		.cfi_def_cfa_offset 8
 2274              		.cfi_offset 7, -8
 2275              		.cfi_offset 14, -4
 2276 0002 82B0     		sub	sp, sp, #8
 2277              	.LCFI77:
 2278              		.cfi_def_cfa_offset 16
 2279 0004 00AF     		add	r7, sp, #0
 2280              	.LCFI78:
 2281              		.cfi_def_cfa_register 7
 2282 0006 7860     		str	r0, [r7, #4]
1747:.\Generated_Source\PSoC4/CapSense.c **** 	#if(0u != CapSense_MULTIPLE_FREQUENCY_SET)
1748:.\Generated_Source\PSoC4/CapSense.c **** 		return((uint32)CapSense_senseClkDividerVal[sensor]);
 2283              		.loc 1 1748 0
 2284 0008 034A     		ldr	r2, .L115
 2285 000a 7B68     		ldr	r3, [r7, #4]
 2286 000c D318     		add	r3, r2, r3
 2287 000e 1B78     		ldrb	r3, [r3]
ARM GAS  C:\DOCUME~1\Chuck\LOCALS~1\Temp\cclVEGdP.s 			page 72


1749:.\Generated_Source\PSoC4/CapSense.c **** 	#else
1750:.\Generated_Source\PSoC4/CapSense.c **** 		return((uint32)CapSense_senseClkDividerVal);
1751:.\Generated_Source\PSoC4/CapSense.c **** 	#endif /* (0u != CapSense_MULTIPLE_FREQUENCY_SET) */
1752:.\Generated_Source\PSoC4/CapSense.c **** }
 2288              		.loc 1 1752 0
 2289 0010 181C     		mov	r0, r3
 2290 0012 BD46     		mov	sp, r7
 2291 0014 02B0     		add	sp, sp, #8
 2292              		@ sp needed for prologue
 2293 0016 80BD     		pop	{r7, pc}
 2294              	.L116:
 2295              		.align	2
 2296              	.L115:
 2297 0018 00000000 		.word	CapSense_senseClkDividerVal
 2298              		.cfi_endproc
 2299              	.LFE60:
 2300              		.size	CapSense_GetSenseClkDivider, .-CapSense_GetSenseClkDivider
 2301              		.section	.text.CapSense_SetSenseClkDivider,"ax",%progbits
 2302              		.align	2
 2303              		.global	CapSense_SetSenseClkDivider
 2304              		.code	16
 2305              		.thumb_func
 2306              		.type	CapSense_SetSenseClkDivider, %function
 2307              	CapSense_SetSenseClkDivider:
 2308              	.LFB61:
1753:.\Generated_Source\PSoC4/CapSense.c **** 
1754:.\Generated_Source\PSoC4/CapSense.c **** #if (CapSense_TUNING_METHOD != CapSense__TUNING_NONE)
1755:.\Generated_Source\PSoC4/CapSense.c **** 	/*******************************************************************************
1756:.\Generated_Source\PSoC4/CapSense.c **** 	* Function Name: CapSense_SetSenseClkDivider
1757:.\Generated_Source\PSoC4/CapSense.c **** 	********************************************************************************
1758:.\Generated_Source\PSoC4/CapSense.c **** 	*
1759:.\Generated_Source\PSoC4/CapSense.c **** 	* Summary:
1760:.\Generated_Source\PSoC4/CapSense.c **** 	*  This API sets a value of the sense clock divider for the  sensor. 
1761:.\Generated_Source\PSoC4/CapSense.c **** 	*
1762:.\Generated_Source\PSoC4/CapSense.c **** 	* Parameters:
1763:.\Generated_Source\PSoC4/CapSense.c **** 	*  sensor:  Sensor index.
1764:.\Generated_Source\PSoC4/CapSense.c **** 	*  senseClk: represents the sense clock value.
1765:.\Generated_Source\PSoC4/CapSense.c **** 	*
1766:.\Generated_Source\PSoC4/CapSense.c **** 	* Return:
1767:.\Generated_Source\PSoC4/CapSense.c **** 	*  None.
1768:.\Generated_Source\PSoC4/CapSense.c **** 	*
1769:.\Generated_Source\PSoC4/CapSense.c **** 	* Global Variables:
1770:.\Generated_Source\PSoC4/CapSense.c **** 	*  CapSense_senseClkDividerVal[] - stores the sense clock divider values.
1771:.\Generated_Source\PSoC4/CapSense.c **** 	* 
1772:.\Generated_Source\PSoC4/CapSense.c **** 	* Side Effects:
1773:.\Generated_Source\PSoC4/CapSense.c **** 	*  None
1774:.\Generated_Source\PSoC4/CapSense.c **** 	*
1775:.\Generated_Source\PSoC4/CapSense.c **** 	*******************************************************************************/
1776:.\Generated_Source\PSoC4/CapSense.c **** 	void CapSense_SetSenseClkDivider(uint32 sensor, uint32 senseClk)
1777:.\Generated_Source\PSoC4/CapSense.c **** 	{
 2309              		.loc 1 1777 0
 2310              		.cfi_startproc
 2311 0000 80B5     		push	{r7, lr}
 2312              	.LCFI79:
 2313              		.cfi_def_cfa_offset 8
 2314              		.cfi_offset 7, -8
 2315              		.cfi_offset 14, -4
ARM GAS  C:\DOCUME~1\Chuck\LOCALS~1\Temp\cclVEGdP.s 			page 73


 2316 0002 82B0     		sub	sp, sp, #8
 2317              	.LCFI80:
 2318              		.cfi_def_cfa_offset 16
 2319 0004 00AF     		add	r7, sp, #0
 2320              	.LCFI81:
 2321              		.cfi_def_cfa_register 7
 2322 0006 7860     		str	r0, [r7, #4]
 2323 0008 3960     		str	r1, [r7]
1778:.\Generated_Source\PSoC4/CapSense.c **** 		#if(0u != CapSense_MULTIPLE_FREQUENCY_SET)
1779:.\Generated_Source\PSoC4/CapSense.c **** 			CapSense_senseClkDividerVal[sensor] = (uint8)senseClk;
 2324              		.loc 1 1779 0
 2325 000a 3B68     		ldr	r3, [r7]
 2326 000c DAB2     		uxtb	r2, r3
 2327 000e 0349     		ldr	r1, .L118
 2328 0010 7B68     		ldr	r3, [r7, #4]
 2329 0012 CB18     		add	r3, r1, r3
 2330 0014 1A70     		strb	r2, [r3]
1780:.\Generated_Source\PSoC4/CapSense.c **** 		#else
1781:.\Generated_Source\PSoC4/CapSense.c **** 			CapSense_senseClkDividerVal = (uint8)senseClk;
1782:.\Generated_Source\PSoC4/CapSense.c **** 		#endif /* (0u != CapSense_MULTIPLE_FREQUENCY_SET) */
1783:.\Generated_Source\PSoC4/CapSense.c **** 	}
 2331              		.loc 1 1783 0
 2332 0016 BD46     		mov	sp, r7
 2333 0018 02B0     		add	sp, sp, #8
 2334              		@ sp needed for prologue
 2335 001a 80BD     		pop	{r7, pc}
 2336              	.L119:
 2337              		.align	2
 2338              	.L118:
 2339 001c 00000000 		.word	CapSense_senseClkDividerVal
 2340              		.cfi_endproc
 2341              	.LFE61:
 2342              		.size	CapSense_SetSenseClkDivider, .-CapSense_SetSenseClkDivider
 2343              		.section	.text.CapSense_GetModulatorClkDivider,"ax",%progbits
 2344              		.align	2
 2345              		.global	CapSense_GetModulatorClkDivider
 2346              		.code	16
 2347              		.thumb_func
 2348              		.type	CapSense_GetModulatorClkDivider, %function
 2349              	CapSense_GetModulatorClkDivider:
 2350              	.LFB62:
1784:.\Generated_Source\PSoC4/CapSense.c **** #endif /* (CapSense_TUNING_METHOD != CapSense__TUNING_NONE) */
1785:.\Generated_Source\PSoC4/CapSense.c **** 
1786:.\Generated_Source\PSoC4/CapSense.c **** 
1787:.\Generated_Source\PSoC4/CapSense.c **** /*******************************************************************************
1788:.\Generated_Source\PSoC4/CapSense.c **** * Function Name: CapSense_GetModulatorClkDivider
1789:.\Generated_Source\PSoC4/CapSense.c **** ********************************************************************************
1790:.\Generated_Source\PSoC4/CapSense.c **** *
1791:.\Generated_Source\PSoC4/CapSense.c **** * Summary:
1792:.\Generated_Source\PSoC4/CapSense.c **** *  This API returns a value of the modulator sample clock divider for the  sensor.
1793:.\Generated_Source\PSoC4/CapSense.c **** *
1794:.\Generated_Source\PSoC4/CapSense.c **** * Parameters:
1795:.\Generated_Source\PSoC4/CapSense.c **** *  sensor: sensor index. The value of index can be 
1796:.\Generated_Source\PSoC4/CapSense.c **** *  from 0 to (CapSense_TOTAL_SENSOR_COUNT-1).
1797:.\Generated_Source\PSoC4/CapSense.c **** *
1798:.\Generated_Source\PSoC4/CapSense.c **** * Return:
1799:.\Generated_Source\PSoC4/CapSense.c **** *  This API returns the modulator sample clock divider for the  sensor.
ARM GAS  C:\DOCUME~1\Chuck\LOCALS~1\Temp\cclVEGdP.s 			page 74


1800:.\Generated_Source\PSoC4/CapSense.c **** *
1801:.\Generated_Source\PSoC4/CapSense.c **** * Global Variables:
1802:.\Generated_Source\PSoC4/CapSense.c **** *  CapSense_sampleClkDividerVal[] - stores the modulator sample divider values.
1803:.\Generated_Source\PSoC4/CapSense.c **** * 
1804:.\Generated_Source\PSoC4/CapSense.c **** * Side Effects:
1805:.\Generated_Source\PSoC4/CapSense.c **** *  None
1806:.\Generated_Source\PSoC4/CapSense.c **** *
1807:.\Generated_Source\PSoC4/CapSense.c **** *******************************************************************************/
1808:.\Generated_Source\PSoC4/CapSense.c **** uint32 CapSense_GetModulatorClkDivider(uint32 sensor)
1809:.\Generated_Source\PSoC4/CapSense.c **** {
 2351              		.loc 1 1809 0
 2352              		.cfi_startproc
 2353 0000 80B5     		push	{r7, lr}
 2354              	.LCFI82:
 2355              		.cfi_def_cfa_offset 8
 2356              		.cfi_offset 7, -8
 2357              		.cfi_offset 14, -4
 2358 0002 82B0     		sub	sp, sp, #8
 2359              	.LCFI83:
 2360              		.cfi_def_cfa_offset 16
 2361 0004 00AF     		add	r7, sp, #0
 2362              	.LCFI84:
 2363              		.cfi_def_cfa_register 7
 2364 0006 7860     		str	r0, [r7, #4]
1810:.\Generated_Source\PSoC4/CapSense.c **** 	#if(0u != CapSense_MULTIPLE_FREQUENCY_SET)
1811:.\Generated_Source\PSoC4/CapSense.c **** 		return((uint32)CapSense_sampleClkDividerVal[sensor]);
 2365              		.loc 1 1811 0
 2366 0008 034A     		ldr	r2, .L122
 2367 000a 7B68     		ldr	r3, [r7, #4]
 2368 000c D318     		add	r3, r2, r3
 2369 000e 1B78     		ldrb	r3, [r3]
1812:.\Generated_Source\PSoC4/CapSense.c **** 	#else
1813:.\Generated_Source\PSoC4/CapSense.c **** 		return((uint32)CapSense_sampleClkDividerVal);
1814:.\Generated_Source\PSoC4/CapSense.c **** 	#endif /* (0u != CapSense_MULTIPLE_FREQUENCY_SET) */
1815:.\Generated_Source\PSoC4/CapSense.c **** }
 2370              		.loc 1 1815 0
 2371 0010 181C     		mov	r0, r3
 2372 0012 BD46     		mov	sp, r7
 2373 0014 02B0     		add	sp, sp, #8
 2374              		@ sp needed for prologue
 2375 0016 80BD     		pop	{r7, pc}
 2376              	.L123:
 2377              		.align	2
 2378              	.L122:
 2379 0018 00000000 		.word	CapSense_sampleClkDividerVal
 2380              		.cfi_endproc
 2381              	.LFE62:
 2382              		.size	CapSense_GetModulatorClkDivider, .-CapSense_GetModulatorClkDivider
 2383              		.section	.text.CapSense_SetModulatorClkDivider,"ax",%progbits
 2384              		.align	2
 2385              		.global	CapSense_SetModulatorClkDivider
 2386              		.code	16
 2387              		.thumb_func
 2388              		.type	CapSense_SetModulatorClkDivider, %function
 2389              	CapSense_SetModulatorClkDivider:
 2390              	.LFB63:
1816:.\Generated_Source\PSoC4/CapSense.c **** 
ARM GAS  C:\DOCUME~1\Chuck\LOCALS~1\Temp\cclVEGdP.s 			page 75


1817:.\Generated_Source\PSoC4/CapSense.c **** #if (CapSense_TUNING_METHOD != CapSense__TUNING_NONE)
1818:.\Generated_Source\PSoC4/CapSense.c **** 	/*******************************************************************************
1819:.\Generated_Source\PSoC4/CapSense.c **** 	* Function Name: CapSense_SetModulatorClkDivider
1820:.\Generated_Source\PSoC4/CapSense.c **** 	********************************************************************************
1821:.\Generated_Source\PSoC4/CapSense.c **** 	*
1822:.\Generated_Source\PSoC4/CapSense.c **** 	* Summary:
1823:.\Generated_Source\PSoC4/CapSense.c **** 	*  This API sets a value of the modulator sample clock divider for the  sensor.
1824:.\Generated_Source\PSoC4/CapSense.c **** 	*
1825:.\Generated_Source\PSoC4/CapSense.c **** 	* Parameters:
1826:.\Generated_Source\PSoC4/CapSense.c **** 	*  sensor:  Sensor index.
1827:.\Generated_Source\PSoC4/CapSense.c **** 	*  modulatorClk: represents the modulator sample clock value.
1828:.\Generated_Source\PSoC4/CapSense.c **** 	*
1829:.\Generated_Source\PSoC4/CapSense.c **** 	* Return:
1830:.\Generated_Source\PSoC4/CapSense.c **** 	*  None.
1831:.\Generated_Source\PSoC4/CapSense.c **** 	*
1832:.\Generated_Source\PSoC4/CapSense.c **** 	* Global Variables:
1833:.\Generated_Source\PSoC4/CapSense.c **** 	*  CapSense_sampleClkDividerVal[] - stores the modulator sample divider values.
1834:.\Generated_Source\PSoC4/CapSense.c **** 	* 
1835:.\Generated_Source\PSoC4/CapSense.c **** 	* Side Effects:
1836:.\Generated_Source\PSoC4/CapSense.c **** 	*  None
1837:.\Generated_Source\PSoC4/CapSense.c **** 	*
1838:.\Generated_Source\PSoC4/CapSense.c **** 	*******************************************************************************/
1839:.\Generated_Source\PSoC4/CapSense.c **** 	void CapSense_SetModulatorClkDivider(uint32 sensor, uint32 modulatorClk)
1840:.\Generated_Source\PSoC4/CapSense.c **** 	{
 2391              		.loc 1 1840 0
 2392              		.cfi_startproc
 2393 0000 80B5     		push	{r7, lr}
 2394              	.LCFI85:
 2395              		.cfi_def_cfa_offset 8
 2396              		.cfi_offset 7, -8
 2397              		.cfi_offset 14, -4
 2398 0002 82B0     		sub	sp, sp, #8
 2399              	.LCFI86:
 2400              		.cfi_def_cfa_offset 16
 2401 0004 00AF     		add	r7, sp, #0
 2402              	.LCFI87:
 2403              		.cfi_def_cfa_register 7
 2404 0006 7860     		str	r0, [r7, #4]
 2405 0008 3960     		str	r1, [r7]
1841:.\Generated_Source\PSoC4/CapSense.c **** 		#if(0u != CapSense_MULTIPLE_FREQUENCY_SET)
1842:.\Generated_Source\PSoC4/CapSense.c **** 			CapSense_sampleClkDividerVal[sensor] = (uint8)modulatorClk;
 2406              		.loc 1 1842 0
 2407 000a 3B68     		ldr	r3, [r7]
 2408 000c DAB2     		uxtb	r2, r3
 2409 000e 0349     		ldr	r1, .L125
 2410 0010 7B68     		ldr	r3, [r7, #4]
 2411 0012 CB18     		add	r3, r1, r3
 2412 0014 1A70     		strb	r2, [r3]
1843:.\Generated_Source\PSoC4/CapSense.c **** 		#else
1844:.\Generated_Source\PSoC4/CapSense.c **** 			CapSense_sampleClkDividerVal = (uint8)modulatorClk;
1845:.\Generated_Source\PSoC4/CapSense.c **** 		#endif /* (0u != CapSense_MULTIPLE_FREQUENCY_SET) */
1846:.\Generated_Source\PSoC4/CapSense.c **** 	}
 2413              		.loc 1 1846 0
 2414 0016 BD46     		mov	sp, r7
 2415 0018 02B0     		add	sp, sp, #8
 2416              		@ sp needed for prologue
 2417 001a 80BD     		pop	{r7, pc}
ARM GAS  C:\DOCUME~1\Chuck\LOCALS~1\Temp\cclVEGdP.s 			page 76


 2418              	.L126:
 2419              		.align	2
 2420              	.L125:
 2421 001c 00000000 		.word	CapSense_sampleClkDividerVal
 2422              		.cfi_endproc
 2423              	.LFE63:
 2424              		.size	CapSense_SetModulatorClkDivider, .-CapSense_SetModulatorClkDivider
 2425              		.section	.text.CapSense_GetModulationIDAC,"ax",%progbits
 2426              		.align	2
 2427              		.global	CapSense_GetModulationIDAC
 2428              		.code	16
 2429              		.thumb_func
 2430              		.type	CapSense_GetModulationIDAC, %function
 2431              	CapSense_GetModulationIDAC:
 2432              	.LFB64:
1847:.\Generated_Source\PSoC4/CapSense.c **** #endif /* (CapSense_TUNING_METHOD != CapSense__TUNING_NONE) */
1848:.\Generated_Source\PSoC4/CapSense.c **** 
1849:.\Generated_Source\PSoC4/CapSense.c **** /*******************************************************************************
1850:.\Generated_Source\PSoC4/CapSense.c **** * Function Name: CapSense_GetModulationIDAC
1851:.\Generated_Source\PSoC4/CapSense.c **** ********************************************************************************
1852:.\Generated_Source\PSoC4/CapSense.c **** *
1853:.\Generated_Source\PSoC4/CapSense.c **** * Summary:
1854:.\Generated_Source\PSoC4/CapSense.c **** *  This API returns a value of the modulation IDAC for the  sensor.
1855:.\Generated_Source\PSoC4/CapSense.c **** *
1856:.\Generated_Source\PSoC4/CapSense.c **** * Parameters:
1857:.\Generated_Source\PSoC4/CapSense.c **** *  sensor: sensor index. The index value can be 
1858:.\Generated_Source\PSoC4/CapSense.c **** *  from 0 to (CapSense_TOTAL_SENSOR_COUNT-1).
1859:.\Generated_Source\PSoC4/CapSense.c **** *
1860:.\Generated_Source\PSoC4/CapSense.c **** * Return:
1861:.\Generated_Source\PSoC4/CapSense.c **** *  This API returns the modulation IDAC of the sensor. 
1862:.\Generated_Source\PSoC4/CapSense.c **** *
1863:.\Generated_Source\PSoC4/CapSense.c **** * Global Variables:
1864:.\Generated_Source\PSoC4/CapSense.c **** *  CapSense_modulationIDAC[] - stores modulation IDAC values.
1865:.\Generated_Source\PSoC4/CapSense.c **** * 
1866:.\Generated_Source\PSoC4/CapSense.c **** * Side Effects:
1867:.\Generated_Source\PSoC4/CapSense.c **** *  None
1868:.\Generated_Source\PSoC4/CapSense.c **** *
1869:.\Generated_Source\PSoC4/CapSense.c **** *******************************************************************************/
1870:.\Generated_Source\PSoC4/CapSense.c **** uint32 CapSense_GetModulationIDAC(uint32 sensor)
1871:.\Generated_Source\PSoC4/CapSense.c **** {
 2433              		.loc 1 1871 0
 2434              		.cfi_startproc
 2435 0000 80B5     		push	{r7, lr}
 2436              	.LCFI88:
 2437              		.cfi_def_cfa_offset 8
 2438              		.cfi_offset 7, -8
 2439              		.cfi_offset 14, -4
 2440 0002 82B0     		sub	sp, sp, #8
 2441              	.LCFI89:
 2442              		.cfi_def_cfa_offset 16
 2443 0004 00AF     		add	r7, sp, #0
 2444              	.LCFI90:
 2445              		.cfi_def_cfa_register 7
 2446 0006 7860     		str	r0, [r7, #4]
1872:.\Generated_Source\PSoC4/CapSense.c **** 		return((uint32)CapSense_modulationIDAC[sensor]);
 2447              		.loc 1 1872 0
 2448 0008 034A     		ldr	r2, .L129
ARM GAS  C:\DOCUME~1\Chuck\LOCALS~1\Temp\cclVEGdP.s 			page 77


 2449 000a 7B68     		ldr	r3, [r7, #4]
 2450 000c D318     		add	r3, r2, r3
 2451 000e 1B78     		ldrb	r3, [r3]
1873:.\Generated_Source\PSoC4/CapSense.c **** }
 2452              		.loc 1 1873 0
 2453 0010 181C     		mov	r0, r3
 2454 0012 BD46     		mov	sp, r7
 2455 0014 02B0     		add	sp, sp, #8
 2456              		@ sp needed for prologue
 2457 0016 80BD     		pop	{r7, pc}
 2458              	.L130:
 2459              		.align	2
 2460              	.L129:
 2461 0018 00000000 		.word	CapSense_modulationIDAC
 2462              		.cfi_endproc
 2463              	.LFE64:
 2464              		.size	CapSense_GetModulationIDAC, .-CapSense_GetModulationIDAC
 2465              		.section	.text.CapSense_SetModulationIDAC,"ax",%progbits
 2466              		.align	2
 2467              		.global	CapSense_SetModulationIDAC
 2468              		.code	16
 2469              		.thumb_func
 2470              		.type	CapSense_SetModulationIDAC, %function
 2471              	CapSense_SetModulationIDAC:
 2472              	.LFB65:
1874:.\Generated_Source\PSoC4/CapSense.c **** 
1875:.\Generated_Source\PSoC4/CapSense.c **** #if (CapSense_TUNING_METHOD != CapSense__TUNING_NONE)
1876:.\Generated_Source\PSoC4/CapSense.c **** 	/*******************************************************************************
1877:.\Generated_Source\PSoC4/CapSense.c **** 	* Function Name: CapSense_SetModulationIDAC
1878:.\Generated_Source\PSoC4/CapSense.c **** 	********************************************************************************
1879:.\Generated_Source\PSoC4/CapSense.c **** 	*
1880:.\Generated_Source\PSoC4/CapSense.c **** 	* Summary:
1881:.\Generated_Source\PSoC4/CapSense.c **** 	*  This API sets a value of the modulation IDAC for the  sensor.
1882:.\Generated_Source\PSoC4/CapSense.c **** 	*
1883:.\Generated_Source\PSoC4/CapSense.c **** 	* Parameters:
1884:.\Generated_Source\PSoC4/CapSense.c **** 	*  sensor:  Sensor index.
1885:.\Generated_Source\PSoC4/CapSense.c **** 	*  compIdacValue: represents the modulation IDAC data register value.
1886:.\Generated_Source\PSoC4/CapSense.c **** 	*
1887:.\Generated_Source\PSoC4/CapSense.c **** 	* Return:
1888:.\Generated_Source\PSoC4/CapSense.c **** 	*  None.
1889:.\Generated_Source\PSoC4/CapSense.c **** 	*
1890:.\Generated_Source\PSoC4/CapSense.c **** 	* Global Variables:
1891:.\Generated_Source\PSoC4/CapSense.c **** 	*  CapSense_modulationIDAC[] - array with modulation IDAC values
1892:.\Generated_Source\PSoC4/CapSense.c **** 	* 
1893:.\Generated_Source\PSoC4/CapSense.c **** 	* Side Effects:
1894:.\Generated_Source\PSoC4/CapSense.c **** 	*  None
1895:.\Generated_Source\PSoC4/CapSense.c **** 	*
1896:.\Generated_Source\PSoC4/CapSense.c **** 	*******************************************************************************/
1897:.\Generated_Source\PSoC4/CapSense.c **** 	void CapSense_SetModulationIDAC(uint32 sensor, uint32 modIdacValue)
1898:.\Generated_Source\PSoC4/CapSense.c **** 	{
 2473              		.loc 1 1898 0
 2474              		.cfi_startproc
 2475 0000 80B5     		push	{r7, lr}
 2476              	.LCFI91:
 2477              		.cfi_def_cfa_offset 8
 2478              		.cfi_offset 7, -8
 2479              		.cfi_offset 14, -4
ARM GAS  C:\DOCUME~1\Chuck\LOCALS~1\Temp\cclVEGdP.s 			page 78


 2480 0002 82B0     		sub	sp, sp, #8
 2481              	.LCFI92:
 2482              		.cfi_def_cfa_offset 16
 2483 0004 00AF     		add	r7, sp, #0
 2484              	.LCFI93:
 2485              		.cfi_def_cfa_register 7
 2486 0006 7860     		str	r0, [r7, #4]
 2487 0008 3960     		str	r1, [r7]
1899:.\Generated_Source\PSoC4/CapSense.c **** 		CapSense_modulationIDAC[sensor] = (uint8)modIdacValue;
 2488              		.loc 1 1899 0
 2489 000a 3B68     		ldr	r3, [r7]
 2490 000c DAB2     		uxtb	r2, r3
 2491 000e 0349     		ldr	r1, .L132
 2492 0010 7B68     		ldr	r3, [r7, #4]
 2493 0012 CB18     		add	r3, r1, r3
 2494 0014 1A70     		strb	r2, [r3]
1900:.\Generated_Source\PSoC4/CapSense.c **** 	}
 2495              		.loc 1 1900 0
 2496 0016 BD46     		mov	sp, r7
 2497 0018 02B0     		add	sp, sp, #8
 2498              		@ sp needed for prologue
 2499 001a 80BD     		pop	{r7, pc}
 2500              	.L133:
 2501              		.align	2
 2502              	.L132:
 2503 001c 00000000 		.word	CapSense_modulationIDAC
 2504              		.cfi_endproc
 2505              	.LFE65:
 2506              		.size	CapSense_SetModulationIDAC, .-CapSense_SetModulationIDAC
 2507              		.section	.text.CapSense_GetCompensationIDAC,"ax",%progbits
 2508              		.align	2
 2509              		.global	CapSense_GetCompensationIDAC
 2510              		.code	16
 2511              		.thumb_func
 2512              		.type	CapSense_GetCompensationIDAC, %function
 2513              	CapSense_GetCompensationIDAC:
 2514              	.LFB66:
1901:.\Generated_Source\PSoC4/CapSense.c **** #endif /* (CapSense_TUNING_METHOD != CapSense__TUNING_NONE) */
1902:.\Generated_Source\PSoC4/CapSense.c **** 
1903:.\Generated_Source\PSoC4/CapSense.c **** 
1904:.\Generated_Source\PSoC4/CapSense.c **** #if(CapSense_IDAC_CNT > 1u)
1905:.\Generated_Source\PSoC4/CapSense.c **** 	/*******************************************************************************
1906:.\Generated_Source\PSoC4/CapSense.c **** 	* Function Name: CapSense_GetCompensationIDAC
1907:.\Generated_Source\PSoC4/CapSense.c **** 	********************************************************************************
1908:.\Generated_Source\PSoC4/CapSense.c **** 	*
1909:.\Generated_Source\PSoC4/CapSense.c **** 	* Summary:
1910:.\Generated_Source\PSoC4/CapSense.c **** 	*  This API returns a value of the compensation IDAC for the  sensor.
1911:.\Generated_Source\PSoC4/CapSense.c **** 	*
1912:.\Generated_Source\PSoC4/CapSense.c **** 	* Parameters:
1913:.\Generated_Source\PSoC4/CapSense.c **** 	*  sensor: sensor index. The index value can be 
1914:.\Generated_Source\PSoC4/CapSense.c **** 	*  from 0 to (CapSense_TOTAL_SENSOR_COUNT-1).
1915:.\Generated_Source\PSoC4/CapSense.c **** 	*
1916:.\Generated_Source\PSoC4/CapSense.c **** 	* Return:
1917:.\Generated_Source\PSoC4/CapSense.c **** 	*  This API returns the compensation IDAC of the sensor. 
1918:.\Generated_Source\PSoC4/CapSense.c **** 	*
1919:.\Generated_Source\PSoC4/CapSense.c **** 	* Global Variables:
1920:.\Generated_Source\PSoC4/CapSense.c **** 	*  CapSense_compensationIDAC[] - stores the compensation IDAC values.
ARM GAS  C:\DOCUME~1\Chuck\LOCALS~1\Temp\cclVEGdP.s 			page 79


1921:.\Generated_Source\PSoC4/CapSense.c **** 	* 
1922:.\Generated_Source\PSoC4/CapSense.c **** 	* Side Effects:
1923:.\Generated_Source\PSoC4/CapSense.c **** 	*  None
1924:.\Generated_Source\PSoC4/CapSense.c **** 	*
1925:.\Generated_Source\PSoC4/CapSense.c **** 	*******************************************************************************/
1926:.\Generated_Source\PSoC4/CapSense.c **** 	uint32 CapSense_GetCompensationIDAC(uint32 sensor)
1927:.\Generated_Source\PSoC4/CapSense.c **** 	{
 2515              		.loc 1 1927 0
 2516              		.cfi_startproc
 2517 0000 80B5     		push	{r7, lr}
 2518              	.LCFI94:
 2519              		.cfi_def_cfa_offset 8
 2520              		.cfi_offset 7, -8
 2521              		.cfi_offset 14, -4
 2522 0002 82B0     		sub	sp, sp, #8
 2523              	.LCFI95:
 2524              		.cfi_def_cfa_offset 16
 2525 0004 00AF     		add	r7, sp, #0
 2526              	.LCFI96:
 2527              		.cfi_def_cfa_register 7
 2528 0006 7860     		str	r0, [r7, #4]
1928:.\Generated_Source\PSoC4/CapSense.c **** 		return((uint32)CapSense_compensationIDAC[sensor]);
 2529              		.loc 1 1928 0
 2530 0008 034A     		ldr	r2, .L136
 2531 000a 7B68     		ldr	r3, [r7, #4]
 2532 000c D318     		add	r3, r2, r3
 2533 000e 1B78     		ldrb	r3, [r3]
1929:.\Generated_Source\PSoC4/CapSense.c **** 	}
 2534              		.loc 1 1929 0
 2535 0010 181C     		mov	r0, r3
 2536 0012 BD46     		mov	sp, r7
 2537 0014 02B0     		add	sp, sp, #8
 2538              		@ sp needed for prologue
 2539 0016 80BD     		pop	{r7, pc}
 2540              	.L137:
 2541              		.align	2
 2542              	.L136:
 2543 0018 00000000 		.word	CapSense_compensationIDAC
 2544              		.cfi_endproc
 2545              	.LFE66:
 2546              		.size	CapSense_GetCompensationIDAC, .-CapSense_GetCompensationIDAC
 2547              		.section	.text.CapSense_SetCompensationIDAC,"ax",%progbits
 2548              		.align	2
 2549              		.global	CapSense_SetCompensationIDAC
 2550              		.code	16
 2551              		.thumb_func
 2552              		.type	CapSense_SetCompensationIDAC, %function
 2553              	CapSense_SetCompensationIDAC:
 2554              	.LFB67:
1930:.\Generated_Source\PSoC4/CapSense.c **** #endif /* (CapSense_IDAC_CNT > 1u) */
1931:.\Generated_Source\PSoC4/CapSense.c **** 
1932:.\Generated_Source\PSoC4/CapSense.c **** 
1933:.\Generated_Source\PSoC4/CapSense.c **** #if((CapSense_TUNING_METHOD != CapSense__TUNING_NONE) && (CapSense_IDAC_CNT > 1u))
1934:.\Generated_Source\PSoC4/CapSense.c **** 	/*******************************************************************************
1935:.\Generated_Source\PSoC4/CapSense.c **** 	* Function Name: CapSense_SetCompensationIDAC
1936:.\Generated_Source\PSoC4/CapSense.c **** 	********************************************************************************
1937:.\Generated_Source\PSoC4/CapSense.c **** 	*
ARM GAS  C:\DOCUME~1\Chuck\LOCALS~1\Temp\cclVEGdP.s 			page 80


1938:.\Generated_Source\PSoC4/CapSense.c **** 	* Summary:
1939:.\Generated_Source\PSoC4/CapSense.c **** 	*  This API sets a value of compensation IDAC for the  sensor.
1940:.\Generated_Source\PSoC4/CapSense.c **** 	*
1941:.\Generated_Source\PSoC4/CapSense.c **** 	* Parameters:
1942:.\Generated_Source\PSoC4/CapSense.c **** 	*  sensor:  Sensor index.
1943:.\Generated_Source\PSoC4/CapSense.c **** 	*  compIdacValue: represents the compensation IDAC data register value.
1944:.\Generated_Source\PSoC4/CapSense.c **** 	*
1945:.\Generated_Source\PSoC4/CapSense.c **** 	* Return:
1946:.\Generated_Source\PSoC4/CapSense.c **** 	*  None.
1947:.\Generated_Source\PSoC4/CapSense.c **** 	*
1948:.\Generated_Source\PSoC4/CapSense.c **** 	* Global Variables:
1949:.\Generated_Source\PSoC4/CapSense.c **** 	*  CapSense_compensationIDAC[] - an array with compensation IDAC values
1950:.\Generated_Source\PSoC4/CapSense.c **** 	* 
1951:.\Generated_Source\PSoC4/CapSense.c **** 	* Side Effects:
1952:.\Generated_Source\PSoC4/CapSense.c **** 	*  None
1953:.\Generated_Source\PSoC4/CapSense.c **** 	*
1954:.\Generated_Source\PSoC4/CapSense.c **** 	*******************************************************************************/
1955:.\Generated_Source\PSoC4/CapSense.c **** 	void CapSense_SetCompensationIDAC(uint32 sensor, uint32 compIdacValue)
1956:.\Generated_Source\PSoC4/CapSense.c **** 	{
 2555              		.loc 1 1956 0
 2556              		.cfi_startproc
 2557 0000 80B5     		push	{r7, lr}
 2558              	.LCFI97:
 2559              		.cfi_def_cfa_offset 8
 2560              		.cfi_offset 7, -8
 2561              		.cfi_offset 14, -4
 2562 0002 82B0     		sub	sp, sp, #8
 2563              	.LCFI98:
 2564              		.cfi_def_cfa_offset 16
 2565 0004 00AF     		add	r7, sp, #0
 2566              	.LCFI99:
 2567              		.cfi_def_cfa_register 7
 2568 0006 7860     		str	r0, [r7, #4]
 2569 0008 3960     		str	r1, [r7]
1957:.\Generated_Source\PSoC4/CapSense.c **** 		CapSense_compensationIDAC[sensor] = (uint8)compIdacValue;
 2570              		.loc 1 1957 0
 2571 000a 3B68     		ldr	r3, [r7]
 2572 000c DAB2     		uxtb	r2, r3
 2573 000e 0349     		ldr	r1, .L139
 2574 0010 7B68     		ldr	r3, [r7, #4]
 2575 0012 CB18     		add	r3, r1, r3
 2576 0014 1A70     		strb	r2, [r3]
1958:.\Generated_Source\PSoC4/CapSense.c **** 	}
 2577              		.loc 1 1958 0
 2578 0016 BD46     		mov	sp, r7
 2579 0018 02B0     		add	sp, sp, #8
 2580              		@ sp needed for prologue
 2581 001a 80BD     		pop	{r7, pc}
 2582              	.L140:
 2583              		.align	2
 2584              	.L139:
 2585 001c 00000000 		.word	CapSense_compensationIDAC
 2586              		.cfi_endproc
 2587              	.LFE67:
 2588              		.size	CapSense_SetCompensationIDAC, .-CapSense_SetCompensationIDAC
 2589              		.section	.text.CapSense_GetIDACRange,"ax",%progbits
 2590              		.align	2
ARM GAS  C:\DOCUME~1\Chuck\LOCALS~1\Temp\cclVEGdP.s 			page 81


 2591              		.global	CapSense_GetIDACRange
 2592              		.code	16
 2593              		.thumb_func
 2594              		.type	CapSense_GetIDACRange, %function
 2595              	CapSense_GetIDACRange:
 2596              	.LFB68:
1959:.\Generated_Source\PSoC4/CapSense.c **** #endif /* ((CapSense_TUNING_METHOD != CapSense__TUNING_NONE) && (CapSense_IDAC_CNT > 1u)) */
1960:.\Generated_Source\PSoC4/CapSense.c **** 
1961:.\Generated_Source\PSoC4/CapSense.c **** /*******************************************************************************
1962:.\Generated_Source\PSoC4/CapSense.c **** * Function Name: CapSense_GetIDACRange
1963:.\Generated_Source\PSoC4/CapSense.c **** ********************************************************************************
1964:.\Generated_Source\PSoC4/CapSense.c **** *
1965:.\Generated_Source\PSoC4/CapSense.c **** * Summary:
1966:.\Generated_Source\PSoC4/CapSense.c **** *  This API returns a value that indicates the IDAC range used by the 
1967:.\Generated_Source\PSoC4/CapSense.c **** *  component to scan sensors. The IDAC range is common for all the sensors.
1968:.\Generated_Source\PSoC4/CapSense.c **** *
1969:.\Generated_Source\PSoC4/CapSense.c **** * Parameters:
1970:.\Generated_Source\PSoC4/CapSense.c **** *  None
1971:.\Generated_Source\PSoC4/CapSense.c **** *
1972:.\Generated_Source\PSoC4/CapSense.c **** * Return:
1973:.\Generated_Source\PSoC4/CapSense.c **** *  This API Returns a value that indicates the IDAC range:
1974:.\Generated_Source\PSoC4/CapSense.c **** *      0 - IDAC range set to 4x
1975:.\Generated_Source\PSoC4/CapSense.c **** *      1 - IDAC range set to 8x
1976:.\Generated_Source\PSoC4/CapSense.c **** *
1977:.\Generated_Source\PSoC4/CapSense.c **** * Global Variables:
1978:.\Generated_Source\PSoC4/CapSense.c **** *  None
1979:.\Generated_Source\PSoC4/CapSense.c **** * 
1980:.\Generated_Source\PSoC4/CapSense.c **** * Side Effects:
1981:.\Generated_Source\PSoC4/CapSense.c **** *  None
1982:.\Generated_Source\PSoC4/CapSense.c **** *
1983:.\Generated_Source\PSoC4/CapSense.c **** *******************************************************************************/
1984:.\Generated_Source\PSoC4/CapSense.c **** uint32 CapSense_GetIDACRange(void)
1985:.\Generated_Source\PSoC4/CapSense.c **** {
 2597              		.loc 1 1985 0
 2598              		.cfi_startproc
 2599 0000 80B5     		push	{r7, lr}
 2600              	.LCFI100:
 2601              		.cfi_def_cfa_offset 8
 2602              		.cfi_offset 7, -8
 2603              		.cfi_offset 14, -4
 2604 0002 00AF     		add	r7, sp, #0
 2605              	.LCFI101:
 2606              		.cfi_def_cfa_register 7
1986:.\Generated_Source\PSoC4/CapSense.c **** 	return((0u != (CapSense_CSD_IDAC_REG & CapSense_CSD_IDAC1_RANGE_8X)) ? 1uL : 0uL);
 2607              		.loc 1 1986 0
 2608 0004 054B     		ldr	r3, .L145
 2609 0006 1A68     		ldr	r2, [r3]
 2610 0008 8023     		mov	r3, #128
 2611 000a DB00     		lsl	r3, r3, #3
 2612 000c 1340     		and	r3, r2
 2613 000e 01D0     		beq	.L142
 2614              		.loc 1 1986 0 is_stmt 0 discriminator 1
 2615 0010 0123     		mov	r3, #1
 2616 0012 00E0     		b	.L143
 2617              	.L142:
 2618              		.loc 1 1986 0 discriminator 2
 2619 0014 0023     		mov	r3, #0
ARM GAS  C:\DOCUME~1\Chuck\LOCALS~1\Temp\cclVEGdP.s 			page 82


 2620              	.L143:
1987:.\Generated_Source\PSoC4/CapSense.c **** }
 2621              		.loc 1 1987 0 is_stmt 1 discriminator 3
 2622 0016 181C     		mov	r0, r3
 2623 0018 BD46     		mov	sp, r7
 2624              		@ sp needed for prologue
 2625 001a 80BD     		pop	{r7, pc}
 2626              	.L146:
 2627              		.align	2
 2628              	.L145:
 2629 001c 08000840 		.word	1074266120
 2630              		.cfi_endproc
 2631              	.LFE68:
 2632              		.size	CapSense_GetIDACRange, .-CapSense_GetIDACRange
 2633              		.section	.text.CapSense_SetIDACRange,"ax",%progbits
 2634              		.align	2
 2635              		.global	CapSense_SetIDACRange
 2636              		.code	16
 2637              		.thumb_func
 2638              		.type	CapSense_SetIDACRange, %function
 2639              	CapSense_SetIDACRange:
 2640              	.LFB69:
1988:.\Generated_Source\PSoC4/CapSense.c **** 
1989:.\Generated_Source\PSoC4/CapSense.c **** #if (CapSense_TUNING_METHOD != CapSense__TUNING_NONE)
1990:.\Generated_Source\PSoC4/CapSense.c **** 	/*******************************************************************************
1991:.\Generated_Source\PSoC4/CapSense.c **** 	* Function Name: CapSense_SetIDACRange
1992:.\Generated_Source\PSoC4/CapSense.c **** 	********************************************************************************
1993:.\Generated_Source\PSoC4/CapSense.c **** 	*
1994:.\Generated_Source\PSoC4/CapSense.c **** 	* Summary:
1995:.\Generated_Source\PSoC4/CapSense.c **** 	*  This API sets the IDAC range to the 4x (1.2uA/bit) or 8x (2.4uA/bit) mode.
1996:.\Generated_Source\PSoC4/CapSense.c ****     *  The IDAC range is common for all the sensors and common for the modulation and 
1997:.\Generated_Source\PSoC4/CapSense.c **** 	*  compensation IDACs.
1998:.\Generated_Source\PSoC4/CapSense.c **** 	*
1999:.\Generated_Source\PSoC4/CapSense.c **** 	* Parameters:
2000:.\Generated_Source\PSoC4/CapSense.c **** 	*  iDacRange:  represents value for IDAC range 
2001:.\Generated_Source\PSoC4/CapSense.c **** 	*  0 -  IDAC range set to 4x (1.2uA/bit)
2002:.\Generated_Source\PSoC4/CapSense.c **** 	*  1 or >1 - IDAC range set to 8x (2.4uA/bit)
2003:.\Generated_Source\PSoC4/CapSense.c **** 	*
2004:.\Generated_Source\PSoC4/CapSense.c **** 	* Return:
2005:.\Generated_Source\PSoC4/CapSense.c **** 	*  None.
2006:.\Generated_Source\PSoC4/CapSense.c **** 	*
2007:.\Generated_Source\PSoC4/CapSense.c **** 	* Global Variables:
2008:.\Generated_Source\PSoC4/CapSense.c **** 	*  None
2009:.\Generated_Source\PSoC4/CapSense.c **** 	* 
2010:.\Generated_Source\PSoC4/CapSense.c **** 	* Side Effects:
2011:.\Generated_Source\PSoC4/CapSense.c **** 	*  None
2012:.\Generated_Source\PSoC4/CapSense.c **** 	*
2013:.\Generated_Source\PSoC4/CapSense.c **** 	*******************************************************************************/
2014:.\Generated_Source\PSoC4/CapSense.c **** 	void CapSense_SetIDACRange(uint32 iDacRange)
2015:.\Generated_Source\PSoC4/CapSense.c **** 	{
 2641              		.loc 1 2015 0
 2642              		.cfi_startproc
 2643 0000 80B5     		push	{r7, lr}
 2644              	.LCFI102:
 2645              		.cfi_def_cfa_offset 8
 2646              		.cfi_offset 7, -8
 2647              		.cfi_offset 14, -4
ARM GAS  C:\DOCUME~1\Chuck\LOCALS~1\Temp\cclVEGdP.s 			page 83


 2648 0002 82B0     		sub	sp, sp, #8
 2649              	.LCFI103:
 2650              		.cfi_def_cfa_offset 16
 2651 0004 00AF     		add	r7, sp, #0
 2652              	.LCFI104:
 2653              		.cfi_def_cfa_register 7
 2654 0006 7860     		str	r0, [r7, #4]
2016:.\Generated_Source\PSoC4/CapSense.c **** 	    if(iDacRange != 0u)
 2655              		.loc 1 2016 0
 2656 0008 7B68     		ldr	r3, [r7, #4]
 2657 000a 002B     		cmp	r3, #0
 2658 000c 06D0     		beq	.L148
2017:.\Generated_Source\PSoC4/CapSense.c **** 		{
2018:.\Generated_Source\PSoC4/CapSense.c **** 		    /*  IDAC range = 8x (2.4uA/bit) */ 
2019:.\Generated_Source\PSoC4/CapSense.c **** 		    CapSense_CSD_IDAC_REG |= (CapSense_CSD_IDAC1_RANGE_8X |\
 2659              		.loc 1 2019 0
 2660 000e 084B     		ldr	r3, .L150
 2661 0010 074A     		ldr	r2, .L150
 2662 0012 1268     		ldr	r2, [r2]
 2663 0014 0749     		ldr	r1, .L150+4
 2664 0016 0A43     		orr	r2, r1
 2665 0018 1A60     		str	r2, [r3]
 2666 001a 05E0     		b	.L147
 2667              	.L148:
2020:.\Generated_Source\PSoC4/CapSense.c **** 											  CapSense_CSD_IDAC2_RANGE_8X);
2021:.\Generated_Source\PSoC4/CapSense.c **** 		}
2022:.\Generated_Source\PSoC4/CapSense.c **** 		else
2023:.\Generated_Source\PSoC4/CapSense.c **** 		{
2024:.\Generated_Source\PSoC4/CapSense.c **** 		    /*  IDAC range = 4x (1.2uA/bit) */ 
2025:.\Generated_Source\PSoC4/CapSense.c **** 		    /*  IDAC range = 8x (2.4uA/bit) */ 
2026:.\Generated_Source\PSoC4/CapSense.c **** 		    CapSense_CSD_IDAC_REG &= ~(CapSense_CSD_IDAC1_RANGE_8X |\
 2668              		.loc 1 2026 0
 2669 001c 044B     		ldr	r3, .L150
 2670 001e 044A     		ldr	r2, .L150
 2671 0020 1168     		ldr	r1, [r2]
 2672 0022 054A     		ldr	r2, .L150+8
 2673 0024 0A40     		and	r2, r1
 2674 0026 1A60     		str	r2, [r3]
 2675              	.L147:
2027:.\Generated_Source\PSoC4/CapSense.c **** 											   CapSense_CSD_IDAC2_RANGE_8X);
2028:.\Generated_Source\PSoC4/CapSense.c **** 		}
2029:.\Generated_Source\PSoC4/CapSense.c **** 	}
 2676              		.loc 1 2029 0
 2677 0028 BD46     		mov	sp, r7
 2678 002a 02B0     		add	sp, sp, #8
 2679              		@ sp needed for prologue
 2680 002c 80BD     		pop	{r7, pc}
 2681              	.L151:
 2682 002e C046     		.align	2
 2683              	.L150:
 2684 0030 08000840 		.word	1074266120
 2685 0034 00040004 		.word	67109888
 2686 0038 FFFBFFFB 		.word	-67109889
 2687              		.cfi_endproc
 2688              	.LFE69:
 2689              		.size	CapSense_SetIDACRange, .-CapSense_SetIDACRange
 2690              		.section	.text.CapSense_GetSensorRaw,"ax",%progbits
ARM GAS  C:\DOCUME~1\Chuck\LOCALS~1\Temp\cclVEGdP.s 			page 84


 2691              		.align	2
 2692              		.global	CapSense_GetSensorRaw
 2693              		.code	16
 2694              		.thumb_func
 2695              		.type	CapSense_GetSensorRaw, %function
 2696              	CapSense_GetSensorRaw:
 2697              	.LFB70:
2030:.\Generated_Source\PSoC4/CapSense.c **** #endif /* (CapSense_TUNING_METHOD != CapSense__TUNING_NONE) */
2031:.\Generated_Source\PSoC4/CapSense.c **** 
2032:.\Generated_Source\PSoC4/CapSense.c **** 
2033:.\Generated_Source\PSoC4/CapSense.c **** #if((0u != CapSense_AUTOCALIBRATION_ENABLE) || (CapSense_TUNING_METHOD == CapSense__TUNING_AUTO))
2034:.\Generated_Source\PSoC4/CapSense.c **** 	/*******************************************************************************
2035:.\Generated_Source\PSoC4/CapSense.c **** 	* Function Name: CapSense_GetSensorRaw
2036:.\Generated_Source\PSoC4/CapSense.c **** 	********************************************************************************
2037:.\Generated_Source\PSoC4/CapSense.c **** 	*
2038:.\Generated_Source\PSoC4/CapSense.c **** 	* Summary:
2039:.\Generated_Source\PSoC4/CapSense.c **** 	*  The API updates and gets uprated raw data from the sensor.
2040:.\Generated_Source\PSoC4/CapSense.c **** 	*
2041:.\Generated_Source\PSoC4/CapSense.c **** 	* Parameters:
2042:.\Generated_Source\PSoC4/CapSense.c **** 	*  sensor - Sensor number.
2043:.\Generated_Source\PSoC4/CapSense.c **** 	*
2044:.\Generated_Source\PSoC4/CapSense.c **** 	* Return:
2045:.\Generated_Source\PSoC4/CapSense.c **** 	*  Returns the current raw data value for a defined sensor number.
2046:.\Generated_Source\PSoC4/CapSense.c **** 	*
2047:.\Generated_Source\PSoC4/CapSense.c **** 	* Global Variables:
2048:.\Generated_Source\PSoC4/CapSense.c **** 	*  None
2049:.\Generated_Source\PSoC4/CapSense.c **** 	*
2050:.\Generated_Source\PSoC4/CapSense.c **** 	* Side Effects:
2051:.\Generated_Source\PSoC4/CapSense.c **** 	*  None
2052:.\Generated_Source\PSoC4/CapSense.c **** 	*
2053:.\Generated_Source\PSoC4/CapSense.c **** 	*******************************************************************************/
2054:.\Generated_Source\PSoC4/CapSense.c **** 	uint16  CapSense_GetSensorRaw(uint32 sensor)
2055:.\Generated_Source\PSoC4/CapSense.c **** 	{
 2698              		.loc 1 2055 0
 2699              		.cfi_startproc
 2700 0000 80B5     		push	{r7, lr}
 2701              	.LCFI105:
 2702              		.cfi_def_cfa_offset 8
 2703              		.cfi_offset 7, -8
 2704              		.cfi_offset 14, -4
 2705 0002 84B0     		sub	sp, sp, #16
 2706              	.LCFI106:
 2707              		.cfi_def_cfa_offset 24
 2708 0004 00AF     		add	r7, sp, #0
 2709              	.LCFI107:
 2710              		.cfi_def_cfa_register 7
 2711 0006 7860     		str	r0, [r7, #4]
2056:.\Generated_Source\PSoC4/CapSense.c **** 		uint32 curSample;
2057:.\Generated_Source\PSoC4/CapSense.c **** 		uint32 avgVal = 0u;
 2712              		.loc 1 2057 0
 2713 0008 0023     		mov	r3, #0
 2714 000a BB60     		str	r3, [r7, #8]
2058:.\Generated_Source\PSoC4/CapSense.c **** 		
2059:.\Generated_Source\PSoC4/CapSense.c **** 		for(curSample = 0u; curSample < CapSense_AVG_SAMPLES_NUM; curSample++)
 2715              		.loc 1 2059 0
 2716 000c 0023     		mov	r3, #0
 2717 000e FB60     		str	r3, [r7, #12]
ARM GAS  C:\DOCUME~1\Chuck\LOCALS~1\Temp\cclVEGdP.s 			page 85


 2718 0010 14E0     		b	.L153
 2719              	.L155:
2060:.\Generated_Source\PSoC4/CapSense.c **** 		{
2061:.\Generated_Source\PSoC4/CapSense.c **** 	    
2062:.\Generated_Source\PSoC4/CapSense.c **** 			CapSense_ScanSensor((uint32)sensor);
 2720              		.loc 1 2062 0
 2721 0012 7B68     		ldr	r3, [r7, #4]
 2722 0014 181C     		mov	r0, r3
 2723 0016 FFF7FEFF 		bl	CapSense_ScanSensor
2063:.\Generated_Source\PSoC4/CapSense.c **** 		    while(CapSense_IsBusy() == 1u)
 2724              		.loc 1 2063 0
 2725 001a C046     		mov	r8, r8
 2726              	.L154:
 2727              		.loc 1 2063 0 is_stmt 0 discriminator 1
 2728 001c FFF7FEFF 		bl	CapSense_IsBusy
 2729 0020 031C     		mov	r3, r0
 2730 0022 012B     		cmp	r3, #1
 2731 0024 FAD0     		beq	.L154
2064:.\Generated_Source\PSoC4/CapSense.c **** 			{
2065:.\Generated_Source\PSoC4/CapSense.c **** 				/* Wait while sensor is busy */
2066:.\Generated_Source\PSoC4/CapSense.c **** 			}
2067:.\Generated_Source\PSoC4/CapSense.c **** 			avgVal += CapSense_ReadSensorRaw((uint32)sensor);
 2732              		.loc 1 2067 0 is_stmt 1
 2733 0026 7B68     		ldr	r3, [r7, #4]
 2734 0028 181C     		mov	r0, r3
 2735 002a FFF7FEFF 		bl	CapSense_ReadSensorRaw
 2736 002e 031C     		mov	r3, r0
 2737 0030 BA68     		ldr	r2, [r7, #8]
 2738 0032 D318     		add	r3, r2, r3
 2739 0034 BB60     		str	r3, [r7, #8]
2059:.\Generated_Source\PSoC4/CapSense.c **** 		for(curSample = 0u; curSample < CapSense_AVG_SAMPLES_NUM; curSample++)
 2740              		.loc 1 2059 0
 2741 0036 FB68     		ldr	r3, [r7, #12]
 2742 0038 0133     		add	r3, r3, #1
 2743 003a FB60     		str	r3, [r7, #12]
 2744              	.L153:
2059:.\Generated_Source\PSoC4/CapSense.c **** 		for(curSample = 0u; curSample < CapSense_AVG_SAMPLES_NUM; curSample++)
 2745              		.loc 1 2059 0 is_stmt 0 discriminator 1
 2746 003c FB68     		ldr	r3, [r7, #12]
 2747 003e 002B     		cmp	r3, #0
 2748 0040 E7D0     		beq	.L155
2068:.\Generated_Source\PSoC4/CapSense.c **** 		}
2069:.\Generated_Source\PSoC4/CapSense.c **** 	    
2070:.\Generated_Source\PSoC4/CapSense.c **** 	    return((uint16)(avgVal / CapSense_AVG_SAMPLES_NUM));
 2749              		.loc 1 2070 0 is_stmt 1
 2750 0042 BB68     		ldr	r3, [r7, #8]
 2751 0044 9BB2     		uxth	r3, r3
2071:.\Generated_Source\PSoC4/CapSense.c **** 	}
 2752              		.loc 1 2071 0
 2753 0046 181C     		mov	r0, r3
 2754 0048 BD46     		mov	sp, r7
 2755 004a 04B0     		add	sp, sp, #16
 2756              		@ sp needed for prologue
 2757 004c 80BD     		pop	{r7, pc}
 2758              		.cfi_endproc
 2759              	.LFE70:
 2760              		.size	CapSense_GetSensorRaw, .-CapSense_GetSensorRaw
ARM GAS  C:\DOCUME~1\Chuck\LOCALS~1\Temp\cclVEGdP.s 			page 86


 2761 004e C046     		.section	.text.CapSense_SetUnscannedSensorState,"ax",%progbits
 2762              		.align	2
 2763              		.global	CapSense_SetUnscannedSensorState
 2764              		.code	16
 2765              		.thumb_func
 2766              		.type	CapSense_SetUnscannedSensorState, %function
 2767              	CapSense_SetUnscannedSensorState:
 2768              	.LFB71:
2072:.\Generated_Source\PSoC4/CapSense.c **** #endif /* ((0u != CapSense_AUTOCALIBRATION_ENABLE) && (CapSense_TUNING_METHOD == CapSense__TUNING_A
2073:.\Generated_Source\PSoC4/CapSense.c **** 
2074:.\Generated_Source\PSoC4/CapSense.c **** 
2075:.\Generated_Source\PSoC4/CapSense.c **** #if((0u != CapSense_AUTOCALIBRATION_ENABLE) && (CapSense_TUNING_METHOD != CapSense__TUNING_AUTO))
2076:.\Generated_Source\PSoC4/CapSense.c **** 	/*******************************************************************************
2077:.\Generated_Source\PSoC4/CapSense.c **** 	* Function Name: CapSense_CalibrateSensor
2078:.\Generated_Source\PSoC4/CapSense.c **** 	********************************************************************************
2079:.\Generated_Source\PSoC4/CapSense.c **** 	*
2080:.\Generated_Source\PSoC4/CapSense.c **** 	* Summary:
2081:.\Generated_Source\PSoC4/CapSense.c **** 	*  Computes the one sensor IDAC value, which provides the raw signal on
2082:.\Generated_Source\PSoC4/CapSense.c **** 	*  a specified level, with a specified prescaler, speed, and resolution.
2083:.\Generated_Source\PSoC4/CapSense.c **** 	*
2084:.\Generated_Source\PSoC4/CapSense.c **** 	* Parameters:
2085:.\Generated_Source\PSoC4/CapSense.c **** 	*  sensor - Sensor Number.
2086:.\Generated_Source\PSoC4/CapSense.c **** 	*
2087:.\Generated_Source\PSoC4/CapSense.c **** 	*  rawLevel -  Raw data level which should be reached during the calibration
2088:.\Generated_Source\PSoC4/CapSense.c **** 	*              procedure.
2089:.\Generated_Source\PSoC4/CapSense.c **** 	*
2090:.\Generated_Source\PSoC4/CapSense.c **** 	*  idacLevelsTbl - Pointer to the modulatorIdac data register configuration table.            
2091:.\Generated_Source\PSoC4/CapSense.c **** 	*
2092:.\Generated_Source\PSoC4/CapSense.c **** 	* Return:       
2093:.\Generated_Source\PSoC4/CapSense.c **** 	*  None
2094:.\Generated_Source\PSoC4/CapSense.c **** 	*
2095:.\Generated_Source\PSoC4/CapSense.c **** 	*******************************************************************************/
2096:.\Generated_Source\PSoC4/CapSense.c **** 	void CapSense_CalibrateSensor(uint32 sensor, uint32 rawLevel, uint8 idacLevelsTbl[])
2097:.\Generated_Source\PSoC4/CapSense.c **** 	{
2098:.\Generated_Source\PSoC4/CapSense.c **** 		uint8 mask;
2099:.\Generated_Source\PSoC4/CapSense.c **** 		uint16 rawData;
2100:.\Generated_Source\PSoC4/CapSense.c **** 		
2101:.\Generated_Source\PSoC4/CapSense.c **** 		rawData = 0u;
2102:.\Generated_Source\PSoC4/CapSense.c **** 		
2103:.\Generated_Source\PSoC4/CapSense.c **** 		mask = 0x80u;
2104:.\Generated_Source\PSoC4/CapSense.c **** 		/* Init IDAC for null Channel */
2105:.\Generated_Source\PSoC4/CapSense.c **** 		idacLevelsTbl[sensor] = 0x00u;
2106:.\Generated_Source\PSoC4/CapSense.c **** 		
2107:.\Generated_Source\PSoC4/CapSense.c **** 		do
2108:.\Generated_Source\PSoC4/CapSense.c **** 		{
2109:.\Generated_Source\PSoC4/CapSense.c **** 		    /* Set bit for null Channel */
2110:.\Generated_Source\PSoC4/CapSense.c **** 			idacLevelsTbl[sensor] |= mask;
2111:.\Generated_Source\PSoC4/CapSense.c **** 
2112:.\Generated_Source\PSoC4/CapSense.c **** 	        /* Scan null Channel and get Rawdata */
2113:.\Generated_Source\PSoC4/CapSense.c **** 			rawData = CapSense_GetSensorRaw(sensor);
2114:.\Generated_Source\PSoC4/CapSense.c **** 			
2115:.\Generated_Source\PSoC4/CapSense.c **** 			/* Decrease IDAC until Rawdata reaches rawLevel */ 
2116:.\Generated_Source\PSoC4/CapSense.c **** 			if(rawData < rawLevel)
2117:.\Generated_Source\PSoC4/CapSense.c **** 			{
2118:.\Generated_Source\PSoC4/CapSense.c **** 			    /* Reset bit for null Channel  */ 
2119:.\Generated_Source\PSoC4/CapSense.c **** 				idacLevelsTbl[sensor] &= (uint8)~mask;
2120:.\Generated_Source\PSoC4/CapSense.c **** 			}
ARM GAS  C:\DOCUME~1\Chuck\LOCALS~1\Temp\cclVEGdP.s 			page 87


2121:.\Generated_Source\PSoC4/CapSense.c **** 			
2122:.\Generated_Source\PSoC4/CapSense.c **** 			mask >>= 1u;
2123:.\Generated_Source\PSoC4/CapSense.c **** 		}
2124:.\Generated_Source\PSoC4/CapSense.c **** 		while(mask > 0u);
2125:.\Generated_Source\PSoC4/CapSense.c **** 		
2126:.\Generated_Source\PSoC4/CapSense.c **** 	}
2127:.\Generated_Source\PSoC4/CapSense.c **** #endif /* ((0u != CapSense_AUTOCALIBRATION_ENABLE) && (CapSense_TUNING_METHOD != CapSense__TUNING_A
2128:.\Generated_Source\PSoC4/CapSense.c **** 
2129:.\Generated_Source\PSoC4/CapSense.c **** 
2130:.\Generated_Source\PSoC4/CapSense.c **** /*******************************************************************************
2131:.\Generated_Source\PSoC4/CapSense.c **** * Function Name: CapSense_SetUnscannedSensorState
2132:.\Generated_Source\PSoC4/CapSense.c **** ********************************************************************************
2133:.\Generated_Source\PSoC4/CapSense.c **** *
2134:.\Generated_Source\PSoC4/CapSense.c **** * Summary:
2135:.\Generated_Source\PSoC4/CapSense.c **** *  This API sets a state for un-scanned sensors. 
2136:.\Generated_Source\PSoC4/CapSense.c **** *  It is possible to set the state to Ground, High-Z, or the shield electrode. 
2137:.\Generated_Source\PSoC4/CapSense.c **** *  The un-scanned sensor can be connected to a shield electrode only if the shield is 
2138:.\Generated_Source\PSoC4/CapSense.c **** *  enabled. If the shield is disabled and this API is called with the parameter which
2139:.\Generated_Source\PSoC4/CapSense.c **** *  indicates the shield state, the un-scanned sensor will be connected to Ground.
2140:.\Generated_Source\PSoC4/CapSense.c **** *
2141:.\Generated_Source\PSoC4/CapSense.c **** * Parameters:
2142:.\Generated_Source\PSoC4/CapSense.c **** *  sensor - Sensor Number.
2143:.\Generated_Source\PSoC4/CapSense.c **** *  sensorState: This parameter indicates un-scanned sensor state:
2144:.\Generated_Source\PSoC4/CapSense.c **** *
2145:.\Generated_Source\PSoC4/CapSense.c **** *     CapSense__GROUND 0
2146:.\Generated_Source\PSoC4/CapSense.c **** *     CapSense__HIZ_ANALOG 1
2147:.\Generated_Source\PSoC4/CapSense.c **** *     CapSense__SHIELD 2
2148:.\Generated_Source\PSoC4/CapSense.c **** *
2149:.\Generated_Source\PSoC4/CapSense.c **** * Return:
2150:.\Generated_Source\PSoC4/CapSense.c **** *  None.
2151:.\Generated_Source\PSoC4/CapSense.c **** *
2152:.\Generated_Source\PSoC4/CapSense.c **** * Global Variables:
2153:.\Generated_Source\PSoC4/CapSense.c **** *  CapSense_unscannedSnsDriveMode[] - used to store the state for
2154:.\Generated_Source\PSoC4/CapSense.c **** *  un-scanned sensors.
2155:.\Generated_Source\PSoC4/CapSense.c **** * 
2156:.\Generated_Source\PSoC4/CapSense.c **** * Side Effects:
2157:.\Generated_Source\PSoC4/CapSense.c **** *  None
2158:.\Generated_Source\PSoC4/CapSense.c **** *
2159:.\Generated_Source\PSoC4/CapSense.c **** *******************************************************************************/
2160:.\Generated_Source\PSoC4/CapSense.c **** void CapSense_SetUnscannedSensorState(uint32 sensor, uint32 sensorState)
2161:.\Generated_Source\PSoC4/CapSense.c **** {
 2769              		.loc 1 2161 0
 2770              		.cfi_startproc
 2771 0000 80B5     		push	{r7, lr}
 2772              	.LCFI108:
 2773              		.cfi_def_cfa_offset 8
 2774              		.cfi_offset 7, -8
 2775              		.cfi_offset 14, -4
 2776 0002 82B0     		sub	sp, sp, #8
 2777              	.LCFI109:
 2778              		.cfi_def_cfa_offset 16
 2779 0004 00AF     		add	r7, sp, #0
 2780              	.LCFI110:
 2781              		.cfi_def_cfa_register 7
 2782 0006 7860     		str	r0, [r7, #4]
 2783 0008 3960     		str	r1, [r7]
2162:.\Generated_Source\PSoC4/CapSense.c ****     CapSense_unscannedSnsDriveMode[sensor] = (uint8)sensorState;	
ARM GAS  C:\DOCUME~1\Chuck\LOCALS~1\Temp\cclVEGdP.s 			page 88


 2784              		.loc 1 2162 0
 2785 000a 3B68     		ldr	r3, [r7]
 2786 000c DAB2     		uxtb	r2, r3
 2787 000e 0349     		ldr	r1, .L158
 2788 0010 7B68     		ldr	r3, [r7, #4]
 2789 0012 CB18     		add	r3, r1, r3
 2790 0014 1A70     		strb	r2, [r3]
2163:.\Generated_Source\PSoC4/CapSense.c **** }
 2791              		.loc 1 2163 0
 2792 0016 BD46     		mov	sp, r7
 2793 0018 02B0     		add	sp, sp, #8
 2794              		@ sp needed for prologue
 2795 001a 80BD     		pop	{r7, pc}
 2796              	.L159:
 2797              		.align	2
 2798              	.L158:
 2799 001c 00000000 		.word	CapSense_unscannedSnsDriveMode
 2800              		.cfi_endproc
 2801              	.LFE71:
 2802              		.size	CapSense_SetUnscannedSensorState, .-CapSense_SetUnscannedSensorState
 2803              		.text
 2804              	.Letext0:
 2805              		.file 2 ".\\Generated_Source\\PSoC4\\cytypes.h"
 2806              		.section	.debug_info,"",%progbits
 2807              	.Ldebug_info0:
 2808 0000 440C0000 		.4byte	0xc44
 2809 0004 0200     		.2byte	0x2
 2810 0006 00000000 		.4byte	.Ldebug_abbrev0
 2811 000a 04       		.byte	0x4
 2812 000b 01       		.uleb128 0x1
 2813 000c 63050000 		.4byte	.LASF118
 2814 0010 01       		.byte	0x1
 2815 0011 3F050000 		.4byte	.LASF119
 2816 0015 C0030000 		.4byte	.LASF120
 2817 0019 00000000 		.4byte	.Ldebug_ranges0+0
 2818 001d 00000000 		.4byte	0
 2819 0021 00000000 		.4byte	0
 2820 0025 00000000 		.4byte	.Ldebug_line0
 2821 0029 02       		.uleb128 0x2
 2822 002a 01       		.byte	0x1
 2823 002b 06       		.byte	0x6
 2824 002c A5010000 		.4byte	.LASF0
 2825 0030 02       		.uleb128 0x2
 2826 0031 01       		.byte	0x1
 2827 0032 08       		.byte	0x8
 2828 0033 C9050000 		.4byte	.LASF1
 2829 0037 02       		.uleb128 0x2
 2830 0038 02       		.byte	0x2
 2831 0039 05       		.byte	0x5
 2832 003a 0C060000 		.4byte	.LASF2
 2833 003e 02       		.uleb128 0x2
 2834 003f 02       		.byte	0x2
 2835 0040 07       		.byte	0x7
 2836 0041 90030000 		.4byte	.LASF3
 2837 0045 02       		.uleb128 0x2
 2838 0046 04       		.byte	0x4
 2839 0047 05       		.byte	0x5
ARM GAS  C:\DOCUME~1\Chuck\LOCALS~1\Temp\cclVEGdP.s 			page 89


 2840 0048 EC010000 		.4byte	.LASF4
 2841 004c 02       		.uleb128 0x2
 2842 004d 04       		.byte	0x4
 2843 004e 07       		.byte	0x7
 2844 004f 40030000 		.4byte	.LASF5
 2845 0053 02       		.uleb128 0x2
 2846 0054 08       		.byte	0x8
 2847 0055 05       		.byte	0x5
 2848 0056 97010000 		.4byte	.LASF6
 2849 005a 02       		.uleb128 0x2
 2850 005b 08       		.byte	0x8
 2851 005c 07       		.byte	0x7
 2852 005d FD000000 		.4byte	.LASF7
 2853 0061 03       		.uleb128 0x3
 2854 0062 04       		.byte	0x4
 2855 0063 05       		.byte	0x5
 2856 0064 696E7400 		.ascii	"int\000"
 2857 0068 02       		.uleb128 0x2
 2858 0069 04       		.byte	0x4
 2859 006a 07       		.byte	0x7
 2860 006b 14030000 		.4byte	.LASF8
 2861 006f 04       		.uleb128 0x4
 2862 0070 F5010000 		.4byte	.LASF9
 2863 0074 02       		.byte	0x2
 2864 0075 5B       		.byte	0x5b
 2865 0076 30000000 		.4byte	0x30
 2866 007a 04       		.uleb128 0x4
 2867 007b 41000000 		.4byte	.LASF10
 2868 007f 02       		.byte	0x2
 2869 0080 5C       		.byte	0x5c
 2870 0081 3E000000 		.4byte	0x3e
 2871 0085 04       		.uleb128 0x4
 2872 0086 99020000 		.4byte	.LASF11
 2873 008a 02       		.byte	0x2
 2874 008b 5D       		.byte	0x5d
 2875 008c 4C000000 		.4byte	0x4c
 2876 0090 02       		.uleb128 0x2
 2877 0091 04       		.byte	0x4
 2878 0092 04       		.byte	0x4
 2879 0093 25050000 		.4byte	.LASF12
 2880 0097 02       		.uleb128 0x2
 2881 0098 08       		.byte	0x8
 2882 0099 04       		.byte	0x4
 2883 009a 26020000 		.4byte	.LASF13
 2884 009e 02       		.uleb128 0x2
 2885 009f 01       		.byte	0x1
 2886 00a0 08       		.byte	0x8
 2887 00a1 BA060000 		.4byte	.LASF14
 2888 00a5 04       		.uleb128 0x4
 2889 00a6 AC050000 		.4byte	.LASF15
 2890 00aa 02       		.byte	0x2
 2891 00ab F0       		.byte	0xf0
 2892 00ac B0000000 		.4byte	0xb0
 2893 00b0 05       		.uleb128 0x5
 2894 00b1 6F000000 		.4byte	0x6f
 2895 00b5 04       		.uleb128 0x4
 2896 00b6 4D040000 		.4byte	.LASF16
ARM GAS  C:\DOCUME~1\Chuck\LOCALS~1\Temp\cclVEGdP.s 			page 90


 2897 00ba 02       		.byte	0x2
 2898 00bb F2       		.byte	0xf2
 2899 00bc C0000000 		.4byte	0xc0
 2900 00c0 05       		.uleb128 0x5
 2901 00c1 85000000 		.4byte	0x85
 2902 00c5 02       		.uleb128 0x2
 2903 00c6 04       		.byte	0x4
 2904 00c7 07       		.byte	0x7
 2905 00c8 87040000 		.4byte	.LASF17
 2906 00cc 06       		.uleb128 0x6
 2907 00cd 04       		.byte	0x4
 2908 00ce 6F000000 		.4byte	0x6f
 2909 00d2 06       		.uleb128 0x6
 2910 00d3 04       		.byte	0x4
 2911 00d4 D8000000 		.4byte	0xd8
 2912 00d8 07       		.uleb128 0x7
 2913 00d9 6F000000 		.4byte	0x6f
 2914 00dd 08       		.uleb128 0x8
 2915 00de 01       		.byte	0x1
 2916 00df 16080000 		.4byte	.LASF18
 2917 00e3 01       		.byte	0x1
 2918 00e4 94       		.byte	0x94
 2919 00e5 01       		.byte	0x1
 2920 00e6 00000000 		.4byte	.LFB33
 2921 00ea 3C000000 		.4byte	.LFE33
 2922 00ee 00000000 		.4byte	.LLST0
 2923 00f2 01       		.byte	0x1
 2924 00f3 06010000 		.4byte	0x106
 2925 00f7 09       		.uleb128 0x9
 2926 00f8 00000000 		.4byte	.LASF20
 2927 00fc 01       		.byte	0x1
 2928 00fd 96       		.byte	0x96
 2929 00fe 85000000 		.4byte	0x85
 2930 0102 02       		.byte	0x2
 2931 0103 91       		.byte	0x91
 2932 0104 74       		.sleb128 -12
 2933 0105 00       		.byte	0
 2934 0106 08       		.uleb128 0x8
 2935 0107 01       		.byte	0x1
 2936 0108 78030000 		.4byte	.LASF19
 2937 010c 01       		.byte	0x1
 2938 010d D5       		.byte	0xd5
 2939 010e 01       		.byte	0x1
 2940 010f 00000000 		.4byte	.LFB34
 2941 0113 C0000000 		.4byte	.LFE34
 2942 0117 38000000 		.4byte	.LLST1
 2943 011b 01       		.byte	0x1
 2944 011c 2F010000 		.4byte	0x12f
 2945 0120 09       		.uleb128 0x9
 2946 0121 8D020000 		.4byte	.LASF21
 2947 0125 01       		.byte	0x1
 2948 0126 D7       		.byte	0xd7
 2949 0127 85000000 		.4byte	0x85
 2950 012b 02       		.byte	0x2
 2951 012c 91       		.byte	0x91
 2952 012d 74       		.sleb128 -12
 2953 012e 00       		.byte	0
ARM GAS  C:\DOCUME~1\Chuck\LOCALS~1\Temp\cclVEGdP.s 			page 91


 2954 012f 0A       		.uleb128 0xa
 2955 0130 01       		.byte	0x1
 2956 0131 63010000 		.4byte	.LASF22
 2957 0135 01       		.byte	0x1
 2958 0136 2A01     		.2byte	0x12a
 2959 0138 01       		.byte	0x1
 2960 0139 00000000 		.4byte	.LFB35
 2961 013d 50000000 		.4byte	.LFE35
 2962 0141 70000000 		.4byte	.LLST2
 2963 0145 01       		.byte	0x1
 2964 0146 5A010000 		.4byte	0x15a
 2965 014a 0B       		.uleb128 0xb
 2966 014b 8D020000 		.4byte	.LASF21
 2967 014f 01       		.byte	0x1
 2968 0150 2C01     		.2byte	0x12c
 2969 0152 85000000 		.4byte	0x85
 2970 0156 02       		.byte	0x2
 2971 0157 91       		.byte	0x91
 2972 0158 74       		.sleb128 -12
 2973 0159 00       		.byte	0
 2974 015a 0C       		.uleb128 0xc
 2975 015b 01       		.byte	0x1
 2976 015c F2060000 		.4byte	.LASF23
 2977 0160 01       		.byte	0x1
 2978 0161 6501     		.2byte	0x165
 2979 0163 01       		.byte	0x1
 2980 0164 00000000 		.4byte	.LFB36
 2981 0168 44000000 		.4byte	.LFE36
 2982 016c A8000000 		.4byte	.LLST3
 2983 0170 01       		.byte	0x1
 2984 0171 0C       		.uleb128 0xc
 2985 0172 01       		.byte	0x1
 2986 0173 BA040000 		.4byte	.LASF24
 2987 0177 01       		.byte	0x1
 2988 0178 B501     		.2byte	0x1b5
 2989 017a 01       		.byte	0x1
 2990 017b 00000000 		.4byte	.LFB37
 2991 017f 38000000 		.4byte	.LFE37
 2992 0183 D4000000 		.4byte	.LLST4
 2993 0187 01       		.byte	0x1
 2994 0188 0D       		.uleb128 0xd
 2995 0189 01       		.byte	0x1
 2996 018a B1050000 		.4byte	.LASF34
 2997 018e 01       		.byte	0x1
 2998 018f DB01     		.2byte	0x1db
 2999 0191 01       		.byte	0x1
 3000 0192 6F000000 		.4byte	0x6f
 3001 0196 00000000 		.4byte	.LFB38
 3002 019a 4C000000 		.4byte	.LFE38
 3003 019e 00010000 		.4byte	.LLST5
 3004 01a2 01       		.byte	0x1
 3005 01a3 C6010000 		.4byte	0x1c6
 3006 01a7 0E       		.uleb128 0xe
 3007 01a8 A8000000 		.4byte	.LASF27
 3008 01ac 01       		.byte	0x1
 3009 01ad DB01     		.2byte	0x1db
 3010 01af 6F000000 		.4byte	0x6f
ARM GAS  C:\DOCUME~1\Chuck\LOCALS~1\Temp\cclVEGdP.s 			page 92


 3011 01b3 02       		.byte	0x2
 3012 01b4 91       		.byte	0x91
 3013 01b5 6F       		.sleb128 -17
 3014 01b6 0B       		.uleb128 0xb
 3015 01b7 BF060000 		.4byte	.LASF25
 3016 01bb 01       		.byte	0x1
 3017 01bc DD01     		.2byte	0x1dd
 3018 01be 85000000 		.4byte	0x85
 3019 01c2 02       		.byte	0x2
 3020 01c3 91       		.byte	0x91
 3021 01c4 74       		.sleb128 -12
 3022 01c5 00       		.byte	0
 3023 01c6 0A       		.uleb128 0xa
 3024 01c7 01       		.byte	0x1
 3025 01c8 00030000 		.4byte	.LASF26
 3026 01cc 01       		.byte	0x1
 3027 01cd 0B02     		.2byte	0x20b
 3028 01cf 01       		.byte	0x1
 3029 01d0 00000000 		.4byte	.LFB39
 3030 01d4 34000000 		.4byte	.LFE39
 3031 01d8 38010000 		.4byte	.LLST6
 3032 01dc 01       		.byte	0x1
 3033 01dd F1010000 		.4byte	0x1f1
 3034 01e1 0E       		.uleb128 0xe
 3035 01e2 18040000 		.4byte	.LASF28
 3036 01e6 01       		.byte	0x1
 3037 01e7 0B02     		.2byte	0x20b
 3038 01e9 85000000 		.4byte	0x85
 3039 01ed 02       		.byte	0x2
 3040 01ee 91       		.byte	0x91
 3041 01ef 74       		.sleb128 -12
 3042 01f0 00       		.byte	0
 3043 01f1 0A       		.uleb128 0xa
 3044 01f2 01       		.byte	0x1
 3045 01f3 B3070000 		.4byte	.LASF29
 3046 01f7 01       		.byte	0x1
 3047 01f8 3202     		.2byte	0x232
 3048 01fa 01       		.byte	0x1
 3049 01fb 00000000 		.4byte	.LFB40
 3050 01ff DC000000 		.4byte	.LFE40
 3051 0203 70010000 		.4byte	.LLST7
 3052 0207 01       		.byte	0x1
 3053 0208 49020000 		.4byte	0x249
 3054 020c 0E       		.uleb128 0xe
 3055 020d 16060000 		.4byte	.LASF30
 3056 0211 01       		.byte	0x1
 3057 0212 3202     		.2byte	0x232
 3058 0214 85000000 		.4byte	0x85
 3059 0218 02       		.byte	0x2
 3060 0219 91       		.byte	0x91
 3061 021a 64       		.sleb128 -28
 3062 021b 0B       		.uleb128 0xb
 3063 021c 75060000 		.4byte	.LASF31
 3064 0220 01       		.byte	0x1
 3065 0221 3402     		.2byte	0x234
 3066 0223 85000000 		.4byte	0x85
 3067 0227 02       		.byte	0x2
ARM GAS  C:\DOCUME~1\Chuck\LOCALS~1\Temp\cclVEGdP.s 			page 93


 3068 0228 91       		.byte	0x91
 3069 0229 74       		.sleb128 -12
 3070 022a 0B       		.uleb128 0xb
 3071 022b E8020000 		.4byte	.LASF32
 3072 022f 01       		.byte	0x1
 3073 0230 3502     		.2byte	0x235
 3074 0232 85000000 		.4byte	0x85
 3075 0236 02       		.byte	0x2
 3076 0237 91       		.byte	0x91
 3077 0238 6C       		.sleb128 -20
 3078 0239 0B       		.uleb128 0xb
 3079 023a A8000000 		.4byte	.LASF27
 3080 023e 01       		.byte	0x1
 3081 023f 3602     		.2byte	0x236
 3082 0241 85000000 		.4byte	0x85
 3083 0245 02       		.byte	0x2
 3084 0246 91       		.byte	0x91
 3085 0247 70       		.sleb128 -16
 3086 0248 00       		.byte	0
 3087 0249 0C       		.uleb128 0xc
 3088 024a 01       		.byte	0x1
 3089 024b 4C080000 		.4byte	.LASF33
 3090 024f 01       		.byte	0x1
 3091 0250 8702     		.2byte	0x287
 3092 0252 01       		.byte	0x1
 3093 0253 00000000 		.4byte	.LFB41
 3094 0257 58000000 		.4byte	.LFE41
 3095 025b A8010000 		.4byte	.LLST8
 3096 025f 01       		.byte	0x1
 3097 0260 0F       		.uleb128 0xf
 3098 0261 01       		.byte	0x1
 3099 0262 C9080000 		.4byte	.LASF66
 3100 0266 01       		.byte	0x1
 3101 0267 B002     		.2byte	0x2b0
 3102 0269 01       		.byte	0x1
 3103 026a 85000000 		.4byte	0x85
 3104 026e 00000000 		.4byte	.LFB42
 3105 0272 1C000000 		.4byte	.LFE42
 3106 0276 D4010000 		.4byte	.LLST9
 3107 027a 01       		.byte	0x1
 3108 027b 10       		.uleb128 0x10
 3109 027c 01       		.byte	0x1
 3110 027d 73010000 		.4byte	.LASF35
 3111 0281 01       		.byte	0x1
 3112 0282 CE02     		.2byte	0x2ce
 3113 0284 01       		.byte	0x1
 3114 0285 7A000000 		.4byte	0x7a
 3115 0289 00000000 		.4byte	.LFB43
 3116 028d 1C000000 		.4byte	.LFE43
 3117 0291 00020000 		.4byte	.LLST10
 3118 0295 01       		.byte	0x1
 3119 0296 AA020000 		.4byte	0x2aa
 3120 029a 0E       		.uleb128 0xe
 3121 029b 18040000 		.4byte	.LASF28
 3122 029f 01       		.byte	0x1
 3123 02a0 CE02     		.2byte	0x2ce
 3124 02a2 85000000 		.4byte	0x85
ARM GAS  C:\DOCUME~1\Chuck\LOCALS~1\Temp\cclVEGdP.s 			page 94


 3125 02a6 02       		.byte	0x2
 3126 02a7 91       		.byte	0x91
 3127 02a8 74       		.sleb128 -12
 3128 02a9 00       		.byte	0
 3129 02aa 11       		.uleb128 0x11
 3130 02ab 01       		.byte	0x1
 3131 02ac 7B070000 		.4byte	.LASF36
 3132 02b0 01       		.byte	0x1
 3133 02b1 E902     		.2byte	0x2e9
 3134 02b3 01       		.byte	0x1
 3135 02b4 00000000 		.4byte	.LFB44
 3136 02b8 24000000 		.4byte	.LFE44
 3137 02bc 38020000 		.4byte	.LLST11
 3138 02c0 01       		.byte	0x1
 3139 02c1 E4020000 		.4byte	0x2e4
 3140 02c5 0E       		.uleb128 0xe
 3141 02c6 18040000 		.4byte	.LASF28
 3142 02ca 01       		.byte	0x1
 3143 02cb E902     		.2byte	0x2e9
 3144 02cd 85000000 		.4byte	0x85
 3145 02d1 02       		.byte	0x2
 3146 02d2 91       		.byte	0x91
 3147 02d3 74       		.sleb128 -12
 3148 02d4 0E       		.uleb128 0xe
 3149 02d5 E2020000 		.4byte	.LASF37
 3150 02d9 01       		.byte	0x1
 3151 02da E902     		.2byte	0x2e9
 3152 02dc 7A000000 		.4byte	0x7a
 3153 02e0 02       		.byte	0x2
 3154 02e1 91       		.byte	0x91
 3155 02e2 72       		.sleb128 -14
 3156 02e3 00       		.byte	0
 3157 02e4 11       		.uleb128 0x11
 3158 02e5 01       		.byte	0x1
 3159 02e6 FB010000 		.4byte	.LASF38
 3160 02ea 01       		.byte	0x1
 3161 02eb 1303     		.2byte	0x313
 3162 02ed 01       		.byte	0x1
 3163 02ee 00000000 		.4byte	.LFB45
 3164 02f2 20000000 		.4byte	.LFE45
 3165 02f6 70020000 		.4byte	.LLST12
 3166 02fa 01       		.byte	0x1
 3167 02fb 1E030000 		.4byte	0x31e
 3168 02ff 0E       		.uleb128 0xe
 3169 0300 16060000 		.4byte	.LASF30
 3170 0304 01       		.byte	0x1
 3171 0305 1303     		.2byte	0x313
 3172 0307 85000000 		.4byte	0x85
 3173 030b 02       		.byte	0x2
 3174 030c 91       		.byte	0x91
 3175 030d 74       		.sleb128 -12
 3176 030e 0E       		.uleb128 0xe
 3177 030f 90060000 		.4byte	.LASF39
 3178 0313 01       		.byte	0x1
 3179 0314 1303     		.2byte	0x313
 3180 0316 85000000 		.4byte	0x85
 3181 031a 02       		.byte	0x2
ARM GAS  C:\DOCUME~1\Chuck\LOCALS~1\Temp\cclVEGdP.s 			page 95


 3182 031b 91       		.byte	0x91
 3183 031c 70       		.sleb128 -16
 3184 031d 00       		.byte	0
 3185 031e 10       		.uleb128 0x10
 3186 031f 01       		.byte	0x1
 3187 0320 E2000000 		.4byte	.LASF40
 3188 0324 01       		.byte	0x1
 3189 0325 3C03     		.2byte	0x33c
 3190 0327 01       		.byte	0x1
 3191 0328 85000000 		.4byte	0x85
 3192 032c 00000000 		.4byte	.LFB46
 3193 0330 1C000000 		.4byte	.LFE46
 3194 0334 A8020000 		.4byte	.LLST13
 3195 0338 01       		.byte	0x1
 3196 0339 4D030000 		.4byte	0x34d
 3197 033d 0E       		.uleb128 0xe
 3198 033e 16060000 		.4byte	.LASF30
 3199 0342 01       		.byte	0x1
 3200 0343 3C03     		.2byte	0x33c
 3201 0345 85000000 		.4byte	0x85
 3202 0349 02       		.byte	0x2
 3203 034a 91       		.byte	0x91
 3204 034b 74       		.sleb128 -12
 3205 034c 00       		.byte	0
 3206 034d 0A       		.uleb128 0xa
 3207 034e 01       		.byte	0x1
 3208 034f 2A030000 		.4byte	.LASF41
 3209 0353 01       		.byte	0x1
 3210 0354 5703     		.2byte	0x357
 3211 0356 01       		.byte	0x1
 3212 0357 00000000 		.4byte	.LFB47
 3213 035b 26000000 		.4byte	.LFE47
 3214 035f E0020000 		.4byte	.LLST14
 3215 0363 01       		.byte	0x1
 3216 0364 78030000 		.4byte	0x378
 3217 0368 0B       		.uleb128 0xb
 3218 0369 A8000000 		.4byte	.LASF27
 3219 036d 01       		.byte	0x1
 3220 036e 5903     		.2byte	0x359
 3221 0370 85000000 		.4byte	0x85
 3222 0374 02       		.byte	0x2
 3223 0375 91       		.byte	0x91
 3224 0376 74       		.sleb128 -12
 3225 0377 00       		.byte	0
 3226 0378 0A       		.uleb128 0xa
 3227 0379 01       		.byte	0x1
 3228 037a 34020000 		.4byte	.LASF42
 3229 037e 01       		.byte	0x1
 3230 037f F503     		.2byte	0x3f5
 3231 0381 01       		.byte	0x1
 3232 0382 00000000 		.4byte	.LFB48
 3233 0386 CC000000 		.4byte	.LFE48
 3234 038a 18030000 		.4byte	.LLST15
 3235 038e 01       		.byte	0x1
 3236 038f EE030000 		.4byte	0x3ee
 3237 0393 0E       		.uleb128 0xe
 3238 0394 18040000 		.4byte	.LASF28
ARM GAS  C:\DOCUME~1\Chuck\LOCALS~1\Temp\cclVEGdP.s 			page 96


 3239 0398 01       		.byte	0x1
 3240 0399 F503     		.2byte	0x3f5
 3241 039b 85000000 		.4byte	0x85
 3242 039f 02       		.byte	0x2
 3243 03a0 91       		.byte	0x91
 3244 03a1 5C       		.sleb128 -36
 3245 03a2 0B       		.uleb128 0xb
 3246 03a3 8A010000 		.4byte	.LASF43
 3247 03a7 01       		.byte	0x1
 3248 03a8 F703     		.2byte	0x3f7
 3249 03aa 6F000000 		.4byte	0x6f
 3250 03ae 02       		.byte	0x2
 3251 03af 91       		.byte	0x91
 3252 03b0 6B       		.sleb128 -21
 3253 03b1 0B       		.uleb128 0xb
 3254 03b2 D7050000 		.4byte	.LASF44
 3255 03b6 01       		.byte	0x1
 3256 03b7 F803     		.2byte	0x3f8
 3257 03b9 6F000000 		.4byte	0x6f
 3258 03bd 02       		.byte	0x2
 3259 03be 91       		.byte	0x91
 3260 03bf 6A       		.sleb128 -22
 3261 03c0 0B       		.uleb128 0xb
 3262 03c1 DD010000 		.4byte	.LASF45
 3263 03c5 01       		.byte	0x1
 3264 03c6 F903     		.2byte	0x3f9
 3265 03c8 6F000000 		.4byte	0x6f
 3266 03cc 02       		.byte	0x2
 3267 03cd 91       		.byte	0x91
 3268 03ce 69       		.sleb128 -23
 3269 03cf 0B       		.uleb128 0xb
 3270 03d0 DE070000 		.4byte	.LASF46
 3271 03d4 01       		.byte	0x1
 3272 03d5 FA03     		.2byte	0x3fa
 3273 03d7 85000000 		.4byte	0x85
 3274 03db 02       		.byte	0x2
 3275 03dc 91       		.byte	0x91
 3276 03dd 64       		.sleb128 -28
 3277 03de 0B       		.uleb128 0xb
 3278 03df C8020000 		.4byte	.LASF47
 3279 03e3 01       		.byte	0x1
 3280 03e4 FB03     		.2byte	0x3fb
 3281 03e6 85000000 		.4byte	0x85
 3282 03ea 02       		.byte	0x2
 3283 03eb 91       		.byte	0x91
 3284 03ec 6C       		.sleb128 -20
 3285 03ed 00       		.byte	0
 3286 03ee 0A       		.uleb128 0xa
 3287 03ef 01       		.byte	0x1
 3288 03f0 C7070000 		.4byte	.LASF48
 3289 03f4 01       		.byte	0x1
 3290 03f5 2A04     		.2byte	0x42a
 3291 03f7 01       		.byte	0x1
 3292 03f8 00000000 		.4byte	.LFB49
 3293 03fc 24010000 		.4byte	.LFE49
 3294 0400 50030000 		.4byte	.LLST16
 3295 0404 01       		.byte	0x1
ARM GAS  C:\DOCUME~1\Chuck\LOCALS~1\Temp\cclVEGdP.s 			page 97


 3296 0405 82040000 		.4byte	0x482
 3297 0409 0E       		.uleb128 0xe
 3298 040a 18040000 		.4byte	.LASF28
 3299 040e 01       		.byte	0x1
 3300 040f 2A04     		.2byte	0x42a
 3301 0411 85000000 		.4byte	0x85
 3302 0415 02       		.byte	0x2
 3303 0416 91       		.byte	0x91
 3304 0417 54       		.sleb128 -44
 3305 0418 0B       		.uleb128 0xb
 3306 0419 DD010000 		.4byte	.LASF45
 3307 041d 01       		.byte	0x1
 3308 041e 2C04     		.2byte	0x42c
 3309 0420 6F000000 		.4byte	0x6f
 3310 0424 02       		.byte	0x2
 3311 0425 91       		.byte	0x91
 3312 0426 61       		.sleb128 -31
 3313 0427 0B       		.uleb128 0xb
 3314 0428 DE070000 		.4byte	.LASF46
 3315 042c 01       		.byte	0x1
 3316 042d 2D04     		.2byte	0x42d
 3317 042f 85000000 		.4byte	0x85
 3318 0433 02       		.byte	0x2
 3319 0434 91       		.byte	0x91
 3320 0435 5C       		.sleb128 -36
 3321 0436 0B       		.uleb128 0xb
 3322 0437 C8020000 		.4byte	.LASF47
 3323 043b 01       		.byte	0x1
 3324 043c 2F04     		.2byte	0x42f
 3325 043e 85000000 		.4byte	0x85
 3326 0442 02       		.byte	0x2
 3327 0443 91       		.byte	0x91
 3328 0444 64       		.sleb128 -28
 3329 0445 0B       		.uleb128 0xb
 3330 0446 D7050000 		.4byte	.LASF44
 3331 044a 01       		.byte	0x1
 3332 044b 3004     		.2byte	0x430
 3333 044d 6F000000 		.4byte	0x6f
 3334 0451 02       		.byte	0x2
 3335 0452 91       		.byte	0x91
 3336 0453 63       		.sleb128 -29
 3337 0454 0B       		.uleb128 0xb
 3338 0455 8A010000 		.4byte	.LASF43
 3339 0459 01       		.byte	0x1
 3340 045a 3104     		.2byte	0x431
 3341 045c 6F000000 		.4byte	0x6f
 3342 0460 02       		.byte	0x2
 3343 0461 91       		.byte	0x91
 3344 0462 62       		.sleb128 -30
 3345 0463 0B       		.uleb128 0xb
 3346 0464 16020000 		.4byte	.LASF49
 3347 0468 01       		.byte	0x1
 3348 0469 3304     		.2byte	0x433
 3349 046b 85000000 		.4byte	0x85
 3350 046f 02       		.byte	0x2
 3351 0470 91       		.byte	0x91
 3352 0471 6C       		.sleb128 -20
ARM GAS  C:\DOCUME~1\Chuck\LOCALS~1\Temp\cclVEGdP.s 			page 98


 3353 0472 0B       		.uleb128 0xb
 3354 0473 1D060000 		.4byte	.LASF50
 3355 0477 01       		.byte	0x1
 3356 0478 3404     		.2byte	0x434
 3357 047a 85000000 		.4byte	0x85
 3358 047e 02       		.byte	0x2
 3359 047f 91       		.byte	0x91
 3360 0480 68       		.sleb128 -24
 3361 0481 00       		.byte	0
 3362 0482 0A       		.uleb128 0xa
 3363 0483 01       		.byte	0x1
 3364 0484 A3030000 		.4byte	.LASF51
 3365 0488 01       		.byte	0x1
 3366 0489 7704     		.2byte	0x477
 3367 048b 01       		.byte	0x1
 3368 048c 00000000 		.4byte	.LFB50
 3369 0490 58000000 		.4byte	.LFE50
 3370 0494 88030000 		.4byte	.LLST17
 3371 0498 01       		.byte	0x1
 3372 0499 DA040000 		.4byte	0x4da
 3373 049d 0E       		.uleb128 0xe
 3374 049e B0040000 		.4byte	.LASF52
 3375 04a2 01       		.byte	0x1
 3376 04a3 7704     		.2byte	0x477
 3377 04a5 85000000 		.4byte	0x85
 3378 04a9 02       		.byte	0x2
 3379 04aa 91       		.byte	0x91
 3380 04ab 64       		.sleb128 -28
 3381 04ac 0B       		.uleb128 0xb
 3382 04ad 00000000 		.4byte	.LASF20
 3383 04b1 01       		.byte	0x1
 3384 04b2 7904     		.2byte	0x479
 3385 04b4 85000000 		.4byte	0x85
 3386 04b8 02       		.byte	0x2
 3387 04b9 91       		.byte	0x91
 3388 04ba 74       		.sleb128 -12
 3389 04bb 0B       		.uleb128 0xb
 3390 04bc F3020000 		.4byte	.LASF53
 3391 04c0 01       		.byte	0x1
 3392 04c1 7A04     		.2byte	0x47a
 3393 04c3 85000000 		.4byte	0x85
 3394 04c7 02       		.byte	0x2
 3395 04c8 91       		.byte	0x91
 3396 04c9 70       		.sleb128 -16
 3397 04ca 0B       		.uleb128 0xb
 3398 04cb E5050000 		.4byte	.LASF54
 3399 04cf 01       		.byte	0x1
 3400 04d0 7B04     		.2byte	0x47b
 3401 04d2 85000000 		.4byte	0x85
 3402 04d6 02       		.byte	0x2
 3403 04d7 91       		.byte	0x91
 3404 04d8 6C       		.sleb128 -20
 3405 04d9 00       		.byte	0
 3406 04da 0A       		.uleb128 0xa
 3407 04db 01       		.byte	0x1
 3408 04dc 04050000 		.4byte	.LASF55
 3409 04e0 01       		.byte	0x1
ARM GAS  C:\DOCUME~1\Chuck\LOCALS~1\Temp\cclVEGdP.s 			page 99


 3410 04e1 A704     		.2byte	0x4a7
 3411 04e3 01       		.byte	0x1
 3412 04e4 00000000 		.4byte	.LFB51
 3413 04e8 38000000 		.4byte	.LFE51
 3414 04ec C0030000 		.4byte	.LLST18
 3415 04f0 01       		.byte	0x1
 3416 04f1 05050000 		.4byte	0x505
 3417 04f5 0B       		.uleb128 0xb
 3418 04f6 DE070000 		.4byte	.LASF46
 3419 04fa 01       		.byte	0x1
 3420 04fb A904     		.2byte	0x4a9
 3421 04fd 85000000 		.4byte	0x85
 3422 0501 02       		.byte	0x2
 3423 0502 91       		.byte	0x91
 3424 0503 74       		.sleb128 -12
 3425 0504 00       		.byte	0
 3426 0505 11       		.uleb128 0x11
 3427 0506 01       		.byte	0x1
 3428 0507 C4010000 		.4byte	.LASF56
 3429 050b 01       		.byte	0x1
 3430 050c DB04     		.2byte	0x4db
 3431 050e 01       		.byte	0x1
 3432 050f 00000000 		.4byte	.LFB52
 3433 0513 5C000000 		.4byte	.LFE52
 3434 0517 F8030000 		.4byte	.LLST19
 3435 051b 01       		.byte	0x1
 3436 051c 6C050000 		.4byte	0x56c
 3437 0520 0E       		.uleb128 0xe
 3438 0521 B0040000 		.4byte	.LASF52
 3439 0525 01       		.byte	0x1
 3440 0526 DB04     		.2byte	0x4db
 3441 0528 85000000 		.4byte	0x85
 3442 052c 02       		.byte	0x2
 3443 052d 91       		.byte	0x91
 3444 052e 6C       		.sleb128 -20
 3445 052f 0E       		.uleb128 0xe
 3446 0530 2B050000 		.4byte	.LASF57
 3447 0534 01       		.byte	0x1
 3448 0535 DB04     		.2byte	0x4db
 3449 0537 85000000 		.4byte	0x85
 3450 053b 02       		.byte	0x2
 3451 053c 91       		.byte	0x91
 3452 053d 68       		.sleb128 -24
 3453 053e 0E       		.uleb128 0xe
 3454 053f 39040000 		.4byte	.LASF58
 3455 0543 01       		.byte	0x1
 3456 0544 DB04     		.2byte	0x4db
 3457 0546 85000000 		.4byte	0x85
 3458 054a 02       		.byte	0x2
 3459 054b 91       		.byte	0x91
 3460 054c 64       		.sleb128 -28
 3461 054d 0B       		.uleb128 0xb
 3462 054e 8A010000 		.4byte	.LASF43
 3463 0552 01       		.byte	0x1
 3464 0553 DD04     		.2byte	0x4dd
 3465 0555 85000000 		.4byte	0x85
 3466 0559 02       		.byte	0x2
ARM GAS  C:\DOCUME~1\Chuck\LOCALS~1\Temp\cclVEGdP.s 			page 100


 3467 055a 91       		.byte	0x91
 3468 055b 74       		.sleb128 -12
 3469 055c 0B       		.uleb128 0xb
 3470 055d DE070000 		.4byte	.LASF46
 3471 0561 01       		.byte	0x1
 3472 0562 DE04     		.2byte	0x4de
 3473 0564 85000000 		.4byte	0x85
 3474 0568 02       		.byte	0x2
 3475 0569 91       		.byte	0x91
 3476 056a 70       		.sleb128 -16
 3477 056b 00       		.byte	0
 3478 056c 0A       		.uleb128 0xa
 3479 056d 01       		.byte	0x1
 3480 056e 05080000 		.4byte	.LASF59
 3481 0572 01       		.byte	0x1
 3482 0573 FF04     		.2byte	0x4ff
 3483 0575 01       		.byte	0x1
 3484 0576 00000000 		.4byte	.LFB53
 3485 057a 3C010000 		.4byte	.LFE53
 3486 057e 30040000 		.4byte	.LLST20
 3487 0582 01       		.byte	0x1
 3488 0583 E2050000 		.4byte	0x5e2
 3489 0587 0E       		.uleb128 0xe
 3490 0588 18040000 		.4byte	.LASF28
 3491 058c 01       		.byte	0x1
 3492 058d FF04     		.2byte	0x4ff
 3493 058f 85000000 		.4byte	0x85
 3494 0593 02       		.byte	0x2
 3495 0594 91       		.byte	0x91
 3496 0595 54       		.sleb128 -44
 3497 0596 0B       		.uleb128 0xb
 3498 0597 16060000 		.4byte	.LASF30
 3499 059b 01       		.byte	0x1
 3500 059c 0105     		.2byte	0x501
 3501 059e 6F000000 		.4byte	0x6f
 3502 05a2 02       		.byte	0x2
 3503 05a3 91       		.byte	0x91
 3504 05a4 6B       		.sleb128 -21
 3505 05a5 0B       		.uleb128 0xb
 3506 05a6 DD010000 		.4byte	.LASF45
 3507 05aa 01       		.byte	0x1
 3508 05ab 0205     		.2byte	0x502
 3509 05ad 6F000000 		.4byte	0x6f
 3510 05b1 02       		.byte	0x2
 3511 05b2 91       		.byte	0x91
 3512 05b3 5F       		.sleb128 -33
 3513 05b4 0B       		.uleb128 0xb
 3514 05b5 8D020000 		.4byte	.LASF21
 3515 05b9 01       		.byte	0x1
 3516 05ba 0305     		.2byte	0x503
 3517 05bc 85000000 		.4byte	0x85
 3518 05c0 02       		.byte	0x2
 3519 05c1 91       		.byte	0x91
 3520 05c2 60       		.sleb128 -32
 3521 05c3 0B       		.uleb128 0xb
 3522 05c4 65020000 		.4byte	.LASF60
 3523 05c8 01       		.byte	0x1
ARM GAS  C:\DOCUME~1\Chuck\LOCALS~1\Temp\cclVEGdP.s 			page 101


 3524 05c9 0405     		.2byte	0x504
 3525 05cb 85000000 		.4byte	0x85
 3526 05cf 02       		.byte	0x2
 3527 05d0 91       		.byte	0x91
 3528 05d1 6C       		.sleb128 -20
 3529 05d2 0B       		.uleb128 0xb
 3530 05d3 62060000 		.4byte	.LASF61
 3531 05d7 01       		.byte	0x1
 3532 05d8 0D05     		.2byte	0x50d
 3533 05da 85000000 		.4byte	0x85
 3534 05de 02       		.byte	0x2
 3535 05df 91       		.byte	0x91
 3536 05e0 64       		.sleb128 -28
 3537 05e1 00       		.byte	0
 3538 05e2 0A       		.uleb128 0xa
 3539 05e3 01       		.byte	0x1
 3540 05e4 33070000 		.4byte	.LASF62
 3541 05e8 01       		.byte	0x1
 3542 05e9 B705     		.2byte	0x5b7
 3543 05eb 01       		.byte	0x1
 3544 05ec 00000000 		.4byte	.LFB54
 3545 05f0 C8000000 		.4byte	.LFE54
 3546 05f4 68040000 		.4byte	.LLST21
 3547 05f8 01       		.byte	0x1
 3548 05f9 3A060000 		.4byte	0x63a
 3549 05fd 0E       		.uleb128 0xe
 3550 05fe 18040000 		.4byte	.LASF28
 3551 0602 01       		.byte	0x1
 3552 0603 B705     		.2byte	0x5b7
 3553 0605 85000000 		.4byte	0x85
 3554 0609 02       		.byte	0x2
 3555 060a 91       		.byte	0x91
 3556 060b 64       		.sleb128 -28
 3557 060c 0B       		.uleb128 0xb
 3558 060d 8D020000 		.4byte	.LASF21
 3559 0611 01       		.byte	0x1
 3560 0612 B905     		.2byte	0x5b9
 3561 0614 85000000 		.4byte	0x85
 3562 0618 02       		.byte	0x2
 3563 0619 91       		.byte	0x91
 3564 061a 6C       		.sleb128 -20
 3565 061b 0B       		.uleb128 0xb
 3566 061c 62060000 		.4byte	.LASF61
 3567 0620 01       		.byte	0x1
 3568 0621 BC05     		.2byte	0x5bc
 3569 0623 85000000 		.4byte	0x85
 3570 0627 02       		.byte	0x2
 3571 0628 91       		.byte	0x91
 3572 0629 70       		.sleb128 -16
 3573 062a 0B       		.uleb128 0xb
 3574 062b 16060000 		.4byte	.LASF30
 3575 062f 01       		.byte	0x1
 3576 0630 BD05     		.2byte	0x5bd
 3577 0632 85000000 		.4byte	0x85
 3578 0636 02       		.byte	0x2
 3579 0637 91       		.byte	0x91
 3580 0638 74       		.sleb128 -12
ARM GAS  C:\DOCUME~1\Chuck\LOCALS~1\Temp\cclVEGdP.s 			page 102


 3581 0639 00       		.byte	0
 3582 063a 11       		.uleb128 0x11
 3583 063b 01       		.byte	0x1
 3584 063c 9B060000 		.4byte	.LASF63
 3585 0640 01       		.byte	0x1
 3586 0641 1106     		.2byte	0x611
 3587 0643 01       		.byte	0x1
 3588 0644 00000000 		.4byte	.LFB55
 3589 0648 80000000 		.4byte	.LFE55
 3590 064c A0040000 		.4byte	.LLST22
 3591 0650 01       		.byte	0x1
 3592 0651 83060000 		.4byte	0x683
 3593 0655 0E       		.uleb128 0xe
 3594 0656 2B050000 		.4byte	.LASF57
 3595 065a 01       		.byte	0x1
 3596 065b 1106     		.2byte	0x611
 3597 065d 85000000 		.4byte	0x85
 3598 0661 02       		.byte	0x2
 3599 0662 91       		.byte	0x91
 3600 0663 64       		.sleb128 -28
 3601 0664 0E       		.uleb128 0xe
 3602 0665 39040000 		.4byte	.LASF58
 3603 0669 01       		.byte	0x1
 3604 066a 1106     		.2byte	0x611
 3605 066c 85000000 		.4byte	0x85
 3606 0670 02       		.byte	0x2
 3607 0671 91       		.byte	0x91
 3608 0672 60       		.sleb128 -32
 3609 0673 0B       		.uleb128 0xb
 3610 0674 8D020000 		.4byte	.LASF21
 3611 0678 01       		.byte	0x1
 3612 0679 1306     		.2byte	0x613
 3613 067b 85000000 		.4byte	0x85
 3614 067f 02       		.byte	0x2
 3615 0680 91       		.byte	0x91
 3616 0681 6C       		.sleb128 -20
 3617 0682 00       		.byte	0
 3618 0683 11       		.uleb128 0x11
 3619 0684 01       		.byte	0x1
 3620 0685 88080000 		.4byte	.LASF64
 3621 0689 01       		.byte	0x1
 3622 068a 3406     		.2byte	0x634
 3623 068c 01       		.byte	0x1
 3624 068d 00000000 		.4byte	.LFB56
 3625 0691 30000000 		.4byte	.LFE56
 3626 0695 D8040000 		.4byte	.LLST23
 3627 0699 01       		.byte	0x1
 3628 069a BD060000 		.4byte	0x6bd
 3629 069e 0E       		.uleb128 0xe
 3630 069f 5D010000 		.4byte	.LASF65
 3631 06a3 01       		.byte	0x1
 3632 06a4 3406     		.2byte	0x634
 3633 06a6 85000000 		.4byte	0x85
 3634 06aa 02       		.byte	0x2
 3635 06ab 91       		.byte	0x91
 3636 06ac 6C       		.sleb128 -20
 3637 06ad 0B       		.uleb128 0xb
ARM GAS  C:\DOCUME~1\Chuck\LOCALS~1\Temp\cclVEGdP.s 			page 103


 3638 06ae 8D020000 		.4byte	.LASF21
 3639 06b2 01       		.byte	0x1
 3640 06b3 3606     		.2byte	0x636
 3641 06b5 85000000 		.4byte	0x85
 3642 06b9 02       		.byte	0x2
 3643 06ba 91       		.byte	0x91
 3644 06bb 74       		.sleb128 -12
 3645 06bc 00       		.byte	0
 3646 06bd 0F       		.uleb128 0xf
 3647 06be 01       		.byte	0x1
 3648 06bf 3F060000 		.4byte	.LASF67
 3649 06c3 01       		.byte	0x1
 3650 06c4 5806     		.2byte	0x658
 3651 06c6 01       		.byte	0x1
 3652 06c7 85000000 		.4byte	0x85
 3653 06cb 00000000 		.4byte	.LFB57
 3654 06cf 2C000000 		.4byte	.LFE57
 3655 06d3 10050000 		.4byte	.LLST24
 3656 06d7 01       		.byte	0x1
 3657 06d8 10       		.uleb128 0x10
 3658 06d9 01       		.byte	0x1
 3659 06da 37080000 		.4byte	.LASF68
 3660 06de 01       		.byte	0x1
 3661 06df 7406     		.2byte	0x674
 3662 06e1 01       		.byte	0x1
 3663 06e2 85000000 		.4byte	0x85
 3664 06e6 00000000 		.4byte	.LFB58
 3665 06ea 44000000 		.4byte	.LFE58
 3666 06ee 3C050000 		.4byte	.LLST25
 3667 06f2 01       		.byte	0x1
 3668 06f3 34070000 		.4byte	0x734
 3669 06f7 0E       		.uleb128 0xe
 3670 06f8 86000000 		.4byte	.LASF69
 3671 06fc 01       		.byte	0x1
 3672 06fd 7406     		.2byte	0x674
 3673 06ff D2000000 		.4byte	0xd2
 3674 0703 02       		.byte	0x2
 3675 0704 91       		.byte	0x91
 3676 0705 6C       		.sleb128 -20
 3677 0706 0E       		.uleb128 0xe
 3678 0707 21030000 		.4byte	.LASF70
 3679 070b 01       		.byte	0x1
 3680 070c 7406     		.2byte	0x674
 3681 070e 85000000 		.4byte	0x85
 3682 0712 02       		.byte	0x2
 3683 0713 91       		.byte	0x91
 3684 0714 68       		.sleb128 -24
 3685 0715 0B       		.uleb128 0xb
 3686 0716 C1020000 		.4byte	.LASF71
 3687 071a 01       		.byte	0x1
 3688 071b 7606     		.2byte	0x676
 3689 071d 85000000 		.4byte	0x85
 3690 0721 02       		.byte	0x2
 3691 0722 91       		.byte	0x91
 3692 0723 74       		.sleb128 -12
 3693 0724 0B       		.uleb128 0xb
 3694 0725 C8040000 		.4byte	.LASF72
ARM GAS  C:\DOCUME~1\Chuck\LOCALS~1\Temp\cclVEGdP.s 			page 104


 3695 0729 01       		.byte	0x1
 3696 072a 7706     		.2byte	0x677
 3697 072c 6F000000 		.4byte	0x6f
 3698 0730 02       		.byte	0x2
 3699 0731 91       		.byte	0x91
 3700 0732 73       		.sleb128 -13
 3701 0733 00       		.byte	0
 3702 0734 11       		.uleb128 0x11
 3703 0735 01       		.byte	0x1
 3704 0736 E1040000 		.4byte	.LASF73
 3705 073a 01       		.byte	0x1
 3706 073b 9F06     		.2byte	0x69f
 3707 073d 01       		.byte	0x1
 3708 073e 00000000 		.4byte	.LFB59
 3709 0742 68000000 		.4byte	.LFE59
 3710 0746 74050000 		.4byte	.LLST26
 3711 074a 01       		.byte	0x1
 3712 074b 9B070000 		.4byte	0x79b
 3713 074f 0E       		.uleb128 0xe
 3714 0750 86000000 		.4byte	.LASF69
 3715 0754 01       		.byte	0x1
 3716 0755 9F06     		.2byte	0x69f
 3717 0757 CC000000 		.4byte	0xcc
 3718 075b 02       		.byte	0x2
 3719 075c 91       		.byte	0x91
 3720 075d 6C       		.sleb128 -20
 3721 075e 0E       		.uleb128 0xe
 3722 075f 21030000 		.4byte	.LASF70
 3723 0763 01       		.byte	0x1
 3724 0764 9F06     		.2byte	0x69f
 3725 0766 85000000 		.4byte	0x85
 3726 076a 02       		.byte	0x2
 3727 076b 91       		.byte	0x91
 3728 076c 68       		.sleb128 -24
 3729 076d 0E       		.uleb128 0xe
 3730 076e E2020000 		.4byte	.LASF37
 3731 0772 01       		.byte	0x1
 3732 0773 9F06     		.2byte	0x69f
 3733 0775 85000000 		.4byte	0x85
 3734 0779 02       		.byte	0x2
 3735 077a 91       		.byte	0x91
 3736 077b 64       		.sleb128 -28
 3737 077c 0B       		.uleb128 0xb
 3738 077d C1020000 		.4byte	.LASF71
 3739 0781 01       		.byte	0x1
 3740 0782 A106     		.2byte	0x6a1
 3741 0784 85000000 		.4byte	0x85
 3742 0788 02       		.byte	0x2
 3743 0789 91       		.byte	0x91
 3744 078a 74       		.sleb128 -12
 3745 078b 0B       		.uleb128 0xb
 3746 078c C8040000 		.4byte	.LASF72
 3747 0790 01       		.byte	0x1
 3748 0791 A206     		.2byte	0x6a2
 3749 0793 6F000000 		.4byte	0x6f
 3750 0797 02       		.byte	0x2
 3751 0798 91       		.byte	0x91
ARM GAS  C:\DOCUME~1\Chuck\LOCALS~1\Temp\cclVEGdP.s 			page 105


 3752 0799 73       		.sleb128 -13
 3753 079a 00       		.byte	0
 3754 079b 10       		.uleb128 0x10
 3755 079c 01       		.byte	0x1
 3756 079d AD080000 		.4byte	.LASF74
 3757 07a1 01       		.byte	0x1
 3758 07a2 D106     		.2byte	0x6d1
 3759 07a4 01       		.byte	0x1
 3760 07a5 85000000 		.4byte	0x85
 3761 07a9 00000000 		.4byte	.LFB60
 3762 07ad 1C000000 		.4byte	.LFE60
 3763 07b1 AC050000 		.4byte	.LLST27
 3764 07b5 01       		.byte	0x1
 3765 07b6 CA070000 		.4byte	0x7ca
 3766 07ba 0E       		.uleb128 0xe
 3767 07bb 18040000 		.4byte	.LASF28
 3768 07bf 01       		.byte	0x1
 3769 07c0 D106     		.2byte	0x6d1
 3770 07c2 85000000 		.4byte	0x85
 3771 07c6 02       		.byte	0x2
 3772 07c7 91       		.byte	0x91
 3773 07c8 74       		.sleb128 -12
 3774 07c9 00       		.byte	0
 3775 07ca 11       		.uleb128 0x11
 3776 07cb 01       		.byte	0x1
 3777 07cc 48000000 		.4byte	.LASF75
 3778 07d0 01       		.byte	0x1
 3779 07d1 F006     		.2byte	0x6f0
 3780 07d3 01       		.byte	0x1
 3781 07d4 00000000 		.4byte	.LFB61
 3782 07d8 20000000 		.4byte	.LFE61
 3783 07dc E4050000 		.4byte	.LLST28
 3784 07e0 01       		.byte	0x1
 3785 07e1 04080000 		.4byte	0x804
 3786 07e5 0E       		.uleb128 0xe
 3787 07e6 18040000 		.4byte	.LASF28
 3788 07ea 01       		.byte	0x1
 3789 07eb F006     		.2byte	0x6f0
 3790 07ed 85000000 		.4byte	0x85
 3791 07f1 02       		.byte	0x2
 3792 07f2 91       		.byte	0x91
 3793 07f3 74       		.sleb128 -12
 3794 07f4 0E       		.uleb128 0xe
 3795 07f5 44040000 		.4byte	.LASF76
 3796 07f9 01       		.byte	0x1
 3797 07fa F006     		.2byte	0x6f0
 3798 07fc 85000000 		.4byte	0x85
 3799 0800 02       		.byte	0x2
 3800 0801 91       		.byte	0x91
 3801 0802 70       		.sleb128 -16
 3802 0803 00       		.byte	0
 3803 0804 10       		.uleb128 0x10
 3804 0805 01       		.byte	0x1
 3805 0806 68080000 		.4byte	.LASF77
 3806 080a 01       		.byte	0x1
 3807 080b 1007     		.2byte	0x710
 3808 080d 01       		.byte	0x1
ARM GAS  C:\DOCUME~1\Chuck\LOCALS~1\Temp\cclVEGdP.s 			page 106


 3809 080e 85000000 		.4byte	0x85
 3810 0812 00000000 		.4byte	.LFB62
 3811 0816 1C000000 		.4byte	.LFE62
 3812 081a 1C060000 		.4byte	.LLST29
 3813 081e 01       		.byte	0x1
 3814 081f 33080000 		.4byte	0x833
 3815 0823 0E       		.uleb128 0xe
 3816 0824 18040000 		.4byte	.LASF28
 3817 0828 01       		.byte	0x1
 3818 0829 1007     		.2byte	0x710
 3819 082b 85000000 		.4byte	0x85
 3820 082f 02       		.byte	0x2
 3821 0830 91       		.byte	0x91
 3822 0831 74       		.sleb128 -12
 3823 0832 00       		.byte	0
 3824 0833 11       		.uleb128 0x11
 3825 0834 01       		.byte	0x1
 3826 0835 93070000 		.4byte	.LASF78
 3827 0839 01       		.byte	0x1
 3828 083a 2F07     		.2byte	0x72f
 3829 083c 01       		.byte	0x1
 3830 083d 00000000 		.4byte	.LFB63
 3831 0841 20000000 		.4byte	.LFE63
 3832 0845 54060000 		.4byte	.LLST30
 3833 0849 01       		.byte	0x1
 3834 084a 6D080000 		.4byte	0x86d
 3835 084e 0E       		.uleb128 0xe
 3836 084f 18040000 		.4byte	.LASF28
 3837 0853 01       		.byte	0x1
 3838 0854 2F07     		.2byte	0x72f
 3839 0856 85000000 		.4byte	0x85
 3840 085a 02       		.byte	0x2
 3841 085b 91       		.byte	0x91
 3842 085c 74       		.sleb128 -12
 3843 085d 0E       		.uleb128 0xe
 3844 085e 50010000 		.4byte	.LASF79
 3845 0862 01       		.byte	0x1
 3846 0863 2F07     		.2byte	0x72f
 3847 0865 85000000 		.4byte	0x85
 3848 0869 02       		.byte	0x2
 3849 086a 91       		.byte	0x91
 3850 086b 70       		.sleb128 -16
 3851 086c 00       		.byte	0
 3852 086d 10       		.uleb128 0x10
 3853 086e 01       		.byte	0x1
 3854 086f C7000000 		.4byte	.LASF80
 3855 0873 01       		.byte	0x1
 3856 0874 4E07     		.2byte	0x74e
 3857 0876 01       		.byte	0x1
 3858 0877 85000000 		.4byte	0x85
 3859 087b 00000000 		.4byte	.LFB64
 3860 087f 1C000000 		.4byte	.LFE64
 3861 0883 8C060000 		.4byte	.LLST31
 3862 0887 01       		.byte	0x1
 3863 0888 9C080000 		.4byte	0x89c
 3864 088c 0E       		.uleb128 0xe
 3865 088d 18040000 		.4byte	.LASF28
ARM GAS  C:\DOCUME~1\Chuck\LOCALS~1\Temp\cclVEGdP.s 			page 107


 3866 0891 01       		.byte	0x1
 3867 0892 4E07     		.2byte	0x74e
 3868 0894 85000000 		.4byte	0x85
 3869 0898 02       		.byte	0x2
 3870 0899 91       		.byte	0x91
 3871 089a 74       		.sleb128 -12
 3872 089b 00       		.byte	0
 3873 089c 11       		.uleb128 0x11
 3874 089d 01       		.byte	0x1
 3875 089e 4A020000 		.4byte	.LASF81
 3876 08a2 01       		.byte	0x1
 3877 08a3 6907     		.2byte	0x769
 3878 08a5 01       		.byte	0x1
 3879 08a6 00000000 		.4byte	.LFB65
 3880 08aa 20000000 		.4byte	.LFE65
 3881 08ae C4060000 		.4byte	.LLST32
 3882 08b2 01       		.byte	0x1
 3883 08b3 D6080000 		.4byte	0x8d6
 3884 08b7 0E       		.uleb128 0xe
 3885 08b8 18040000 		.4byte	.LASF28
 3886 08bc 01       		.byte	0x1
 3887 08bd 6907     		.2byte	0x769
 3888 08bf 85000000 		.4byte	0x85
 3889 08c3 02       		.byte	0x2
 3890 08c4 91       		.byte	0x91
 3891 08c5 74       		.sleb128 -12
 3892 08c6 0E       		.uleb128 0xe
 3893 08c7 A0080000 		.4byte	.LASF82
 3894 08cb 01       		.byte	0x1
 3895 08cc 6907     		.2byte	0x769
 3896 08ce 85000000 		.4byte	0x85
 3897 08d2 02       		.byte	0x2
 3898 08d3 91       		.byte	0x91
 3899 08d4 70       		.sleb128 -16
 3900 08d5 00       		.byte	0
 3901 08d6 10       		.uleb128 0x10
 3902 08d7 01       		.byte	0x1
 3903 08d8 33010000 		.4byte	.LASF83
 3904 08dc 01       		.byte	0x1
 3905 08dd 8607     		.2byte	0x786
 3906 08df 01       		.byte	0x1
 3907 08e0 85000000 		.4byte	0x85
 3908 08e4 00000000 		.4byte	.LFB66
 3909 08e8 1C000000 		.4byte	.LFE66
 3910 08ec FC060000 		.4byte	.LLST33
 3911 08f0 01       		.byte	0x1
 3912 08f1 05090000 		.4byte	0x905
 3913 08f5 0E       		.uleb128 0xe
 3914 08f6 18040000 		.4byte	.LASF28
 3915 08fa 01       		.byte	0x1
 3916 08fb 8607     		.2byte	0x786
 3917 08fd 85000000 		.4byte	0x85
 3918 0901 02       		.byte	0x2
 3919 0902 91       		.byte	0x91
 3920 0903 74       		.sleb128 -12
 3921 0904 00       		.byte	0
 3922 0905 11       		.uleb128 0x11
ARM GAS  C:\DOCUME~1\Chuck\LOCALS~1\Temp\cclVEGdP.s 			page 108


 3923 0906 01       		.byte	0x1
 3924 0907 01070000 		.4byte	.LASF84
 3925 090b 01       		.byte	0x1
 3926 090c A307     		.2byte	0x7a3
 3927 090e 01       		.byte	0x1
 3928 090f 00000000 		.4byte	.LFB67
 3929 0913 20000000 		.4byte	.LFE67
 3930 0917 34070000 		.4byte	.LLST34
 3931 091b 01       		.byte	0x1
 3932 091c 3F090000 		.4byte	0x93f
 3933 0920 0E       		.uleb128 0xe
 3934 0921 18040000 		.4byte	.LASF28
 3935 0925 01       		.byte	0x1
 3936 0926 A307     		.2byte	0x7a3
 3937 0928 85000000 		.4byte	0x85
 3938 092c 02       		.byte	0x2
 3939 092d 91       		.byte	0x91
 3940 092e 74       		.sleb128 -12
 3941 092f 0E       		.uleb128 0xe
 3942 0930 F6040000 		.4byte	.LASF85
 3943 0934 01       		.byte	0x1
 3944 0935 A307     		.2byte	0x7a3
 3945 0937 85000000 		.4byte	0x85
 3946 093b 02       		.byte	0x2
 3947 093c 91       		.byte	0x91
 3948 093d 70       		.sleb128 -16
 3949 093e 00       		.byte	0
 3950 093f 0F       		.uleb128 0xf
 3951 0940 01       		.byte	0x1
 3952 0941 B1000000 		.4byte	.LASF86
 3953 0945 01       		.byte	0x1
 3954 0946 C007     		.2byte	0x7c0
 3955 0948 01       		.byte	0x1
 3956 0949 85000000 		.4byte	0x85
 3957 094d 00000000 		.4byte	.LFB68
 3958 0951 20000000 		.4byte	.LFE68
 3959 0955 6C070000 		.4byte	.LLST35
 3960 0959 01       		.byte	0x1
 3961 095a 11       		.uleb128 0x11
 3962 095b 01       		.byte	0x1
 3963 095c 45070000 		.4byte	.LASF87
 3964 0960 01       		.byte	0x1
 3965 0961 DE07     		.2byte	0x7de
 3966 0963 01       		.byte	0x1
 3967 0964 00000000 		.4byte	.LFB69
 3968 0968 3C000000 		.4byte	.LFE69
 3969 096c 98070000 		.4byte	.LLST36
 3970 0970 01       		.byte	0x1
 3971 0971 85090000 		.4byte	0x985
 3972 0975 0E       		.uleb128 0xe
 3973 0976 35050000 		.4byte	.LASF88
 3974 097a 01       		.byte	0x1
 3975 097b DE07     		.2byte	0x7de
 3976 097d 85000000 		.4byte	0x85
 3977 0981 02       		.byte	0x2
 3978 0982 91       		.byte	0x91
 3979 0983 74       		.sleb128 -12
ARM GAS  C:\DOCUME~1\Chuck\LOCALS~1\Temp\cclVEGdP.s 			page 109


 3980 0984 00       		.byte	0
 3981 0985 0D       		.uleb128 0xd
 3982 0986 01       		.byte	0x1
 3983 0987 EF070000 		.4byte	.LASF89
 3984 098b 01       		.byte	0x1
 3985 098c 0608     		.2byte	0x806
 3986 098e 01       		.byte	0x1
 3987 098f 7A000000 		.4byte	0x7a
 3988 0993 00000000 		.4byte	.LFB70
 3989 0997 4E000000 		.4byte	.LFE70
 3990 099b D0070000 		.4byte	.LLST37
 3991 099f 01       		.byte	0x1
 3992 09a0 D2090000 		.4byte	0x9d2
 3993 09a4 0E       		.uleb128 0xe
 3994 09a5 18040000 		.4byte	.LASF28
 3995 09a9 01       		.byte	0x1
 3996 09aa 0608     		.2byte	0x806
 3997 09ac 85000000 		.4byte	0x85
 3998 09b0 02       		.byte	0x2
 3999 09b1 91       		.byte	0x91
 4000 09b2 6C       		.sleb128 -20
 4001 09b3 0B       		.uleb128 0xb
 4002 09b4 86060000 		.4byte	.LASF90
 4003 09b8 01       		.byte	0x1
 4004 09b9 0808     		.2byte	0x808
 4005 09bb 85000000 		.4byte	0x85
 4006 09bf 02       		.byte	0x2
 4007 09c0 91       		.byte	0x91
 4008 09c1 74       		.sleb128 -12
 4009 09c2 0B       		.uleb128 0xb
 4010 09c3 2D020000 		.4byte	.LASF91
 4011 09c7 01       		.byte	0x1
 4012 09c8 0908     		.2byte	0x809
 4013 09ca 85000000 		.4byte	0x85
 4014 09ce 02       		.byte	0x2
 4015 09cf 91       		.byte	0x91
 4016 09d0 70       		.sleb128 -16
 4017 09d1 00       		.byte	0
 4018 09d2 11       		.uleb128 0x11
 4019 09d3 01       		.byte	0x1
 4020 09d4 A0020000 		.4byte	.LASF92
 4021 09d8 01       		.byte	0x1
 4022 09d9 7008     		.2byte	0x870
 4023 09db 01       		.byte	0x1
 4024 09dc 00000000 		.4byte	.LFB71
 4025 09e0 20000000 		.4byte	.LFE71
 4026 09e4 08080000 		.4byte	.LLST38
 4027 09e8 01       		.byte	0x1
 4028 09e9 0C0A0000 		.4byte	0xa0c
 4029 09ed 0E       		.uleb128 0xe
 4030 09ee 18040000 		.4byte	.LASF28
 4031 09f2 01       		.byte	0x1
 4032 09f3 7008     		.2byte	0x870
 4033 09f5 85000000 		.4byte	0x85
 4034 09f9 02       		.byte	0x2
 4035 09fa 91       		.byte	0x91
 4036 09fb 74       		.sleb128 -12
ARM GAS  C:\DOCUME~1\Chuck\LOCALS~1\Temp\cclVEGdP.s 			page 110


 4037 09fc 0E       		.uleb128 0xe
 4038 09fd 1D060000 		.4byte	.LASF50
 4039 0a01 01       		.byte	0x1
 4040 0a02 7008     		.2byte	0x870
 4041 0a04 85000000 		.4byte	0x85
 4042 0a08 02       		.byte	0x2
 4043 0a09 91       		.byte	0x91
 4044 0a0a 70       		.sleb128 -16
 4045 0a0b 00       		.byte	0
 4046 0a0c 09       		.uleb128 0x9
 4047 0a0d 64000000 		.4byte	.LASF93
 4048 0a11 01       		.byte	0x1
 4049 0a12 26       		.byte	0x26
 4050 0a13 6F000000 		.4byte	0x6f
 4051 0a17 05       		.byte	0x5
 4052 0a18 03       		.byte	0x3
 4053 0a19 01000000 		.4byte	CapSense_initVar
 4054 0a1d 12       		.uleb128 0x12
 4055 0a1e 8C000000 		.4byte	.LASF94
 4056 0a22 01       		.byte	0x1
 4057 0a23 1E       		.byte	0x1e
 4058 0a24 6F000000 		.4byte	0x6f
 4059 0a28 01       		.byte	0x1
 4060 0a29 05       		.byte	0x5
 4061 0a2a 03       		.byte	0x3
 4062 0a2b 00000000 		.4byte	CapSense_lowLevelTuningDone
 4063 0a2f 13       		.uleb128 0x13
 4064 0a30 7A000000 		.4byte	0x7a
 4065 0a34 3F0A0000 		.4byte	0xa3f
 4066 0a38 14       		.uleb128 0x14
 4067 0a39 C5000000 		.4byte	0xc5
 4068 0a3d 00       		.byte	0
 4069 0a3e 00       		.byte	0
 4070 0a3f 12       		.uleb128 0x12
 4071 0a40 24080000 		.4byte	.LASF95
 4072 0a44 01       		.byte	0x1
 4073 0a45 2D       		.byte	0x2d
 4074 0a46 2F0A0000 		.4byte	0xa2f
 4075 0a4a 01       		.byte	0x1
 4076 0a4b 05       		.byte	0x5
 4077 0a4c 03       		.byte	0x3
 4078 0a4d 00000000 		.4byte	CapSense_sensorRaw
 4079 0a51 13       		.uleb128 0x13
 4080 0a52 6F000000 		.4byte	0x6f
 4081 0a56 610A0000 		.4byte	0xa61
 4082 0a5a 14       		.uleb128 0x14
 4083 0a5b C5000000 		.4byte	0xc5
 4084 0a5f 00       		.byte	0
 4085 0a60 00       		.byte	0
 4086 0a61 12       		.uleb128 0x12
 4087 0a62 77020000 		.4byte	.LASF96
 4088 0a66 01       		.byte	0x1
 4089 0a67 5A       		.byte	0x5a
 4090 0a68 730A0000 		.4byte	0xa73
 4091 0a6c 01       		.byte	0x1
 4092 0a6d 05       		.byte	0x5
 4093 0a6e 03       		.byte	0x3
ARM GAS  C:\DOCUME~1\Chuck\LOCALS~1\Temp\cclVEGdP.s 			page 111


 4094 0a6f 00000000 		.4byte	CapSense_widgetNumber
 4095 0a73 07       		.uleb128 0x7
 4096 0a74 510A0000 		.4byte	0xa51
 4097 0a78 12       		.uleb128 0x12
 4098 0a79 CA060000 		.4byte	.LASF97
 4099 0a7d 01       		.byte	0x1
 4100 0a7e 29       		.byte	0x29
 4101 0a7f B0000000 		.4byte	0xb0
 4102 0a83 01       		.byte	0x1
 4103 0a84 05       		.byte	0x5
 4104 0a85 03       		.byte	0x3
 4105 0a86 00000000 		.4byte	CapSense_csdStatusVar
 4106 0a8a 12       		.uleb128 0x12
 4107 0a8b CD020000 		.4byte	.LASF98
 4108 0a8f 01       		.byte	0x1
 4109 0a90 2A       		.byte	0x2a
 4110 0a91 B0000000 		.4byte	0xb0
 4111 0a95 01       		.byte	0x1
 4112 0a96 05       		.byte	0x5
 4113 0a97 03       		.byte	0x3
 4114 0a98 00000000 		.4byte	CapSense_sensorIndex
 4115 0a9c 13       		.uleb128 0x13
 4116 0a9d 6F000000 		.4byte	0x6f
 4117 0aa1 A70A0000 		.4byte	0xaa7
 4118 0aa5 15       		.uleb128 0x15
 4119 0aa6 00       		.byte	0
 4120 0aa7 16       		.uleb128 0x16
 4121 0aa8 D9080000 		.4byte	.LASF99
 4122 0aac 01       		.byte	0x1
 4123 0aad 18       		.byte	0x18
 4124 0aae 9C0A0000 		.4byte	0xa9c
 4125 0ab2 01       		.byte	0x1
 4126 0ab3 01       		.byte	0x1
 4127 0ab4 16       		.uleb128 0x16
 4128 0ab5 29060000 		.4byte	.LASF100
 4129 0ab9 01       		.byte	0x1
 4130 0aba 19       		.byte	0x19
 4131 0abb 9C0A0000 		.4byte	0xa9c
 4132 0abf 01       		.byte	0x1
 4133 0ac0 01       		.byte	0x1
 4134 0ac1 16       		.uleb128 0x16
 4135 0ac2 6E070000 		.4byte	.LASF101
 4136 0ac6 01       		.byte	0x1
 4137 0ac7 1F       		.byte	0x1f
 4138 0ac8 510A0000 		.4byte	0xa51
 4139 0acc 01       		.byte	0x1
 4140 0acd 01       		.byte	0x1
 4141 0ace 12       		.uleb128 0x12
 4142 0acf CF040000 		.4byte	.LASF102
 4143 0ad3 01       		.byte	0x1
 4144 0ad4 33       		.byte	0x33
 4145 0ad5 6F000000 		.4byte	0x6f
 4146 0ad9 01       		.byte	0x1
 4147 0ada 05       		.byte	0x5
 4148 0adb 03       		.byte	0x3
 4149 0adc 00000000 		.4byte	CapSense_csdTrim1
 4150 0ae0 12       		.uleb128 0x12
ARM GAS  C:\DOCUME~1\Chuck\LOCALS~1\Temp\cclVEGdP.s 			page 112


 4151 0ae1 14010000 		.4byte	.LASF103
 4152 0ae5 01       		.byte	0x1
 4153 0ae6 37       		.byte	0x37
 4154 0ae7 510A0000 		.4byte	0xa51
 4155 0aeb 01       		.byte	0x1
 4156 0aec 05       		.byte	0x5
 4157 0aed 03       		.byte	0x3
 4158 0aee 00000000 		.4byte	CapSense_unscannedSnsDriveMode
 4159 0af2 12       		.uleb128 0x12
 4160 0af3 90040000 		.4byte	.LASF104
 4161 0af7 01       		.byte	0x1
 4162 0af8 3A       		.byte	0x3a
 4163 0af9 510A0000 		.4byte	0xa51
 4164 0afd 01       		.byte	0x1
 4165 0afe 05       		.byte	0x5
 4166 0aff 03       		.byte	0x3
 4167 0b00 00000000 		.4byte	CapSense_sensorEnableMaskBackup
 4168 0b04 12       		.uleb128 0x12
 4169 0b05 1F040000 		.4byte	.LASF105
 4170 0b09 01       		.byte	0x1
 4171 0b0a 3D       		.byte	0x3d
 4172 0b0b 510A0000 		.4byte	0xa51
 4173 0b0f 01       		.byte	0x1
 4174 0b10 05       		.byte	0x5
 4175 0b11 03       		.byte	0x3
 4176 0b12 00000000 		.4byte	CapSense_sensorEnableMask
 4177 0b16 13       		.uleb128 0x13
 4178 0b17 260B0000 		.4byte	0xb26
 4179 0b1b 260B0000 		.4byte	0xb26
 4180 0b1f 14       		.uleb128 0x14
 4181 0b20 C5000000 		.4byte	0xc5
 4182 0b24 00       		.byte	0
 4183 0b25 00       		.byte	0
 4184 0b26 06       		.uleb128 0x6
 4185 0b27 04       		.byte	0x4
 4186 0b28 2C0B0000 		.4byte	0xb2c
 4187 0b2c 05       		.uleb128 0x5
 4188 0b2d 4C000000 		.4byte	0x4c
 4189 0b31 12       		.uleb128 0x12
 4190 0b32 75000000 		.4byte	.LASF106
 4191 0b36 01       		.byte	0x1
 4192 0b37 40       		.byte	0x40
 4193 0b38 160B0000 		.4byte	0xb16
 4194 0b3c 01       		.byte	0x1
 4195 0b3d 05       		.byte	0x5
 4196 0b3e 03       		.byte	0x3
 4197 0b3f 00000000 		.4byte	CapSense_pcTable
 4198 0b43 12       		.uleb128 0x12
 4199 0b44 65030000 		.4byte	.LASF107
 4200 0b48 01       		.byte	0x1
 4201 0b49 44       		.byte	0x44
 4202 0b4a 550B0000 		.4byte	0xb55
 4203 0b4e 01       		.byte	0x1
 4204 0b4f 05       		.byte	0x5
 4205 0b50 03       		.byte	0x3
 4206 0b51 00000000 		.4byte	CapSense_portTable
 4207 0b55 07       		.uleb128 0x7
ARM GAS  C:\DOCUME~1\Chuck\LOCALS~1\Temp\cclVEGdP.s 			page 113


 4208 0b56 510A0000 		.4byte	0xa51
 4209 0b5a 13       		.uleb128 0x13
 4210 0b5b 85000000 		.4byte	0x85
 4211 0b5f 6A0B0000 		.4byte	0xb6a
 4212 0b63 14       		.uleb128 0x14
 4213 0b64 C5000000 		.4byte	0xc5
 4214 0b68 00       		.byte	0
 4215 0b69 00       		.byte	0
 4216 0b6a 12       		.uleb128 0x12
 4217 0b6b 52030000 		.4byte	.LASF108
 4218 0b6f 01       		.byte	0x1
 4219 0b70 48       		.byte	0x48
 4220 0b71 7C0B0000 		.4byte	0xb7c
 4221 0b75 01       		.byte	0x1
 4222 0b76 05       		.byte	0x5
 4223 0b77 03       		.byte	0x3
 4224 0b78 00000000 		.4byte	CapSense_maskTable
 4225 0b7c 07       		.uleb128 0x7
 4226 0b7d 5A0B0000 		.4byte	0xb5a
 4227 0b81 12       		.uleb128 0x12
 4228 0b82 1E070000 		.4byte	.LASF109
 4229 0b86 01       		.byte	0x1
 4230 0b87 4C       		.byte	0x4c
 4231 0b88 930B0000 		.4byte	0xb93
 4232 0b8c 01       		.byte	0x1
 4233 0b8d 05       		.byte	0x5
 4234 0b8e 03       		.byte	0x3
 4235 0b8f 00000000 		.4byte	CapSense_pinShiftTbl
 4236 0b93 07       		.uleb128 0x7
 4237 0b94 510A0000 		.4byte	0xa51
 4238 0b98 12       		.uleb128 0x12
 4239 0b99 53040000 		.4byte	.LASF110
 4240 0b9d 01       		.byte	0x1
 4241 0b9e 50       		.byte	0x50
 4242 0b9f 510A0000 		.4byte	0xa51
 4243 0ba3 01       		.byte	0x1
 4244 0ba4 05       		.byte	0x5
 4245 0ba5 03       		.byte	0x3
 4246 0ba6 00000000 		.4byte	CapSense_modulationIDAC
 4247 0baa 12       		.uleb128 0x12
 4248 0bab 0A000000 		.4byte	.LASF111
 4249 0baf 01       		.byte	0x1
 4250 0bb0 51       		.byte	0x51
 4251 0bb1 510A0000 		.4byte	0xa51
 4252 0bb5 01       		.byte	0x1
 4253 0bb6 05       		.byte	0x5
 4254 0bb7 03       		.byte	0x3
 4255 0bb8 00000000 		.4byte	CapSense_compensationIDAC
 4256 0bbc 12       		.uleb128 0x12
 4257 0bbd F2050000 		.4byte	.LASF112
 4258 0bc1 01       		.byte	0x1
 4259 0bc2 53       		.byte	0x53
 4260 0bc3 5A0B0000 		.4byte	0xb5a
 4261 0bc7 01       		.byte	0x1
 4262 0bc8 05       		.byte	0x5
 4263 0bc9 03       		.byte	0x3
 4264 0bca 00000000 		.4byte	CapSense_widgetResolution
ARM GAS  C:\DOCUME~1\Chuck\LOCALS~1\Temp\cclVEGdP.s 			page 114


 4265 0bce 12       		.uleb128 0x12
 4266 0bcf 6B040000 		.4byte	.LASF113
 4267 0bd3 01       		.byte	0x1
 4268 0bd4 57       		.byte	0x57
 4269 0bd5 510A0000 		.4byte	0xa51
 4270 0bd9 01       		.byte	0x1
 4271 0bda 05       		.byte	0x5
 4272 0bdb 03       		.byte	0x3
 4273 0bdc 00000000 		.4byte	CapSense_senseClkDividerVal
 4274 0be0 12       		.uleb128 0x12
 4275 0be1 24000000 		.4byte	.LASF114
 4276 0be5 01       		.byte	0x1
 4277 0be6 58       		.byte	0x58
 4278 0be7 510A0000 		.4byte	0xa51
 4279 0beb 01       		.byte	0x1
 4280 0bec 05       		.byte	0x5
 4281 0bed 03       		.byte	0x3
 4282 0bee 00000000 		.4byte	CapSense_sampleClkDividerVal
 4283 0bf2 13       		.uleb128 0x13
 4284 0bf3 260B0000 		.4byte	0xb26
 4285 0bf7 020C0000 		.4byte	0xc02
 4286 0bfb 14       		.uleb128 0x14
 4287 0bfc C5000000 		.4byte	0xc5
 4288 0c00 04       		.byte	0x4
 4289 0c01 00       		.byte	0
 4290 0c02 12       		.uleb128 0x12
 4291 0c03 B1010000 		.4byte	.LASF115
 4292 0c07 01       		.byte	0x1
 4293 0c08 60       		.byte	0x60
 4294 0c09 140C0000 		.4byte	0xc14
 4295 0c0d 01       		.byte	0x1
 4296 0c0e 05       		.byte	0x5
 4297 0c0f 03       		.byte	0x3
 4298 0c10 00000000 		.4byte	CapSense_prtSelTbl
 4299 0c14 07       		.uleb128 0x7
 4300 0c15 F20B0000 		.4byte	0xbf2
 4301 0c19 12       		.uleb128 0x12
 4302 0c1a 5B070000 		.4byte	.LASF116
 4303 0c1e 01       		.byte	0x1
 4304 0c1f 6A       		.byte	0x6a
 4305 0c20 2B0C0000 		.4byte	0xc2b
 4306 0c24 01       		.byte	0x1
 4307 0c25 05       		.byte	0x5
 4308 0c26 03       		.byte	0x3
 4309 0c27 00000000 		.4byte	CapSense_prtCfgTbl
 4310 0c2b 07       		.uleb128 0x7
 4311 0c2c F20B0000 		.4byte	0xbf2
 4312 0c30 12       		.uleb128 0x12
 4313 0c31 E0060000 		.4byte	.LASF117
 4314 0c35 01       		.byte	0x1
 4315 0c36 74       		.byte	0x74
 4316 0c37 420C0000 		.4byte	0xc42
 4317 0c3b 01       		.byte	0x1
 4318 0c3c 05       		.byte	0x5
 4319 0c3d 03       		.byte	0x3
 4320 0c3e 00000000 		.4byte	CapSense_prtDRTbl
 4321 0c42 07       		.uleb128 0x7
ARM GAS  C:\DOCUME~1\Chuck\LOCALS~1\Temp\cclVEGdP.s 			page 115


 4322 0c43 F20B0000 		.4byte	0xbf2
 4323 0c47 00       		.byte	0
 4324              		.section	.debug_abbrev,"",%progbits
 4325              	.Ldebug_abbrev0:
 4326 0000 01       		.uleb128 0x1
 4327 0001 11       		.uleb128 0x11
 4328 0002 01       		.byte	0x1
 4329 0003 25       		.uleb128 0x25
 4330 0004 0E       		.uleb128 0xe
 4331 0005 13       		.uleb128 0x13
 4332 0006 0B       		.uleb128 0xb
 4333 0007 03       		.uleb128 0x3
 4334 0008 0E       		.uleb128 0xe
 4335 0009 1B       		.uleb128 0x1b
 4336 000a 0E       		.uleb128 0xe
 4337 000b 55       		.uleb128 0x55
 4338 000c 06       		.uleb128 0x6
 4339 000d 11       		.uleb128 0x11
 4340 000e 01       		.uleb128 0x1
 4341 000f 52       		.uleb128 0x52
 4342 0010 01       		.uleb128 0x1
 4343 0011 10       		.uleb128 0x10
 4344 0012 06       		.uleb128 0x6
 4345 0013 00       		.byte	0
 4346 0014 00       		.byte	0
 4347 0015 02       		.uleb128 0x2
 4348 0016 24       		.uleb128 0x24
 4349 0017 00       		.byte	0
 4350 0018 0B       		.uleb128 0xb
 4351 0019 0B       		.uleb128 0xb
 4352 001a 3E       		.uleb128 0x3e
 4353 001b 0B       		.uleb128 0xb
 4354 001c 03       		.uleb128 0x3
 4355 001d 0E       		.uleb128 0xe
 4356 001e 00       		.byte	0
 4357 001f 00       		.byte	0
 4358 0020 03       		.uleb128 0x3
 4359 0021 24       		.uleb128 0x24
 4360 0022 00       		.byte	0
 4361 0023 0B       		.uleb128 0xb
 4362 0024 0B       		.uleb128 0xb
 4363 0025 3E       		.uleb128 0x3e
 4364 0026 0B       		.uleb128 0xb
 4365 0027 03       		.uleb128 0x3
 4366 0028 08       		.uleb128 0x8
 4367 0029 00       		.byte	0
 4368 002a 00       		.byte	0
 4369 002b 04       		.uleb128 0x4
 4370 002c 16       		.uleb128 0x16
 4371 002d 00       		.byte	0
 4372 002e 03       		.uleb128 0x3
 4373 002f 0E       		.uleb128 0xe
 4374 0030 3A       		.uleb128 0x3a
 4375 0031 0B       		.uleb128 0xb
 4376 0032 3B       		.uleb128 0x3b
 4377 0033 0B       		.uleb128 0xb
 4378 0034 49       		.uleb128 0x49
ARM GAS  C:\DOCUME~1\Chuck\LOCALS~1\Temp\cclVEGdP.s 			page 116


 4379 0035 13       		.uleb128 0x13
 4380 0036 00       		.byte	0
 4381 0037 00       		.byte	0
 4382 0038 05       		.uleb128 0x5
 4383 0039 35       		.uleb128 0x35
 4384 003a 00       		.byte	0
 4385 003b 49       		.uleb128 0x49
 4386 003c 13       		.uleb128 0x13
 4387 003d 00       		.byte	0
 4388 003e 00       		.byte	0
 4389 003f 06       		.uleb128 0x6
 4390 0040 0F       		.uleb128 0xf
 4391 0041 00       		.byte	0
 4392 0042 0B       		.uleb128 0xb
 4393 0043 0B       		.uleb128 0xb
 4394 0044 49       		.uleb128 0x49
 4395 0045 13       		.uleb128 0x13
 4396 0046 00       		.byte	0
 4397 0047 00       		.byte	0
 4398 0048 07       		.uleb128 0x7
 4399 0049 26       		.uleb128 0x26
 4400 004a 00       		.byte	0
 4401 004b 49       		.uleb128 0x49
 4402 004c 13       		.uleb128 0x13
 4403 004d 00       		.byte	0
 4404 004e 00       		.byte	0
 4405 004f 08       		.uleb128 0x8
 4406 0050 2E       		.uleb128 0x2e
 4407 0051 01       		.byte	0x1
 4408 0052 3F       		.uleb128 0x3f
 4409 0053 0C       		.uleb128 0xc
 4410 0054 03       		.uleb128 0x3
 4411 0055 0E       		.uleb128 0xe
 4412 0056 3A       		.uleb128 0x3a
 4413 0057 0B       		.uleb128 0xb
 4414 0058 3B       		.uleb128 0x3b
 4415 0059 0B       		.uleb128 0xb
 4416 005a 27       		.uleb128 0x27
 4417 005b 0C       		.uleb128 0xc
 4418 005c 11       		.uleb128 0x11
 4419 005d 01       		.uleb128 0x1
 4420 005e 12       		.uleb128 0x12
 4421 005f 01       		.uleb128 0x1
 4422 0060 40       		.uleb128 0x40
 4423 0061 06       		.uleb128 0x6
 4424 0062 9642     		.uleb128 0x2116
 4425 0064 0C       		.uleb128 0xc
 4426 0065 01       		.uleb128 0x1
 4427 0066 13       		.uleb128 0x13
 4428 0067 00       		.byte	0
 4429 0068 00       		.byte	0
 4430 0069 09       		.uleb128 0x9
 4431 006a 34       		.uleb128 0x34
 4432 006b 00       		.byte	0
 4433 006c 03       		.uleb128 0x3
 4434 006d 0E       		.uleb128 0xe
 4435 006e 3A       		.uleb128 0x3a
ARM GAS  C:\DOCUME~1\Chuck\LOCALS~1\Temp\cclVEGdP.s 			page 117


 4436 006f 0B       		.uleb128 0xb
 4437 0070 3B       		.uleb128 0x3b
 4438 0071 0B       		.uleb128 0xb
 4439 0072 49       		.uleb128 0x49
 4440 0073 13       		.uleb128 0x13
 4441 0074 02       		.uleb128 0x2
 4442 0075 0A       		.uleb128 0xa
 4443 0076 00       		.byte	0
 4444 0077 00       		.byte	0
 4445 0078 0A       		.uleb128 0xa
 4446 0079 2E       		.uleb128 0x2e
 4447 007a 01       		.byte	0x1
 4448 007b 3F       		.uleb128 0x3f
 4449 007c 0C       		.uleb128 0xc
 4450 007d 03       		.uleb128 0x3
 4451 007e 0E       		.uleb128 0xe
 4452 007f 3A       		.uleb128 0x3a
 4453 0080 0B       		.uleb128 0xb
 4454 0081 3B       		.uleb128 0x3b
 4455 0082 05       		.uleb128 0x5
 4456 0083 27       		.uleb128 0x27
 4457 0084 0C       		.uleb128 0xc
 4458 0085 11       		.uleb128 0x11
 4459 0086 01       		.uleb128 0x1
 4460 0087 12       		.uleb128 0x12
 4461 0088 01       		.uleb128 0x1
 4462 0089 40       		.uleb128 0x40
 4463 008a 06       		.uleb128 0x6
 4464 008b 9642     		.uleb128 0x2116
 4465 008d 0C       		.uleb128 0xc
 4466 008e 01       		.uleb128 0x1
 4467 008f 13       		.uleb128 0x13
 4468 0090 00       		.byte	0
 4469 0091 00       		.byte	0
 4470 0092 0B       		.uleb128 0xb
 4471 0093 34       		.uleb128 0x34
 4472 0094 00       		.byte	0
 4473 0095 03       		.uleb128 0x3
 4474 0096 0E       		.uleb128 0xe
 4475 0097 3A       		.uleb128 0x3a
 4476 0098 0B       		.uleb128 0xb
 4477 0099 3B       		.uleb128 0x3b
 4478 009a 05       		.uleb128 0x5
 4479 009b 49       		.uleb128 0x49
 4480 009c 13       		.uleb128 0x13
 4481 009d 02       		.uleb128 0x2
 4482 009e 0A       		.uleb128 0xa
 4483 009f 00       		.byte	0
 4484 00a0 00       		.byte	0
 4485 00a1 0C       		.uleb128 0xc
 4486 00a2 2E       		.uleb128 0x2e
 4487 00a3 00       		.byte	0
 4488 00a4 3F       		.uleb128 0x3f
 4489 00a5 0C       		.uleb128 0xc
 4490 00a6 03       		.uleb128 0x3
 4491 00a7 0E       		.uleb128 0xe
 4492 00a8 3A       		.uleb128 0x3a
ARM GAS  C:\DOCUME~1\Chuck\LOCALS~1\Temp\cclVEGdP.s 			page 118


 4493 00a9 0B       		.uleb128 0xb
 4494 00aa 3B       		.uleb128 0x3b
 4495 00ab 05       		.uleb128 0x5
 4496 00ac 27       		.uleb128 0x27
 4497 00ad 0C       		.uleb128 0xc
 4498 00ae 11       		.uleb128 0x11
 4499 00af 01       		.uleb128 0x1
 4500 00b0 12       		.uleb128 0x12
 4501 00b1 01       		.uleb128 0x1
 4502 00b2 40       		.uleb128 0x40
 4503 00b3 06       		.uleb128 0x6
 4504 00b4 9642     		.uleb128 0x2116
 4505 00b6 0C       		.uleb128 0xc
 4506 00b7 00       		.byte	0
 4507 00b8 00       		.byte	0
 4508 00b9 0D       		.uleb128 0xd
 4509 00ba 2E       		.uleb128 0x2e
 4510 00bb 01       		.byte	0x1
 4511 00bc 3F       		.uleb128 0x3f
 4512 00bd 0C       		.uleb128 0xc
 4513 00be 03       		.uleb128 0x3
 4514 00bf 0E       		.uleb128 0xe
 4515 00c0 3A       		.uleb128 0x3a
 4516 00c1 0B       		.uleb128 0xb
 4517 00c2 3B       		.uleb128 0x3b
 4518 00c3 05       		.uleb128 0x5
 4519 00c4 27       		.uleb128 0x27
 4520 00c5 0C       		.uleb128 0xc
 4521 00c6 49       		.uleb128 0x49
 4522 00c7 13       		.uleb128 0x13
 4523 00c8 11       		.uleb128 0x11
 4524 00c9 01       		.uleb128 0x1
 4525 00ca 12       		.uleb128 0x12
 4526 00cb 01       		.uleb128 0x1
 4527 00cc 40       		.uleb128 0x40
 4528 00cd 06       		.uleb128 0x6
 4529 00ce 9642     		.uleb128 0x2116
 4530 00d0 0C       		.uleb128 0xc
 4531 00d1 01       		.uleb128 0x1
 4532 00d2 13       		.uleb128 0x13
 4533 00d3 00       		.byte	0
 4534 00d4 00       		.byte	0
 4535 00d5 0E       		.uleb128 0xe
 4536 00d6 05       		.uleb128 0x5
 4537 00d7 00       		.byte	0
 4538 00d8 03       		.uleb128 0x3
 4539 00d9 0E       		.uleb128 0xe
 4540 00da 3A       		.uleb128 0x3a
 4541 00db 0B       		.uleb128 0xb
 4542 00dc 3B       		.uleb128 0x3b
 4543 00dd 05       		.uleb128 0x5
 4544 00de 49       		.uleb128 0x49
 4545 00df 13       		.uleb128 0x13
 4546 00e0 02       		.uleb128 0x2
 4547 00e1 0A       		.uleb128 0xa
 4548 00e2 00       		.byte	0
 4549 00e3 00       		.byte	0
ARM GAS  C:\DOCUME~1\Chuck\LOCALS~1\Temp\cclVEGdP.s 			page 119


 4550 00e4 0F       		.uleb128 0xf
 4551 00e5 2E       		.uleb128 0x2e
 4552 00e6 00       		.byte	0
 4553 00e7 3F       		.uleb128 0x3f
 4554 00e8 0C       		.uleb128 0xc
 4555 00e9 03       		.uleb128 0x3
 4556 00ea 0E       		.uleb128 0xe
 4557 00eb 3A       		.uleb128 0x3a
 4558 00ec 0B       		.uleb128 0xb
 4559 00ed 3B       		.uleb128 0x3b
 4560 00ee 05       		.uleb128 0x5
 4561 00ef 27       		.uleb128 0x27
 4562 00f0 0C       		.uleb128 0xc
 4563 00f1 49       		.uleb128 0x49
 4564 00f2 13       		.uleb128 0x13
 4565 00f3 11       		.uleb128 0x11
 4566 00f4 01       		.uleb128 0x1
 4567 00f5 12       		.uleb128 0x12
 4568 00f6 01       		.uleb128 0x1
 4569 00f7 40       		.uleb128 0x40
 4570 00f8 06       		.uleb128 0x6
 4571 00f9 9742     		.uleb128 0x2117
 4572 00fb 0C       		.uleb128 0xc
 4573 00fc 00       		.byte	0
 4574 00fd 00       		.byte	0
 4575 00fe 10       		.uleb128 0x10
 4576 00ff 2E       		.uleb128 0x2e
 4577 0100 01       		.byte	0x1
 4578 0101 3F       		.uleb128 0x3f
 4579 0102 0C       		.uleb128 0xc
 4580 0103 03       		.uleb128 0x3
 4581 0104 0E       		.uleb128 0xe
 4582 0105 3A       		.uleb128 0x3a
 4583 0106 0B       		.uleb128 0xb
 4584 0107 3B       		.uleb128 0x3b
 4585 0108 05       		.uleb128 0x5
 4586 0109 27       		.uleb128 0x27
 4587 010a 0C       		.uleb128 0xc
 4588 010b 49       		.uleb128 0x49
 4589 010c 13       		.uleb128 0x13
 4590 010d 11       		.uleb128 0x11
 4591 010e 01       		.uleb128 0x1
 4592 010f 12       		.uleb128 0x12
 4593 0110 01       		.uleb128 0x1
 4594 0111 40       		.uleb128 0x40
 4595 0112 06       		.uleb128 0x6
 4596 0113 9742     		.uleb128 0x2117
 4597 0115 0C       		.uleb128 0xc
 4598 0116 01       		.uleb128 0x1
 4599 0117 13       		.uleb128 0x13
 4600 0118 00       		.byte	0
 4601 0119 00       		.byte	0
 4602 011a 11       		.uleb128 0x11
 4603 011b 2E       		.uleb128 0x2e
 4604 011c 01       		.byte	0x1
 4605 011d 3F       		.uleb128 0x3f
 4606 011e 0C       		.uleb128 0xc
ARM GAS  C:\DOCUME~1\Chuck\LOCALS~1\Temp\cclVEGdP.s 			page 120


 4607 011f 03       		.uleb128 0x3
 4608 0120 0E       		.uleb128 0xe
 4609 0121 3A       		.uleb128 0x3a
 4610 0122 0B       		.uleb128 0xb
 4611 0123 3B       		.uleb128 0x3b
 4612 0124 05       		.uleb128 0x5
 4613 0125 27       		.uleb128 0x27
 4614 0126 0C       		.uleb128 0xc
 4615 0127 11       		.uleb128 0x11
 4616 0128 01       		.uleb128 0x1
 4617 0129 12       		.uleb128 0x12
 4618 012a 01       		.uleb128 0x1
 4619 012b 40       		.uleb128 0x40
 4620 012c 06       		.uleb128 0x6
 4621 012d 9742     		.uleb128 0x2117
 4622 012f 0C       		.uleb128 0xc
 4623 0130 01       		.uleb128 0x1
 4624 0131 13       		.uleb128 0x13
 4625 0132 00       		.byte	0
 4626 0133 00       		.byte	0
 4627 0134 12       		.uleb128 0x12
 4628 0135 34       		.uleb128 0x34
 4629 0136 00       		.byte	0
 4630 0137 03       		.uleb128 0x3
 4631 0138 0E       		.uleb128 0xe
 4632 0139 3A       		.uleb128 0x3a
 4633 013a 0B       		.uleb128 0xb
 4634 013b 3B       		.uleb128 0x3b
 4635 013c 0B       		.uleb128 0xb
 4636 013d 49       		.uleb128 0x49
 4637 013e 13       		.uleb128 0x13
 4638 013f 3F       		.uleb128 0x3f
 4639 0140 0C       		.uleb128 0xc
 4640 0141 02       		.uleb128 0x2
 4641 0142 0A       		.uleb128 0xa
 4642 0143 00       		.byte	0
 4643 0144 00       		.byte	0
 4644 0145 13       		.uleb128 0x13
 4645 0146 01       		.uleb128 0x1
 4646 0147 01       		.byte	0x1
 4647 0148 49       		.uleb128 0x49
 4648 0149 13       		.uleb128 0x13
 4649 014a 01       		.uleb128 0x1
 4650 014b 13       		.uleb128 0x13
 4651 014c 00       		.byte	0
 4652 014d 00       		.byte	0
 4653 014e 14       		.uleb128 0x14
 4654 014f 21       		.uleb128 0x21
 4655 0150 00       		.byte	0
 4656 0151 49       		.uleb128 0x49
 4657 0152 13       		.uleb128 0x13
 4658 0153 2F       		.uleb128 0x2f
 4659 0154 0B       		.uleb128 0xb
 4660 0155 00       		.byte	0
 4661 0156 00       		.byte	0
 4662 0157 15       		.uleb128 0x15
 4663 0158 21       		.uleb128 0x21
ARM GAS  C:\DOCUME~1\Chuck\LOCALS~1\Temp\cclVEGdP.s 			page 121


 4664 0159 00       		.byte	0
 4665 015a 00       		.byte	0
 4666 015b 00       		.byte	0
 4667 015c 16       		.uleb128 0x16
 4668 015d 34       		.uleb128 0x34
 4669 015e 00       		.byte	0
 4670 015f 03       		.uleb128 0x3
 4671 0160 0E       		.uleb128 0xe
 4672 0161 3A       		.uleb128 0x3a
 4673 0162 0B       		.uleb128 0xb
 4674 0163 3B       		.uleb128 0x3b
 4675 0164 0B       		.uleb128 0xb
 4676 0165 49       		.uleb128 0x49
 4677 0166 13       		.uleb128 0x13
 4678 0167 3F       		.uleb128 0x3f
 4679 0168 0C       		.uleb128 0xc
 4680 0169 3C       		.uleb128 0x3c
 4681 016a 0C       		.uleb128 0xc
 4682 016b 00       		.byte	0
 4683 016c 00       		.byte	0
 4684 016d 00       		.byte	0
 4685              		.section	.debug_loc,"",%progbits
 4686              	.Ldebug_loc0:
 4687              	.LLST0:
 4688 0000 00000000 		.4byte	.LFB33
 4689 0004 02000000 		.4byte	.LCFI0
 4690 0008 0200     		.2byte	0x2
 4691 000a 7D       		.byte	0x7d
 4692 000b 00       		.sleb128 0
 4693 000c 02000000 		.4byte	.LCFI0
 4694 0010 04000000 		.4byte	.LCFI1
 4695 0014 0200     		.2byte	0x2
 4696 0016 7D       		.byte	0x7d
 4697 0017 08       		.sleb128 8
 4698 0018 04000000 		.4byte	.LCFI1
 4699 001c 06000000 		.4byte	.LCFI2
 4700 0020 0200     		.2byte	0x2
 4701 0022 7D       		.byte	0x7d
 4702 0023 10       		.sleb128 16
 4703 0024 06000000 		.4byte	.LCFI2
 4704 0028 3C000000 		.4byte	.LFE33
 4705 002c 0200     		.2byte	0x2
 4706 002e 77       		.byte	0x77
 4707 002f 10       		.sleb128 16
 4708 0030 00000000 		.4byte	0
 4709 0034 00000000 		.4byte	0
 4710              	.LLST1:
 4711 0038 00000000 		.4byte	.LFB34
 4712 003c 02000000 		.4byte	.LCFI3
 4713 0040 0200     		.2byte	0x2
 4714 0042 7D       		.byte	0x7d
 4715 0043 00       		.sleb128 0
 4716 0044 02000000 		.4byte	.LCFI3
 4717 0048 04000000 		.4byte	.LCFI4
 4718 004c 0200     		.2byte	0x2
 4719 004e 7D       		.byte	0x7d
 4720 004f 08       		.sleb128 8
ARM GAS  C:\DOCUME~1\Chuck\LOCALS~1\Temp\cclVEGdP.s 			page 122


 4721 0050 04000000 		.4byte	.LCFI4
 4722 0054 06000000 		.4byte	.LCFI5
 4723 0058 0200     		.2byte	0x2
 4724 005a 7D       		.byte	0x7d
 4725 005b 10       		.sleb128 16
 4726 005c 06000000 		.4byte	.LCFI5
 4727 0060 C0000000 		.4byte	.LFE34
 4728 0064 0200     		.2byte	0x2
 4729 0066 77       		.byte	0x77
 4730 0067 10       		.sleb128 16
 4731 0068 00000000 		.4byte	0
 4732 006c 00000000 		.4byte	0
 4733              	.LLST2:
 4734 0070 00000000 		.4byte	.LFB35
 4735 0074 02000000 		.4byte	.LCFI6
 4736 0078 0200     		.2byte	0x2
 4737 007a 7D       		.byte	0x7d
 4738 007b 00       		.sleb128 0
 4739 007c 02000000 		.4byte	.LCFI6
 4740 0080 04000000 		.4byte	.LCFI7
 4741 0084 0200     		.2byte	0x2
 4742 0086 7D       		.byte	0x7d
 4743 0087 08       		.sleb128 8
 4744 0088 04000000 		.4byte	.LCFI7
 4745 008c 06000000 		.4byte	.LCFI8
 4746 0090 0200     		.2byte	0x2
 4747 0092 7D       		.byte	0x7d
 4748 0093 10       		.sleb128 16
 4749 0094 06000000 		.4byte	.LCFI8
 4750 0098 50000000 		.4byte	.LFE35
 4751 009c 0200     		.2byte	0x2
 4752 009e 77       		.byte	0x77
 4753 009f 10       		.sleb128 16
 4754 00a0 00000000 		.4byte	0
 4755 00a4 00000000 		.4byte	0
 4756              	.LLST3:
 4757 00a8 00000000 		.4byte	.LFB36
 4758 00ac 02000000 		.4byte	.LCFI9
 4759 00b0 0200     		.2byte	0x2
 4760 00b2 7D       		.byte	0x7d
 4761 00b3 00       		.sleb128 0
 4762 00b4 02000000 		.4byte	.LCFI9
 4763 00b8 04000000 		.4byte	.LCFI10
 4764 00bc 0200     		.2byte	0x2
 4765 00be 7D       		.byte	0x7d
 4766 00bf 08       		.sleb128 8
 4767 00c0 04000000 		.4byte	.LCFI10
 4768 00c4 44000000 		.4byte	.LFE36
 4769 00c8 0200     		.2byte	0x2
 4770 00ca 77       		.byte	0x77
 4771 00cb 08       		.sleb128 8
 4772 00cc 00000000 		.4byte	0
 4773 00d0 00000000 		.4byte	0
 4774              	.LLST4:
 4775 00d4 00000000 		.4byte	.LFB37
 4776 00d8 02000000 		.4byte	.LCFI11
 4777 00dc 0200     		.2byte	0x2
ARM GAS  C:\DOCUME~1\Chuck\LOCALS~1\Temp\cclVEGdP.s 			page 123


 4778 00de 7D       		.byte	0x7d
 4779 00df 00       		.sleb128 0
 4780 00e0 02000000 		.4byte	.LCFI11
 4781 00e4 04000000 		.4byte	.LCFI12
 4782 00e8 0200     		.2byte	0x2
 4783 00ea 7D       		.byte	0x7d
 4784 00eb 08       		.sleb128 8
 4785 00ec 04000000 		.4byte	.LCFI12
 4786 00f0 38000000 		.4byte	.LFE37
 4787 00f4 0200     		.2byte	0x2
 4788 00f6 77       		.byte	0x77
 4789 00f7 08       		.sleb128 8
 4790 00f8 00000000 		.4byte	0
 4791 00fc 00000000 		.4byte	0
 4792              	.LLST5:
 4793 0100 00000000 		.4byte	.LFB38
 4794 0104 02000000 		.4byte	.LCFI13
 4795 0108 0200     		.2byte	0x2
 4796 010a 7D       		.byte	0x7d
 4797 010b 00       		.sleb128 0
 4798 010c 02000000 		.4byte	.LCFI13
 4799 0110 04000000 		.4byte	.LCFI14
 4800 0114 0200     		.2byte	0x2
 4801 0116 7D       		.byte	0x7d
 4802 0117 08       		.sleb128 8
 4803 0118 04000000 		.4byte	.LCFI14
 4804 011c 06000000 		.4byte	.LCFI15
 4805 0120 0200     		.2byte	0x2
 4806 0122 7D       		.byte	0x7d
 4807 0123 18       		.sleb128 24
 4808 0124 06000000 		.4byte	.LCFI15
 4809 0128 4C000000 		.4byte	.LFE38
 4810 012c 0200     		.2byte	0x2
 4811 012e 77       		.byte	0x77
 4812 012f 18       		.sleb128 24
 4813 0130 00000000 		.4byte	0
 4814 0134 00000000 		.4byte	0
 4815              	.LLST6:
 4816 0138 00000000 		.4byte	.LFB39
 4817 013c 02000000 		.4byte	.LCFI16
 4818 0140 0200     		.2byte	0x2
 4819 0142 7D       		.byte	0x7d
 4820 0143 00       		.sleb128 0
 4821 0144 02000000 		.4byte	.LCFI16
 4822 0148 04000000 		.4byte	.LCFI17
 4823 014c 0200     		.2byte	0x2
 4824 014e 7D       		.byte	0x7d
 4825 014f 08       		.sleb128 8
 4826 0150 04000000 		.4byte	.LCFI17
 4827 0154 06000000 		.4byte	.LCFI18
 4828 0158 0200     		.2byte	0x2
 4829 015a 7D       		.byte	0x7d
 4830 015b 10       		.sleb128 16
 4831 015c 06000000 		.4byte	.LCFI18
 4832 0160 34000000 		.4byte	.LFE39
 4833 0164 0200     		.2byte	0x2
 4834 0166 77       		.byte	0x77
ARM GAS  C:\DOCUME~1\Chuck\LOCALS~1\Temp\cclVEGdP.s 			page 124


 4835 0167 10       		.sleb128 16
 4836 0168 00000000 		.4byte	0
 4837 016c 00000000 		.4byte	0
 4838              	.LLST7:
 4839 0170 00000000 		.4byte	.LFB40
 4840 0174 02000000 		.4byte	.LCFI19
 4841 0178 0200     		.2byte	0x2
 4842 017a 7D       		.byte	0x7d
 4843 017b 00       		.sleb128 0
 4844 017c 02000000 		.4byte	.LCFI19
 4845 0180 04000000 		.4byte	.LCFI20
 4846 0184 0200     		.2byte	0x2
 4847 0186 7D       		.byte	0x7d
 4848 0187 08       		.sleb128 8
 4849 0188 04000000 		.4byte	.LCFI20
 4850 018c 06000000 		.4byte	.LCFI21
 4851 0190 0200     		.2byte	0x2
 4852 0192 7D       		.byte	0x7d
 4853 0193 20       		.sleb128 32
 4854 0194 06000000 		.4byte	.LCFI21
 4855 0198 DC000000 		.4byte	.LFE40
 4856 019c 0200     		.2byte	0x2
 4857 019e 77       		.byte	0x77
 4858 019f 20       		.sleb128 32
 4859 01a0 00000000 		.4byte	0
 4860 01a4 00000000 		.4byte	0
 4861              	.LLST8:
 4862 01a8 00000000 		.4byte	.LFB41
 4863 01ac 02000000 		.4byte	.LCFI22
 4864 01b0 0200     		.2byte	0x2
 4865 01b2 7D       		.byte	0x7d
 4866 01b3 00       		.sleb128 0
 4867 01b4 02000000 		.4byte	.LCFI22
 4868 01b8 04000000 		.4byte	.LCFI23
 4869 01bc 0200     		.2byte	0x2
 4870 01be 7D       		.byte	0x7d
 4871 01bf 08       		.sleb128 8
 4872 01c0 04000000 		.4byte	.LCFI23
 4873 01c4 58000000 		.4byte	.LFE41
 4874 01c8 0200     		.2byte	0x2
 4875 01ca 77       		.byte	0x77
 4876 01cb 08       		.sleb128 8
 4877 01cc 00000000 		.4byte	0
 4878 01d0 00000000 		.4byte	0
 4879              	.LLST9:
 4880 01d4 00000000 		.4byte	.LFB42
 4881 01d8 02000000 		.4byte	.LCFI24
 4882 01dc 0200     		.2byte	0x2
 4883 01de 7D       		.byte	0x7d
 4884 01df 00       		.sleb128 0
 4885 01e0 02000000 		.4byte	.LCFI24
 4886 01e4 04000000 		.4byte	.LCFI25
 4887 01e8 0200     		.2byte	0x2
 4888 01ea 7D       		.byte	0x7d
 4889 01eb 08       		.sleb128 8
 4890 01ec 04000000 		.4byte	.LCFI25
 4891 01f0 1C000000 		.4byte	.LFE42
ARM GAS  C:\DOCUME~1\Chuck\LOCALS~1\Temp\cclVEGdP.s 			page 125


 4892 01f4 0200     		.2byte	0x2
 4893 01f6 77       		.byte	0x77
 4894 01f7 08       		.sleb128 8
 4895 01f8 00000000 		.4byte	0
 4896 01fc 00000000 		.4byte	0
 4897              	.LLST10:
 4898 0200 00000000 		.4byte	.LFB43
 4899 0204 02000000 		.4byte	.LCFI26
 4900 0208 0200     		.2byte	0x2
 4901 020a 7D       		.byte	0x7d
 4902 020b 00       		.sleb128 0
 4903 020c 02000000 		.4byte	.LCFI26
 4904 0210 04000000 		.4byte	.LCFI27
 4905 0214 0200     		.2byte	0x2
 4906 0216 7D       		.byte	0x7d
 4907 0217 08       		.sleb128 8
 4908 0218 04000000 		.4byte	.LCFI27
 4909 021c 06000000 		.4byte	.LCFI28
 4910 0220 0200     		.2byte	0x2
 4911 0222 7D       		.byte	0x7d
 4912 0223 10       		.sleb128 16
 4913 0224 06000000 		.4byte	.LCFI28
 4914 0228 1C000000 		.4byte	.LFE43
 4915 022c 0200     		.2byte	0x2
 4916 022e 77       		.byte	0x77
 4917 022f 10       		.sleb128 16
 4918 0230 00000000 		.4byte	0
 4919 0234 00000000 		.4byte	0
 4920              	.LLST11:
 4921 0238 00000000 		.4byte	.LFB44
 4922 023c 02000000 		.4byte	.LCFI29
 4923 0240 0200     		.2byte	0x2
 4924 0242 7D       		.byte	0x7d
 4925 0243 00       		.sleb128 0
 4926 0244 02000000 		.4byte	.LCFI29
 4927 0248 04000000 		.4byte	.LCFI30
 4928 024c 0200     		.2byte	0x2
 4929 024e 7D       		.byte	0x7d
 4930 024f 08       		.sleb128 8
 4931 0250 04000000 		.4byte	.LCFI30
 4932 0254 06000000 		.4byte	.LCFI31
 4933 0258 0200     		.2byte	0x2
 4934 025a 7D       		.byte	0x7d
 4935 025b 10       		.sleb128 16
 4936 025c 06000000 		.4byte	.LCFI31
 4937 0260 24000000 		.4byte	.LFE44
 4938 0264 0200     		.2byte	0x2
 4939 0266 77       		.byte	0x77
 4940 0267 10       		.sleb128 16
 4941 0268 00000000 		.4byte	0
 4942 026c 00000000 		.4byte	0
 4943              	.LLST12:
 4944 0270 00000000 		.4byte	.LFB45
 4945 0274 02000000 		.4byte	.LCFI32
 4946 0278 0200     		.2byte	0x2
 4947 027a 7D       		.byte	0x7d
 4948 027b 00       		.sleb128 0
ARM GAS  C:\DOCUME~1\Chuck\LOCALS~1\Temp\cclVEGdP.s 			page 126


 4949 027c 02000000 		.4byte	.LCFI32
 4950 0280 04000000 		.4byte	.LCFI33
 4951 0284 0200     		.2byte	0x2
 4952 0286 7D       		.byte	0x7d
 4953 0287 08       		.sleb128 8
 4954 0288 04000000 		.4byte	.LCFI33
 4955 028c 06000000 		.4byte	.LCFI34
 4956 0290 0200     		.2byte	0x2
 4957 0292 7D       		.byte	0x7d
 4958 0293 10       		.sleb128 16
 4959 0294 06000000 		.4byte	.LCFI34
 4960 0298 20000000 		.4byte	.LFE45
 4961 029c 0200     		.2byte	0x2
 4962 029e 77       		.byte	0x77
 4963 029f 10       		.sleb128 16
 4964 02a0 00000000 		.4byte	0
 4965 02a4 00000000 		.4byte	0
 4966              	.LLST13:
 4967 02a8 00000000 		.4byte	.LFB46
 4968 02ac 02000000 		.4byte	.LCFI35
 4969 02b0 0200     		.2byte	0x2
 4970 02b2 7D       		.byte	0x7d
 4971 02b3 00       		.sleb128 0
 4972 02b4 02000000 		.4byte	.LCFI35
 4973 02b8 04000000 		.4byte	.LCFI36
 4974 02bc 0200     		.2byte	0x2
 4975 02be 7D       		.byte	0x7d
 4976 02bf 08       		.sleb128 8
 4977 02c0 04000000 		.4byte	.LCFI36
 4978 02c4 06000000 		.4byte	.LCFI37
 4979 02c8 0200     		.2byte	0x2
 4980 02ca 7D       		.byte	0x7d
 4981 02cb 10       		.sleb128 16
 4982 02cc 06000000 		.4byte	.LCFI37
 4983 02d0 1C000000 		.4byte	.LFE46
 4984 02d4 0200     		.2byte	0x2
 4985 02d6 77       		.byte	0x77
 4986 02d7 10       		.sleb128 16
 4987 02d8 00000000 		.4byte	0
 4988 02dc 00000000 		.4byte	0
 4989              	.LLST14:
 4990 02e0 00000000 		.4byte	.LFB47
 4991 02e4 02000000 		.4byte	.LCFI38
 4992 02e8 0200     		.2byte	0x2
 4993 02ea 7D       		.byte	0x7d
 4994 02eb 00       		.sleb128 0
 4995 02ec 02000000 		.4byte	.LCFI38
 4996 02f0 04000000 		.4byte	.LCFI39
 4997 02f4 0200     		.2byte	0x2
 4998 02f6 7D       		.byte	0x7d
 4999 02f7 08       		.sleb128 8
 5000 02f8 04000000 		.4byte	.LCFI39
 5001 02fc 06000000 		.4byte	.LCFI40
 5002 0300 0200     		.2byte	0x2
 5003 0302 7D       		.byte	0x7d
 5004 0303 10       		.sleb128 16
 5005 0304 06000000 		.4byte	.LCFI40
ARM GAS  C:\DOCUME~1\Chuck\LOCALS~1\Temp\cclVEGdP.s 			page 127


 5006 0308 26000000 		.4byte	.LFE47
 5007 030c 0200     		.2byte	0x2
 5008 030e 77       		.byte	0x77
 5009 030f 10       		.sleb128 16
 5010 0310 00000000 		.4byte	0
 5011 0314 00000000 		.4byte	0
 5012              	.LLST15:
 5013 0318 00000000 		.4byte	.LFB48
 5014 031c 02000000 		.4byte	.LCFI41
 5015 0320 0200     		.2byte	0x2
 5016 0322 7D       		.byte	0x7d
 5017 0323 00       		.sleb128 0
 5018 0324 02000000 		.4byte	.LCFI41
 5019 0328 04000000 		.4byte	.LCFI42
 5020 032c 0200     		.2byte	0x2
 5021 032e 7D       		.byte	0x7d
 5022 032f 0C       		.sleb128 12
 5023 0330 04000000 		.4byte	.LCFI42
 5024 0334 06000000 		.4byte	.LCFI43
 5025 0338 0200     		.2byte	0x2
 5026 033a 7D       		.byte	0x7d
 5027 033b 28       		.sleb128 40
 5028 033c 06000000 		.4byte	.LCFI43
 5029 0340 CC000000 		.4byte	.LFE48
 5030 0344 0200     		.2byte	0x2
 5031 0346 77       		.byte	0x77
 5032 0347 28       		.sleb128 40
 5033 0348 00000000 		.4byte	0
 5034 034c 00000000 		.4byte	0
 5035              	.LLST16:
 5036 0350 00000000 		.4byte	.LFB49
 5037 0354 02000000 		.4byte	.LCFI44
 5038 0358 0200     		.2byte	0x2
 5039 035a 7D       		.byte	0x7d
 5040 035b 00       		.sleb128 0
 5041 035c 02000000 		.4byte	.LCFI44
 5042 0360 04000000 		.4byte	.LCFI45
 5043 0364 0200     		.2byte	0x2
 5044 0366 7D       		.byte	0x7d
 5045 0367 0C       		.sleb128 12
 5046 0368 04000000 		.4byte	.LCFI45
 5047 036c 06000000 		.4byte	.LCFI46
 5048 0370 0200     		.2byte	0x2
 5049 0372 7D       		.byte	0x7d
 5050 0373 30       		.sleb128 48
 5051 0374 06000000 		.4byte	.LCFI46
 5052 0378 24010000 		.4byte	.LFE49
 5053 037c 0200     		.2byte	0x2
 5054 037e 77       		.byte	0x77
 5055 037f 30       		.sleb128 48
 5056 0380 00000000 		.4byte	0
 5057 0384 00000000 		.4byte	0
 5058              	.LLST17:
 5059 0388 00000000 		.4byte	.LFB50
 5060 038c 02000000 		.4byte	.LCFI47
 5061 0390 0200     		.2byte	0x2
 5062 0392 7D       		.byte	0x7d
ARM GAS  C:\DOCUME~1\Chuck\LOCALS~1\Temp\cclVEGdP.s 			page 128


 5063 0393 00       		.sleb128 0
 5064 0394 02000000 		.4byte	.LCFI47
 5065 0398 04000000 		.4byte	.LCFI48
 5066 039c 0200     		.2byte	0x2
 5067 039e 7D       		.byte	0x7d
 5068 039f 08       		.sleb128 8
 5069 03a0 04000000 		.4byte	.LCFI48
 5070 03a4 06000000 		.4byte	.LCFI49
 5071 03a8 0200     		.2byte	0x2
 5072 03aa 7D       		.byte	0x7d
 5073 03ab 20       		.sleb128 32
 5074 03ac 06000000 		.4byte	.LCFI49
 5075 03b0 58000000 		.4byte	.LFE50
 5076 03b4 0200     		.2byte	0x2
 5077 03b6 77       		.byte	0x77
 5078 03b7 20       		.sleb128 32
 5079 03b8 00000000 		.4byte	0
 5080 03bc 00000000 		.4byte	0
 5081              	.LLST18:
 5082 03c0 00000000 		.4byte	.LFB51
 5083 03c4 02000000 		.4byte	.LCFI50
 5084 03c8 0200     		.2byte	0x2
 5085 03ca 7D       		.byte	0x7d
 5086 03cb 00       		.sleb128 0
 5087 03cc 02000000 		.4byte	.LCFI50
 5088 03d0 04000000 		.4byte	.LCFI51
 5089 03d4 0200     		.2byte	0x2
 5090 03d6 7D       		.byte	0x7d
 5091 03d7 08       		.sleb128 8
 5092 03d8 04000000 		.4byte	.LCFI51
 5093 03dc 06000000 		.4byte	.LCFI52
 5094 03e0 0200     		.2byte	0x2
 5095 03e2 7D       		.byte	0x7d
 5096 03e3 10       		.sleb128 16
 5097 03e4 06000000 		.4byte	.LCFI52
 5098 03e8 38000000 		.4byte	.LFE51
 5099 03ec 0200     		.2byte	0x2
 5100 03ee 77       		.byte	0x77
 5101 03ef 10       		.sleb128 16
 5102 03f0 00000000 		.4byte	0
 5103 03f4 00000000 		.4byte	0
 5104              	.LLST19:
 5105 03f8 00000000 		.4byte	.LFB52
 5106 03fc 02000000 		.4byte	.LCFI53
 5107 0400 0200     		.2byte	0x2
 5108 0402 7D       		.byte	0x7d
 5109 0403 00       		.sleb128 0
 5110 0404 02000000 		.4byte	.LCFI53
 5111 0408 04000000 		.4byte	.LCFI54
 5112 040c 0200     		.2byte	0x2
 5113 040e 7D       		.byte	0x7d
 5114 040f 08       		.sleb128 8
 5115 0410 04000000 		.4byte	.LCFI54
 5116 0414 06000000 		.4byte	.LCFI55
 5117 0418 0200     		.2byte	0x2
 5118 041a 7D       		.byte	0x7d
 5119 041b 20       		.sleb128 32
ARM GAS  C:\DOCUME~1\Chuck\LOCALS~1\Temp\cclVEGdP.s 			page 129


 5120 041c 06000000 		.4byte	.LCFI55
 5121 0420 5C000000 		.4byte	.LFE52
 5122 0424 0200     		.2byte	0x2
 5123 0426 77       		.byte	0x77
 5124 0427 20       		.sleb128 32
 5125 0428 00000000 		.4byte	0
 5126 042c 00000000 		.4byte	0
 5127              	.LLST20:
 5128 0430 00000000 		.4byte	.LFB53
 5129 0434 02000000 		.4byte	.LCFI56
 5130 0438 0200     		.2byte	0x2
 5131 043a 7D       		.byte	0x7d
 5132 043b 00       		.sleb128 0
 5133 043c 02000000 		.4byte	.LCFI56
 5134 0440 04000000 		.4byte	.LCFI57
 5135 0444 0200     		.2byte	0x2
 5136 0446 7D       		.byte	0x7d
 5137 0447 0C       		.sleb128 12
 5138 0448 04000000 		.4byte	.LCFI57
 5139 044c 06000000 		.4byte	.LCFI58
 5140 0450 0200     		.2byte	0x2
 5141 0452 7D       		.byte	0x7d
 5142 0453 30       		.sleb128 48
 5143 0454 06000000 		.4byte	.LCFI58
 5144 0458 3C010000 		.4byte	.LFE53
 5145 045c 0200     		.2byte	0x2
 5146 045e 77       		.byte	0x77
 5147 045f 30       		.sleb128 48
 5148 0460 00000000 		.4byte	0
 5149 0464 00000000 		.4byte	0
 5150              	.LLST21:
 5151 0468 00000000 		.4byte	.LFB54
 5152 046c 02000000 		.4byte	.LCFI59
 5153 0470 0200     		.2byte	0x2
 5154 0472 7D       		.byte	0x7d
 5155 0473 00       		.sleb128 0
 5156 0474 02000000 		.4byte	.LCFI59
 5157 0478 04000000 		.4byte	.LCFI60
 5158 047c 0200     		.2byte	0x2
 5159 047e 7D       		.byte	0x7d
 5160 047f 08       		.sleb128 8
 5161 0480 04000000 		.4byte	.LCFI60
 5162 0484 06000000 		.4byte	.LCFI61
 5163 0488 0200     		.2byte	0x2
 5164 048a 7D       		.byte	0x7d
 5165 048b 20       		.sleb128 32
 5166 048c 06000000 		.4byte	.LCFI61
 5167 0490 C8000000 		.4byte	.LFE54
 5168 0494 0200     		.2byte	0x2
 5169 0496 77       		.byte	0x77
 5170 0497 20       		.sleb128 32
 5171 0498 00000000 		.4byte	0
 5172 049c 00000000 		.4byte	0
 5173              	.LLST22:
 5174 04a0 00000000 		.4byte	.LFB55
 5175 04a4 02000000 		.4byte	.LCFI62
 5176 04a8 0200     		.2byte	0x2
ARM GAS  C:\DOCUME~1\Chuck\LOCALS~1\Temp\cclVEGdP.s 			page 130


 5177 04aa 7D       		.byte	0x7d
 5178 04ab 00       		.sleb128 0
 5179 04ac 02000000 		.4byte	.LCFI62
 5180 04b0 04000000 		.4byte	.LCFI63
 5181 04b4 0200     		.2byte	0x2
 5182 04b6 7D       		.byte	0x7d
 5183 04b7 0C       		.sleb128 12
 5184 04b8 04000000 		.4byte	.LCFI63
 5185 04bc 06000000 		.4byte	.LCFI64
 5186 04c0 0200     		.2byte	0x2
 5187 04c2 7D       		.byte	0x7d
 5188 04c3 20       		.sleb128 32
 5189 04c4 06000000 		.4byte	.LCFI64
 5190 04c8 80000000 		.4byte	.LFE55
 5191 04cc 0200     		.2byte	0x2
 5192 04ce 77       		.byte	0x77
 5193 04cf 20       		.sleb128 32
 5194 04d0 00000000 		.4byte	0
 5195 04d4 00000000 		.4byte	0
 5196              	.LLST23:
 5197 04d8 00000000 		.4byte	.LFB56
 5198 04dc 02000000 		.4byte	.LCFI65
 5199 04e0 0200     		.2byte	0x2
 5200 04e2 7D       		.byte	0x7d
 5201 04e3 00       		.sleb128 0
 5202 04e4 02000000 		.4byte	.LCFI65
 5203 04e8 04000000 		.4byte	.LCFI66
 5204 04ec 0200     		.2byte	0x2
 5205 04ee 7D       		.byte	0x7d
 5206 04ef 08       		.sleb128 8
 5207 04f0 04000000 		.4byte	.LCFI66
 5208 04f4 06000000 		.4byte	.LCFI67
 5209 04f8 0200     		.2byte	0x2
 5210 04fa 7D       		.byte	0x7d
 5211 04fb 18       		.sleb128 24
 5212 04fc 06000000 		.4byte	.LCFI67
 5213 0500 30000000 		.4byte	.LFE56
 5214 0504 0200     		.2byte	0x2
 5215 0506 77       		.byte	0x77
 5216 0507 18       		.sleb128 24
 5217 0508 00000000 		.4byte	0
 5218 050c 00000000 		.4byte	0
 5219              	.LLST24:
 5220 0510 00000000 		.4byte	.LFB57
 5221 0514 02000000 		.4byte	.LCFI68
 5222 0518 0200     		.2byte	0x2
 5223 051a 7D       		.byte	0x7d
 5224 051b 00       		.sleb128 0
 5225 051c 02000000 		.4byte	.LCFI68
 5226 0520 04000000 		.4byte	.LCFI69
 5227 0524 0200     		.2byte	0x2
 5228 0526 7D       		.byte	0x7d
 5229 0527 08       		.sleb128 8
 5230 0528 04000000 		.4byte	.LCFI69
 5231 052c 2C000000 		.4byte	.LFE57
 5232 0530 0200     		.2byte	0x2
 5233 0532 77       		.byte	0x77
ARM GAS  C:\DOCUME~1\Chuck\LOCALS~1\Temp\cclVEGdP.s 			page 131


 5234 0533 08       		.sleb128 8
 5235 0534 00000000 		.4byte	0
 5236 0538 00000000 		.4byte	0
 5237              	.LLST25:
 5238 053c 00000000 		.4byte	.LFB58
 5239 0540 02000000 		.4byte	.LCFI70
 5240 0544 0200     		.2byte	0x2
 5241 0546 7D       		.byte	0x7d
 5242 0547 00       		.sleb128 0
 5243 0548 02000000 		.4byte	.LCFI70
 5244 054c 04000000 		.4byte	.LCFI71
 5245 0550 0200     		.2byte	0x2
 5246 0552 7D       		.byte	0x7d
 5247 0553 08       		.sleb128 8
 5248 0554 04000000 		.4byte	.LCFI71
 5249 0558 06000000 		.4byte	.LCFI72
 5250 055c 0200     		.2byte	0x2
 5251 055e 7D       		.byte	0x7d
 5252 055f 18       		.sleb128 24
 5253 0560 06000000 		.4byte	.LCFI72
 5254 0564 44000000 		.4byte	.LFE58
 5255 0568 0200     		.2byte	0x2
 5256 056a 77       		.byte	0x77
 5257 056b 18       		.sleb128 24
 5258 056c 00000000 		.4byte	0
 5259 0570 00000000 		.4byte	0
 5260              	.LLST26:
 5261 0574 00000000 		.4byte	.LFB59
 5262 0578 02000000 		.4byte	.LCFI73
 5263 057c 0200     		.2byte	0x2
 5264 057e 7D       		.byte	0x7d
 5265 057f 00       		.sleb128 0
 5266 0580 02000000 		.4byte	.LCFI73
 5267 0584 04000000 		.4byte	.LCFI74
 5268 0588 0200     		.2byte	0x2
 5269 058a 7D       		.byte	0x7d
 5270 058b 08       		.sleb128 8
 5271 058c 04000000 		.4byte	.LCFI74
 5272 0590 06000000 		.4byte	.LCFI75
 5273 0594 0200     		.2byte	0x2
 5274 0596 7D       		.byte	0x7d
 5275 0597 20       		.sleb128 32
 5276 0598 06000000 		.4byte	.LCFI75
 5277 059c 68000000 		.4byte	.LFE59
 5278 05a0 0200     		.2byte	0x2
 5279 05a2 77       		.byte	0x77
 5280 05a3 20       		.sleb128 32
 5281 05a4 00000000 		.4byte	0
 5282 05a8 00000000 		.4byte	0
 5283              	.LLST27:
 5284 05ac 00000000 		.4byte	.LFB60
 5285 05b0 02000000 		.4byte	.LCFI76
 5286 05b4 0200     		.2byte	0x2
 5287 05b6 7D       		.byte	0x7d
 5288 05b7 00       		.sleb128 0
 5289 05b8 02000000 		.4byte	.LCFI76
 5290 05bc 04000000 		.4byte	.LCFI77
ARM GAS  C:\DOCUME~1\Chuck\LOCALS~1\Temp\cclVEGdP.s 			page 132


 5291 05c0 0200     		.2byte	0x2
 5292 05c2 7D       		.byte	0x7d
 5293 05c3 08       		.sleb128 8
 5294 05c4 04000000 		.4byte	.LCFI77
 5295 05c8 06000000 		.4byte	.LCFI78
 5296 05cc 0200     		.2byte	0x2
 5297 05ce 7D       		.byte	0x7d
 5298 05cf 10       		.sleb128 16
 5299 05d0 06000000 		.4byte	.LCFI78
 5300 05d4 1C000000 		.4byte	.LFE60
 5301 05d8 0200     		.2byte	0x2
 5302 05da 77       		.byte	0x77
 5303 05db 10       		.sleb128 16
 5304 05dc 00000000 		.4byte	0
 5305 05e0 00000000 		.4byte	0
 5306              	.LLST28:
 5307 05e4 00000000 		.4byte	.LFB61
 5308 05e8 02000000 		.4byte	.LCFI79
 5309 05ec 0200     		.2byte	0x2
 5310 05ee 7D       		.byte	0x7d
 5311 05ef 00       		.sleb128 0
 5312 05f0 02000000 		.4byte	.LCFI79
 5313 05f4 04000000 		.4byte	.LCFI80
 5314 05f8 0200     		.2byte	0x2
 5315 05fa 7D       		.byte	0x7d
 5316 05fb 08       		.sleb128 8
 5317 05fc 04000000 		.4byte	.LCFI80
 5318 0600 06000000 		.4byte	.LCFI81
 5319 0604 0200     		.2byte	0x2
 5320 0606 7D       		.byte	0x7d
 5321 0607 10       		.sleb128 16
 5322 0608 06000000 		.4byte	.LCFI81
 5323 060c 20000000 		.4byte	.LFE61
 5324 0610 0200     		.2byte	0x2
 5325 0612 77       		.byte	0x77
 5326 0613 10       		.sleb128 16
 5327 0614 00000000 		.4byte	0
 5328 0618 00000000 		.4byte	0
 5329              	.LLST29:
 5330 061c 00000000 		.4byte	.LFB62
 5331 0620 02000000 		.4byte	.LCFI82
 5332 0624 0200     		.2byte	0x2
 5333 0626 7D       		.byte	0x7d
 5334 0627 00       		.sleb128 0
 5335 0628 02000000 		.4byte	.LCFI82
 5336 062c 04000000 		.4byte	.LCFI83
 5337 0630 0200     		.2byte	0x2
 5338 0632 7D       		.byte	0x7d
 5339 0633 08       		.sleb128 8
 5340 0634 04000000 		.4byte	.LCFI83
 5341 0638 06000000 		.4byte	.LCFI84
 5342 063c 0200     		.2byte	0x2
 5343 063e 7D       		.byte	0x7d
 5344 063f 10       		.sleb128 16
 5345 0640 06000000 		.4byte	.LCFI84
 5346 0644 1C000000 		.4byte	.LFE62
 5347 0648 0200     		.2byte	0x2
ARM GAS  C:\DOCUME~1\Chuck\LOCALS~1\Temp\cclVEGdP.s 			page 133


 5348 064a 77       		.byte	0x77
 5349 064b 10       		.sleb128 16
 5350 064c 00000000 		.4byte	0
 5351 0650 00000000 		.4byte	0
 5352              	.LLST30:
 5353 0654 00000000 		.4byte	.LFB63
 5354 0658 02000000 		.4byte	.LCFI85
 5355 065c 0200     		.2byte	0x2
 5356 065e 7D       		.byte	0x7d
 5357 065f 00       		.sleb128 0
 5358 0660 02000000 		.4byte	.LCFI85
 5359 0664 04000000 		.4byte	.LCFI86
 5360 0668 0200     		.2byte	0x2
 5361 066a 7D       		.byte	0x7d
 5362 066b 08       		.sleb128 8
 5363 066c 04000000 		.4byte	.LCFI86
 5364 0670 06000000 		.4byte	.LCFI87
 5365 0674 0200     		.2byte	0x2
 5366 0676 7D       		.byte	0x7d
 5367 0677 10       		.sleb128 16
 5368 0678 06000000 		.4byte	.LCFI87
 5369 067c 20000000 		.4byte	.LFE63
 5370 0680 0200     		.2byte	0x2
 5371 0682 77       		.byte	0x77
 5372 0683 10       		.sleb128 16
 5373 0684 00000000 		.4byte	0
 5374 0688 00000000 		.4byte	0
 5375              	.LLST31:
 5376 068c 00000000 		.4byte	.LFB64
 5377 0690 02000000 		.4byte	.LCFI88
 5378 0694 0200     		.2byte	0x2
 5379 0696 7D       		.byte	0x7d
 5380 0697 00       		.sleb128 0
 5381 0698 02000000 		.4byte	.LCFI88
 5382 069c 04000000 		.4byte	.LCFI89
 5383 06a0 0200     		.2byte	0x2
 5384 06a2 7D       		.byte	0x7d
 5385 06a3 08       		.sleb128 8
 5386 06a4 04000000 		.4byte	.LCFI89
 5387 06a8 06000000 		.4byte	.LCFI90
 5388 06ac 0200     		.2byte	0x2
 5389 06ae 7D       		.byte	0x7d
 5390 06af 10       		.sleb128 16
 5391 06b0 06000000 		.4byte	.LCFI90
 5392 06b4 1C000000 		.4byte	.LFE64
 5393 06b8 0200     		.2byte	0x2
 5394 06ba 77       		.byte	0x77
 5395 06bb 10       		.sleb128 16
 5396 06bc 00000000 		.4byte	0
 5397 06c0 00000000 		.4byte	0
 5398              	.LLST32:
 5399 06c4 00000000 		.4byte	.LFB65
 5400 06c8 02000000 		.4byte	.LCFI91
 5401 06cc 0200     		.2byte	0x2
 5402 06ce 7D       		.byte	0x7d
 5403 06cf 00       		.sleb128 0
 5404 06d0 02000000 		.4byte	.LCFI91
ARM GAS  C:\DOCUME~1\Chuck\LOCALS~1\Temp\cclVEGdP.s 			page 134


 5405 06d4 04000000 		.4byte	.LCFI92
 5406 06d8 0200     		.2byte	0x2
 5407 06da 7D       		.byte	0x7d
 5408 06db 08       		.sleb128 8
 5409 06dc 04000000 		.4byte	.LCFI92
 5410 06e0 06000000 		.4byte	.LCFI93
 5411 06e4 0200     		.2byte	0x2
 5412 06e6 7D       		.byte	0x7d
 5413 06e7 10       		.sleb128 16
 5414 06e8 06000000 		.4byte	.LCFI93
 5415 06ec 20000000 		.4byte	.LFE65
 5416 06f0 0200     		.2byte	0x2
 5417 06f2 77       		.byte	0x77
 5418 06f3 10       		.sleb128 16
 5419 06f4 00000000 		.4byte	0
 5420 06f8 00000000 		.4byte	0
 5421              	.LLST33:
 5422 06fc 00000000 		.4byte	.LFB66
 5423 0700 02000000 		.4byte	.LCFI94
 5424 0704 0200     		.2byte	0x2
 5425 0706 7D       		.byte	0x7d
 5426 0707 00       		.sleb128 0
 5427 0708 02000000 		.4byte	.LCFI94
 5428 070c 04000000 		.4byte	.LCFI95
 5429 0710 0200     		.2byte	0x2
 5430 0712 7D       		.byte	0x7d
 5431 0713 08       		.sleb128 8
 5432 0714 04000000 		.4byte	.LCFI95
 5433 0718 06000000 		.4byte	.LCFI96
 5434 071c 0200     		.2byte	0x2
 5435 071e 7D       		.byte	0x7d
 5436 071f 10       		.sleb128 16
 5437 0720 06000000 		.4byte	.LCFI96
 5438 0724 1C000000 		.4byte	.LFE66
 5439 0728 0200     		.2byte	0x2
 5440 072a 77       		.byte	0x77
 5441 072b 10       		.sleb128 16
 5442 072c 00000000 		.4byte	0
 5443 0730 00000000 		.4byte	0
 5444              	.LLST34:
 5445 0734 00000000 		.4byte	.LFB67
 5446 0738 02000000 		.4byte	.LCFI97
 5447 073c 0200     		.2byte	0x2
 5448 073e 7D       		.byte	0x7d
 5449 073f 00       		.sleb128 0
 5450 0740 02000000 		.4byte	.LCFI97
 5451 0744 04000000 		.4byte	.LCFI98
 5452 0748 0200     		.2byte	0x2
 5453 074a 7D       		.byte	0x7d
 5454 074b 08       		.sleb128 8
 5455 074c 04000000 		.4byte	.LCFI98
 5456 0750 06000000 		.4byte	.LCFI99
 5457 0754 0200     		.2byte	0x2
 5458 0756 7D       		.byte	0x7d
 5459 0757 10       		.sleb128 16
 5460 0758 06000000 		.4byte	.LCFI99
 5461 075c 20000000 		.4byte	.LFE67
ARM GAS  C:\DOCUME~1\Chuck\LOCALS~1\Temp\cclVEGdP.s 			page 135


 5462 0760 0200     		.2byte	0x2
 5463 0762 77       		.byte	0x77
 5464 0763 10       		.sleb128 16
 5465 0764 00000000 		.4byte	0
 5466 0768 00000000 		.4byte	0
 5467              	.LLST35:
 5468 076c 00000000 		.4byte	.LFB68
 5469 0770 02000000 		.4byte	.LCFI100
 5470 0774 0200     		.2byte	0x2
 5471 0776 7D       		.byte	0x7d
 5472 0777 00       		.sleb128 0
 5473 0778 02000000 		.4byte	.LCFI100
 5474 077c 04000000 		.4byte	.LCFI101
 5475 0780 0200     		.2byte	0x2
 5476 0782 7D       		.byte	0x7d
 5477 0783 08       		.sleb128 8
 5478 0784 04000000 		.4byte	.LCFI101
 5479 0788 20000000 		.4byte	.LFE68
 5480 078c 0200     		.2byte	0x2
 5481 078e 77       		.byte	0x77
 5482 078f 08       		.sleb128 8
 5483 0790 00000000 		.4byte	0
 5484 0794 00000000 		.4byte	0
 5485              	.LLST36:
 5486 0798 00000000 		.4byte	.LFB69
 5487 079c 02000000 		.4byte	.LCFI102
 5488 07a0 0200     		.2byte	0x2
 5489 07a2 7D       		.byte	0x7d
 5490 07a3 00       		.sleb128 0
 5491 07a4 02000000 		.4byte	.LCFI102
 5492 07a8 04000000 		.4byte	.LCFI103
 5493 07ac 0200     		.2byte	0x2
 5494 07ae 7D       		.byte	0x7d
 5495 07af 08       		.sleb128 8
 5496 07b0 04000000 		.4byte	.LCFI103
 5497 07b4 06000000 		.4byte	.LCFI104
 5498 07b8 0200     		.2byte	0x2
 5499 07ba 7D       		.byte	0x7d
 5500 07bb 10       		.sleb128 16
 5501 07bc 06000000 		.4byte	.LCFI104
 5502 07c0 3C000000 		.4byte	.LFE69
 5503 07c4 0200     		.2byte	0x2
 5504 07c6 77       		.byte	0x77
 5505 07c7 10       		.sleb128 16
 5506 07c8 00000000 		.4byte	0
 5507 07cc 00000000 		.4byte	0
 5508              	.LLST37:
 5509 07d0 00000000 		.4byte	.LFB70
 5510 07d4 02000000 		.4byte	.LCFI105
 5511 07d8 0200     		.2byte	0x2
 5512 07da 7D       		.byte	0x7d
 5513 07db 00       		.sleb128 0
 5514 07dc 02000000 		.4byte	.LCFI105
 5515 07e0 04000000 		.4byte	.LCFI106
 5516 07e4 0200     		.2byte	0x2
 5517 07e6 7D       		.byte	0x7d
 5518 07e7 08       		.sleb128 8
ARM GAS  C:\DOCUME~1\Chuck\LOCALS~1\Temp\cclVEGdP.s 			page 136


 5519 07e8 04000000 		.4byte	.LCFI106
 5520 07ec 06000000 		.4byte	.LCFI107
 5521 07f0 0200     		.2byte	0x2
 5522 07f2 7D       		.byte	0x7d
 5523 07f3 18       		.sleb128 24
 5524 07f4 06000000 		.4byte	.LCFI107
 5525 07f8 4E000000 		.4byte	.LFE70
 5526 07fc 0200     		.2byte	0x2
 5527 07fe 77       		.byte	0x77
 5528 07ff 18       		.sleb128 24
 5529 0800 00000000 		.4byte	0
 5530 0804 00000000 		.4byte	0
 5531              	.LLST38:
 5532 0808 00000000 		.4byte	.LFB71
 5533 080c 02000000 		.4byte	.LCFI108
 5534 0810 0200     		.2byte	0x2
 5535 0812 7D       		.byte	0x7d
 5536 0813 00       		.sleb128 0
 5537 0814 02000000 		.4byte	.LCFI108
 5538 0818 04000000 		.4byte	.LCFI109
 5539 081c 0200     		.2byte	0x2
 5540 081e 7D       		.byte	0x7d
 5541 081f 08       		.sleb128 8
 5542 0820 04000000 		.4byte	.LCFI109
 5543 0824 06000000 		.4byte	.LCFI110
 5544 0828 0200     		.2byte	0x2
 5545 082a 7D       		.byte	0x7d
 5546 082b 10       		.sleb128 16
 5547 082c 06000000 		.4byte	.LCFI110
 5548 0830 20000000 		.4byte	.LFE71
 5549 0834 0200     		.2byte	0x2
 5550 0836 77       		.byte	0x77
 5551 0837 10       		.sleb128 16
 5552 0838 00000000 		.4byte	0
 5553 083c 00000000 		.4byte	0
 5554              		.section	.debug_aranges,"",%progbits
 5555 0000 4C010000 		.4byte	0x14c
 5556 0004 0200     		.2byte	0x2
 5557 0006 00000000 		.4byte	.Ldebug_info0
 5558 000a 04       		.byte	0x4
 5559 000b 00       		.byte	0
 5560 000c 0000     		.2byte	0
 5561 000e 0000     		.2byte	0
 5562 0010 00000000 		.4byte	.LFB33
 5563 0014 3C000000 		.4byte	.LFE33-.LFB33
 5564 0018 00000000 		.4byte	.LFB34
 5565 001c C0000000 		.4byte	.LFE34-.LFB34
 5566 0020 00000000 		.4byte	.LFB35
 5567 0024 50000000 		.4byte	.LFE35-.LFB35
 5568 0028 00000000 		.4byte	.LFB36
 5569 002c 44000000 		.4byte	.LFE36-.LFB36
 5570 0030 00000000 		.4byte	.LFB37
 5571 0034 38000000 		.4byte	.LFE37-.LFB37
 5572 0038 00000000 		.4byte	.LFB38
 5573 003c 4C000000 		.4byte	.LFE38-.LFB38
 5574 0040 00000000 		.4byte	.LFB39
 5575 0044 34000000 		.4byte	.LFE39-.LFB39
ARM GAS  C:\DOCUME~1\Chuck\LOCALS~1\Temp\cclVEGdP.s 			page 137


 5576 0048 00000000 		.4byte	.LFB40
 5577 004c DC000000 		.4byte	.LFE40-.LFB40
 5578 0050 00000000 		.4byte	.LFB41
 5579 0054 58000000 		.4byte	.LFE41-.LFB41
 5580 0058 00000000 		.4byte	.LFB42
 5581 005c 1C000000 		.4byte	.LFE42-.LFB42
 5582 0060 00000000 		.4byte	.LFB43
 5583 0064 1C000000 		.4byte	.LFE43-.LFB43
 5584 0068 00000000 		.4byte	.LFB44
 5585 006c 24000000 		.4byte	.LFE44-.LFB44
 5586 0070 00000000 		.4byte	.LFB45
 5587 0074 20000000 		.4byte	.LFE45-.LFB45
 5588 0078 00000000 		.4byte	.LFB46
 5589 007c 1C000000 		.4byte	.LFE46-.LFB46
 5590 0080 00000000 		.4byte	.LFB47
 5591 0084 26000000 		.4byte	.LFE47-.LFB47
 5592 0088 00000000 		.4byte	.LFB48
 5593 008c CC000000 		.4byte	.LFE48-.LFB48
 5594 0090 00000000 		.4byte	.LFB49
 5595 0094 24010000 		.4byte	.LFE49-.LFB49
 5596 0098 00000000 		.4byte	.LFB50
 5597 009c 58000000 		.4byte	.LFE50-.LFB50
 5598 00a0 00000000 		.4byte	.LFB51
 5599 00a4 38000000 		.4byte	.LFE51-.LFB51
 5600 00a8 00000000 		.4byte	.LFB52
 5601 00ac 5C000000 		.4byte	.LFE52-.LFB52
 5602 00b0 00000000 		.4byte	.LFB53
 5603 00b4 3C010000 		.4byte	.LFE53-.LFB53
 5604 00b8 00000000 		.4byte	.LFB54
 5605 00bc C8000000 		.4byte	.LFE54-.LFB54
 5606 00c0 00000000 		.4byte	.LFB55
 5607 00c4 80000000 		.4byte	.LFE55-.LFB55
 5608 00c8 00000000 		.4byte	.LFB56
 5609 00cc 30000000 		.4byte	.LFE56-.LFB56
 5610 00d0 00000000 		.4byte	.LFB57
 5611 00d4 2C000000 		.4byte	.LFE57-.LFB57
 5612 00d8 00000000 		.4byte	.LFB58
 5613 00dc 44000000 		.4byte	.LFE58-.LFB58
 5614 00e0 00000000 		.4byte	.LFB59
 5615 00e4 68000000 		.4byte	.LFE59-.LFB59
 5616 00e8 00000000 		.4byte	.LFB60
 5617 00ec 1C000000 		.4byte	.LFE60-.LFB60
 5618 00f0 00000000 		.4byte	.LFB61
 5619 00f4 20000000 		.4byte	.LFE61-.LFB61
 5620 00f8 00000000 		.4byte	.LFB62
 5621 00fc 1C000000 		.4byte	.LFE62-.LFB62
 5622 0100 00000000 		.4byte	.LFB63
 5623 0104 20000000 		.4byte	.LFE63-.LFB63
 5624 0108 00000000 		.4byte	.LFB64
 5625 010c 1C000000 		.4byte	.LFE64-.LFB64
 5626 0110 00000000 		.4byte	.LFB65
 5627 0114 20000000 		.4byte	.LFE65-.LFB65
 5628 0118 00000000 		.4byte	.LFB66
 5629 011c 1C000000 		.4byte	.LFE66-.LFB66
 5630 0120 00000000 		.4byte	.LFB67
 5631 0124 20000000 		.4byte	.LFE67-.LFB67
 5632 0128 00000000 		.4byte	.LFB68
ARM GAS  C:\DOCUME~1\Chuck\LOCALS~1\Temp\cclVEGdP.s 			page 138


 5633 012c 20000000 		.4byte	.LFE68-.LFB68
 5634 0130 00000000 		.4byte	.LFB69
 5635 0134 3C000000 		.4byte	.LFE69-.LFB69
 5636 0138 00000000 		.4byte	.LFB70
 5637 013c 4E000000 		.4byte	.LFE70-.LFB70
 5638 0140 00000000 		.4byte	.LFB71
 5639 0144 20000000 		.4byte	.LFE71-.LFB71
 5640 0148 00000000 		.4byte	0
 5641 014c 00000000 		.4byte	0
 5642              		.section	.debug_ranges,"",%progbits
 5643              	.Ldebug_ranges0:
 5644 0000 00000000 		.4byte	.LFB33
 5645 0004 3C000000 		.4byte	.LFE33
 5646 0008 00000000 		.4byte	.LFB34
 5647 000c C0000000 		.4byte	.LFE34
 5648 0010 00000000 		.4byte	.LFB35
 5649 0014 50000000 		.4byte	.LFE35
 5650 0018 00000000 		.4byte	.LFB36
 5651 001c 44000000 		.4byte	.LFE36
 5652 0020 00000000 		.4byte	.LFB37
 5653 0024 38000000 		.4byte	.LFE37
 5654 0028 00000000 		.4byte	.LFB38
 5655 002c 4C000000 		.4byte	.LFE38
 5656 0030 00000000 		.4byte	.LFB39
 5657 0034 34000000 		.4byte	.LFE39
 5658 0038 00000000 		.4byte	.LFB40
 5659 003c DC000000 		.4byte	.LFE40
 5660 0040 00000000 		.4byte	.LFB41
 5661 0044 58000000 		.4byte	.LFE41
 5662 0048 00000000 		.4byte	.LFB42
 5663 004c 1C000000 		.4byte	.LFE42
 5664 0050 00000000 		.4byte	.LFB43
 5665 0054 1C000000 		.4byte	.LFE43
 5666 0058 00000000 		.4byte	.LFB44
 5667 005c 24000000 		.4byte	.LFE44
 5668 0060 00000000 		.4byte	.LFB45
 5669 0064 20000000 		.4byte	.LFE45
 5670 0068 00000000 		.4byte	.LFB46
 5671 006c 1C000000 		.4byte	.LFE46
 5672 0070 00000000 		.4byte	.LFB47
 5673 0074 26000000 		.4byte	.LFE47
 5674 0078 00000000 		.4byte	.LFB48
 5675 007c CC000000 		.4byte	.LFE48
 5676 0080 00000000 		.4byte	.LFB49
 5677 0084 24010000 		.4byte	.LFE49
 5678 0088 00000000 		.4byte	.LFB50
 5679 008c 58000000 		.4byte	.LFE50
 5680 0090 00000000 		.4byte	.LFB51
 5681 0094 38000000 		.4byte	.LFE51
 5682 0098 00000000 		.4byte	.LFB52
 5683 009c 5C000000 		.4byte	.LFE52
 5684 00a0 00000000 		.4byte	.LFB53
 5685 00a4 3C010000 		.4byte	.LFE53
 5686 00a8 00000000 		.4byte	.LFB54
 5687 00ac C8000000 		.4byte	.LFE54
 5688 00b0 00000000 		.4byte	.LFB55
 5689 00b4 80000000 		.4byte	.LFE55
ARM GAS  C:\DOCUME~1\Chuck\LOCALS~1\Temp\cclVEGdP.s 			page 139


 5690 00b8 00000000 		.4byte	.LFB56
 5691 00bc 30000000 		.4byte	.LFE56
 5692 00c0 00000000 		.4byte	.LFB57
 5693 00c4 2C000000 		.4byte	.LFE57
 5694 00c8 00000000 		.4byte	.LFB58
 5695 00cc 44000000 		.4byte	.LFE58
 5696 00d0 00000000 		.4byte	.LFB59
 5697 00d4 68000000 		.4byte	.LFE59
 5698 00d8 00000000 		.4byte	.LFB60
 5699 00dc 1C000000 		.4byte	.LFE60
 5700 00e0 00000000 		.4byte	.LFB61
 5701 00e4 20000000 		.4byte	.LFE61
 5702 00e8 00000000 		.4byte	.LFB62
 5703 00ec 1C000000 		.4byte	.LFE62
 5704 00f0 00000000 		.4byte	.LFB63
 5705 00f4 20000000 		.4byte	.LFE63
 5706 00f8 00000000 		.4byte	.LFB64
 5707 00fc 1C000000 		.4byte	.LFE64
 5708 0100 00000000 		.4byte	.LFB65
 5709 0104 20000000 		.4byte	.LFE65
 5710 0108 00000000 		.4byte	.LFB66
 5711 010c 1C000000 		.4byte	.LFE66
 5712 0110 00000000 		.4byte	.LFB67
 5713 0114 20000000 		.4byte	.LFE67
 5714 0118 00000000 		.4byte	.LFB68
 5715 011c 20000000 		.4byte	.LFE68
 5716 0120 00000000 		.4byte	.LFB69
 5717 0124 3C000000 		.4byte	.LFE69
 5718 0128 00000000 		.4byte	.LFB70
 5719 012c 4E000000 		.4byte	.LFE70
 5720 0130 00000000 		.4byte	.LFB71
 5721 0134 20000000 		.4byte	.LFE71
 5722 0138 00000000 		.4byte	0
 5723 013c 00000000 		.4byte	0
 5724              		.section	.debug_line,"",%progbits
 5725              	.Ldebug_line0:
 5726 0000 67040000 		.section	.debug_str,"MS",%progbits,1
 5726      02004700 
 5726      00000201 
 5726      FB0E0D00 
 5726      01010101 
 5727              	.LASF20:
 5728 0000 63757253 		.ascii	"curSensor\000"
 5728      656E736F 
 5728      7200
 5729              	.LASF111:
 5730 000a 43617053 		.ascii	"CapSense_compensationIDAC\000"
 5730      656E7365 
 5730      5F636F6D 
 5730      70656E73 
 5730      6174696F 
 5731              	.LASF114:
 5732 0024 43617053 		.ascii	"CapSense_sampleClkDividerVal\000"
 5732      656E7365 
 5732      5F73616D 
 5732      706C6543 
 5732      6C6B4469 
ARM GAS  C:\DOCUME~1\Chuck\LOCALS~1\Temp\cclVEGdP.s 			page 140


 5733              	.LASF10:
 5734 0041 75696E74 		.ascii	"uint16\000"
 5734      313600
 5735              	.LASF75:
 5736 0048 43617053 		.ascii	"CapSense_SetSenseClkDivider\000"
 5736      656E7365 
 5736      5F536574 
 5736      53656E73 
 5736      65436C6B 
 5737              	.LASF93:
 5738 0064 43617053 		.ascii	"CapSense_initVar\000"
 5738      656E7365 
 5738      5F696E69 
 5738      74566172 
 5738      00
 5739              	.LASF106:
 5740 0075 43617053 		.ascii	"CapSense_pcTable\000"
 5740      656E7365 
 5740      5F706354 
 5740      61626C65 
 5740      00
 5741              	.LASF69:
 5742 0086 7461626C 		.ascii	"table\000"
 5742      6500
 5743              	.LASF94:
 5744 008c 43617053 		.ascii	"CapSense_lowLevelTuningDone\000"
 5744      656E7365 
 5744      5F6C6F77 
 5744      4C657665 
 5744      6C54756E 
 5745              	.LASF27:
 5746 00a8 736E7349 		.ascii	"snsIndex\000"
 5746      6E646578 
 5746      00
 5747              	.LASF86:
 5748 00b1 43617053 		.ascii	"CapSense_GetIDACRange\000"
 5748      656E7365 
 5748      5F476574 
 5748      49444143 
 5748      52616E67 
 5749              	.LASF80:
 5750 00c7 43617053 		.ascii	"CapSense_GetModulationIDAC\000"
 5750      656E7365 
 5750      5F476574 
 5750      4D6F6475 
 5750      6C617469 
 5751              	.LASF40:
 5752 00e2 43617053 		.ascii	"CapSense_GetScanResolution\000"
 5752      656E7365 
 5752      5F476574 
 5752      5363616E 
 5752      5265736F 
 5753              	.LASF7:
 5754 00fd 6C6F6E67 		.ascii	"long long unsigned int\000"
 5754      206C6F6E 
 5754      6720756E 
 5754      7369676E 
ARM GAS  C:\DOCUME~1\Chuck\LOCALS~1\Temp\cclVEGdP.s 			page 141


 5754      65642069 
 5755              	.LASF103:
 5756 0114 43617053 		.ascii	"CapSense_unscannedSnsDriveMode\000"
 5756      656E7365 
 5756      5F756E73 
 5756      63616E6E 
 5756      6564536E 
 5757              	.LASF83:
 5758 0133 43617053 		.ascii	"CapSense_GetCompensationIDAC\000"
 5758      656E7365 
 5758      5F476574 
 5758      436F6D70 
 5758      656E7361 
 5759              	.LASF79:
 5760 0150 6D6F6475 		.ascii	"modulatorClk\000"
 5760      6C61746F 
 5760      72436C6B 
 5760      00
 5761              	.LASF65:
 5762 015d 64656C61 		.ascii	"delay\000"
 5762      7900
 5763              	.LASF22:
 5764 0163 43617053 		.ascii	"CapSense_Enable\000"
 5764      656E7365 
 5764      5F456E61 
 5764      626C6500 
 5765              	.LASF35:
 5766 0173 43617053 		.ascii	"CapSense_ReadSensorRaw\000"
 5766      656E7365 
 5766      5F526561 
 5766      6453656E 
 5766      736F7252 
 5767              	.LASF43:
 5768 018a 70696E4D 		.ascii	"pinModeShift\000"
 5768      6F646553 
 5768      68696674 
 5768      00
 5769              	.LASF6:
 5770 0197 6C6F6E67 		.ascii	"long long int\000"
 5770      206C6F6E 
 5770      6720696E 
 5770      7400
 5771              	.LASF0:
 5772 01a5 7369676E 		.ascii	"signed char\000"
 5772      65642063 
 5772      68617200 
 5773              	.LASF115:
 5774 01b1 43617053 		.ascii	"CapSense_prtSelTbl\000"
 5774      656E7365 
 5774      5F707274 
 5774      53656C54 
 5774      626C00
 5775              	.LASF56:
 5776 01c4 43617053 		.ascii	"CapSense_SetPinDriveMode\000"
 5776      656E7365 
 5776      5F536574 
 5776      50696E44 
ARM GAS  C:\DOCUME~1\Chuck\LOCALS~1\Temp\cclVEGdP.s 			page 142


 5776      72697665 
 5777              	.LASF45:
 5778 01dd 696E7465 		.ascii	"interruptState\000"
 5778      72727570 
 5778      74537461 
 5778      746500
 5779              	.LASF4:
 5780 01ec 6C6F6E67 		.ascii	"long int\000"
 5780      20696E74 
 5780      00
 5781              	.LASF9:
 5782 01f5 75696E74 		.ascii	"uint8\000"
 5782      3800
 5783              	.LASF38:
 5784 01fb 43617053 		.ascii	"CapSense_SetScanResolution\000"
 5784      656E7365 
 5784      5F536574 
 5784      5363616E 
 5784      5265736F 
 5785              	.LASF49:
 5786 0216 696E6163 		.ascii	"inactiveConnect\000"
 5786      74697665 
 5786      436F6E6E 
 5786      65637400 
 5787              	.LASF13:
 5788 0226 646F7562 		.ascii	"double\000"
 5788      6C6500
 5789              	.LASF91:
 5790 022d 61766756 		.ascii	"avgVal\000"
 5790      616C00
 5791              	.LASF42:
 5792 0234 43617053 		.ascii	"CapSense_EnableSensor\000"
 5792      656E7365 
 5792      5F456E61 
 5792      626C6553 
 5792      656E736F 
 5793              	.LASF81:
 5794 024a 43617053 		.ascii	"CapSense_SetModulationIDAC\000"
 5794      656E7365 
 5794      5F536574 
 5794      4D6F6475 
 5794      6C617469 
 5795              	.LASF60:
 5796 0265 636F756E 		.ascii	"counterResolution\000"
 5796      74657252 
 5796      65736F6C 
 5796      7574696F 
 5796      6E00
 5797              	.LASF96:
 5798 0277 43617053 		.ascii	"CapSense_widgetNumber\000"
 5798      656E7365 
 5798      5F776964 
 5798      6765744E 
 5798      756D6265 
 5799              	.LASF21:
 5800 028d 6E657752 		.ascii	"newRegValue\000"
 5800      65675661 
ARM GAS  C:\DOCUME~1\Chuck\LOCALS~1\Temp\cclVEGdP.s 			page 143


 5800      6C756500 
 5801              	.LASF11:
 5802 0299 75696E74 		.ascii	"uint32\000"
 5802      333200
 5803              	.LASF92:
 5804 02a0 43617053 		.ascii	"CapSense_SetUnscannedSensorState\000"
 5804      656E7365 
 5804      5F536574 
 5804      556E7363 
 5804      616E6E65 
 5805              	.LASF71:
 5806 02c1 6F666673 		.ascii	"offset\000"
 5806      657400
 5807              	.LASF47:
 5808 02c8 706F7274 		.ascii	"port\000"
 5808      00
 5809              	.LASF98:
 5810 02cd 43617053 		.ascii	"CapSense_sensorIndex\000"
 5810      656E7365 
 5810      5F73656E 
 5810      736F7249 
 5810      6E646578 
 5811              	.LASF37:
 5812 02e2 76616C75 		.ascii	"value\000"
 5812      6500
 5813              	.LASF32:
 5814 02e8 6C617374 		.ascii	"lastSensor\000"
 5814      53656E73 
 5814      6F7200
 5815              	.LASF53:
 5816 02f3 7072744E 		.ascii	"prtNumberTmp\000"
 5816      756D6265 
 5816      72546D70 
 5816      00
 5817              	.LASF26:
 5818 0300 43617053 		.ascii	"CapSense_ScanSensor\000"
 5818      656E7365 
 5818      5F536361 
 5818      6E53656E 
 5818      736F7200 
 5819              	.LASF8:
 5820 0314 756E7369 		.ascii	"unsigned int\000"
 5820      676E6564 
 5820      20696E74 
 5820      00
 5821              	.LASF70:
 5822 0321 706F7369 		.ascii	"position\000"
 5822      74696F6E 
 5822      00
 5823              	.LASF41:
 5824 032a 43617053 		.ascii	"CapSense_ClearSensors\000"
 5824      656E7365 
 5824      5F436C65 
 5824      61725365 
 5824      6E736F72 
 5825              	.LASF5:
 5826 0340 6C6F6E67 		.ascii	"long unsigned int\000"
ARM GAS  C:\DOCUME~1\Chuck\LOCALS~1\Temp\cclVEGdP.s 			page 144


 5826      20756E73 
 5826      69676E65 
 5826      6420696E 
 5826      7400
 5827              	.LASF108:
 5828 0352 43617053 		.ascii	"CapSense_maskTable\000"
 5828      656E7365 
 5828      5F6D6173 
 5828      6B546162 
 5828      6C6500
 5829              	.LASF107:
 5830 0365 43617053 		.ascii	"CapSense_portTable\000"
 5830      656E7365 
 5830      5F706F72 
 5830      74546162 
 5830      6C6500
 5831              	.LASF19:
 5832 0378 43617053 		.ascii	"CapSense_CsdHwBlockInit\000"
 5832      656E7365 
 5832      5F437364 
 5832      4877426C 
 5832      6F636B49 
 5833              	.LASF3:
 5834 0390 73686F72 		.ascii	"short unsigned int\000"
 5834      7420756E 
 5834      7369676E 
 5834      65642069 
 5834      6E7400
 5835              	.LASF51:
 5836 03a3 43617053 		.ascii	"CapSense_SetDriveModeAllPins\000"
 5836      656E7365 
 5836      5F536574 
 5836      44726976 
 5836      654D6F64 
 5837              	.LASF120:
 5838 03c0 433A5C44 		.ascii	"C:\\Documents and Settings\\Chuck\\My Documents\\PS"
 5838      6F63756D 
 5838      656E7473 
 5838      20616E64 
 5838      20536574 
 5839 03ef 6F432043 		.ascii	"oC Creator\\RosOnAStick\\RosOnAStick.cydsn\000"
 5839      72656174 
 5839      6F725C52 
 5839      6F734F6E 
 5839      41537469 
 5840              	.LASF28:
 5841 0418 73656E73 		.ascii	"sensor\000"
 5841      6F7200
 5842              	.LASF105:
 5843 041f 43617053 		.ascii	"CapSense_sensorEnableMask\000"
 5843      656E7365 
 5843      5F73656E 
 5843      736F7245 
 5843      6E61626C 
 5844              	.LASF58:
 5845 0439 706F7274 		.ascii	"portNumber\000"
 5845      4E756D62 
ARM GAS  C:\DOCUME~1\Chuck\LOCALS~1\Temp\cclVEGdP.s 			page 145


 5845      657200
 5846              	.LASF76:
 5847 0444 73656E73 		.ascii	"senseClk\000"
 5847      65436C6B 
 5847      00
 5848              	.LASF16:
 5849 044d 72656733 		.ascii	"reg32\000"
 5849      3200
 5850              	.LASF110:
 5851 0453 43617053 		.ascii	"CapSense_modulationIDAC\000"
 5851      656E7365 
 5851      5F6D6F64 
 5851      756C6174 
 5851      696F6E49 
 5852              	.LASF113:
 5853 046b 43617053 		.ascii	"CapSense_senseClkDividerVal\000"
 5853      656E7365 
 5853      5F73656E 
 5853      7365436C 
 5853      6B446976 
 5854              	.LASF17:
 5855 0487 73697A65 		.ascii	"sizetype\000"
 5855      74797065 
 5855      00
 5856              	.LASF104:
 5857 0490 43617053 		.ascii	"CapSense_sensorEnableMaskBackup\000"
 5857      656E7365 
 5857      5F73656E 
 5857      736F7245 
 5857      6E61626C 
 5858              	.LASF52:
 5859 04b0 64726976 		.ascii	"driveMode\000"
 5859      654D6F64 
 5859      6500
 5860              	.LASF24:
 5861 04ba 43617053 		.ascii	"CapSense_Stop\000"
 5861      656E7365 
 5861      5F53746F 
 5861      7000
 5862              	.LASF72:
 5863 04c8 656E4D61 		.ascii	"enMask\000"
 5863      736B00
 5864              	.LASF102:
 5865 04cf 43617053 		.ascii	"CapSense_csdTrim1\000"
 5865      656E7365 
 5865      5F637364 
 5865      5472696D 
 5865      3100
 5866              	.LASF73:
 5867 04e1 43617053 		.ascii	"CapSense_SetBitValue\000"
 5867      656E7365 
 5867      5F536574 
 5867      42697456 
 5867      616C7565 
 5868              	.LASF85:
 5869 04f6 636F6D70 		.ascii	"compIdacValue\000"
 5869      49646163 
ARM GAS  C:\DOCUME~1\Chuck\LOCALS~1\Temp\cclVEGdP.s 			page 146


 5869      56616C75 
 5869      6500
 5870              	.LASF55:
 5871 0504 43617053 		.ascii	"CapSense_RestoreDriveModeAllPins\000"
 5871      656E7365 
 5871      5F526573 
 5871      746F7265 
 5871      44726976 
 5872              	.LASF12:
 5873 0525 666C6F61 		.ascii	"float\000"
 5873      7400
 5874              	.LASF57:
 5875 052b 70696E4E 		.ascii	"pinNumber\000"
 5875      756D6265 
 5875      7200
 5876              	.LASF88:
 5877 0535 69446163 		.ascii	"iDacRange\000"
 5877      52616E67 
 5877      6500
 5878              	.LASF119:
 5879 053f 2E5C4765 		.ascii	".\\Generated_Source\\PSoC4\\CapSense.c\000"
 5879      6E657261 
 5879      7465645F 
 5879      536F7572 
 5879      63655C50 
 5880              	.LASF118:
 5881 0563 474E5520 		.ascii	"GNU C 4.7.3 20130312 (release) [ARM/embedded-4_7-br"
 5881      4320342E 
 5881      372E3320 
 5881      32303133 
 5881      30333132 
 5882 0596 616E6368 		.ascii	"anch revision 196615]\000"
 5882      20726576 
 5882      6973696F 
 5882      6E203139 
 5882      36363135 
 5883              	.LASF15:
 5884 05ac 72656738 		.ascii	"reg8\000"
 5884      00
 5885              	.LASF34:
 5886 05b1 43617053 		.ascii	"CapSense_FindNextSensor\000"
 5886      656E7365 
 5886      5F46696E 
 5886      644E6578 
 5886      7453656E 
 5887              	.LASF1:
 5888 05c9 756E7369 		.ascii	"unsigned char\000"
 5888      676E6564 
 5888      20636861 
 5888      7200
 5889              	.LASF44:
 5890 05d7 70696E48 		.ascii	"pinHSIOMShift\000"
 5890      53494F4D 
 5890      53686966 
 5890      7400
 5891              	.LASF54:
 5892 05e5 70696E4E 		.ascii	"pinNumberTmp\000"
ARM GAS  C:\DOCUME~1\Chuck\LOCALS~1\Temp\cclVEGdP.s 			page 147


 5892      756D6265 
 5892      72546D70 
 5892      00
 5893              	.LASF112:
 5894 05f2 43617053 		.ascii	"CapSense_widgetResolution\000"
 5894      656E7365 
 5894      5F776964 
 5894      67657452 
 5894      65736F6C 
 5895              	.LASF2:
 5896 060c 73686F72 		.ascii	"short int\000"
 5896      7420696E 
 5896      7400
 5897              	.LASF30:
 5898 0616 77696467 		.ascii	"widget\000"
 5898      657400
 5899              	.LASF50:
 5900 061d 73656E73 		.ascii	"sensorState\000"
 5900      6F725374 
 5900      61746500 
 5901              	.LASF100:
 5902 0629 43617053 		.ascii	"CapSense_rawDataIndex\000"
 5902      656E7365 
 5902      5F726177 
 5902      44617461 
 5902      496E6465 
 5903              	.LASF67:
 5904 063f 43617053 		.ascii	"CapSense_ReadCurrentScanningSensor\000"
 5904      656E7365 
 5904      5F526561 
 5904      64437572 
 5904      72656E74 
 5905              	.LASF61:
 5906 0662 6F766572 		.ascii	"oversamplingFactor\000"
 5906      73616D70 
 5906      6C696E67 
 5906      46616374 
 5906      6F7200
 5907              	.LASF31:
 5908 0675 73656E73 		.ascii	"sensorsPerWidget\000"
 5908      6F727350 
 5908      65725769 
 5908      64676574 
 5908      00
 5909              	.LASF90:
 5910 0686 63757253 		.ascii	"curSample\000"
 5910      616D706C 
 5910      6500
 5911              	.LASF39:
 5912 0690 7265736F 		.ascii	"resolution\000"
 5912      6C757469 
 5912      6F6E00
 5913              	.LASF63:
 5914 069b 43617053 		.ascii	"CapSense_EnableShieldElectrode\000"
 5914      656E7365 
 5914      5F456E61 
 5914      626C6553 
ARM GAS  C:\DOCUME~1\Chuck\LOCALS~1\Temp\cclVEGdP.s 			page 148


 5914      6869656C 
 5915              	.LASF14:
 5916 06ba 63686172 		.ascii	"char\000"
 5916      00
 5917              	.LASF25:
 5918 06bf 656E6162 		.ascii	"enableFlag\000"
 5918      6C65466C 
 5918      616700
 5919              	.LASF97:
 5920 06ca 43617053 		.ascii	"CapSense_csdStatusVar\000"
 5920      656E7365 
 5920      5F637364 
 5920      53746174 
 5920      75735661 
 5921              	.LASF117:
 5922 06e0 43617053 		.ascii	"CapSense_prtDRTbl\000"
 5922      656E7365 
 5922      5F707274 
 5922      44525462 
 5922      6C00
 5923              	.LASF23:
 5924 06f2 43617053 		.ascii	"CapSense_Start\000"
 5924      656E7365 
 5924      5F537461 
 5924      727400
 5925              	.LASF84:
 5926 0701 43617053 		.ascii	"CapSense_SetCompensationIDAC\000"
 5926      656E7365 
 5926      5F536574 
 5926      436F6D70 
 5926      656E7361 
 5927              	.LASF109:
 5928 071e 43617053 		.ascii	"CapSense_pinShiftTbl\000"
 5928      656E7365 
 5928      5F70696E 
 5928      53686966 
 5928      7454626C 
 5929              	.LASF62:
 5930 0733 43617053 		.ascii	"CapSense_PostScan\000"
 5930      656E7365 
 5930      5F506F73 
 5930      74536361 
 5930      6E00
 5931              	.LASF87:
 5932 0745 43617053 		.ascii	"CapSense_SetIDACRange\000"
 5932      656E7365 
 5932      5F536574 
 5932      49444143 
 5932      52616E67 
 5933              	.LASF116:
 5934 075b 43617053 		.ascii	"CapSense_prtCfgTbl\000"
 5934      656E7365 
 5934      5F707274 
 5934      43666754 
 5934      626C00
 5935              	.LASF101:
 5936 076e 7363616E 		.ascii	"scanSpeedTbl\000"
ARM GAS  C:\DOCUME~1\Chuck\LOCALS~1\Temp\cclVEGdP.s 			page 149


 5936      53706565 
 5936      6454626C 
 5936      00
 5937              	.LASF36:
 5938 077b 43617053 		.ascii	"CapSense_WriteSensorRaw\000"
 5938      656E7365 
 5938      5F577269 
 5938      74655365 
 5938      6E736F72 
 5939              	.LASF78:
 5940 0793 43617053 		.ascii	"CapSense_SetModulatorClkDivider\000"
 5940      656E7365 
 5940      5F536574 
 5940      4D6F6475 
 5940      6C61746F 
 5941              	.LASF29:
 5942 07b3 43617053 		.ascii	"CapSense_ScanWidget\000"
 5942      656E7365 
 5942      5F536361 
 5942      6E576964 
 5942      67657400 
 5943              	.LASF48:
 5944 07c7 43617053 		.ascii	"CapSense_DisableSensor\000"
 5944      656E7365 
 5944      5F446973 
 5944      61626C65 
 5944      53656E73 
 5945              	.LASF46:
 5946 07de 6E657752 		.ascii	"newRegisterValue\000"
 5946      65676973 
 5946      74657256 
 5946      616C7565 
 5946      00
 5947              	.LASF89:
 5948 07ef 43617053 		.ascii	"CapSense_GetSensorRaw\000"
 5948      656E7365 
 5948      5F476574 
 5948      53656E73 
 5948      6F725261 
 5949              	.LASF59:
 5950 0805 43617053 		.ascii	"CapSense_PreScan\000"
 5950      656E7365 
 5950      5F507265 
 5950      5363616E 
 5950      00
 5951              	.LASF18:
 5952 0816 43617053 		.ascii	"CapSense_Init\000"
 5952      656E7365 
 5952      5F496E69 
 5952      7400
 5953              	.LASF95:
 5954 0824 43617053 		.ascii	"CapSense_sensorRaw\000"
 5954      656E7365 
 5954      5F73656E 
 5954      736F7252 
 5954      617700
 5955              	.LASF68:
ARM GAS  C:\DOCUME~1\Chuck\LOCALS~1\Temp\cclVEGdP.s 			page 150


 5956 0837 43617053 		.ascii	"CapSense_GetBitValue\000"
 5956      656E7365 
 5956      5F476574 
 5956      42697456 
 5956      616C7565 
 5957              	.LASF33:
 5958 084c 43617053 		.ascii	"CapSense_ScanEnabledWidgets\000"
 5958      656E7365 
 5958      5F536361 
 5958      6E456E61 
 5958      626C6564 
 5959              	.LASF77:
 5960 0868 43617053 		.ascii	"CapSense_GetModulatorClkDivider\000"
 5960      656E7365 
 5960      5F476574 
 5960      4D6F6475 
 5960      6C61746F 
 5961              	.LASF64:
 5962 0888 43617053 		.ascii	"CapSense_SetShieldDelay\000"
 5962      656E7365 
 5962      5F536574 
 5962      53686965 
 5962      6C644465 
 5963              	.LASF82:
 5964 08a0 6D6F6449 		.ascii	"modIdacValue\000"
 5964      64616356 
 5964      616C7565 
 5964      00
 5965              	.LASF74:
 5966 08ad 43617053 		.ascii	"CapSense_GetSenseClkDivider\000"
 5966      656E7365 
 5966      5F476574 
 5966      53656E73 
 5966      65436C6B 
 5967              	.LASF66:
 5968 08c9 43617053 		.ascii	"CapSense_IsBusy\000"
 5968      656E7365 
 5968      5F497342 
 5968      75737900 
 5969              	.LASF99:
 5970 08d9 43617053 		.ascii	"CapSense_numberOfSensors\000"
 5970      656E7365 
 5970      5F6E756D 
 5970      6265724F 
 5970      6653656E 
 5971              		.ident	"GCC: (GNU Tools for ARM Embedded Processors) 4.7.3 20130312 (release) [ARM/embedded-4_7-br
