ARM GAS  C:\DOCUME~1\Chuck\LOCALS~1\Temp\ccX3vOCl.s 			page 1


   1              		.cpu cortex-m0
   2              		.fpu softvfp
   3              		.eabi_attribute 20, 1
   4              		.eabi_attribute 21, 1
   5              		.eabi_attribute 23, 3
   6              		.eabi_attribute 24, 1
   7              		.eabi_attribute 25, 1
   8              		.eabi_attribute 26, 1
   9              		.eabi_attribute 30, 6
  10              		.eabi_attribute 34, 0
  11              		.eabi_attribute 18, 4
  12              		.code	16
  13              		.file	"Encoder.cpp"
  14              		.text
  15              	.Ltext0:
  16              		.cfi_sections	.debug_frame
  17              		.section	.text._ZN3ros9PublisherC2EPKcPNS_3MsgEi,"axG",%progbits,_ZN3ros9PublisherC5EPKcPNS_3MsgEi
  18              		.align	2
  19              		.weak	_ZN3ros9PublisherC2EPKcPNS_3MsgEi
  20              		.code	16
  21              		.thumb_func
  22              		.type	_ZN3ros9PublisherC2EPKcPNS_3MsgEi, %function
  23              	_ZN3ros9PublisherC2EPKcPNS_3MsgEi:
  24              	.LFB38:
  25              		.file 1 "./ros_lib/ros/publisher.h"
   1:./ros_lib/ros/publisher.h **** /* 
   2:./ros_lib/ros/publisher.h ****  * Software License Agreement (BSD License)
   3:./ros_lib/ros/publisher.h ****  *
   4:./ros_lib/ros/publisher.h ****  * Copyright (c) 2011, Willow Garage, Inc.
   5:./ros_lib/ros/publisher.h ****  * All rights reserved.
   6:./ros_lib/ros/publisher.h ****  *
   7:./ros_lib/ros/publisher.h ****  * Redistribution and use in source and binary forms, with or without
   8:./ros_lib/ros/publisher.h ****  * modification, are permitted provided that the following conditions
   9:./ros_lib/ros/publisher.h ****  * are met:
  10:./ros_lib/ros/publisher.h ****  *
  11:./ros_lib/ros/publisher.h ****  *  * Redistributions of source code must retain the above copyright
  12:./ros_lib/ros/publisher.h ****  *    notice, this list of conditions and the following disclaimer.
  13:./ros_lib/ros/publisher.h ****  *  * Redistributions in binary form must reproduce the above
  14:./ros_lib/ros/publisher.h ****  *    copyright notice, this list of conditions and the following
  15:./ros_lib/ros/publisher.h ****  *    disclaimer in the documentation and/or other materials provided
  16:./ros_lib/ros/publisher.h ****  *    with the distribution.
  17:./ros_lib/ros/publisher.h ****  *  * Neither the name of Willow Garage, Inc. nor the names of its
  18:./ros_lib/ros/publisher.h ****  *    contributors may be used to endorse or promote prducts derived
  19:./ros_lib/ros/publisher.h ****  *    from this software without specific prior written permission.
  20:./ros_lib/ros/publisher.h ****  *
  21:./ros_lib/ros/publisher.h ****  * THIS SOFTWARE IS PROVIDED BY THE COPYRIGHT HOLDERS AND CONTRIBUTORS
  22:./ros_lib/ros/publisher.h ****  * "AS IS" AND ANY EXPRESS OR IMPLIED WARRANTIES, INCLUDING, BUT NOT
  23:./ros_lib/ros/publisher.h ****  * LIMITED TO, THE IMPLIED WARRANTIES OF MERCHANTABILITY AND FITNESS
  24:./ros_lib/ros/publisher.h ****  * FOR A PARTICULAR PURPOSE ARE DISCLAIMED. IN NO EVENT SHALL THE
  25:./ros_lib/ros/publisher.h ****  * COPYRIGHT OWNER OR CONTRIBUTORS BE LIABLE FOR ANY DIRECT, INDIRECT,
  26:./ros_lib/ros/publisher.h ****  * INCIDENTAL, SPECIAL, EXEMPLARY, OR CONSEQUENTIAL DAMAGES (INCLUDING,
  27:./ros_lib/ros/publisher.h ****  * BUT NOT LIMITED TO, PROCUREMENT OF SUBSTITUTE GOODS OR SERVICES;
  28:./ros_lib/ros/publisher.h ****  * LOSS OF USE, DATA, OR PROFITS; OR BUSINESS INTERRUPTION) HOWEVER
  29:./ros_lib/ros/publisher.h ****  * CAUSED AND ON ANY THEORY OF LIABILITY, WHETHER IN CONTRACT, STRICT
  30:./ros_lib/ros/publisher.h ****  * LIABILITY, OR TORT (INCLUDING NEGLIGENCE OR OTHERWISE) ARISING IN
  31:./ros_lib/ros/publisher.h ****  * ANY WAY OUT OF THE USE OF THIS SOFTWARE, EVEN IF ADVISED OF THE
  32:./ros_lib/ros/publisher.h ****  * POSSIBILITY OF SUCH DAMAGE.
ARM GAS  C:\DOCUME~1\Chuck\LOCALS~1\Temp\ccX3vOCl.s 			page 2


  33:./ros_lib/ros/publisher.h ****  */
  34:./ros_lib/ros/publisher.h **** 
  35:./ros_lib/ros/publisher.h **** #ifndef _ROS_PUBLISHER_H_
  36:./ros_lib/ros/publisher.h **** #define _ROS_PUBLISHER_H_
  37:./ros_lib/ros/publisher.h **** 
  38:./ros_lib/ros/publisher.h **** #include "rosserial_msgs/TopicInfo.h"
  39:./ros_lib/ros/publisher.h **** #include "node_handle.h"
  40:./ros_lib/ros/publisher.h **** 
  41:./ros_lib/ros/publisher.h **** namespace ros {
  42:./ros_lib/ros/publisher.h **** 
  43:./ros_lib/ros/publisher.h ****   /* Generic Publisher */
  44:./ros_lib/ros/publisher.h ****   class Publisher
  45:./ros_lib/ros/publisher.h ****   {
  46:./ros_lib/ros/publisher.h ****     public:
  47:./ros_lib/ros/publisher.h ****       Publisher( const char * topic_name, Msg * msg, int endpoint=rosserial_msgs::TopicInfo::ID_PUB
  26              		.loc 1 47 0
  27              		.cfi_startproc
  28 0000 80B5     		push	{r7, lr}
  29              	.LCFI0:
  30              		.cfi_def_cfa_offset 8
  31              		.cfi_offset 7, -8
  32              		.cfi_offset 14, -4
  33 0002 84B0     		sub	sp, sp, #16
  34              	.LCFI1:
  35              		.cfi_def_cfa_offset 24
  36 0004 00AF     		add	r7, sp, #0
  37              	.LCFI2:
  38              		.cfi_def_cfa_register 7
  39 0006 F860     		str	r0, [r7, #12]
  40 0008 B960     		str	r1, [r7, #8]
  41 000a 7A60     		str	r2, [r7, #4]
  42 000c 3B60     		str	r3, [r7]
  43              	.LBB2:
  48:./ros_lib/ros/publisher.h ****         topic_(topic_name), 
  49:./ros_lib/ros/publisher.h ****         msg_(msg),
  50:./ros_lib/ros/publisher.h ****         endpoint_(endpoint) {};
  44              		.loc 1 50 0
  45 000e FB68     		ldr	r3, [r7, #12]
  46 0010 BA68     		ldr	r2, [r7, #8]
  47 0012 1A60     		str	r2, [r3]
  48 0014 FB68     		ldr	r3, [r7, #12]
  49 0016 7A68     		ldr	r2, [r7, #4]
  50 0018 5A60     		str	r2, [r3, #4]
  51 001a FB68     		ldr	r3, [r7, #12]
  52 001c 3A68     		ldr	r2, [r7]
  53 001e 1A61     		str	r2, [r3, #16]
  54              	.LBE2:
  55 0020 FB68     		ldr	r3, [r7, #12]
  56 0022 181C     		mov	r0, r3
  57 0024 BD46     		mov	sp, r7
  58 0026 04B0     		add	sp, sp, #16
  59              		@ sp needed for prologue
  60 0028 80BD     		pop	{r7, pc}
  61              		.cfi_endproc
  62              	.LFE38:
  63              		.size	_ZN3ros9PublisherC2EPKcPNS_3MsgEi, .-_ZN3ros9PublisherC2EPKcPNS_3MsgEi
  64              		.weak	_ZN3ros9PublisherC1EPKcPNS_3MsgEi
ARM GAS  C:\DOCUME~1\Chuck\LOCALS~1\Temp\ccX3vOCl.s 			page 3


  65              		.thumb_set _ZN3ros9PublisherC1EPKcPNS_3MsgEi,_ZN3ros9PublisherC2EPKcPNS_3MsgEi
  66 002a C046     		.section	.text._ZN3ros9Publisher7publishEPKNS_3MsgE,"axG",%progbits,_ZN3ros9Publisher7publishEPKNS
  67              		.align	2
  68              		.weak	_ZN3ros9Publisher7publishEPKNS_3MsgE
  69              		.code	16
  70              		.thumb_func
  71              		.type	_ZN3ros9Publisher7publishEPKNS_3MsgE, %function
  72              	_ZN3ros9Publisher7publishEPKNS_3MsgE:
  73              	.LFB40:
  51:./ros_lib/ros/publisher.h ****       // rosserial standard signature
  52:./ros_lib/ros/publisher.h ****       int publish( const Msg * msg ) { return nh_->publish(id_, msg); };
  74              		.loc 1 52 0
  75              		.cfi_startproc
  76 0000 90B5     		push	{r4, r7, lr}
  77              	.LCFI3:
  78              		.cfi_def_cfa_offset 12
  79              		.cfi_offset 4, -12
  80              		.cfi_offset 7, -8
  81              		.cfi_offset 14, -4
  82 0002 83B0     		sub	sp, sp, #12
  83              	.LCFI4:
  84              		.cfi_def_cfa_offset 24
  85 0004 00AF     		add	r7, sp, #0
  86              	.LCFI5:
  87              		.cfi_def_cfa_register 7
  88 0006 7860     		str	r0, [r7, #4]
  89 0008 3960     		str	r1, [r7]
  90              		.loc 1 52 0
  91 000a 7B68     		ldr	r3, [r7, #4]
  92 000c DB68     		ldr	r3, [r3, #12]
  93 000e 1B68     		ldr	r3, [r3]
  94 0010 1C68     		ldr	r4, [r3]
  95 0012 7B68     		ldr	r3, [r7, #4]
  96 0014 D968     		ldr	r1, [r3, #12]
  97 0016 7B68     		ldr	r3, [r7, #4]
  98 0018 9A68     		ldr	r2, [r3, #8]
  99 001a 3B68     		ldr	r3, [r7]
 100 001c 081C     		mov	r0, r1
 101 001e 111C     		mov	r1, r2
 102 0020 1A1C     		mov	r2, r3
 103 0022 A047     		blx	r4
 104 0024 031C     		mov	r3, r0
 105 0026 181C     		mov	r0, r3
 106 0028 BD46     		mov	sp, r7
 107 002a 03B0     		add	sp, sp, #12
 108              		@ sp needed for prologue
 109 002c 90BD     		pop	{r4, r7, pc}
 110              		.cfi_endproc
 111              	.LFE40:
 112              		.size	_ZN3ros9Publisher7publishEPKNS_3MsgE, .-_ZN3ros9Publisher7publishEPKNS_3MsgE
 113 002e C046     		.section	.text._ZN8SysTimer6millisEv,"axG",%progbits,_ZN8SysTimer6millisEv,comdat
 114              		.align	2
 115              		.weak	_ZN8SysTimer6millisEv
 116              		.code	16
 117              		.thumb_func
 118              		.type	_ZN8SysTimer6millisEv, %function
 119              	_ZN8SysTimer6millisEv:
ARM GAS  C:\DOCUME~1\Chuck\LOCALS~1\Temp\ccX3vOCl.s 			page 4


 120              	.LFB89:
 121              		.file 2 "./ros_lib/SysTimer.h"
   1:./ros_lib/SysTimer.h **** /* ========================================
   2:./ros_lib/SysTimer.h ****  *
   3:./ros_lib/SysTimer.h ****  * The following firmware was developed by Chuck Harrison
   4:./ros_lib/SysTimer.h ****  * This work is licensed under a Creative Commons Attribution 3.0 Unported License.
   5:./ros_lib/SysTimer.h ****  * 
   6:./ros_lib/SysTimer.h ****  * http://creativecommons.org/licenses/by/3.0/deed.en_US
   7:./ros_lib/SysTimer.h ****  * 
   8:./ros_lib/SysTimer.h ****  * You are free to:
   9:./ros_lib/SysTimer.h ****  * -To Share — to copy, distribute and transmit the work 
  10:./ros_lib/SysTimer.h ****  * -To Remix — to adapt the work 
  11:./ros_lib/SysTimer.h ****  * -To make commercial use of the work
  12:./ros_lib/SysTimer.h ****  *
  13:./ros_lib/SysTimer.h ****  * ========================================
  14:./ros_lib/SysTimer.h ****  */
  15:./ros_lib/SysTimer.h **** 
  16:./ros_lib/SysTimer.h **** #ifndef ROS_SYSTIMER_H_
  17:./ros_lib/SysTimer.h **** #define ROS_SYSTIMER_H_
  18:./ros_lib/SysTimer.h **** 
  19:./ros_lib/SysTimer.h **** typedef void (* cyisraddress)(void); // should we #include the whole cytypes.h?
  20:./ros_lib/SysTimer.h **** #define CY_ISR(FuncName)        void FuncName (void)
  21:./ros_lib/SysTimer.h **** 
  22:./ros_lib/SysTimer.h **** extern "C" {
  23:./ros_lib/SysTimer.h **** cyisraddress CyIntSetSysVector(uint8_t number, cyisraddress address);
  24:./ros_lib/SysTimer.h **** }
  25:./ros_lib/SysTimer.h **** 
  26:./ros_lib/SysTimer.h **** CY_ISR(SysTick_ISR); //forward declaration for SysTimer::init()
  27:./ros_lib/SysTimer.h **** 
  28:./ros_lib/SysTimer.h **** #define SYSTICK_INTERRUPT_VECTOR_NUMBER 15u /* Cortex-M0 hard vector */
  29:./ros_lib/SysTimer.h **** 
  30:./ros_lib/SysTimer.h **** /* clock and interrupt rates, in Hz */
  31:./ros_lib/SysTimer.h **** #define CLOCK_FREQ     24000000u
  32:./ros_lib/SysTimer.h **** #define INTERRUPT_FREQ 1000u
  33:./ros_lib/SysTimer.h **** 
  34:./ros_lib/SysTimer.h **** 
  35:./ros_lib/SysTimer.h **** class SysTimer
  36:./ros_lib/SysTimer.h **** {
  37:./ros_lib/SysTimer.h ****   public:
  38:./ros_lib/SysTimer.h ****     static void init() {
  39:./ros_lib/SysTimer.h ****       CyIntSetSysVector(SYSTICK_INTERRUPT_VECTOR_NUMBER, SysTick_ISR);
  40:./ros_lib/SysTimer.h ****       // must eventually do this:
  41:./ros_lib/SysTimer.h ****       //  SysTick_Config(CLOCK_FREQ / INTERRUPT_FREQ); /* defined in auto-generated core_cm0.h */
  42:./ros_lib/SysTimer.h ****       //  CyGlobalIntEnable;
  43:./ros_lib/SysTimer.h ****       millis_ = 0;
  44:./ros_lib/SysTimer.h ****     };
  45:./ros_lib/SysTimer.h ****     static uint32_t millis() { return millis_; };
 122              		.loc 2 45 0
 123              		.cfi_startproc
 124 0000 80B5     		push	{r7, lr}
 125              	.LCFI6:
 126              		.cfi_def_cfa_offset 8
 127              		.cfi_offset 7, -8
 128              		.cfi_offset 14, -4
 129 0002 00AF     		add	r7, sp, #0
 130              	.LCFI7:
 131              		.cfi_def_cfa_register 7
ARM GAS  C:\DOCUME~1\Chuck\LOCALS~1\Temp\ccX3vOCl.s 			page 5


 132              		.loc 2 45 0
 133 0004 024B     		ldr	r3, .L8
 134 0006 1B68     		ldr	r3, [r3]
 135 0008 181C     		mov	r0, r3
 136 000a BD46     		mov	sp, r7
 137              		@ sp needed for prologue
 138 000c 80BD     		pop	{r7, pc}
 139              	.L9:
 140 000e C046     		.align	2
 141              	.L8:
 142 0010 00000000 		.word	_ZN8SysTimer7millis_E
 143              		.cfi_endproc
 144              	.LFE89:
 145              		.size	_ZN8SysTimer6millisEv, .-_ZN8SysTimer6millisEv
 146              		.section	.text._ZNK8std_msgs5Int329serializeEPh,"axG",%progbits,_ZNK8std_msgs5Int329serializeEPh,c
 147              		.align	2
 148              		.weak	_ZNK8std_msgs5Int329serializeEPh
 149              		.code	16
 150              		.thumb_func
 151              		.type	_ZNK8std_msgs5Int329serializeEPh, %function
 152              	_ZNK8std_msgs5Int329serializeEPh:
 153              	.LFB105:
 154              		.file 3 "./ros_lib/std_msgs/Int32.h"
   1:./ros_lib/std_msgs/Int32.h **** #ifndef _ROS_std_msgs_Int32_h
   2:./ros_lib/std_msgs/Int32.h **** #define _ROS_std_msgs_Int32_h
   3:./ros_lib/std_msgs/Int32.h **** 
   4:./ros_lib/std_msgs/Int32.h **** #include <stdint.h>
   5:./ros_lib/std_msgs/Int32.h **** #include <string.h>
   6:./ros_lib/std_msgs/Int32.h **** #include <stdlib.h>
   7:./ros_lib/std_msgs/Int32.h **** #include "ros/msg.h"
   8:./ros_lib/std_msgs/Int32.h **** 
   9:./ros_lib/std_msgs/Int32.h **** namespace std_msgs
  10:./ros_lib/std_msgs/Int32.h **** {
  11:./ros_lib/std_msgs/Int32.h **** 
  12:./ros_lib/std_msgs/Int32.h ****   class Int32 : public ros::Msg
  13:./ros_lib/std_msgs/Int32.h ****   {
  14:./ros_lib/std_msgs/Int32.h ****     public:
  15:./ros_lib/std_msgs/Int32.h ****       int32_t data;
  16:./ros_lib/std_msgs/Int32.h **** 
  17:./ros_lib/std_msgs/Int32.h ****     virtual int serialize(unsigned char *outbuffer) const
 155              		.loc 3 17 0
 156              		.cfi_startproc
 157 0000 80B5     		push	{r7, lr}
 158              	.LCFI8:
 159              		.cfi_def_cfa_offset 8
 160              		.cfi_offset 7, -8
 161              		.cfi_offset 14, -4
 162 0002 84B0     		sub	sp, sp, #16
 163              	.LCFI9:
 164              		.cfi_def_cfa_offset 24
 165 0004 00AF     		add	r7, sp, #0
 166              	.LCFI10:
 167              		.cfi_def_cfa_register 7
 168 0006 7860     		str	r0, [r7, #4]
 169 0008 3960     		str	r1, [r7]
 170              	.LBB3:
  18:./ros_lib/std_msgs/Int32.h ****     {
ARM GAS  C:\DOCUME~1\Chuck\LOCALS~1\Temp\ccX3vOCl.s 			page 6


  19:./ros_lib/std_msgs/Int32.h ****       int offset = 0;
 171              		.loc 3 19 0
 172 000a 0023     		mov	r3, #0
 173 000c FB60     		str	r3, [r7, #12]
  20:./ros_lib/std_msgs/Int32.h **** #ifndef ROS_MSG_DONT_SERIALIZE
  21:./ros_lib/std_msgs/Int32.h ****       union {
  22:./ros_lib/std_msgs/Int32.h ****         int32_t real;
  23:./ros_lib/std_msgs/Int32.h ****         uint32_t base;
  24:./ros_lib/std_msgs/Int32.h ****       } u_data;
  25:./ros_lib/std_msgs/Int32.h ****       u_data.real = this->data;
 174              		.loc 3 25 0
 175 000e 7B68     		ldr	r3, [r7, #4]
 176 0010 5B68     		ldr	r3, [r3, #4]
 177 0012 BB60     		str	r3, [r7, #8]
  26:./ros_lib/std_msgs/Int32.h ****       *(outbuffer + offset + 0) = (u_data.base >> (8 * 0)) & 0xFF;
 178              		.loc 3 26 0
 179 0014 FB68     		ldr	r3, [r7, #12]
 180 0016 3A68     		ldr	r2, [r7]
 181 0018 D318     		add	r3, r2, r3
 182 001a BA68     		ldr	r2, [r7, #8]
 183 001c D2B2     		uxtb	r2, r2
 184 001e 1A70     		strb	r2, [r3]
  27:./ros_lib/std_msgs/Int32.h ****       *(outbuffer + offset + 1) = (u_data.base >> (8 * 1)) & 0xFF;
 185              		.loc 3 27 0
 186 0020 FB68     		ldr	r3, [r7, #12]
 187 0022 0133     		add	r3, r3, #1
 188 0024 3A68     		ldr	r2, [r7]
 189 0026 D318     		add	r3, r2, r3
 190 0028 BA68     		ldr	r2, [r7, #8]
 191 002a 120A     		lsr	r2, r2, #8
 192 002c D2B2     		uxtb	r2, r2
 193 002e 1A70     		strb	r2, [r3]
  28:./ros_lib/std_msgs/Int32.h ****       *(outbuffer + offset + 2) = (u_data.base >> (8 * 2)) & 0xFF;
 194              		.loc 3 28 0
 195 0030 FB68     		ldr	r3, [r7, #12]
 196 0032 0233     		add	r3, r3, #2
 197 0034 3A68     		ldr	r2, [r7]
 198 0036 D318     		add	r3, r2, r3
 199 0038 BA68     		ldr	r2, [r7, #8]
 200 003a 120C     		lsr	r2, r2, #16
 201 003c D2B2     		uxtb	r2, r2
 202 003e 1A70     		strb	r2, [r3]
  29:./ros_lib/std_msgs/Int32.h ****       *(outbuffer + offset + 3) = (u_data.base >> (8 * 3)) & 0xFF;
 203              		.loc 3 29 0
 204 0040 FB68     		ldr	r3, [r7, #12]
 205 0042 0333     		add	r3, r3, #3
 206 0044 3A68     		ldr	r2, [r7]
 207 0046 D318     		add	r3, r2, r3
 208 0048 BA68     		ldr	r2, [r7, #8]
 209 004a 120E     		lsr	r2, r2, #24
 210 004c D2B2     		uxtb	r2, r2
 211 004e 1A70     		strb	r2, [r3]
  30:./ros_lib/std_msgs/Int32.h ****       offset += sizeof(this->data);
 212              		.loc 3 30 0
 213 0050 FB68     		ldr	r3, [r7, #12]
 214 0052 0433     		add	r3, r3, #4
 215 0054 FB60     		str	r3, [r7, #12]
ARM GAS  C:\DOCUME~1\Chuck\LOCALS~1\Temp\ccX3vOCl.s 			page 7


  31:./ros_lib/std_msgs/Int32.h **** #endif
  32:./ros_lib/std_msgs/Int32.h ****       return offset;
 216              		.loc 3 32 0
 217 0056 FB68     		ldr	r3, [r7, #12]
 218              	.LBE3:
  33:./ros_lib/std_msgs/Int32.h ****     }
 219              		.loc 3 33 0
 220 0058 181C     		mov	r0, r3
 221 005a BD46     		mov	sp, r7
 222 005c 04B0     		add	sp, sp, #16
 223              		@ sp needed for prologue
 224 005e 80BD     		pop	{r7, pc}
 225              		.cfi_endproc
 226              	.LFE105:
 227              		.size	_ZNK8std_msgs5Int329serializeEPh, .-_ZNK8std_msgs5Int329serializeEPh
 228              		.section	.text._ZN8std_msgs5Int3211deserializeEPh,"axG",%progbits,_ZN8std_msgs5Int3211deserializeE
 229              		.align	2
 230              		.weak	_ZN8std_msgs5Int3211deserializeEPh
 231              		.code	16
 232              		.thumb_func
 233              		.type	_ZN8std_msgs5Int3211deserializeEPh, %function
 234              	_ZN8std_msgs5Int3211deserializeEPh:
 235              	.LFB106:
  34:./ros_lib/std_msgs/Int32.h **** 
  35:./ros_lib/std_msgs/Int32.h ****     virtual int deserialize(unsigned char *inbuffer)
 236              		.loc 3 35 0
 237              		.cfi_startproc
 238 0000 80B5     		push	{r7, lr}
 239              	.LCFI11:
 240              		.cfi_def_cfa_offset 8
 241              		.cfi_offset 7, -8
 242              		.cfi_offset 14, -4
 243 0002 84B0     		sub	sp, sp, #16
 244              	.LCFI12:
 245              		.cfi_def_cfa_offset 24
 246 0004 00AF     		add	r7, sp, #0
 247              	.LCFI13:
 248              		.cfi_def_cfa_register 7
 249 0006 7860     		str	r0, [r7, #4]
 250 0008 3960     		str	r1, [r7]
 251              	.LBB4:
  36:./ros_lib/std_msgs/Int32.h ****     {
  37:./ros_lib/std_msgs/Int32.h ****       int offset = 0;
 252              		.loc 3 37 0
 253 000a 0023     		mov	r3, #0
 254 000c FB60     		str	r3, [r7, #12]
  38:./ros_lib/std_msgs/Int32.h **** #ifndef ROS_MSG_DONT_DESERIALIZE
  39:./ros_lib/std_msgs/Int32.h ****       union {
  40:./ros_lib/std_msgs/Int32.h ****         int32_t real;
  41:./ros_lib/std_msgs/Int32.h ****         uint32_t base;
  42:./ros_lib/std_msgs/Int32.h ****       } u_data;
  43:./ros_lib/std_msgs/Int32.h ****       u_data.base = 0;
 255              		.loc 3 43 0
 256 000e 0023     		mov	r3, #0
 257 0010 BB60     		str	r3, [r7, #8]
  44:./ros_lib/std_msgs/Int32.h ****       u_data.base |= ((uint32_t) (*(inbuffer + offset + 0))) << (8 * 0);
 258              		.loc 3 44 0
ARM GAS  C:\DOCUME~1\Chuck\LOCALS~1\Temp\ccX3vOCl.s 			page 8


 259 0012 BA68     		ldr	r2, [r7, #8]
 260 0014 FB68     		ldr	r3, [r7, #12]
 261 0016 3968     		ldr	r1, [r7]
 262 0018 CB18     		add	r3, r1, r3
 263 001a 1B78     		ldrb	r3, [r3]
 264 001c 1343     		orr	r3, r2
 265 001e BB60     		str	r3, [r7, #8]
  45:./ros_lib/std_msgs/Int32.h ****       u_data.base |= ((uint32_t) (*(inbuffer + offset + 1))) << (8 * 1);
 266              		.loc 3 45 0
 267 0020 BA68     		ldr	r2, [r7, #8]
 268 0022 FB68     		ldr	r3, [r7, #12]
 269 0024 0133     		add	r3, r3, #1
 270 0026 3968     		ldr	r1, [r7]
 271 0028 CB18     		add	r3, r1, r3
 272 002a 1B78     		ldrb	r3, [r3]
 273 002c 1B02     		lsl	r3, r3, #8
 274 002e 1343     		orr	r3, r2
 275 0030 BB60     		str	r3, [r7, #8]
  46:./ros_lib/std_msgs/Int32.h ****       u_data.base |= ((uint32_t) (*(inbuffer + offset + 2))) << (8 * 2);
 276              		.loc 3 46 0
 277 0032 BA68     		ldr	r2, [r7, #8]
 278 0034 FB68     		ldr	r3, [r7, #12]
 279 0036 0233     		add	r3, r3, #2
 280 0038 3968     		ldr	r1, [r7]
 281 003a CB18     		add	r3, r1, r3
 282 003c 1B78     		ldrb	r3, [r3]
 283 003e 1B04     		lsl	r3, r3, #16
 284 0040 1343     		orr	r3, r2
 285 0042 BB60     		str	r3, [r7, #8]
  47:./ros_lib/std_msgs/Int32.h ****       u_data.base |= ((uint32_t) (*(inbuffer + offset + 3))) << (8 * 3);
 286              		.loc 3 47 0
 287 0044 BA68     		ldr	r2, [r7, #8]
 288 0046 FB68     		ldr	r3, [r7, #12]
 289 0048 0333     		add	r3, r3, #3
 290 004a 3968     		ldr	r1, [r7]
 291 004c CB18     		add	r3, r1, r3
 292 004e 1B78     		ldrb	r3, [r3]
 293 0050 1B06     		lsl	r3, r3, #24
 294 0052 1343     		orr	r3, r2
 295 0054 BB60     		str	r3, [r7, #8]
  48:./ros_lib/std_msgs/Int32.h ****       this->data = u_data.real;
 296              		.loc 3 48 0
 297 0056 BA68     		ldr	r2, [r7, #8]
 298 0058 7B68     		ldr	r3, [r7, #4]
 299 005a 5A60     		str	r2, [r3, #4]
  49:./ros_lib/std_msgs/Int32.h ****       offset += sizeof(this->data);
 300              		.loc 3 49 0
 301 005c FB68     		ldr	r3, [r7, #12]
 302 005e 0433     		add	r3, r3, #4
 303 0060 FB60     		str	r3, [r7, #12]
  50:./ros_lib/std_msgs/Int32.h **** #endif
  51:./ros_lib/std_msgs/Int32.h ****      return offset;
 304              		.loc 3 51 0
 305 0062 FB68     		ldr	r3, [r7, #12]
 306              	.LBE4:
  52:./ros_lib/std_msgs/Int32.h ****     }
 307              		.loc 3 52 0
ARM GAS  C:\DOCUME~1\Chuck\LOCALS~1\Temp\ccX3vOCl.s 			page 9


 308 0064 181C     		mov	r0, r3
 309 0066 BD46     		mov	sp, r7
 310 0068 04B0     		add	sp, sp, #16
 311              		@ sp needed for prologue
 312 006a 80BD     		pop	{r7, pc}
 313              		.cfi_endproc
 314              	.LFE106:
 315              		.size	_ZN8std_msgs5Int3211deserializeEPh, .-_ZN8std_msgs5Int3211deserializeEPh
 316              		.section	.rodata
 317              		.align	2
 318              	.LC1:
 319 0000 7374645F 		.ascii	"std_msgs/Int32\000"
 319      6D736773 
 319      2F496E74 
 319      333200
 320              		.section	.text._ZN8std_msgs5Int327getTypeEv,"axG",%progbits,_ZN8std_msgs5Int327getTypeEv,comdat
 321              		.align	2
 322              		.weak	_ZN8std_msgs5Int327getTypeEv
 323              		.code	16
 324              		.thumb_func
 325              		.type	_ZN8std_msgs5Int327getTypeEv, %function
 326              	_ZN8std_msgs5Int327getTypeEv:
 327              	.LFB107:
  53:./ros_lib/std_msgs/Int32.h **** 
  54:./ros_lib/std_msgs/Int32.h ****     const char * getType(){ return "std_msgs/Int32"; };
 328              		.loc 3 54 0
 329              		.cfi_startproc
 330 0000 80B5     		push	{r7, lr}
 331              	.LCFI14:
 332              		.cfi_def_cfa_offset 8
 333              		.cfi_offset 7, -8
 334              		.cfi_offset 14, -4
 335 0002 82B0     		sub	sp, sp, #8
 336              	.LCFI15:
 337              		.cfi_def_cfa_offset 16
 338 0004 00AF     		add	r7, sp, #0
 339              	.LCFI16:
 340              		.cfi_def_cfa_register 7
 341 0006 7860     		str	r0, [r7, #4]
 342              		.loc 3 54 0
 343 0008 024B     		ldr	r3, .L16
 344 000a 181C     		mov	r0, r3
 345 000c BD46     		mov	sp, r7
 346 000e 02B0     		add	sp, sp, #8
 347              		@ sp needed for prologue
 348 0010 80BD     		pop	{r7, pc}
 349              	.L17:
 350 0012 C046     		.align	2
 351              	.L16:
 352 0014 00000000 		.word	.LC1
 353              		.cfi_endproc
 354              	.LFE107:
 355              		.size	_ZN8std_msgs5Int327getTypeEv, .-_ZN8std_msgs5Int327getTypeEv
 356              		.section	.rodata
 357 000f 00       		.align	2
 358              	.LC3:
 359 0010 64613539 		.ascii	"da5909fbe378aeaf85e547e830cc1bb7\000"
ARM GAS  C:\DOCUME~1\Chuck\LOCALS~1\Temp\ccX3vOCl.s 			page 10


 359      30396662 
 359      65333738 
 359      61656166 
 359      38356535 
 360              		.section	.text._ZN8std_msgs5Int326getMD5Ev,"axG",%progbits,_ZN8std_msgs5Int326getMD5Ev,comdat
 361              		.align	2
 362              		.weak	_ZN8std_msgs5Int326getMD5Ev
 363              		.code	16
 364              		.thumb_func
 365              		.type	_ZN8std_msgs5Int326getMD5Ev, %function
 366              	_ZN8std_msgs5Int326getMD5Ev:
 367              	.LFB108:
  55:./ros_lib/std_msgs/Int32.h ****     const char * getMD5(){ return "da5909fbe378aeaf85e547e830cc1bb7"; };
 368              		.loc 3 55 0
 369              		.cfi_startproc
 370 0000 80B5     		push	{r7, lr}
 371              	.LCFI17:
 372              		.cfi_def_cfa_offset 8
 373              		.cfi_offset 7, -8
 374              		.cfi_offset 14, -4
 375 0002 82B0     		sub	sp, sp, #8
 376              	.LCFI18:
 377              		.cfi_def_cfa_offset 16
 378 0004 00AF     		add	r7, sp, #0
 379              	.LCFI19:
 380              		.cfi_def_cfa_register 7
 381 0006 7860     		str	r0, [r7, #4]
 382              		.loc 3 55 0
 383 0008 024B     		ldr	r3, .L20
 384 000a 181C     		mov	r0, r3
 385 000c BD46     		mov	sp, r7
 386 000e 02B0     		add	sp, sp, #8
 387              		@ sp needed for prologue
 388 0010 80BD     		pop	{r7, pc}
 389              	.L21:
 390 0012 C046     		.align	2
 391              	.L20:
 392 0014 10000000 		.word	.LC3
 393              		.cfi_endproc
 394              	.LFE108:
 395              		.size	_ZN8std_msgs5Int326getMD5Ev, .-_ZN8std_msgs5Int326getMD5Ev
 396              		.section	.text._ZNK8std_msgs5Int169serializeEPh,"axG",%progbits,_ZNK8std_msgs5Int169serializeEPh,c
 397              		.align	2
 398              		.weak	_ZNK8std_msgs5Int169serializeEPh
 399              		.code	16
 400              		.thumb_func
 401              		.type	_ZNK8std_msgs5Int169serializeEPh, %function
 402              	_ZNK8std_msgs5Int169serializeEPh:
 403              	.LFB109:
 404              		.file 4 "./ros_lib/std_msgs/Int16.h"
   1:./ros_lib/std_msgs/Int16.h **** #ifndef _ROS_std_msgs_Int16_h
   2:./ros_lib/std_msgs/Int16.h **** #define _ROS_std_msgs_Int16_h
   3:./ros_lib/std_msgs/Int16.h **** 
   4:./ros_lib/std_msgs/Int16.h **** #include <stdint.h>
   5:./ros_lib/std_msgs/Int16.h **** #include <string.h>
   6:./ros_lib/std_msgs/Int16.h **** #include <stdlib.h>
   7:./ros_lib/std_msgs/Int16.h **** #include "ros/msg.h"
ARM GAS  C:\DOCUME~1\Chuck\LOCALS~1\Temp\ccX3vOCl.s 			page 11


   8:./ros_lib/std_msgs/Int16.h **** 
   9:./ros_lib/std_msgs/Int16.h **** namespace std_msgs
  10:./ros_lib/std_msgs/Int16.h **** {
  11:./ros_lib/std_msgs/Int16.h **** 
  12:./ros_lib/std_msgs/Int16.h ****   class Int16 : public ros::Msg
  13:./ros_lib/std_msgs/Int16.h ****   {
  14:./ros_lib/std_msgs/Int16.h ****     public:
  15:./ros_lib/std_msgs/Int16.h ****       int16_t data;
  16:./ros_lib/std_msgs/Int16.h **** 
  17:./ros_lib/std_msgs/Int16.h ****     virtual int serialize(unsigned char *outbuffer) const
 405              		.loc 4 17 0
 406              		.cfi_startproc
 407 0000 80B5     		push	{r7, lr}
 408              	.LCFI20:
 409              		.cfi_def_cfa_offset 8
 410              		.cfi_offset 7, -8
 411              		.cfi_offset 14, -4
 412 0002 84B0     		sub	sp, sp, #16
 413              	.LCFI21:
 414              		.cfi_def_cfa_offset 24
 415 0004 00AF     		add	r7, sp, #0
 416              	.LCFI22:
 417              		.cfi_def_cfa_register 7
 418 0006 7860     		str	r0, [r7, #4]
 419 0008 3960     		str	r1, [r7]
 420              	.LBB5:
  18:./ros_lib/std_msgs/Int16.h ****     {
  19:./ros_lib/std_msgs/Int16.h ****       int offset = 0;
 421              		.loc 4 19 0
 422 000a 0023     		mov	r3, #0
 423 000c FB60     		str	r3, [r7, #12]
  20:./ros_lib/std_msgs/Int16.h **** #ifndef ROS_MSG_DONT_SERIALIZE
  21:./ros_lib/std_msgs/Int16.h ****       union {
  22:./ros_lib/std_msgs/Int16.h ****         int16_t real;
  23:./ros_lib/std_msgs/Int16.h ****         uint16_t base;
  24:./ros_lib/std_msgs/Int16.h ****       } u_data;
  25:./ros_lib/std_msgs/Int16.h ****       u_data.real = this->data;
 424              		.loc 4 25 0
 425 000e 7B68     		ldr	r3, [r7, #4]
 426 0010 9A88     		ldrh	r2, [r3, #4]
 427 0012 3B1C     		mov	r3, r7
 428 0014 0833     		add	r3, r3, #8
 429 0016 1A80     		strh	r2, [r3]
  26:./ros_lib/std_msgs/Int16.h ****       *(outbuffer + offset + 0) = (u_data.base >> (8 * 0)) & 0xFF;
 430              		.loc 4 26 0
 431 0018 FB68     		ldr	r3, [r7, #12]
 432 001a 3A68     		ldr	r2, [r7]
 433 001c D318     		add	r3, r2, r3
 434 001e 3A1C     		mov	r2, r7
 435 0020 0832     		add	r2, r2, #8
 436 0022 1288     		ldrh	r2, [r2]
 437 0024 D2B2     		uxtb	r2, r2
 438 0026 1A70     		strb	r2, [r3]
  27:./ros_lib/std_msgs/Int16.h ****       *(outbuffer + offset + 1) = (u_data.base >> (8 * 1)) & 0xFF;
 439              		.loc 4 27 0
 440 0028 FB68     		ldr	r3, [r7, #12]
 441 002a 0133     		add	r3, r3, #1
ARM GAS  C:\DOCUME~1\Chuck\LOCALS~1\Temp\ccX3vOCl.s 			page 12


 442 002c 3A68     		ldr	r2, [r7]
 443 002e D318     		add	r3, r2, r3
 444 0030 3A1C     		mov	r2, r7
 445 0032 0832     		add	r2, r2, #8
 446 0034 1288     		ldrh	r2, [r2]
 447 0036 120A     		lsr	r2, r2, #8
 448 0038 92B2     		uxth	r2, r2
 449 003a D2B2     		uxtb	r2, r2
 450 003c 1A70     		strb	r2, [r3]
  28:./ros_lib/std_msgs/Int16.h ****       offset += sizeof(this->data);
 451              		.loc 4 28 0
 452 003e FB68     		ldr	r3, [r7, #12]
 453 0040 0233     		add	r3, r3, #2
 454 0042 FB60     		str	r3, [r7, #12]
  29:./ros_lib/std_msgs/Int16.h **** #endif
  30:./ros_lib/std_msgs/Int16.h ****       return offset;
 455              		.loc 4 30 0
 456 0044 FB68     		ldr	r3, [r7, #12]
 457              	.LBE5:
  31:./ros_lib/std_msgs/Int16.h ****     }
 458              		.loc 4 31 0
 459 0046 181C     		mov	r0, r3
 460 0048 BD46     		mov	sp, r7
 461 004a 04B0     		add	sp, sp, #16
 462              		@ sp needed for prologue
 463 004c 80BD     		pop	{r7, pc}
 464              		.cfi_endproc
 465              	.LFE109:
 466              		.size	_ZNK8std_msgs5Int169serializeEPh, .-_ZNK8std_msgs5Int169serializeEPh
 467 004e C046     		.section	.text._ZN8std_msgs5Int1611deserializeEPh,"axG",%progbits,_ZN8std_msgs5Int1611deserializeE
 468              		.align	2
 469              		.weak	_ZN8std_msgs5Int1611deserializeEPh
 470              		.code	16
 471              		.thumb_func
 472              		.type	_ZN8std_msgs5Int1611deserializeEPh, %function
 473              	_ZN8std_msgs5Int1611deserializeEPh:
 474              	.LFB110:
  32:./ros_lib/std_msgs/Int16.h **** 
  33:./ros_lib/std_msgs/Int16.h ****     virtual int deserialize(unsigned char *inbuffer)
 475              		.loc 4 33 0
 476              		.cfi_startproc
 477 0000 80B5     		push	{r7, lr}
 478              	.LCFI23:
 479              		.cfi_def_cfa_offset 8
 480              		.cfi_offset 7, -8
 481              		.cfi_offset 14, -4
 482 0002 84B0     		sub	sp, sp, #16
 483              	.LCFI24:
 484              		.cfi_def_cfa_offset 24
 485 0004 00AF     		add	r7, sp, #0
 486              	.LCFI25:
 487              		.cfi_def_cfa_register 7
 488 0006 7860     		str	r0, [r7, #4]
 489 0008 3960     		str	r1, [r7]
 490              	.LBB6:
  34:./ros_lib/std_msgs/Int16.h ****     {
  35:./ros_lib/std_msgs/Int16.h ****       int offset = 0;
ARM GAS  C:\DOCUME~1\Chuck\LOCALS~1\Temp\ccX3vOCl.s 			page 13


 491              		.loc 4 35 0
 492 000a 0023     		mov	r3, #0
 493 000c FB60     		str	r3, [r7, #12]
  36:./ros_lib/std_msgs/Int16.h **** #ifndef ROS_MSG_DONT_DESERIALIZE
  37:./ros_lib/std_msgs/Int16.h ****       union {
  38:./ros_lib/std_msgs/Int16.h ****         int16_t real;
  39:./ros_lib/std_msgs/Int16.h ****         uint16_t base;
  40:./ros_lib/std_msgs/Int16.h ****       } u_data;
  41:./ros_lib/std_msgs/Int16.h ****       u_data.base = 0;
 494              		.loc 4 41 0
 495 000e 3B1C     		mov	r3, r7
 496 0010 0833     		add	r3, r3, #8
 497 0012 0022     		mov	r2, #0
 498 0014 1A80     		strh	r2, [r3]
  42:./ros_lib/std_msgs/Int16.h ****       u_data.base |= ((uint16_t) (*(inbuffer + offset + 0))) << (8 * 0);
 499              		.loc 4 42 0
 500 0016 3B1C     		mov	r3, r7
 501 0018 0833     		add	r3, r3, #8
 502 001a 1A88     		ldrh	r2, [r3]
 503 001c FB68     		ldr	r3, [r7, #12]
 504 001e 3968     		ldr	r1, [r7]
 505 0020 CB18     		add	r3, r1, r3
 506 0022 1B78     		ldrb	r3, [r3]
 507 0024 1343     		orr	r3, r2
 508 0026 9AB2     		uxth	r2, r3
 509 0028 3B1C     		mov	r3, r7
 510 002a 0833     		add	r3, r3, #8
 511 002c 1A80     		strh	r2, [r3]
  43:./ros_lib/std_msgs/Int16.h ****       u_data.base |= ((uint16_t) (*(inbuffer + offset + 1))) << (8 * 1);
 512              		.loc 4 43 0
 513 002e 3B1C     		mov	r3, r7
 514 0030 0833     		add	r3, r3, #8
 515 0032 1B88     		ldrh	r3, [r3]
 516 0034 9AB2     		uxth	r2, r3
 517 0036 FB68     		ldr	r3, [r7, #12]
 518 0038 0133     		add	r3, r3, #1
 519 003a 3968     		ldr	r1, [r7]
 520 003c CB18     		add	r3, r1, r3
 521 003e 1B78     		ldrb	r3, [r3]
 522 0040 1B02     		lsl	r3, r3, #8
 523 0042 9BB2     		uxth	r3, r3
 524 0044 1343     		orr	r3, r2
 525 0046 9BB2     		uxth	r3, r3
 526 0048 9AB2     		uxth	r2, r3
 527 004a 3B1C     		mov	r3, r7
 528 004c 0833     		add	r3, r3, #8
 529 004e 1A80     		strh	r2, [r3]
  44:./ros_lib/std_msgs/Int16.h ****       this->data = u_data.real;
 530              		.loc 4 44 0
 531 0050 3B1C     		mov	r3, r7
 532 0052 0833     		add	r3, r3, #8
 533 0054 1A88     		ldrh	r2, [r3]
 534 0056 7B68     		ldr	r3, [r7, #4]
 535 0058 9A80     		strh	r2, [r3, #4]
  45:./ros_lib/std_msgs/Int16.h ****       offset += sizeof(this->data);
 536              		.loc 4 45 0
 537 005a FB68     		ldr	r3, [r7, #12]
ARM GAS  C:\DOCUME~1\Chuck\LOCALS~1\Temp\ccX3vOCl.s 			page 14


 538 005c 0233     		add	r3, r3, #2
 539 005e FB60     		str	r3, [r7, #12]
  46:./ros_lib/std_msgs/Int16.h **** #endif
  47:./ros_lib/std_msgs/Int16.h ****      return offset;
 540              		.loc 4 47 0
 541 0060 FB68     		ldr	r3, [r7, #12]
 542              	.LBE6:
  48:./ros_lib/std_msgs/Int16.h ****     }
 543              		.loc 4 48 0
 544 0062 181C     		mov	r0, r3
 545 0064 BD46     		mov	sp, r7
 546 0066 04B0     		add	sp, sp, #16
 547              		@ sp needed for prologue
 548 0068 80BD     		pop	{r7, pc}
 549              		.cfi_endproc
 550              	.LFE110:
 551              		.size	_ZN8std_msgs5Int1611deserializeEPh, .-_ZN8std_msgs5Int1611deserializeEPh
 552 006a C046     		.section	.rodata
 553 0031 000000   		.align	2
 554              	.LC5:
 555 0034 7374645F 		.ascii	"std_msgs/Int16\000"
 555      6D736773 
 555      2F496E74 
 555      313600
 556              		.section	.text._ZN8std_msgs5Int167getTypeEv,"axG",%progbits,_ZN8std_msgs5Int167getTypeEv,comdat
 557              		.align	2
 558              		.weak	_ZN8std_msgs5Int167getTypeEv
 559              		.code	16
 560              		.thumb_func
 561              		.type	_ZN8std_msgs5Int167getTypeEv, %function
 562              	_ZN8std_msgs5Int167getTypeEv:
 563              	.LFB111:
  49:./ros_lib/std_msgs/Int16.h **** 
  50:./ros_lib/std_msgs/Int16.h ****     const char * getType(){ return "std_msgs/Int16"; };
 564              		.loc 4 50 0
 565              		.cfi_startproc
 566 0000 80B5     		push	{r7, lr}
 567              	.LCFI26:
 568              		.cfi_def_cfa_offset 8
 569              		.cfi_offset 7, -8
 570              		.cfi_offset 14, -4
 571 0002 82B0     		sub	sp, sp, #8
 572              	.LCFI27:
 573              		.cfi_def_cfa_offset 16
 574 0004 00AF     		add	r7, sp, #0
 575              	.LCFI28:
 576              		.cfi_def_cfa_register 7
 577 0006 7860     		str	r0, [r7, #4]
 578              		.loc 4 50 0
 579 0008 024B     		ldr	r3, .L28
 580 000a 181C     		mov	r0, r3
 581 000c BD46     		mov	sp, r7
 582 000e 02B0     		add	sp, sp, #8
 583              		@ sp needed for prologue
 584 0010 80BD     		pop	{r7, pc}
 585              	.L29:
 586 0012 C046     		.align	2
ARM GAS  C:\DOCUME~1\Chuck\LOCALS~1\Temp\ccX3vOCl.s 			page 15


 587              	.L28:
 588 0014 34000000 		.word	.LC5
 589              		.cfi_endproc
 590              	.LFE111:
 591              		.size	_ZN8std_msgs5Int167getTypeEv, .-_ZN8std_msgs5Int167getTypeEv
 592              		.section	.rodata
 593 0043 00       		.align	2
 594              	.LC7:
 595 0044 38353234 		.ascii	"8524586e34fbd7cb1c08c5f5f1ca0e57\000"
 595      35383665 
 595      33346662 
 595      64376362 
 595      31633038 
 596              		.section	.text._ZN8std_msgs5Int166getMD5Ev,"axG",%progbits,_ZN8std_msgs5Int166getMD5Ev,comdat
 597              		.align	2
 598              		.weak	_ZN8std_msgs5Int166getMD5Ev
 599              		.code	16
 600              		.thumb_func
 601              		.type	_ZN8std_msgs5Int166getMD5Ev, %function
 602              	_ZN8std_msgs5Int166getMD5Ev:
 603              	.LFB112:
  51:./ros_lib/std_msgs/Int16.h ****     const char * getMD5(){ return "8524586e34fbd7cb1c08c5f5f1ca0e57"; };
 604              		.loc 4 51 0
 605              		.cfi_startproc
 606 0000 80B5     		push	{r7, lr}
 607              	.LCFI29:
 608              		.cfi_def_cfa_offset 8
 609              		.cfi_offset 7, -8
 610              		.cfi_offset 14, -4
 611 0002 82B0     		sub	sp, sp, #8
 612              	.LCFI30:
 613              		.cfi_def_cfa_offset 16
 614 0004 00AF     		add	r7, sp, #0
 615              	.LCFI31:
 616              		.cfi_def_cfa_register 7
 617 0006 7860     		str	r0, [r7, #4]
 618              		.loc 4 51 0
 619 0008 024B     		ldr	r3, .L32
 620 000a 181C     		mov	r0, r3
 621 000c BD46     		mov	sp, r7
 622 000e 02B0     		add	sp, sp, #8
 623              		@ sp needed for prologue
 624 0010 80BD     		pop	{r7, pc}
 625              	.L33:
 626 0012 C046     		.align	2
 627              	.L32:
 628 0014 44000000 		.word	.LC7
 629              		.cfi_endproc
 630              	.LFE112:
 631              		.size	_ZN8std_msgs5Int166getMD5Ev, .-_ZN8std_msgs5Int166getMD5Ev
 632              		.section	.text._ZN3ros3MsgC2Ev,"axG",%progbits,_ZN3ros3MsgC5Ev,comdat
 633              		.align	2
 634              		.weak	_ZN3ros3MsgC2Ev
 635              		.code	16
 636              		.thumb_func
 637              		.type	_ZN3ros3MsgC2Ev, %function
 638              	_ZN3ros3MsgC2Ev:
ARM GAS  C:\DOCUME~1\Chuck\LOCALS~1\Temp\ccX3vOCl.s 			page 16


 639              	.LFB148:
 640              		.file 5 "./ros_lib/ros/msg.h"
   1:./ros_lib/ros/msg.h **** /* 
   2:./ros_lib/ros/msg.h ****  * Software License Agreement (BSD License)
   3:./ros_lib/ros/msg.h ****  *
   4:./ros_lib/ros/msg.h ****  * Copyright (c) 2011, Willow Garage, Inc.
   5:./ros_lib/ros/msg.h ****  * All rights reserved.
   6:./ros_lib/ros/msg.h ****  *
   7:./ros_lib/ros/msg.h ****  * Redistribution and use in source and binary forms, with or without
   8:./ros_lib/ros/msg.h ****  * modification, are permitted provided that the following conditions
   9:./ros_lib/ros/msg.h ****  * are met:
  10:./ros_lib/ros/msg.h ****  *
  11:./ros_lib/ros/msg.h ****  *  * Redistributions of source code must retain the above copyright
  12:./ros_lib/ros/msg.h ****  *    notice, this list of conditions and the following disclaimer.
  13:./ros_lib/ros/msg.h ****  *  * Redistributions in binary form must reproduce the above
  14:./ros_lib/ros/msg.h ****  *    copyright notice, this list of conditions and the following
  15:./ros_lib/ros/msg.h ****  *    disclaimer in the documentation and/or other materials provided
  16:./ros_lib/ros/msg.h ****  *    with the distribution.
  17:./ros_lib/ros/msg.h ****  *  * Neither the name of Willow Garage, Inc. nor the names of its
  18:./ros_lib/ros/msg.h ****  *    contributors may be used to endorse or promote prducts derived
  19:./ros_lib/ros/msg.h ****  *    from this software without specific prior written permission.
  20:./ros_lib/ros/msg.h ****  *
  21:./ros_lib/ros/msg.h ****  * THIS SOFTWARE IS PROVIDED BY THE COPYRIGHT HOLDERS AND CONTRIBUTORS
  22:./ros_lib/ros/msg.h ****  * "AS IS" AND ANY EXPRESS OR IMPLIED WARRANTIES, INCLUDING, BUT NOT
  23:./ros_lib/ros/msg.h ****  * LIMITED TO, THE IMPLIED WARRANTIES OF MERCHANTABILITY AND FITNESS
  24:./ros_lib/ros/msg.h ****  * FOR A PARTICULAR PURPOSE ARE DISCLAIMED. IN NO EVENT SHALL THE
  25:./ros_lib/ros/msg.h ****  * COPYRIGHT OWNER OR CONTRIBUTORS BE LIABLE FOR ANY DIRECT, INDIRECT,
  26:./ros_lib/ros/msg.h ****  * INCIDENTAL, SPECIAL, EXEMPLARY, OR CONSEQUENTIAL DAMAGES (INCLUDING,
  27:./ros_lib/ros/msg.h ****  * BUT NOT LIMITED TO, PROCUREMENT OF SUBSTITUTE GOODS OR SERVICES;
  28:./ros_lib/ros/msg.h ****  * LOSS OF USE, DATA, OR PROFITS; OR BUSINESS INTERRUPTION) HOWEVER
  29:./ros_lib/ros/msg.h ****  * CAUSED AND ON ANY THEORY OF LIABILITY, WHETHER IN CONTRACT, STRICT
  30:./ros_lib/ros/msg.h ****  * LIABILITY, OR TORT (INCLUDING NEGLIGENCE OR OTHERWISE) ARISING IN
  31:./ros_lib/ros/msg.h ****  * ANY WAY OUT OF THE USE OF THIS SOFTWARE, EVEN IF ADVISED OF THE
  32:./ros_lib/ros/msg.h ****  * POSSIBILITY OF SUCH DAMAGE.
  33:./ros_lib/ros/msg.h ****  */
  34:./ros_lib/ros/msg.h **** 
  35:./ros_lib/ros/msg.h **** #ifndef _ROS_MSG_H_
  36:./ros_lib/ros/msg.h **** #define _ROS_MSG_H_
  37:./ros_lib/ros/msg.h **** 
  38:./ros_lib/ros/msg.h **** namespace ros {
  39:./ros_lib/ros/msg.h **** 
  40:./ros_lib/ros/msg.h ****   /* Base Message Type */
  41:./ros_lib/ros/msg.h ****   class Msg
 641              		.loc 5 41 0
 642              		.cfi_startproc
 643 0000 80B5     		push	{r7, lr}
 644              	.LCFI32:
 645              		.cfi_def_cfa_offset 8
 646              		.cfi_offset 7, -8
 647              		.cfi_offset 14, -4
 648 0002 82B0     		sub	sp, sp, #8
 649              	.LCFI33:
 650              		.cfi_def_cfa_offset 16
 651 0004 00AF     		add	r7, sp, #0
 652              	.LCFI34:
 653              		.cfi_def_cfa_register 7
 654 0006 7860     		str	r0, [r7, #4]
ARM GAS  C:\DOCUME~1\Chuck\LOCALS~1\Temp\ccX3vOCl.s 			page 17


 655              	.LBB7:
 656              		.loc 5 41 0
 657 0008 7B68     		ldr	r3, [r7, #4]
 658 000a 034A     		ldr	r2, .L37
 659 000c 1A60     		str	r2, [r3]
 660              	.LBE7:
 661 000e 7B68     		ldr	r3, [r7, #4]
 662 0010 181C     		mov	r0, r3
 663 0012 BD46     		mov	sp, r7
 664 0014 02B0     		add	sp, sp, #8
 665              		@ sp needed for prologue
 666 0016 80BD     		pop	{r7, pc}
 667              	.L38:
 668              		.align	2
 669              	.L37:
 670 0018 08000000 		.word	_ZTVN3ros3MsgE+8
 671              		.cfi_endproc
 672              	.LFE148:
 673              		.size	_ZN3ros3MsgC2Ev, .-_ZN3ros3MsgC2Ev
 674              		.weak	_ZN3ros3MsgC1Ev
 675              		.thumb_set _ZN3ros3MsgC1Ev,_ZN3ros3MsgC2Ev
 676              		.section	.text._ZN8std_msgs5Int32C2Ev,"axG",%progbits,_ZN8std_msgs5Int32C5Ev,comdat
 677              		.align	2
 678              		.weak	_ZN8std_msgs5Int32C2Ev
 679              		.code	16
 680              		.thumb_func
 681              		.type	_ZN8std_msgs5Int32C2Ev, %function
 682              	_ZN8std_msgs5Int32C2Ev:
 683              	.LFB150:
  12:./ros_lib/std_msgs/Int32.h ****   class Int32 : public ros::Msg
 684              		.loc 3 12 0
 685              		.cfi_startproc
 686 0000 80B5     		push	{r7, lr}
 687              	.LCFI35:
 688              		.cfi_def_cfa_offset 8
 689              		.cfi_offset 7, -8
 690              		.cfi_offset 14, -4
 691 0002 82B0     		sub	sp, sp, #8
 692              	.LCFI36:
 693              		.cfi_def_cfa_offset 16
 694 0004 00AF     		add	r7, sp, #0
 695              	.LCFI37:
 696              		.cfi_def_cfa_register 7
 697 0006 7860     		str	r0, [r7, #4]
 698              	.LBB8:
  12:./ros_lib/std_msgs/Int32.h ****   class Int32 : public ros::Msg
 699              		.loc 3 12 0
 700 0008 7B68     		ldr	r3, [r7, #4]
 701 000a 181C     		mov	r0, r3
 702 000c FFF7FEFF 		bl	_ZN3ros3MsgC2Ev
 703 0010 7B68     		ldr	r3, [r7, #4]
 704 0012 034A     		ldr	r2, .L42
 705 0014 1A60     		str	r2, [r3]
 706              	.LBE8:
 707 0016 7B68     		ldr	r3, [r7, #4]
 708 0018 181C     		mov	r0, r3
 709 001a BD46     		mov	sp, r7
ARM GAS  C:\DOCUME~1\Chuck\LOCALS~1\Temp\ccX3vOCl.s 			page 18


 710 001c 02B0     		add	sp, sp, #8
 711              		@ sp needed for prologue
 712 001e 80BD     		pop	{r7, pc}
 713              	.L43:
 714              		.align	2
 715              	.L42:
 716 0020 08000000 		.word	_ZTVN8std_msgs5Int32E+8
 717              		.cfi_endproc
 718              	.LFE150:
 719              		.size	_ZN8std_msgs5Int32C2Ev, .-_ZN8std_msgs5Int32C2Ev
 720              		.weak	_ZN8std_msgs5Int32C1Ev
 721              		.thumb_set _ZN8std_msgs5Int32C1Ev,_ZN8std_msgs5Int32C2Ev
 722              		.global	_ZN7Encoder11encoder_msgE
 723              		.bss
 724              		.align	2
 725              		.type	_ZN7Encoder11encoder_msgE, %object
 726              		.size	_ZN7Encoder11encoder_msgE, 8
 727              	_ZN7Encoder11encoder_msgE:
 728 0000 00000000 		.space	8
 728      00000000 
 729              		.global	_ZN7Encoder1pE
 730              		.align	2
 731              		.type	_ZN7Encoder1pE, %object
 732              		.size	_ZN7Encoder1pE, 20
 733              	_ZN7Encoder1pE:
 734 0008 00000000 		.space	20
 734      00000000 
 734      00000000 
 734      00000000 
 734      00000000 
 735              		.section	.text._ZN8std_msgs5Int16C2Ev,"axG",%progbits,_ZN8std_msgs5Int16C5Ev,comdat
 736              		.align	2
 737              		.weak	_ZN8std_msgs5Int16C2Ev
 738              		.code	16
 739              		.thumb_func
 740              		.type	_ZN8std_msgs5Int16C2Ev, %function
 741              	_ZN8std_msgs5Int16C2Ev:
 742              	.LFB153:
  12:./ros_lib/std_msgs/Int16.h ****   class Int16 : public ros::Msg
 743              		.loc 4 12 0
 744              		.cfi_startproc
 745 0000 80B5     		push	{r7, lr}
 746              	.LCFI38:
 747              		.cfi_def_cfa_offset 8
 748              		.cfi_offset 7, -8
 749              		.cfi_offset 14, -4
 750 0002 82B0     		sub	sp, sp, #8
 751              	.LCFI39:
 752              		.cfi_def_cfa_offset 16
 753 0004 00AF     		add	r7, sp, #0
 754              	.LCFI40:
 755              		.cfi_def_cfa_register 7
 756 0006 7860     		str	r0, [r7, #4]
 757              	.LBB9:
  12:./ros_lib/std_msgs/Int16.h ****   class Int16 : public ros::Msg
 758              		.loc 4 12 0
 759 0008 7B68     		ldr	r3, [r7, #4]
ARM GAS  C:\DOCUME~1\Chuck\LOCALS~1\Temp\ccX3vOCl.s 			page 19


 760 000a 181C     		mov	r0, r3
 761 000c FFF7FEFF 		bl	_ZN3ros3MsgC2Ev
 762 0010 7B68     		ldr	r3, [r7, #4]
 763 0012 034A     		ldr	r2, .L47
 764 0014 1A60     		str	r2, [r3]
 765              	.LBE9:
 766 0016 7B68     		ldr	r3, [r7, #4]
 767 0018 181C     		mov	r0, r3
 768 001a BD46     		mov	sp, r7
 769 001c 02B0     		add	sp, sp, #8
 770              		@ sp needed for prologue
 771 001e 80BD     		pop	{r7, pc}
 772              	.L48:
 773              		.align	2
 774              	.L47:
 775 0020 08000000 		.word	_ZTVN8std_msgs5Int16E+8
 776              		.cfi_endproc
 777              	.LFE153:
 778              		.size	_ZN8std_msgs5Int16C2Ev, .-_ZN8std_msgs5Int16C2Ev
 779              		.weak	_ZN8std_msgs5Int16C1Ev
 780              		.thumb_set _ZN8std_msgs5Int16C1Ev,_ZN8std_msgs5Int16C2Ev
 781              		.global	_ZN7Encoder11counter_msgE
 782              		.bss
 783              		.align	2
 784              		.type	_ZN7Encoder11counter_msgE, %object
 785              		.size	_ZN7Encoder11counter_msgE, 8
 786              	_ZN7Encoder11counter_msgE:
 787 001c 00000000 		.space	8
 787      00000000 
 788              		.global	_ZN7Encoder2pcE
 789              		.align	2
 790              		.type	_ZN7Encoder2pcE, %object
 791              		.size	_ZN7Encoder2pcE, 20
 792              	_ZN7Encoder2pcE:
 793 0024 00000000 		.space	20
 793      00000000 
 793      00000000 
 793      00000000 
 793      00000000 
 794              		.global	_ZN7Encoder16next_report_timeE
 795              		.align	2
 796              		.type	_ZN7Encoder16next_report_timeE, %object
 797              		.size	_ZN7Encoder16next_report_timeE, 4
 798              	_ZN7Encoder16next_report_timeE:
 799 0038 00000000 		.space	4
 800              		.global	_ZN7Encoder14next_read_timeE
 801              		.align	2
 802              		.type	_ZN7Encoder14next_read_timeE, %object
 803              		.size	_ZN7Encoder14next_read_timeE, 4
 804              	_ZN7Encoder14next_read_timeE:
 805 003c 00000000 		.space	4
 806              		.global	_ZN7Encoder16prev_counter_valE
 807              		.align	1
 808              		.type	_ZN7Encoder16prev_counter_valE, %object
 809              		.size	_ZN7Encoder16prev_counter_valE, 2
 810              	_ZN7Encoder16prev_counter_valE:
 811 0040 0000     		.space	2
ARM GAS  C:\DOCUME~1\Chuck\LOCALS~1\Temp\ccX3vOCl.s 			page 20


 812 0042 0000     		.section	.text._ZN7Encoder5setupEv,"ax",%progbits
 813              		.align	2
 814              		.global	_ZN7Encoder5setupEv
 815              		.code	16
 816              		.thumb_func
 817              		.type	_ZN7Encoder5setupEv, %function
 818              	_ZN7Encoder5setupEv:
 819              	.LFB155:
 820              		.file 6 ".\\ros_lib\\examples\\Encoder\\Encoder.cpp"
   1:.\ros_lib\examples\Encoder/Encoder.cpp **** /* 
   2:.\ros_lib\examples\Encoder/Encoder.cpp ****  * rosserial Encoder example for PSoC4 "RosOnAStick"
   3:.\ros_lib\examples\Encoder/Encoder.cpp ****  * 
   4:.\ros_lib\examples\Encoder/Encoder.cpp ****  * reads a quadrature optical encoder using PSoC hardware counter
   5:.\ros_lib\examples\Encoder/Encoder.cpp ****  *
   6:.\ros_lib\examples\Encoder/Encoder.cpp ****  * Copyright C. Harrison
   7:.\ros_lib\examples\Encoder/Encoder.cpp ****  * BSD 2-clause license http://opensource.org/licenses/BSD-2-Clause
   8:.\ros_lib\examples\Encoder/Encoder.cpp ****  *
   9:.\ros_lib\examples\Encoder/Encoder.cpp ****  */
  10:.\ros_lib\examples\Encoder/Encoder.cpp **** 
  11:.\ros_lib\examples\Encoder/Encoder.cpp **** #include <ros.h>
  12:.\ros_lib\examples\Encoder/Encoder.cpp **** #include <std_msgs/Int32.h>
  13:.\ros_lib\examples\Encoder/Encoder.cpp **** #include <std_msgs/Int16.h>
  14:.\ros_lib\examples\Encoder/Encoder.cpp **** #include "Encoder.h"
  15:.\ros_lib\examples\Encoder/Encoder.cpp **** 
  16:.\ros_lib\examples\Encoder/Encoder.cpp **** extern ros::NodeHandle nh;
  17:.\ros_lib\examples\Encoder/Encoder.cpp **** 
  18:.\ros_lib\examples\Encoder/Encoder.cpp **** namespace Encoder {
  19:.\ros_lib\examples\Encoder/Encoder.cpp **** 
  20:.\ros_lib\examples\Encoder/Encoder.cpp **** std_msgs::Int32 encoder_msg;
  21:.\ros_lib\examples\Encoder/Encoder.cpp **** ros::Publisher p("encoder", &encoder_msg);
  22:.\ros_lib\examples\Encoder/Encoder.cpp **** std_msgs::Int16 counter_msg;
  23:.\ros_lib\examples\Encoder/Encoder.cpp **** ros::Publisher pc("counter", &counter_msg);
  24:.\ros_lib\examples\Encoder/Encoder.cpp **** 
  25:.\ros_lib\examples\Encoder/Encoder.cpp **** uint32_t next_report_time;
  26:.\ros_lib\examples\Encoder/Encoder.cpp **** const uint32_t kReportIntervalMs = 200;
  27:.\ros_lib\examples\Encoder/Encoder.cpp **** uint32_t next_read_time;
  28:.\ros_lib\examples\Encoder/Encoder.cpp **** const uint32_t kReadIntervalMs = 10; // fast enough to avoid 0x4000 counts in one interval
  29:.\ros_lib\examples\Encoder/Encoder.cpp **** int16_t prev_counter_val;
  30:.\ros_lib\examples\Encoder/Encoder.cpp **** 
  31:.\ros_lib\examples\Encoder/Encoder.cpp **** void setup()
  32:.\ros_lib\examples\Encoder/Encoder.cpp **** { 
 821              		.loc 6 32 0
 822              		.cfi_startproc
 823 0000 80B5     		push	{r7, lr}
 824              	.LCFI41:
 825              		.cfi_def_cfa_offset 8
 826              		.cfi_offset 7, -8
 827              		.cfi_offset 14, -4
 828 0002 00AF     		add	r7, sp, #0
 829              	.LCFI42:
 830              		.cfi_def_cfa_register 7
  33:.\ros_lib\examples\Encoder/Encoder.cpp ****   nh.advertise(p);
 831              		.loc 6 33 0
 832 0004 124A     		ldr	r2, .L50
 833 0006 134B     		ldr	r3, .L50+4
 834 0008 101C     		mov	r0, r2
 835 000a 191C     		mov	r1, r3
ARM GAS  C:\DOCUME~1\Chuck\LOCALS~1\Temp\ccX3vOCl.s 			page 21


 836 000c FFF7FEFF 		bl	_ZN3ros11NodeHandle_I13Psoc4HardwareLi10ELi20ELi200ELi200EE9advertiseERNS_9PublisherE
  34:.\ros_lib\examples\Encoder/Encoder.cpp ****   nh.advertise(pc);
 837              		.loc 6 34 0
 838 0010 0F4A     		ldr	r2, .L50
 839 0012 114B     		ldr	r3, .L50+8
 840 0014 101C     		mov	r0, r2
 841 0016 191C     		mov	r1, r3
 842 0018 FFF7FEFF 		bl	_ZN3ros11NodeHandle_I13Psoc4HardwareLi10ELi20ELi200ELi200EE9advertiseERNS_9PublisherE
  35:.\ros_lib\examples\Encoder/Encoder.cpp ****   next_report_time = SysTimer::millis();
 843              		.loc 6 35 0
 844 001c FFF7FEFF 		bl	_ZN8SysTimer6millisEv
 845 0020 021C     		mov	r2, r0
 846 0022 0E4B     		ldr	r3, .L50+12
 847 0024 1A60     		str	r2, [r3]
  36:.\ros_lib\examples\Encoder/Encoder.cpp ****   next_read_time = SysTimer::millis();
 848              		.loc 6 36 0
 849 0026 FFF7FEFF 		bl	_ZN8SysTimer6millisEv
 850 002a 021C     		mov	r2, r0
 851 002c 0C4B     		ldr	r3, .L50+16
 852 002e 1A60     		str	r2, [r3]
  37:.\ros_lib\examples\Encoder/Encoder.cpp ****   QuadDec_1_Start();
 853              		.loc 6 37 0
 854 0030 FFF7FEFF 		bl	QuadDec_1_Start
  38:.\ros_lib\examples\Encoder/Encoder.cpp ****   Quad_Clock_Start();
 855              		.loc 6 38 0
 856 0034 FFF7FEFF 		bl	Quad_Clock_Start
  39:.\ros_lib\examples\Encoder/Encoder.cpp ****   QuadDec_1_TriggerCommand(QuadDec_1_MASK, QuadDec_1_CMD_RELOAD);
 857              		.loc 6 39 0
 858 0038 0120     		mov	r0, #1
 859 003a 0821     		mov	r1, #8
 860 003c FFF7FEFF 		bl	QuadDec_1_TriggerCommand
  40:.\ros_lib\examples\Encoder/Encoder.cpp ****   prev_counter_val = 0; // reload sets value to 0x8000
 861              		.loc 6 40 0
 862 0040 084B     		ldr	r3, .L50+20
 863 0042 0022     		mov	r2, #0
 864 0044 1A80     		strh	r2, [r3]
  41:.\ros_lib\examples\Encoder/Encoder.cpp ****   encoder_msg.data = 0;
 865              		.loc 6 41 0
 866 0046 084B     		ldr	r3, .L50+24
 867 0048 0022     		mov	r2, #0
 868 004a 5A60     		str	r2, [r3, #4]
  42:.\ros_lib\examples\Encoder/Encoder.cpp **** }
 869              		.loc 6 42 0
 870 004c BD46     		mov	sp, r7
 871              		@ sp needed for prologue
 872 004e 80BD     		pop	{r7, pc}
 873              	.L51:
 874              		.align	2
 875              	.L50:
 876 0050 00000000 		.word	nh
 877 0054 00000000 		.word	_ZN7Encoder1pE
 878 0058 00000000 		.word	_ZN7Encoder2pcE
 879 005c 00000000 		.word	_ZN7Encoder16next_report_timeE
 880 0060 00000000 		.word	_ZN7Encoder14next_read_timeE
 881 0064 00000000 		.word	_ZN7Encoder16prev_counter_valE
 882 0068 00000000 		.word	_ZN7Encoder11encoder_msgE
 883              		.cfi_endproc
ARM GAS  C:\DOCUME~1\Chuck\LOCALS~1\Temp\ccX3vOCl.s 			page 22


 884              	.LFE155:
 885              		.size	_ZN7Encoder5setupEv, .-_ZN7Encoder5setupEv
 886              		.section	.text._ZN7Encoder12read_counterEv,"ax",%progbits
 887              		.align	2
 888              		.global	_ZN7Encoder12read_counterEv
 889              		.code	16
 890              		.thumb_func
 891              		.type	_ZN7Encoder12read_counterEv, %function
 892              	_ZN7Encoder12read_counterEv:
 893              	.LFB156:
  43:.\ros_lib\examples\Encoder/Encoder.cpp **** 
  44:.\ros_lib\examples\Encoder/Encoder.cpp **** void read_counter() {
 894              		.loc 6 44 0
 895              		.cfi_startproc
 896 0000 80B5     		push	{r7, lr}
 897              	.LCFI43:
 898              		.cfi_def_cfa_offset 8
 899              		.cfi_offset 7, -8
 900              		.cfi_offset 14, -4
 901 0002 82B0     		sub	sp, sp, #8
 902              	.LCFI44:
 903              		.cfi_def_cfa_offset 16
 904 0004 00AF     		add	r7, sp, #0
 905              	.LCFI45:
 906              		.cfi_def_cfa_register 7
 907              	.LBB10:
  45:.\ros_lib\examples\Encoder/Encoder.cpp ****     // PSoC4 16-bit hardware counter rolls over in a special way; ignore that and use lower 15 bits
  46:.\ros_lib\examples\Encoder/Encoder.cpp ****     int16_t counter_val = 0x7FFF & QuadDec_1_ReadCounter();
 908              		.loc 6 46 0
 909 0006 FFF7FEFF 		bl	QuadDec_1_ReadCounter
 910 000a 031C     		mov	r3, r0
 911 000c 9AB2     		uxth	r2, r3
 912 000e BB1C     		add	r3, r7, #2
 913 0010 5204     		lsl	r2, r2, #17
 914 0012 520C     		lsr	r2, r2, #17
 915 0014 1A80     		strh	r2, [r3]
  47:.\ros_lib\examples\Encoder/Encoder.cpp ****     counter_msg.data = counter_val;
 916              		.loc 6 47 0
 917 0016 164B     		ldr	r3, .L55
 918 0018 BA1C     		add	r2, r7, #2
 919 001a 1288     		ldrh	r2, [r2]
 920 001c 9A80     		strh	r2, [r3, #4]
  48:.\ros_lib\examples\Encoder/Encoder.cpp ****     int32_t delta = counter_val - prev_counter_val;
 921              		.loc 6 48 0
 922 001e BB1C     		add	r3, r7, #2
 923 0020 0021     		mov	r1, #0
 924 0022 5A5E     		ldrsh	r2, [r3, r1]
 925 0024 134B     		ldr	r3, .L55+4
 926 0026 1B88     		ldrh	r3, [r3]
 927 0028 1BB2     		sxth	r3, r3
 928 002a D31A     		sub	r3, r2, r3
 929 002c 7B60     		str	r3, [r7, #4]
  49:.\ros_lib\examples\Encoder/Encoder.cpp ****     if (delta > 0x4000) { delta -= 0x8000; }
 930              		.loc 6 49 0
 931 002e 7A68     		ldr	r2, [r7, #4]
 932 0030 8023     		mov	r3, #128
 933 0032 DB01     		lsl	r3, r3, #7
ARM GAS  C:\DOCUME~1\Chuck\LOCALS~1\Temp\ccX3vOCl.s 			page 23


 934 0034 9A42     		cmp	r2, r3
 935 0036 04DD     		ble	.L53
 936              		.loc 6 49 0 is_stmt 0 discriminator 1
 937 0038 7B68     		ldr	r3, [r7, #4]
 938 003a 0F4A     		ldr	r2, .L55+8
 939 003c 9B18     		add	r3, r3, r2
 940 003e 7B60     		str	r3, [r7, #4]
 941 0040 08E0     		b	.L54
 942              	.L53:
  50:.\ros_lib\examples\Encoder/Encoder.cpp ****     else if (delta < -0x4000) { delta += 0x8000; }
 943              		.loc 6 50 0 is_stmt 1
 944 0042 7A68     		ldr	r2, [r7, #4]
 945 0044 0D4B     		ldr	r3, .L55+12
 946 0046 9A42     		cmp	r2, r3
 947 0048 04DA     		bge	.L54
 948              		.loc 6 50 0 is_stmt 0 discriminator 1
 949 004a 7B68     		ldr	r3, [r7, #4]
 950 004c 8021     		mov	r1, #128
 951 004e 0902     		lsl	r1, r1, #8
 952 0050 5B18     		add	r3, r3, r1
 953 0052 7B60     		str	r3, [r7, #4]
 954              	.L54:
  51:.\ros_lib\examples\Encoder/Encoder.cpp ****     encoder_msg.data += delta;
 955              		.loc 6 51 0 is_stmt 1
 956 0054 0A4B     		ldr	r3, .L55+16
 957 0056 5A68     		ldr	r2, [r3, #4]
 958 0058 7B68     		ldr	r3, [r7, #4]
 959 005a D218     		add	r2, r2, r3
 960 005c 084B     		ldr	r3, .L55+16
 961 005e 5A60     		str	r2, [r3, #4]
  52:.\ros_lib\examples\Encoder/Encoder.cpp ****     prev_counter_val = counter_val;
 962              		.loc 6 52 0
 963 0060 044B     		ldr	r3, .L55+4
 964 0062 BA1C     		add	r2, r7, #2
 965 0064 1288     		ldrh	r2, [r2]
 966 0066 1A80     		strh	r2, [r3]
 967              	.LBE10:
  53:.\ros_lib\examples\Encoder/Encoder.cpp **** }
 968              		.loc 6 53 0
 969 0068 BD46     		mov	sp, r7
 970 006a 02B0     		add	sp, sp, #8
 971              		@ sp needed for prologue
 972 006c 80BD     		pop	{r7, pc}
 973              	.L56:
 974 006e C046     		.align	2
 975              	.L55:
 976 0070 00000000 		.word	_ZN7Encoder11counter_msgE
 977 0074 00000000 		.word	_ZN7Encoder16prev_counter_valE
 978 0078 0080FFFF 		.word	-32768
 979 007c 00C0FFFF 		.word	-16384
 980 0080 00000000 		.word	_ZN7Encoder11encoder_msgE
 981              		.cfi_endproc
 982              	.LFE156:
 983              		.size	_ZN7Encoder12read_counterEv, .-_ZN7Encoder12read_counterEv
 984              		.section	.text._ZN7Encoder4loopEv,"ax",%progbits
 985              		.align	2
 986              		.global	_ZN7Encoder4loopEv
ARM GAS  C:\DOCUME~1\Chuck\LOCALS~1\Temp\ccX3vOCl.s 			page 24


 987              		.code	16
 988              		.thumb_func
 989              		.type	_ZN7Encoder4loopEv, %function
 990              	_ZN7Encoder4loopEv:
 991              	.LFB157:
  54:.\ros_lib\examples\Encoder/Encoder.cpp **** void loop()
  55:.\ros_lib\examples\Encoder/Encoder.cpp **** {
 992              		.loc 6 55 0
 993              		.cfi_startproc
 994 0000 80B5     		push	{r7, lr}
 995              	.LCFI46:
 996              		.cfi_def_cfa_offset 8
 997              		.cfi_offset 7, -8
 998              		.cfi_offset 14, -4
 999 0002 00AF     		add	r7, sp, #0
 1000              	.LCFI47:
 1001              		.cfi_def_cfa_register 7
  56:.\ros_lib\examples\Encoder/Encoder.cpp **** 
  57:.\ros_lib\examples\Encoder/Encoder.cpp ****   if ((int32_t)(SysTimer::millis()-next_read_time) > 0) {
 1002              		.loc 6 57 0
 1003 0004 FFF7FEFF 		bl	_ZN8SysTimer6millisEv
 1004 0008 021C     		mov	r2, r0
 1005 000a 194B     		ldr	r3, .L60
 1006 000c 1B68     		ldr	r3, [r3]
 1007 000e D31A     		sub	r3, r2, r3
 1008 0010 DA17     		asr	r2, r3, #31
 1009 0012 D31A     		sub	r3, r2, r3
 1010 0014 DB0F     		lsr	r3, r3, #31
 1011 0016 DBB2     		uxtb	r3, r3
 1012 0018 002B     		cmp	r3, #0
 1013 001a 0DD0     		beq	.L58
  58:.\ros_lib\examples\Encoder/Encoder.cpp ****     next_read_time += kReadIntervalMs;
 1014              		.loc 6 58 0
 1015 001c 144B     		ldr	r3, .L60
 1016 001e 1B68     		ldr	r3, [r3]
 1017 0020 1A1C     		mov	r2, r3
 1018 0022 0A32     		add	r2, r2, #10
 1019 0024 124B     		ldr	r3, .L60
 1020 0026 1A60     		str	r2, [r3]
  59:.\ros_lib\examples\Encoder/Encoder.cpp ****     read_counter();
 1021              		.loc 6 59 0
 1022 0028 FFF7FEFF 		bl	_ZN7Encoder12read_counterEv
  60:.\ros_lib\examples\Encoder/Encoder.cpp ****     pc.publish(&counter_msg);
 1023              		.loc 6 60 0
 1024 002c 114A     		ldr	r2, .L60+4
 1025 002e 124B     		ldr	r3, .L60+8
 1026 0030 101C     		mov	r0, r2
 1027 0032 191C     		mov	r1, r3
 1028 0034 FFF7FEFF 		bl	_ZN3ros9Publisher7publishEPKNS_3MsgE
 1029              	.L58:
  61:.\ros_lib\examples\Encoder/Encoder.cpp ****   }
  62:.\ros_lib\examples\Encoder/Encoder.cpp ****   if ((int32_t)(SysTimer::millis()-next_report_time) > 0) {
 1030              		.loc 6 62 0
 1031 0038 FFF7FEFF 		bl	_ZN8SysTimer6millisEv
 1032 003c 021C     		mov	r2, r0
 1033 003e 0F4B     		ldr	r3, .L60+12
 1034 0040 1B68     		ldr	r3, [r3]
ARM GAS  C:\DOCUME~1\Chuck\LOCALS~1\Temp\ccX3vOCl.s 			page 25


 1035 0042 D31A     		sub	r3, r2, r3
 1036 0044 DA17     		asr	r2, r3, #31
 1037 0046 D31A     		sub	r3, r2, r3
 1038 0048 DB0F     		lsr	r3, r3, #31
 1039 004a DBB2     		uxtb	r3, r3
 1040 004c 002B     		cmp	r3, #0
 1041 004e 0DD0     		beq	.L57
  63:.\ros_lib\examples\Encoder/Encoder.cpp ****     next_report_time += kReportIntervalMs;
 1042              		.loc 6 63 0
 1043 0050 0A4B     		ldr	r3, .L60+12
 1044 0052 1B68     		ldr	r3, [r3]
 1045 0054 1A1C     		mov	r2, r3
 1046 0056 C832     		add	r2, r2, #200
 1047 0058 084B     		ldr	r3, .L60+12
 1048 005a 1A60     		str	r2, [r3]
  64:.\ros_lib\examples\Encoder/Encoder.cpp ****     read_counter();
 1049              		.loc 6 64 0
 1050 005c FFF7FEFF 		bl	_ZN7Encoder12read_counterEv
  65:.\ros_lib\examples\Encoder/Encoder.cpp ****     p.publish(&encoder_msg);
 1051              		.loc 6 65 0
 1052 0060 074A     		ldr	r2, .L60+16
 1053 0062 084B     		ldr	r3, .L60+20
 1054 0064 101C     		mov	r0, r2
 1055 0066 191C     		mov	r1, r3
 1056 0068 FFF7FEFF 		bl	_ZN3ros9Publisher7publishEPKNS_3MsgE
 1057              	.L57:
  66:.\ros_lib\examples\Encoder/Encoder.cpp ****   }
  67:.\ros_lib\examples\Encoder/Encoder.cpp **** }
 1058              		.loc 6 67 0
 1059 006c BD46     		mov	sp, r7
 1060              		@ sp needed for prologue
 1061 006e 80BD     		pop	{r7, pc}
 1062              	.L61:
 1063              		.align	2
 1064              	.L60:
 1065 0070 00000000 		.word	_ZN7Encoder14next_read_timeE
 1066 0074 00000000 		.word	_ZN7Encoder2pcE
 1067 0078 00000000 		.word	_ZN7Encoder11counter_msgE
 1068 007c 00000000 		.word	_ZN7Encoder16next_report_timeE
 1069 0080 00000000 		.word	_ZN7Encoder1pE
 1070 0084 00000000 		.word	_ZN7Encoder11encoder_msgE
 1071              		.cfi_endproc
 1072              	.LFE157:
 1073              		.size	_ZN7Encoder4loopEv, .-_ZN7Encoder4loopEv
 1074              		.section	.text._ZN3ros11NodeHandle_I13Psoc4HardwareLi10ELi20ELi200ELi200EE9advertiseERNS_9Publishe
 1075              		.align	2
 1076              		.weak	_ZN3ros11NodeHandle_I13Psoc4HardwareLi10ELi20ELi200ELi200EE9advertiseERNS_9PublisherE
 1077              		.code	16
 1078              		.thumb_func
 1079              		.type	_ZN3ros11NodeHandle_I13Psoc4HardwareLi10ELi20ELi200ELi200EE9advertiseERNS_9PublisherE, %func
 1080              	_ZN3ros11NodeHandle_I13Psoc4HardwareLi10ELi20ELi200ELi200EE9advertiseERNS_9PublisherE:
 1081              	.LFB158:
 1082              		.file 7 "./ros_lib/ros/node_handle.h"
   1:./ros_lib/ros/node_handle.h **** /*
   2:./ros_lib/ros/node_handle.h ****  * Software License Agreement (BSD License)
   3:./ros_lib/ros/node_handle.h ****  *
   4:./ros_lib/ros/node_handle.h ****  * Copyright (c) 2011, Willow Garage, Inc.
ARM GAS  C:\DOCUME~1\Chuck\LOCALS~1\Temp\ccX3vOCl.s 			page 26


   5:./ros_lib/ros/node_handle.h ****  * All rights reserved.
   6:./ros_lib/ros/node_handle.h ****  *
   7:./ros_lib/ros/node_handle.h ****  * Redistribution and use in source and binary forms, with or without
   8:./ros_lib/ros/node_handle.h ****  * modification, are permitted provided that the following conditions
   9:./ros_lib/ros/node_handle.h ****  * are met:
  10:./ros_lib/ros/node_handle.h ****  *
  11:./ros_lib/ros/node_handle.h ****  *  * Redistributions of source code must retain the above copyright
  12:./ros_lib/ros/node_handle.h ****  *    notice, this list of conditions and the following disclaimer.
  13:./ros_lib/ros/node_handle.h ****  *  * Redistributions in binary form must reproduce the above
  14:./ros_lib/ros/node_handle.h ****  *    copyright notice, this list of conditions and the following
  15:./ros_lib/ros/node_handle.h ****  *    disclaimer in the documentation and/or other materials provided
  16:./ros_lib/ros/node_handle.h ****  *    with the distribution.
  17:./ros_lib/ros/node_handle.h ****  *  * Neither the name of Willow Garage, Inc. nor the names of its
  18:./ros_lib/ros/node_handle.h ****  *    contributors may be used to endorse or promote prducts derived
  19:./ros_lib/ros/node_handle.h ****  *    from this software without specific prior written permission.
  20:./ros_lib/ros/node_handle.h ****  *
  21:./ros_lib/ros/node_handle.h ****  * THIS SOFTWARE IS PROVIDED BY THE COPYRIGHT HOLDERS AND CONTRIBUTORS
  22:./ros_lib/ros/node_handle.h ****  * "AS IS" AND ANY EXPRESS OR IMPLIED WARRANTIES, INCLUDING, BUT NOT
  23:./ros_lib/ros/node_handle.h ****  * LIMITED TO, THE IMPLIED WARRANTIES OF MERCHANTABILITY AND FITNESS
  24:./ros_lib/ros/node_handle.h ****  * FOR A PARTICULAR PURPOSE ARE DISCLAIMED. IN NO EVENT SHALL THE
  25:./ros_lib/ros/node_handle.h ****  * COPYRIGHT OWNER OR CONTRIBUTORS BE LIABLE FOR ANY DIRECT, INDIRECT,
  26:./ros_lib/ros/node_handle.h ****  * INCIDENTAL, SPECIAL, EXEMPLARY, OR CONSEQUENTIAL DAMAGES (INCLUDING,
  27:./ros_lib/ros/node_handle.h ****  * BUT NOT LIMITED TO, PROCUREMENT OF SUBSTITUTE GOODS OR SERVICES;
  28:./ros_lib/ros/node_handle.h ****  * LOSS OF USE, DATA, OR PROFITS; OR BUSINESS INTERRUPTION) HOWEVER
  29:./ros_lib/ros/node_handle.h ****  * CAUSED AND ON ANY THEORY OF LIABILITY, WHETHER IN CONTRACT, STRICT
  30:./ros_lib/ros/node_handle.h ****  * LIABILITY, OR TORT (INCLUDING NEGLIGENCE OR OTHERWISE) ARISING IN
  31:./ros_lib/ros/node_handle.h ****  * ANY WAY OUT OF THE USE OF THIS SOFTWARE, EVEN IF ADVISED OF THE
  32:./ros_lib/ros/node_handle.h ****  * POSSIBILITY OF SUCH DAMAGE.
  33:./ros_lib/ros/node_handle.h ****  */
  34:./ros_lib/ros/node_handle.h **** 
  35:./ros_lib/ros/node_handle.h **** #ifndef ROS_NODE_HANDLE_H_
  36:./ros_lib/ros/node_handle.h **** #define ROS_NODE_HANDLE_H_
  37:./ros_lib/ros/node_handle.h **** 
  38:./ros_lib/ros/node_handle.h **** #ifndef PARAM_REQ_SUPPORT
  39:./ros_lib/ros/node_handle.h **** #define PARAM_REQ_SUPPORT 1
  40:./ros_lib/ros/node_handle.h **** #endif
  41:./ros_lib/ros/node_handle.h **** 
  42:./ros_lib/ros/node_handle.h **** #include "std_msgs/Time.h"
  43:./ros_lib/ros/node_handle.h **** #include "rosserial_msgs/TopicInfo.h"
  44:./ros_lib/ros/node_handle.h **** #include "rosserial_msgs/Log.h"
  45:./ros_lib/ros/node_handle.h **** #if PARAM_REQ_SUPPORT
  46:./ros_lib/ros/node_handle.h **** #include "rosserial_msgs/RequestParam.h"
  47:./ros_lib/ros/node_handle.h **** #endif
  48:./ros_lib/ros/node_handle.h **** 
  49:./ros_lib/ros/node_handle.h **** #define SYNC_SECONDS        2
  50:./ros_lib/ros/node_handle.h **** 
  51:./ros_lib/ros/node_handle.h **** #define MODE_FIRST_FF       0
  52:./ros_lib/ros/node_handle.h **** /*
  53:./ros_lib/ros/node_handle.h ****  * The second sync byte is a protocol version. It's value is 0xff for the first
  54:./ros_lib/ros/node_handle.h ****  * version of the rosserial protocol (used up to hydro), 0xfe for the second version
  55:./ros_lib/ros/node_handle.h ****  * (introduced in hydro), 0xfd for the next, and so on. Its purpose is to enable
  56:./ros_lib/ros/node_handle.h ****  * detection of mismatched protocol versions (e.g. hydro rosserial_python with groovy
  57:./ros_lib/ros/node_handle.h ****  * rosserial_arduino. It must be changed in both this file and in
  58:./ros_lib/ros/node_handle.h ****  * rosserial_python/src/rosserial_python/SerialClient.py
  59:./ros_lib/ros/node_handle.h ****  */
  60:./ros_lib/ros/node_handle.h **** #define MODE_PROTOCOL_VER   1
  61:./ros_lib/ros/node_handle.h **** #define PROTOCOL_VER1		0xff // through groovy
ARM GAS  C:\DOCUME~1\Chuck\LOCALS~1\Temp\ccX3vOCl.s 			page 27


  62:./ros_lib/ros/node_handle.h **** #define PROTOCOL_VER2		0xfe // in hydro
  63:./ros_lib/ros/node_handle.h **** #define PROTOCOL_VER 		PROTOCOL_VER2
  64:./ros_lib/ros/node_handle.h **** #define MODE_SIZE_L         2   
  65:./ros_lib/ros/node_handle.h **** #define MODE_SIZE_H         3
  66:./ros_lib/ros/node_handle.h **** #define MODE_SIZE_CHECKSUM  4   // checksum for msg size received from size L and H
  67:./ros_lib/ros/node_handle.h **** #define MODE_TOPIC_L        5   // waiting for topic id
  68:./ros_lib/ros/node_handle.h **** #define MODE_TOPIC_H        6
  69:./ros_lib/ros/node_handle.h **** #define MODE_MESSAGE        7
  70:./ros_lib/ros/node_handle.h **** #define MODE_MSG_CHECKSUM   8   // checksum for msg and topic id 
  71:./ros_lib/ros/node_handle.h **** 
  72:./ros_lib/ros/node_handle.h **** 
  73:./ros_lib/ros/node_handle.h **** 
  74:./ros_lib/ros/node_handle.h **** #define MSG_TIMEOUT 200  // was 20 milliseconds to recieve all of message data
  75:./ros_lib/ros/node_handle.h **** 
  76:./ros_lib/ros/node_handle.h **** #include "msg.h"
  77:./ros_lib/ros/node_handle.h **** 
  78:./ros_lib/ros/node_handle.h **** namespace ros {
  79:./ros_lib/ros/node_handle.h **** 
  80:./ros_lib/ros/node_handle.h ****   class NodeHandleBase_{
  81:./ros_lib/ros/node_handle.h ****     public:
  82:./ros_lib/ros/node_handle.h ****       virtual int publish(int id, const Msg* msg)=0;
  83:./ros_lib/ros/node_handle.h ****       virtual int spinOnce()=0;
  84:./ros_lib/ros/node_handle.h ****       virtual bool connected()=0;
  85:./ros_lib/ros/node_handle.h ****     };
  86:./ros_lib/ros/node_handle.h **** }
  87:./ros_lib/ros/node_handle.h **** 
  88:./ros_lib/ros/node_handle.h **** #include "publisher.h"
  89:./ros_lib/ros/node_handle.h **** #include "subscriber.h"
  90:./ros_lib/ros/node_handle.h **** #include "service_server.h"
  91:./ros_lib/ros/node_handle.h **** #include "service_client.h"
  92:./ros_lib/ros/node_handle.h **** 
  93:./ros_lib/ros/node_handle.h **** namespace ros {
  94:./ros_lib/ros/node_handle.h **** 
  95:./ros_lib/ros/node_handle.h ****   /* Node Handle */
  96:./ros_lib/ros/node_handle.h ****   template<class Hardware,
  97:./ros_lib/ros/node_handle.h ****            int MAX_SUBSCRIBERS=25,
  98:./ros_lib/ros/node_handle.h ****            int MAX_PUBLISHERS=25,
  99:./ros_lib/ros/node_handle.h ****            int INPUT_SIZE=512,
 100:./ros_lib/ros/node_handle.h ****            int OUTPUT_SIZE=512>
 101:./ros_lib/ros/node_handle.h ****   class NodeHandle_ : public NodeHandleBase_
 102:./ros_lib/ros/node_handle.h ****   {
 103:./ros_lib/ros/node_handle.h ****     protected:
 104:./ros_lib/ros/node_handle.h ****       Hardware hardware_;
 105:./ros_lib/ros/node_handle.h **** 
 106:./ros_lib/ros/node_handle.h ****       /* time used for syncing */
 107:./ros_lib/ros/node_handle.h ****       unsigned long rt_time;
 108:./ros_lib/ros/node_handle.h **** 
 109:./ros_lib/ros/node_handle.h ****       /* used for computing current time */
 110:./ros_lib/ros/node_handle.h ****       unsigned long sec_offset, nsec_offset;
 111:./ros_lib/ros/node_handle.h **** 
 112:./ros_lib/ros/node_handle.h ****       unsigned char message_in[INPUT_SIZE];
 113:./ros_lib/ros/node_handle.h ****       unsigned char message_out[OUTPUT_SIZE];
 114:./ros_lib/ros/node_handle.h **** 
 115:./ros_lib/ros/node_handle.h ****       Publisher * publishers[MAX_PUBLISHERS];
 116:./ros_lib/ros/node_handle.h ****       Subscriber_ * subscribers[MAX_SUBSCRIBERS];
 117:./ros_lib/ros/node_handle.h **** 
 118:./ros_lib/ros/node_handle.h ****       /*
ARM GAS  C:\DOCUME~1\Chuck\LOCALS~1\Temp\ccX3vOCl.s 			page 28


 119:./ros_lib/ros/node_handle.h ****        * Setup Functions
 120:./ros_lib/ros/node_handle.h ****        */
 121:./ros_lib/ros/node_handle.h ****     public:
 122:./ros_lib/ros/node_handle.h ****       NodeHandle_() : configured_(false) {}
 123:./ros_lib/ros/node_handle.h ****       
 124:./ros_lib/ros/node_handle.h ****       Hardware* getHardware(){
 125:./ros_lib/ros/node_handle.h ****         return &hardware_;
 126:./ros_lib/ros/node_handle.h ****       }
 127:./ros_lib/ros/node_handle.h **** 
 128:./ros_lib/ros/node_handle.h ****       /* Start serial, initialize buffers */
 129:./ros_lib/ros/node_handle.h ****       void initNode(){
 130:./ros_lib/ros/node_handle.h ****         hardware_.init();
 131:./ros_lib/ros/node_handle.h ****         mode_ = 0;
 132:./ros_lib/ros/node_handle.h ****         bytes_ = 0;
 133:./ros_lib/ros/node_handle.h ****         index_ = 0;
 134:./ros_lib/ros/node_handle.h ****         topic_ = 0;
 135:./ros_lib/ros/node_handle.h ****       };
 136:./ros_lib/ros/node_handle.h **** 
 137:./ros_lib/ros/node_handle.h ****       /* Start a named port, which may be network server IP, initialize buffers */
 138:./ros_lib/ros/node_handle.h ****       void initNode(char *portName){
 139:./ros_lib/ros/node_handle.h ****         hardware_.init(portName);
 140:./ros_lib/ros/node_handle.h ****         mode_ = 0;
 141:./ros_lib/ros/node_handle.h ****         bytes_ = 0;
 142:./ros_lib/ros/node_handle.h ****         index_ = 0;
 143:./ros_lib/ros/node_handle.h ****         topic_ = 0;
 144:./ros_lib/ros/node_handle.h ****       };
 145:./ros_lib/ros/node_handle.h **** 
 146:./ros_lib/ros/node_handle.h ****     protected:
 147:./ros_lib/ros/node_handle.h ****       //State machine variables for spinOnce
 148:./ros_lib/ros/node_handle.h ****       int mode_;
 149:./ros_lib/ros/node_handle.h ****       int bytes_;
 150:./ros_lib/ros/node_handle.h ****       int topic_;
 151:./ros_lib/ros/node_handle.h ****       int index_;
 152:./ros_lib/ros/node_handle.h ****       int checksum_;
 153:./ros_lib/ros/node_handle.h **** 
 154:./ros_lib/ros/node_handle.h ****       bool configured_;
 155:./ros_lib/ros/node_handle.h **** 
 156:./ros_lib/ros/node_handle.h ****       /* used for syncing the time */
 157:./ros_lib/ros/node_handle.h ****       unsigned long last_sync_time;
 158:./ros_lib/ros/node_handle.h ****       unsigned long last_sync_receive_time;
 159:./ros_lib/ros/node_handle.h ****       unsigned long last_msg_timeout_time;
 160:./ros_lib/ros/node_handle.h **** 
 161:./ros_lib/ros/node_handle.h ****     public:
 162:./ros_lib/ros/node_handle.h ****       /* This function goes in your loop() function, it handles
 163:./ros_lib/ros/node_handle.h ****        *  serial input and callbacks for subscribers.
 164:./ros_lib/ros/node_handle.h ****        */
 165:./ros_lib/ros/node_handle.h **** 
 166:./ros_lib/ros/node_handle.h **** 
 167:./ros_lib/ros/node_handle.h ****       virtual int spinOnce(){
 168:./ros_lib/ros/node_handle.h **** 
 169:./ros_lib/ros/node_handle.h ****         /* restart if timed out */
 170:./ros_lib/ros/node_handle.h ****         unsigned long c_time = hardware_.time();
 171:./ros_lib/ros/node_handle.h ****         if( (c_time - last_sync_receive_time) > (SYNC_SECONDS*1100) ){
 172:./ros_lib/ros/node_handle.h ****             configured_ = false;
 173:./ros_lib/ros/node_handle.h ****          }
 174:./ros_lib/ros/node_handle.h ****          
 175:./ros_lib/ros/node_handle.h ****         /* reset if message has timed out */
ARM GAS  C:\DOCUME~1\Chuck\LOCALS~1\Temp\ccX3vOCl.s 			page 29


 176:./ros_lib/ros/node_handle.h ****         if ( mode_ != MODE_FIRST_FF){ 
 177:./ros_lib/ros/node_handle.h ****           if (c_time > last_msg_timeout_time){
 178:./ros_lib/ros/node_handle.h ****             mode_ = MODE_FIRST_FF;
 179:./ros_lib/ros/node_handle.h ****           }
 180:./ros_lib/ros/node_handle.h ****         }
 181:./ros_lib/ros/node_handle.h **** 
 182:./ros_lib/ros/node_handle.h ****         /* while available buffer, read data */
 183:./ros_lib/ros/node_handle.h ****         while( true )
 184:./ros_lib/ros/node_handle.h ****         {
 185:./ros_lib/ros/node_handle.h ****           int data = hardware_.read();
 186:./ros_lib/ros/node_handle.h ****           if( data < 0 )
 187:./ros_lib/ros/node_handle.h ****             break;
 188:./ros_lib/ros/node_handle.h ****           checksum_ += data;
 189:./ros_lib/ros/node_handle.h ****           if( mode_ == MODE_MESSAGE ){        /* message data being recieved */
 190:./ros_lib/ros/node_handle.h ****             message_in[index_++] = data;
 191:./ros_lib/ros/node_handle.h ****             bytes_--;
 192:./ros_lib/ros/node_handle.h ****             if(bytes_ == 0)                  /* is message complete? if so, checksum */
 193:./ros_lib/ros/node_handle.h ****               mode_ = MODE_MSG_CHECKSUM;
 194:./ros_lib/ros/node_handle.h ****           }else if( mode_ == MODE_FIRST_FF ){
 195:./ros_lib/ros/node_handle.h ****             if(data == 0xff){
 196:./ros_lib/ros/node_handle.h ****               mode_++;
 197:./ros_lib/ros/node_handle.h ****               last_msg_timeout_time = c_time + MSG_TIMEOUT;
 198:./ros_lib/ros/node_handle.h ****             }
 199:./ros_lib/ros/node_handle.h ****           }else if( mode_ == MODE_PROTOCOL_VER ){
 200:./ros_lib/ros/node_handle.h ****             if(data == PROTOCOL_VER){
 201:./ros_lib/ros/node_handle.h ****               mode_++;
 202:./ros_lib/ros/node_handle.h ****             }else{
 203:./ros_lib/ros/node_handle.h ****               mode_ = MODE_FIRST_FF;
 204:./ros_lib/ros/node_handle.h ****               if (configured_ == false) {
 205:./ros_lib/ros/node_handle.h ****                   requestSyncTime(); 	/* send a msg back showing our protocol version */
 206:./ros_lib/ros/node_handle.h ****               }
 207:./ros_lib/ros/node_handle.h ****             }
 208:./ros_lib/ros/node_handle.h **** 	  }else if( mode_ == MODE_SIZE_L ){   /* bottom half of message size */
 209:./ros_lib/ros/node_handle.h ****             bytes_ = data;
 210:./ros_lib/ros/node_handle.h ****             index_ = 0;
 211:./ros_lib/ros/node_handle.h ****             mode_++;
 212:./ros_lib/ros/node_handle.h ****             checksum_ = data;               /* first byte for calculating size checksum */
 213:./ros_lib/ros/node_handle.h ****           }else if( mode_ == MODE_SIZE_H ){   /* top half of message size */
 214:./ros_lib/ros/node_handle.h ****             bytes_ += data<<8;
 215:./ros_lib/ros/node_handle.h **** 	    mode_++;
 216:./ros_lib/ros/node_handle.h ****           }else if( mode_ == MODE_SIZE_CHECKSUM ){  
 217:./ros_lib/ros/node_handle.h ****             if( (checksum_%256) == 255)
 218:./ros_lib/ros/node_handle.h **** 	      mode_++;
 219:./ros_lib/ros/node_handle.h **** 	    else {
 220:./ros_lib/ros/node_handle.h **** 	      mode_ = MODE_FIRST_FF;          /* Abandon the frame if the msg len is wrong */
 221:./ros_lib/ros/node_handle.h ****             }
 222:./ros_lib/ros/node_handle.h **** 	  }else if( mode_ == MODE_TOPIC_L ){  /* bottom half of topic id */
 223:./ros_lib/ros/node_handle.h ****             topic_ = data;
 224:./ros_lib/ros/node_handle.h ****             mode_++;
 225:./ros_lib/ros/node_handle.h ****             checksum_ = data;               /* first byte included in checksum */
 226:./ros_lib/ros/node_handle.h ****           }else if( mode_ == MODE_TOPIC_H ){  /* top half of topic id */
 227:./ros_lib/ros/node_handle.h ****             topic_ += data<<8;
 228:./ros_lib/ros/node_handle.h ****             mode_ = MODE_MESSAGE;
 229:./ros_lib/ros/node_handle.h ****             if(bytes_ == 0)
 230:./ros_lib/ros/node_handle.h ****               mode_ = MODE_MSG_CHECKSUM;  
 231:./ros_lib/ros/node_handle.h ****           }else if( mode_ == MODE_MSG_CHECKSUM ){ /* do checksum */
 232:./ros_lib/ros/node_handle.h ****             mode_ = MODE_FIRST_FF;
ARM GAS  C:\DOCUME~1\Chuck\LOCALS~1\Temp\ccX3vOCl.s 			page 30


 233:./ros_lib/ros/node_handle.h ****             if( (checksum_%256) == 255){
 234:./ros_lib/ros/node_handle.h ****               if(topic_ == rosserial_msgs::TopicInfo::ID_PUBLISHER){
 235:./ros_lib/ros/node_handle.h ****                 requestSyncTime();
 236:./ros_lib/ros/node_handle.h ****                 negotiateTopics();
 237:./ros_lib/ros/node_handle.h ****                 last_sync_time = c_time;
 238:./ros_lib/ros/node_handle.h ****                 last_sync_receive_time = c_time;
 239:./ros_lib/ros/node_handle.h ****                 return -1;
 240:./ros_lib/ros/node_handle.h ****               }else if(topic_ == rosserial_msgs::TopicInfo::ID_TIME){
 241:./ros_lib/ros/node_handle.h ****                 syncTime(message_in);
 242:./ros_lib/ros/node_handle.h ****               #if PARAM_REQ_SUPPORT
 243:./ros_lib/ros/node_handle.h ****               }else if (topic_ == rosserial_msgs::TopicInfo::ID_PARAMETER_REQUEST){
 244:./ros_lib/ros/node_handle.h ****                   req_param_resp.deserialize(message_in);
 245:./ros_lib/ros/node_handle.h ****                   param_recieved= true;
 246:./ros_lib/ros/node_handle.h ****               #endif
 247:./ros_lib/ros/node_handle.h ****               }else{
 248:./ros_lib/ros/node_handle.h ****                 if(subscribers[topic_-100])
 249:./ros_lib/ros/node_handle.h ****                   subscribers[topic_-100]->callback( message_in );
 250:./ros_lib/ros/node_handle.h ****               }
 251:./ros_lib/ros/node_handle.h ****             }
 252:./ros_lib/ros/node_handle.h ****           }
 253:./ros_lib/ros/node_handle.h ****         }
 254:./ros_lib/ros/node_handle.h **** 
 255:./ros_lib/ros/node_handle.h ****         /* occasionally sync time */
 256:./ros_lib/ros/node_handle.h ****         if( configured_ && ((c_time-last_sync_time) > (SYNC_SECONDS*500) )){
 257:./ros_lib/ros/node_handle.h ****           requestSyncTime();
 258:./ros_lib/ros/node_handle.h ****           last_sync_time = c_time;
 259:./ros_lib/ros/node_handle.h ****         }
 260:./ros_lib/ros/node_handle.h **** 
 261:./ros_lib/ros/node_handle.h ****         return 0;
 262:./ros_lib/ros/node_handle.h ****       }
 263:./ros_lib/ros/node_handle.h **** 
 264:./ros_lib/ros/node_handle.h **** 
 265:./ros_lib/ros/node_handle.h ****       /* Are we connected to the PC? */
 266:./ros_lib/ros/node_handle.h ****       virtual bool connected() {
 267:./ros_lib/ros/node_handle.h ****         return configured_;
 268:./ros_lib/ros/node_handle.h ****       };
 269:./ros_lib/ros/node_handle.h **** 
 270:./ros_lib/ros/node_handle.h ****       /********************************************************************
 271:./ros_lib/ros/node_handle.h ****        * Time functions
 272:./ros_lib/ros/node_handle.h ****        */
 273:./ros_lib/ros/node_handle.h **** 
 274:./ros_lib/ros/node_handle.h ****       void requestSyncTime()
 275:./ros_lib/ros/node_handle.h ****       {
 276:./ros_lib/ros/node_handle.h ****         std_msgs::Time t;
 277:./ros_lib/ros/node_handle.h ****         publish(rosserial_msgs::TopicInfo::ID_TIME, &t);
 278:./ros_lib/ros/node_handle.h ****         rt_time = hardware_.time();
 279:./ros_lib/ros/node_handle.h ****       }
 280:./ros_lib/ros/node_handle.h **** 
 281:./ros_lib/ros/node_handle.h ****       void syncTime( unsigned char * data )
 282:./ros_lib/ros/node_handle.h ****       {
 283:./ros_lib/ros/node_handle.h ****         std_msgs::Time t;
 284:./ros_lib/ros/node_handle.h ****         unsigned long offset = hardware_.time() - rt_time;
 285:./ros_lib/ros/node_handle.h **** 
 286:./ros_lib/ros/node_handle.h ****         t.deserialize(data);
 287:./ros_lib/ros/node_handle.h ****         t.data.sec += offset/1000;
 288:./ros_lib/ros/node_handle.h ****         t.data.nsec += (offset%1000)*1000000UL;
 289:./ros_lib/ros/node_handle.h **** 
ARM GAS  C:\DOCUME~1\Chuck\LOCALS~1\Temp\ccX3vOCl.s 			page 31


 290:./ros_lib/ros/node_handle.h ****         this->setNow(t.data);
 291:./ros_lib/ros/node_handle.h ****         last_sync_receive_time = hardware_.time();
 292:./ros_lib/ros/node_handle.h ****       }
 293:./ros_lib/ros/node_handle.h **** 
 294:./ros_lib/ros/node_handle.h ****       Time now(){
 295:./ros_lib/ros/node_handle.h ****         unsigned long ms = hardware_.time();
 296:./ros_lib/ros/node_handle.h ****         Time current_time;
 297:./ros_lib/ros/node_handle.h ****         current_time.sec = ms/1000 + sec_offset;
 298:./ros_lib/ros/node_handle.h ****         current_time.nsec = (ms%1000)*1000000UL + nsec_offset;
 299:./ros_lib/ros/node_handle.h ****         normalizeSecNSec(current_time.sec, current_time.nsec);
 300:./ros_lib/ros/node_handle.h ****         return current_time;
 301:./ros_lib/ros/node_handle.h ****       }
 302:./ros_lib/ros/node_handle.h **** 
 303:./ros_lib/ros/node_handle.h ****       void setNow( Time & new_now )
 304:./ros_lib/ros/node_handle.h ****       {
 305:./ros_lib/ros/node_handle.h ****         unsigned long ms = hardware_.time();
 306:./ros_lib/ros/node_handle.h ****         sec_offset = new_now.sec - ms/1000 - 1;
 307:./ros_lib/ros/node_handle.h ****         nsec_offset = new_now.nsec - (ms%1000)*1000000UL + 1000000000UL;
 308:./ros_lib/ros/node_handle.h ****         normalizeSecNSec(sec_offset, nsec_offset);
 309:./ros_lib/ros/node_handle.h ****       }
 310:./ros_lib/ros/node_handle.h **** 
 311:./ros_lib/ros/node_handle.h ****       /********************************************************************
 312:./ros_lib/ros/node_handle.h ****        * Topic Management 
 313:./ros_lib/ros/node_handle.h ****        */
 314:./ros_lib/ros/node_handle.h **** 
 315:./ros_lib/ros/node_handle.h ****       /* Register a new publisher */    
 316:./ros_lib/ros/node_handle.h ****       bool advertise(Publisher & p)
 1083              		.loc 7 316 0
 1084              		.cfi_startproc
 1085 0000 90B5     		push	{r4, r7, lr}
 1086              	.LCFI48:
 1087              		.cfi_def_cfa_offset 12
 1088              		.cfi_offset 4, -12
 1089              		.cfi_offset 7, -8
 1090              		.cfi_offset 14, -4
 1091 0002 85B0     		sub	sp, sp, #20
 1092              	.LCFI49:
 1093              		.cfi_def_cfa_offset 32
 1094 0004 00AF     		add	r7, sp, #0
 1095              	.LCFI50:
 1096              		.cfi_def_cfa_register 7
 1097 0006 7860     		str	r0, [r7, #4]
 1098 0008 3960     		str	r1, [r7]
 1099              	.LBB11:
 1100              	.LBB12:
 317:./ros_lib/ros/node_handle.h ****       {
 318:./ros_lib/ros/node_handle.h ****         for(int i = 0; i < MAX_PUBLISHERS; i++){
 1101              		.loc 7 318 0
 1102 000a 0023     		mov	r3, #0
 1103 000c FB60     		str	r3, [r7, #12]
 1104 000e 19E0     		b	.L63
 1105              	.L66:
 319:./ros_lib/ros/node_handle.h ****           if(publishers[i] == 0){ // empty slot
 1106              		.loc 7 319 0
 1107 0010 7B68     		ldr	r3, [r7, #4]
 1108 0012 FA68     		ldr	r2, [r7, #12]
 1109 0014 6A32     		add	r2, r2, #106
ARM GAS  C:\DOCUME~1\Chuck\LOCALS~1\Temp\ccX3vOCl.s 			page 32


 1110 0016 9200     		lsl	r2, r2, #2
 1111 0018 D358     		ldr	r3, [r2, r3]
 1112 001a 002B     		cmp	r3, #0
 1113 001c 0FD1     		bne	.L64
 320:./ros_lib/ros/node_handle.h ****             publishers[i] = &p;
 1114              		.loc 7 320 0
 1115 001e 7B68     		ldr	r3, [r7, #4]
 1116 0020 FA68     		ldr	r2, [r7, #12]
 1117 0022 6A32     		add	r2, r2, #106
 1118 0024 9200     		lsl	r2, r2, #2
 1119 0026 3968     		ldr	r1, [r7]
 1120 0028 D150     		str	r1, [r2, r3]
 321:./ros_lib/ros/node_handle.h ****             p.id_ = i+100+MAX_SUBSCRIBERS;
 1121              		.loc 7 321 0
 1122 002a FB68     		ldr	r3, [r7, #12]
 1123 002c 1A1C     		mov	r2, r3
 1124 002e 6E32     		add	r2, r2, #110
 1125 0030 3B68     		ldr	r3, [r7]
 1126 0032 9A60     		str	r2, [r3, #8]
 322:./ros_lib/ros/node_handle.h ****             p.nh_ = this;
 1127              		.loc 7 322 0
 1128 0034 7A68     		ldr	r2, [r7, #4]
 1129 0036 3B68     		ldr	r3, [r7]
 1130 0038 DA60     		str	r2, [r3, #12]
 323:./ros_lib/ros/node_handle.h ****             return true;
 1131              		.loc 7 323 0
 1132 003a 0123     		mov	r3, #1
 1133 003c 0EE0     		b	.L65
 1134              	.L64:
 318:./ros_lib/ros/node_handle.h ****         for(int i = 0; i < MAX_PUBLISHERS; i++){
 1135              		.loc 7 318 0
 1136 003e FB68     		ldr	r3, [r7, #12]
 1137 0040 0133     		add	r3, r3, #1
 1138 0042 FB60     		str	r3, [r7, #12]
 1139              	.L63:
 318:./ros_lib/ros/node_handle.h ****         for(int i = 0; i < MAX_PUBLISHERS; i++){
 1140              		.loc 7 318 0 is_stmt 0 discriminator 1
 1141 0044 FB68     		ldr	r3, [r7, #12]
 1142 0046 1322     		mov	r2, #19
 1143 0048 D80F     		lsr	r0, r3, #31
 1144 004a D117     		asr	r1, r2, #31
 1145 004c 041C     		mov	r4, r0
 1146 004e 9A42     		cmp	r2, r3
 1147 0050 4C41     		adc	r4, r4, r1
 1148 0052 231C     		mov	r3, r4
 1149 0054 DBB2     		uxtb	r3, r3
 1150 0056 002B     		cmp	r3, #0
 1151 0058 DAD1     		bne	.L66
 1152              	.LBE12:
 324:./ros_lib/ros/node_handle.h ****           }
 325:./ros_lib/ros/node_handle.h ****         }
 326:./ros_lib/ros/node_handle.h ****         return false;
 1153              		.loc 7 326 0 is_stmt 1
 1154 005a 0023     		mov	r3, #0
 1155              	.L65:
 1156              	.LBE11:
 327:./ros_lib/ros/node_handle.h ****       }
ARM GAS  C:\DOCUME~1\Chuck\LOCALS~1\Temp\ccX3vOCl.s 			page 33


 1157              		.loc 7 327 0
 1158 005c 181C     		mov	r0, r3
 1159 005e BD46     		mov	sp, r7
 1160 0060 05B0     		add	sp, sp, #20
 1161              		@ sp needed for prologue
 1162 0062 90BD     		pop	{r4, r7, pc}
 1163              		.cfi_endproc
 1164              	.LFE158:
 1165              		.size	_ZN3ros11NodeHandle_I13Psoc4HardwareLi10ELi20ELi200ELi200EE9advertiseERNS_9PublisherE, .-_ZN
 1166              		.weak	_ZTVN8std_msgs5Int16E
 1167              		.section	.rodata._ZTVN8std_msgs5Int16E,"aG",%progbits,_ZTVN8std_msgs5Int16E,comdat
 1168              		.align	3
 1169              		.type	_ZTVN8std_msgs5Int16E, %object
 1170              		.size	_ZTVN8std_msgs5Int16E, 24
 1171              	_ZTVN8std_msgs5Int16E:
 1172 0000 00000000 		.word	0
 1173 0004 00000000 		.word	0
 1174 0008 00000000 		.word	_ZNK8std_msgs5Int169serializeEPh
 1175 000c 00000000 		.word	_ZN8std_msgs5Int1611deserializeEPh
 1176 0010 00000000 		.word	_ZN8std_msgs5Int167getTypeEv
 1177 0014 00000000 		.word	_ZN8std_msgs5Int166getMD5Ev
 1178              		.weak	_ZTVN8std_msgs5Int32E
 1179              		.section	.rodata._ZTVN8std_msgs5Int32E,"aG",%progbits,_ZTVN8std_msgs5Int32E,comdat
 1180              		.align	3
 1181              		.type	_ZTVN8std_msgs5Int32E, %object
 1182              		.size	_ZTVN8std_msgs5Int32E, 24
 1183              	_ZTVN8std_msgs5Int32E:
 1184 0000 00000000 		.word	0
 1185 0004 00000000 		.word	0
 1186 0008 00000000 		.word	_ZNK8std_msgs5Int329serializeEPh
 1187 000c 00000000 		.word	_ZN8std_msgs5Int3211deserializeEPh
 1188 0010 00000000 		.word	_ZN8std_msgs5Int327getTypeEv
 1189 0014 00000000 		.word	_ZN8std_msgs5Int326getMD5Ev
 1190              		.weak	_ZTVN3ros3MsgE
 1191              		.section	.rodata._ZTVN3ros3MsgE,"aG",%progbits,_ZTVN3ros3MsgE,comdat
 1192              		.align	3
 1193              		.type	_ZTVN3ros3MsgE, %object
 1194              		.size	_ZTVN3ros3MsgE, 24
 1195              	_ZTVN3ros3MsgE:
 1196 0000 00000000 		.word	0
 1197 0004 00000000 		.word	0
 1198 0008 00000000 		.word	__cxa_pure_virtual
 1199 000c 00000000 		.word	__cxa_pure_virtual
 1200 0010 00000000 		.word	__cxa_pure_virtual
 1201 0014 00000000 		.word	__cxa_pure_virtual
 1202              		.section	.rodata
 1203 0065 000000   		.align	2
 1204              	.LC30:
 1205 0068 656E636F 		.ascii	"encoder\000"
 1205      64657200 
 1206              		.align	2
 1207              	.LC34:
 1208 0070 636F756E 		.ascii	"counter\000"
 1208      74657200 
 1209              		.section	.text._Z41__static_initialization_and_destruction_0ii,"ax",%progbits
 1210              		.align	2
 1211              		.code	16
ARM GAS  C:\DOCUME~1\Chuck\LOCALS~1\Temp\ccX3vOCl.s 			page 34


 1212              		.thumb_func
 1213              		.type	_Z41__static_initialization_and_destruction_0ii, %function
 1214              	_Z41__static_initialization_and_destruction_0ii:
 1215              	.LFB159:
  68:.\ros_lib\examples\Encoder/Encoder.cpp **** 
  69:.\ros_lib\examples\Encoder/Encoder.cpp **** } // namespace Encoder
 1216              		.loc 6 69 0
 1217              		.cfi_startproc
 1218 0000 80B5     		push	{r7, lr}
 1219              	.LCFI51:
 1220              		.cfi_def_cfa_offset 8
 1221              		.cfi_offset 7, -8
 1222              		.cfi_offset 14, -4
 1223 0002 82B0     		sub	sp, sp, #8
 1224              	.LCFI52:
 1225              		.cfi_def_cfa_offset 16
 1226 0004 00AF     		add	r7, sp, #0
 1227              	.LCFI53:
 1228              		.cfi_def_cfa_register 7
 1229 0006 7860     		str	r0, [r7, #4]
 1230 0008 3960     		str	r1, [r7]
 1231              		.loc 6 69 0
 1232 000a 7B68     		ldr	r3, [r7, #4]
 1233 000c 012B     		cmp	r3, #1
 1234 000e 1DD1     		bne	.L67
 1235              		.loc 6 69 0 is_stmt 0 discriminator 1
 1236 0010 3A68     		ldr	r2, [r7]
 1237 0012 104B     		ldr	r3, .L69
 1238 0014 9A42     		cmp	r2, r3
 1239 0016 19D1     		bne	.L67
  20:.\ros_lib\examples\Encoder/Encoder.cpp **** std_msgs::Int32 encoder_msg;
 1240              		.loc 6 20 0 is_stmt 1
 1241 0018 0F4B     		ldr	r3, .L69+4
 1242 001a 181C     		mov	r0, r3
 1243 001c FFF7FEFF 		bl	_ZN8std_msgs5Int32C1Ev
  21:.\ros_lib\examples\Encoder/Encoder.cpp **** ros::Publisher p("encoder", &encoder_msg);
 1244              		.loc 6 21 0
 1245 0020 0E49     		ldr	r1, .L69+8
 1246 0022 0F4A     		ldr	r2, .L69+12
 1247 0024 0C4B     		ldr	r3, .L69+4
 1248 0026 081C     		mov	r0, r1
 1249 0028 111C     		mov	r1, r2
 1250 002a 1A1C     		mov	r2, r3
 1251 002c 0023     		mov	r3, #0
 1252 002e FFF7FEFF 		bl	_ZN3ros9PublisherC1EPKcPNS_3MsgEi
  22:.\ros_lib\examples\Encoder/Encoder.cpp **** std_msgs::Int16 counter_msg;
 1253              		.loc 6 22 0
 1254 0032 0C4B     		ldr	r3, .L69+16
 1255 0034 181C     		mov	r0, r3
 1256 0036 FFF7FEFF 		bl	_ZN8std_msgs5Int16C1Ev
  23:.\ros_lib\examples\Encoder/Encoder.cpp **** ros::Publisher pc("counter", &counter_msg);
 1257              		.loc 6 23 0
 1258 003a 0B49     		ldr	r1, .L69+20
 1259 003c 0B4A     		ldr	r2, .L69+24
 1260 003e 094B     		ldr	r3, .L69+16
 1261 0040 081C     		mov	r0, r1
 1262 0042 111C     		mov	r1, r2
ARM GAS  C:\DOCUME~1\Chuck\LOCALS~1\Temp\ccX3vOCl.s 			page 35


 1263 0044 1A1C     		mov	r2, r3
 1264 0046 0023     		mov	r3, #0
 1265 0048 FFF7FEFF 		bl	_ZN3ros9PublisherC1EPKcPNS_3MsgEi
 1266              	.L67:
 1267              		.loc 6 69 0
 1268 004c BD46     		mov	sp, r7
 1269 004e 02B0     		add	sp, sp, #8
 1270              		@ sp needed for prologue
 1271 0050 80BD     		pop	{r7, pc}
 1272              	.L70:
 1273 0052 C046     		.align	2
 1274              	.L69:
 1275 0054 FFFF0000 		.word	65535
 1276 0058 00000000 		.word	_ZN7Encoder11encoder_msgE
 1277 005c 00000000 		.word	_ZN7Encoder1pE
 1278 0060 68000000 		.word	.LC30
 1279 0064 00000000 		.word	_ZN7Encoder11counter_msgE
 1280 0068 00000000 		.word	_ZN7Encoder2pcE
 1281 006c 70000000 		.word	.LC34
 1282              		.cfi_endproc
 1283              	.LFE159:
 1284              		.size	_Z41__static_initialization_and_destruction_0ii, .-_Z41__static_initialization_and_destructi
 1285              		.section	.rodata
 1286              		.align	2
 1287              		.type	_ZN7EncoderL17kReportIntervalMsE, %object
 1288              		.size	_ZN7EncoderL17kReportIntervalMsE, 4
 1289              	_ZN7EncoderL17kReportIntervalMsE:
 1290 0078 C8000000 		.word	200
 1291              		.align	2
 1292              		.type	_ZN7EncoderL15kReadIntervalMsE, %object
 1293              		.size	_ZN7EncoderL15kReadIntervalMsE, 4
 1294              	_ZN7EncoderL15kReadIntervalMsE:
 1295 007c 0A000000 		.word	10
 1296              		.align	2
 1297              		.type	_ZN14rosserial_msgsL12REQUESTPARAME, %object
 1298              		.size	_ZN14rosserial_msgsL12REQUESTPARAME, 28
 1299              	_ZN14rosserial_msgsL12REQUESTPARAME:
 1300 0080 726F7373 		.ascii	"rosserial_msgs/RequestParam\000"
 1300      65726961 
 1300      6C5F6D73 
 1300      67732F52 
 1300      65717565 
 1301              		.section	.text._GLOBAL__sub_I__ZN7Encoder11encoder_msgE,"ax",%progbits
 1302              		.align	2
 1303              		.code	16
 1304              		.thumb_func
 1305              		.type	_GLOBAL__sub_I__ZN7Encoder11encoder_msgE, %function
 1306              	_GLOBAL__sub_I__ZN7Encoder11encoder_msgE:
 1307              	.LFB160:
 1308              		.loc 6 69 0
 1309              		.cfi_startproc
 1310 0000 80B5     		push	{r7, lr}
 1311              	.LCFI54:
 1312              		.cfi_def_cfa_offset 8
 1313              		.cfi_offset 7, -8
 1314              		.cfi_offset 14, -4
 1315 0002 00AF     		add	r7, sp, #0
ARM GAS  C:\DOCUME~1\Chuck\LOCALS~1\Temp\ccX3vOCl.s 			page 36


 1316              	.LCFI55:
 1317              		.cfi_def_cfa_register 7
 1318              		.loc 6 69 0
 1319 0004 034B     		ldr	r3, .L72
 1320 0006 0120     		mov	r0, #1
 1321 0008 191C     		mov	r1, r3
 1322 000a FFF7FEFF 		bl	_Z41__static_initialization_and_destruction_0ii
 1323 000e BD46     		mov	sp, r7
 1324              		@ sp needed for prologue
 1325 0010 80BD     		pop	{r7, pc}
 1326              	.L73:
 1327 0012 C046     		.align	2
 1328              	.L72:
 1329 0014 FFFF0000 		.word	65535
 1330              		.cfi_endproc
 1331              	.LFE160:
 1332              		.size	_GLOBAL__sub_I__ZN7Encoder11encoder_msgE, .-_GLOBAL__sub_I__ZN7Encoder11encoder_msgE
 1333              		.section	.init_array,"aw",%init_array
 1334              		.align	2
 1335 0000 00000000 		.word	_GLOBAL__sub_I__ZN7Encoder11encoder_msgE(target1)
 1336              		.text
 1337              	.Letext0:
 1338              		.file 8 "c:\\program files\\cypress\\psoc creator\\3.0\\psoc creator\\import\\gnu_cs\\arm\\4.7.3\\
 1339              		.file 9 "./ros_lib/ros.h"
 1340              		.file 10 "./ros_lib/Psoc4Hardware.h"
 1341              		.file 11 "./Generated_Source/PSoC4/cytypes.h"
 1342              		.file 12 "./ros_lib/rosserial_msgs/TopicInfo.h"
 1343              		.file 13 "./ros_lib/std_msgs/Time.h"
 1344              		.file 14 ".\\ros_lib\\examples\\Encoder\\Encoder.h"
 1345              		.file 15 "./ros_lib/rosserial_msgs/RequestParam.h"
 1346              		.file 16 "./ros_lib/Uarts.h"