ARM GAS  C:\DOCUME~1\Chuck\LOCALS~1\Temp\ccsYEGdP.s 			page 1


   1              		.cpu cortex-m0
   2              		.fpu softvfp
   3              		.eabi_attribute 20, 1
   4              		.eabi_attribute 21, 1
   5              		.eabi_attribute 23, 3
   6              		.eabi_attribute 24, 1
   7              		.eabi_attribute 25, 1
   8              		.eabi_attribute 26, 1
   9              		.eabi_attribute 30, 6
  10              		.eabi_attribute 34, 0
  11              		.eabi_attribute 18, 4
  12              		.code	16
  13              		.file	"init.cpp"
  14              		.text
  15              	.Ltext0:
  16              		.cfi_sections	.debug_frame
  17              		.section	.text._ZN8SysTimer4initEv,"axG",%progbits,_ZN8SysTimer4initEv,comdat
  18              		.align	2
  19              		.weak	_ZN8SysTimer4initEv
  20              		.code	16
  21              		.thumb_func
  22              		.type	_ZN8SysTimer4initEv, %function
  23              	_ZN8SysTimer4initEv:
  24              	.LFB88:
  25              		.file 1 ".\\ros_lib\\SysTimer.h"
   1:.\ros_lib/SysTimer.h **** /* ========================================
   2:.\ros_lib/SysTimer.h ****  *
   3:.\ros_lib/SysTimer.h ****  * The following firmware was developed by Chuck Harrison
   4:.\ros_lib/SysTimer.h ****  * This work is licensed under a Creative Commons Attribution 3.0 Unported License.
   5:.\ros_lib/SysTimer.h ****  * 
   6:.\ros_lib/SysTimer.h ****  * http://creativecommons.org/licenses/by/3.0/deed.en_US
   7:.\ros_lib/SysTimer.h ****  * 
   8:.\ros_lib/SysTimer.h ****  * You are free to:
   9:.\ros_lib/SysTimer.h ****  * -To Share — to copy, distribute and transmit the work 
  10:.\ros_lib/SysTimer.h ****  * -To Remix — to adapt the work 
  11:.\ros_lib/SysTimer.h ****  * -To make commercial use of the work
  12:.\ros_lib/SysTimer.h ****  *
  13:.\ros_lib/SysTimer.h ****  * ========================================
  14:.\ros_lib/SysTimer.h ****  */
  15:.\ros_lib/SysTimer.h **** 
  16:.\ros_lib/SysTimer.h **** #ifndef ROS_SYSTIMER_H_
  17:.\ros_lib/SysTimer.h **** #define ROS_SYSTIMER_H_
  18:.\ros_lib/SysTimer.h **** 
  19:.\ros_lib/SysTimer.h **** typedef void (* cyisraddress)(void); // should we #include the whole cytypes.h?
  20:.\ros_lib/SysTimer.h **** #define CY_ISR(FuncName)        void FuncName (void)
  21:.\ros_lib/SysTimer.h **** 
  22:.\ros_lib/SysTimer.h **** extern "C" {
  23:.\ros_lib/SysTimer.h **** cyisraddress CyIntSetSysVector(uint8_t number, cyisraddress address);
  24:.\ros_lib/SysTimer.h **** }
  25:.\ros_lib/SysTimer.h **** 
  26:.\ros_lib/SysTimer.h **** CY_ISR(SysTick_ISR); //forward declaration for SysTimer::init()
  27:.\ros_lib/SysTimer.h **** 
  28:.\ros_lib/SysTimer.h **** #define SYSTICK_INTERRUPT_VECTOR_NUMBER 15u /* Cortex-M0 hard vector */
  29:.\ros_lib/SysTimer.h **** 
  30:.\ros_lib/SysTimer.h **** /* clock and interrupt rates, in Hz */
  31:.\ros_lib/SysTimer.h **** #define CLOCK_FREQ     24000000u
  32:.\ros_lib/SysTimer.h **** #define INTERRUPT_FREQ 1000u
ARM GAS  C:\DOCUME~1\Chuck\LOCALS~1\Temp\ccsYEGdP.s 			page 2


  33:.\ros_lib/SysTimer.h **** 
  34:.\ros_lib/SysTimer.h **** 
  35:.\ros_lib/SysTimer.h **** class SysTimer
  36:.\ros_lib/SysTimer.h **** {
  37:.\ros_lib/SysTimer.h ****   public:
  38:.\ros_lib/SysTimer.h ****     static void init() {
  26              		.loc 1 38 0
  27              		.cfi_startproc
  28 0000 80B5     		push	{r7, lr}
  29              	.LCFI0:
  30              		.cfi_def_cfa_offset 8
  31              		.cfi_offset 7, -8
  32              		.cfi_offset 14, -4
  33 0002 00AF     		add	r7, sp, #0
  34              	.LCFI1:
  35              		.cfi_def_cfa_register 7
  39:.\ros_lib/SysTimer.h ****       CyIntSetSysVector(SYSTICK_INTERRUPT_VECTOR_NUMBER, SysTick_ISR);
  36              		.loc 1 39 0
  37 0004 044B     		ldr	r3, .L2
  38 0006 0F20     		mov	r0, #15
  39 0008 191C     		mov	r1, r3
  40 000a FFF7FEFF 		bl	CyIntSetSysVector
  40:.\ros_lib/SysTimer.h ****       // must eventually do this:
  41:.\ros_lib/SysTimer.h ****       //  SysTick_Config(CLOCK_FREQ / INTERRUPT_FREQ); /* defined in auto-generated core_cm0.h */
  42:.\ros_lib/SysTimer.h ****       //  CyGlobalIntEnable;
  43:.\ros_lib/SysTimer.h ****       millis_ = 0;
  41              		.loc 1 43 0
  42 000e 034B     		ldr	r3, .L2+4
  43 0010 0022     		mov	r2, #0
  44 0012 1A60     		str	r2, [r3]
  44:.\ros_lib/SysTimer.h ****     };
  45              		.loc 1 44 0
  46 0014 BD46     		mov	sp, r7
  47              		@ sp needed for prologue
  48 0016 80BD     		pop	{r7, pc}
  49              	.L3:
  50              		.align	2
  51              	.L2:
  52 0018 00000000 		.word	_Z11SysTick_ISRv
  53 001c 00000000 		.word	_ZN8SysTimer7millis_E
  54              		.cfi_endproc
  55              	.LFE88:
  56              		.size	_ZN8SysTimer4initEv, .-_ZN8SysTimer4initEv
  57              		.section	.text.NVIC_SetPriority,"ax",%progbits
  58              		.align	2
  59              		.code	16
  60              		.thumb_func
  61              		.type	NVIC_SetPriority, %function
  62              	NVIC_SetPriority:
  63              	.LFB134:
  64              		.file 2 "./Generated_Source/PSoC4/core_cm0.h"
   1:./Generated_Source/PSoC4/core_cm0.h **** /**************************************************************************//**
   2:./Generated_Source/PSoC4/core_cm0.h ****  * @file     core_cm0.h
   3:./Generated_Source/PSoC4/core_cm0.h ****  * @brief    CMSIS Cortex-M0 Core Peripheral Access Layer Header File
   4:./Generated_Source/PSoC4/core_cm0.h ****  * @version  V3.20
   5:./Generated_Source/PSoC4/core_cm0.h ****  * @date     25. February 2013
   6:./Generated_Source/PSoC4/core_cm0.h ****  *
ARM GAS  C:\DOCUME~1\Chuck\LOCALS~1\Temp\ccsYEGdP.s 			page 3


   7:./Generated_Source/PSoC4/core_cm0.h ****  * @note
   8:./Generated_Source/PSoC4/core_cm0.h ****  *
   9:./Generated_Source/PSoC4/core_cm0.h ****  ******************************************************************************/
  10:./Generated_Source/PSoC4/core_cm0.h **** /* Copyright (c) 2009 - 2013 ARM LIMITED
  11:./Generated_Source/PSoC4/core_cm0.h **** 
  12:./Generated_Source/PSoC4/core_cm0.h ****    All rights reserved.
  13:./Generated_Source/PSoC4/core_cm0.h ****    Redistribution and use in source and binary forms, with or without
  14:./Generated_Source/PSoC4/core_cm0.h ****    modification, are permitted provided that the following conditions are met:
  15:./Generated_Source/PSoC4/core_cm0.h ****    - Redistributions of source code must retain the above copyright
  16:./Generated_Source/PSoC4/core_cm0.h ****      notice, this list of conditions and the following disclaimer.
  17:./Generated_Source/PSoC4/core_cm0.h ****    - Redistributions in binary form must reproduce the above copyright
  18:./Generated_Source/PSoC4/core_cm0.h ****      notice, this list of conditions and the following disclaimer in the
  19:./Generated_Source/PSoC4/core_cm0.h ****      documentation and/or other materials provided with the distribution.
  20:./Generated_Source/PSoC4/core_cm0.h ****    - Neither the name of ARM nor the names of its contributors may be used
  21:./Generated_Source/PSoC4/core_cm0.h ****      to endorse or promote products derived from this software without
  22:./Generated_Source/PSoC4/core_cm0.h ****      specific prior written permission.
  23:./Generated_Source/PSoC4/core_cm0.h ****    *
  24:./Generated_Source/PSoC4/core_cm0.h ****    THIS SOFTWARE IS PROVIDED BY THE COPYRIGHT HOLDERS AND CONTRIBUTORS "AS IS"
  25:./Generated_Source/PSoC4/core_cm0.h ****    AND ANY EXPRESS OR IMPLIED WARRANTIES, INCLUDING, BUT NOT LIMITED TO, THE
  26:./Generated_Source/PSoC4/core_cm0.h ****    IMPLIED WARRANTIES OF MERCHANTABILITY AND FITNESS FOR A PARTICULAR PURPOSE
  27:./Generated_Source/PSoC4/core_cm0.h ****    ARE DISCLAIMED. IN NO EVENT SHALL COPYRIGHT HOLDERS AND CONTRIBUTORS BE
  28:./Generated_Source/PSoC4/core_cm0.h ****    LIABLE FOR ANY DIRECT, INDIRECT, INCIDENTAL, SPECIAL, EXEMPLARY, OR
  29:./Generated_Source/PSoC4/core_cm0.h ****    CONSEQUENTIAL DAMAGES (INCLUDING, BUT NOT LIMITED TO, PROCUREMENT OF
  30:./Generated_Source/PSoC4/core_cm0.h ****    SUBSTITUTE GOODS OR SERVICES; LOSS OF USE, DATA, OR PROFITS; OR BUSINESS
  31:./Generated_Source/PSoC4/core_cm0.h ****    INTERRUPTION) HOWEVER CAUSED AND ON ANY THEORY OF LIABILITY, WHETHER IN
  32:./Generated_Source/PSoC4/core_cm0.h ****    CONTRACT, STRICT LIABILITY, OR TORT (INCLUDING NEGLIGENCE OR OTHERWISE)
  33:./Generated_Source/PSoC4/core_cm0.h ****    ARISING IN ANY WAY OUT OF THE USE OF THIS SOFTWARE, EVEN IF ADVISED OF THE
  34:./Generated_Source/PSoC4/core_cm0.h ****    POSSIBILITY OF SUCH DAMAGE.
  35:./Generated_Source/PSoC4/core_cm0.h ****    ---------------------------------------------------------------------------*/
  36:./Generated_Source/PSoC4/core_cm0.h **** 
  37:./Generated_Source/PSoC4/core_cm0.h **** 
  38:./Generated_Source/PSoC4/core_cm0.h **** #if defined ( __ICCARM__ )
  39:./Generated_Source/PSoC4/core_cm0.h ****  #pragma system_include  /* treat file as system include file for MISRA check */
  40:./Generated_Source/PSoC4/core_cm0.h **** #endif
  41:./Generated_Source/PSoC4/core_cm0.h **** 
  42:./Generated_Source/PSoC4/core_cm0.h **** #ifdef __cplusplus
  43:./Generated_Source/PSoC4/core_cm0.h ****  extern "C" {
  44:./Generated_Source/PSoC4/core_cm0.h **** #endif
  45:./Generated_Source/PSoC4/core_cm0.h **** 
  46:./Generated_Source/PSoC4/core_cm0.h **** #ifndef __CORE_CM0_H_GENERIC
  47:./Generated_Source/PSoC4/core_cm0.h **** #define __CORE_CM0_H_GENERIC
  48:./Generated_Source/PSoC4/core_cm0.h **** 
  49:./Generated_Source/PSoC4/core_cm0.h **** /** \page CMSIS_MISRA_Exceptions  MISRA-C:2004 Compliance Exceptions
  50:./Generated_Source/PSoC4/core_cm0.h ****   CMSIS violates the following MISRA-C:2004 rules:
  51:./Generated_Source/PSoC4/core_cm0.h **** 
  52:./Generated_Source/PSoC4/core_cm0.h ****    \li Required Rule 8.5, object/function definition in header file.<br>
  53:./Generated_Source/PSoC4/core_cm0.h ****      Function definitions in header files are used to allow 'inlining'.
  54:./Generated_Source/PSoC4/core_cm0.h **** 
  55:./Generated_Source/PSoC4/core_cm0.h ****    \li Required Rule 18.4, declaration of union type or object of union type: '{...}'.<br>
  56:./Generated_Source/PSoC4/core_cm0.h ****      Unions are used for effective representation of core registers.
  57:./Generated_Source/PSoC4/core_cm0.h **** 
  58:./Generated_Source/PSoC4/core_cm0.h ****    \li Advisory Rule 19.7, Function-like macro defined.<br>
  59:./Generated_Source/PSoC4/core_cm0.h ****      Function-like macros are used to allow more efficient code.
  60:./Generated_Source/PSoC4/core_cm0.h ****  */
  61:./Generated_Source/PSoC4/core_cm0.h **** 
  62:./Generated_Source/PSoC4/core_cm0.h **** 
  63:./Generated_Source/PSoC4/core_cm0.h **** /*******************************************************************************
ARM GAS  C:\DOCUME~1\Chuck\LOCALS~1\Temp\ccsYEGdP.s 			page 4


  64:./Generated_Source/PSoC4/core_cm0.h ****  *                 CMSIS definitions
  65:./Generated_Source/PSoC4/core_cm0.h ****  ******************************************************************************/
  66:./Generated_Source/PSoC4/core_cm0.h **** /** \ingroup Cortex_M0
  67:./Generated_Source/PSoC4/core_cm0.h ****   @{
  68:./Generated_Source/PSoC4/core_cm0.h ****  */
  69:./Generated_Source/PSoC4/core_cm0.h **** 
  70:./Generated_Source/PSoC4/core_cm0.h **** /*  CMSIS CM0 definitions */
  71:./Generated_Source/PSoC4/core_cm0.h **** #define __CM0_CMSIS_VERSION_MAIN  (0x03)                                   /*!< [31:16] CMSIS HAL m
  72:./Generated_Source/PSoC4/core_cm0.h **** #define __CM0_CMSIS_VERSION_SUB   (0x20)                                   /*!< [15:0]  CMSIS HAL s
  73:./Generated_Source/PSoC4/core_cm0.h **** #define __CM0_CMSIS_VERSION       ((__CM0_CMSIS_VERSION_MAIN << 16) | \
  74:./Generated_Source/PSoC4/core_cm0.h ****                                     __CM0_CMSIS_VERSION_SUB          )     /*!< CMSIS HAL version n
  75:./Generated_Source/PSoC4/core_cm0.h **** 
  76:./Generated_Source/PSoC4/core_cm0.h **** #define __CORTEX_M                (0x00)                                   /*!< Cortex-M Core      
  77:./Generated_Source/PSoC4/core_cm0.h **** 
  78:./Generated_Source/PSoC4/core_cm0.h **** 
  79:./Generated_Source/PSoC4/core_cm0.h **** #if   defined ( __CC_ARM )
  80:./Generated_Source/PSoC4/core_cm0.h ****   #define __ASM            __asm                                      /*!< asm keyword for ARM Comp
  81:./Generated_Source/PSoC4/core_cm0.h ****   #define __INLINE         __inline                                   /*!< inline keyword for ARM C
  82:./Generated_Source/PSoC4/core_cm0.h ****   #define __STATIC_INLINE  static __inline
  83:./Generated_Source/PSoC4/core_cm0.h **** 
  84:./Generated_Source/PSoC4/core_cm0.h **** #elif defined ( __ICCARM__ )
  85:./Generated_Source/PSoC4/core_cm0.h ****   #define __ASM            __asm                                      /*!< asm keyword for IAR Comp
  86:./Generated_Source/PSoC4/core_cm0.h ****   #define __INLINE         inline                                     /*!< inline keyword for IAR C
  87:./Generated_Source/PSoC4/core_cm0.h ****   #define __STATIC_INLINE  static inline
  88:./Generated_Source/PSoC4/core_cm0.h **** 
  89:./Generated_Source/PSoC4/core_cm0.h **** #elif defined ( __GNUC__ )
  90:./Generated_Source/PSoC4/core_cm0.h ****   #define __ASM            __asm                                      /*!< asm keyword for GNU Comp
  91:./Generated_Source/PSoC4/core_cm0.h ****   #define __INLINE         inline                                     /*!< inline keyword for GNU C
  92:./Generated_Source/PSoC4/core_cm0.h ****   #define __STATIC_INLINE  static inline
  93:./Generated_Source/PSoC4/core_cm0.h **** 
  94:./Generated_Source/PSoC4/core_cm0.h **** #elif defined ( __TASKING__ )
  95:./Generated_Source/PSoC4/core_cm0.h ****   #define __ASM            __asm                                      /*!< asm keyword for TASKING 
  96:./Generated_Source/PSoC4/core_cm0.h ****   #define __INLINE         inline                                     /*!< inline keyword for TASKI
  97:./Generated_Source/PSoC4/core_cm0.h ****   #define __STATIC_INLINE  static inline
  98:./Generated_Source/PSoC4/core_cm0.h **** 
  99:./Generated_Source/PSoC4/core_cm0.h **** #endif
 100:./Generated_Source/PSoC4/core_cm0.h **** 
 101:./Generated_Source/PSoC4/core_cm0.h **** /** __FPU_USED indicates whether an FPU is used or not. This core does not support an FPU at all
 102:./Generated_Source/PSoC4/core_cm0.h **** */
 103:./Generated_Source/PSoC4/core_cm0.h **** #define __FPU_USED       0
 104:./Generated_Source/PSoC4/core_cm0.h **** 
 105:./Generated_Source/PSoC4/core_cm0.h **** #if defined ( __CC_ARM )
 106:./Generated_Source/PSoC4/core_cm0.h ****   #if defined __TARGET_FPU_VFP
 107:./Generated_Source/PSoC4/core_cm0.h ****     #warning "Compiler generates FPU instructions for a device without an FPU (check __FPU_PRESENT)
 108:./Generated_Source/PSoC4/core_cm0.h ****   #endif
 109:./Generated_Source/PSoC4/core_cm0.h **** 
 110:./Generated_Source/PSoC4/core_cm0.h **** #elif defined ( __ICCARM__ )
 111:./Generated_Source/PSoC4/core_cm0.h ****   #if defined __ARMVFP__
 112:./Generated_Source/PSoC4/core_cm0.h ****     #warning "Compiler generates FPU instructions for a device without an FPU (check __FPU_PRESENT)
 113:./Generated_Source/PSoC4/core_cm0.h ****   #endif
 114:./Generated_Source/PSoC4/core_cm0.h **** 
 115:./Generated_Source/PSoC4/core_cm0.h **** #elif defined ( __GNUC__ )
 116:./Generated_Source/PSoC4/core_cm0.h ****   #if defined (__VFP_FP__) && !defined(__SOFTFP__)
 117:./Generated_Source/PSoC4/core_cm0.h ****     #warning "Compiler generates FPU instructions for a device without an FPU (check __FPU_PRESENT)
 118:./Generated_Source/PSoC4/core_cm0.h ****   #endif
 119:./Generated_Source/PSoC4/core_cm0.h **** 
 120:./Generated_Source/PSoC4/core_cm0.h **** #elif defined ( __TASKING__ )
ARM GAS  C:\DOCUME~1\Chuck\LOCALS~1\Temp\ccsYEGdP.s 			page 5


 121:./Generated_Source/PSoC4/core_cm0.h ****   #if defined __FPU_VFP__
 122:./Generated_Source/PSoC4/core_cm0.h ****     #error "Compiler generates FPU instructions for a device without an FPU (check __FPU_PRESENT)"
 123:./Generated_Source/PSoC4/core_cm0.h ****   #endif
 124:./Generated_Source/PSoC4/core_cm0.h **** #endif
 125:./Generated_Source/PSoC4/core_cm0.h **** 
 126:./Generated_Source/PSoC4/core_cm0.h **** #include <stdint.h>                      /* standard types definitions                      */
 127:./Generated_Source/PSoC4/core_cm0.h **** #include <core_cmInstr.h>                /* Core Instruction Access                         */
 128:./Generated_Source/PSoC4/core_cm0.h **** #include <core_cmFunc.h>                 /* Core Function Access                            */
 129:./Generated_Source/PSoC4/core_cm0.h **** 
 130:./Generated_Source/PSoC4/core_cm0.h **** #endif /* __CORE_CM0_H_GENERIC */
 131:./Generated_Source/PSoC4/core_cm0.h **** 
 132:./Generated_Source/PSoC4/core_cm0.h **** #ifndef __CMSIS_GENERIC
 133:./Generated_Source/PSoC4/core_cm0.h **** 
 134:./Generated_Source/PSoC4/core_cm0.h **** #ifndef __CORE_CM0_H_DEPENDANT
 135:./Generated_Source/PSoC4/core_cm0.h **** #define __CORE_CM0_H_DEPENDANT
 136:./Generated_Source/PSoC4/core_cm0.h **** 
 137:./Generated_Source/PSoC4/core_cm0.h **** /* check device defines and use defaults */
 138:./Generated_Source/PSoC4/core_cm0.h **** #if defined __CHECK_DEVICE_DEFINES
 139:./Generated_Source/PSoC4/core_cm0.h ****   #ifndef __CM0_REV
 140:./Generated_Source/PSoC4/core_cm0.h ****     #define __CM0_REV               0x0000
 141:./Generated_Source/PSoC4/core_cm0.h ****     #warning "__CM0_REV not defined in device header file; using default!"
 142:./Generated_Source/PSoC4/core_cm0.h ****   #endif
 143:./Generated_Source/PSoC4/core_cm0.h **** 
 144:./Generated_Source/PSoC4/core_cm0.h ****   #ifndef __NVIC_PRIO_BITS
 145:./Generated_Source/PSoC4/core_cm0.h ****     #define __NVIC_PRIO_BITS          2
 146:./Generated_Source/PSoC4/core_cm0.h ****     #warning "__NVIC_PRIO_BITS not defined in device header file; using default!"
 147:./Generated_Source/PSoC4/core_cm0.h ****   #endif
 148:./Generated_Source/PSoC4/core_cm0.h **** 
 149:./Generated_Source/PSoC4/core_cm0.h ****   #ifndef __Vendor_SysTickConfig
 150:./Generated_Source/PSoC4/core_cm0.h ****     #define __Vendor_SysTickConfig    0
 151:./Generated_Source/PSoC4/core_cm0.h ****     #warning "__Vendor_SysTickConfig not defined in device header file; using default!"
 152:./Generated_Source/PSoC4/core_cm0.h ****   #endif
 153:./Generated_Source/PSoC4/core_cm0.h **** #endif
 154:./Generated_Source/PSoC4/core_cm0.h **** 
 155:./Generated_Source/PSoC4/core_cm0.h **** /* IO definitions (access restrictions to peripheral registers) */
 156:./Generated_Source/PSoC4/core_cm0.h **** /**
 157:./Generated_Source/PSoC4/core_cm0.h ****     \defgroup CMSIS_glob_defs CMSIS Global Defines
 158:./Generated_Source/PSoC4/core_cm0.h **** 
 159:./Generated_Source/PSoC4/core_cm0.h ****     <strong>IO Type Qualifiers</strong> are used
 160:./Generated_Source/PSoC4/core_cm0.h ****     \li to specify the access to peripheral variables.
 161:./Generated_Source/PSoC4/core_cm0.h ****     \li for automatic generation of peripheral register debug information.
 162:./Generated_Source/PSoC4/core_cm0.h **** */
 163:./Generated_Source/PSoC4/core_cm0.h **** #ifdef __cplusplus
 164:./Generated_Source/PSoC4/core_cm0.h ****   #define   __I     volatile             /*!< Defines 'read only' permissions                 */
 165:./Generated_Source/PSoC4/core_cm0.h **** #else
 166:./Generated_Source/PSoC4/core_cm0.h ****   #define   __I     volatile const       /*!< Defines 'read only' permissions                 */
 167:./Generated_Source/PSoC4/core_cm0.h **** #endif
 168:./Generated_Source/PSoC4/core_cm0.h **** #define     __O     volatile             /*!< Defines 'write only' permissions                */
 169:./Generated_Source/PSoC4/core_cm0.h **** #define     __IO    volatile             /*!< Defines 'read / write' permissions              */
 170:./Generated_Source/PSoC4/core_cm0.h **** 
 171:./Generated_Source/PSoC4/core_cm0.h **** /*@} end of group Cortex_M0 */
 172:./Generated_Source/PSoC4/core_cm0.h **** 
 173:./Generated_Source/PSoC4/core_cm0.h **** 
 174:./Generated_Source/PSoC4/core_cm0.h **** 
 175:./Generated_Source/PSoC4/core_cm0.h **** /*******************************************************************************
 176:./Generated_Source/PSoC4/core_cm0.h ****  *                 Register Abstraction
 177:./Generated_Source/PSoC4/core_cm0.h ****   Core Register contain:
ARM GAS  C:\DOCUME~1\Chuck\LOCALS~1\Temp\ccsYEGdP.s 			page 6


 178:./Generated_Source/PSoC4/core_cm0.h ****   - Core Register
 179:./Generated_Source/PSoC4/core_cm0.h ****   - Core NVIC Register
 180:./Generated_Source/PSoC4/core_cm0.h ****   - Core SCB Register
 181:./Generated_Source/PSoC4/core_cm0.h ****   - Core SysTick Register
 182:./Generated_Source/PSoC4/core_cm0.h ****  ******************************************************************************/
 183:./Generated_Source/PSoC4/core_cm0.h **** /** \defgroup CMSIS_core_register Defines and Type Definitions
 184:./Generated_Source/PSoC4/core_cm0.h ****     \brief Type definitions and defines for Cortex-M processor based devices.
 185:./Generated_Source/PSoC4/core_cm0.h **** */
 186:./Generated_Source/PSoC4/core_cm0.h **** 
 187:./Generated_Source/PSoC4/core_cm0.h **** /** \ingroup    CMSIS_core_register
 188:./Generated_Source/PSoC4/core_cm0.h ****     \defgroup   CMSIS_CORE  Status and Control Registers
 189:./Generated_Source/PSoC4/core_cm0.h ****     \brief  Core Register type definitions.
 190:./Generated_Source/PSoC4/core_cm0.h ****   @{
 191:./Generated_Source/PSoC4/core_cm0.h ****  */
 192:./Generated_Source/PSoC4/core_cm0.h **** 
 193:./Generated_Source/PSoC4/core_cm0.h **** /** \brief  Union type to access the Application Program Status Register (APSR).
 194:./Generated_Source/PSoC4/core_cm0.h ****  */
 195:./Generated_Source/PSoC4/core_cm0.h **** typedef union
 196:./Generated_Source/PSoC4/core_cm0.h **** {
 197:./Generated_Source/PSoC4/core_cm0.h ****   struct
 198:./Generated_Source/PSoC4/core_cm0.h ****   {
 199:./Generated_Source/PSoC4/core_cm0.h **** #if (__CORTEX_M != 0x04)
 200:./Generated_Source/PSoC4/core_cm0.h ****     uint32_t _reserved0:27;              /*!< bit:  0..26  Reserved                           */
 201:./Generated_Source/PSoC4/core_cm0.h **** #else
 202:./Generated_Source/PSoC4/core_cm0.h ****     uint32_t _reserved0:16;              /*!< bit:  0..15  Reserved                           */
 203:./Generated_Source/PSoC4/core_cm0.h ****     uint32_t GE:4;                       /*!< bit: 16..19  Greater than or Equal flags        */
 204:./Generated_Source/PSoC4/core_cm0.h ****     uint32_t _reserved1:7;               /*!< bit: 20..26  Reserved                           */
 205:./Generated_Source/PSoC4/core_cm0.h **** #endif
 206:./Generated_Source/PSoC4/core_cm0.h ****     uint32_t Q:1;                        /*!< bit:     27  Saturation condition flag          */
 207:./Generated_Source/PSoC4/core_cm0.h ****     uint32_t V:1;                        /*!< bit:     28  Overflow condition code flag       */
 208:./Generated_Source/PSoC4/core_cm0.h ****     uint32_t C:1;                        /*!< bit:     29  Carry condition code flag          */
 209:./Generated_Source/PSoC4/core_cm0.h ****     uint32_t Z:1;                        /*!< bit:     30  Zero condition code flag           */
 210:./Generated_Source/PSoC4/core_cm0.h ****     uint32_t N:1;                        /*!< bit:     31  Negative condition code flag       */
 211:./Generated_Source/PSoC4/core_cm0.h ****   } b;                                   /*!< Structure used for bit  access                  */
 212:./Generated_Source/PSoC4/core_cm0.h ****   uint32_t w;                            /*!< Type      used for word access                  */
 213:./Generated_Source/PSoC4/core_cm0.h **** } APSR_Type;
 214:./Generated_Source/PSoC4/core_cm0.h **** 
 215:./Generated_Source/PSoC4/core_cm0.h **** 
 216:./Generated_Source/PSoC4/core_cm0.h **** /** \brief  Union type to access the Interrupt Program Status Register (IPSR).
 217:./Generated_Source/PSoC4/core_cm0.h ****  */
 218:./Generated_Source/PSoC4/core_cm0.h **** typedef union
 219:./Generated_Source/PSoC4/core_cm0.h **** {
 220:./Generated_Source/PSoC4/core_cm0.h ****   struct
 221:./Generated_Source/PSoC4/core_cm0.h ****   {
 222:./Generated_Source/PSoC4/core_cm0.h ****     uint32_t ISR:9;                      /*!< bit:  0.. 8  Exception number                   */
 223:./Generated_Source/PSoC4/core_cm0.h ****     uint32_t _reserved0:23;              /*!< bit:  9..31  Reserved                           */
 224:./Generated_Source/PSoC4/core_cm0.h ****   } b;                                   /*!< Structure used for bit  access                  */
 225:./Generated_Source/PSoC4/core_cm0.h ****   uint32_t w;                            /*!< Type      used for word access                  */
 226:./Generated_Source/PSoC4/core_cm0.h **** } IPSR_Type;
 227:./Generated_Source/PSoC4/core_cm0.h **** 
 228:./Generated_Source/PSoC4/core_cm0.h **** 
 229:./Generated_Source/PSoC4/core_cm0.h **** /** \brief  Union type to access the Special-Purpose Program Status Registers (xPSR).
 230:./Generated_Source/PSoC4/core_cm0.h ****  */
 231:./Generated_Source/PSoC4/core_cm0.h **** typedef union
 232:./Generated_Source/PSoC4/core_cm0.h **** {
 233:./Generated_Source/PSoC4/core_cm0.h ****   struct
 234:./Generated_Source/PSoC4/core_cm0.h ****   {
ARM GAS  C:\DOCUME~1\Chuck\LOCALS~1\Temp\ccsYEGdP.s 			page 7


 235:./Generated_Source/PSoC4/core_cm0.h ****     uint32_t ISR:9;                      /*!< bit:  0.. 8  Exception number                   */
 236:./Generated_Source/PSoC4/core_cm0.h **** #if (__CORTEX_M != 0x04)
 237:./Generated_Source/PSoC4/core_cm0.h ****     uint32_t _reserved0:15;              /*!< bit:  9..23  Reserved                           */
 238:./Generated_Source/PSoC4/core_cm0.h **** #else
 239:./Generated_Source/PSoC4/core_cm0.h ****     uint32_t _reserved0:7;               /*!< bit:  9..15  Reserved                           */
 240:./Generated_Source/PSoC4/core_cm0.h ****     uint32_t GE:4;                       /*!< bit: 16..19  Greater than or Equal flags        */
 241:./Generated_Source/PSoC4/core_cm0.h ****     uint32_t _reserved1:4;               /*!< bit: 20..23  Reserved                           */
 242:./Generated_Source/PSoC4/core_cm0.h **** #endif
 243:./Generated_Source/PSoC4/core_cm0.h ****     uint32_t T:1;                        /*!< bit:     24  Thumb bit        (read 0)          */
 244:./Generated_Source/PSoC4/core_cm0.h ****     uint32_t IT:2;                       /*!< bit: 25..26  saved IT state   (read 0)          */
 245:./Generated_Source/PSoC4/core_cm0.h ****     uint32_t Q:1;                        /*!< bit:     27  Saturation condition flag          */
 246:./Generated_Source/PSoC4/core_cm0.h ****     uint32_t V:1;                        /*!< bit:     28  Overflow condition code flag       */
 247:./Generated_Source/PSoC4/core_cm0.h ****     uint32_t C:1;                        /*!< bit:     29  Carry condition code flag          */
 248:./Generated_Source/PSoC4/core_cm0.h ****     uint32_t Z:1;                        /*!< bit:     30  Zero condition code flag           */
 249:./Generated_Source/PSoC4/core_cm0.h ****     uint32_t N:1;                        /*!< bit:     31  Negative condition code flag       */
 250:./Generated_Source/PSoC4/core_cm0.h ****   } b;                                   /*!< Structure used for bit  access                  */
 251:./Generated_Source/PSoC4/core_cm0.h ****   uint32_t w;                            /*!< Type      used for word access                  */
 252:./Generated_Source/PSoC4/core_cm0.h **** } xPSR_Type;
 253:./Generated_Source/PSoC4/core_cm0.h **** 
 254:./Generated_Source/PSoC4/core_cm0.h **** 
 255:./Generated_Source/PSoC4/core_cm0.h **** /** \brief  Union type to access the Control Registers (CONTROL).
 256:./Generated_Source/PSoC4/core_cm0.h ****  */
 257:./Generated_Source/PSoC4/core_cm0.h **** typedef union
 258:./Generated_Source/PSoC4/core_cm0.h **** {
 259:./Generated_Source/PSoC4/core_cm0.h ****   struct
 260:./Generated_Source/PSoC4/core_cm0.h ****   {
 261:./Generated_Source/PSoC4/core_cm0.h ****     uint32_t nPRIV:1;                    /*!< bit:      0  Execution privilege in Thread mode */
 262:./Generated_Source/PSoC4/core_cm0.h ****     uint32_t SPSEL:1;                    /*!< bit:      1  Stack to be used                   */
 263:./Generated_Source/PSoC4/core_cm0.h ****     uint32_t FPCA:1;                     /*!< bit:      2  FP extension active flag           */
 264:./Generated_Source/PSoC4/core_cm0.h ****     uint32_t _reserved0:29;              /*!< bit:  3..31  Reserved                           */
 265:./Generated_Source/PSoC4/core_cm0.h ****   } b;                                   /*!< Structure used for bit  access                  */
 266:./Generated_Source/PSoC4/core_cm0.h ****   uint32_t w;                            /*!< Type      used for word access                  */
 267:./Generated_Source/PSoC4/core_cm0.h **** } CONTROL_Type;
 268:./Generated_Source/PSoC4/core_cm0.h **** 
 269:./Generated_Source/PSoC4/core_cm0.h **** /*@} end of group CMSIS_CORE */
 270:./Generated_Source/PSoC4/core_cm0.h **** 
 271:./Generated_Source/PSoC4/core_cm0.h **** 
 272:./Generated_Source/PSoC4/core_cm0.h **** /** \ingroup    CMSIS_core_register
 273:./Generated_Source/PSoC4/core_cm0.h ****     \defgroup   CMSIS_NVIC  Nested Vectored Interrupt Controller (NVIC)
 274:./Generated_Source/PSoC4/core_cm0.h ****     \brief      Type definitions for the NVIC Registers
 275:./Generated_Source/PSoC4/core_cm0.h ****   @{
 276:./Generated_Source/PSoC4/core_cm0.h ****  */
 277:./Generated_Source/PSoC4/core_cm0.h **** 
 278:./Generated_Source/PSoC4/core_cm0.h **** /** \brief  Structure type to access the Nested Vectored Interrupt Controller (NVIC).
 279:./Generated_Source/PSoC4/core_cm0.h ****  */
 280:./Generated_Source/PSoC4/core_cm0.h **** typedef struct
 281:./Generated_Source/PSoC4/core_cm0.h **** {
 282:./Generated_Source/PSoC4/core_cm0.h ****   __IO uint32_t ISER[1];                 /*!< Offset: 0x000 (R/W)  Interrupt Set Enable Register   
 283:./Generated_Source/PSoC4/core_cm0.h ****        uint32_t RESERVED0[31];
 284:./Generated_Source/PSoC4/core_cm0.h ****   __IO uint32_t ICER[1];                 /*!< Offset: 0x080 (R/W)  Interrupt Clear Enable Register 
 285:./Generated_Source/PSoC4/core_cm0.h ****        uint32_t RSERVED1[31];
 286:./Generated_Source/PSoC4/core_cm0.h ****   __IO uint32_t ISPR[1];                 /*!< Offset: 0x100 (R/W)  Interrupt Set Pending Register  
 287:./Generated_Source/PSoC4/core_cm0.h ****        uint32_t RESERVED2[31];
 288:./Generated_Source/PSoC4/core_cm0.h ****   __IO uint32_t ICPR[1];                 /*!< Offset: 0x180 (R/W)  Interrupt Clear Pending Register
 289:./Generated_Source/PSoC4/core_cm0.h ****        uint32_t RESERVED3[31];
 290:./Generated_Source/PSoC4/core_cm0.h ****        uint32_t RESERVED4[64];
 291:./Generated_Source/PSoC4/core_cm0.h ****   __IO uint32_t IP[8];                   /*!< Offset: 0x300 (R/W)  Interrupt Priority Register     
ARM GAS  C:\DOCUME~1\Chuck\LOCALS~1\Temp\ccsYEGdP.s 			page 8


 292:./Generated_Source/PSoC4/core_cm0.h **** }  NVIC_Type;
 293:./Generated_Source/PSoC4/core_cm0.h **** 
 294:./Generated_Source/PSoC4/core_cm0.h **** /*@} end of group CMSIS_NVIC */
 295:./Generated_Source/PSoC4/core_cm0.h **** 
 296:./Generated_Source/PSoC4/core_cm0.h **** 
 297:./Generated_Source/PSoC4/core_cm0.h **** /** \ingroup  CMSIS_core_register
 298:./Generated_Source/PSoC4/core_cm0.h ****     \defgroup CMSIS_SCB     System Control Block (SCB)
 299:./Generated_Source/PSoC4/core_cm0.h ****     \brief      Type definitions for the System Control Block Registers
 300:./Generated_Source/PSoC4/core_cm0.h ****   @{
 301:./Generated_Source/PSoC4/core_cm0.h ****  */
 302:./Generated_Source/PSoC4/core_cm0.h **** 
 303:./Generated_Source/PSoC4/core_cm0.h **** /** \brief  Structure type to access the System Control Block (SCB).
 304:./Generated_Source/PSoC4/core_cm0.h ****  */
 305:./Generated_Source/PSoC4/core_cm0.h **** typedef struct
 306:./Generated_Source/PSoC4/core_cm0.h **** {
 307:./Generated_Source/PSoC4/core_cm0.h ****   __I  uint32_t CPUID;                   /*!< Offset: 0x000 (R/ )  CPUID Base Register             
 308:./Generated_Source/PSoC4/core_cm0.h ****   __IO uint32_t ICSR;                    /*!< Offset: 0x004 (R/W)  Interrupt Control and State Regi
 309:./Generated_Source/PSoC4/core_cm0.h ****        uint32_t RESERVED0;
 310:./Generated_Source/PSoC4/core_cm0.h ****   __IO uint32_t AIRCR;                   /*!< Offset: 0x00C (R/W)  Application Interrupt and Reset 
 311:./Generated_Source/PSoC4/core_cm0.h ****   __IO uint32_t SCR;                     /*!< Offset: 0x010 (R/W)  System Control Register         
 312:./Generated_Source/PSoC4/core_cm0.h ****   __IO uint32_t CCR;                     /*!< Offset: 0x014 (R/W)  Configuration Control Register  
 313:./Generated_Source/PSoC4/core_cm0.h ****        uint32_t RESERVED1;
 314:./Generated_Source/PSoC4/core_cm0.h ****   __IO uint32_t SHP[2];                  /*!< Offset: 0x01C (R/W)  System Handlers Priority Registe
 315:./Generated_Source/PSoC4/core_cm0.h ****   __IO uint32_t SHCSR;                   /*!< Offset: 0x024 (R/W)  System Handler Control and State
 316:./Generated_Source/PSoC4/core_cm0.h **** } SCB_Type;
 317:./Generated_Source/PSoC4/core_cm0.h **** 
 318:./Generated_Source/PSoC4/core_cm0.h **** /* SCB CPUID Register Definitions */
 319:./Generated_Source/PSoC4/core_cm0.h **** #define SCB_CPUID_IMPLEMENTER_Pos          24                                             /*!< SCB 
 320:./Generated_Source/PSoC4/core_cm0.h **** #define SCB_CPUID_IMPLEMENTER_Msk          (0xFFUL << SCB_CPUID_IMPLEMENTER_Pos)          /*!< SCB 
 321:./Generated_Source/PSoC4/core_cm0.h **** 
 322:./Generated_Source/PSoC4/core_cm0.h **** #define SCB_CPUID_VARIANT_Pos              20                                             /*!< SCB 
 323:./Generated_Source/PSoC4/core_cm0.h **** #define SCB_CPUID_VARIANT_Msk              (0xFUL << SCB_CPUID_VARIANT_Pos)               /*!< SCB 
 324:./Generated_Source/PSoC4/core_cm0.h **** 
 325:./Generated_Source/PSoC4/core_cm0.h **** #define SCB_CPUID_ARCHITECTURE_Pos         16                                             /*!< SCB 
 326:./Generated_Source/PSoC4/core_cm0.h **** #define SCB_CPUID_ARCHITECTURE_Msk         (0xFUL << SCB_CPUID_ARCHITECTURE_Pos)          /*!< SCB 
 327:./Generated_Source/PSoC4/core_cm0.h **** 
 328:./Generated_Source/PSoC4/core_cm0.h **** #define SCB_CPUID_PARTNO_Pos                4                                             /*!< SCB 
 329:./Generated_Source/PSoC4/core_cm0.h **** #define SCB_CPUID_PARTNO_Msk               (0xFFFUL << SCB_CPUID_PARTNO_Pos)              /*!< SCB 
 330:./Generated_Source/PSoC4/core_cm0.h **** 
 331:./Generated_Source/PSoC4/core_cm0.h **** #define SCB_CPUID_REVISION_Pos              0                                             /*!< SCB 
 332:./Generated_Source/PSoC4/core_cm0.h **** #define SCB_CPUID_REVISION_Msk             (0xFUL << SCB_CPUID_REVISION_Pos)              /*!< SCB 
 333:./Generated_Source/PSoC4/core_cm0.h **** 
 334:./Generated_Source/PSoC4/core_cm0.h **** /* SCB Interrupt Control State Register Definitions */
 335:./Generated_Source/PSoC4/core_cm0.h **** #define SCB_ICSR_NMIPENDSET_Pos            31                                             /*!< SCB 
 336:./Generated_Source/PSoC4/core_cm0.h **** #define SCB_ICSR_NMIPENDSET_Msk            (1UL << SCB_ICSR_NMIPENDSET_Pos)               /*!< SCB 
 337:./Generated_Source/PSoC4/core_cm0.h **** 
 338:./Generated_Source/PSoC4/core_cm0.h **** #define SCB_ICSR_PENDSVSET_Pos             28                                             /*!< SCB 
 339:./Generated_Source/PSoC4/core_cm0.h **** #define SCB_ICSR_PENDSVSET_Msk             (1UL << SCB_ICSR_PENDSVSET_Pos)                /*!< SCB 
 340:./Generated_Source/PSoC4/core_cm0.h **** 
 341:./Generated_Source/PSoC4/core_cm0.h **** #define SCB_ICSR_PENDSVCLR_Pos             27                                             /*!< SCB 
 342:./Generated_Source/PSoC4/core_cm0.h **** #define SCB_ICSR_PENDSVCLR_Msk             (1UL << SCB_ICSR_PENDSVCLR_Pos)                /*!< SCB 
 343:./Generated_Source/PSoC4/core_cm0.h **** 
 344:./Generated_Source/PSoC4/core_cm0.h **** #define SCB_ICSR_PENDSTSET_Pos             26                                             /*!< SCB 
 345:./Generated_Source/PSoC4/core_cm0.h **** #define SCB_ICSR_PENDSTSET_Msk             (1UL << SCB_ICSR_PENDSTSET_Pos)                /*!< SCB 
 346:./Generated_Source/PSoC4/core_cm0.h **** 
 347:./Generated_Source/PSoC4/core_cm0.h **** #define SCB_ICSR_PENDSTCLR_Pos             25                                             /*!< SCB 
 348:./Generated_Source/PSoC4/core_cm0.h **** #define SCB_ICSR_PENDSTCLR_Msk             (1UL << SCB_ICSR_PENDSTCLR_Pos)                /*!< SCB 
ARM GAS  C:\DOCUME~1\Chuck\LOCALS~1\Temp\ccsYEGdP.s 			page 9


 349:./Generated_Source/PSoC4/core_cm0.h **** 
 350:./Generated_Source/PSoC4/core_cm0.h **** #define SCB_ICSR_ISRPREEMPT_Pos            23                                             /*!< SCB 
 351:./Generated_Source/PSoC4/core_cm0.h **** #define SCB_ICSR_ISRPREEMPT_Msk            (1UL << SCB_ICSR_ISRPREEMPT_Pos)               /*!< SCB 
 352:./Generated_Source/PSoC4/core_cm0.h **** 
 353:./Generated_Source/PSoC4/core_cm0.h **** #define SCB_ICSR_ISRPENDING_Pos            22                                             /*!< SCB 
 354:./Generated_Source/PSoC4/core_cm0.h **** #define SCB_ICSR_ISRPENDING_Msk            (1UL << SCB_ICSR_ISRPENDING_Pos)               /*!< SCB 
 355:./Generated_Source/PSoC4/core_cm0.h **** 
 356:./Generated_Source/PSoC4/core_cm0.h **** #define SCB_ICSR_VECTPENDING_Pos           12                                             /*!< SCB 
 357:./Generated_Source/PSoC4/core_cm0.h **** #define SCB_ICSR_VECTPENDING_Msk           (0x1FFUL << SCB_ICSR_VECTPENDING_Pos)          /*!< SCB 
 358:./Generated_Source/PSoC4/core_cm0.h **** 
 359:./Generated_Source/PSoC4/core_cm0.h **** #define SCB_ICSR_VECTACTIVE_Pos             0                                             /*!< SCB 
 360:./Generated_Source/PSoC4/core_cm0.h **** #define SCB_ICSR_VECTACTIVE_Msk            (0x1FFUL << SCB_ICSR_VECTACTIVE_Pos)           /*!< SCB 
 361:./Generated_Source/PSoC4/core_cm0.h **** 
 362:./Generated_Source/PSoC4/core_cm0.h **** /* SCB Application Interrupt and Reset Control Register Definitions */
 363:./Generated_Source/PSoC4/core_cm0.h **** #define SCB_AIRCR_VECTKEY_Pos              16                                             /*!< SCB 
 364:./Generated_Source/PSoC4/core_cm0.h **** #define SCB_AIRCR_VECTKEY_Msk              (0xFFFFUL << SCB_AIRCR_VECTKEY_Pos)            /*!< SCB 
 365:./Generated_Source/PSoC4/core_cm0.h **** 
 366:./Generated_Source/PSoC4/core_cm0.h **** #define SCB_AIRCR_VECTKEYSTAT_Pos          16                                             /*!< SCB 
 367:./Generated_Source/PSoC4/core_cm0.h **** #define SCB_AIRCR_VECTKEYSTAT_Msk          (0xFFFFUL << SCB_AIRCR_VECTKEYSTAT_Pos)        /*!< SCB 
 368:./Generated_Source/PSoC4/core_cm0.h **** 
 369:./Generated_Source/PSoC4/core_cm0.h **** #define SCB_AIRCR_ENDIANESS_Pos            15                                             /*!< SCB 
 370:./Generated_Source/PSoC4/core_cm0.h **** #define SCB_AIRCR_ENDIANESS_Msk            (1UL << SCB_AIRCR_ENDIANESS_Pos)               /*!< SCB 
 371:./Generated_Source/PSoC4/core_cm0.h **** 
 372:./Generated_Source/PSoC4/core_cm0.h **** #define SCB_AIRCR_SYSRESETREQ_Pos           2                                             /*!< SCB 
 373:./Generated_Source/PSoC4/core_cm0.h **** #define SCB_AIRCR_SYSRESETREQ_Msk          (1UL << SCB_AIRCR_SYSRESETREQ_Pos)             /*!< SCB 
 374:./Generated_Source/PSoC4/core_cm0.h **** 
 375:./Generated_Source/PSoC4/core_cm0.h **** #define SCB_AIRCR_VECTCLRACTIVE_Pos         1                                             /*!< SCB 
 376:./Generated_Source/PSoC4/core_cm0.h **** #define SCB_AIRCR_VECTCLRACTIVE_Msk        (1UL << SCB_AIRCR_VECTCLRACTIVE_Pos)           /*!< SCB 
 377:./Generated_Source/PSoC4/core_cm0.h **** 
 378:./Generated_Source/PSoC4/core_cm0.h **** /* SCB System Control Register Definitions */
 379:./Generated_Source/PSoC4/core_cm0.h **** #define SCB_SCR_SEVONPEND_Pos               4                                             /*!< SCB 
 380:./Generated_Source/PSoC4/core_cm0.h **** #define SCB_SCR_SEVONPEND_Msk              (1UL << SCB_SCR_SEVONPEND_Pos)                 /*!< SCB 
 381:./Generated_Source/PSoC4/core_cm0.h **** 
 382:./Generated_Source/PSoC4/core_cm0.h **** #define SCB_SCR_SLEEPDEEP_Pos               2                                             /*!< SCB 
 383:./Generated_Source/PSoC4/core_cm0.h **** #define SCB_SCR_SLEEPDEEP_Msk              (1UL << SCB_SCR_SLEEPDEEP_Pos)                 /*!< SCB 
 384:./Generated_Source/PSoC4/core_cm0.h **** 
 385:./Generated_Source/PSoC4/core_cm0.h **** #define SCB_SCR_SLEEPONEXIT_Pos             1                                             /*!< SCB 
 386:./Generated_Source/PSoC4/core_cm0.h **** #define SCB_SCR_SLEEPONEXIT_Msk            (1UL << SCB_SCR_SLEEPONEXIT_Pos)               /*!< SCB 
 387:./Generated_Source/PSoC4/core_cm0.h **** 
 388:./Generated_Source/PSoC4/core_cm0.h **** /* SCB Configuration Control Register Definitions */
 389:./Generated_Source/PSoC4/core_cm0.h **** #define SCB_CCR_STKALIGN_Pos                9                                             /*!< SCB 
 390:./Generated_Source/PSoC4/core_cm0.h **** #define SCB_CCR_STKALIGN_Msk               (1UL << SCB_CCR_STKALIGN_Pos)                  /*!< SCB 
 391:./Generated_Source/PSoC4/core_cm0.h **** 
 392:./Generated_Source/PSoC4/core_cm0.h **** #define SCB_CCR_UNALIGN_TRP_Pos             3                                             /*!< SCB 
 393:./Generated_Source/PSoC4/core_cm0.h **** #define SCB_CCR_UNALIGN_TRP_Msk            (1UL << SCB_CCR_UNALIGN_TRP_Pos)               /*!< SCB 
 394:./Generated_Source/PSoC4/core_cm0.h **** 
 395:./Generated_Source/PSoC4/core_cm0.h **** /* SCB System Handler Control and State Register Definitions */
 396:./Generated_Source/PSoC4/core_cm0.h **** #define SCB_SHCSR_SVCALLPENDED_Pos         15                                             /*!< SCB 
 397:./Generated_Source/PSoC4/core_cm0.h **** #define SCB_SHCSR_SVCALLPENDED_Msk         (1UL << SCB_SHCSR_SVCALLPENDED_Pos)            /*!< SCB 
 398:./Generated_Source/PSoC4/core_cm0.h **** 
 399:./Generated_Source/PSoC4/core_cm0.h **** /*@} end of group CMSIS_SCB */
 400:./Generated_Source/PSoC4/core_cm0.h **** 
 401:./Generated_Source/PSoC4/core_cm0.h **** 
 402:./Generated_Source/PSoC4/core_cm0.h **** /** \ingroup  CMSIS_core_register
 403:./Generated_Source/PSoC4/core_cm0.h ****     \defgroup CMSIS_SysTick     System Tick Timer (SysTick)
 404:./Generated_Source/PSoC4/core_cm0.h ****     \brief      Type definitions for the System Timer Registers.
 405:./Generated_Source/PSoC4/core_cm0.h ****   @{
ARM GAS  C:\DOCUME~1\Chuck\LOCALS~1\Temp\ccsYEGdP.s 			page 10


 406:./Generated_Source/PSoC4/core_cm0.h ****  */
 407:./Generated_Source/PSoC4/core_cm0.h **** 
 408:./Generated_Source/PSoC4/core_cm0.h **** /** \brief  Structure type to access the System Timer (SysTick).
 409:./Generated_Source/PSoC4/core_cm0.h ****  */
 410:./Generated_Source/PSoC4/core_cm0.h **** typedef struct
 411:./Generated_Source/PSoC4/core_cm0.h **** {
 412:./Generated_Source/PSoC4/core_cm0.h ****   __IO uint32_t CTRL;                    /*!< Offset: 0x000 (R/W)  SysTick Control and Status Regis
 413:./Generated_Source/PSoC4/core_cm0.h ****   __IO uint32_t LOAD;                    /*!< Offset: 0x004 (R/W)  SysTick Reload Value Register   
 414:./Generated_Source/PSoC4/core_cm0.h ****   __IO uint32_t VAL;                     /*!< Offset: 0x008 (R/W)  SysTick Current Value Register  
 415:./Generated_Source/PSoC4/core_cm0.h ****   __I  uint32_t CALIB;                   /*!< Offset: 0x00C (R/ )  SysTick Calibration Register    
 416:./Generated_Source/PSoC4/core_cm0.h **** } SysTick_Type;
 417:./Generated_Source/PSoC4/core_cm0.h **** 
 418:./Generated_Source/PSoC4/core_cm0.h **** /* SysTick Control / Status Register Definitions */
 419:./Generated_Source/PSoC4/core_cm0.h **** #define SysTick_CTRL_COUNTFLAG_Pos         16                                             /*!< SysT
 420:./Generated_Source/PSoC4/core_cm0.h **** #define SysTick_CTRL_COUNTFLAG_Msk         (1UL << SysTick_CTRL_COUNTFLAG_Pos)            /*!< SysT
 421:./Generated_Source/PSoC4/core_cm0.h **** 
 422:./Generated_Source/PSoC4/core_cm0.h **** #define SysTick_CTRL_CLKSOURCE_Pos          2                                             /*!< SysT
 423:./Generated_Source/PSoC4/core_cm0.h **** #define SysTick_CTRL_CLKSOURCE_Msk         (1UL << SysTick_CTRL_CLKSOURCE_Pos)            /*!< SysT
 424:./Generated_Source/PSoC4/core_cm0.h **** 
 425:./Generated_Source/PSoC4/core_cm0.h **** #define SysTick_CTRL_TICKINT_Pos            1                                             /*!< SysT
 426:./Generated_Source/PSoC4/core_cm0.h **** #define SysTick_CTRL_TICKINT_Msk           (1UL << SysTick_CTRL_TICKINT_Pos)              /*!< SysT
 427:./Generated_Source/PSoC4/core_cm0.h **** 
 428:./Generated_Source/PSoC4/core_cm0.h **** #define SysTick_CTRL_ENABLE_Pos             0                                             /*!< SysT
 429:./Generated_Source/PSoC4/core_cm0.h **** #define SysTick_CTRL_ENABLE_Msk            (1UL << SysTick_CTRL_ENABLE_Pos)               /*!< SysT
 430:./Generated_Source/PSoC4/core_cm0.h **** 
 431:./Generated_Source/PSoC4/core_cm0.h **** /* SysTick Reload Register Definitions */
 432:./Generated_Source/PSoC4/core_cm0.h **** #define SysTick_LOAD_RELOAD_Pos             0                                             /*!< SysT
 433:./Generated_Source/PSoC4/core_cm0.h **** #define SysTick_LOAD_RELOAD_Msk            (0xFFFFFFUL << SysTick_LOAD_RELOAD_Pos)        /*!< SysT
 434:./Generated_Source/PSoC4/core_cm0.h **** 
 435:./Generated_Source/PSoC4/core_cm0.h **** /* SysTick Current Register Definitions */
 436:./Generated_Source/PSoC4/core_cm0.h **** #define SysTick_VAL_CURRENT_Pos             0                                             /*!< SysT
 437:./Generated_Source/PSoC4/core_cm0.h **** #define SysTick_VAL_CURRENT_Msk            (0xFFFFFFUL << SysTick_VAL_CURRENT_Pos)        /*!< SysT
 438:./Generated_Source/PSoC4/core_cm0.h **** 
 439:./Generated_Source/PSoC4/core_cm0.h **** /* SysTick Calibration Register Definitions */
 440:./Generated_Source/PSoC4/core_cm0.h **** #define SysTick_CALIB_NOREF_Pos            31                                             /*!< SysT
 441:./Generated_Source/PSoC4/core_cm0.h **** #define SysTick_CALIB_NOREF_Msk            (1UL << SysTick_CALIB_NOREF_Pos)               /*!< SysT
 442:./Generated_Source/PSoC4/core_cm0.h **** 
 443:./Generated_Source/PSoC4/core_cm0.h **** #define SysTick_CALIB_SKEW_Pos             30                                             /*!< SysT
 444:./Generated_Source/PSoC4/core_cm0.h **** #define SysTick_CALIB_SKEW_Msk             (1UL << SysTick_CALIB_SKEW_Pos)                /*!< SysT
 445:./Generated_Source/PSoC4/core_cm0.h **** 
 446:./Generated_Source/PSoC4/core_cm0.h **** #define SysTick_CALIB_TENMS_Pos             0                                             /*!< SysT
 447:./Generated_Source/PSoC4/core_cm0.h **** #define SysTick_CALIB_TENMS_Msk            (0xFFFFFFUL << SysTick_VAL_CURRENT_Pos)        /*!< SysT
 448:./Generated_Source/PSoC4/core_cm0.h **** 
 449:./Generated_Source/PSoC4/core_cm0.h **** /*@} end of group CMSIS_SysTick */
 450:./Generated_Source/PSoC4/core_cm0.h **** 
 451:./Generated_Source/PSoC4/core_cm0.h **** 
 452:./Generated_Source/PSoC4/core_cm0.h **** /** \ingroup  CMSIS_core_register
 453:./Generated_Source/PSoC4/core_cm0.h ****     \defgroup CMSIS_CoreDebug       Core Debug Registers (CoreDebug)
 454:./Generated_Source/PSoC4/core_cm0.h ****     \brief      Cortex-M0 Core Debug Registers (DCB registers, SHCSR, and DFSR)
 455:./Generated_Source/PSoC4/core_cm0.h ****                 are only accessible over DAP and not via processor. Therefore
 456:./Generated_Source/PSoC4/core_cm0.h ****                 they are not covered by the Cortex-M0 header file.
 457:./Generated_Source/PSoC4/core_cm0.h ****   @{
 458:./Generated_Source/PSoC4/core_cm0.h ****  */
 459:./Generated_Source/PSoC4/core_cm0.h **** /*@} end of group CMSIS_CoreDebug */
 460:./Generated_Source/PSoC4/core_cm0.h **** 
 461:./Generated_Source/PSoC4/core_cm0.h **** 
 462:./Generated_Source/PSoC4/core_cm0.h **** /** \ingroup    CMSIS_core_register
ARM GAS  C:\DOCUME~1\Chuck\LOCALS~1\Temp\ccsYEGdP.s 			page 11


 463:./Generated_Source/PSoC4/core_cm0.h ****     \defgroup   CMSIS_core_base     Core Definitions
 464:./Generated_Source/PSoC4/core_cm0.h ****     \brief      Definitions for base addresses, unions, and structures.
 465:./Generated_Source/PSoC4/core_cm0.h ****   @{
 466:./Generated_Source/PSoC4/core_cm0.h ****  */
 467:./Generated_Source/PSoC4/core_cm0.h **** 
 468:./Generated_Source/PSoC4/core_cm0.h **** /* Memory mapping of Cortex-M0 Hardware */
 469:./Generated_Source/PSoC4/core_cm0.h **** #define SCS_BASE            (0xE000E000UL)                            /*!< System Control Space Bas
 470:./Generated_Source/PSoC4/core_cm0.h **** #define SysTick_BASE        (SCS_BASE +  0x0010UL)                    /*!< SysTick Base Address    
 471:./Generated_Source/PSoC4/core_cm0.h **** #define NVIC_BASE           (SCS_BASE +  0x0100UL)                    /*!< NVIC Base Address       
 472:./Generated_Source/PSoC4/core_cm0.h **** #define SCB_BASE            (SCS_BASE +  0x0D00UL)                    /*!< System Control Block Bas
 473:./Generated_Source/PSoC4/core_cm0.h **** 
 474:./Generated_Source/PSoC4/core_cm0.h **** #define SCB                 ((SCB_Type       *)     SCB_BASE      )   /*!< SCB configuration struct
 475:./Generated_Source/PSoC4/core_cm0.h **** #define SysTick             ((SysTick_Type   *)     SysTick_BASE  )   /*!< SysTick configuration st
 476:./Generated_Source/PSoC4/core_cm0.h **** #define NVIC                ((NVIC_Type      *)     NVIC_BASE     )   /*!< NVIC configuration struc
 477:./Generated_Source/PSoC4/core_cm0.h **** 
 478:./Generated_Source/PSoC4/core_cm0.h **** 
 479:./Generated_Source/PSoC4/core_cm0.h **** /*@} */
 480:./Generated_Source/PSoC4/core_cm0.h **** 
 481:./Generated_Source/PSoC4/core_cm0.h **** 
 482:./Generated_Source/PSoC4/core_cm0.h **** 
 483:./Generated_Source/PSoC4/core_cm0.h **** /*******************************************************************************
 484:./Generated_Source/PSoC4/core_cm0.h ****  *                Hardware Abstraction Layer
 485:./Generated_Source/PSoC4/core_cm0.h ****   Core Function Interface contains:
 486:./Generated_Source/PSoC4/core_cm0.h ****   - Core NVIC Functions
 487:./Generated_Source/PSoC4/core_cm0.h ****   - Core SysTick Functions
 488:./Generated_Source/PSoC4/core_cm0.h ****   - Core Register Access Functions
 489:./Generated_Source/PSoC4/core_cm0.h ****  ******************************************************************************/
 490:./Generated_Source/PSoC4/core_cm0.h **** /** \defgroup CMSIS_Core_FunctionInterface Functions and Instructions Reference
 491:./Generated_Source/PSoC4/core_cm0.h **** */
 492:./Generated_Source/PSoC4/core_cm0.h **** 
 493:./Generated_Source/PSoC4/core_cm0.h **** 
 494:./Generated_Source/PSoC4/core_cm0.h **** 
 495:./Generated_Source/PSoC4/core_cm0.h **** /* ##########################   NVIC functions  #################################### */
 496:./Generated_Source/PSoC4/core_cm0.h **** /** \ingroup  CMSIS_Core_FunctionInterface
 497:./Generated_Source/PSoC4/core_cm0.h ****     \defgroup CMSIS_Core_NVICFunctions NVIC Functions
 498:./Generated_Source/PSoC4/core_cm0.h ****     \brief      Functions that manage interrupts and exceptions via the NVIC.
 499:./Generated_Source/PSoC4/core_cm0.h ****     @{
 500:./Generated_Source/PSoC4/core_cm0.h ****  */
 501:./Generated_Source/PSoC4/core_cm0.h **** 
 502:./Generated_Source/PSoC4/core_cm0.h **** /* Interrupt Priorities are WORD accessible only under ARMv6M                   */
 503:./Generated_Source/PSoC4/core_cm0.h **** /* The following MACROS handle generation of the register offset and byte masks */
 504:./Generated_Source/PSoC4/core_cm0.h **** #define _BIT_SHIFT(IRQn)         (  (((uint32_t)(IRQn)       )    &  0x03) * 8 )
 505:./Generated_Source/PSoC4/core_cm0.h **** #define _SHP_IDX(IRQn)           ( ((((uint32_t)(IRQn) & 0x0F)-8) >>    2)     )
 506:./Generated_Source/PSoC4/core_cm0.h **** #define _IP_IDX(IRQn)            (   ((uint32_t)(IRQn)            >>    2)     )
 507:./Generated_Source/PSoC4/core_cm0.h **** 
 508:./Generated_Source/PSoC4/core_cm0.h **** 
 509:./Generated_Source/PSoC4/core_cm0.h **** /** \brief  Enable External Interrupt
 510:./Generated_Source/PSoC4/core_cm0.h **** 
 511:./Generated_Source/PSoC4/core_cm0.h ****     The function enables a device-specific interrupt in the NVIC interrupt controller.
 512:./Generated_Source/PSoC4/core_cm0.h **** 
 513:./Generated_Source/PSoC4/core_cm0.h ****     \param [in]      IRQn  External interrupt number. Value cannot be negative.
 514:./Generated_Source/PSoC4/core_cm0.h ****  */
 515:./Generated_Source/PSoC4/core_cm0.h **** __STATIC_INLINE void NVIC_EnableIRQ(IRQn_Type IRQn)
 516:./Generated_Source/PSoC4/core_cm0.h **** {
 517:./Generated_Source/PSoC4/core_cm0.h ****   NVIC->ISER[0] = (1 << ((uint32_t)(IRQn) & 0x1F));
 518:./Generated_Source/PSoC4/core_cm0.h **** }
 519:./Generated_Source/PSoC4/core_cm0.h **** 
ARM GAS  C:\DOCUME~1\Chuck\LOCALS~1\Temp\ccsYEGdP.s 			page 12


 520:./Generated_Source/PSoC4/core_cm0.h **** 
 521:./Generated_Source/PSoC4/core_cm0.h **** /** \brief  Disable External Interrupt
 522:./Generated_Source/PSoC4/core_cm0.h **** 
 523:./Generated_Source/PSoC4/core_cm0.h ****     The function disables a device-specific interrupt in the NVIC interrupt controller.
 524:./Generated_Source/PSoC4/core_cm0.h **** 
 525:./Generated_Source/PSoC4/core_cm0.h ****     \param [in]      IRQn  External interrupt number. Value cannot be negative.
 526:./Generated_Source/PSoC4/core_cm0.h ****  */
 527:./Generated_Source/PSoC4/core_cm0.h **** __STATIC_INLINE void NVIC_DisableIRQ(IRQn_Type IRQn)
 528:./Generated_Source/PSoC4/core_cm0.h **** {
 529:./Generated_Source/PSoC4/core_cm0.h ****   NVIC->ICER[0] = (1 << ((uint32_t)(IRQn) & 0x1F));
 530:./Generated_Source/PSoC4/core_cm0.h **** }
 531:./Generated_Source/PSoC4/core_cm0.h **** 
 532:./Generated_Source/PSoC4/core_cm0.h **** 
 533:./Generated_Source/PSoC4/core_cm0.h **** /** \brief  Get Pending Interrupt
 534:./Generated_Source/PSoC4/core_cm0.h **** 
 535:./Generated_Source/PSoC4/core_cm0.h ****     The function reads the pending register in the NVIC and returns the pending bit
 536:./Generated_Source/PSoC4/core_cm0.h ****     for the specified interrupt.
 537:./Generated_Source/PSoC4/core_cm0.h **** 
 538:./Generated_Source/PSoC4/core_cm0.h ****     \param [in]      IRQn  Interrupt number.
 539:./Generated_Source/PSoC4/core_cm0.h **** 
 540:./Generated_Source/PSoC4/core_cm0.h ****     \return             0  Interrupt status is not pending.
 541:./Generated_Source/PSoC4/core_cm0.h ****     \return             1  Interrupt status is pending.
 542:./Generated_Source/PSoC4/core_cm0.h ****  */
 543:./Generated_Source/PSoC4/core_cm0.h **** __STATIC_INLINE uint32_t NVIC_GetPendingIRQ(IRQn_Type IRQn)
 544:./Generated_Source/PSoC4/core_cm0.h **** {
 545:./Generated_Source/PSoC4/core_cm0.h ****   return((uint32_t) ((NVIC->ISPR[0] & (1 << ((uint32_t)(IRQn) & 0x1F)))?1:0));
 546:./Generated_Source/PSoC4/core_cm0.h **** }
 547:./Generated_Source/PSoC4/core_cm0.h **** 
 548:./Generated_Source/PSoC4/core_cm0.h **** 
 549:./Generated_Source/PSoC4/core_cm0.h **** /** \brief  Set Pending Interrupt
 550:./Generated_Source/PSoC4/core_cm0.h **** 
 551:./Generated_Source/PSoC4/core_cm0.h ****     The function sets the pending bit of an external interrupt.
 552:./Generated_Source/PSoC4/core_cm0.h **** 
 553:./Generated_Source/PSoC4/core_cm0.h ****     \param [in]      IRQn  Interrupt number. Value cannot be negative.
 554:./Generated_Source/PSoC4/core_cm0.h ****  */
 555:./Generated_Source/PSoC4/core_cm0.h **** __STATIC_INLINE void NVIC_SetPendingIRQ(IRQn_Type IRQn)
 556:./Generated_Source/PSoC4/core_cm0.h **** {
 557:./Generated_Source/PSoC4/core_cm0.h ****   NVIC->ISPR[0] = (1 << ((uint32_t)(IRQn) & 0x1F));
 558:./Generated_Source/PSoC4/core_cm0.h **** }
 559:./Generated_Source/PSoC4/core_cm0.h **** 
 560:./Generated_Source/PSoC4/core_cm0.h **** 
 561:./Generated_Source/PSoC4/core_cm0.h **** /** \brief  Clear Pending Interrupt
 562:./Generated_Source/PSoC4/core_cm0.h **** 
 563:./Generated_Source/PSoC4/core_cm0.h ****     The function clears the pending bit of an external interrupt.
 564:./Generated_Source/PSoC4/core_cm0.h **** 
 565:./Generated_Source/PSoC4/core_cm0.h ****     \param [in]      IRQn  External interrupt number. Value cannot be negative.
 566:./Generated_Source/PSoC4/core_cm0.h ****  */
 567:./Generated_Source/PSoC4/core_cm0.h **** __STATIC_INLINE void NVIC_ClearPendingIRQ(IRQn_Type IRQn)
 568:./Generated_Source/PSoC4/core_cm0.h **** {
 569:./Generated_Source/PSoC4/core_cm0.h ****   NVIC->ICPR[0] = (1 << ((uint32_t)(IRQn) & 0x1F)); /* Clear pending interrupt */
 570:./Generated_Source/PSoC4/core_cm0.h **** }
 571:./Generated_Source/PSoC4/core_cm0.h **** 
 572:./Generated_Source/PSoC4/core_cm0.h **** 
 573:./Generated_Source/PSoC4/core_cm0.h **** /** \brief  Set Interrupt Priority
 574:./Generated_Source/PSoC4/core_cm0.h **** 
 575:./Generated_Source/PSoC4/core_cm0.h ****     The function sets the priority of an interrupt.
 576:./Generated_Source/PSoC4/core_cm0.h **** 
ARM GAS  C:\DOCUME~1\Chuck\LOCALS~1\Temp\ccsYEGdP.s 			page 13


 577:./Generated_Source/PSoC4/core_cm0.h ****     \note The priority cannot be set for every core interrupt.
 578:./Generated_Source/PSoC4/core_cm0.h **** 
 579:./Generated_Source/PSoC4/core_cm0.h ****     \param [in]      IRQn  Interrupt number.
 580:./Generated_Source/PSoC4/core_cm0.h ****     \param [in]  priority  Priority to set.
 581:./Generated_Source/PSoC4/core_cm0.h ****  */
 582:./Generated_Source/PSoC4/core_cm0.h **** __STATIC_INLINE void NVIC_SetPriority(IRQn_Type IRQn, uint32_t priority)
 583:./Generated_Source/PSoC4/core_cm0.h **** {
  65              		.loc 2 583 0
  66              		.cfi_startproc
  67 0000 B0B5     		push	{r4, r5, r7, lr}
  68              	.LCFI2:
  69              		.cfi_def_cfa_offset 16
  70              		.cfi_offset 4, -16
  71              		.cfi_offset 5, -12
  72              		.cfi_offset 7, -8
  73              		.cfi_offset 14, -4
  74 0002 82B0     		sub	sp, sp, #8
  75              	.LCFI3:
  76              		.cfi_def_cfa_offset 24
  77 0004 00AF     		add	r7, sp, #0
  78              	.LCFI4:
  79              		.cfi_def_cfa_register 7
  80 0006 021C     		mov	r2, r0
  81 0008 3960     		str	r1, [r7]
  82 000a FB1D     		add	r3, r7, #7
  83 000c 1A70     		strb	r2, [r3]
 584:./Generated_Source/PSoC4/core_cm0.h ****   if(IRQn < 0) {
  84              		.loc 2 584 0
  85 000e FB1D     		add	r3, r7, #7
  86 0010 1B78     		ldrb	r3, [r3]
  87 0012 7F2B     		cmp	r3, #127
  88 0014 32D9     		bls	.L5
 585:./Generated_Source/PSoC4/core_cm0.h ****     SCB->SHP[_SHP_IDX(IRQn)] = (SCB->SHP[_SHP_IDX(IRQn)] & ~(0xFF << _BIT_SHIFT(IRQn))) |
  89              		.loc 2 585 0
  90 0016 3049     		ldr	r1, .L7
  91 0018 FB1D     		add	r3, r7, #7
  92 001a 1B78     		ldrb	r3, [r3]
  93 001c 1A1C     		mov	r2, r3
  94 001e 0F23     		mov	r3, #15
  95 0020 1340     		and	r3, r2
  96 0022 083B     		sub	r3, r3, #8
  97 0024 9808     		lsr	r0, r3, #2
 586:./Generated_Source/PSoC4/core_cm0.h ****         (((priority << (8 - __NVIC_PRIO_BITS)) & 0xFF) << _BIT_SHIFT(IRQn)); }
  98              		.loc 2 586 0
  99 0026 2C4A     		ldr	r2, .L7
 100 0028 FB1D     		add	r3, r7, #7
 101 002a 1B78     		ldrb	r3, [r3]
 102 002c 1C1C     		mov	r4, r3
 103 002e 0F23     		mov	r3, #15
 104 0030 2340     		and	r3, r4
 105 0032 083B     		sub	r3, r3, #8
 106 0034 9B08     		lsr	r3, r3, #2
 585:./Generated_Source/PSoC4/core_cm0.h ****     SCB->SHP[_SHP_IDX(IRQn)] = (SCB->SHP[_SHP_IDX(IRQn)] & ~(0xFF << _BIT_SHIFT(IRQn))) |
 107              		.loc 2 585 0
 108 0036 0633     		add	r3, r3, #6
 109 0038 9B00     		lsl	r3, r3, #2
 110 003a D318     		add	r3, r2, r3
ARM GAS  C:\DOCUME~1\Chuck\LOCALS~1\Temp\ccsYEGdP.s 			page 14


 111 003c 5B68     		ldr	r3, [r3, #4]
 112              		.loc 2 586 0
 113 003e FA1D     		add	r2, r7, #7
 114 0040 1278     		ldrb	r2, [r2]
 115 0042 141C     		mov	r4, r2
 116 0044 0322     		mov	r2, #3
 117 0046 2240     		and	r2, r4
 118 0048 D200     		lsl	r2, r2, #3
 119 004a FF24     		mov	r4, #255
 120 004c 251C     		mov	r5, r4
 121 004e 9540     		lsl	r5, r5, r2
 122 0050 2A1C     		mov	r2, r5
 123 0052 D243     		mvn	r2, r2
 124 0054 1A40     		and	r2, r3
 125 0056 3B68     		ldr	r3, [r7]
 126 0058 9C01     		lsl	r4, r3, #6
 127 005a FF23     		mov	r3, #255
 128 005c 1C40     		and	r4, r3
 129 005e FB1D     		add	r3, r7, #7
 130 0060 1B78     		ldrb	r3, [r3]
 131 0062 1D1C     		mov	r5, r3
 132 0064 0323     		mov	r3, #3
 133 0066 2B40     		and	r3, r5
 134 0068 DB00     		lsl	r3, r3, #3
 135 006a 251C     		mov	r5, r4
 136 006c 9D40     		lsl	r5, r5, r3
 137 006e 2B1C     		mov	r3, r5
 138 0070 1A43     		orr	r2, r3
 139 0072 831D     		add	r3, r0, #6
 140 0074 9B00     		lsl	r3, r3, #2
 141 0076 CB18     		add	r3, r1, r3
 142 0078 5A60     		str	r2, [r3, #4]
 143 007a 29E0     		b	.L4
 144              	.L5:
 587:./Generated_Source/PSoC4/core_cm0.h ****   else {
 588:./Generated_Source/PSoC4/core_cm0.h ****     NVIC->IP[_IP_IDX(IRQn)] = (NVIC->IP[_IP_IDX(IRQn)] & ~(0xFF << _BIT_SHIFT(IRQn))) |
 145              		.loc 2 588 0
 146 007c 174B     		ldr	r3, .L7+4
 147 007e FA1D     		add	r2, r7, #7
 148 0080 1278     		ldrb	r2, [r2]
 149 0082 52B2     		sxtb	r2, r2
 150 0084 9208     		lsr	r2, r2, #2
 589:./Generated_Source/PSoC4/core_cm0.h ****         (((priority << (8 - __NVIC_PRIO_BITS)) & 0xFF) << _BIT_SHIFT(IRQn)); }
 151              		.loc 2 589 0
 152 0086 1549     		ldr	r1, .L7+4
 153 0088 F81D     		add	r0, r7, #7
 154 008a 0078     		ldrb	r0, [r0]
 155 008c 40B2     		sxtb	r0, r0
 156 008e 8008     		lsr	r0, r0, #2
 588:./Generated_Source/PSoC4/core_cm0.h ****     NVIC->IP[_IP_IDX(IRQn)] = (NVIC->IP[_IP_IDX(IRQn)] & ~(0xFF << _BIT_SHIFT(IRQn))) |
 157              		.loc 2 588 0
 158 0090 C030     		add	r0, r0, #192
 159 0092 8000     		lsl	r0, r0, #2
 160 0094 4158     		ldr	r1, [r0, r1]
 161              		.loc 2 589 0
 162 0096 F81D     		add	r0, r7, #7
 163 0098 0078     		ldrb	r0, [r0]
ARM GAS  C:\DOCUME~1\Chuck\LOCALS~1\Temp\ccsYEGdP.s 			page 15


 164 009a 041C     		mov	r4, r0
 165 009c 0320     		mov	r0, #3
 166 009e 2040     		and	r0, r4
 167 00a0 C000     		lsl	r0, r0, #3
 168 00a2 FF24     		mov	r4, #255
 169 00a4 251C     		mov	r5, r4
 170 00a6 8540     		lsl	r5, r5, r0
 171 00a8 281C     		mov	r0, r5
 172 00aa C043     		mvn	r0, r0
 173 00ac 0840     		and	r0, r1
 174 00ae 3968     		ldr	r1, [r7]
 175 00b0 8C01     		lsl	r4, r1, #6
 176 00b2 FF21     		mov	r1, #255
 177 00b4 0C40     		and	r4, r1
 178 00b6 F91D     		add	r1, r7, #7
 179 00b8 0978     		ldrb	r1, [r1]
 180 00ba 0D1C     		mov	r5, r1
 181 00bc 0321     		mov	r1, #3
 182 00be 2940     		and	r1, r5
 183 00c0 C900     		lsl	r1, r1, #3
 184 00c2 251C     		mov	r5, r4
 185 00c4 8D40     		lsl	r5, r5, r1
 186 00c6 291C     		mov	r1, r5
 187 00c8 0143     		orr	r1, r0
 188 00ca C032     		add	r2, r2, #192
 189 00cc 9200     		lsl	r2, r2, #2
 190 00ce D150     		str	r1, [r2, r3]
 191              	.L4:
 590:./Generated_Source/PSoC4/core_cm0.h **** }
 192              		.loc 2 590 0
 193 00d0 BD46     		mov	sp, r7
 194 00d2 02B0     		add	sp, sp, #8
 195              		@ sp needed for prologue
 196 00d4 B0BD     		pop	{r4, r5, r7, pc}
 197              	.L8:
 198 00d6 C046     		.align	2
 199              	.L7:
 200 00d8 00ED00E0 		.word	-536810240
 201 00dc 00E100E0 		.word	-536813312
 202              		.cfi_endproc
 203              	.LFE134:
 204              		.size	NVIC_SetPriority, .-NVIC_SetPriority
 205              		.section	.text.SysTick_Config,"ax",%progbits
 206              		.align	2
 207              		.code	16
 208              		.thumb_func
 209              		.type	SysTick_Config, %function
 210              	SysTick_Config:
 211              	.LFB137:
 591:./Generated_Source/PSoC4/core_cm0.h **** 
 592:./Generated_Source/PSoC4/core_cm0.h **** 
 593:./Generated_Source/PSoC4/core_cm0.h **** /** \brief  Get Interrupt Priority
 594:./Generated_Source/PSoC4/core_cm0.h **** 
 595:./Generated_Source/PSoC4/core_cm0.h ****     The function reads the priority of an interrupt. The interrupt
 596:./Generated_Source/PSoC4/core_cm0.h ****     number can be positive to specify an external (device specific)
 597:./Generated_Source/PSoC4/core_cm0.h ****     interrupt, or negative to specify an internal (core) interrupt.
 598:./Generated_Source/PSoC4/core_cm0.h **** 
ARM GAS  C:\DOCUME~1\Chuck\LOCALS~1\Temp\ccsYEGdP.s 			page 16


 599:./Generated_Source/PSoC4/core_cm0.h **** 
 600:./Generated_Source/PSoC4/core_cm0.h ****     \param [in]   IRQn  Interrupt number.
 601:./Generated_Source/PSoC4/core_cm0.h ****     \return             Interrupt Priority. Value is aligned automatically to the implemented
 602:./Generated_Source/PSoC4/core_cm0.h ****                         priority bits of the microcontroller.
 603:./Generated_Source/PSoC4/core_cm0.h ****  */
 604:./Generated_Source/PSoC4/core_cm0.h **** __STATIC_INLINE uint32_t NVIC_GetPriority(IRQn_Type IRQn)
 605:./Generated_Source/PSoC4/core_cm0.h **** {
 606:./Generated_Source/PSoC4/core_cm0.h **** 
 607:./Generated_Source/PSoC4/core_cm0.h ****   if(IRQn < 0) {
 608:./Generated_Source/PSoC4/core_cm0.h ****     return((uint32_t)(((SCB->SHP[_SHP_IDX(IRQn)] >> _BIT_SHIFT(IRQn) ) & 0xFF) >> (8 - __NVIC_PRIO_
 609:./Generated_Source/PSoC4/core_cm0.h ****   else {
 610:./Generated_Source/PSoC4/core_cm0.h ****     return((uint32_t)(((NVIC->IP[ _IP_IDX(IRQn)] >> _BIT_SHIFT(IRQn) ) & 0xFF) >> (8 - __NVIC_PRIO_
 611:./Generated_Source/PSoC4/core_cm0.h **** }
 612:./Generated_Source/PSoC4/core_cm0.h **** 
 613:./Generated_Source/PSoC4/core_cm0.h **** 
 614:./Generated_Source/PSoC4/core_cm0.h **** /** \brief  System Reset
 615:./Generated_Source/PSoC4/core_cm0.h **** 
 616:./Generated_Source/PSoC4/core_cm0.h ****     The function initiates a system reset request to reset the MCU.
 617:./Generated_Source/PSoC4/core_cm0.h ****  */
 618:./Generated_Source/PSoC4/core_cm0.h **** __STATIC_INLINE void NVIC_SystemReset(void)
 619:./Generated_Source/PSoC4/core_cm0.h **** {
 620:./Generated_Source/PSoC4/core_cm0.h ****   __DSB();                                                     /* Ensure all outstanding memory acc
 621:./Generated_Source/PSoC4/core_cm0.h ****                                                                   buffered write are completed befo
 622:./Generated_Source/PSoC4/core_cm0.h ****   SCB->AIRCR  = ((0x5FA << SCB_AIRCR_VECTKEY_Pos)      |
 623:./Generated_Source/PSoC4/core_cm0.h ****                  SCB_AIRCR_SYSRESETREQ_Msk);
 624:./Generated_Source/PSoC4/core_cm0.h ****   __DSB();                                                     /* Ensure completion of memory acces
 625:./Generated_Source/PSoC4/core_cm0.h ****   while(1);                                                    /* wait until reset */
 626:./Generated_Source/PSoC4/core_cm0.h **** }
 627:./Generated_Source/PSoC4/core_cm0.h **** 
 628:./Generated_Source/PSoC4/core_cm0.h **** /*@} end of CMSIS_Core_NVICFunctions */
 629:./Generated_Source/PSoC4/core_cm0.h **** 
 630:./Generated_Source/PSoC4/core_cm0.h **** 
 631:./Generated_Source/PSoC4/core_cm0.h **** 
 632:./Generated_Source/PSoC4/core_cm0.h **** /* ##################################    SysTick function  ########################################
 633:./Generated_Source/PSoC4/core_cm0.h **** /** \ingroup  CMSIS_Core_FunctionInterface
 634:./Generated_Source/PSoC4/core_cm0.h ****     \defgroup CMSIS_Core_SysTickFunctions SysTick Functions
 635:./Generated_Source/PSoC4/core_cm0.h ****     \brief      Functions that configure the System.
 636:./Generated_Source/PSoC4/core_cm0.h ****   @{
 637:./Generated_Source/PSoC4/core_cm0.h ****  */
 638:./Generated_Source/PSoC4/core_cm0.h **** 
 639:./Generated_Source/PSoC4/core_cm0.h **** #if (__Vendor_SysTickConfig == 0)
 640:./Generated_Source/PSoC4/core_cm0.h **** 
 641:./Generated_Source/PSoC4/core_cm0.h **** /** \brief  System Tick Configuration
 642:./Generated_Source/PSoC4/core_cm0.h **** 
 643:./Generated_Source/PSoC4/core_cm0.h ****     The function initializes the System Timer and its interrupt, and starts the System Tick Timer.
 644:./Generated_Source/PSoC4/core_cm0.h ****     Counter is in free running mode to generate periodic interrupts.
 645:./Generated_Source/PSoC4/core_cm0.h **** 
 646:./Generated_Source/PSoC4/core_cm0.h ****     \param [in]  ticks  Number of ticks between two interrupts.
 647:./Generated_Source/PSoC4/core_cm0.h **** 
 648:./Generated_Source/PSoC4/core_cm0.h ****     \return          0  Function succeeded.
 649:./Generated_Source/PSoC4/core_cm0.h ****     \return          1  Function failed.
 650:./Generated_Source/PSoC4/core_cm0.h **** 
 651:./Generated_Source/PSoC4/core_cm0.h ****     \note     When the variable <b>__Vendor_SysTickConfig</b> is set to 1, then the
 652:./Generated_Source/PSoC4/core_cm0.h ****     function <b>SysTick_Config</b> is not included. In this case, the file <b><i>device</i>.h</b>
 653:./Generated_Source/PSoC4/core_cm0.h ****     must contain a vendor-specific implementation of this function.
 654:./Generated_Source/PSoC4/core_cm0.h **** 
 655:./Generated_Source/PSoC4/core_cm0.h ****  */
ARM GAS  C:\DOCUME~1\Chuck\LOCALS~1\Temp\ccsYEGdP.s 			page 17


 656:./Generated_Source/PSoC4/core_cm0.h **** __STATIC_INLINE uint32_t SysTick_Config(uint32_t ticks)
 657:./Generated_Source/PSoC4/core_cm0.h **** {
 212              		.loc 2 657 0
 213              		.cfi_startproc
 214 0000 80B5     		push	{r7, lr}
 215              	.LCFI5:
 216              		.cfi_def_cfa_offset 8
 217              		.cfi_offset 7, -8
 218              		.cfi_offset 14, -4
 219 0002 82B0     		sub	sp, sp, #8
 220              	.LCFI6:
 221              		.cfi_def_cfa_offset 16
 222 0004 00AF     		add	r7, sp, #0
 223              	.LCFI7:
 224              		.cfi_def_cfa_register 7
 225 0006 7860     		str	r0, [r7, #4]
 658:./Generated_Source/PSoC4/core_cm0.h ****   if ((ticks - 1) > SysTick_LOAD_RELOAD_Msk)  return (1);      /* Reload value impossible */
 226              		.loc 2 658 0
 227 0008 7B68     		ldr	r3, [r7, #4]
 228 000a 5A1E     		sub	r2, r3, #1
 229 000c 0C4B     		ldr	r3, .L12
 230 000e 9A42     		cmp	r2, r3
 231 0010 01D9     		bls	.L10
 232              		.loc 2 658 0 is_stmt 0 discriminator 1
 233 0012 0123     		mov	r3, #1
 234 0014 10E0     		b	.L11
 235              	.L10:
 659:./Generated_Source/PSoC4/core_cm0.h **** 
 660:./Generated_Source/PSoC4/core_cm0.h ****   SysTick->LOAD  = ticks - 1;                                  /* set reload register */
 236              		.loc 2 660 0 is_stmt 1
 237 0016 0B4B     		ldr	r3, .L12+4
 238 0018 7A68     		ldr	r2, [r7, #4]
 239 001a 013A     		sub	r2, r2, #1
 240 001c 5A60     		str	r2, [r3, #4]
 661:./Generated_Source/PSoC4/core_cm0.h ****   NVIC_SetPriority (SysTick_IRQn, (1<<__NVIC_PRIO_BITS) - 1);  /* set Priority for Systick Interrup
 241              		.loc 2 661 0
 242 001e 0123     		mov	r3, #1
 243 0020 5B42     		neg	r3, r3
 244 0022 181C     		mov	r0, r3
 245 0024 0321     		mov	r1, #3
 246 0026 FFF7FEFF 		bl	NVIC_SetPriority
 662:./Generated_Source/PSoC4/core_cm0.h ****   SysTick->VAL   = 0;                                          /* Load the SysTick Counter Value */
 247              		.loc 2 662 0
 248 002a 064B     		ldr	r3, .L12+4
 249 002c 0022     		mov	r2, #0
 250 002e 9A60     		str	r2, [r3, #8]
 663:./Generated_Source/PSoC4/core_cm0.h ****   SysTick->CTRL  = SysTick_CTRL_CLKSOURCE_Msk |
 664:./Generated_Source/PSoC4/core_cm0.h ****                    SysTick_CTRL_TICKINT_Msk   |
 665:./Generated_Source/PSoC4/core_cm0.h ****                    SysTick_CTRL_ENABLE_Msk;                    /* Enable SysTick IRQ and SysTick Ti
 251              		.loc 2 665 0
 252 0030 044B     		ldr	r3, .L12+4
 253 0032 0722     		mov	r2, #7
 254 0034 1A60     		str	r2, [r3]
 666:./Generated_Source/PSoC4/core_cm0.h ****   return (0);                                                  /* Function successful */
 255              		.loc 2 666 0
 256 0036 0023     		mov	r3, #0
 257              	.L11:
ARM GAS  C:\DOCUME~1\Chuck\LOCALS~1\Temp\ccsYEGdP.s 			page 18


 667:./Generated_Source/PSoC4/core_cm0.h **** }
 258              		.loc 2 667 0
 259 0038 181C     		mov	r0, r3
 260 003a BD46     		mov	sp, r7
 261 003c 02B0     		add	sp, sp, #8
 262              		@ sp needed for prologue
 263 003e 80BD     		pop	{r7, pc}
 264              	.L13:
 265              		.align	2
 266              	.L12:
 267 0040 FFFFFF00 		.word	16777215
 268 0044 10E000E0 		.word	-536813552
 269              		.cfi_endproc
 270              	.LFE137:
 271              		.size	SysTick_Config, .-SysTick_Config
 272              		.section	.text._Z4initv,"ax",%progbits
 273              		.align	2
 274              		.global	_Z4initv
 275              		.code	16
 276              		.thumb_func
 277              		.type	_Z4initv, %function
 278              	_Z4initv:
 279              	.LFB138:
 280              		.file 3 ".\\ros_lib\\init.cpp"
   1:.\ros_lib/init.cpp **** /* Clock initialization for PSoc4 "RosOnAStick"
   2:.\ros_lib/init.cpp ****  *
   3:.\ros_lib/init.cpp ****  * Copyright C. Harrison
   4:.\ros_lib/init.cpp ****  * BSD 2-clause license http://opensource.org/licenses/BSD-2-Clause
   5:.\ros_lib/init.cpp ****  *
   6:.\ros_lib/init.cpp ****  */
   7:.\ros_lib/init.cpp ****  
   8:.\ros_lib/init.cpp **** #include "ros.h"
   9:.\ros_lib/init.cpp **** #include "SysTimer.h"
  10:.\ros_lib/init.cpp **** extern "C" {
  11:.\ros_lib/init.cpp ****   #include "project.h"
  12:.\ros_lib/init.cpp **** }
  13:.\ros_lib/init.cpp **** 
  14:.\ros_lib/init.cpp **** void init(void)
  15:.\ros_lib/init.cpp **** {
 281              		.loc 3 15 0
 282              		.cfi_startproc
 283 0000 80B5     		push	{r7, lr}
 284              	.LCFI8:
 285              		.cfi_def_cfa_offset 8
 286              		.cfi_offset 7, -8
 287              		.cfi_offset 14, -4
 288 0002 00AF     		add	r7, sp, #0
 289              	.LCFI9:
 290              		.cfi_def_cfa_register 7
  16:.\ros_lib/init.cpp ****   SysTimer::init();
 291              		.loc 3 16 0
 292 0004 FFF7FEFF 		bl	_ZN8SysTimer4initEv
  17:.\ros_lib/init.cpp ****   SysTick_Config(CLOCK_FREQ / INTERRUPT_FREQ); /* defined in auto-generated core_cm0.h */
 293              		.loc 3 17 0
 294 0008 034B     		ldr	r3, .L15
 295 000a 181C     		mov	r0, r3
 296 000c FFF7FEFF 		bl	SysTick_Config
ARM GAS  C:\DOCUME~1\Chuck\LOCALS~1\Temp\ccsYEGdP.s 			page 19


  18:.\ros_lib/init.cpp **** 
  19:.\ros_lib/init.cpp ****   CyGlobalIntEnable;
 297              		.loc 3 19 0
 298              	@ 19 ".\ros_lib\init.cpp" 1
 299 0010 62B6     		CPSIE   i
 300              	@ 0 "" 2
  20:.\ros_lib/init.cpp **** }
 301              		.loc 3 20 0
 302              		.code	16
 303 0012 BD46     		mov	sp, r7
 304              		@ sp needed for prologue
 305 0014 80BD     		pop	{r7, pc}
 306              	.L16:
 307 0016 C046     		.align	2
 308              	.L15:
 309 0018 C05D0000 		.word	24000
 310              		.cfi_endproc
 311              	.LFE138:
 312              		.size	_Z4initv, .-_Z4initv
 313              		.section	.rodata
 314              		.align	2
 315              		.type	_ZN14rosserial_msgsL12REQUESTPARAME, %object
 316              		.size	_ZN14rosserial_msgsL12REQUESTPARAME, 28
 317              	_ZN14rosserial_msgsL12REQUESTPARAME:
 318 0000 726F7373 		.ascii	"rosserial_msgs/RequestParam\000"
 318      65726961 
 318      6C5F6D73 
 318      67732F52 
 318      65717565 
 319              		.text
 320              	.Letext0:
 321              		.file 4 "c:\\program files\\cypress\\psoc creator\\3.0\\psoc creator\\import\\gnu_cs\\arm\\4.7.3\\
 322              		.file 5 "./Generated_Source/PSoC4/core_cm0_psoc4.h"
 323              		.file 6 "./ros_lib/rosserial_msgs/RequestParam.h"
 324              		.file 7 ".\\ros_lib\\Uarts.h"
 325              		.file 8 "./ros_lib/ros/msg.h"
 326              		.file 9 "./ros_lib/rosserial_msgs/TopicInfo.h"