ARM GAS  C:\DOCUME~1\Chuck\LOCALS~1\Temp\ccKzHrOQ.s 			page 1


   1              		.cpu cortex-m0
   2              		.fpu softvfp
   3              		.eabi_attribute 20, 1
   4              		.eabi_attribute 21, 1
   5              		.eabi_attribute 23, 3
   6              		.eabi_attribute 24, 1
   7              		.eabi_attribute 25, 1
   8              		.eabi_attribute 26, 1
   9              		.eabi_attribute 30, 6
  10              		.eabi_attribute 34, 0
  11              		.eabi_attribute 18, 4
  12              		.code	16
  13              		.file	"Port0.c"
  14              		.text
  15              	.Ltext0:
  16              		.cfi_sections	.debug_frame
  17              		.section	.text.Port0_Write,"ax",%progbits
  18              		.align	2
  19              		.global	Port0_Write
  20              		.code	16
  21              		.thumb_func
  22              		.type	Port0_Write, %function
  23              	Port0_Write:
  24              	.LFB0:
  25              		.file 1 ".\\Generated_Source\\PSoC4\\Port0.c"
   1:.\Generated_Source\PSoC4/Port0.c **** /*******************************************************************************
   2:.\Generated_Source\PSoC4/Port0.c **** * File Name: Port0.c  
   3:.\Generated_Source\PSoC4/Port0.c **** * Version 2.0
   4:.\Generated_Source\PSoC4/Port0.c **** *
   5:.\Generated_Source\PSoC4/Port0.c **** * Description:
   6:.\Generated_Source\PSoC4/Port0.c **** *  This file contains API to enable firmware control of a Pins component.
   7:.\Generated_Source\PSoC4/Port0.c **** *
   8:.\Generated_Source\PSoC4/Port0.c **** * Note:
   9:.\Generated_Source\PSoC4/Port0.c **** *
  10:.\Generated_Source\PSoC4/Port0.c **** ********************************************************************************
  11:.\Generated_Source\PSoC4/Port0.c **** * Copyright 2008-2014, Cypress Semiconductor Corporation.  All rights reserved.
  12:.\Generated_Source\PSoC4/Port0.c **** * You may use this file only in accordance with the license, terms, conditions, 
  13:.\Generated_Source\PSoC4/Port0.c **** * disclaimers, and limitations in the end user license agreement accompanying 
  14:.\Generated_Source\PSoC4/Port0.c **** * the software package with which this file was provided.
  15:.\Generated_Source\PSoC4/Port0.c **** *******************************************************************************/
  16:.\Generated_Source\PSoC4/Port0.c **** 
  17:.\Generated_Source\PSoC4/Port0.c **** #include "cytypes.h"
  18:.\Generated_Source\PSoC4/Port0.c **** #include "Port0.h"
  19:.\Generated_Source\PSoC4/Port0.c **** 
  20:.\Generated_Source\PSoC4/Port0.c **** #define SetP4PinDriveMode(shift, mode)  \
  21:.\Generated_Source\PSoC4/Port0.c ****     do { \
  22:.\Generated_Source\PSoC4/Port0.c ****         Port0_PC =   (Port0_PC & \
  23:.\Generated_Source\PSoC4/Port0.c ****                                 (uint32)(~(uint32)(Port0_DRIVE_MODE_IND_MASK << (Port0_DRIVE_MODE_B
  24:.\Generated_Source\PSoC4/Port0.c ****                                 (uint32)((uint32)(mode) << (Port0_DRIVE_MODE_BITS * (shift))); \
  25:.\Generated_Source\PSoC4/Port0.c ****     } while (0)
  26:.\Generated_Source\PSoC4/Port0.c **** 
  27:.\Generated_Source\PSoC4/Port0.c **** 
  28:.\Generated_Source\PSoC4/Port0.c **** /*******************************************************************************
  29:.\Generated_Source\PSoC4/Port0.c **** * Function Name: Port0_Write
  30:.\Generated_Source\PSoC4/Port0.c **** ********************************************************************************
  31:.\Generated_Source\PSoC4/Port0.c **** *
  32:.\Generated_Source\PSoC4/Port0.c **** * Summary:
ARM GAS  C:\DOCUME~1\Chuck\LOCALS~1\Temp\ccKzHrOQ.s 			page 2


  33:.\Generated_Source\PSoC4/Port0.c **** *  Assign a new value to the digital port's data output register.  
  34:.\Generated_Source\PSoC4/Port0.c **** *
  35:.\Generated_Source\PSoC4/Port0.c **** * Parameters:  
  36:.\Generated_Source\PSoC4/Port0.c **** *  prtValue:  The value to be assigned to the Digital Port. 
  37:.\Generated_Source\PSoC4/Port0.c **** *
  38:.\Generated_Source\PSoC4/Port0.c **** * Return: 
  39:.\Generated_Source\PSoC4/Port0.c **** *  None 
  40:.\Generated_Source\PSoC4/Port0.c **** *  
  41:.\Generated_Source\PSoC4/Port0.c **** *******************************************************************************/
  42:.\Generated_Source\PSoC4/Port0.c **** void Port0_Write(uint8 value) 
  43:.\Generated_Source\PSoC4/Port0.c **** {
  26              		.loc 1 43 0
  27              		.cfi_startproc
  28 0000 80B5     		push	{r7, lr}
  29              	.LCFI0:
  30              		.cfi_def_cfa_offset 8
  31              		.cfi_offset 7, -8
  32              		.cfi_offset 14, -4
  33 0002 84B0     		sub	sp, sp, #16
  34              	.LCFI1:
  35              		.cfi_def_cfa_offset 24
  36 0004 00AF     		add	r7, sp, #0
  37              	.LCFI2:
  38              		.cfi_def_cfa_register 7
  39 0006 021C     		mov	r2, r0
  40 0008 FB1D     		add	r3, r7, #7
  41 000a 1A70     		strb	r2, [r3]
  44:.\Generated_Source\PSoC4/Port0.c ****     uint8 drVal = (uint8)(Port0_DR & (uint8)(~Port0_MASK));
  42              		.loc 1 44 0
  43 000c 0B4B     		ldr	r3, .L2
  44 000e 1B68     		ldr	r3, [r3]
  45 0010 3B1C     		mov	r3, r7
  46 0012 0F33     		add	r3, r3, #15
  47 0014 0022     		mov	r2, #0
  48 0016 1A70     		strb	r2, [r3]
  45:.\Generated_Source\PSoC4/Port0.c ****     drVal = (drVal | ((uint8)(value << Port0_SHIFT) & Port0_MASK));
  49              		.loc 1 45 0
  50 0018 3B1C     		mov	r3, r7
  51 001a 0F33     		add	r3, r3, #15
  52 001c 391C     		mov	r1, r7
  53 001e 0F31     		add	r1, r1, #15
  54 0020 FA1D     		add	r2, r7, #7
  55 0022 0978     		ldrb	r1, [r1]
  56 0024 1278     		ldrb	r2, [r2]
  57 0026 0A43     		orr	r2, r1
  58 0028 1A70     		strb	r2, [r3]
  46:.\Generated_Source\PSoC4/Port0.c ****     Port0_DR = (uint32)drVal;
  59              		.loc 1 46 0
  60 002a 044B     		ldr	r3, .L2
  61 002c 3A1C     		mov	r2, r7
  62 002e 0F32     		add	r2, r2, #15
  63 0030 1278     		ldrb	r2, [r2]
  64 0032 1A60     		str	r2, [r3]
  47:.\Generated_Source\PSoC4/Port0.c **** }
  65              		.loc 1 47 0
  66 0034 BD46     		mov	sp, r7
  67 0036 04B0     		add	sp, sp, #16
ARM GAS  C:\DOCUME~1\Chuck\LOCALS~1\Temp\ccKzHrOQ.s 			page 3


  68              		@ sp needed for prologue
  69 0038 80BD     		pop	{r7, pc}
  70              	.L3:
  71 003a C046     		.align	2
  72              	.L2:
  73 003c 00000440 		.word	1074003968
  74              		.cfi_endproc
  75              	.LFE0:
  76              		.size	Port0_Write, .-Port0_Write
  77              		.section	.text.Port0_SetDriveMode,"ax",%progbits
  78              		.align	2
  79              		.global	Port0_SetDriveMode
  80              		.code	16
  81              		.thumb_func
  82              		.type	Port0_SetDriveMode, %function
  83              	Port0_SetDriveMode:
  84              	.LFB1:
  48:.\Generated_Source\PSoC4/Port0.c **** 
  49:.\Generated_Source\PSoC4/Port0.c **** 
  50:.\Generated_Source\PSoC4/Port0.c **** /*******************************************************************************
  51:.\Generated_Source\PSoC4/Port0.c **** * Function Name: Port0_SetDriveMode
  52:.\Generated_Source\PSoC4/Port0.c **** ********************************************************************************
  53:.\Generated_Source\PSoC4/Port0.c **** *
  54:.\Generated_Source\PSoC4/Port0.c **** * Summary:
  55:.\Generated_Source\PSoC4/Port0.c **** *  Change the drive mode on the pins of the port.
  56:.\Generated_Source\PSoC4/Port0.c **** * 
  57:.\Generated_Source\PSoC4/Port0.c **** * Parameters:  
  58:.\Generated_Source\PSoC4/Port0.c **** *  mode:  Change the pins to one of the following drive modes.
  59:.\Generated_Source\PSoC4/Port0.c **** *
  60:.\Generated_Source\PSoC4/Port0.c **** *  Port0_DM_STRONG     Strong Drive 
  61:.\Generated_Source\PSoC4/Port0.c **** *  Port0_DM_OD_HI      Open Drain, Drives High 
  62:.\Generated_Source\PSoC4/Port0.c **** *  Port0_DM_OD_LO      Open Drain, Drives Low 
  63:.\Generated_Source\PSoC4/Port0.c **** *  Port0_DM_RES_UP     Resistive Pull Up 
  64:.\Generated_Source\PSoC4/Port0.c **** *  Port0_DM_RES_DWN    Resistive Pull Down 
  65:.\Generated_Source\PSoC4/Port0.c **** *  Port0_DM_RES_UPDWN  Resistive Pull Up/Down 
  66:.\Generated_Source\PSoC4/Port0.c **** *  Port0_DM_DIG_HIZ    High Impedance Digital 
  67:.\Generated_Source\PSoC4/Port0.c **** *  Port0_DM_ALG_HIZ    High Impedance Analog 
  68:.\Generated_Source\PSoC4/Port0.c **** *
  69:.\Generated_Source\PSoC4/Port0.c **** * Return: 
  70:.\Generated_Source\PSoC4/Port0.c **** *  None
  71:.\Generated_Source\PSoC4/Port0.c **** *
  72:.\Generated_Source\PSoC4/Port0.c **** *******************************************************************************/
  73:.\Generated_Source\PSoC4/Port0.c **** void Port0_SetDriveMode(uint8 mode) 
  74:.\Generated_Source\PSoC4/Port0.c **** {
  85              		.loc 1 74 0
  86              		.cfi_startproc
  87 0000 80B5     		push	{r7, lr}
  88              	.LCFI3:
  89              		.cfi_def_cfa_offset 8
  90              		.cfi_offset 7, -8
  91              		.cfi_offset 14, -4
  92 0002 82B0     		sub	sp, sp, #8
  93              	.LCFI4:
  94              		.cfi_def_cfa_offset 16
  95 0004 00AF     		add	r7, sp, #0
  96              	.LCFI5:
  97              		.cfi_def_cfa_register 7
ARM GAS  C:\DOCUME~1\Chuck\LOCALS~1\Temp\ccKzHrOQ.s 			page 4


  98 0006 021C     		mov	r2, r0
  99 0008 FB1D     		add	r3, r7, #7
 100 000a 1A70     		strb	r2, [r3]
  75:.\Generated_Source\PSoC4/Port0.c **** 	SetP4PinDriveMode(Port0__0__SHIFT, mode);
 101              		.loc 1 75 0
 102 000c 2A4B     		ldr	r3, .L5
 103 000e 2A4A     		ldr	r2, .L5
 104 0010 1268     		ldr	r2, [r2]
 105 0012 0721     		mov	r1, #7
 106 0014 101C     		mov	r0, r2
 107 0016 8843     		bic	r0, r1
 108 0018 011C     		mov	r1, r0
 109 001a FA1D     		add	r2, r7, #7
 110 001c 1278     		ldrb	r2, [r2]
 111 001e 0A43     		orr	r2, r1
 112 0020 1A60     		str	r2, [r3]
  76:.\Generated_Source\PSoC4/Port0.c **** 	SetP4PinDriveMode(Port0__1__SHIFT, mode);
 113              		.loc 1 76 0
 114 0022 254B     		ldr	r3, .L5
 115 0024 244A     		ldr	r2, .L5
 116 0026 1268     		ldr	r2, [r2]
 117 0028 3821     		mov	r1, #56
 118 002a 101C     		mov	r0, r2
 119 002c 8843     		bic	r0, r1
 120 002e 011C     		mov	r1, r0
 121 0030 FA1D     		add	r2, r7, #7
 122 0032 1278     		ldrb	r2, [r2]
 123 0034 D200     		lsl	r2, r2, #3
 124 0036 0A43     		orr	r2, r1
 125 0038 1A60     		str	r2, [r3]
  77:.\Generated_Source\PSoC4/Port0.c **** 	SetP4PinDriveMode(Port0__2__SHIFT, mode);
 126              		.loc 1 77 0
 127 003a 1F4B     		ldr	r3, .L5
 128 003c 1E4A     		ldr	r2, .L5
 129 003e 1168     		ldr	r1, [r2]
 130 0040 1E4A     		ldr	r2, .L5+4
 131 0042 1140     		and	r1, r2
 132 0044 FA1D     		add	r2, r7, #7
 133 0046 1278     		ldrb	r2, [r2]
 134 0048 9201     		lsl	r2, r2, #6
 135 004a 0A43     		orr	r2, r1
 136 004c 1A60     		str	r2, [r3]
  78:.\Generated_Source\PSoC4/Port0.c **** 	SetP4PinDriveMode(Port0__3__SHIFT, mode);
 137              		.loc 1 78 0
 138 004e 1A4B     		ldr	r3, .L5
 139 0050 194A     		ldr	r2, .L5
 140 0052 1168     		ldr	r1, [r2]
 141 0054 1A4A     		ldr	r2, .L5+8
 142 0056 1140     		and	r1, r2
 143 0058 FA1D     		add	r2, r7, #7
 144 005a 1278     		ldrb	r2, [r2]
 145 005c 5202     		lsl	r2, r2, #9
 146 005e 0A43     		orr	r2, r1
 147 0060 1A60     		str	r2, [r3]
  79:.\Generated_Source\PSoC4/Port0.c **** 	SetP4PinDriveMode(Port0__4__SHIFT, mode);
 148              		.loc 1 79 0
 149 0062 154B     		ldr	r3, .L5
ARM GAS  C:\DOCUME~1\Chuck\LOCALS~1\Temp\ccKzHrOQ.s 			page 5


 150 0064 144A     		ldr	r2, .L5
 151 0066 1168     		ldr	r1, [r2]
 152 0068 164A     		ldr	r2, .L5+12
 153 006a 1140     		and	r1, r2
 154 006c FA1D     		add	r2, r7, #7
 155 006e 1278     		ldrb	r2, [r2]
 156 0070 1203     		lsl	r2, r2, #12
 157 0072 0A43     		orr	r2, r1
 158 0074 1A60     		str	r2, [r3]
  80:.\Generated_Source\PSoC4/Port0.c **** 	SetP4PinDriveMode(Port0__5__SHIFT, mode);
 159              		.loc 1 80 0
 160 0076 104B     		ldr	r3, .L5
 161 0078 0F4A     		ldr	r2, .L5
 162 007a 1168     		ldr	r1, [r2]
 163 007c 124A     		ldr	r2, .L5+16
 164 007e 1140     		and	r1, r2
 165 0080 FA1D     		add	r2, r7, #7
 166 0082 1278     		ldrb	r2, [r2]
 167 0084 D203     		lsl	r2, r2, #15
 168 0086 0A43     		orr	r2, r1
 169 0088 1A60     		str	r2, [r3]
  81:.\Generated_Source\PSoC4/Port0.c **** 	SetP4PinDriveMode(Port0__6__SHIFT, mode);
 170              		.loc 1 81 0
 171 008a 0B4B     		ldr	r3, .L5
 172 008c 0A4A     		ldr	r2, .L5
 173 008e 1168     		ldr	r1, [r2]
 174 0090 0E4A     		ldr	r2, .L5+20
 175 0092 1140     		and	r1, r2
 176 0094 FA1D     		add	r2, r7, #7
 177 0096 1278     		ldrb	r2, [r2]
 178 0098 9204     		lsl	r2, r2, #18
 179 009a 0A43     		orr	r2, r1
 180 009c 1A60     		str	r2, [r3]
  82:.\Generated_Source\PSoC4/Port0.c **** 	SetP4PinDriveMode(Port0__7__SHIFT, mode);
 181              		.loc 1 82 0
 182 009e 064B     		ldr	r3, .L5
 183 00a0 054A     		ldr	r2, .L5
 184 00a2 1168     		ldr	r1, [r2]
 185 00a4 0A4A     		ldr	r2, .L5+24
 186 00a6 1140     		and	r1, r2
 187 00a8 FA1D     		add	r2, r7, #7
 188 00aa 1278     		ldrb	r2, [r2]
 189 00ac 5205     		lsl	r2, r2, #21
 190 00ae 0A43     		orr	r2, r1
 191 00b0 1A60     		str	r2, [r3]
  83:.\Generated_Source\PSoC4/Port0.c **** }
 192              		.loc 1 83 0
 193 00b2 BD46     		mov	sp, r7
 194 00b4 02B0     		add	sp, sp, #8
 195              		@ sp needed for prologue
 196 00b6 80BD     		pop	{r7, pc}
 197              	.L6:
 198              		.align	2
 199              	.L5:
 200 00b8 08000440 		.word	1074003976
 201 00bc 3FFEFFFF 		.word	-449
 202 00c0 FFF1FFFF 		.word	-3585
ARM GAS  C:\DOCUME~1\Chuck\LOCALS~1\Temp\ccKzHrOQ.s 			page 6


 203 00c4 FF8FFFFF 		.word	-28673
 204 00c8 FF7FFCFF 		.word	-229377
 205 00cc FFFFE3FF 		.word	-1835009
 206 00d0 FFFF1FFF 		.word	-14680065
 207              		.cfi_endproc
 208              	.LFE1:
 209              		.size	Port0_SetDriveMode, .-Port0_SetDriveMode
 210              		.section	.text.Port0_Read,"ax",%progbits
 211              		.align	2
 212              		.global	Port0_Read
 213              		.code	16
 214              		.thumb_func
 215              		.type	Port0_Read, %function
 216              	Port0_Read:
 217              	.LFB2:
  84:.\Generated_Source\PSoC4/Port0.c **** 
  85:.\Generated_Source\PSoC4/Port0.c **** 
  86:.\Generated_Source\PSoC4/Port0.c **** /*******************************************************************************
  87:.\Generated_Source\PSoC4/Port0.c **** * Function Name: Port0_Read
  88:.\Generated_Source\PSoC4/Port0.c **** ********************************************************************************
  89:.\Generated_Source\PSoC4/Port0.c **** *
  90:.\Generated_Source\PSoC4/Port0.c **** * Summary:
  91:.\Generated_Source\PSoC4/Port0.c **** *  Read the current value on the pins of the Digital Port in right justified 
  92:.\Generated_Source\PSoC4/Port0.c **** *  form.
  93:.\Generated_Source\PSoC4/Port0.c **** *
  94:.\Generated_Source\PSoC4/Port0.c **** * Parameters:  
  95:.\Generated_Source\PSoC4/Port0.c **** *  None 
  96:.\Generated_Source\PSoC4/Port0.c **** *
  97:.\Generated_Source\PSoC4/Port0.c **** * Return: 
  98:.\Generated_Source\PSoC4/Port0.c **** *  Returns the current value of the Digital Port as a right justified number
  99:.\Generated_Source\PSoC4/Port0.c **** *  
 100:.\Generated_Source\PSoC4/Port0.c **** * Note:
 101:.\Generated_Source\PSoC4/Port0.c **** *  Macro Port0_ReadPS calls this function. 
 102:.\Generated_Source\PSoC4/Port0.c **** *  
 103:.\Generated_Source\PSoC4/Port0.c **** *******************************************************************************/
 104:.\Generated_Source\PSoC4/Port0.c **** uint8 Port0_Read(void) 
 105:.\Generated_Source\PSoC4/Port0.c **** {
 218              		.loc 1 105 0
 219              		.cfi_startproc
 220 0000 80B5     		push	{r7, lr}
 221              	.LCFI6:
 222              		.cfi_def_cfa_offset 8
 223              		.cfi_offset 7, -8
 224              		.cfi_offset 14, -4
 225 0002 00AF     		add	r7, sp, #0
 226              	.LCFI7:
 227              		.cfi_def_cfa_register 7
 106:.\Generated_Source\PSoC4/Port0.c ****     return (uint8)((Port0_PS & Port0_MASK) >> Port0_SHIFT);
 228              		.loc 1 106 0
 229 0004 024B     		ldr	r3, .L9
 230 0006 1B68     		ldr	r3, [r3]
 231 0008 DBB2     		uxtb	r3, r3
 107:.\Generated_Source\PSoC4/Port0.c **** }
 232              		.loc 1 107 0
 233 000a 181C     		mov	r0, r3
 234 000c BD46     		mov	sp, r7
 235              		@ sp needed for prologue
ARM GAS  C:\DOCUME~1\Chuck\LOCALS~1\Temp\ccKzHrOQ.s 			page 7


 236 000e 80BD     		pop	{r7, pc}
 237              	.L10:
 238              		.align	2
 239              	.L9:
 240 0010 04000440 		.word	1074003972
 241              		.cfi_endproc
 242              	.LFE2:
 243              		.size	Port0_Read, .-Port0_Read
 244              		.section	.text.Port0_ReadDataReg,"ax",%progbits
 245              		.align	2
 246              		.global	Port0_ReadDataReg
 247              		.code	16
 248              		.thumb_func
 249              		.type	Port0_ReadDataReg, %function
 250              	Port0_ReadDataReg:
 251              	.LFB3:
 108:.\Generated_Source\PSoC4/Port0.c **** 
 109:.\Generated_Source\PSoC4/Port0.c **** 
 110:.\Generated_Source\PSoC4/Port0.c **** /*******************************************************************************
 111:.\Generated_Source\PSoC4/Port0.c **** * Function Name: Port0_ReadDataReg
 112:.\Generated_Source\PSoC4/Port0.c **** ********************************************************************************
 113:.\Generated_Source\PSoC4/Port0.c **** *
 114:.\Generated_Source\PSoC4/Port0.c **** * Summary:
 115:.\Generated_Source\PSoC4/Port0.c **** *  Read the current value assigned to a Digital Port's data output register
 116:.\Generated_Source\PSoC4/Port0.c **** *
 117:.\Generated_Source\PSoC4/Port0.c **** * Parameters:  
 118:.\Generated_Source\PSoC4/Port0.c **** *  None 
 119:.\Generated_Source\PSoC4/Port0.c **** *
 120:.\Generated_Source\PSoC4/Port0.c **** * Return: 
 121:.\Generated_Source\PSoC4/Port0.c **** *  Returns the current value assigned to the Digital Port's data output register
 122:.\Generated_Source\PSoC4/Port0.c **** *  
 123:.\Generated_Source\PSoC4/Port0.c **** *******************************************************************************/
 124:.\Generated_Source\PSoC4/Port0.c **** uint8 Port0_ReadDataReg(void) 
 125:.\Generated_Source\PSoC4/Port0.c **** {
 252              		.loc 1 125 0
 253              		.cfi_startproc
 254 0000 80B5     		push	{r7, lr}
 255              	.LCFI8:
 256              		.cfi_def_cfa_offset 8
 257              		.cfi_offset 7, -8
 258              		.cfi_offset 14, -4
 259 0002 00AF     		add	r7, sp, #0
 260              	.LCFI9:
 261              		.cfi_def_cfa_register 7
 126:.\Generated_Source\PSoC4/Port0.c ****     return (uint8)((Port0_DR & Port0_MASK) >> Port0_SHIFT);
 262              		.loc 1 126 0
 263 0004 024B     		ldr	r3, .L13
 264 0006 1B68     		ldr	r3, [r3]
 265 0008 DBB2     		uxtb	r3, r3
 127:.\Generated_Source\PSoC4/Port0.c **** }
 266              		.loc 1 127 0
 267 000a 181C     		mov	r0, r3
 268 000c BD46     		mov	sp, r7
 269              		@ sp needed for prologue
 270 000e 80BD     		pop	{r7, pc}
 271              	.L14:
 272              		.align	2
ARM GAS  C:\DOCUME~1\Chuck\LOCALS~1\Temp\ccKzHrOQ.s 			page 8


 273              	.L13:
 274 0010 00000440 		.word	1074003968
 275              		.cfi_endproc
 276              	.LFE3:
 277              		.size	Port0_ReadDataReg, .-Port0_ReadDataReg
 278              		.section	.text.Port0_ClearInterrupt,"ax",%progbits
 279              		.align	2
 280              		.global	Port0_ClearInterrupt
 281              		.code	16
 282              		.thumb_func
 283              		.type	Port0_ClearInterrupt, %function
 284              	Port0_ClearInterrupt:
 285              	.LFB4:
 128:.\Generated_Source\PSoC4/Port0.c **** 
 129:.\Generated_Source\PSoC4/Port0.c **** 
 130:.\Generated_Source\PSoC4/Port0.c **** /* If Interrupts Are Enabled for this Pins component */ 
 131:.\Generated_Source\PSoC4/Port0.c **** #if defined(Port0_INTSTAT) 
 132:.\Generated_Source\PSoC4/Port0.c **** 
 133:.\Generated_Source\PSoC4/Port0.c ****     /*******************************************************************************
 134:.\Generated_Source\PSoC4/Port0.c ****     * Function Name: Port0_ClearInterrupt
 135:.\Generated_Source\PSoC4/Port0.c ****     ********************************************************************************
 136:.\Generated_Source\PSoC4/Port0.c ****     *
 137:.\Generated_Source\PSoC4/Port0.c ****     * Summary:
 138:.\Generated_Source\PSoC4/Port0.c ****     *  Clears any active interrupts attached to port and returns the value of the 
 139:.\Generated_Source\PSoC4/Port0.c ****     *  interrupt status register.
 140:.\Generated_Source\PSoC4/Port0.c ****     *
 141:.\Generated_Source\PSoC4/Port0.c ****     * Parameters:  
 142:.\Generated_Source\PSoC4/Port0.c ****     *  None 
 143:.\Generated_Source\PSoC4/Port0.c ****     *
 144:.\Generated_Source\PSoC4/Port0.c ****     * Return: 
 145:.\Generated_Source\PSoC4/Port0.c ****     *  Returns the value of the interrupt status register
 146:.\Generated_Source\PSoC4/Port0.c ****     *  
 147:.\Generated_Source\PSoC4/Port0.c ****     *******************************************************************************/
 148:.\Generated_Source\PSoC4/Port0.c ****     uint8 Port0_ClearInterrupt(void) 
 149:.\Generated_Source\PSoC4/Port0.c ****     {
 286              		.loc 1 149 0
 287              		.cfi_startproc
 288 0000 80B5     		push	{r7, lr}
 289              	.LCFI10:
 290              		.cfi_def_cfa_offset 8
 291              		.cfi_offset 7, -8
 292              		.cfi_offset 14, -4
 293 0002 82B0     		sub	sp, sp, #8
 294              	.LCFI11:
 295              		.cfi_def_cfa_offset 16
 296 0004 00AF     		add	r7, sp, #0
 297              	.LCFI12:
 298              		.cfi_def_cfa_register 7
 150:.\Generated_Source\PSoC4/Port0.c **** 		uint8 maskedStatus = (uint8)(Port0_INTSTAT & Port0_MASK);
 299              		.loc 1 150 0
 300 0006 074B     		ldr	r3, .L17
 301 0008 1A68     		ldr	r2, [r3]
 302 000a FB1D     		add	r3, r7, #7
 303 000c 1A70     		strb	r2, [r3]
 151:.\Generated_Source\PSoC4/Port0.c **** 		Port0_INTSTAT = maskedStatus;
 304              		.loc 1 151 0
 305 000e 054B     		ldr	r3, .L17
ARM GAS  C:\DOCUME~1\Chuck\LOCALS~1\Temp\ccKzHrOQ.s 			page 9


 306 0010 FA1D     		add	r2, r7, #7
 307 0012 1278     		ldrb	r2, [r2]
 308 0014 1A60     		str	r2, [r3]
 152:.\Generated_Source\PSoC4/Port0.c ****         return maskedStatus >> Port0_SHIFT;
 309              		.loc 1 152 0
 310 0016 FB1D     		add	r3, r7, #7
 311 0018 1B78     		ldrb	r3, [r3]
 153:.\Generated_Source\PSoC4/Port0.c ****     }
 312              		.loc 1 153 0
 313 001a 181C     		mov	r0, r3
 314 001c BD46     		mov	sp, r7
 315 001e 02B0     		add	sp, sp, #8
 316              		@ sp needed for prologue
 317 0020 80BD     		pop	{r7, pc}
 318              	.L18:
 319 0022 C046     		.align	2
 320              	.L17:
 321 0024 10000440 		.word	1074003984
 322              		.cfi_endproc
 323              	.LFE4:
 324              		.size	Port0_ClearInterrupt, .-Port0_ClearInterrupt
 325              		.text
 326              	.Letext0:
 327              		.file 2 ".\\Generated_Source\\PSoC4\\cytypes.h"