ARM GAS  C:\DOCUME~1\Chuck\LOCALS~1\Temp\ccd20y4e.s 			page 1


   1              		.cpu cortex-m0
   2              		.fpu softvfp
   3              		.eabi_attribute 20, 1
   4              		.eabi_attribute 21, 1
   5              		.eabi_attribute 23, 3
   6              		.eabi_attribute 24, 1
   7              		.eabi_attribute 25, 1
   8              		.eabi_attribute 26, 1
   9              		.eabi_attribute 30, 6
  10              		.eabi_attribute 34, 0
  11              		.eabi_attribute 18, 4
  12              		.code	16
  13              		.file	"QuadDec_1.c"
  14              		.text
  15              	.Ltext0:
  16              		.cfi_sections	.debug_frame
  17              		.global	QuadDec_1_initVar
  18              		.bss
  19              		.type	QuadDec_1_initVar, %object
  20              		.size	QuadDec_1_initVar, 1
  21              	QuadDec_1_initVar:
  22 0000 00       		.space	1
  23              		.section	.text.QuadDec_1_Init,"ax",%progbits
  24              		.align	2
  25              		.global	QuadDec_1_Init
  26              		.code	16
  27              		.thumb_func
  28              		.type	QuadDec_1_Init, %function
  29              	QuadDec_1_Init:
  30              	.LFB0:
  31              		.file 1 ".\\Generated_Source\\PSoC4\\QuadDec_1.c"
   1:.\Generated_Source\PSoC4/QuadDec_1.c **** /*******************************************************************************
   2:.\Generated_Source\PSoC4/QuadDec_1.c **** * File Name: QuadDec_1.c
   3:.\Generated_Source\PSoC4/QuadDec_1.c **** * Version 1.10
   4:.\Generated_Source\PSoC4/QuadDec_1.c **** *
   5:.\Generated_Source\PSoC4/QuadDec_1.c **** * Description:
   6:.\Generated_Source\PSoC4/QuadDec_1.c **** *  This file provides the source code to the API for the QuadDec_1
   7:.\Generated_Source\PSoC4/QuadDec_1.c **** *  component
   8:.\Generated_Source\PSoC4/QuadDec_1.c **** *
   9:.\Generated_Source\PSoC4/QuadDec_1.c **** * Note:
  10:.\Generated_Source\PSoC4/QuadDec_1.c **** *  None
  11:.\Generated_Source\PSoC4/QuadDec_1.c **** *
  12:.\Generated_Source\PSoC4/QuadDec_1.c **** ********************************************************************************
  13:.\Generated_Source\PSoC4/QuadDec_1.c **** * Copyright 2013-2014, Cypress Semiconductor Corporation.  All rights reserved.
  14:.\Generated_Source\PSoC4/QuadDec_1.c **** * You may use this file only in accordance with the license, terms, conditions,
  15:.\Generated_Source\PSoC4/QuadDec_1.c **** * disclaimers, and limitations in the end user license agreement accompanying
  16:.\Generated_Source\PSoC4/QuadDec_1.c **** * the software package with which this file was provided.
  17:.\Generated_Source\PSoC4/QuadDec_1.c **** *******************************************************************************/
  18:.\Generated_Source\PSoC4/QuadDec_1.c **** 
  19:.\Generated_Source\PSoC4/QuadDec_1.c **** #include "QuadDec_1.h"
  20:.\Generated_Source\PSoC4/QuadDec_1.c **** #include "CyLib.h"
  21:.\Generated_Source\PSoC4/QuadDec_1.c **** 
  22:.\Generated_Source\PSoC4/QuadDec_1.c **** uint8 QuadDec_1_initVar = 0u;
  23:.\Generated_Source\PSoC4/QuadDec_1.c **** 
  24:.\Generated_Source\PSoC4/QuadDec_1.c **** 
  25:.\Generated_Source\PSoC4/QuadDec_1.c **** /*******************************************************************************
  26:.\Generated_Source\PSoC4/QuadDec_1.c **** * Function Name: QuadDec_1_Init
ARM GAS  C:\DOCUME~1\Chuck\LOCALS~1\Temp\ccd20y4e.s 			page 2


  27:.\Generated_Source\PSoC4/QuadDec_1.c **** ********************************************************************************
  28:.\Generated_Source\PSoC4/QuadDec_1.c **** *
  29:.\Generated_Source\PSoC4/QuadDec_1.c **** * Summary:
  30:.\Generated_Source\PSoC4/QuadDec_1.c **** *  Initialize/Restore default QuadDec_1 configuration.
  31:.\Generated_Source\PSoC4/QuadDec_1.c **** *
  32:.\Generated_Source\PSoC4/QuadDec_1.c **** * Parameters:
  33:.\Generated_Source\PSoC4/QuadDec_1.c **** *  None
  34:.\Generated_Source\PSoC4/QuadDec_1.c **** *
  35:.\Generated_Source\PSoC4/QuadDec_1.c **** * Return:
  36:.\Generated_Source\PSoC4/QuadDec_1.c **** *  None
  37:.\Generated_Source\PSoC4/QuadDec_1.c **** *
  38:.\Generated_Source\PSoC4/QuadDec_1.c **** *******************************************************************************/
  39:.\Generated_Source\PSoC4/QuadDec_1.c **** void QuadDec_1_Init(void)
  40:.\Generated_Source\PSoC4/QuadDec_1.c **** {
  32              		.loc 1 40 0
  33              		.cfi_startproc
  34 0000 80B5     		push	{r7, lr}
  35              	.LCFI0:
  36              		.cfi_def_cfa_offset 8
  37              		.cfi_offset 7, -8
  38              		.cfi_offset 14, -4
  39 0002 00AF     		add	r7, sp, #0
  40              	.LCFI1:
  41              		.cfi_def_cfa_register 7
  41:.\Generated_Source\PSoC4/QuadDec_1.c **** 
  42:.\Generated_Source\PSoC4/QuadDec_1.c ****     /* Set values from customizer to CTRL */
  43:.\Generated_Source\PSoC4/QuadDec_1.c ****     #if (QuadDec_1__QUAD == QuadDec_1_CONFIG)
  44:.\Generated_Source\PSoC4/QuadDec_1.c ****         QuadDec_1_CONTROL_REG =
  42              		.loc 1 44 0
  43 0004 064B     		ldr	r3, .L2
  44 0006 C822     		mov	r2, #200
  45 0008 9204     		lsl	r2, r2, #18
  46 000a 1A60     		str	r2, [r3]
  45:.\Generated_Source\PSoC4/QuadDec_1.c ****         (((uint32)(QuadDec_1_QUAD_ENCODING_MODES     << QuadDec_1_QUAD_MODE_SHIFT))       |
  46:.\Generated_Source\PSoC4/QuadDec_1.c ****          ((uint32)(QuadDec_1_CONFIG                  << QuadDec_1_MODE_SHIFT)));
  47:.\Generated_Source\PSoC4/QuadDec_1.c ****     #endif  /* (QuadDec_1__QUAD == QuadDec_1_CONFIG) */
  48:.\Generated_Source\PSoC4/QuadDec_1.c **** 
  49:.\Generated_Source\PSoC4/QuadDec_1.c ****     #if (QuadDec_1__PWM_SEL == QuadDec_1_CONFIG)
  50:.\Generated_Source\PSoC4/QuadDec_1.c ****         QuadDec_1_CONTROL_REG =
  51:.\Generated_Source\PSoC4/QuadDec_1.c ****         (((uint32)(QuadDec_1_PWM_STOP_EVENT          << QuadDec_1_PWM_STOP_KILL_SHIFT))    |
  52:.\Generated_Source\PSoC4/QuadDec_1.c ****          ((uint32)(QuadDec_1_PWM_OUT_INVERT          << QuadDec_1_INV_OUT_SHIFT))         |
  53:.\Generated_Source\PSoC4/QuadDec_1.c ****          ((uint32)(QuadDec_1_PWM_OUT_N_INVERT        << QuadDec_1_INV_COMPL_OUT_SHIFT))     |
  54:.\Generated_Source\PSoC4/QuadDec_1.c ****          ((uint32)(QuadDec_1_PWM_MODE                << QuadDec_1_MODE_SHIFT)));
  55:.\Generated_Source\PSoC4/QuadDec_1.c **** 
  56:.\Generated_Source\PSoC4/QuadDec_1.c ****         #if (QuadDec_1__PWM_PR == QuadDec_1_PWM_MODE)
  57:.\Generated_Source\PSoC4/QuadDec_1.c ****             QuadDec_1_CONTROL_REG |=
  58:.\Generated_Source\PSoC4/QuadDec_1.c ****             ((uint32)(QuadDec_1_PWM_RUN_MODE         << QuadDec_1_ONESHOT_SHIFT));
  59:.\Generated_Source\PSoC4/QuadDec_1.c **** 
  60:.\Generated_Source\PSoC4/QuadDec_1.c ****             QuadDec_1_WriteCounter(QuadDec_1_PWM_PR_INIT_VALUE);
  61:.\Generated_Source\PSoC4/QuadDec_1.c ****         #else
  62:.\Generated_Source\PSoC4/QuadDec_1.c ****             QuadDec_1_CONTROL_REG |=
  63:.\Generated_Source\PSoC4/QuadDec_1.c ****             (((uint32)(QuadDec_1_PWM_ALIGN           << QuadDec_1_UPDOWN_SHIFT))          |
  64:.\Generated_Source\PSoC4/QuadDec_1.c ****              ((uint32)(QuadDec_1_PWM_KILL_EVENT      << QuadDec_1_PWM_SYNC_KILL_SHIFT)));
  65:.\Generated_Source\PSoC4/QuadDec_1.c ****         #endif  /* (QuadDec_1__PWM_PR == QuadDec_1_PWM_MODE) */
  66:.\Generated_Source\PSoC4/QuadDec_1.c **** 
  67:.\Generated_Source\PSoC4/QuadDec_1.c ****         #if (QuadDec_1__PWM_DT == QuadDec_1_PWM_MODE)
  68:.\Generated_Source\PSoC4/QuadDec_1.c ****             QuadDec_1_CONTROL_REG |=
ARM GAS  C:\DOCUME~1\Chuck\LOCALS~1\Temp\ccd20y4e.s 			page 3


  69:.\Generated_Source\PSoC4/QuadDec_1.c ****             ((uint32)(QuadDec_1_PWM_DEAD_TIME_CYCLE  << QuadDec_1_PRESCALER_SHIFT));
  70:.\Generated_Source\PSoC4/QuadDec_1.c ****         #endif  /* (QuadDec_1__PWM_DT == QuadDec_1_PWM_MODE) */
  71:.\Generated_Source\PSoC4/QuadDec_1.c **** 
  72:.\Generated_Source\PSoC4/QuadDec_1.c ****         #if (QuadDec_1__PWM == QuadDec_1_PWM_MODE)
  73:.\Generated_Source\PSoC4/QuadDec_1.c ****             QuadDec_1_CONTROL_REG |=
  74:.\Generated_Source\PSoC4/QuadDec_1.c ****             ((uint32)QuadDec_1_PWM_PRESCALER         << QuadDec_1_PRESCALER_SHIFT);
  75:.\Generated_Source\PSoC4/QuadDec_1.c ****         #endif  /* (QuadDec_1__PWM == QuadDec_1_PWM_MODE) */
  76:.\Generated_Source\PSoC4/QuadDec_1.c ****     #endif  /* (QuadDec_1__PWM_SEL == QuadDec_1_CONFIG) */
  77:.\Generated_Source\PSoC4/QuadDec_1.c **** 
  78:.\Generated_Source\PSoC4/QuadDec_1.c ****     #if (QuadDec_1__TIMER == QuadDec_1_CONFIG)
  79:.\Generated_Source\PSoC4/QuadDec_1.c ****         QuadDec_1_CONTROL_REG =
  80:.\Generated_Source\PSoC4/QuadDec_1.c ****         (((uint32)(QuadDec_1_TC_PRESCALER            << QuadDec_1_PRESCALER_SHIFT))   |
  81:.\Generated_Source\PSoC4/QuadDec_1.c ****          ((uint32)(QuadDec_1_TC_COUNTER_MODE         << QuadDec_1_UPDOWN_SHIFT))      |
  82:.\Generated_Source\PSoC4/QuadDec_1.c ****          ((uint32)(QuadDec_1_TC_RUN_MODE             << QuadDec_1_ONESHOT_SHIFT))     |
  83:.\Generated_Source\PSoC4/QuadDec_1.c ****          ((uint32)(QuadDec_1_TC_COMP_CAP_MODE        << QuadDec_1_MODE_SHIFT)));
  84:.\Generated_Source\PSoC4/QuadDec_1.c ****     #endif  /* (QuadDec_1__TIMER == QuadDec_1_CONFIG) */
  85:.\Generated_Source\PSoC4/QuadDec_1.c **** 
  86:.\Generated_Source\PSoC4/QuadDec_1.c ****     /* Set values from customizer to CTRL1 */
  87:.\Generated_Source\PSoC4/QuadDec_1.c ****     #if (QuadDec_1__QUAD == QuadDec_1_CONFIG)
  88:.\Generated_Source\PSoC4/QuadDec_1.c ****         QuadDec_1_TRIG_CONTROL1_REG  =
  47              		.loc 1 88 0
  48 000c 054B     		ldr	r3, .L2+4
  49 000e C322     		mov	r2, #195
  50 0010 9200     		lsl	r2, r2, #2
  51 0012 1A60     		str	r2, [r3]
  89:.\Generated_Source\PSoC4/QuadDec_1.c ****         (((uint32)(QuadDec_1_QUAD_PHIA_SIGNAL_MODE   << QuadDec_1_COUNT_SHIFT))       |
  90:.\Generated_Source\PSoC4/QuadDec_1.c ****          ((uint32)(QuadDec_1_QUAD_INDEX_SIGNAL_MODE  << QuadDec_1_RELOAD_SHIFT))      |
  91:.\Generated_Source\PSoC4/QuadDec_1.c ****          ((uint32)(QuadDec_1_QUAD_STOP_SIGNAL_MODE   << QuadDec_1_STOP_SHIFT))        |
  92:.\Generated_Source\PSoC4/QuadDec_1.c ****          ((uint32)(QuadDec_1_QUAD_PHIB_SIGNAL_MODE   << QuadDec_1_START_SHIFT)));
  93:.\Generated_Source\PSoC4/QuadDec_1.c ****     #endif  /* (QuadDec_1__QUAD == QuadDec_1_CONFIG) */
  94:.\Generated_Source\PSoC4/QuadDec_1.c **** 
  95:.\Generated_Source\PSoC4/QuadDec_1.c ****     #if (QuadDec_1__PWM_SEL == QuadDec_1_CONFIG)
  96:.\Generated_Source\PSoC4/QuadDec_1.c ****         QuadDec_1_TRIG_CONTROL1_REG  =
  97:.\Generated_Source\PSoC4/QuadDec_1.c ****         (((uint32)(QuadDec_1_PWM_SWITCH_SIGNAL_MODE  << QuadDec_1_CAPTURE_SHIFT))     |
  98:.\Generated_Source\PSoC4/QuadDec_1.c ****          ((uint32)(QuadDec_1_PWM_COUNT_SIGNAL_MODE   << QuadDec_1_COUNT_SHIFT))       |
  99:.\Generated_Source\PSoC4/QuadDec_1.c ****          ((uint32)(QuadDec_1_PWM_RELOAD_SIGNAL_MODE  << QuadDec_1_RELOAD_SHIFT))      |
 100:.\Generated_Source\PSoC4/QuadDec_1.c ****          ((uint32)(QuadDec_1_PWM_STOP_SIGNAL_MODE    << QuadDec_1_STOP_SHIFT))        |
 101:.\Generated_Source\PSoC4/QuadDec_1.c ****          ((uint32)(QuadDec_1_PWM_START_SIGNAL_MODE   << QuadDec_1_START_SHIFT)));
 102:.\Generated_Source\PSoC4/QuadDec_1.c ****     #endif  /* (QuadDec_1__PWM_SEL == QuadDec_1_CONFIG) */
 103:.\Generated_Source\PSoC4/QuadDec_1.c **** 
 104:.\Generated_Source\PSoC4/QuadDec_1.c ****     #if (QuadDec_1__TIMER == QuadDec_1_CONFIG)
 105:.\Generated_Source\PSoC4/QuadDec_1.c ****         QuadDec_1_TRIG_CONTROL1_REG  =
 106:.\Generated_Source\PSoC4/QuadDec_1.c ****         (((uint32)(QuadDec_1_TC_CAPTURE_SIGNAL_MODE  << QuadDec_1_CAPTURE_SHIFT))     |
 107:.\Generated_Source\PSoC4/QuadDec_1.c ****          ((uint32)(QuadDec_1_TC_COUNT_SIGNAL_MODE    << QuadDec_1_COUNT_SHIFT))       |
 108:.\Generated_Source\PSoC4/QuadDec_1.c ****          ((uint32)(QuadDec_1_TC_RELOAD_SIGNAL_MODE   << QuadDec_1_RELOAD_SHIFT))      |
 109:.\Generated_Source\PSoC4/QuadDec_1.c ****          ((uint32)(QuadDec_1_TC_STOP_SIGNAL_MODE     << QuadDec_1_STOP_SHIFT))        |
 110:.\Generated_Source\PSoC4/QuadDec_1.c ****          ((uint32)(QuadDec_1_TC_START_SIGNAL_MODE    << QuadDec_1_START_SHIFT)));
 111:.\Generated_Source\PSoC4/QuadDec_1.c ****     #endif  /* (QuadDec_1__TIMER == QuadDec_1_CONFIG) */
 112:.\Generated_Source\PSoC4/QuadDec_1.c **** 
 113:.\Generated_Source\PSoC4/QuadDec_1.c ****     /* Set values from customizer to INTR */
 114:.\Generated_Source\PSoC4/QuadDec_1.c ****     #if (QuadDec_1__QUAD == QuadDec_1_CONFIG)
 115:.\Generated_Source\PSoC4/QuadDec_1.c ****         QuadDec_1_SetInterruptMode(QuadDec_1_QUAD_INTERRUPT_MASK);
  52              		.loc 1 115 0
  53 0014 0020     		mov	r0, #0
  54 0016 FFF7FEFF 		bl	QuadDec_1_SetInterruptMode
 116:.\Generated_Source\PSoC4/QuadDec_1.c ****     #endif  /* (QuadDec_1__QUAD == QuadDec_1_CONFIG) */
 117:.\Generated_Source\PSoC4/QuadDec_1.c **** 
ARM GAS  C:\DOCUME~1\Chuck\LOCALS~1\Temp\ccd20y4e.s 			page 4


 118:.\Generated_Source\PSoC4/QuadDec_1.c ****     #if (QuadDec_1__PWM_SEL == QuadDec_1_CONFIG)
 119:.\Generated_Source\PSoC4/QuadDec_1.c ****         QuadDec_1_SetInterruptMode(QuadDec_1_PWM_INTERRUPT_MASK);
 120:.\Generated_Source\PSoC4/QuadDec_1.c ****     #endif  /* (QuadDec_1__PWM_SEL == QuadDec_1_CONFIG) */
 121:.\Generated_Source\PSoC4/QuadDec_1.c **** 
 122:.\Generated_Source\PSoC4/QuadDec_1.c ****     #if (QuadDec_1__TIMER == QuadDec_1_CONFIG)
 123:.\Generated_Source\PSoC4/QuadDec_1.c ****         QuadDec_1_SetInterruptMode(QuadDec_1_TC_INTERRUPT_MASK);
 124:.\Generated_Source\PSoC4/QuadDec_1.c ****     #endif  /* (QuadDec_1__TIMER == QuadDec_1_CONFIG) */
 125:.\Generated_Source\PSoC4/QuadDec_1.c **** 
 126:.\Generated_Source\PSoC4/QuadDec_1.c ****     /* Set other values from customizer */
 127:.\Generated_Source\PSoC4/QuadDec_1.c ****     #if (QuadDec_1__TIMER == QuadDec_1_CONFIG)
 128:.\Generated_Source\PSoC4/QuadDec_1.c ****         QuadDec_1_WritePeriod(QuadDec_1_TC_PERIOD_VALUE );
 129:.\Generated_Source\PSoC4/QuadDec_1.c **** 
 130:.\Generated_Source\PSoC4/QuadDec_1.c ****         #if (QuadDec_1__COUNT_DOWN == QuadDec_1_TC_COUNTER_MODE)
 131:.\Generated_Source\PSoC4/QuadDec_1.c ****             QuadDec_1_WriteCounter(QuadDec_1_TC_PERIOD_VALUE );
 132:.\Generated_Source\PSoC4/QuadDec_1.c ****         #endif  /* (QuadDec_1__COUNT_DOWN == QuadDec_1_TC_COUNTER_MODE) */
 133:.\Generated_Source\PSoC4/QuadDec_1.c **** 
 134:.\Generated_Source\PSoC4/QuadDec_1.c ****         #if (QuadDec_1__COMPARE == QuadDec_1_TC_COMP_CAP_MODE)
 135:.\Generated_Source\PSoC4/QuadDec_1.c ****             QuadDec_1_WriteCompare(QuadDec_1_TC_COMPARE_VALUE);
 136:.\Generated_Source\PSoC4/QuadDec_1.c **** 
 137:.\Generated_Source\PSoC4/QuadDec_1.c ****             #if (1u == QuadDec_1_TC_COMPARE_SWAP)
 138:.\Generated_Source\PSoC4/QuadDec_1.c ****                 QuadDec_1_SetCompareSwap(1u);
 139:.\Generated_Source\PSoC4/QuadDec_1.c ****                 QuadDec_1_WriteCompareBuf(QuadDec_1_TC_COMPARE_BUF_VALUE);
 140:.\Generated_Source\PSoC4/QuadDec_1.c ****             #endif  /* (1u == QuadDec_1_TC_COMPARE_SWAP) */
 141:.\Generated_Source\PSoC4/QuadDec_1.c ****         #endif  /* (QuadDec_1__COMPARE == QuadDec_1_TC_COMP_CAP_MODE) */
 142:.\Generated_Source\PSoC4/QuadDec_1.c ****     #endif  /* (QuadDec_1__TIMER == QuadDec_1_CONFIG) */
 143:.\Generated_Source\PSoC4/QuadDec_1.c **** 
 144:.\Generated_Source\PSoC4/QuadDec_1.c ****     #if (QuadDec_1__PWM_SEL == QuadDec_1_CONFIG)
 145:.\Generated_Source\PSoC4/QuadDec_1.c ****         QuadDec_1_WritePeriod(QuadDec_1_PWM_PERIOD_VALUE );
 146:.\Generated_Source\PSoC4/QuadDec_1.c ****         QuadDec_1_WriteCompare(QuadDec_1_PWM_COMPARE_VALUE);
 147:.\Generated_Source\PSoC4/QuadDec_1.c **** 
 148:.\Generated_Source\PSoC4/QuadDec_1.c ****         #if (1u == QuadDec_1_PWM_COMPARE_SWAP)
 149:.\Generated_Source\PSoC4/QuadDec_1.c ****             QuadDec_1_SetCompareSwap(1u);
 150:.\Generated_Source\PSoC4/QuadDec_1.c ****             QuadDec_1_WriteCompareBuf(QuadDec_1_PWM_COMPARE_BUF_VALUE);
 151:.\Generated_Source\PSoC4/QuadDec_1.c ****         #endif  /* (1u == QuadDec_1_PWM_COMPARE_SWAP) */
 152:.\Generated_Source\PSoC4/QuadDec_1.c **** 
 153:.\Generated_Source\PSoC4/QuadDec_1.c ****         #if (1u == QuadDec_1_PWM_PERIOD_SWAP)
 154:.\Generated_Source\PSoC4/QuadDec_1.c ****             QuadDec_1_SetPeriodSwap(1u);
 155:.\Generated_Source\PSoC4/QuadDec_1.c ****             QuadDec_1_WritePeriodBuf(QuadDec_1_PWM_PERIOD_BUF_VALUE);
 156:.\Generated_Source\PSoC4/QuadDec_1.c ****         #endif  /* (1u == QuadDec_1_PWM_PERIOD_SWAP) */
 157:.\Generated_Source\PSoC4/QuadDec_1.c **** 
 158:.\Generated_Source\PSoC4/QuadDec_1.c ****         /* Set values from customizer to CTRL2 */
 159:.\Generated_Source\PSoC4/QuadDec_1.c ****         #if (QuadDec_1__PWM_PR == QuadDec_1_PWM_MODE)
 160:.\Generated_Source\PSoC4/QuadDec_1.c ****             QuadDec_1_TRIG_CONTROL2_REG =
 161:.\Generated_Source\PSoC4/QuadDec_1.c ****                     (QuadDec_1_CC_MATCH_NO_CHANGE    |
 162:.\Generated_Source\PSoC4/QuadDec_1.c ****                     QuadDec_1_OVERLOW_NO_CHANGE      |
 163:.\Generated_Source\PSoC4/QuadDec_1.c ****                     QuadDec_1_UNDERFLOW_NO_CHANGE);
 164:.\Generated_Source\PSoC4/QuadDec_1.c ****         #else
 165:.\Generated_Source\PSoC4/QuadDec_1.c ****             #if (QuadDec_1__LEFT == QuadDec_1_PWM_ALIGN)
 166:.\Generated_Source\PSoC4/QuadDec_1.c ****                 QuadDec_1_TRIG_CONTROL2_REG = QuadDec_1_PWM_MODE_LEFT;
 167:.\Generated_Source\PSoC4/QuadDec_1.c ****             #endif  /* ( QuadDec_1_PWM_LEFT == QuadDec_1_PWM_ALIGN) */
 168:.\Generated_Source\PSoC4/QuadDec_1.c **** 
 169:.\Generated_Source\PSoC4/QuadDec_1.c ****             #if (QuadDec_1__RIGHT == QuadDec_1_PWM_ALIGN)
 170:.\Generated_Source\PSoC4/QuadDec_1.c ****                 QuadDec_1_WriteCounter(QuadDec_1_PWM_PERIOD_VALUE);
 171:.\Generated_Source\PSoC4/QuadDec_1.c ****                 QuadDec_1_TRIG_CONTROL2_REG = QuadDec_1_PWM_MODE_RIGHT;
 172:.\Generated_Source\PSoC4/QuadDec_1.c ****             #endif  /* ( QuadDec_1_PWM_RIGHT == QuadDec_1_PWM_ALIGN) */
 173:.\Generated_Source\PSoC4/QuadDec_1.c **** 
 174:.\Generated_Source\PSoC4/QuadDec_1.c ****             #if (QuadDec_1__CENTER == QuadDec_1_PWM_ALIGN)
ARM GAS  C:\DOCUME~1\Chuck\LOCALS~1\Temp\ccd20y4e.s 			page 5


 175:.\Generated_Source\PSoC4/QuadDec_1.c ****                 QuadDec_1_TRIG_CONTROL2_REG = QuadDec_1_PWM_MODE_CENTER;
 176:.\Generated_Source\PSoC4/QuadDec_1.c ****             #endif  /* ( QuadDec_1_PWM_CENTER == QuadDec_1_PWM_ALIGN) */
 177:.\Generated_Source\PSoC4/QuadDec_1.c **** 
 178:.\Generated_Source\PSoC4/QuadDec_1.c ****             #if (QuadDec_1__ASYMMETRIC == QuadDec_1_PWM_ALIGN)
 179:.\Generated_Source\PSoC4/QuadDec_1.c ****                 QuadDec_1_TRIG_CONTROL2_REG = QuadDec_1_PWM_MODE_ASYM;
 180:.\Generated_Source\PSoC4/QuadDec_1.c ****             #endif  /* (QuadDec_1__ASYMMETRIC == QuadDec_1_PWM_ALIGN) */
 181:.\Generated_Source\PSoC4/QuadDec_1.c ****         #endif  /* (QuadDec_1__PWM_PR == QuadDec_1_PWM_MODE) */
 182:.\Generated_Source\PSoC4/QuadDec_1.c ****     #endif  /* (QuadDec_1__PWM_SEL == QuadDec_1_CONFIG) */
 183:.\Generated_Source\PSoC4/QuadDec_1.c **** }
  55              		.loc 1 183 0
  56 001a BD46     		mov	sp, r7
  57              		@ sp needed for prologue
  58 001c 80BD     		pop	{r7, pc}
  59              	.L3:
  60 001e C046     		.align	2
  61              	.L2:
  62 0020 00010540 		.word	1074069760
  63 0024 24010540 		.word	1074069796
  64              		.cfi_endproc
  65              	.LFE0:
  66              		.size	QuadDec_1_Init, .-QuadDec_1_Init
  67              		.section	.text.QuadDec_1_Enable,"ax",%progbits
  68              		.align	2
  69              		.global	QuadDec_1_Enable
  70              		.code	16
  71              		.thumb_func
  72              		.type	QuadDec_1_Enable, %function
  73              	QuadDec_1_Enable:
  74              	.LFB1:
 184:.\Generated_Source\PSoC4/QuadDec_1.c **** 
 185:.\Generated_Source\PSoC4/QuadDec_1.c **** 
 186:.\Generated_Source\PSoC4/QuadDec_1.c **** /*******************************************************************************
 187:.\Generated_Source\PSoC4/QuadDec_1.c **** * Function Name: QuadDec_1_Enable
 188:.\Generated_Source\PSoC4/QuadDec_1.c **** ********************************************************************************
 189:.\Generated_Source\PSoC4/QuadDec_1.c **** *
 190:.\Generated_Source\PSoC4/QuadDec_1.c **** * Summary:
 191:.\Generated_Source\PSoC4/QuadDec_1.c **** *  Enables the QuadDec_1.
 192:.\Generated_Source\PSoC4/QuadDec_1.c **** *
 193:.\Generated_Source\PSoC4/QuadDec_1.c **** * Parameters:
 194:.\Generated_Source\PSoC4/QuadDec_1.c **** *  None
 195:.\Generated_Source\PSoC4/QuadDec_1.c **** *
 196:.\Generated_Source\PSoC4/QuadDec_1.c **** * Return:
 197:.\Generated_Source\PSoC4/QuadDec_1.c **** *  None
 198:.\Generated_Source\PSoC4/QuadDec_1.c **** *
 199:.\Generated_Source\PSoC4/QuadDec_1.c **** *******************************************************************************/
 200:.\Generated_Source\PSoC4/QuadDec_1.c **** void QuadDec_1_Enable(void)
 201:.\Generated_Source\PSoC4/QuadDec_1.c **** {
  75              		.loc 1 201 0
  76              		.cfi_startproc
  77 0000 90B5     		push	{r4, r7, lr}
  78              	.LCFI2:
  79              		.cfi_def_cfa_offset 12
  80              		.cfi_offset 4, -12
  81              		.cfi_offset 7, -8
  82              		.cfi_offset 14, -4
  83 0002 83B0     		sub	sp, sp, #12
  84              	.LCFI3:
ARM GAS  C:\DOCUME~1\Chuck\LOCALS~1\Temp\ccd20y4e.s 			page 6


  85              		.cfi_def_cfa_offset 24
  86 0004 00AF     		add	r7, sp, #0
  87              	.LCFI4:
  88              		.cfi_def_cfa_register 7
 202:.\Generated_Source\PSoC4/QuadDec_1.c ****     uint8 enableInterrupts;
 203:.\Generated_Source\PSoC4/QuadDec_1.c **** 
 204:.\Generated_Source\PSoC4/QuadDec_1.c ****     enableInterrupts = CyEnterCriticalSection();
  89              		.loc 1 204 0
  90 0006 FC1D     		add	r4, r7, #7
  91 0008 FFF7FEFF 		bl	CyEnterCriticalSection
  92 000c 031C     		mov	r3, r0
  93 000e 2370     		strb	r3, [r4]
 205:.\Generated_Source\PSoC4/QuadDec_1.c ****     QuadDec_1_BLOCK_CONTROL_REG |= QuadDec_1_MASK;
  94              		.loc 1 205 0
  95 0010 064B     		ldr	r3, .L5
  96 0012 064A     		ldr	r2, .L5
  97 0014 1268     		ldr	r2, [r2]
  98 0016 0121     		mov	r1, #1
  99 0018 0A43     		orr	r2, r1
 100 001a 1A60     		str	r2, [r3]
 206:.\Generated_Source\PSoC4/QuadDec_1.c ****     CyExitCriticalSection(enableInterrupts);
 101              		.loc 1 206 0
 102 001c FB1D     		add	r3, r7, #7
 103 001e 1B78     		ldrb	r3, [r3]
 104 0020 181C     		mov	r0, r3
 105 0022 FFF7FEFF 		bl	CyExitCriticalSection
 207:.\Generated_Source\PSoC4/QuadDec_1.c **** 
 208:.\Generated_Source\PSoC4/QuadDec_1.c ****     /* Start Timer or PWM if start input is absent */
 209:.\Generated_Source\PSoC4/QuadDec_1.c ****     #if (QuadDec_1__PWM_SEL == QuadDec_1_CONFIG)
 210:.\Generated_Source\PSoC4/QuadDec_1.c ****         #if (0u == QuadDec_1_PWM_START_SIGNAL_PRESENT)
 211:.\Generated_Source\PSoC4/QuadDec_1.c ****             QuadDec_1_TriggerCommand(QuadDec_1_MASK, QuadDec_1_CMD_START);
 212:.\Generated_Source\PSoC4/QuadDec_1.c ****         #endif /* (0u == QuadDec_1_PWM_START_SIGNAL_PRESENT) */
 213:.\Generated_Source\PSoC4/QuadDec_1.c ****     #endif /* (QuadDec_1__PWM_SEL == QuadDec_1_CONFIG) */
 214:.\Generated_Source\PSoC4/QuadDec_1.c **** 
 215:.\Generated_Source\PSoC4/QuadDec_1.c ****     #if (QuadDec_1__TIMER == QuadDec_1_CONFIG)
 216:.\Generated_Source\PSoC4/QuadDec_1.c ****         #if (0u == QuadDec_1_TC_START_SIGNAL_PRESENT)
 217:.\Generated_Source\PSoC4/QuadDec_1.c ****             QuadDec_1_TriggerCommand(QuadDec_1_MASK, QuadDec_1_CMD_START);
 218:.\Generated_Source\PSoC4/QuadDec_1.c ****         #endif /* (0u == QuadDec_1_TC_START_SIGNAL_PRESENT) */
 219:.\Generated_Source\PSoC4/QuadDec_1.c ****     #endif /* (QuadDec_1__TIMER == QuadDec_1_CONFIG) */
 220:.\Generated_Source\PSoC4/QuadDec_1.c **** }
 106              		.loc 1 220 0
 107 0026 BD46     		mov	sp, r7
 108 0028 03B0     		add	sp, sp, #12
 109              		@ sp needed for prologue
 110 002a 90BD     		pop	{r4, r7, pc}
 111              	.L6:
 112              		.align	2
 113              	.L5:
 114 002c 00000540 		.word	1074069504
 115              		.cfi_endproc
 116              	.LFE1:
 117              		.size	QuadDec_1_Enable, .-QuadDec_1_Enable
 118              		.section	.text.QuadDec_1_Start,"ax",%progbits
 119              		.align	2
 120              		.global	QuadDec_1_Start
 121              		.code	16
 122              		.thumb_func
ARM GAS  C:\DOCUME~1\Chuck\LOCALS~1\Temp\ccd20y4e.s 			page 7


 123              		.type	QuadDec_1_Start, %function
 124              	QuadDec_1_Start:
 125              	.LFB2:
 221:.\Generated_Source\PSoC4/QuadDec_1.c **** 
 222:.\Generated_Source\PSoC4/QuadDec_1.c **** 
 223:.\Generated_Source\PSoC4/QuadDec_1.c **** /*******************************************************************************
 224:.\Generated_Source\PSoC4/QuadDec_1.c **** * Function Name: QuadDec_1_Start
 225:.\Generated_Source\PSoC4/QuadDec_1.c **** ********************************************************************************
 226:.\Generated_Source\PSoC4/QuadDec_1.c **** *
 227:.\Generated_Source\PSoC4/QuadDec_1.c **** * Summary:
 228:.\Generated_Source\PSoC4/QuadDec_1.c **** *  Initializes the QuadDec_1 with default customizer
 229:.\Generated_Source\PSoC4/QuadDec_1.c **** *  values when called the first time and enables the QuadDec_1.
 230:.\Generated_Source\PSoC4/QuadDec_1.c **** *  For subsequent calls the configuration is left unchanged and the component is
 231:.\Generated_Source\PSoC4/QuadDec_1.c **** *  just enabled.
 232:.\Generated_Source\PSoC4/QuadDec_1.c **** *
 233:.\Generated_Source\PSoC4/QuadDec_1.c **** * Parameters:
 234:.\Generated_Source\PSoC4/QuadDec_1.c **** *  None
 235:.\Generated_Source\PSoC4/QuadDec_1.c **** *
 236:.\Generated_Source\PSoC4/QuadDec_1.c **** * Return:
 237:.\Generated_Source\PSoC4/QuadDec_1.c **** *  None
 238:.\Generated_Source\PSoC4/QuadDec_1.c **** *
 239:.\Generated_Source\PSoC4/QuadDec_1.c **** * Global variables:
 240:.\Generated_Source\PSoC4/QuadDec_1.c **** *  QuadDec_1_initVar: global variable is used to indicate initial
 241:.\Generated_Source\PSoC4/QuadDec_1.c **** *  configuration of this component.  The variable is initialized to zero and set
 242:.\Generated_Source\PSoC4/QuadDec_1.c **** *  to 1 the first time QuadDec_1_Start() is called. This allows
 243:.\Generated_Source\PSoC4/QuadDec_1.c **** *  enabling/disabling a component without re-initialization in all subsequent
 244:.\Generated_Source\PSoC4/QuadDec_1.c **** *  calls to the QuadDec_1_Start() routine.
 245:.\Generated_Source\PSoC4/QuadDec_1.c **** *
 246:.\Generated_Source\PSoC4/QuadDec_1.c **** *******************************************************************************/
 247:.\Generated_Source\PSoC4/QuadDec_1.c **** void QuadDec_1_Start(void)
 248:.\Generated_Source\PSoC4/QuadDec_1.c **** {
 126              		.loc 1 248 0
 127              		.cfi_startproc
 128 0000 80B5     		push	{r7, lr}
 129              	.LCFI5:
 130              		.cfi_def_cfa_offset 8
 131              		.cfi_offset 7, -8
 132              		.cfi_offset 14, -4
 133 0002 00AF     		add	r7, sp, #0
 134              	.LCFI6:
 135              		.cfi_def_cfa_register 7
 249:.\Generated_Source\PSoC4/QuadDec_1.c ****     if (0u == QuadDec_1_initVar)
 136              		.loc 1 249 0
 137 0004 064B     		ldr	r3, .L9
 138 0006 1B78     		ldrb	r3, [r3]
 139 0008 002B     		cmp	r3, #0
 140 000a 04D1     		bne	.L8
 250:.\Generated_Source\PSoC4/QuadDec_1.c ****     {
 251:.\Generated_Source\PSoC4/QuadDec_1.c ****         QuadDec_1_Init();
 141              		.loc 1 251 0
 142 000c FFF7FEFF 		bl	QuadDec_1_Init
 252:.\Generated_Source\PSoC4/QuadDec_1.c ****         QuadDec_1_initVar = 1u;
 143              		.loc 1 252 0
 144 0010 034B     		ldr	r3, .L9
 145 0012 0122     		mov	r2, #1
 146 0014 1A70     		strb	r2, [r3]
 147              	.L8:
ARM GAS  C:\DOCUME~1\Chuck\LOCALS~1\Temp\ccd20y4e.s 			page 8


 253:.\Generated_Source\PSoC4/QuadDec_1.c ****     }
 254:.\Generated_Source\PSoC4/QuadDec_1.c **** 
 255:.\Generated_Source\PSoC4/QuadDec_1.c ****     QuadDec_1_Enable();
 148              		.loc 1 255 0
 149 0016 FFF7FEFF 		bl	QuadDec_1_Enable
 256:.\Generated_Source\PSoC4/QuadDec_1.c **** }
 150              		.loc 1 256 0
 151 001a BD46     		mov	sp, r7
 152              		@ sp needed for prologue
 153 001c 80BD     		pop	{r7, pc}
 154              	.L10:
 155 001e C046     		.align	2
 156              	.L9:
 157 0020 00000000 		.word	QuadDec_1_initVar
 158              		.cfi_endproc
 159              	.LFE2:
 160              		.size	QuadDec_1_Start, .-QuadDec_1_Start
 161              		.section	.text.QuadDec_1_Stop,"ax",%progbits
 162              		.align	2
 163              		.global	QuadDec_1_Stop
 164              		.code	16
 165              		.thumb_func
 166              		.type	QuadDec_1_Stop, %function
 167              	QuadDec_1_Stop:
 168              	.LFB3:
 257:.\Generated_Source\PSoC4/QuadDec_1.c **** 
 258:.\Generated_Source\PSoC4/QuadDec_1.c **** 
 259:.\Generated_Source\PSoC4/QuadDec_1.c **** /*******************************************************************************
 260:.\Generated_Source\PSoC4/QuadDec_1.c **** * Function Name: QuadDec_1_Stop
 261:.\Generated_Source\PSoC4/QuadDec_1.c **** ********************************************************************************
 262:.\Generated_Source\PSoC4/QuadDec_1.c **** *
 263:.\Generated_Source\PSoC4/QuadDec_1.c **** * Summary:
 264:.\Generated_Source\PSoC4/QuadDec_1.c **** *  Disables the QuadDec_1.
 265:.\Generated_Source\PSoC4/QuadDec_1.c **** *
 266:.\Generated_Source\PSoC4/QuadDec_1.c **** * Parameters:
 267:.\Generated_Source\PSoC4/QuadDec_1.c **** *  None
 268:.\Generated_Source\PSoC4/QuadDec_1.c **** *
 269:.\Generated_Source\PSoC4/QuadDec_1.c **** * Return:
 270:.\Generated_Source\PSoC4/QuadDec_1.c **** *  None
 271:.\Generated_Source\PSoC4/QuadDec_1.c **** *
 272:.\Generated_Source\PSoC4/QuadDec_1.c **** *******************************************************************************/
 273:.\Generated_Source\PSoC4/QuadDec_1.c **** void QuadDec_1_Stop(void)
 274:.\Generated_Source\PSoC4/QuadDec_1.c **** {
 169              		.loc 1 274 0
 170              		.cfi_startproc
 171 0000 90B5     		push	{r4, r7, lr}
 172              	.LCFI7:
 173              		.cfi_def_cfa_offset 12
 174              		.cfi_offset 4, -12
 175              		.cfi_offset 7, -8
 176              		.cfi_offset 14, -4
 177 0002 83B0     		sub	sp, sp, #12
 178              	.LCFI8:
 179              		.cfi_def_cfa_offset 24
 180 0004 00AF     		add	r7, sp, #0
 181              	.LCFI9:
 182              		.cfi_def_cfa_register 7
ARM GAS  C:\DOCUME~1\Chuck\LOCALS~1\Temp\ccd20y4e.s 			page 9


 275:.\Generated_Source\PSoC4/QuadDec_1.c ****     uint8 enableInterrupts;
 276:.\Generated_Source\PSoC4/QuadDec_1.c **** 
 277:.\Generated_Source\PSoC4/QuadDec_1.c ****     enableInterrupts = CyEnterCriticalSection();
 183              		.loc 1 277 0
 184 0006 FC1D     		add	r4, r7, #7
 185 0008 FFF7FEFF 		bl	CyEnterCriticalSection
 186 000c 031C     		mov	r3, r0
 187 000e 2370     		strb	r3, [r4]
 278:.\Generated_Source\PSoC4/QuadDec_1.c **** 
 279:.\Generated_Source\PSoC4/QuadDec_1.c ****     QuadDec_1_BLOCK_CONTROL_REG &= (uint32)~QuadDec_1_MASK;
 188              		.loc 1 279 0
 189 0010 064B     		ldr	r3, .L12
 190 0012 064A     		ldr	r2, .L12
 191 0014 1268     		ldr	r2, [r2]
 192 0016 0121     		mov	r1, #1
 193 0018 8A43     		bic	r2, r1
 194 001a 1A60     		str	r2, [r3]
 280:.\Generated_Source\PSoC4/QuadDec_1.c **** 
 281:.\Generated_Source\PSoC4/QuadDec_1.c ****     CyExitCriticalSection(enableInterrupts);
 195              		.loc 1 281 0
 196 001c FB1D     		add	r3, r7, #7
 197 001e 1B78     		ldrb	r3, [r3]
 198 0020 181C     		mov	r0, r3
 199 0022 FFF7FEFF 		bl	CyExitCriticalSection
 282:.\Generated_Source\PSoC4/QuadDec_1.c **** }
 200              		.loc 1 282 0
 201 0026 BD46     		mov	sp, r7
 202 0028 03B0     		add	sp, sp, #12
 203              		@ sp needed for prologue
 204 002a 90BD     		pop	{r4, r7, pc}
 205              	.L13:
 206              		.align	2
 207              	.L12:
 208 002c 00000540 		.word	1074069504
 209              		.cfi_endproc
 210              	.LFE3:
 211              		.size	QuadDec_1_Stop, .-QuadDec_1_Stop
 212              		.section	.text.QuadDec_1_SetMode,"ax",%progbits
 213              		.align	2
 214              		.global	QuadDec_1_SetMode
 215              		.code	16
 216              		.thumb_func
 217              		.type	QuadDec_1_SetMode, %function
 218              	QuadDec_1_SetMode:
 219              	.LFB4:
 283:.\Generated_Source\PSoC4/QuadDec_1.c **** 
 284:.\Generated_Source\PSoC4/QuadDec_1.c **** 
 285:.\Generated_Source\PSoC4/QuadDec_1.c **** /*******************************************************************************
 286:.\Generated_Source\PSoC4/QuadDec_1.c **** * Function Name: QuadDec_1_SetMode
 287:.\Generated_Source\PSoC4/QuadDec_1.c **** ********************************************************************************
 288:.\Generated_Source\PSoC4/QuadDec_1.c **** *
 289:.\Generated_Source\PSoC4/QuadDec_1.c **** * Summary:
 290:.\Generated_Source\PSoC4/QuadDec_1.c **** *  Sets the operation mode of the QuadDec_1. This function is used when
 291:.\Generated_Source\PSoC4/QuadDec_1.c **** *  configured as a generic QuadDec_1 and the actual mode of operation is
 292:.\Generated_Source\PSoC4/QuadDec_1.c **** *  set at runtime. The mode must be set while the component is disabled.
 293:.\Generated_Source\PSoC4/QuadDec_1.c **** *
 294:.\Generated_Source\PSoC4/QuadDec_1.c **** * Parameters:
ARM GAS  C:\DOCUME~1\Chuck\LOCALS~1\Temp\ccd20y4e.s 			page 10


 295:.\Generated_Source\PSoC4/QuadDec_1.c **** *  mode: Mode for the QuadDec_1 to operate in
 296:.\Generated_Source\PSoC4/QuadDec_1.c **** *   Values:
 297:.\Generated_Source\PSoC4/QuadDec_1.c **** *   - QuadDec_1_MODE_TIMER_COMPARE - Timer / Counter with
 298:.\Generated_Source\PSoC4/QuadDec_1.c **** *                                                 compare capability
 299:.\Generated_Source\PSoC4/QuadDec_1.c **** *         - QuadDec_1_MODE_TIMER_CAPTURE - Timer / Counter with
 300:.\Generated_Source\PSoC4/QuadDec_1.c **** *                                                 capture capability
 301:.\Generated_Source\PSoC4/QuadDec_1.c **** *         - QuadDec_1_MODE_QUAD - Quadrature decoder
 302:.\Generated_Source\PSoC4/QuadDec_1.c **** *         - QuadDec_1_MODE_PWM - PWM
 303:.\Generated_Source\PSoC4/QuadDec_1.c **** *         - QuadDec_1_MODE_PWM_DT - PWM with dead time
 304:.\Generated_Source\PSoC4/QuadDec_1.c **** *         - QuadDec_1_MODE_PWM_PR - PWM with pseudo random capability
 305:.\Generated_Source\PSoC4/QuadDec_1.c **** *
 306:.\Generated_Source\PSoC4/QuadDec_1.c **** * Return:
 307:.\Generated_Source\PSoC4/QuadDec_1.c **** *  None
 308:.\Generated_Source\PSoC4/QuadDec_1.c **** *
 309:.\Generated_Source\PSoC4/QuadDec_1.c **** *******************************************************************************/
 310:.\Generated_Source\PSoC4/QuadDec_1.c **** void QuadDec_1_SetMode(uint32 mode)
 311:.\Generated_Source\PSoC4/QuadDec_1.c **** {
 220              		.loc 1 311 0
 221              		.cfi_startproc
 222 0000 90B5     		push	{r4, r7, lr}
 223              	.LCFI10:
 224              		.cfi_def_cfa_offset 12
 225              		.cfi_offset 4, -12
 226              		.cfi_offset 7, -8
 227              		.cfi_offset 14, -4
 228 0002 85B0     		sub	sp, sp, #20
 229              	.LCFI11:
 230              		.cfi_def_cfa_offset 32
 231 0004 00AF     		add	r7, sp, #0
 232              	.LCFI12:
 233              		.cfi_def_cfa_register 7
 234 0006 7860     		str	r0, [r7, #4]
 312:.\Generated_Source\PSoC4/QuadDec_1.c ****     uint8 enableInterrupts;
 313:.\Generated_Source\PSoC4/QuadDec_1.c **** 
 314:.\Generated_Source\PSoC4/QuadDec_1.c ****     enableInterrupts = CyEnterCriticalSection();
 235              		.loc 1 314 0
 236 0008 3C1C     		mov	r4, r7
 237 000a 0F34     		add	r4, r4, #15
 238 000c FFF7FEFF 		bl	CyEnterCriticalSection
 239 0010 031C     		mov	r3, r0
 240 0012 2370     		strb	r3, [r4]
 315:.\Generated_Source\PSoC4/QuadDec_1.c **** 
 316:.\Generated_Source\PSoC4/QuadDec_1.c ****     QuadDec_1_CONTROL_REG &= (uint32)~QuadDec_1_MODE_MASK;
 241              		.loc 1 316 0
 242 0014 0A4B     		ldr	r3, .L15
 243 0016 0A4A     		ldr	r2, .L15
 244 0018 1168     		ldr	r1, [r2]
 245 001a 0A4A     		ldr	r2, .L15+4
 246 001c 0A40     		and	r2, r1
 247 001e 1A60     		str	r2, [r3]
 317:.\Generated_Source\PSoC4/QuadDec_1.c ****     QuadDec_1_CONTROL_REG |= mode;
 248              		.loc 1 317 0
 249 0020 074B     		ldr	r3, .L15
 250 0022 074A     		ldr	r2, .L15
 251 0024 1168     		ldr	r1, [r2]
 252 0026 7A68     		ldr	r2, [r7, #4]
 253 0028 0A43     		orr	r2, r1
ARM GAS  C:\DOCUME~1\Chuck\LOCALS~1\Temp\ccd20y4e.s 			page 11


 254 002a 1A60     		str	r2, [r3]
 318:.\Generated_Source\PSoC4/QuadDec_1.c **** 
 319:.\Generated_Source\PSoC4/QuadDec_1.c ****     CyExitCriticalSection(enableInterrupts);
 255              		.loc 1 319 0
 256 002c 3B1C     		mov	r3, r7
 257 002e 0F33     		add	r3, r3, #15
 258 0030 1B78     		ldrb	r3, [r3]
 259 0032 181C     		mov	r0, r3
 260 0034 FFF7FEFF 		bl	CyExitCriticalSection
 320:.\Generated_Source\PSoC4/QuadDec_1.c **** }
 261              		.loc 1 320 0
 262 0038 BD46     		mov	sp, r7
 263 003a 05B0     		add	sp, sp, #20
 264              		@ sp needed for prologue
 265 003c 90BD     		pop	{r4, r7, pc}
 266              	.L16:
 267 003e C046     		.align	2
 268              	.L15:
 269 0040 00010540 		.word	1074069760
 270 0044 FFFFFFF8 		.word	-117440513
 271              		.cfi_endproc
 272              	.LFE4:
 273              		.size	QuadDec_1_SetMode, .-QuadDec_1_SetMode
 274              		.section	.text.QuadDec_1_SetQDMode,"ax",%progbits
 275              		.align	2
 276              		.global	QuadDec_1_SetQDMode
 277              		.code	16
 278              		.thumb_func
 279              		.type	QuadDec_1_SetQDMode, %function
 280              	QuadDec_1_SetQDMode:
 281              	.LFB5:
 321:.\Generated_Source\PSoC4/QuadDec_1.c **** 
 322:.\Generated_Source\PSoC4/QuadDec_1.c **** 
 323:.\Generated_Source\PSoC4/QuadDec_1.c **** /*******************************************************************************
 324:.\Generated_Source\PSoC4/QuadDec_1.c **** * Function Name: QuadDec_1_SetQDMode
 325:.\Generated_Source\PSoC4/QuadDec_1.c **** ********************************************************************************
 326:.\Generated_Source\PSoC4/QuadDec_1.c **** *
 327:.\Generated_Source\PSoC4/QuadDec_1.c **** * Summary:
 328:.\Generated_Source\PSoC4/QuadDec_1.c **** *  Sets the the Quadrature Decoder to one of the 3 supported modes.
 329:.\Generated_Source\PSoC4/QuadDec_1.c **** *  Its functionality is only applicable to Quadrature Decoder operation.
 330:.\Generated_Source\PSoC4/QuadDec_1.c **** *
 331:.\Generated_Source\PSoC4/QuadDec_1.c **** * Parameters:
 332:.\Generated_Source\PSoC4/QuadDec_1.c **** *  qdMode: Quadrature Decoder mode
 333:.\Generated_Source\PSoC4/QuadDec_1.c **** *   Values:
 334:.\Generated_Source\PSoC4/QuadDec_1.c **** *         - QuadDec_1_MODE_X1 - Counts on phi 1 rising
 335:.\Generated_Source\PSoC4/QuadDec_1.c **** *         - QuadDec_1_MODE_X2 - Counts on both edges of phi1 (2x faster)
 336:.\Generated_Source\PSoC4/QuadDec_1.c **** *         - QuadDec_1_MODE_X4 - Counts on both edges of phi1 and phi2
 337:.\Generated_Source\PSoC4/QuadDec_1.c **** *                                        (4x faster)
 338:.\Generated_Source\PSoC4/QuadDec_1.c **** *
 339:.\Generated_Source\PSoC4/QuadDec_1.c **** * Return:
 340:.\Generated_Source\PSoC4/QuadDec_1.c **** *  None
 341:.\Generated_Source\PSoC4/QuadDec_1.c **** *
 342:.\Generated_Source\PSoC4/QuadDec_1.c **** *******************************************************************************/
 343:.\Generated_Source\PSoC4/QuadDec_1.c **** void QuadDec_1_SetQDMode(uint32 qdMode)
 344:.\Generated_Source\PSoC4/QuadDec_1.c **** {
 282              		.loc 1 344 0
 283              		.cfi_startproc
ARM GAS  C:\DOCUME~1\Chuck\LOCALS~1\Temp\ccd20y4e.s 			page 12


 284 0000 90B5     		push	{r4, r7, lr}
 285              	.LCFI13:
 286              		.cfi_def_cfa_offset 12
 287              		.cfi_offset 4, -12
 288              		.cfi_offset 7, -8
 289              		.cfi_offset 14, -4
 290 0002 85B0     		sub	sp, sp, #20
 291              	.LCFI14:
 292              		.cfi_def_cfa_offset 32
 293 0004 00AF     		add	r7, sp, #0
 294              	.LCFI15:
 295              		.cfi_def_cfa_register 7
 296 0006 7860     		str	r0, [r7, #4]
 345:.\Generated_Source\PSoC4/QuadDec_1.c ****     uint8 enableInterrupts;
 346:.\Generated_Source\PSoC4/QuadDec_1.c **** 
 347:.\Generated_Source\PSoC4/QuadDec_1.c ****     enableInterrupts = CyEnterCriticalSection();
 297              		.loc 1 347 0
 298 0008 3C1C     		mov	r4, r7
 299 000a 0F34     		add	r4, r4, #15
 300 000c FFF7FEFF 		bl	CyEnterCriticalSection
 301 0010 031C     		mov	r3, r0
 302 0012 2370     		strb	r3, [r4]
 348:.\Generated_Source\PSoC4/QuadDec_1.c **** 
 349:.\Generated_Source\PSoC4/QuadDec_1.c ****     QuadDec_1_CONTROL_REG &= (uint32)~QuadDec_1_QUAD_MODE_MASK;
 303              		.loc 1 349 0
 304 0014 0A4B     		ldr	r3, .L18
 305 0016 0A4A     		ldr	r2, .L18
 306 0018 1168     		ldr	r1, [r2]
 307 001a 0A4A     		ldr	r2, .L18+4
 308 001c 0A40     		and	r2, r1
 309 001e 1A60     		str	r2, [r3]
 350:.\Generated_Source\PSoC4/QuadDec_1.c ****     QuadDec_1_CONTROL_REG |= qdMode;
 310              		.loc 1 350 0
 311 0020 074B     		ldr	r3, .L18
 312 0022 074A     		ldr	r2, .L18
 313 0024 1168     		ldr	r1, [r2]
 314 0026 7A68     		ldr	r2, [r7, #4]
 315 0028 0A43     		orr	r2, r1
 316 002a 1A60     		str	r2, [r3]
 351:.\Generated_Source\PSoC4/QuadDec_1.c **** 
 352:.\Generated_Source\PSoC4/QuadDec_1.c ****     CyExitCriticalSection(enableInterrupts);
 317              		.loc 1 352 0
 318 002c 3B1C     		mov	r3, r7
 319 002e 0F33     		add	r3, r3, #15
 320 0030 1B78     		ldrb	r3, [r3]
 321 0032 181C     		mov	r0, r3
 322 0034 FFF7FEFF 		bl	CyExitCriticalSection
 353:.\Generated_Source\PSoC4/QuadDec_1.c **** }
 323              		.loc 1 353 0
 324 0038 BD46     		mov	sp, r7
 325 003a 05B0     		add	sp, sp, #20
 326              		@ sp needed for prologue
 327 003c 90BD     		pop	{r4, r7, pc}
 328              	.L19:
 329 003e C046     		.align	2
 330              	.L18:
 331 0040 00010540 		.word	1074069760
ARM GAS  C:\DOCUME~1\Chuck\LOCALS~1\Temp\ccd20y4e.s 			page 13


 332 0044 FFFF8FFF 		.word	-7340033
 333              		.cfi_endproc
 334              	.LFE5:
 335              		.size	QuadDec_1_SetQDMode, .-QuadDec_1_SetQDMode
 336              		.section	.text.QuadDec_1_SetPrescaler,"ax",%progbits
 337              		.align	2
 338              		.global	QuadDec_1_SetPrescaler
 339              		.code	16
 340              		.thumb_func
 341              		.type	QuadDec_1_SetPrescaler, %function
 342              	QuadDec_1_SetPrescaler:
 343              	.LFB6:
 354:.\Generated_Source\PSoC4/QuadDec_1.c **** 
 355:.\Generated_Source\PSoC4/QuadDec_1.c **** 
 356:.\Generated_Source\PSoC4/QuadDec_1.c **** /*******************************************************************************
 357:.\Generated_Source\PSoC4/QuadDec_1.c **** * Function Name: QuadDec_1_SetPrescaler
 358:.\Generated_Source\PSoC4/QuadDec_1.c **** ********************************************************************************
 359:.\Generated_Source\PSoC4/QuadDec_1.c **** *
 360:.\Generated_Source\PSoC4/QuadDec_1.c **** * Summary:
 361:.\Generated_Source\PSoC4/QuadDec_1.c **** *  Sets the prescaler value that is applied to the clock input.  Not applicable
 362:.\Generated_Source\PSoC4/QuadDec_1.c **** *  to a PWM with the dead time mode or Quadrature Decoder mode.
 363:.\Generated_Source\PSoC4/QuadDec_1.c **** *
 364:.\Generated_Source\PSoC4/QuadDec_1.c **** * Parameters:
 365:.\Generated_Source\PSoC4/QuadDec_1.c **** *  prescaler: Prescaler divider value
 366:.\Generated_Source\PSoC4/QuadDec_1.c **** *   Values:
 367:.\Generated_Source\PSoC4/QuadDec_1.c **** *         - QuadDec_1_PRESCALE_DIVBY1    - Divide by 1 (no prescaling)
 368:.\Generated_Source\PSoC4/QuadDec_1.c **** *         - QuadDec_1_PRESCALE_DIVBY2    - Divide by 2
 369:.\Generated_Source\PSoC4/QuadDec_1.c **** *         - QuadDec_1_PRESCALE_DIVBY4    - Divide by 4
 370:.\Generated_Source\PSoC4/QuadDec_1.c **** *         - QuadDec_1_PRESCALE_DIVBY8    - Divide by 8
 371:.\Generated_Source\PSoC4/QuadDec_1.c **** *         - QuadDec_1_PRESCALE_DIVBY16   - Divide by 16
 372:.\Generated_Source\PSoC4/QuadDec_1.c **** *         - QuadDec_1_PRESCALE_DIVBY32   - Divide by 32
 373:.\Generated_Source\PSoC4/QuadDec_1.c **** *         - QuadDec_1_PRESCALE_DIVBY64   - Divide by 64
 374:.\Generated_Source\PSoC4/QuadDec_1.c **** *         - QuadDec_1_PRESCALE_DIVBY128  - Divide by 128
 375:.\Generated_Source\PSoC4/QuadDec_1.c **** *
 376:.\Generated_Source\PSoC4/QuadDec_1.c **** * Return:
 377:.\Generated_Source\PSoC4/QuadDec_1.c **** *  None
 378:.\Generated_Source\PSoC4/QuadDec_1.c **** *
 379:.\Generated_Source\PSoC4/QuadDec_1.c **** *******************************************************************************/
 380:.\Generated_Source\PSoC4/QuadDec_1.c **** void QuadDec_1_SetPrescaler(uint32 prescaler)
 381:.\Generated_Source\PSoC4/QuadDec_1.c **** {
 344              		.loc 1 381 0
 345              		.cfi_startproc
 346 0000 90B5     		push	{r4, r7, lr}
 347              	.LCFI16:
 348              		.cfi_def_cfa_offset 12
 349              		.cfi_offset 4, -12
 350              		.cfi_offset 7, -8
 351              		.cfi_offset 14, -4
 352 0002 85B0     		sub	sp, sp, #20
 353              	.LCFI17:
 354              		.cfi_def_cfa_offset 32
 355 0004 00AF     		add	r7, sp, #0
 356              	.LCFI18:
 357              		.cfi_def_cfa_register 7
 358 0006 7860     		str	r0, [r7, #4]
 382:.\Generated_Source\PSoC4/QuadDec_1.c ****     uint8 enableInterrupts;
 383:.\Generated_Source\PSoC4/QuadDec_1.c **** 
ARM GAS  C:\DOCUME~1\Chuck\LOCALS~1\Temp\ccd20y4e.s 			page 14


 384:.\Generated_Source\PSoC4/QuadDec_1.c ****     enableInterrupts = CyEnterCriticalSection();
 359              		.loc 1 384 0
 360 0008 3C1C     		mov	r4, r7
 361 000a 0F34     		add	r4, r4, #15
 362 000c FFF7FEFF 		bl	CyEnterCriticalSection
 363 0010 031C     		mov	r3, r0
 364 0012 2370     		strb	r3, [r4]
 385:.\Generated_Source\PSoC4/QuadDec_1.c **** 
 386:.\Generated_Source\PSoC4/QuadDec_1.c ****     QuadDec_1_CONTROL_REG &= (uint32)~QuadDec_1_PRESCALER_MASK;
 365              		.loc 1 386 0
 366 0014 0A4B     		ldr	r3, .L21
 367 0016 0A4A     		ldr	r2, .L21
 368 0018 1168     		ldr	r1, [r2]
 369 001a 0A4A     		ldr	r2, .L21+4
 370 001c 0A40     		and	r2, r1
 371 001e 1A60     		str	r2, [r3]
 387:.\Generated_Source\PSoC4/QuadDec_1.c ****     QuadDec_1_CONTROL_REG |= prescaler;
 372              		.loc 1 387 0
 373 0020 074B     		ldr	r3, .L21
 374 0022 074A     		ldr	r2, .L21
 375 0024 1168     		ldr	r1, [r2]
 376 0026 7A68     		ldr	r2, [r7, #4]
 377 0028 0A43     		orr	r2, r1
 378 002a 1A60     		str	r2, [r3]
 388:.\Generated_Source\PSoC4/QuadDec_1.c **** 
 389:.\Generated_Source\PSoC4/QuadDec_1.c ****     CyExitCriticalSection(enableInterrupts);
 379              		.loc 1 389 0
 380 002c 3B1C     		mov	r3, r7
 381 002e 0F33     		add	r3, r3, #15
 382 0030 1B78     		ldrb	r3, [r3]
 383 0032 181C     		mov	r0, r3
 384 0034 FFF7FEFF 		bl	CyExitCriticalSection
 390:.\Generated_Source\PSoC4/QuadDec_1.c **** }
 385              		.loc 1 390 0
 386 0038 BD46     		mov	sp, r7
 387 003a 05B0     		add	sp, sp, #20
 388              		@ sp needed for prologue
 389 003c 90BD     		pop	{r4, r7, pc}
 390              	.L22:
 391 003e C046     		.align	2
 392              	.L21:
 393 0040 00010540 		.word	1074069760
 394 0044 FF00FFFF 		.word	-65281
 395              		.cfi_endproc
 396              	.LFE6:
 397              		.size	QuadDec_1_SetPrescaler, .-QuadDec_1_SetPrescaler
 398              		.section	.text.QuadDec_1_SetOneShot,"ax",%progbits
 399              		.align	2
 400              		.global	QuadDec_1_SetOneShot
 401              		.code	16
 402              		.thumb_func
 403              		.type	QuadDec_1_SetOneShot, %function
 404              	QuadDec_1_SetOneShot:
 405              	.LFB7:
 391:.\Generated_Source\PSoC4/QuadDec_1.c **** 
 392:.\Generated_Source\PSoC4/QuadDec_1.c **** 
 393:.\Generated_Source\PSoC4/QuadDec_1.c **** /*******************************************************************************
ARM GAS  C:\DOCUME~1\Chuck\LOCALS~1\Temp\ccd20y4e.s 			page 15


 394:.\Generated_Source\PSoC4/QuadDec_1.c **** * Function Name: QuadDec_1_SetOneShot
 395:.\Generated_Source\PSoC4/QuadDec_1.c **** ********************************************************************************
 396:.\Generated_Source\PSoC4/QuadDec_1.c **** *
 397:.\Generated_Source\PSoC4/QuadDec_1.c **** * Summary:
 398:.\Generated_Source\PSoC4/QuadDec_1.c **** *  Writes the register that controls whether the QuadDec_1 runs
 399:.\Generated_Source\PSoC4/QuadDec_1.c **** *  continuously or stops when terminal count is reached.  By default the
 400:.\Generated_Source\PSoC4/QuadDec_1.c **** *  QuadDec_1 operates in the continuous mode.
 401:.\Generated_Source\PSoC4/QuadDec_1.c **** *
 402:.\Generated_Source\PSoC4/QuadDec_1.c **** * Parameters:
 403:.\Generated_Source\PSoC4/QuadDec_1.c **** *  oneShotEnable
 404:.\Generated_Source\PSoC4/QuadDec_1.c **** *   Values:
 405:.\Generated_Source\PSoC4/QuadDec_1.c **** *     - 0 - Continuous
 406:.\Generated_Source\PSoC4/QuadDec_1.c **** *     - 1 - Enable One Shot
 407:.\Generated_Source\PSoC4/QuadDec_1.c **** *
 408:.\Generated_Source\PSoC4/QuadDec_1.c **** * Return:
 409:.\Generated_Source\PSoC4/QuadDec_1.c **** *  None
 410:.\Generated_Source\PSoC4/QuadDec_1.c **** *
 411:.\Generated_Source\PSoC4/QuadDec_1.c **** *******************************************************************************/
 412:.\Generated_Source\PSoC4/QuadDec_1.c **** void QuadDec_1_SetOneShot(uint32 oneShotEnable)
 413:.\Generated_Source\PSoC4/QuadDec_1.c **** {
 406              		.loc 1 413 0
 407              		.cfi_startproc
 408 0000 90B5     		push	{r4, r7, lr}
 409              	.LCFI19:
 410              		.cfi_def_cfa_offset 12
 411              		.cfi_offset 4, -12
 412              		.cfi_offset 7, -8
 413              		.cfi_offset 14, -4
 414 0002 85B0     		sub	sp, sp, #20
 415              	.LCFI20:
 416              		.cfi_def_cfa_offset 32
 417 0004 00AF     		add	r7, sp, #0
 418              	.LCFI21:
 419              		.cfi_def_cfa_register 7
 420 0006 7860     		str	r0, [r7, #4]
 414:.\Generated_Source\PSoC4/QuadDec_1.c ****     uint8 enableInterrupts;
 415:.\Generated_Source\PSoC4/QuadDec_1.c **** 
 416:.\Generated_Source\PSoC4/QuadDec_1.c ****     enableInterrupts = CyEnterCriticalSection();
 421              		.loc 1 416 0
 422 0008 3C1C     		mov	r4, r7
 423 000a 0F34     		add	r4, r4, #15
 424 000c FFF7FEFF 		bl	CyEnterCriticalSection
 425 0010 031C     		mov	r3, r0
 426 0012 2370     		strb	r3, [r4]
 417:.\Generated_Source\PSoC4/QuadDec_1.c **** 
 418:.\Generated_Source\PSoC4/QuadDec_1.c ****     QuadDec_1_CONTROL_REG &= (uint32)~QuadDec_1_ONESHOT_MASK;
 427              		.loc 1 418 0
 428 0014 0B4B     		ldr	r3, .L24
 429 0016 0B4A     		ldr	r2, .L24
 430 0018 1168     		ldr	r1, [r2]
 431 001a 0B4A     		ldr	r2, .L24+4
 432 001c 0A40     		and	r2, r1
 433 001e 1A60     		str	r2, [r3]
 419:.\Generated_Source\PSoC4/QuadDec_1.c ****     QuadDec_1_CONTROL_REG |= ((uint32)((oneShotEnable & QuadDec_1_1BIT_MASK) <<
 434              		.loc 1 419 0
 435 0020 084B     		ldr	r3, .L24
 436 0022 084A     		ldr	r2, .L24
ARM GAS  C:\DOCUME~1\Chuck\LOCALS~1\Temp\ccd20y4e.s 			page 16


 437 0024 1168     		ldr	r1, [r2]
 438 0026 7868     		ldr	r0, [r7, #4]
 439 0028 0122     		mov	r2, #1
 440 002a 0240     		and	r2, r0
 441 002c 9204     		lsl	r2, r2, #18
 442 002e 0A43     		orr	r2, r1
 443 0030 1A60     		str	r2, [r3]
 420:.\Generated_Source\PSoC4/QuadDec_1.c ****                                                                QuadDec_1_ONESHOT_SHIFT));
 421:.\Generated_Source\PSoC4/QuadDec_1.c **** 
 422:.\Generated_Source\PSoC4/QuadDec_1.c ****     CyExitCriticalSection(enableInterrupts);
 444              		.loc 1 422 0
 445 0032 3B1C     		mov	r3, r7
 446 0034 0F33     		add	r3, r3, #15
 447 0036 1B78     		ldrb	r3, [r3]
 448 0038 181C     		mov	r0, r3
 449 003a FFF7FEFF 		bl	CyExitCriticalSection
 423:.\Generated_Source\PSoC4/QuadDec_1.c **** }
 450              		.loc 1 423 0
 451 003e BD46     		mov	sp, r7
 452 0040 05B0     		add	sp, sp, #20
 453              		@ sp needed for prologue
 454 0042 90BD     		pop	{r4, r7, pc}
 455              	.L25:
 456              		.align	2
 457              	.L24:
 458 0044 00010540 		.word	1074069760
 459 0048 FFFFFBFF 		.word	-262145
 460              		.cfi_endproc
 461              	.LFE7:
 462              		.size	QuadDec_1_SetOneShot, .-QuadDec_1_SetOneShot
 463              		.section	.text.QuadDec_1_SetPWMMode,"ax",%progbits
 464              		.align	2
 465              		.global	QuadDec_1_SetPWMMode
 466              		.code	16
 467              		.thumb_func
 468              		.type	QuadDec_1_SetPWMMode, %function
 469              	QuadDec_1_SetPWMMode:
 470              	.LFB8:
 424:.\Generated_Source\PSoC4/QuadDec_1.c **** 
 425:.\Generated_Source\PSoC4/QuadDec_1.c **** 
 426:.\Generated_Source\PSoC4/QuadDec_1.c **** /*******************************************************************************
 427:.\Generated_Source\PSoC4/QuadDec_1.c **** * Function Name: QuadDec_1_SetPWMMode
 428:.\Generated_Source\PSoC4/QuadDec_1.c **** ********************************************************************************
 429:.\Generated_Source\PSoC4/QuadDec_1.c **** *
 430:.\Generated_Source\PSoC4/QuadDec_1.c **** * Summary:
 431:.\Generated_Source\PSoC4/QuadDec_1.c **** *  Writes the control register that determines what mode of operation the PWM
 432:.\Generated_Source\PSoC4/QuadDec_1.c **** *  output lines are driven in.  There is a setting for what to do on a
 433:.\Generated_Source\PSoC4/QuadDec_1.c **** *  comparison match (CC_MATCH), on an overflow (OVERFLOW) and on an underflow
 434:.\Generated_Source\PSoC4/QuadDec_1.c **** *  (UNDERFLOW).  The value for each of the three must be ORed together to form
 435:.\Generated_Source\PSoC4/QuadDec_1.c **** *  the mode.
 436:.\Generated_Source\PSoC4/QuadDec_1.c **** *
 437:.\Generated_Source\PSoC4/QuadDec_1.c **** * Parameters:
 438:.\Generated_Source\PSoC4/QuadDec_1.c **** *  modeMask: A combination of three mode settings.  Mask must include a value
 439:.\Generated_Source\PSoC4/QuadDec_1.c **** *  for each of the three or use one of the preconfigured PWM settings.
 440:.\Generated_Source\PSoC4/QuadDec_1.c **** *   Values:
 441:.\Generated_Source\PSoC4/QuadDec_1.c **** *     - CC_MATCH_SET        - Set on comparison match
 442:.\Generated_Source\PSoC4/QuadDec_1.c **** *     - CC_MATCH_CLEAR      - Clear on comparison match
ARM GAS  C:\DOCUME~1\Chuck\LOCALS~1\Temp\ccd20y4e.s 			page 17


 443:.\Generated_Source\PSoC4/QuadDec_1.c **** *     - CC_MATCH_INVERT     - Invert on comparison match
 444:.\Generated_Source\PSoC4/QuadDec_1.c **** *     - CC_MATCH_NO_CHANGE  - No change on comparison match
 445:.\Generated_Source\PSoC4/QuadDec_1.c **** *     - OVERLOW_SET         - Set on overflow
 446:.\Generated_Source\PSoC4/QuadDec_1.c **** *     - OVERLOW_CLEAR       - Clear on  overflow
 447:.\Generated_Source\PSoC4/QuadDec_1.c **** *     - OVERLOW_INVERT      - Invert on overflow
 448:.\Generated_Source\PSoC4/QuadDec_1.c **** *     - OVERLOW_NO_CHANGE   - No change on overflow
 449:.\Generated_Source\PSoC4/QuadDec_1.c **** *     - UNDERFLOW_SET       - Set on underflow
 450:.\Generated_Source\PSoC4/QuadDec_1.c **** *     - UNDERFLOW_CLEAR     - Clear on underflow
 451:.\Generated_Source\PSoC4/QuadDec_1.c **** *     - UNDERFLOW_INVERT    - Invert on underflow
 452:.\Generated_Source\PSoC4/QuadDec_1.c **** *     - UNDERFLOW_NO_CHANGE - No change on underflow
 453:.\Generated_Source\PSoC4/QuadDec_1.c **** *     - PWM_MODE_LEFT       - Setting for left aligned PWM.  Should be combined
 454:.\Generated_Source\PSoC4/QuadDec_1.c **** *                             with up counting mode
 455:.\Generated_Source\PSoC4/QuadDec_1.c **** *     - PWM_MODE_RIGHT      - Setting for right aligned PWM.  Should be combined
 456:.\Generated_Source\PSoC4/QuadDec_1.c **** *                             with down counting mode
 457:.\Generated_Source\PSoC4/QuadDec_1.c **** *     - PWM_MODE_CENTER     - Setting for center aligned PWM.  Should be
 458:.\Generated_Source\PSoC4/QuadDec_1.c **** *                             combined with up/down 0 mode
 459:.\Generated_Source\PSoC4/QuadDec_1.c **** *     - PWM_MODE_ASYM       - Setting for asymmetric PWM.  Should be combined
 460:.\Generated_Source\PSoC4/QuadDec_1.c **** *                             with up/down 1 mode
 461:.\Generated_Source\PSoC4/QuadDec_1.c **** *
 462:.\Generated_Source\PSoC4/QuadDec_1.c **** * Return:
 463:.\Generated_Source\PSoC4/QuadDec_1.c **** *  None
 464:.\Generated_Source\PSoC4/QuadDec_1.c **** *
 465:.\Generated_Source\PSoC4/QuadDec_1.c **** *******************************************************************************/
 466:.\Generated_Source\PSoC4/QuadDec_1.c **** void QuadDec_1_SetPWMMode(uint32 modeMask)
 467:.\Generated_Source\PSoC4/QuadDec_1.c **** {
 471              		.loc 1 467 0
 472              		.cfi_startproc
 473 0000 80B5     		push	{r7, lr}
 474              	.LCFI22:
 475              		.cfi_def_cfa_offset 8
 476              		.cfi_offset 7, -8
 477              		.cfi_offset 14, -4
 478 0002 82B0     		sub	sp, sp, #8
 479              	.LCFI23:
 480              		.cfi_def_cfa_offset 16
 481 0004 00AF     		add	r7, sp, #0
 482              	.LCFI24:
 483              		.cfi_def_cfa_register 7
 484 0006 7860     		str	r0, [r7, #4]
 468:.\Generated_Source\PSoC4/QuadDec_1.c ****     QuadDec_1_TRIG_CONTROL2_REG = (modeMask & QuadDec_1_6BIT_MASK);
 485              		.loc 1 468 0
 486 0008 034B     		ldr	r3, .L27
 487 000a 7968     		ldr	r1, [r7, #4]
 488 000c 3F22     		mov	r2, #63
 489 000e 0A40     		and	r2, r1
 490 0010 1A60     		str	r2, [r3]
 469:.\Generated_Source\PSoC4/QuadDec_1.c **** }
 491              		.loc 1 469 0
 492 0012 BD46     		mov	sp, r7
 493 0014 02B0     		add	sp, sp, #8
 494              		@ sp needed for prologue
 495 0016 80BD     		pop	{r7, pc}
 496              	.L28:
 497              		.align	2
 498              	.L27:
 499 0018 28010540 		.word	1074069800
 500              		.cfi_endproc
ARM GAS  C:\DOCUME~1\Chuck\LOCALS~1\Temp\ccd20y4e.s 			page 18


 501              	.LFE8:
 502              		.size	QuadDec_1_SetPWMMode, .-QuadDec_1_SetPWMMode
 503              		.section	.text.QuadDec_1_SetPWMSyncKill,"ax",%progbits
 504              		.align	2
 505              		.global	QuadDec_1_SetPWMSyncKill
 506              		.code	16
 507              		.thumb_func
 508              		.type	QuadDec_1_SetPWMSyncKill, %function
 509              	QuadDec_1_SetPWMSyncKill:
 510              	.LFB9:
 470:.\Generated_Source\PSoC4/QuadDec_1.c **** 
 471:.\Generated_Source\PSoC4/QuadDec_1.c **** 
 472:.\Generated_Source\PSoC4/QuadDec_1.c **** 
 473:.\Generated_Source\PSoC4/QuadDec_1.c **** /*******************************************************************************
 474:.\Generated_Source\PSoC4/QuadDec_1.c **** * Function Name: QuadDec_1_SetPWMSyncKill
 475:.\Generated_Source\PSoC4/QuadDec_1.c **** ********************************************************************************
 476:.\Generated_Source\PSoC4/QuadDec_1.c **** *
 477:.\Generated_Source\PSoC4/QuadDec_1.c **** * Summary:
 478:.\Generated_Source\PSoC4/QuadDec_1.c **** *  Writes the register that controls whether the PWM kill signal (stop input)
 479:.\Generated_Source\PSoC4/QuadDec_1.c **** *  causes asynchronous or synchronous kill operation.  By default the kill
 480:.\Generated_Source\PSoC4/QuadDec_1.c **** *  operation is asynchronous.  This functionality is only applicable to the PWM
 481:.\Generated_Source\PSoC4/QuadDec_1.c **** *  and PWM with dead time modes.
 482:.\Generated_Source\PSoC4/QuadDec_1.c **** *
 483:.\Generated_Source\PSoC4/QuadDec_1.c **** *  For Synchronous mode the kill signal disables both the line and line_n
 484:.\Generated_Source\PSoC4/QuadDec_1.c **** *  signals until the next terminal count.
 485:.\Generated_Source\PSoC4/QuadDec_1.c **** *
 486:.\Generated_Source\PSoC4/QuadDec_1.c **** *  For Asynchronous mode the kill signal disables both the line and line_n
 487:.\Generated_Source\PSoC4/QuadDec_1.c **** *  signals when the kill signal is present.  This mode should only be used
 488:.\Generated_Source\PSoC4/QuadDec_1.c **** *  when the kill signal (stop input) is configured in the pass through mode
 489:.\Generated_Source\PSoC4/QuadDec_1.c **** *  (Level sensitive signal).
 490:.\Generated_Source\PSoC4/QuadDec_1.c **** 
 491:.\Generated_Source\PSoC4/QuadDec_1.c **** *
 492:.\Generated_Source\PSoC4/QuadDec_1.c **** * Parameters:
 493:.\Generated_Source\PSoC4/QuadDec_1.c **** *  syncKillEnable
 494:.\Generated_Source\PSoC4/QuadDec_1.c **** *   Values:
 495:.\Generated_Source\PSoC4/QuadDec_1.c **** *     - 0 - Asynchronous
 496:.\Generated_Source\PSoC4/QuadDec_1.c **** *     - 1 - Synchronous
 497:.\Generated_Source\PSoC4/QuadDec_1.c **** *
 498:.\Generated_Source\PSoC4/QuadDec_1.c **** * Return:
 499:.\Generated_Source\PSoC4/QuadDec_1.c **** *  None
 500:.\Generated_Source\PSoC4/QuadDec_1.c **** *
 501:.\Generated_Source\PSoC4/QuadDec_1.c **** *******************************************************************************/
 502:.\Generated_Source\PSoC4/QuadDec_1.c **** void QuadDec_1_SetPWMSyncKill(uint32 syncKillEnable)
 503:.\Generated_Source\PSoC4/QuadDec_1.c **** {
 511              		.loc 1 503 0
 512              		.cfi_startproc
 513 0000 90B5     		push	{r4, r7, lr}
 514              	.LCFI25:
 515              		.cfi_def_cfa_offset 12
 516              		.cfi_offset 4, -12
 517              		.cfi_offset 7, -8
 518              		.cfi_offset 14, -4
 519 0002 85B0     		sub	sp, sp, #20
 520              	.LCFI26:
 521              		.cfi_def_cfa_offset 32
 522 0004 00AF     		add	r7, sp, #0
 523              	.LCFI27:
ARM GAS  C:\DOCUME~1\Chuck\LOCALS~1\Temp\ccd20y4e.s 			page 19


 524              		.cfi_def_cfa_register 7
 525 0006 7860     		str	r0, [r7, #4]
 504:.\Generated_Source\PSoC4/QuadDec_1.c ****     uint8 enableInterrupts;
 505:.\Generated_Source\PSoC4/QuadDec_1.c **** 
 506:.\Generated_Source\PSoC4/QuadDec_1.c ****     enableInterrupts = CyEnterCriticalSection();
 526              		.loc 1 506 0
 527 0008 3C1C     		mov	r4, r7
 528 000a 0F34     		add	r4, r4, #15
 529 000c FFF7FEFF 		bl	CyEnterCriticalSection
 530 0010 031C     		mov	r3, r0
 531 0012 2370     		strb	r3, [r4]
 507:.\Generated_Source\PSoC4/QuadDec_1.c **** 
 508:.\Generated_Source\PSoC4/QuadDec_1.c ****     QuadDec_1_CONTROL_REG &= (uint32)~QuadDec_1_PWM_SYNC_KILL_MASK;
 532              		.loc 1 508 0
 533 0014 0B4B     		ldr	r3, .L30
 534 0016 0B4A     		ldr	r2, .L30
 535 0018 1268     		ldr	r2, [r2]
 536 001a 0421     		mov	r1, #4
 537 001c 8A43     		bic	r2, r1
 538 001e 1A60     		str	r2, [r3]
 509:.\Generated_Source\PSoC4/QuadDec_1.c ****     QuadDec_1_CONTROL_REG |= ((uint32)((syncKillEnable & QuadDec_1_1BIT_MASK)  <<
 539              		.loc 1 509 0
 540 0020 084B     		ldr	r3, .L30
 541 0022 084A     		ldr	r2, .L30
 542 0024 1168     		ldr	r1, [r2]
 543 0026 7868     		ldr	r0, [r7, #4]
 544 0028 0122     		mov	r2, #1
 545 002a 0240     		and	r2, r0
 546 002c 9200     		lsl	r2, r2, #2
 547 002e 0A43     		orr	r2, r1
 548 0030 1A60     		str	r2, [r3]
 510:.\Generated_Source\PSoC4/QuadDec_1.c ****                                                QuadDec_1_PWM_SYNC_KILL_SHIFT));
 511:.\Generated_Source\PSoC4/QuadDec_1.c **** 
 512:.\Generated_Source\PSoC4/QuadDec_1.c ****     CyExitCriticalSection(enableInterrupts);
 549              		.loc 1 512 0
 550 0032 3B1C     		mov	r3, r7
 551 0034 0F33     		add	r3, r3, #15
 552 0036 1B78     		ldrb	r3, [r3]
 553 0038 181C     		mov	r0, r3
 554 003a FFF7FEFF 		bl	CyExitCriticalSection
 513:.\Generated_Source\PSoC4/QuadDec_1.c **** }
 555              		.loc 1 513 0
 556 003e BD46     		mov	sp, r7
 557 0040 05B0     		add	sp, sp, #20
 558              		@ sp needed for prologue
 559 0042 90BD     		pop	{r4, r7, pc}
 560              	.L31:
 561              		.align	2
 562              	.L30:
 563 0044 00010540 		.word	1074069760
 564              		.cfi_endproc
 565              	.LFE9:
 566              		.size	QuadDec_1_SetPWMSyncKill, .-QuadDec_1_SetPWMSyncKill
 567              		.section	.text.QuadDec_1_SetPWMStopOnKill,"ax",%progbits
 568              		.align	2
 569              		.global	QuadDec_1_SetPWMStopOnKill
 570              		.code	16
ARM GAS  C:\DOCUME~1\Chuck\LOCALS~1\Temp\ccd20y4e.s 			page 20


 571              		.thumb_func
 572              		.type	QuadDec_1_SetPWMStopOnKill, %function
 573              	QuadDec_1_SetPWMStopOnKill:
 574              	.LFB10:
 514:.\Generated_Source\PSoC4/QuadDec_1.c **** 
 515:.\Generated_Source\PSoC4/QuadDec_1.c **** 
 516:.\Generated_Source\PSoC4/QuadDec_1.c **** /*******************************************************************************
 517:.\Generated_Source\PSoC4/QuadDec_1.c **** * Function Name: QuadDec_1_SetPWMStopOnKill
 518:.\Generated_Source\PSoC4/QuadDec_1.c **** ********************************************************************************
 519:.\Generated_Source\PSoC4/QuadDec_1.c **** *
 520:.\Generated_Source\PSoC4/QuadDec_1.c **** * Summary:
 521:.\Generated_Source\PSoC4/QuadDec_1.c **** *  Writes the register that controls whether the PWM kill signal (stop input)
 522:.\Generated_Source\PSoC4/QuadDec_1.c **** *  causes the PWM counter to stop.  By default the kill operation does not stop
 523:.\Generated_Source\PSoC4/QuadDec_1.c **** *  the counter.  This functionality is only applicable to the three PWM modes.
 524:.\Generated_Source\PSoC4/QuadDec_1.c **** *
 525:.\Generated_Source\PSoC4/QuadDec_1.c **** *
 526:.\Generated_Source\PSoC4/QuadDec_1.c **** * Parameters:
 527:.\Generated_Source\PSoC4/QuadDec_1.c **** *  stopOnKillEnable
 528:.\Generated_Source\PSoC4/QuadDec_1.c **** *   Values:
 529:.\Generated_Source\PSoC4/QuadDec_1.c **** *     - 0 - Don't stop
 530:.\Generated_Source\PSoC4/QuadDec_1.c **** *     - 1 - Stop
 531:.\Generated_Source\PSoC4/QuadDec_1.c **** *
 532:.\Generated_Source\PSoC4/QuadDec_1.c **** * Return:
 533:.\Generated_Source\PSoC4/QuadDec_1.c **** *  None
 534:.\Generated_Source\PSoC4/QuadDec_1.c **** *
 535:.\Generated_Source\PSoC4/QuadDec_1.c **** *******************************************************************************/
 536:.\Generated_Source\PSoC4/QuadDec_1.c **** void QuadDec_1_SetPWMStopOnKill(uint32 stopOnKillEnable)
 537:.\Generated_Source\PSoC4/QuadDec_1.c **** {
 575              		.loc 1 537 0
 576              		.cfi_startproc
 577 0000 90B5     		push	{r4, r7, lr}
 578              	.LCFI28:
 579              		.cfi_def_cfa_offset 12
 580              		.cfi_offset 4, -12
 581              		.cfi_offset 7, -8
 582              		.cfi_offset 14, -4
 583 0002 85B0     		sub	sp, sp, #20
 584              	.LCFI29:
 585              		.cfi_def_cfa_offset 32
 586 0004 00AF     		add	r7, sp, #0
 587              	.LCFI30:
 588              		.cfi_def_cfa_register 7
 589 0006 7860     		str	r0, [r7, #4]
 538:.\Generated_Source\PSoC4/QuadDec_1.c ****     uint8 enableInterrupts;
 539:.\Generated_Source\PSoC4/QuadDec_1.c **** 
 540:.\Generated_Source\PSoC4/QuadDec_1.c ****     enableInterrupts = CyEnterCriticalSection();
 590              		.loc 1 540 0
 591 0008 3C1C     		mov	r4, r7
 592 000a 0F34     		add	r4, r4, #15
 593 000c FFF7FEFF 		bl	CyEnterCriticalSection
 594 0010 031C     		mov	r3, r0
 595 0012 2370     		strb	r3, [r4]
 541:.\Generated_Source\PSoC4/QuadDec_1.c **** 
 542:.\Generated_Source\PSoC4/QuadDec_1.c ****     QuadDec_1_CONTROL_REG &= (uint32)~QuadDec_1_PWM_STOP_KILL_MASK;
 596              		.loc 1 542 0
 597 0014 0B4B     		ldr	r3, .L33
 598 0016 0B4A     		ldr	r2, .L33
ARM GAS  C:\DOCUME~1\Chuck\LOCALS~1\Temp\ccd20y4e.s 			page 21


 599 0018 1268     		ldr	r2, [r2]
 600 001a 0821     		mov	r1, #8
 601 001c 8A43     		bic	r2, r1
 602 001e 1A60     		str	r2, [r3]
 543:.\Generated_Source\PSoC4/QuadDec_1.c ****     QuadDec_1_CONTROL_REG |= ((uint32)((stopOnKillEnable & QuadDec_1_1BIT_MASK)  <<
 603              		.loc 1 543 0
 604 0020 084B     		ldr	r3, .L33
 605 0022 084A     		ldr	r2, .L33
 606 0024 1168     		ldr	r1, [r2]
 607 0026 7868     		ldr	r0, [r7, #4]
 608 0028 0122     		mov	r2, #1
 609 002a 0240     		and	r2, r0
 610 002c D200     		lsl	r2, r2, #3
 611 002e 0A43     		orr	r2, r1
 612 0030 1A60     		str	r2, [r3]
 544:.\Generated_Source\PSoC4/QuadDec_1.c ****                                                          QuadDec_1_PWM_STOP_KILL_SHIFT));
 545:.\Generated_Source\PSoC4/QuadDec_1.c **** 
 546:.\Generated_Source\PSoC4/QuadDec_1.c ****     CyExitCriticalSection(enableInterrupts);
 613              		.loc 1 546 0
 614 0032 3B1C     		mov	r3, r7
 615 0034 0F33     		add	r3, r3, #15
 616 0036 1B78     		ldrb	r3, [r3]
 617 0038 181C     		mov	r0, r3
 618 003a FFF7FEFF 		bl	CyExitCriticalSection
 547:.\Generated_Source\PSoC4/QuadDec_1.c **** }
 619              		.loc 1 547 0
 620 003e BD46     		mov	sp, r7
 621 0040 05B0     		add	sp, sp, #20
 622              		@ sp needed for prologue
 623 0042 90BD     		pop	{r4, r7, pc}
 624              	.L34:
 625              		.align	2
 626              	.L33:
 627 0044 00010540 		.word	1074069760
 628              		.cfi_endproc
 629              	.LFE10:
 630              		.size	QuadDec_1_SetPWMStopOnKill, .-QuadDec_1_SetPWMStopOnKill
 631              		.section	.text.QuadDec_1_SetPWMDeadTime,"ax",%progbits
 632              		.align	2
 633              		.global	QuadDec_1_SetPWMDeadTime
 634              		.code	16
 635              		.thumb_func
 636              		.type	QuadDec_1_SetPWMDeadTime, %function
 637              	QuadDec_1_SetPWMDeadTime:
 638              	.LFB11:
 548:.\Generated_Source\PSoC4/QuadDec_1.c **** 
 549:.\Generated_Source\PSoC4/QuadDec_1.c **** 
 550:.\Generated_Source\PSoC4/QuadDec_1.c **** /*******************************************************************************
 551:.\Generated_Source\PSoC4/QuadDec_1.c **** * Function Name: QuadDec_1_SetPWMDeadTime
 552:.\Generated_Source\PSoC4/QuadDec_1.c **** ********************************************************************************
 553:.\Generated_Source\PSoC4/QuadDec_1.c **** *
 554:.\Generated_Source\PSoC4/QuadDec_1.c **** * Summary:
 555:.\Generated_Source\PSoC4/QuadDec_1.c **** *  Writes the dead time control value.  This value delays the rising edge of
 556:.\Generated_Source\PSoC4/QuadDec_1.c **** *  both the line and line_n signals the designated number of cycles resulting
 557:.\Generated_Source\PSoC4/QuadDec_1.c **** *  in both signals being inactive for that many cycles.  This functionality is
 558:.\Generated_Source\PSoC4/QuadDec_1.c **** *  only applicable to the PWM in the dead time mode.
 559:.\Generated_Source\PSoC4/QuadDec_1.c **** 
ARM GAS  C:\DOCUME~1\Chuck\LOCALS~1\Temp\ccd20y4e.s 			page 22


 560:.\Generated_Source\PSoC4/QuadDec_1.c **** *
 561:.\Generated_Source\PSoC4/QuadDec_1.c **** * Parameters:
 562:.\Generated_Source\PSoC4/QuadDec_1.c **** *  Dead time to insert
 563:.\Generated_Source\PSoC4/QuadDec_1.c **** *   Values: 0 to 255
 564:.\Generated_Source\PSoC4/QuadDec_1.c **** *
 565:.\Generated_Source\PSoC4/QuadDec_1.c **** * Return:
 566:.\Generated_Source\PSoC4/QuadDec_1.c **** *  None
 567:.\Generated_Source\PSoC4/QuadDec_1.c **** *
 568:.\Generated_Source\PSoC4/QuadDec_1.c **** *******************************************************************************/
 569:.\Generated_Source\PSoC4/QuadDec_1.c **** void QuadDec_1_SetPWMDeadTime(uint32 deadTime)
 570:.\Generated_Source\PSoC4/QuadDec_1.c **** {
 639              		.loc 1 570 0
 640              		.cfi_startproc
 641 0000 90B5     		push	{r4, r7, lr}
 642              	.LCFI31:
 643              		.cfi_def_cfa_offset 12
 644              		.cfi_offset 4, -12
 645              		.cfi_offset 7, -8
 646              		.cfi_offset 14, -4
 647 0002 85B0     		sub	sp, sp, #20
 648              	.LCFI32:
 649              		.cfi_def_cfa_offset 32
 650 0004 00AF     		add	r7, sp, #0
 651              	.LCFI33:
 652              		.cfi_def_cfa_register 7
 653 0006 7860     		str	r0, [r7, #4]
 571:.\Generated_Source\PSoC4/QuadDec_1.c ****     uint8 enableInterrupts;
 572:.\Generated_Source\PSoC4/QuadDec_1.c **** 
 573:.\Generated_Source\PSoC4/QuadDec_1.c ****     enableInterrupts = CyEnterCriticalSection();
 654              		.loc 1 573 0
 655 0008 3C1C     		mov	r4, r7
 656 000a 0F34     		add	r4, r4, #15
 657 000c FFF7FEFF 		bl	CyEnterCriticalSection
 658 0010 031C     		mov	r3, r0
 659 0012 2370     		strb	r3, [r4]
 574:.\Generated_Source\PSoC4/QuadDec_1.c **** 
 575:.\Generated_Source\PSoC4/QuadDec_1.c ****     QuadDec_1_CONTROL_REG &= (uint32)~QuadDec_1_PRESCALER_MASK;
 660              		.loc 1 575 0
 661 0014 0B4B     		ldr	r3, .L36
 662 0016 0B4A     		ldr	r2, .L36
 663 0018 1168     		ldr	r1, [r2]
 664 001a 0B4A     		ldr	r2, .L36+4
 665 001c 0A40     		and	r2, r1
 666 001e 1A60     		str	r2, [r3]
 576:.\Generated_Source\PSoC4/QuadDec_1.c ****     QuadDec_1_CONTROL_REG |= ((uint32)((deadTime & QuadDec_1_8BIT_MASK) <<
 667              		.loc 1 576 0
 668 0020 084B     		ldr	r3, .L36
 669 0022 084A     		ldr	r2, .L36
 670 0024 1168     		ldr	r1, [r2]
 671 0026 7A68     		ldr	r2, [r7, #4]
 672 0028 1202     		lsl	r2, r2, #8
 673 002a 1204     		lsl	r2, r2, #16
 674 002c 120C     		lsr	r2, r2, #16
 675 002e 0A43     		orr	r2, r1
 676 0030 1A60     		str	r2, [r3]
 577:.\Generated_Source\PSoC4/QuadDec_1.c ****                                                           QuadDec_1_PRESCALER_SHIFT));
 578:.\Generated_Source\PSoC4/QuadDec_1.c **** 
ARM GAS  C:\DOCUME~1\Chuck\LOCALS~1\Temp\ccd20y4e.s 			page 23


 579:.\Generated_Source\PSoC4/QuadDec_1.c ****     CyExitCriticalSection(enableInterrupts);
 677              		.loc 1 579 0
 678 0032 3B1C     		mov	r3, r7
 679 0034 0F33     		add	r3, r3, #15
 680 0036 1B78     		ldrb	r3, [r3]
 681 0038 181C     		mov	r0, r3
 682 003a FFF7FEFF 		bl	CyExitCriticalSection
 580:.\Generated_Source\PSoC4/QuadDec_1.c **** }
 683              		.loc 1 580 0
 684 003e BD46     		mov	sp, r7
 685 0040 05B0     		add	sp, sp, #20
 686              		@ sp needed for prologue
 687 0042 90BD     		pop	{r4, r7, pc}
 688              	.L37:
 689              		.align	2
 690              	.L36:
 691 0044 00010540 		.word	1074069760
 692 0048 FF00FFFF 		.word	-65281
 693              		.cfi_endproc
 694              	.LFE11:
 695              		.size	QuadDec_1_SetPWMDeadTime, .-QuadDec_1_SetPWMDeadTime
 696              		.section	.text.QuadDec_1_SetPWMInvert,"ax",%progbits
 697              		.align	2
 698              		.global	QuadDec_1_SetPWMInvert
 699              		.code	16
 700              		.thumb_func
 701              		.type	QuadDec_1_SetPWMInvert, %function
 702              	QuadDec_1_SetPWMInvert:
 703              	.LFB12:
 581:.\Generated_Source\PSoC4/QuadDec_1.c **** 
 582:.\Generated_Source\PSoC4/QuadDec_1.c **** 
 583:.\Generated_Source\PSoC4/QuadDec_1.c **** /*******************************************************************************
 584:.\Generated_Source\PSoC4/QuadDec_1.c **** * Function Name: QuadDec_1_SetPWMInvert
 585:.\Generated_Source\PSoC4/QuadDec_1.c **** ********************************************************************************
 586:.\Generated_Source\PSoC4/QuadDec_1.c **** *
 587:.\Generated_Source\PSoC4/QuadDec_1.c **** * Summary:
 588:.\Generated_Source\PSoC4/QuadDec_1.c **** *  Writes the bits that control whether the line and line_n outputs are
 589:.\Generated_Source\PSoC4/QuadDec_1.c **** *  inverted from their normal output values.  This functionality is only
 590:.\Generated_Source\PSoC4/QuadDec_1.c **** *  applicable to the three PWM modes.
 591:.\Generated_Source\PSoC4/QuadDec_1.c **** *
 592:.\Generated_Source\PSoC4/QuadDec_1.c **** * Parameters:
 593:.\Generated_Source\PSoC4/QuadDec_1.c **** *  mask: Mask of outputs to invert.
 594:.\Generated_Source\PSoC4/QuadDec_1.c **** *   Values:
 595:.\Generated_Source\PSoC4/QuadDec_1.c **** *         - QuadDec_1_INVERT_LINE   - Inverts the line output
 596:.\Generated_Source\PSoC4/QuadDec_1.c **** *         - QuadDec_1_INVERT_LINE_N - Inverts the line_n output
 597:.\Generated_Source\PSoC4/QuadDec_1.c **** *
 598:.\Generated_Source\PSoC4/QuadDec_1.c **** * Return:
 599:.\Generated_Source\PSoC4/QuadDec_1.c **** *  None
 600:.\Generated_Source\PSoC4/QuadDec_1.c **** *
 601:.\Generated_Source\PSoC4/QuadDec_1.c **** *******************************************************************************/
 602:.\Generated_Source\PSoC4/QuadDec_1.c **** void QuadDec_1_SetPWMInvert(uint32 mask)
 603:.\Generated_Source\PSoC4/QuadDec_1.c **** {
 704              		.loc 1 603 0
 705              		.cfi_startproc
 706 0000 90B5     		push	{r4, r7, lr}
 707              	.LCFI34:
 708              		.cfi_def_cfa_offset 12
ARM GAS  C:\DOCUME~1\Chuck\LOCALS~1\Temp\ccd20y4e.s 			page 24


 709              		.cfi_offset 4, -12
 710              		.cfi_offset 7, -8
 711              		.cfi_offset 14, -4
 712 0002 85B0     		sub	sp, sp, #20
 713              	.LCFI35:
 714              		.cfi_def_cfa_offset 32
 715 0004 00AF     		add	r7, sp, #0
 716              	.LCFI36:
 717              		.cfi_def_cfa_register 7
 718 0006 7860     		str	r0, [r7, #4]
 604:.\Generated_Source\PSoC4/QuadDec_1.c ****     uint8 enableInterrupts;
 605:.\Generated_Source\PSoC4/QuadDec_1.c **** 
 606:.\Generated_Source\PSoC4/QuadDec_1.c ****     enableInterrupts = CyEnterCriticalSection();
 719              		.loc 1 606 0
 720 0008 3C1C     		mov	r4, r7
 721 000a 0F34     		add	r4, r4, #15
 722 000c FFF7FEFF 		bl	CyEnterCriticalSection
 723 0010 031C     		mov	r3, r0
 724 0012 2370     		strb	r3, [r4]
 607:.\Generated_Source\PSoC4/QuadDec_1.c **** 
 608:.\Generated_Source\PSoC4/QuadDec_1.c ****     QuadDec_1_CONTROL_REG &= (uint32)~QuadDec_1_INV_OUT_MASK;
 725              		.loc 1 608 0
 726 0014 0A4B     		ldr	r3, .L39
 727 0016 0A4A     		ldr	r2, .L39
 728 0018 1168     		ldr	r1, [r2]
 729 001a 0A4A     		ldr	r2, .L39+4
 730 001c 0A40     		and	r2, r1
 731 001e 1A60     		str	r2, [r3]
 609:.\Generated_Source\PSoC4/QuadDec_1.c ****     QuadDec_1_CONTROL_REG |= mask;
 732              		.loc 1 609 0
 733 0020 074B     		ldr	r3, .L39
 734 0022 074A     		ldr	r2, .L39
 735 0024 1168     		ldr	r1, [r2]
 736 0026 7A68     		ldr	r2, [r7, #4]
 737 0028 0A43     		orr	r2, r1
 738 002a 1A60     		str	r2, [r3]
 610:.\Generated_Source\PSoC4/QuadDec_1.c **** 
 611:.\Generated_Source\PSoC4/QuadDec_1.c ****     CyExitCriticalSection(enableInterrupts);
 739              		.loc 1 611 0
 740 002c 3B1C     		mov	r3, r7
 741 002e 0F33     		add	r3, r3, #15
 742 0030 1B78     		ldrb	r3, [r3]
 743 0032 181C     		mov	r0, r3
 744 0034 FFF7FEFF 		bl	CyExitCriticalSection
 612:.\Generated_Source\PSoC4/QuadDec_1.c **** }
 745              		.loc 1 612 0
 746 0038 BD46     		mov	sp, r7
 747 003a 05B0     		add	sp, sp, #20
 748              		@ sp needed for prologue
 749 003c 90BD     		pop	{r4, r7, pc}
 750              	.L40:
 751 003e C046     		.align	2
 752              	.L39:
 753 0040 00010540 		.word	1074069760
 754 0044 FFFFCFFF 		.word	-3145729
 755              		.cfi_endproc
 756              	.LFE12:
ARM GAS  C:\DOCUME~1\Chuck\LOCALS~1\Temp\ccd20y4e.s 			page 25


 757              		.size	QuadDec_1_SetPWMInvert, .-QuadDec_1_SetPWMInvert
 758              		.section	.text.QuadDec_1_WriteCounter,"ax",%progbits
 759              		.align	2
 760              		.global	QuadDec_1_WriteCounter
 761              		.code	16
 762              		.thumb_func
 763              		.type	QuadDec_1_WriteCounter, %function
 764              	QuadDec_1_WriteCounter:
 765              	.LFB13:
 613:.\Generated_Source\PSoC4/QuadDec_1.c **** 
 614:.\Generated_Source\PSoC4/QuadDec_1.c **** 
 615:.\Generated_Source\PSoC4/QuadDec_1.c **** 
 616:.\Generated_Source\PSoC4/QuadDec_1.c **** /*******************************************************************************
 617:.\Generated_Source\PSoC4/QuadDec_1.c **** * Function Name: QuadDec_1_WriteCounter
 618:.\Generated_Source\PSoC4/QuadDec_1.c **** ********************************************************************************
 619:.\Generated_Source\PSoC4/QuadDec_1.c **** *
 620:.\Generated_Source\PSoC4/QuadDec_1.c **** * Summary:
 621:.\Generated_Source\PSoC4/QuadDec_1.c **** *  Writes a new 16bit counter value directly into the counter register, thus
 622:.\Generated_Source\PSoC4/QuadDec_1.c **** *  setting the counter (not the period) to the value written. It is not
 623:.\Generated_Source\PSoC4/QuadDec_1.c **** *  advised to write to this field when the counter is running.
 624:.\Generated_Source\PSoC4/QuadDec_1.c **** *
 625:.\Generated_Source\PSoC4/QuadDec_1.c **** * Parameters:
 626:.\Generated_Source\PSoC4/QuadDec_1.c **** *  count: value to write
 627:.\Generated_Source\PSoC4/QuadDec_1.c **** *
 628:.\Generated_Source\PSoC4/QuadDec_1.c **** * Return:
 629:.\Generated_Source\PSoC4/QuadDec_1.c **** *  None
 630:.\Generated_Source\PSoC4/QuadDec_1.c **** *
 631:.\Generated_Source\PSoC4/QuadDec_1.c **** *******************************************************************************/
 632:.\Generated_Source\PSoC4/QuadDec_1.c **** void QuadDec_1_WriteCounter(uint32 count)
 633:.\Generated_Source\PSoC4/QuadDec_1.c **** {
 766              		.loc 1 633 0
 767              		.cfi_startproc
 768 0000 80B5     		push	{r7, lr}
 769              	.LCFI37:
 770              		.cfi_def_cfa_offset 8
 771              		.cfi_offset 7, -8
 772              		.cfi_offset 14, -4
 773 0002 82B0     		sub	sp, sp, #8
 774              	.LCFI38:
 775              		.cfi_def_cfa_offset 16
 776 0004 00AF     		add	r7, sp, #0
 777              	.LCFI39:
 778              		.cfi_def_cfa_register 7
 779 0006 7860     		str	r0, [r7, #4]
 634:.\Generated_Source\PSoC4/QuadDec_1.c ****     QuadDec_1_COUNTER_REG = (count & QuadDec_1_16BIT_MASK);
 780              		.loc 1 634 0
 781 0008 034B     		ldr	r3, .L42
 782 000a 7A68     		ldr	r2, [r7, #4]
 783 000c 1204     		lsl	r2, r2, #16
 784 000e 120C     		lsr	r2, r2, #16
 785 0010 1A60     		str	r2, [r3]
 635:.\Generated_Source\PSoC4/QuadDec_1.c **** }
 786              		.loc 1 635 0
 787 0012 BD46     		mov	sp, r7
 788 0014 02B0     		add	sp, sp, #8
 789              		@ sp needed for prologue
 790 0016 80BD     		pop	{r7, pc}
ARM GAS  C:\DOCUME~1\Chuck\LOCALS~1\Temp\ccd20y4e.s 			page 26


 791              	.L43:
 792              		.align	2
 793              	.L42:
 794 0018 08010540 		.word	1074069768
 795              		.cfi_endproc
 796              	.LFE13:
 797              		.size	QuadDec_1_WriteCounter, .-QuadDec_1_WriteCounter
 798              		.section	.text.QuadDec_1_ReadCounter,"ax",%progbits
 799              		.align	2
 800              		.global	QuadDec_1_ReadCounter
 801              		.code	16
 802              		.thumb_func
 803              		.type	QuadDec_1_ReadCounter, %function
 804              	QuadDec_1_ReadCounter:
 805              	.LFB14:
 636:.\Generated_Source\PSoC4/QuadDec_1.c **** 
 637:.\Generated_Source\PSoC4/QuadDec_1.c **** 
 638:.\Generated_Source\PSoC4/QuadDec_1.c **** /*******************************************************************************
 639:.\Generated_Source\PSoC4/QuadDec_1.c **** * Function Name: QuadDec_1_ReadCounter
 640:.\Generated_Source\PSoC4/QuadDec_1.c **** ********************************************************************************
 641:.\Generated_Source\PSoC4/QuadDec_1.c **** *
 642:.\Generated_Source\PSoC4/QuadDec_1.c **** * Summary:
 643:.\Generated_Source\PSoC4/QuadDec_1.c **** *  Reads the current counter value.
 644:.\Generated_Source\PSoC4/QuadDec_1.c **** *
 645:.\Generated_Source\PSoC4/QuadDec_1.c **** * Parameters:
 646:.\Generated_Source\PSoC4/QuadDec_1.c **** *  None
 647:.\Generated_Source\PSoC4/QuadDec_1.c **** *
 648:.\Generated_Source\PSoC4/QuadDec_1.c **** * Return:
 649:.\Generated_Source\PSoC4/QuadDec_1.c **** *  Current counter value
 650:.\Generated_Source\PSoC4/QuadDec_1.c **** *
 651:.\Generated_Source\PSoC4/QuadDec_1.c **** *******************************************************************************/
 652:.\Generated_Source\PSoC4/QuadDec_1.c **** uint32 QuadDec_1_ReadCounter(void)
 653:.\Generated_Source\PSoC4/QuadDec_1.c **** {
 806              		.loc 1 653 0
 807              		.cfi_startproc
 808 0000 80B5     		push	{r7, lr}
 809              	.LCFI40:
 810              		.cfi_def_cfa_offset 8
 811              		.cfi_offset 7, -8
 812              		.cfi_offset 14, -4
 813 0002 00AF     		add	r7, sp, #0
 814              	.LCFI41:
 815              		.cfi_def_cfa_register 7
 654:.\Generated_Source\PSoC4/QuadDec_1.c ****     return (QuadDec_1_COUNTER_REG & QuadDec_1_16BIT_MASK);
 816              		.loc 1 654 0
 817 0004 034B     		ldr	r3, .L46
 818 0006 1B68     		ldr	r3, [r3]
 819 0008 1B04     		lsl	r3, r3, #16
 820 000a 1B0C     		lsr	r3, r3, #16
 655:.\Generated_Source\PSoC4/QuadDec_1.c **** }
 821              		.loc 1 655 0
 822 000c 181C     		mov	r0, r3
 823 000e BD46     		mov	sp, r7
 824              		@ sp needed for prologue
 825 0010 80BD     		pop	{r7, pc}
 826              	.L47:
 827 0012 C046     		.align	2
ARM GAS  C:\DOCUME~1\Chuck\LOCALS~1\Temp\ccd20y4e.s 			page 27


 828              	.L46:
 829 0014 08010540 		.word	1074069768
 830              		.cfi_endproc
 831              	.LFE14:
 832              		.size	QuadDec_1_ReadCounter, .-QuadDec_1_ReadCounter
 833              		.section	.text.QuadDec_1_SetCounterMode,"ax",%progbits
 834              		.align	2
 835              		.global	QuadDec_1_SetCounterMode
 836              		.code	16
 837              		.thumb_func
 838              		.type	QuadDec_1_SetCounterMode, %function
 839              	QuadDec_1_SetCounterMode:
 840              	.LFB15:
 656:.\Generated_Source\PSoC4/QuadDec_1.c **** 
 657:.\Generated_Source\PSoC4/QuadDec_1.c **** 
 658:.\Generated_Source\PSoC4/QuadDec_1.c **** /*******************************************************************************
 659:.\Generated_Source\PSoC4/QuadDec_1.c **** * Function Name: QuadDec_1_SetCounterMode
 660:.\Generated_Source\PSoC4/QuadDec_1.c **** ********************************************************************************
 661:.\Generated_Source\PSoC4/QuadDec_1.c **** *
 662:.\Generated_Source\PSoC4/QuadDec_1.c **** * Summary:
 663:.\Generated_Source\PSoC4/QuadDec_1.c **** *  Sets the counter mode.  Applicable to all modes except Quadrature Decoder
 664:.\Generated_Source\PSoC4/QuadDec_1.c **** *  and the PWM with a pseudo random output.
 665:.\Generated_Source\PSoC4/QuadDec_1.c **** *
 666:.\Generated_Source\PSoC4/QuadDec_1.c **** * Parameters:
 667:.\Generated_Source\PSoC4/QuadDec_1.c **** *  counterMode: Enumerated counter type values
 668:.\Generated_Source\PSoC4/QuadDec_1.c **** *   Values:
 669:.\Generated_Source\PSoC4/QuadDec_1.c **** *     - QuadDec_1_COUNT_UP       - Counts up
 670:.\Generated_Source\PSoC4/QuadDec_1.c **** *     - QuadDec_1_COUNT_DOWN     - Counts down
 671:.\Generated_Source\PSoC4/QuadDec_1.c **** *     - QuadDec_1_COUNT_UPDOWN0  - Counts up and down. Terminal count
 672:.\Generated_Source\PSoC4/QuadDec_1.c **** *                                         generated when counter reaches 0
 673:.\Generated_Source\PSoC4/QuadDec_1.c **** *     - QuadDec_1_COUNT_UPDOWN1  - Counts up and down. Terminal count
 674:.\Generated_Source\PSoC4/QuadDec_1.c **** *                                         generated both when counter reaches 0
 675:.\Generated_Source\PSoC4/QuadDec_1.c **** *                                         and period
 676:.\Generated_Source\PSoC4/QuadDec_1.c **** *
 677:.\Generated_Source\PSoC4/QuadDec_1.c **** * Return:
 678:.\Generated_Source\PSoC4/QuadDec_1.c **** *  None
 679:.\Generated_Source\PSoC4/QuadDec_1.c **** *
 680:.\Generated_Source\PSoC4/QuadDec_1.c **** *******************************************************************************/
 681:.\Generated_Source\PSoC4/QuadDec_1.c **** void QuadDec_1_SetCounterMode(uint32 counterMode)
 682:.\Generated_Source\PSoC4/QuadDec_1.c **** {
 841              		.loc 1 682 0
 842              		.cfi_startproc
 843 0000 90B5     		push	{r4, r7, lr}
 844              	.LCFI42:
 845              		.cfi_def_cfa_offset 12
 846              		.cfi_offset 4, -12
 847              		.cfi_offset 7, -8
 848              		.cfi_offset 14, -4
 849 0002 85B0     		sub	sp, sp, #20
 850              	.LCFI43:
 851              		.cfi_def_cfa_offset 32
 852 0004 00AF     		add	r7, sp, #0
 853              	.LCFI44:
 854              		.cfi_def_cfa_register 7
 855 0006 7860     		str	r0, [r7, #4]
 683:.\Generated_Source\PSoC4/QuadDec_1.c ****     uint8 enableInterrupts;
 684:.\Generated_Source\PSoC4/QuadDec_1.c **** 
ARM GAS  C:\DOCUME~1\Chuck\LOCALS~1\Temp\ccd20y4e.s 			page 28


 685:.\Generated_Source\PSoC4/QuadDec_1.c ****     enableInterrupts = CyEnterCriticalSection();
 856              		.loc 1 685 0
 857 0008 3C1C     		mov	r4, r7
 858 000a 0F34     		add	r4, r4, #15
 859 000c FFF7FEFF 		bl	CyEnterCriticalSection
 860 0010 031C     		mov	r3, r0
 861 0012 2370     		strb	r3, [r4]
 686:.\Generated_Source\PSoC4/QuadDec_1.c **** 
 687:.\Generated_Source\PSoC4/QuadDec_1.c ****     QuadDec_1_CONTROL_REG &= (uint32)~QuadDec_1_UPDOWN_MASK;
 862              		.loc 1 687 0
 863 0014 0A4B     		ldr	r3, .L49
 864 0016 0A4A     		ldr	r2, .L49
 865 0018 1168     		ldr	r1, [r2]
 866 001a 0A4A     		ldr	r2, .L49+4
 867 001c 0A40     		and	r2, r1
 868 001e 1A60     		str	r2, [r3]
 688:.\Generated_Source\PSoC4/QuadDec_1.c ****     QuadDec_1_CONTROL_REG |= counterMode;
 869              		.loc 1 688 0
 870 0020 074B     		ldr	r3, .L49
 871 0022 074A     		ldr	r2, .L49
 872 0024 1168     		ldr	r1, [r2]
 873 0026 7A68     		ldr	r2, [r7, #4]
 874 0028 0A43     		orr	r2, r1
 875 002a 1A60     		str	r2, [r3]
 689:.\Generated_Source\PSoC4/QuadDec_1.c **** 
 690:.\Generated_Source\PSoC4/QuadDec_1.c ****     CyExitCriticalSection(enableInterrupts);
 876              		.loc 1 690 0
 877 002c 3B1C     		mov	r3, r7
 878 002e 0F33     		add	r3, r3, #15
 879 0030 1B78     		ldrb	r3, [r3]
 880 0032 181C     		mov	r0, r3
 881 0034 FFF7FEFF 		bl	CyExitCriticalSection
 691:.\Generated_Source\PSoC4/QuadDec_1.c **** }
 882              		.loc 1 691 0
 883 0038 BD46     		mov	sp, r7
 884 003a 05B0     		add	sp, sp, #20
 885              		@ sp needed for prologue
 886 003c 90BD     		pop	{r4, r7, pc}
 887              	.L50:
 888 003e C046     		.align	2
 889              	.L49:
 890 0040 00010540 		.word	1074069760
 891 0044 FFFFFCFF 		.word	-196609
 892              		.cfi_endproc
 893              	.LFE15:
 894              		.size	QuadDec_1_SetCounterMode, .-QuadDec_1_SetCounterMode
 895              		.section	.text.QuadDec_1_WritePeriod,"ax",%progbits
 896              		.align	2
 897              		.global	QuadDec_1_WritePeriod
 898              		.code	16
 899              		.thumb_func
 900              		.type	QuadDec_1_WritePeriod, %function
 901              	QuadDec_1_WritePeriod:
 902              	.LFB16:
 692:.\Generated_Source\PSoC4/QuadDec_1.c **** 
 693:.\Generated_Source\PSoC4/QuadDec_1.c **** 
 694:.\Generated_Source\PSoC4/QuadDec_1.c **** /*******************************************************************************
ARM GAS  C:\DOCUME~1\Chuck\LOCALS~1\Temp\ccd20y4e.s 			page 29


 695:.\Generated_Source\PSoC4/QuadDec_1.c **** * Function Name: QuadDec_1_WritePeriod
 696:.\Generated_Source\PSoC4/QuadDec_1.c **** ********************************************************************************
 697:.\Generated_Source\PSoC4/QuadDec_1.c **** *
 698:.\Generated_Source\PSoC4/QuadDec_1.c **** * Summary:
 699:.\Generated_Source\PSoC4/QuadDec_1.c **** *  Writes the 16 bit period register with the new period value.
 700:.\Generated_Source\PSoC4/QuadDec_1.c **** *  To cause the counter to count for N cycles this register should be written
 701:.\Generated_Source\PSoC4/QuadDec_1.c **** *  with N-1 (counts from 0 to period inclusive).
 702:.\Generated_Source\PSoC4/QuadDec_1.c **** *
 703:.\Generated_Source\PSoC4/QuadDec_1.c **** * Parameters:
 704:.\Generated_Source\PSoC4/QuadDec_1.c **** *  period: Period value
 705:.\Generated_Source\PSoC4/QuadDec_1.c **** *
 706:.\Generated_Source\PSoC4/QuadDec_1.c **** * Return:
 707:.\Generated_Source\PSoC4/QuadDec_1.c **** *  None
 708:.\Generated_Source\PSoC4/QuadDec_1.c **** *
 709:.\Generated_Source\PSoC4/QuadDec_1.c **** *******************************************************************************/
 710:.\Generated_Source\PSoC4/QuadDec_1.c **** void QuadDec_1_WritePeriod(uint32 period)
 711:.\Generated_Source\PSoC4/QuadDec_1.c **** {
 903              		.loc 1 711 0
 904              		.cfi_startproc
 905 0000 80B5     		push	{r7, lr}
 906              	.LCFI45:
 907              		.cfi_def_cfa_offset 8
 908              		.cfi_offset 7, -8
 909              		.cfi_offset 14, -4
 910 0002 82B0     		sub	sp, sp, #8
 911              	.LCFI46:
 912              		.cfi_def_cfa_offset 16
 913 0004 00AF     		add	r7, sp, #0
 914              	.LCFI47:
 915              		.cfi_def_cfa_register 7
 916 0006 7860     		str	r0, [r7, #4]
 712:.\Generated_Source\PSoC4/QuadDec_1.c ****     QuadDec_1_PERIOD_REG = (period & QuadDec_1_16BIT_MASK);
 917              		.loc 1 712 0
 918 0008 034B     		ldr	r3, .L52
 919 000a 7A68     		ldr	r2, [r7, #4]
 920 000c 1204     		lsl	r2, r2, #16
 921 000e 120C     		lsr	r2, r2, #16
 922 0010 1A60     		str	r2, [r3]
 713:.\Generated_Source\PSoC4/QuadDec_1.c **** }
 923              		.loc 1 713 0
 924 0012 BD46     		mov	sp, r7
 925 0014 02B0     		add	sp, sp, #8
 926              		@ sp needed for prologue
 927 0016 80BD     		pop	{r7, pc}
 928              	.L53:
 929              		.align	2
 930              	.L52:
 931 0018 14010540 		.word	1074069780
 932              		.cfi_endproc
 933              	.LFE16:
 934              		.size	QuadDec_1_WritePeriod, .-QuadDec_1_WritePeriod
 935              		.section	.text.QuadDec_1_ReadPeriod,"ax",%progbits
 936              		.align	2
 937              		.global	QuadDec_1_ReadPeriod
 938              		.code	16
 939              		.thumb_func
 940              		.type	QuadDec_1_ReadPeriod, %function
ARM GAS  C:\DOCUME~1\Chuck\LOCALS~1\Temp\ccd20y4e.s 			page 30


 941              	QuadDec_1_ReadPeriod:
 942              	.LFB17:
 714:.\Generated_Source\PSoC4/QuadDec_1.c **** 
 715:.\Generated_Source\PSoC4/QuadDec_1.c **** 
 716:.\Generated_Source\PSoC4/QuadDec_1.c **** /*******************************************************************************
 717:.\Generated_Source\PSoC4/QuadDec_1.c **** * Function Name: QuadDec_1_ReadPeriod
 718:.\Generated_Source\PSoC4/QuadDec_1.c **** ********************************************************************************
 719:.\Generated_Source\PSoC4/QuadDec_1.c **** *
 720:.\Generated_Source\PSoC4/QuadDec_1.c **** * Summary:
 721:.\Generated_Source\PSoC4/QuadDec_1.c **** *  Reads the 16 bit period register.
 722:.\Generated_Source\PSoC4/QuadDec_1.c **** *
 723:.\Generated_Source\PSoC4/QuadDec_1.c **** * Parameters:
 724:.\Generated_Source\PSoC4/QuadDec_1.c **** *  None
 725:.\Generated_Source\PSoC4/QuadDec_1.c **** *
 726:.\Generated_Source\PSoC4/QuadDec_1.c **** * Return:
 727:.\Generated_Source\PSoC4/QuadDec_1.c **** *  Period value
 728:.\Generated_Source\PSoC4/QuadDec_1.c **** *
 729:.\Generated_Source\PSoC4/QuadDec_1.c **** *******************************************************************************/
 730:.\Generated_Source\PSoC4/QuadDec_1.c **** uint32 QuadDec_1_ReadPeriod(void)
 731:.\Generated_Source\PSoC4/QuadDec_1.c **** {
 943              		.loc 1 731 0
 944              		.cfi_startproc
 945 0000 80B5     		push	{r7, lr}
 946              	.LCFI48:
 947              		.cfi_def_cfa_offset 8
 948              		.cfi_offset 7, -8
 949              		.cfi_offset 14, -4
 950 0002 00AF     		add	r7, sp, #0
 951              	.LCFI49:
 952              		.cfi_def_cfa_register 7
 732:.\Generated_Source\PSoC4/QuadDec_1.c ****     return (QuadDec_1_PERIOD_REG & QuadDec_1_16BIT_MASK);
 953              		.loc 1 732 0
 954 0004 034B     		ldr	r3, .L56
 955 0006 1B68     		ldr	r3, [r3]
 956 0008 1B04     		lsl	r3, r3, #16
 957 000a 1B0C     		lsr	r3, r3, #16
 733:.\Generated_Source\PSoC4/QuadDec_1.c **** }
 958              		.loc 1 733 0
 959 000c 181C     		mov	r0, r3
 960 000e BD46     		mov	sp, r7
 961              		@ sp needed for prologue
 962 0010 80BD     		pop	{r7, pc}
 963              	.L57:
 964 0012 C046     		.align	2
 965              	.L56:
 966 0014 14010540 		.word	1074069780
 967              		.cfi_endproc
 968              	.LFE17:
 969              		.size	QuadDec_1_ReadPeriod, .-QuadDec_1_ReadPeriod
 970              		.section	.text.QuadDec_1_SetCompareSwap,"ax",%progbits
 971              		.align	2
 972              		.global	QuadDec_1_SetCompareSwap
 973              		.code	16
 974              		.thumb_func
 975              		.type	QuadDec_1_SetCompareSwap, %function
 976              	QuadDec_1_SetCompareSwap:
 977              	.LFB18:
ARM GAS  C:\DOCUME~1\Chuck\LOCALS~1\Temp\ccd20y4e.s 			page 31


 734:.\Generated_Source\PSoC4/QuadDec_1.c **** 
 735:.\Generated_Source\PSoC4/QuadDec_1.c **** 
 736:.\Generated_Source\PSoC4/QuadDec_1.c **** /*******************************************************************************
 737:.\Generated_Source\PSoC4/QuadDec_1.c **** * Function Name: QuadDec_1_SetCompareSwap
 738:.\Generated_Source\PSoC4/QuadDec_1.c **** ********************************************************************************
 739:.\Generated_Source\PSoC4/QuadDec_1.c **** *
 740:.\Generated_Source\PSoC4/QuadDec_1.c **** * Summary:
 741:.\Generated_Source\PSoC4/QuadDec_1.c **** *  Writes the register that controls whether the compare registers are
 742:.\Generated_Source\PSoC4/QuadDec_1.c **** *  swapped. When enabled in the Timer/Counter mode(without capture) the swap
 743:.\Generated_Source\PSoC4/QuadDec_1.c **** *  occurs at a TC event. In the PWM mode the swap occurs at the next TC event
 744:.\Generated_Source\PSoC4/QuadDec_1.c **** *  following a hardware switch event.
 745:.\Generated_Source\PSoC4/QuadDec_1.c **** *
 746:.\Generated_Source\PSoC4/QuadDec_1.c **** * Parameters:
 747:.\Generated_Source\PSoC4/QuadDec_1.c **** *  swapEnable
 748:.\Generated_Source\PSoC4/QuadDec_1.c **** *   Values:
 749:.\Generated_Source\PSoC4/QuadDec_1.c **** *     - 0 - Disable swap
 750:.\Generated_Source\PSoC4/QuadDec_1.c **** *     - 1 - Enable swap
 751:.\Generated_Source\PSoC4/QuadDec_1.c **** *
 752:.\Generated_Source\PSoC4/QuadDec_1.c **** * Return:
 753:.\Generated_Source\PSoC4/QuadDec_1.c **** *  None
 754:.\Generated_Source\PSoC4/QuadDec_1.c **** *
 755:.\Generated_Source\PSoC4/QuadDec_1.c **** *******************************************************************************/
 756:.\Generated_Source\PSoC4/QuadDec_1.c **** void QuadDec_1_SetCompareSwap(uint32 swapEnable)
 757:.\Generated_Source\PSoC4/QuadDec_1.c **** {
 978              		.loc 1 757 0
 979              		.cfi_startproc
 980 0000 90B5     		push	{r4, r7, lr}
 981              	.LCFI50:
 982              		.cfi_def_cfa_offset 12
 983              		.cfi_offset 4, -12
 984              		.cfi_offset 7, -8
 985              		.cfi_offset 14, -4
 986 0002 85B0     		sub	sp, sp, #20
 987              	.LCFI51:
 988              		.cfi_def_cfa_offset 32
 989 0004 00AF     		add	r7, sp, #0
 990              	.LCFI52:
 991              		.cfi_def_cfa_register 7
 992 0006 7860     		str	r0, [r7, #4]
 758:.\Generated_Source\PSoC4/QuadDec_1.c ****     uint8 enableInterrupts;
 759:.\Generated_Source\PSoC4/QuadDec_1.c **** 
 760:.\Generated_Source\PSoC4/QuadDec_1.c ****     enableInterrupts = CyEnterCriticalSection();
 993              		.loc 1 760 0
 994 0008 3C1C     		mov	r4, r7
 995 000a 0F34     		add	r4, r4, #15
 996 000c FFF7FEFF 		bl	CyEnterCriticalSection
 997 0010 031C     		mov	r3, r0
 998 0012 2370     		strb	r3, [r4]
 761:.\Generated_Source\PSoC4/QuadDec_1.c **** 
 762:.\Generated_Source\PSoC4/QuadDec_1.c ****     QuadDec_1_CONTROL_REG &= (uint32)~QuadDec_1_RELOAD_CC_MASK;
 999              		.loc 1 762 0
 1000 0014 0B4B     		ldr	r3, .L59
 1001 0016 0B4A     		ldr	r2, .L59
 1002 0018 1268     		ldr	r2, [r2]
 1003 001a 0121     		mov	r1, #1
 1004 001c 8A43     		bic	r2, r1
 1005 001e 1A60     		str	r2, [r3]
ARM GAS  C:\DOCUME~1\Chuck\LOCALS~1\Temp\ccd20y4e.s 			page 32


 763:.\Generated_Source\PSoC4/QuadDec_1.c ****     QuadDec_1_CONTROL_REG |= (swapEnable & QuadDec_1_1BIT_MASK);
 1006              		.loc 1 763 0
 1007 0020 084B     		ldr	r3, .L59
 1008 0022 084A     		ldr	r2, .L59
 1009 0024 1168     		ldr	r1, [r2]
 1010 0026 7868     		ldr	r0, [r7, #4]
 1011 0028 0122     		mov	r2, #1
 1012 002a 0240     		and	r2, r0
 1013 002c 0A43     		orr	r2, r1
 1014 002e 1A60     		str	r2, [r3]
 764:.\Generated_Source\PSoC4/QuadDec_1.c **** 
 765:.\Generated_Source\PSoC4/QuadDec_1.c ****     CyExitCriticalSection(enableInterrupts);
 1015              		.loc 1 765 0
 1016 0030 3B1C     		mov	r3, r7
 1017 0032 0F33     		add	r3, r3, #15
 1018 0034 1B78     		ldrb	r3, [r3]
 1019 0036 181C     		mov	r0, r3
 1020 0038 FFF7FEFF 		bl	CyExitCriticalSection
 766:.\Generated_Source\PSoC4/QuadDec_1.c **** }
 1021              		.loc 1 766 0
 1022 003c BD46     		mov	sp, r7
 1023 003e 05B0     		add	sp, sp, #20
 1024              		@ sp needed for prologue
 1025 0040 90BD     		pop	{r4, r7, pc}
 1026              	.L60:
 1027 0042 C046     		.align	2
 1028              	.L59:
 1029 0044 00010540 		.word	1074069760
 1030              		.cfi_endproc
 1031              	.LFE18:
 1032              		.size	QuadDec_1_SetCompareSwap, .-QuadDec_1_SetCompareSwap
 1033              		.section	.text.QuadDec_1_WritePeriodBuf,"ax",%progbits
 1034              		.align	2
 1035              		.global	QuadDec_1_WritePeriodBuf
 1036              		.code	16
 1037              		.thumb_func
 1038              		.type	QuadDec_1_WritePeriodBuf, %function
 1039              	QuadDec_1_WritePeriodBuf:
 1040              	.LFB19:
 767:.\Generated_Source\PSoC4/QuadDec_1.c **** 
 768:.\Generated_Source\PSoC4/QuadDec_1.c **** 
 769:.\Generated_Source\PSoC4/QuadDec_1.c **** /*******************************************************************************
 770:.\Generated_Source\PSoC4/QuadDec_1.c **** * Function Name: QuadDec_1_WritePeriodBuf
 771:.\Generated_Source\PSoC4/QuadDec_1.c **** ********************************************************************************
 772:.\Generated_Source\PSoC4/QuadDec_1.c **** *
 773:.\Generated_Source\PSoC4/QuadDec_1.c **** * Summary:
 774:.\Generated_Source\PSoC4/QuadDec_1.c **** *  Writes the 16 bit period buf register with the new period value.
 775:.\Generated_Source\PSoC4/QuadDec_1.c **** *
 776:.\Generated_Source\PSoC4/QuadDec_1.c **** * Parameters:
 777:.\Generated_Source\PSoC4/QuadDec_1.c **** *  periodBuf: Period value
 778:.\Generated_Source\PSoC4/QuadDec_1.c **** *
 779:.\Generated_Source\PSoC4/QuadDec_1.c **** * Return:
 780:.\Generated_Source\PSoC4/QuadDec_1.c **** *  None
 781:.\Generated_Source\PSoC4/QuadDec_1.c **** *
 782:.\Generated_Source\PSoC4/QuadDec_1.c **** *******************************************************************************/
 783:.\Generated_Source\PSoC4/QuadDec_1.c **** void QuadDec_1_WritePeriodBuf(uint32 periodBuf)
 784:.\Generated_Source\PSoC4/QuadDec_1.c **** {
ARM GAS  C:\DOCUME~1\Chuck\LOCALS~1\Temp\ccd20y4e.s 			page 33


 1041              		.loc 1 784 0
 1042              		.cfi_startproc
 1043 0000 80B5     		push	{r7, lr}
 1044              	.LCFI53:
 1045              		.cfi_def_cfa_offset 8
 1046              		.cfi_offset 7, -8
 1047              		.cfi_offset 14, -4
 1048 0002 82B0     		sub	sp, sp, #8
 1049              	.LCFI54:
 1050              		.cfi_def_cfa_offset 16
 1051 0004 00AF     		add	r7, sp, #0
 1052              	.LCFI55:
 1053              		.cfi_def_cfa_register 7
 1054 0006 7860     		str	r0, [r7, #4]
 785:.\Generated_Source\PSoC4/QuadDec_1.c ****     QuadDec_1_PERIOD_BUF_REG = (periodBuf & QuadDec_1_16BIT_MASK);
 1055              		.loc 1 785 0
 1056 0008 034B     		ldr	r3, .L62
 1057 000a 7A68     		ldr	r2, [r7, #4]
 1058 000c 1204     		lsl	r2, r2, #16
 1059 000e 120C     		lsr	r2, r2, #16
 1060 0010 1A60     		str	r2, [r3]
 786:.\Generated_Source\PSoC4/QuadDec_1.c **** }
 1061              		.loc 1 786 0
 1062 0012 BD46     		mov	sp, r7
 1063 0014 02B0     		add	sp, sp, #8
 1064              		@ sp needed for prologue
 1065 0016 80BD     		pop	{r7, pc}
 1066              	.L63:
 1067              		.align	2
 1068              	.L62:
 1069 0018 18010540 		.word	1074069784
 1070              		.cfi_endproc
 1071              	.LFE19:
 1072              		.size	QuadDec_1_WritePeriodBuf, .-QuadDec_1_WritePeriodBuf
 1073              		.section	.text.QuadDec_1_ReadPeriodBuf,"ax",%progbits
 1074              		.align	2
 1075              		.global	QuadDec_1_ReadPeriodBuf
 1076              		.code	16
 1077              		.thumb_func
 1078              		.type	QuadDec_1_ReadPeriodBuf, %function
 1079              	QuadDec_1_ReadPeriodBuf:
 1080              	.LFB20:
 787:.\Generated_Source\PSoC4/QuadDec_1.c **** 
 788:.\Generated_Source\PSoC4/QuadDec_1.c **** 
 789:.\Generated_Source\PSoC4/QuadDec_1.c **** /*******************************************************************************
 790:.\Generated_Source\PSoC4/QuadDec_1.c **** * Function Name: QuadDec_1_ReadPeriodBuf
 791:.\Generated_Source\PSoC4/QuadDec_1.c **** ********************************************************************************
 792:.\Generated_Source\PSoC4/QuadDec_1.c **** *
 793:.\Generated_Source\PSoC4/QuadDec_1.c **** * Summary:
 794:.\Generated_Source\PSoC4/QuadDec_1.c **** *  Reads the 16 bit period buf register.
 795:.\Generated_Source\PSoC4/QuadDec_1.c **** *
 796:.\Generated_Source\PSoC4/QuadDec_1.c **** * Parameters:
 797:.\Generated_Source\PSoC4/QuadDec_1.c **** *  None
 798:.\Generated_Source\PSoC4/QuadDec_1.c **** *
 799:.\Generated_Source\PSoC4/QuadDec_1.c **** * Return:
 800:.\Generated_Source\PSoC4/QuadDec_1.c **** *  Period value
 801:.\Generated_Source\PSoC4/QuadDec_1.c **** *
ARM GAS  C:\DOCUME~1\Chuck\LOCALS~1\Temp\ccd20y4e.s 			page 34


 802:.\Generated_Source\PSoC4/QuadDec_1.c **** *******************************************************************************/
 803:.\Generated_Source\PSoC4/QuadDec_1.c **** uint32 QuadDec_1_ReadPeriodBuf(void)
 804:.\Generated_Source\PSoC4/QuadDec_1.c **** {
 1081              		.loc 1 804 0
 1082              		.cfi_startproc
 1083 0000 80B5     		push	{r7, lr}
 1084              	.LCFI56:
 1085              		.cfi_def_cfa_offset 8
 1086              		.cfi_offset 7, -8
 1087              		.cfi_offset 14, -4
 1088 0002 00AF     		add	r7, sp, #0
 1089              	.LCFI57:
 1090              		.cfi_def_cfa_register 7
 805:.\Generated_Source\PSoC4/QuadDec_1.c ****     return (QuadDec_1_PERIOD_BUF_REG & QuadDec_1_16BIT_MASK);
 1091              		.loc 1 805 0
 1092 0004 034B     		ldr	r3, .L66
 1093 0006 1B68     		ldr	r3, [r3]
 1094 0008 1B04     		lsl	r3, r3, #16
 1095 000a 1B0C     		lsr	r3, r3, #16
 806:.\Generated_Source\PSoC4/QuadDec_1.c **** }
 1096              		.loc 1 806 0
 1097 000c 181C     		mov	r0, r3
 1098 000e BD46     		mov	sp, r7
 1099              		@ sp needed for prologue
 1100 0010 80BD     		pop	{r7, pc}
 1101              	.L67:
 1102 0012 C046     		.align	2
 1103              	.L66:
 1104 0014 18010540 		.word	1074069784
 1105              		.cfi_endproc
 1106              	.LFE20:
 1107              		.size	QuadDec_1_ReadPeriodBuf, .-QuadDec_1_ReadPeriodBuf
 1108              		.section	.text.QuadDec_1_SetPeriodSwap,"ax",%progbits
 1109              		.align	2
 1110              		.global	QuadDec_1_SetPeriodSwap
 1111              		.code	16
 1112              		.thumb_func
 1113              		.type	QuadDec_1_SetPeriodSwap, %function
 1114              	QuadDec_1_SetPeriodSwap:
 1115              	.LFB21:
 807:.\Generated_Source\PSoC4/QuadDec_1.c **** 
 808:.\Generated_Source\PSoC4/QuadDec_1.c **** 
 809:.\Generated_Source\PSoC4/QuadDec_1.c **** /*******************************************************************************
 810:.\Generated_Source\PSoC4/QuadDec_1.c **** * Function Name: QuadDec_1_SetPeriodSwap
 811:.\Generated_Source\PSoC4/QuadDec_1.c **** ********************************************************************************
 812:.\Generated_Source\PSoC4/QuadDec_1.c **** *
 813:.\Generated_Source\PSoC4/QuadDec_1.c **** * Summary:
 814:.\Generated_Source\PSoC4/QuadDec_1.c **** *  Writes the register that controls whether the period registers are
 815:.\Generated_Source\PSoC4/QuadDec_1.c **** *  swapped. When enabled in Timer/Counter mode the swap occurs at a TC event.
 816:.\Generated_Source\PSoC4/QuadDec_1.c **** *  In the PWM mode the swap occurs at the next TC event following a hardware
 817:.\Generated_Source\PSoC4/QuadDec_1.c **** *  switch event.
 818:.\Generated_Source\PSoC4/QuadDec_1.c **** *
 819:.\Generated_Source\PSoC4/QuadDec_1.c **** * Parameters:
 820:.\Generated_Source\PSoC4/QuadDec_1.c **** *  swapEnable
 821:.\Generated_Source\PSoC4/QuadDec_1.c **** *   Values:
 822:.\Generated_Source\PSoC4/QuadDec_1.c **** *     - 0 - Disable swap
 823:.\Generated_Source\PSoC4/QuadDec_1.c **** *     - 1 - Enable swap
ARM GAS  C:\DOCUME~1\Chuck\LOCALS~1\Temp\ccd20y4e.s 			page 35


 824:.\Generated_Source\PSoC4/QuadDec_1.c **** *
 825:.\Generated_Source\PSoC4/QuadDec_1.c **** * Return:
 826:.\Generated_Source\PSoC4/QuadDec_1.c **** *  None
 827:.\Generated_Source\PSoC4/QuadDec_1.c **** *
 828:.\Generated_Source\PSoC4/QuadDec_1.c **** *******************************************************************************/
 829:.\Generated_Source\PSoC4/QuadDec_1.c **** void QuadDec_1_SetPeriodSwap(uint32 swapEnable)
 830:.\Generated_Source\PSoC4/QuadDec_1.c **** {
 1116              		.loc 1 830 0
 1117              		.cfi_startproc
 1118 0000 90B5     		push	{r4, r7, lr}
 1119              	.LCFI58:
 1120              		.cfi_def_cfa_offset 12
 1121              		.cfi_offset 4, -12
 1122              		.cfi_offset 7, -8
 1123              		.cfi_offset 14, -4
 1124 0002 85B0     		sub	sp, sp, #20
 1125              	.LCFI59:
 1126              		.cfi_def_cfa_offset 32
 1127 0004 00AF     		add	r7, sp, #0
 1128              	.LCFI60:
 1129              		.cfi_def_cfa_register 7
 1130 0006 7860     		str	r0, [r7, #4]
 831:.\Generated_Source\PSoC4/QuadDec_1.c ****     uint8 enableInterrupts;
 832:.\Generated_Source\PSoC4/QuadDec_1.c **** 
 833:.\Generated_Source\PSoC4/QuadDec_1.c ****     enableInterrupts = CyEnterCriticalSection();
 1131              		.loc 1 833 0
 1132 0008 3C1C     		mov	r4, r7
 1133 000a 0F34     		add	r4, r4, #15
 1134 000c FFF7FEFF 		bl	CyEnterCriticalSection
 1135 0010 031C     		mov	r3, r0
 1136 0012 2370     		strb	r3, [r4]
 834:.\Generated_Source\PSoC4/QuadDec_1.c **** 
 835:.\Generated_Source\PSoC4/QuadDec_1.c ****     QuadDec_1_CONTROL_REG &= (uint32)~QuadDec_1_RELOAD_PERIOD_MASK;
 1137              		.loc 1 835 0
 1138 0014 0B4B     		ldr	r3, .L69
 1139 0016 0B4A     		ldr	r2, .L69
 1140 0018 1268     		ldr	r2, [r2]
 1141 001a 0221     		mov	r1, #2
 1142 001c 8A43     		bic	r2, r1
 1143 001e 1A60     		str	r2, [r3]
 836:.\Generated_Source\PSoC4/QuadDec_1.c ****     QuadDec_1_CONTROL_REG |= ((uint32)((swapEnable & QuadDec_1_1BIT_MASK) <<
 1144              		.loc 1 836 0
 1145 0020 084B     		ldr	r3, .L69
 1146 0022 084A     		ldr	r2, .L69
 1147 0024 1168     		ldr	r1, [r2]
 1148 0026 7868     		ldr	r0, [r7, #4]
 1149 0028 0122     		mov	r2, #1
 1150 002a 0240     		and	r2, r0
 1151 002c 5200     		lsl	r2, r2, #1
 1152 002e 0A43     		orr	r2, r1
 1153 0030 1A60     		str	r2, [r3]
 837:.\Generated_Source\PSoC4/QuadDec_1.c ****                                                             QuadDec_1_RELOAD_PERIOD_SHIFT));
 838:.\Generated_Source\PSoC4/QuadDec_1.c **** 
 839:.\Generated_Source\PSoC4/QuadDec_1.c ****     CyExitCriticalSection(enableInterrupts);
 1154              		.loc 1 839 0
 1155 0032 3B1C     		mov	r3, r7
 1156 0034 0F33     		add	r3, r3, #15
ARM GAS  C:\DOCUME~1\Chuck\LOCALS~1\Temp\ccd20y4e.s 			page 36


 1157 0036 1B78     		ldrb	r3, [r3]
 1158 0038 181C     		mov	r0, r3
 1159 003a FFF7FEFF 		bl	CyExitCriticalSection
 840:.\Generated_Source\PSoC4/QuadDec_1.c **** }
 1160              		.loc 1 840 0
 1161 003e BD46     		mov	sp, r7
 1162 0040 05B0     		add	sp, sp, #20
 1163              		@ sp needed for prologue
 1164 0042 90BD     		pop	{r4, r7, pc}
 1165              	.L70:
 1166              		.align	2
 1167              	.L69:
 1168 0044 00010540 		.word	1074069760
 1169              		.cfi_endproc
 1170              	.LFE21:
 1171              		.size	QuadDec_1_SetPeriodSwap, .-QuadDec_1_SetPeriodSwap
 1172              		.section	.text.QuadDec_1_WriteCompare,"ax",%progbits
 1173              		.align	2
 1174              		.global	QuadDec_1_WriteCompare
 1175              		.code	16
 1176              		.thumb_func
 1177              		.type	QuadDec_1_WriteCompare, %function
 1178              	QuadDec_1_WriteCompare:
 1179              	.LFB22:
 841:.\Generated_Source\PSoC4/QuadDec_1.c **** 
 842:.\Generated_Source\PSoC4/QuadDec_1.c **** 
 843:.\Generated_Source\PSoC4/QuadDec_1.c **** /*******************************************************************************
 844:.\Generated_Source\PSoC4/QuadDec_1.c **** * Function Name: QuadDec_1_WriteCompare
 845:.\Generated_Source\PSoC4/QuadDec_1.c **** ********************************************************************************
 846:.\Generated_Source\PSoC4/QuadDec_1.c **** *
 847:.\Generated_Source\PSoC4/QuadDec_1.c **** * Summary:
 848:.\Generated_Source\PSoC4/QuadDec_1.c **** *  Writes the 16 bit compare register with the new compare value. Not
 849:.\Generated_Source\PSoC4/QuadDec_1.c **** *  applicable for Timer/Counter with Capture or in Quadrature Decoder modes.
 850:.\Generated_Source\PSoC4/QuadDec_1.c **** *
 851:.\Generated_Source\PSoC4/QuadDec_1.c **** * Parameters:
 852:.\Generated_Source\PSoC4/QuadDec_1.c **** *  compare: Compare value
 853:.\Generated_Source\PSoC4/QuadDec_1.c **** *
 854:.\Generated_Source\PSoC4/QuadDec_1.c **** * Return:
 855:.\Generated_Source\PSoC4/QuadDec_1.c **** *  None
 856:.\Generated_Source\PSoC4/QuadDec_1.c **** *
 857:.\Generated_Source\PSoC4/QuadDec_1.c **** *******************************************************************************/
 858:.\Generated_Source\PSoC4/QuadDec_1.c **** void QuadDec_1_WriteCompare(uint32 compare)
 859:.\Generated_Source\PSoC4/QuadDec_1.c **** {
 1180              		.loc 1 859 0
 1181              		.cfi_startproc
 1182 0000 80B5     		push	{r7, lr}
 1183              	.LCFI61:
 1184              		.cfi_def_cfa_offset 8
 1185              		.cfi_offset 7, -8
 1186              		.cfi_offset 14, -4
 1187 0002 82B0     		sub	sp, sp, #8
 1188              	.LCFI62:
 1189              		.cfi_def_cfa_offset 16
 1190 0004 00AF     		add	r7, sp, #0
 1191              	.LCFI63:
 1192              		.cfi_def_cfa_register 7
 1193 0006 7860     		str	r0, [r7, #4]
ARM GAS  C:\DOCUME~1\Chuck\LOCALS~1\Temp\ccd20y4e.s 			page 37


 860:.\Generated_Source\PSoC4/QuadDec_1.c ****     #if (QuadDec_1_CY_TCPWM_V2)
 861:.\Generated_Source\PSoC4/QuadDec_1.c ****         uint32 currentMode;
 862:.\Generated_Source\PSoC4/QuadDec_1.c ****     #endif /* (QuadDec_1_CY_TCPWM_V2) */
 863:.\Generated_Source\PSoC4/QuadDec_1.c **** 
 864:.\Generated_Source\PSoC4/QuadDec_1.c ****     #if (QuadDec_1_CY_TCPWM_V2)
 865:.\Generated_Source\PSoC4/QuadDec_1.c ****         currentMode = ((QuadDec_1_CONTROL_REG & QuadDec_1_UPDOWN_MASK) >> QuadDec_1_UPDOWN_SHIFT);
 866:.\Generated_Source\PSoC4/QuadDec_1.c **** 
 867:.\Generated_Source\PSoC4/QuadDec_1.c ****         if (QuadDec_1__COUNT_DOWN == currentMode)
 868:.\Generated_Source\PSoC4/QuadDec_1.c ****         {
 869:.\Generated_Source\PSoC4/QuadDec_1.c ****             QuadDec_1_COMP_CAP_REG = ((compare + 1u) & QuadDec_1_16BIT_MASK);
 870:.\Generated_Source\PSoC4/QuadDec_1.c ****         }
 871:.\Generated_Source\PSoC4/QuadDec_1.c ****         else if (QuadDec_1__COUNT_UP == currentMode)
 872:.\Generated_Source\PSoC4/QuadDec_1.c ****         {
 873:.\Generated_Source\PSoC4/QuadDec_1.c ****             QuadDec_1_COMP_CAP_REG = ((compare - 1u) & QuadDec_1_16BIT_MASK);
 874:.\Generated_Source\PSoC4/QuadDec_1.c ****         }
 875:.\Generated_Source\PSoC4/QuadDec_1.c ****         else
 876:.\Generated_Source\PSoC4/QuadDec_1.c ****         {
 877:.\Generated_Source\PSoC4/QuadDec_1.c ****             QuadDec_1_COMP_CAP_REG = (compare & QuadDec_1_16BIT_MASK);
 878:.\Generated_Source\PSoC4/QuadDec_1.c ****         }
 879:.\Generated_Source\PSoC4/QuadDec_1.c ****     #else
 880:.\Generated_Source\PSoC4/QuadDec_1.c ****         QuadDec_1_COMP_CAP_REG = (compare & QuadDec_1_16BIT_MASK);
 1194              		.loc 1 880 0
 1195 0008 034B     		ldr	r3, .L72
 1196 000a 7A68     		ldr	r2, [r7, #4]
 1197 000c 1204     		lsl	r2, r2, #16
 1198 000e 120C     		lsr	r2, r2, #16
 1199 0010 1A60     		str	r2, [r3]
 881:.\Generated_Source\PSoC4/QuadDec_1.c ****     #endif /* (QuadDec_1_CY_TCPWM_V2) */
 882:.\Generated_Source\PSoC4/QuadDec_1.c **** }
 1200              		.loc 1 882 0
 1201 0012 BD46     		mov	sp, r7
 1202 0014 02B0     		add	sp, sp, #8
 1203              		@ sp needed for prologue
 1204 0016 80BD     		pop	{r7, pc}
 1205              	.L73:
 1206              		.align	2
 1207              	.L72:
 1208 0018 0C010540 		.word	1074069772
 1209              		.cfi_endproc
 1210              	.LFE22:
 1211              		.size	QuadDec_1_WriteCompare, .-QuadDec_1_WriteCompare
 1212              		.section	.text.QuadDec_1_ReadCompare,"ax",%progbits
 1213              		.align	2
 1214              		.global	QuadDec_1_ReadCompare
 1215              		.code	16
 1216              		.thumb_func
 1217              		.type	QuadDec_1_ReadCompare, %function
 1218              	QuadDec_1_ReadCompare:
 1219              	.LFB23:
 883:.\Generated_Source\PSoC4/QuadDec_1.c **** 
 884:.\Generated_Source\PSoC4/QuadDec_1.c **** 
 885:.\Generated_Source\PSoC4/QuadDec_1.c **** /*******************************************************************************
 886:.\Generated_Source\PSoC4/QuadDec_1.c **** * Function Name: QuadDec_1_ReadCompare
 887:.\Generated_Source\PSoC4/QuadDec_1.c **** ********************************************************************************
 888:.\Generated_Source\PSoC4/QuadDec_1.c **** *
 889:.\Generated_Source\PSoC4/QuadDec_1.c **** * Summary:
 890:.\Generated_Source\PSoC4/QuadDec_1.c **** *  Reads the compare register. Not applicable for Timer/Counter with Capture
ARM GAS  C:\DOCUME~1\Chuck\LOCALS~1\Temp\ccd20y4e.s 			page 38


 891:.\Generated_Source\PSoC4/QuadDec_1.c **** *  or in Quadrature Decoder modes.
 892:.\Generated_Source\PSoC4/QuadDec_1.c **** *
 893:.\Generated_Source\PSoC4/QuadDec_1.c **** * Parameters:
 894:.\Generated_Source\PSoC4/QuadDec_1.c **** *  None
 895:.\Generated_Source\PSoC4/QuadDec_1.c **** *
 896:.\Generated_Source\PSoC4/QuadDec_1.c **** * Return:
 897:.\Generated_Source\PSoC4/QuadDec_1.c **** *  Compare value
 898:.\Generated_Source\PSoC4/QuadDec_1.c **** *
 899:.\Generated_Source\PSoC4/QuadDec_1.c **** *******************************************************************************/
 900:.\Generated_Source\PSoC4/QuadDec_1.c **** uint32 QuadDec_1_ReadCompare(void)
 901:.\Generated_Source\PSoC4/QuadDec_1.c **** {
 1220              		.loc 1 901 0
 1221              		.cfi_startproc
 1222 0000 80B5     		push	{r7, lr}
 1223              	.LCFI64:
 1224              		.cfi_def_cfa_offset 8
 1225              		.cfi_offset 7, -8
 1226              		.cfi_offset 14, -4
 1227 0002 00AF     		add	r7, sp, #0
 1228              	.LCFI65:
 1229              		.cfi_def_cfa_register 7
 902:.\Generated_Source\PSoC4/QuadDec_1.c ****     #if (QuadDec_1_CY_TCPWM_V2)
 903:.\Generated_Source\PSoC4/QuadDec_1.c ****         uint32 currentMode;
 904:.\Generated_Source\PSoC4/QuadDec_1.c ****         uint32 regVal;
 905:.\Generated_Source\PSoC4/QuadDec_1.c ****     #endif /* (QuadDec_1_CY_TCPWM_V2) */
 906:.\Generated_Source\PSoC4/QuadDec_1.c **** 
 907:.\Generated_Source\PSoC4/QuadDec_1.c ****     #if (QuadDec_1_CY_TCPWM_V2)
 908:.\Generated_Source\PSoC4/QuadDec_1.c ****         currentMode = ((QuadDec_1_CONTROL_REG & QuadDec_1_UPDOWN_MASK) >> QuadDec_1_UPDOWN_SHIFT);
 909:.\Generated_Source\PSoC4/QuadDec_1.c **** 
 910:.\Generated_Source\PSoC4/QuadDec_1.c ****         if (QuadDec_1__COUNT_DOWN == currentMode)
 911:.\Generated_Source\PSoC4/QuadDec_1.c ****         {
 912:.\Generated_Source\PSoC4/QuadDec_1.c ****             regVal = ((QuadDec_1_COMP_CAP_REG - 1u) & QuadDec_1_16BIT_MASK);
 913:.\Generated_Source\PSoC4/QuadDec_1.c ****         }
 914:.\Generated_Source\PSoC4/QuadDec_1.c ****         else if (QuadDec_1__COUNT_UP == currentMode)
 915:.\Generated_Source\PSoC4/QuadDec_1.c ****         {
 916:.\Generated_Source\PSoC4/QuadDec_1.c ****             regVal = ((QuadDec_1_COMP_CAP_REG + 1u) & QuadDec_1_16BIT_MASK);
 917:.\Generated_Source\PSoC4/QuadDec_1.c ****         }
 918:.\Generated_Source\PSoC4/QuadDec_1.c ****         else
 919:.\Generated_Source\PSoC4/QuadDec_1.c ****         {
 920:.\Generated_Source\PSoC4/QuadDec_1.c ****             regVal = (QuadDec_1_COMP_CAP_REG & QuadDec_1_16BIT_MASK);
 921:.\Generated_Source\PSoC4/QuadDec_1.c ****         }
 922:.\Generated_Source\PSoC4/QuadDec_1.c ****         return (regVal);
 923:.\Generated_Source\PSoC4/QuadDec_1.c ****     #else
 924:.\Generated_Source\PSoC4/QuadDec_1.c ****         return (QuadDec_1_COMP_CAP_REG & QuadDec_1_16BIT_MASK);
 1230              		.loc 1 924 0
 1231 0004 034B     		ldr	r3, .L76
 1232 0006 1B68     		ldr	r3, [r3]
 1233 0008 1B04     		lsl	r3, r3, #16
 1234 000a 1B0C     		lsr	r3, r3, #16
 925:.\Generated_Source\PSoC4/QuadDec_1.c ****     #endif /* (QuadDec_1_CY_TCPWM_V2) */
 926:.\Generated_Source\PSoC4/QuadDec_1.c **** }
 1235              		.loc 1 926 0
 1236 000c 181C     		mov	r0, r3
 1237 000e BD46     		mov	sp, r7
 1238              		@ sp needed for prologue
 1239 0010 80BD     		pop	{r7, pc}
 1240              	.L77:
ARM GAS  C:\DOCUME~1\Chuck\LOCALS~1\Temp\ccd20y4e.s 			page 39


 1241 0012 C046     		.align	2
 1242              	.L76:
 1243 0014 0C010540 		.word	1074069772
 1244              		.cfi_endproc
 1245              	.LFE23:
 1246              		.size	QuadDec_1_ReadCompare, .-QuadDec_1_ReadCompare
 1247              		.section	.text.QuadDec_1_WriteCompareBuf,"ax",%progbits
 1248              		.align	2
 1249              		.global	QuadDec_1_WriteCompareBuf
 1250              		.code	16
 1251              		.thumb_func
 1252              		.type	QuadDec_1_WriteCompareBuf, %function
 1253              	QuadDec_1_WriteCompareBuf:
 1254              	.LFB24:
 927:.\Generated_Source\PSoC4/QuadDec_1.c **** 
 928:.\Generated_Source\PSoC4/QuadDec_1.c **** 
 929:.\Generated_Source\PSoC4/QuadDec_1.c **** /*******************************************************************************
 930:.\Generated_Source\PSoC4/QuadDec_1.c **** * Function Name: QuadDec_1_WriteCompareBuf
 931:.\Generated_Source\PSoC4/QuadDec_1.c **** ********************************************************************************
 932:.\Generated_Source\PSoC4/QuadDec_1.c **** *
 933:.\Generated_Source\PSoC4/QuadDec_1.c **** * Summary:
 934:.\Generated_Source\PSoC4/QuadDec_1.c **** *  Writes the 16 bit compare buffer register with the new compare value. Not
 935:.\Generated_Source\PSoC4/QuadDec_1.c **** *  applicable for Timer/Counter with Capture or in Quadrature Decoder modes.
 936:.\Generated_Source\PSoC4/QuadDec_1.c **** *
 937:.\Generated_Source\PSoC4/QuadDec_1.c **** * Parameters:
 938:.\Generated_Source\PSoC4/QuadDec_1.c **** *  compareBuf: Compare value
 939:.\Generated_Source\PSoC4/QuadDec_1.c **** *
 940:.\Generated_Source\PSoC4/QuadDec_1.c **** * Return:
 941:.\Generated_Source\PSoC4/QuadDec_1.c **** *  None
 942:.\Generated_Source\PSoC4/QuadDec_1.c **** *
 943:.\Generated_Source\PSoC4/QuadDec_1.c **** *******************************************************************************/
 944:.\Generated_Source\PSoC4/QuadDec_1.c **** void QuadDec_1_WriteCompareBuf(uint32 compareBuf)
 945:.\Generated_Source\PSoC4/QuadDec_1.c **** {
 1255              		.loc 1 945 0
 1256              		.cfi_startproc
 1257 0000 80B5     		push	{r7, lr}
 1258              	.LCFI66:
 1259              		.cfi_def_cfa_offset 8
 1260              		.cfi_offset 7, -8
 1261              		.cfi_offset 14, -4
 1262 0002 82B0     		sub	sp, sp, #8
 1263              	.LCFI67:
 1264              		.cfi_def_cfa_offset 16
 1265 0004 00AF     		add	r7, sp, #0
 1266              	.LCFI68:
 1267              		.cfi_def_cfa_register 7
 1268 0006 7860     		str	r0, [r7, #4]
 946:.\Generated_Source\PSoC4/QuadDec_1.c ****     #if (QuadDec_1_CY_TCPWM_V2)
 947:.\Generated_Source\PSoC4/QuadDec_1.c ****         uint32 currentMode;
 948:.\Generated_Source\PSoC4/QuadDec_1.c ****     #endif /* (QuadDec_1_CY_TCPWM_V2) */
 949:.\Generated_Source\PSoC4/QuadDec_1.c **** 
 950:.\Generated_Source\PSoC4/QuadDec_1.c ****     #if (QuadDec_1_CY_TCPWM_V2)
 951:.\Generated_Source\PSoC4/QuadDec_1.c ****         currentMode = ((QuadDec_1_CONTROL_REG & QuadDec_1_UPDOWN_MASK) >> QuadDec_1_UPDOWN_SHIFT);
 952:.\Generated_Source\PSoC4/QuadDec_1.c **** 
 953:.\Generated_Source\PSoC4/QuadDec_1.c ****         if (QuadDec_1__COUNT_DOWN == currentMode)
 954:.\Generated_Source\PSoC4/QuadDec_1.c ****         {
 955:.\Generated_Source\PSoC4/QuadDec_1.c ****             QuadDec_1_COMP_CAP_BUF_REG = ((compareBuf + 1u) & QuadDec_1_16BIT_MASK);
ARM GAS  C:\DOCUME~1\Chuck\LOCALS~1\Temp\ccd20y4e.s 			page 40


 956:.\Generated_Source\PSoC4/QuadDec_1.c ****         }
 957:.\Generated_Source\PSoC4/QuadDec_1.c ****         else if (QuadDec_1__COUNT_UP == currentMode)
 958:.\Generated_Source\PSoC4/QuadDec_1.c ****         {
 959:.\Generated_Source\PSoC4/QuadDec_1.c ****             QuadDec_1_COMP_CAP_BUF_REG = ((compareBuf - 1u) & QuadDec_1_16BIT_MASK);
 960:.\Generated_Source\PSoC4/QuadDec_1.c ****         }
 961:.\Generated_Source\PSoC4/QuadDec_1.c ****         else
 962:.\Generated_Source\PSoC4/QuadDec_1.c ****         {
 963:.\Generated_Source\PSoC4/QuadDec_1.c ****             QuadDec_1_COMP_CAP_BUF_REG = (compareBuf & QuadDec_1_16BIT_MASK);
 964:.\Generated_Source\PSoC4/QuadDec_1.c ****         }
 965:.\Generated_Source\PSoC4/QuadDec_1.c ****     #else
 966:.\Generated_Source\PSoC4/QuadDec_1.c ****         QuadDec_1_COMP_CAP_BUF_REG = (compareBuf & QuadDec_1_16BIT_MASK);
 1269              		.loc 1 966 0
 1270 0008 034B     		ldr	r3, .L79
 1271 000a 7A68     		ldr	r2, [r7, #4]
 1272 000c 1204     		lsl	r2, r2, #16
 1273 000e 120C     		lsr	r2, r2, #16
 1274 0010 1A60     		str	r2, [r3]
 967:.\Generated_Source\PSoC4/QuadDec_1.c ****     #endif /* (QuadDec_1_CY_TCPWM_V2) */
 968:.\Generated_Source\PSoC4/QuadDec_1.c **** }
 1275              		.loc 1 968 0
 1276 0012 BD46     		mov	sp, r7
 1277 0014 02B0     		add	sp, sp, #8
 1278              		@ sp needed for prologue
 1279 0016 80BD     		pop	{r7, pc}
 1280              	.L80:
 1281              		.align	2
 1282              	.L79:
 1283 0018 10010540 		.word	1074069776
 1284              		.cfi_endproc
 1285              	.LFE24:
 1286              		.size	QuadDec_1_WriteCompareBuf, .-QuadDec_1_WriteCompareBuf
 1287              		.section	.text.QuadDec_1_ReadCompareBuf,"ax",%progbits
 1288              		.align	2
 1289              		.global	QuadDec_1_ReadCompareBuf
 1290              		.code	16
 1291              		.thumb_func
 1292              		.type	QuadDec_1_ReadCompareBuf, %function
 1293              	QuadDec_1_ReadCompareBuf:
 1294              	.LFB25:
 969:.\Generated_Source\PSoC4/QuadDec_1.c **** 
 970:.\Generated_Source\PSoC4/QuadDec_1.c **** 
 971:.\Generated_Source\PSoC4/QuadDec_1.c **** /*******************************************************************************
 972:.\Generated_Source\PSoC4/QuadDec_1.c **** * Function Name: QuadDec_1_ReadCompareBuf
 973:.\Generated_Source\PSoC4/QuadDec_1.c **** ********************************************************************************
 974:.\Generated_Source\PSoC4/QuadDec_1.c **** *
 975:.\Generated_Source\PSoC4/QuadDec_1.c **** * Summary:
 976:.\Generated_Source\PSoC4/QuadDec_1.c **** *  Reads the compare buffer register. Not applicable for Timer/Counter with
 977:.\Generated_Source\PSoC4/QuadDec_1.c **** *  Capture or in Quadrature Decoder modes.
 978:.\Generated_Source\PSoC4/QuadDec_1.c **** *
 979:.\Generated_Source\PSoC4/QuadDec_1.c **** * Parameters:
 980:.\Generated_Source\PSoC4/QuadDec_1.c **** *  None
 981:.\Generated_Source\PSoC4/QuadDec_1.c **** *
 982:.\Generated_Source\PSoC4/QuadDec_1.c **** * Return:
 983:.\Generated_Source\PSoC4/QuadDec_1.c **** *  Compare buffer value
 984:.\Generated_Source\PSoC4/QuadDec_1.c **** *
 985:.\Generated_Source\PSoC4/QuadDec_1.c **** *******************************************************************************/
 986:.\Generated_Source\PSoC4/QuadDec_1.c **** uint32 QuadDec_1_ReadCompareBuf(void)
ARM GAS  C:\DOCUME~1\Chuck\LOCALS~1\Temp\ccd20y4e.s 			page 41


 987:.\Generated_Source\PSoC4/QuadDec_1.c **** {
 1295              		.loc 1 987 0
 1296              		.cfi_startproc
 1297 0000 80B5     		push	{r7, lr}
 1298              	.LCFI69:
 1299              		.cfi_def_cfa_offset 8
 1300              		.cfi_offset 7, -8
 1301              		.cfi_offset 14, -4
 1302 0002 00AF     		add	r7, sp, #0
 1303              	.LCFI70:
 1304              		.cfi_def_cfa_register 7
 988:.\Generated_Source\PSoC4/QuadDec_1.c ****     #if (QuadDec_1_CY_TCPWM_V2)
 989:.\Generated_Source\PSoC4/QuadDec_1.c ****         uint32 currentMode;
 990:.\Generated_Source\PSoC4/QuadDec_1.c ****         uint32 regVal;
 991:.\Generated_Source\PSoC4/QuadDec_1.c ****     #endif /* (QuadDec_1_CY_TCPWM_V2) */
 992:.\Generated_Source\PSoC4/QuadDec_1.c **** 
 993:.\Generated_Source\PSoC4/QuadDec_1.c ****     #if (QuadDec_1_CY_TCPWM_V2)
 994:.\Generated_Source\PSoC4/QuadDec_1.c ****         currentMode = ((QuadDec_1_CONTROL_REG & QuadDec_1_UPDOWN_MASK) >> QuadDec_1_UPDOWN_SHIFT);
 995:.\Generated_Source\PSoC4/QuadDec_1.c **** 
 996:.\Generated_Source\PSoC4/QuadDec_1.c ****         if (QuadDec_1__COUNT_DOWN == currentMode)
 997:.\Generated_Source\PSoC4/QuadDec_1.c ****         {
 998:.\Generated_Source\PSoC4/QuadDec_1.c ****             regVal = ((QuadDec_1_COMP_CAP_BUF_REG - 1u) & QuadDec_1_16BIT_MASK);
 999:.\Generated_Source\PSoC4/QuadDec_1.c ****         }
1000:.\Generated_Source\PSoC4/QuadDec_1.c ****         else if (QuadDec_1__COUNT_UP == currentMode)
1001:.\Generated_Source\PSoC4/QuadDec_1.c ****         {
1002:.\Generated_Source\PSoC4/QuadDec_1.c ****             regVal = ((QuadDec_1_COMP_CAP_BUF_REG + 1u) & QuadDec_1_16BIT_MASK);
1003:.\Generated_Source\PSoC4/QuadDec_1.c ****         }
1004:.\Generated_Source\PSoC4/QuadDec_1.c ****         else
1005:.\Generated_Source\PSoC4/QuadDec_1.c ****         {
1006:.\Generated_Source\PSoC4/QuadDec_1.c ****             regVal = (QuadDec_1_COMP_CAP_BUF_REG & QuadDec_1_16BIT_MASK);
1007:.\Generated_Source\PSoC4/QuadDec_1.c ****         }
1008:.\Generated_Source\PSoC4/QuadDec_1.c ****         return (regVal);
1009:.\Generated_Source\PSoC4/QuadDec_1.c ****     #else
1010:.\Generated_Source\PSoC4/QuadDec_1.c ****         return (QuadDec_1_COMP_CAP_BUF_REG & QuadDec_1_16BIT_MASK);
 1305              		.loc 1 1010 0
 1306 0004 034B     		ldr	r3, .L83
 1307 0006 1B68     		ldr	r3, [r3]
 1308 0008 1B04     		lsl	r3, r3, #16
 1309 000a 1B0C     		lsr	r3, r3, #16
1011:.\Generated_Source\PSoC4/QuadDec_1.c ****     #endif /* (QuadDec_1_CY_TCPWM_V2) */
1012:.\Generated_Source\PSoC4/QuadDec_1.c **** }
 1310              		.loc 1 1012 0
 1311 000c 181C     		mov	r0, r3
 1312 000e BD46     		mov	sp, r7
 1313              		@ sp needed for prologue
 1314 0010 80BD     		pop	{r7, pc}
 1315              	.L84:
 1316 0012 C046     		.align	2
 1317              	.L83:
 1318 0014 10010540 		.word	1074069776
 1319              		.cfi_endproc
 1320              	.LFE25:
 1321              		.size	QuadDec_1_ReadCompareBuf, .-QuadDec_1_ReadCompareBuf
 1322              		.section	.text.QuadDec_1_ReadCapture,"ax",%progbits
 1323              		.align	2
 1324              		.global	QuadDec_1_ReadCapture
 1325              		.code	16
ARM GAS  C:\DOCUME~1\Chuck\LOCALS~1\Temp\ccd20y4e.s 			page 42


 1326              		.thumb_func
 1327              		.type	QuadDec_1_ReadCapture, %function
 1328              	QuadDec_1_ReadCapture:
 1329              	.LFB26:
1013:.\Generated_Source\PSoC4/QuadDec_1.c **** 
1014:.\Generated_Source\PSoC4/QuadDec_1.c **** 
1015:.\Generated_Source\PSoC4/QuadDec_1.c **** /*******************************************************************************
1016:.\Generated_Source\PSoC4/QuadDec_1.c **** * Function Name: QuadDec_1_ReadCapture
1017:.\Generated_Source\PSoC4/QuadDec_1.c **** ********************************************************************************
1018:.\Generated_Source\PSoC4/QuadDec_1.c **** *
1019:.\Generated_Source\PSoC4/QuadDec_1.c **** * Summary:
1020:.\Generated_Source\PSoC4/QuadDec_1.c **** *  Reads the captured counter value. This API is applicable only for
1021:.\Generated_Source\PSoC4/QuadDec_1.c **** *  Timer/Counter with the capture mode and Quadrature Decoder modes.
1022:.\Generated_Source\PSoC4/QuadDec_1.c **** *
1023:.\Generated_Source\PSoC4/QuadDec_1.c **** * Parameters:
1024:.\Generated_Source\PSoC4/QuadDec_1.c **** *  None
1025:.\Generated_Source\PSoC4/QuadDec_1.c **** *
1026:.\Generated_Source\PSoC4/QuadDec_1.c **** * Return:
1027:.\Generated_Source\PSoC4/QuadDec_1.c **** *  Capture value
1028:.\Generated_Source\PSoC4/QuadDec_1.c **** *
1029:.\Generated_Source\PSoC4/QuadDec_1.c **** *******************************************************************************/
1030:.\Generated_Source\PSoC4/QuadDec_1.c **** uint32 QuadDec_1_ReadCapture(void)
1031:.\Generated_Source\PSoC4/QuadDec_1.c **** {
 1330              		.loc 1 1031 0
 1331              		.cfi_startproc
 1332 0000 80B5     		push	{r7, lr}
 1333              	.LCFI71:
 1334              		.cfi_def_cfa_offset 8
 1335              		.cfi_offset 7, -8
 1336              		.cfi_offset 14, -4
 1337 0002 00AF     		add	r7, sp, #0
 1338              	.LCFI72:
 1339              		.cfi_def_cfa_register 7
1032:.\Generated_Source\PSoC4/QuadDec_1.c ****     return (QuadDec_1_COMP_CAP_REG & QuadDec_1_16BIT_MASK);
 1340              		.loc 1 1032 0
 1341 0004 034B     		ldr	r3, .L87
 1342 0006 1B68     		ldr	r3, [r3]
 1343 0008 1B04     		lsl	r3, r3, #16
 1344 000a 1B0C     		lsr	r3, r3, #16
1033:.\Generated_Source\PSoC4/QuadDec_1.c **** }
 1345              		.loc 1 1033 0
 1346 000c 181C     		mov	r0, r3
 1347 000e BD46     		mov	sp, r7
 1348              		@ sp needed for prologue
 1349 0010 80BD     		pop	{r7, pc}
 1350              	.L88:
 1351 0012 C046     		.align	2
 1352              	.L87:
 1353 0014 0C010540 		.word	1074069772
 1354              		.cfi_endproc
 1355              	.LFE26:
 1356              		.size	QuadDec_1_ReadCapture, .-QuadDec_1_ReadCapture
 1357              		.section	.text.QuadDec_1_ReadCaptureBuf,"ax",%progbits
 1358              		.align	2
 1359              		.global	QuadDec_1_ReadCaptureBuf
 1360              		.code	16
 1361              		.thumb_func
ARM GAS  C:\DOCUME~1\Chuck\LOCALS~1\Temp\ccd20y4e.s 			page 43


 1362              		.type	QuadDec_1_ReadCaptureBuf, %function
 1363              	QuadDec_1_ReadCaptureBuf:
 1364              	.LFB27:
1034:.\Generated_Source\PSoC4/QuadDec_1.c **** 
1035:.\Generated_Source\PSoC4/QuadDec_1.c **** 
1036:.\Generated_Source\PSoC4/QuadDec_1.c **** /*******************************************************************************
1037:.\Generated_Source\PSoC4/QuadDec_1.c **** * Function Name: QuadDec_1_ReadCaptureBuf
1038:.\Generated_Source\PSoC4/QuadDec_1.c **** ********************************************************************************
1039:.\Generated_Source\PSoC4/QuadDec_1.c **** *
1040:.\Generated_Source\PSoC4/QuadDec_1.c **** * Summary:
1041:.\Generated_Source\PSoC4/QuadDec_1.c **** *  Reads the capture buffer register. This API is applicable only for
1042:.\Generated_Source\PSoC4/QuadDec_1.c **** *  Timer/Counter with the capture mode and Quadrature Decoder modes.
1043:.\Generated_Source\PSoC4/QuadDec_1.c **** *
1044:.\Generated_Source\PSoC4/QuadDec_1.c **** * Parameters:
1045:.\Generated_Source\PSoC4/QuadDec_1.c **** *  None
1046:.\Generated_Source\PSoC4/QuadDec_1.c **** *
1047:.\Generated_Source\PSoC4/QuadDec_1.c **** * Return:
1048:.\Generated_Source\PSoC4/QuadDec_1.c **** *  Capture buffer value
1049:.\Generated_Source\PSoC4/QuadDec_1.c **** *
1050:.\Generated_Source\PSoC4/QuadDec_1.c **** *******************************************************************************/
1051:.\Generated_Source\PSoC4/QuadDec_1.c **** uint32 QuadDec_1_ReadCaptureBuf(void)
1052:.\Generated_Source\PSoC4/QuadDec_1.c **** {
 1365              		.loc 1 1052 0
 1366              		.cfi_startproc
 1367 0000 80B5     		push	{r7, lr}
 1368              	.LCFI73:
 1369              		.cfi_def_cfa_offset 8
 1370              		.cfi_offset 7, -8
 1371              		.cfi_offset 14, -4
 1372 0002 00AF     		add	r7, sp, #0
 1373              	.LCFI74:
 1374              		.cfi_def_cfa_register 7
1053:.\Generated_Source\PSoC4/QuadDec_1.c ****     return (QuadDec_1_COMP_CAP_BUF_REG & QuadDec_1_16BIT_MASK);
 1375              		.loc 1 1053 0
 1376 0004 034B     		ldr	r3, .L91
 1377 0006 1B68     		ldr	r3, [r3]
 1378 0008 1B04     		lsl	r3, r3, #16
 1379 000a 1B0C     		lsr	r3, r3, #16
1054:.\Generated_Source\PSoC4/QuadDec_1.c **** }
 1380              		.loc 1 1054 0
 1381 000c 181C     		mov	r0, r3
 1382 000e BD46     		mov	sp, r7
 1383              		@ sp needed for prologue
 1384 0010 80BD     		pop	{r7, pc}
 1385              	.L92:
 1386 0012 C046     		.align	2
 1387              	.L91:
 1388 0014 10010540 		.word	1074069776
 1389              		.cfi_endproc
 1390              	.LFE27:
 1391              		.size	QuadDec_1_ReadCaptureBuf, .-QuadDec_1_ReadCaptureBuf
 1392              		.section	.text.QuadDec_1_SetCaptureMode,"ax",%progbits
 1393              		.align	2
 1394              		.global	QuadDec_1_SetCaptureMode
 1395              		.code	16
 1396              		.thumb_func
 1397              		.type	QuadDec_1_SetCaptureMode, %function
ARM GAS  C:\DOCUME~1\Chuck\LOCALS~1\Temp\ccd20y4e.s 			page 44


 1398              	QuadDec_1_SetCaptureMode:
 1399              	.LFB28:
1055:.\Generated_Source\PSoC4/QuadDec_1.c **** 
1056:.\Generated_Source\PSoC4/QuadDec_1.c **** 
1057:.\Generated_Source\PSoC4/QuadDec_1.c **** /*******************************************************************************
1058:.\Generated_Source\PSoC4/QuadDec_1.c **** * Function Name: QuadDec_1_SetCaptureMode
1059:.\Generated_Source\PSoC4/QuadDec_1.c **** ********************************************************************************
1060:.\Generated_Source\PSoC4/QuadDec_1.c **** *
1061:.\Generated_Source\PSoC4/QuadDec_1.c **** * Summary:
1062:.\Generated_Source\PSoC4/QuadDec_1.c **** *  Sets the capture trigger mode. For PWM mode this is the switch input.
1063:.\Generated_Source\PSoC4/QuadDec_1.c **** *  This input is not applicable to the Timer/Counter without Capture and
1064:.\Generated_Source\PSoC4/QuadDec_1.c **** *  Quadrature Decoder modes.
1065:.\Generated_Source\PSoC4/QuadDec_1.c **** *
1066:.\Generated_Source\PSoC4/QuadDec_1.c **** * Parameters:
1067:.\Generated_Source\PSoC4/QuadDec_1.c **** *  triggerMode: Enumerated trigger mode value
1068:.\Generated_Source\PSoC4/QuadDec_1.c **** *   Values:
1069:.\Generated_Source\PSoC4/QuadDec_1.c **** *     - QuadDec_1_TRIG_LEVEL     - Level
1070:.\Generated_Source\PSoC4/QuadDec_1.c **** *     - QuadDec_1_TRIG_RISING    - Rising edge
1071:.\Generated_Source\PSoC4/QuadDec_1.c **** *     - QuadDec_1_TRIG_FALLING   - Falling edge
1072:.\Generated_Source\PSoC4/QuadDec_1.c **** *     - QuadDec_1_TRIG_BOTH      - Both rising and falling edge
1073:.\Generated_Source\PSoC4/QuadDec_1.c **** *
1074:.\Generated_Source\PSoC4/QuadDec_1.c **** * Return:
1075:.\Generated_Source\PSoC4/QuadDec_1.c **** *  None
1076:.\Generated_Source\PSoC4/QuadDec_1.c **** *
1077:.\Generated_Source\PSoC4/QuadDec_1.c **** *******************************************************************************/
1078:.\Generated_Source\PSoC4/QuadDec_1.c **** void QuadDec_1_SetCaptureMode(uint32 triggerMode)
1079:.\Generated_Source\PSoC4/QuadDec_1.c **** {
 1400              		.loc 1 1079 0
 1401              		.cfi_startproc
 1402 0000 90B5     		push	{r4, r7, lr}
 1403              	.LCFI75:
 1404              		.cfi_def_cfa_offset 12
 1405              		.cfi_offset 4, -12
 1406              		.cfi_offset 7, -8
 1407              		.cfi_offset 14, -4
 1408 0002 85B0     		sub	sp, sp, #20
 1409              	.LCFI76:
 1410              		.cfi_def_cfa_offset 32
 1411 0004 00AF     		add	r7, sp, #0
 1412              	.LCFI77:
 1413              		.cfi_def_cfa_register 7
 1414 0006 7860     		str	r0, [r7, #4]
1080:.\Generated_Source\PSoC4/QuadDec_1.c ****     uint8 enableInterrupts;
1081:.\Generated_Source\PSoC4/QuadDec_1.c **** 
1082:.\Generated_Source\PSoC4/QuadDec_1.c ****     enableInterrupts = CyEnterCriticalSection();
 1415              		.loc 1 1082 0
 1416 0008 3C1C     		mov	r4, r7
 1417 000a 0F34     		add	r4, r4, #15
 1418 000c FFF7FEFF 		bl	CyEnterCriticalSection
 1419 0010 031C     		mov	r3, r0
 1420 0012 2370     		strb	r3, [r4]
1083:.\Generated_Source\PSoC4/QuadDec_1.c **** 
1084:.\Generated_Source\PSoC4/QuadDec_1.c ****     QuadDec_1_TRIG_CONTROL1_REG &= (uint32)~QuadDec_1_CAPTURE_MASK;
 1421              		.loc 1 1084 0
 1422 0014 0A4B     		ldr	r3, .L94
 1423 0016 0A4A     		ldr	r2, .L94
 1424 0018 1268     		ldr	r2, [r2]
ARM GAS  C:\DOCUME~1\Chuck\LOCALS~1\Temp\ccd20y4e.s 			page 45


 1425 001a 0321     		mov	r1, #3
 1426 001c 8A43     		bic	r2, r1
 1427 001e 1A60     		str	r2, [r3]
1085:.\Generated_Source\PSoC4/QuadDec_1.c ****     QuadDec_1_TRIG_CONTROL1_REG |= triggerMode;
 1428              		.loc 1 1085 0
 1429 0020 074B     		ldr	r3, .L94
 1430 0022 074A     		ldr	r2, .L94
 1431 0024 1168     		ldr	r1, [r2]
 1432 0026 7A68     		ldr	r2, [r7, #4]
 1433 0028 0A43     		orr	r2, r1
 1434 002a 1A60     		str	r2, [r3]
1086:.\Generated_Source\PSoC4/QuadDec_1.c **** 
1087:.\Generated_Source\PSoC4/QuadDec_1.c ****     CyExitCriticalSection(enableInterrupts);
 1435              		.loc 1 1087 0
 1436 002c 3B1C     		mov	r3, r7
 1437 002e 0F33     		add	r3, r3, #15
 1438 0030 1B78     		ldrb	r3, [r3]
 1439 0032 181C     		mov	r0, r3
 1440 0034 FFF7FEFF 		bl	CyExitCriticalSection
1088:.\Generated_Source\PSoC4/QuadDec_1.c **** }
 1441              		.loc 1 1088 0
 1442 0038 BD46     		mov	sp, r7
 1443 003a 05B0     		add	sp, sp, #20
 1444              		@ sp needed for prologue
 1445 003c 90BD     		pop	{r4, r7, pc}
 1446              	.L95:
 1447 003e C046     		.align	2
 1448              	.L94:
 1449 0040 24010540 		.word	1074069796
 1450              		.cfi_endproc
 1451              	.LFE28:
 1452              		.size	QuadDec_1_SetCaptureMode, .-QuadDec_1_SetCaptureMode
 1453              		.section	.text.QuadDec_1_SetReloadMode,"ax",%progbits
 1454              		.align	2
 1455              		.global	QuadDec_1_SetReloadMode
 1456              		.code	16
 1457              		.thumb_func
 1458              		.type	QuadDec_1_SetReloadMode, %function
 1459              	QuadDec_1_SetReloadMode:
 1460              	.LFB29:
1089:.\Generated_Source\PSoC4/QuadDec_1.c **** 
1090:.\Generated_Source\PSoC4/QuadDec_1.c **** 
1091:.\Generated_Source\PSoC4/QuadDec_1.c **** /*******************************************************************************
1092:.\Generated_Source\PSoC4/QuadDec_1.c **** * Function Name: QuadDec_1_SetReloadMode
1093:.\Generated_Source\PSoC4/QuadDec_1.c **** ********************************************************************************
1094:.\Generated_Source\PSoC4/QuadDec_1.c **** *
1095:.\Generated_Source\PSoC4/QuadDec_1.c **** * Summary:
1096:.\Generated_Source\PSoC4/QuadDec_1.c **** *  Sets the reload trigger mode. For Quadrature Decoder mode this is the index
1097:.\Generated_Source\PSoC4/QuadDec_1.c **** *  input.
1098:.\Generated_Source\PSoC4/QuadDec_1.c **** *
1099:.\Generated_Source\PSoC4/QuadDec_1.c **** * Parameters:
1100:.\Generated_Source\PSoC4/QuadDec_1.c **** *  triggerMode: Enumerated trigger mode value
1101:.\Generated_Source\PSoC4/QuadDec_1.c **** *   Values:
1102:.\Generated_Source\PSoC4/QuadDec_1.c **** *     - QuadDec_1_TRIG_LEVEL     - Level
1103:.\Generated_Source\PSoC4/QuadDec_1.c **** *     - QuadDec_1_TRIG_RISING    - Rising edge
1104:.\Generated_Source\PSoC4/QuadDec_1.c **** *     - QuadDec_1_TRIG_FALLING   - Falling edge
1105:.\Generated_Source\PSoC4/QuadDec_1.c **** *     - QuadDec_1_TRIG_BOTH      - Both rising and falling edge
ARM GAS  C:\DOCUME~1\Chuck\LOCALS~1\Temp\ccd20y4e.s 			page 46


1106:.\Generated_Source\PSoC4/QuadDec_1.c **** *
1107:.\Generated_Source\PSoC4/QuadDec_1.c **** * Return:
1108:.\Generated_Source\PSoC4/QuadDec_1.c **** *  None
1109:.\Generated_Source\PSoC4/QuadDec_1.c **** *
1110:.\Generated_Source\PSoC4/QuadDec_1.c **** *******************************************************************************/
1111:.\Generated_Source\PSoC4/QuadDec_1.c **** void QuadDec_1_SetReloadMode(uint32 triggerMode)
1112:.\Generated_Source\PSoC4/QuadDec_1.c **** {
 1461              		.loc 1 1112 0
 1462              		.cfi_startproc
 1463 0000 90B5     		push	{r4, r7, lr}
 1464              	.LCFI78:
 1465              		.cfi_def_cfa_offset 12
 1466              		.cfi_offset 4, -12
 1467              		.cfi_offset 7, -8
 1468              		.cfi_offset 14, -4
 1469 0002 85B0     		sub	sp, sp, #20
 1470              	.LCFI79:
 1471              		.cfi_def_cfa_offset 32
 1472 0004 00AF     		add	r7, sp, #0
 1473              	.LCFI80:
 1474              		.cfi_def_cfa_register 7
 1475 0006 7860     		str	r0, [r7, #4]
1113:.\Generated_Source\PSoC4/QuadDec_1.c ****     uint8 enableInterrupts;
1114:.\Generated_Source\PSoC4/QuadDec_1.c **** 
1115:.\Generated_Source\PSoC4/QuadDec_1.c ****     enableInterrupts = CyEnterCriticalSection();
 1476              		.loc 1 1115 0
 1477 0008 3C1C     		mov	r4, r7
 1478 000a 0F34     		add	r4, r4, #15
 1479 000c FFF7FEFF 		bl	CyEnterCriticalSection
 1480 0010 031C     		mov	r3, r0
 1481 0012 2370     		strb	r3, [r4]
1116:.\Generated_Source\PSoC4/QuadDec_1.c **** 
1117:.\Generated_Source\PSoC4/QuadDec_1.c ****     QuadDec_1_TRIG_CONTROL1_REG &= (uint32)~QuadDec_1_RELOAD_MASK;
 1482              		.loc 1 1117 0
 1483 0014 0A4B     		ldr	r3, .L97
 1484 0016 0A4A     		ldr	r2, .L97
 1485 0018 1268     		ldr	r2, [r2]
 1486 001a 3021     		mov	r1, #48
 1487 001c 8A43     		bic	r2, r1
 1488 001e 1A60     		str	r2, [r3]
1118:.\Generated_Source\PSoC4/QuadDec_1.c ****     QuadDec_1_TRIG_CONTROL1_REG |= ((uint32)(triggerMode << QuadDec_1_RELOAD_SHIFT));
 1489              		.loc 1 1118 0
 1490 0020 074B     		ldr	r3, .L97
 1491 0022 074A     		ldr	r2, .L97
 1492 0024 1168     		ldr	r1, [r2]
 1493 0026 7A68     		ldr	r2, [r7, #4]
 1494 0028 1201     		lsl	r2, r2, #4
 1495 002a 0A43     		orr	r2, r1
 1496 002c 1A60     		str	r2, [r3]
1119:.\Generated_Source\PSoC4/QuadDec_1.c **** 
1120:.\Generated_Source\PSoC4/QuadDec_1.c ****     CyExitCriticalSection(enableInterrupts);
 1497              		.loc 1 1120 0
 1498 002e 3B1C     		mov	r3, r7
 1499 0030 0F33     		add	r3, r3, #15
 1500 0032 1B78     		ldrb	r3, [r3]
 1501 0034 181C     		mov	r0, r3
 1502 0036 FFF7FEFF 		bl	CyExitCriticalSection
ARM GAS  C:\DOCUME~1\Chuck\LOCALS~1\Temp\ccd20y4e.s 			page 47


1121:.\Generated_Source\PSoC4/QuadDec_1.c **** }
 1503              		.loc 1 1121 0
 1504 003a BD46     		mov	sp, r7
 1505 003c 05B0     		add	sp, sp, #20
 1506              		@ sp needed for prologue
 1507 003e 90BD     		pop	{r4, r7, pc}
 1508              	.L98:
 1509              		.align	2
 1510              	.L97:
 1511 0040 24010540 		.word	1074069796
 1512              		.cfi_endproc
 1513              	.LFE29:
 1514              		.size	QuadDec_1_SetReloadMode, .-QuadDec_1_SetReloadMode
 1515              		.section	.text.QuadDec_1_SetStartMode,"ax",%progbits
 1516              		.align	2
 1517              		.global	QuadDec_1_SetStartMode
 1518              		.code	16
 1519              		.thumb_func
 1520              		.type	QuadDec_1_SetStartMode, %function
 1521              	QuadDec_1_SetStartMode:
 1522              	.LFB30:
1122:.\Generated_Source\PSoC4/QuadDec_1.c **** 
1123:.\Generated_Source\PSoC4/QuadDec_1.c **** 
1124:.\Generated_Source\PSoC4/QuadDec_1.c **** /*******************************************************************************
1125:.\Generated_Source\PSoC4/QuadDec_1.c **** * Function Name: QuadDec_1_SetStartMode
1126:.\Generated_Source\PSoC4/QuadDec_1.c **** ********************************************************************************
1127:.\Generated_Source\PSoC4/QuadDec_1.c **** *
1128:.\Generated_Source\PSoC4/QuadDec_1.c **** * Summary:
1129:.\Generated_Source\PSoC4/QuadDec_1.c **** *  Sets the start trigger mode. For Quadrature Decoder mode this is the
1130:.\Generated_Source\PSoC4/QuadDec_1.c **** *  phiB input.
1131:.\Generated_Source\PSoC4/QuadDec_1.c **** *
1132:.\Generated_Source\PSoC4/QuadDec_1.c **** * Parameters:
1133:.\Generated_Source\PSoC4/QuadDec_1.c **** *  triggerMode: Enumerated trigger mode value
1134:.\Generated_Source\PSoC4/QuadDec_1.c **** *   Values:
1135:.\Generated_Source\PSoC4/QuadDec_1.c **** *     - QuadDec_1_TRIG_LEVEL     - Level
1136:.\Generated_Source\PSoC4/QuadDec_1.c **** *     - QuadDec_1_TRIG_RISING    - Rising edge
1137:.\Generated_Source\PSoC4/QuadDec_1.c **** *     - QuadDec_1_TRIG_FALLING   - Falling edge
1138:.\Generated_Source\PSoC4/QuadDec_1.c **** *     - QuadDec_1_TRIG_BOTH      - Both rising and falling edge
1139:.\Generated_Source\PSoC4/QuadDec_1.c **** *
1140:.\Generated_Source\PSoC4/QuadDec_1.c **** * Return:
1141:.\Generated_Source\PSoC4/QuadDec_1.c **** *  None
1142:.\Generated_Source\PSoC4/QuadDec_1.c **** *
1143:.\Generated_Source\PSoC4/QuadDec_1.c **** *******************************************************************************/
1144:.\Generated_Source\PSoC4/QuadDec_1.c **** void QuadDec_1_SetStartMode(uint32 triggerMode)
1145:.\Generated_Source\PSoC4/QuadDec_1.c **** {
 1523              		.loc 1 1145 0
 1524              		.cfi_startproc
 1525 0000 90B5     		push	{r4, r7, lr}
 1526              	.LCFI81:
 1527              		.cfi_def_cfa_offset 12
 1528              		.cfi_offset 4, -12
 1529              		.cfi_offset 7, -8
 1530              		.cfi_offset 14, -4
 1531 0002 85B0     		sub	sp, sp, #20
 1532              	.LCFI82:
 1533              		.cfi_def_cfa_offset 32
 1534 0004 00AF     		add	r7, sp, #0
ARM GAS  C:\DOCUME~1\Chuck\LOCALS~1\Temp\ccd20y4e.s 			page 48


 1535              	.LCFI83:
 1536              		.cfi_def_cfa_register 7
 1537 0006 7860     		str	r0, [r7, #4]
1146:.\Generated_Source\PSoC4/QuadDec_1.c ****     uint8 enableInterrupts;
1147:.\Generated_Source\PSoC4/QuadDec_1.c **** 
1148:.\Generated_Source\PSoC4/QuadDec_1.c ****     enableInterrupts = CyEnterCriticalSection();
 1538              		.loc 1 1148 0
 1539 0008 3C1C     		mov	r4, r7
 1540 000a 0F34     		add	r4, r4, #15
 1541 000c FFF7FEFF 		bl	CyEnterCriticalSection
 1542 0010 031C     		mov	r3, r0
 1543 0012 2370     		strb	r3, [r4]
1149:.\Generated_Source\PSoC4/QuadDec_1.c **** 
1150:.\Generated_Source\PSoC4/QuadDec_1.c ****     QuadDec_1_TRIG_CONTROL1_REG &= (uint32)~QuadDec_1_START_MASK;
 1544              		.loc 1 1150 0
 1545 0014 0A4B     		ldr	r3, .L100
 1546 0016 0A4A     		ldr	r2, .L100
 1547 0018 1168     		ldr	r1, [r2]
 1548 001a 0A4A     		ldr	r2, .L100+4
 1549 001c 0A40     		and	r2, r1
 1550 001e 1A60     		str	r2, [r3]
1151:.\Generated_Source\PSoC4/QuadDec_1.c ****     QuadDec_1_TRIG_CONTROL1_REG |= ((uint32)(triggerMode << QuadDec_1_START_SHIFT));
 1551              		.loc 1 1151 0
 1552 0020 074B     		ldr	r3, .L100
 1553 0022 074A     		ldr	r2, .L100
 1554 0024 1168     		ldr	r1, [r2]
 1555 0026 7A68     		ldr	r2, [r7, #4]
 1556 0028 1202     		lsl	r2, r2, #8
 1557 002a 0A43     		orr	r2, r1
 1558 002c 1A60     		str	r2, [r3]
1152:.\Generated_Source\PSoC4/QuadDec_1.c **** 
1153:.\Generated_Source\PSoC4/QuadDec_1.c ****     CyExitCriticalSection(enableInterrupts);
 1559              		.loc 1 1153 0
 1560 002e 3B1C     		mov	r3, r7
 1561 0030 0F33     		add	r3, r3, #15
 1562 0032 1B78     		ldrb	r3, [r3]
 1563 0034 181C     		mov	r0, r3
 1564 0036 FFF7FEFF 		bl	CyExitCriticalSection
1154:.\Generated_Source\PSoC4/QuadDec_1.c **** }
 1565              		.loc 1 1154 0
 1566 003a BD46     		mov	sp, r7
 1567 003c 05B0     		add	sp, sp, #20
 1568              		@ sp needed for prologue
 1569 003e 90BD     		pop	{r4, r7, pc}
 1570              	.L101:
 1571              		.align	2
 1572              	.L100:
 1573 0040 24010540 		.word	1074069796
 1574 0044 FFFCFFFF 		.word	-769
 1575              		.cfi_endproc
 1576              	.LFE30:
 1577              		.size	QuadDec_1_SetStartMode, .-QuadDec_1_SetStartMode
 1578              		.section	.text.QuadDec_1_SetStopMode,"ax",%progbits
 1579              		.align	2
 1580              		.global	QuadDec_1_SetStopMode
 1581              		.code	16
 1582              		.thumb_func
ARM GAS  C:\DOCUME~1\Chuck\LOCALS~1\Temp\ccd20y4e.s 			page 49


 1583              		.type	QuadDec_1_SetStopMode, %function
 1584              	QuadDec_1_SetStopMode:
 1585              	.LFB31:
1155:.\Generated_Source\PSoC4/QuadDec_1.c **** 
1156:.\Generated_Source\PSoC4/QuadDec_1.c **** 
1157:.\Generated_Source\PSoC4/QuadDec_1.c **** /*******************************************************************************
1158:.\Generated_Source\PSoC4/QuadDec_1.c **** * Function Name: QuadDec_1_SetStopMode
1159:.\Generated_Source\PSoC4/QuadDec_1.c **** ********************************************************************************
1160:.\Generated_Source\PSoC4/QuadDec_1.c **** *
1161:.\Generated_Source\PSoC4/QuadDec_1.c **** * Summary:
1162:.\Generated_Source\PSoC4/QuadDec_1.c **** *  Sets the stop trigger mode. For PWM mode this is the kill input.
1163:.\Generated_Source\PSoC4/QuadDec_1.c **** *
1164:.\Generated_Source\PSoC4/QuadDec_1.c **** * Parameters:
1165:.\Generated_Source\PSoC4/QuadDec_1.c **** *  triggerMode: Enumerated trigger mode value
1166:.\Generated_Source\PSoC4/QuadDec_1.c **** *   Values:
1167:.\Generated_Source\PSoC4/QuadDec_1.c **** *     - QuadDec_1_TRIG_LEVEL     - Level
1168:.\Generated_Source\PSoC4/QuadDec_1.c **** *     - QuadDec_1_TRIG_RISING    - Rising edge
1169:.\Generated_Source\PSoC4/QuadDec_1.c **** *     - QuadDec_1_TRIG_FALLING   - Falling edge
1170:.\Generated_Source\PSoC4/QuadDec_1.c **** *     - QuadDec_1_TRIG_BOTH      - Both rising and falling edge
1171:.\Generated_Source\PSoC4/QuadDec_1.c **** *
1172:.\Generated_Source\PSoC4/QuadDec_1.c **** * Return:
1173:.\Generated_Source\PSoC4/QuadDec_1.c **** *  None
1174:.\Generated_Source\PSoC4/QuadDec_1.c **** *
1175:.\Generated_Source\PSoC4/QuadDec_1.c **** *******************************************************************************/
1176:.\Generated_Source\PSoC4/QuadDec_1.c **** void QuadDec_1_SetStopMode(uint32 triggerMode)
1177:.\Generated_Source\PSoC4/QuadDec_1.c **** {
 1586              		.loc 1 1177 0
 1587              		.cfi_startproc
 1588 0000 90B5     		push	{r4, r7, lr}
 1589              	.LCFI84:
 1590              		.cfi_def_cfa_offset 12
 1591              		.cfi_offset 4, -12
 1592              		.cfi_offset 7, -8
 1593              		.cfi_offset 14, -4
 1594 0002 85B0     		sub	sp, sp, #20
 1595              	.LCFI85:
 1596              		.cfi_def_cfa_offset 32
 1597 0004 00AF     		add	r7, sp, #0
 1598              	.LCFI86:
 1599              		.cfi_def_cfa_register 7
 1600 0006 7860     		str	r0, [r7, #4]
1178:.\Generated_Source\PSoC4/QuadDec_1.c ****     uint8 enableInterrupts;
1179:.\Generated_Source\PSoC4/QuadDec_1.c **** 
1180:.\Generated_Source\PSoC4/QuadDec_1.c ****     enableInterrupts = CyEnterCriticalSection();
 1601              		.loc 1 1180 0
 1602 0008 3C1C     		mov	r4, r7
 1603 000a 0F34     		add	r4, r4, #15
 1604 000c FFF7FEFF 		bl	CyEnterCriticalSection
 1605 0010 031C     		mov	r3, r0
 1606 0012 2370     		strb	r3, [r4]
1181:.\Generated_Source\PSoC4/QuadDec_1.c **** 
1182:.\Generated_Source\PSoC4/QuadDec_1.c ****     QuadDec_1_TRIG_CONTROL1_REG &= (uint32)~QuadDec_1_STOP_MASK;
 1607              		.loc 1 1182 0
 1608 0014 0A4B     		ldr	r3, .L103
 1609 0016 0A4A     		ldr	r2, .L103
 1610 0018 1268     		ldr	r2, [r2]
 1611 001a C021     		mov	r1, #192
ARM GAS  C:\DOCUME~1\Chuck\LOCALS~1\Temp\ccd20y4e.s 			page 50


 1612 001c 8A43     		bic	r2, r1
 1613 001e 1A60     		str	r2, [r3]
1183:.\Generated_Source\PSoC4/QuadDec_1.c ****     QuadDec_1_TRIG_CONTROL1_REG |= ((uint32)(triggerMode << QuadDec_1_STOP_SHIFT));
 1614              		.loc 1 1183 0
 1615 0020 074B     		ldr	r3, .L103
 1616 0022 074A     		ldr	r2, .L103
 1617 0024 1168     		ldr	r1, [r2]
 1618 0026 7A68     		ldr	r2, [r7, #4]
 1619 0028 9201     		lsl	r2, r2, #6
 1620 002a 0A43     		orr	r2, r1
 1621 002c 1A60     		str	r2, [r3]
1184:.\Generated_Source\PSoC4/QuadDec_1.c **** 
1185:.\Generated_Source\PSoC4/QuadDec_1.c ****     CyExitCriticalSection(enableInterrupts);
 1622              		.loc 1 1185 0
 1623 002e 3B1C     		mov	r3, r7
 1624 0030 0F33     		add	r3, r3, #15
 1625 0032 1B78     		ldrb	r3, [r3]
 1626 0034 181C     		mov	r0, r3
 1627 0036 FFF7FEFF 		bl	CyExitCriticalSection
1186:.\Generated_Source\PSoC4/QuadDec_1.c **** }
 1628              		.loc 1 1186 0
 1629 003a BD46     		mov	sp, r7
 1630 003c 05B0     		add	sp, sp, #20
 1631              		@ sp needed for prologue
 1632 003e 90BD     		pop	{r4, r7, pc}
 1633              	.L104:
 1634              		.align	2
 1635              	.L103:
 1636 0040 24010540 		.word	1074069796
 1637              		.cfi_endproc
 1638              	.LFE31:
 1639              		.size	QuadDec_1_SetStopMode, .-QuadDec_1_SetStopMode
 1640              		.section	.text.QuadDec_1_SetCountMode,"ax",%progbits
 1641              		.align	2
 1642              		.global	QuadDec_1_SetCountMode
 1643              		.code	16
 1644              		.thumb_func
 1645              		.type	QuadDec_1_SetCountMode, %function
 1646              	QuadDec_1_SetCountMode:
 1647              	.LFB32:
1187:.\Generated_Source\PSoC4/QuadDec_1.c **** 
1188:.\Generated_Source\PSoC4/QuadDec_1.c **** 
1189:.\Generated_Source\PSoC4/QuadDec_1.c **** /*******************************************************************************
1190:.\Generated_Source\PSoC4/QuadDec_1.c **** * Function Name: QuadDec_1_SetCountMode
1191:.\Generated_Source\PSoC4/QuadDec_1.c **** ********************************************************************************
1192:.\Generated_Source\PSoC4/QuadDec_1.c **** *
1193:.\Generated_Source\PSoC4/QuadDec_1.c **** * Summary:
1194:.\Generated_Source\PSoC4/QuadDec_1.c **** *  Sets the count trigger mode. For Quadrature Decoder mode this is the phiA
1195:.\Generated_Source\PSoC4/QuadDec_1.c **** *  input.
1196:.\Generated_Source\PSoC4/QuadDec_1.c **** *
1197:.\Generated_Source\PSoC4/QuadDec_1.c **** * Parameters:
1198:.\Generated_Source\PSoC4/QuadDec_1.c **** *  triggerMode: Enumerated trigger mode value
1199:.\Generated_Source\PSoC4/QuadDec_1.c **** *   Values:
1200:.\Generated_Source\PSoC4/QuadDec_1.c **** *     - QuadDec_1_TRIG_LEVEL     - Level
1201:.\Generated_Source\PSoC4/QuadDec_1.c **** *     - QuadDec_1_TRIG_RISING    - Rising edge
1202:.\Generated_Source\PSoC4/QuadDec_1.c **** *     - QuadDec_1_TRIG_FALLING   - Falling edge
1203:.\Generated_Source\PSoC4/QuadDec_1.c **** *     - QuadDec_1_TRIG_BOTH      - Both rising and falling edge
ARM GAS  C:\DOCUME~1\Chuck\LOCALS~1\Temp\ccd20y4e.s 			page 51


1204:.\Generated_Source\PSoC4/QuadDec_1.c **** *
1205:.\Generated_Source\PSoC4/QuadDec_1.c **** * Return:
1206:.\Generated_Source\PSoC4/QuadDec_1.c **** *  None
1207:.\Generated_Source\PSoC4/QuadDec_1.c **** *
1208:.\Generated_Source\PSoC4/QuadDec_1.c **** *******************************************************************************/
1209:.\Generated_Source\PSoC4/QuadDec_1.c **** void QuadDec_1_SetCountMode(uint32 triggerMode)
1210:.\Generated_Source\PSoC4/QuadDec_1.c **** {
 1648              		.loc 1 1210 0
 1649              		.cfi_startproc
 1650 0000 90B5     		push	{r4, r7, lr}
 1651              	.LCFI87:
 1652              		.cfi_def_cfa_offset 12
 1653              		.cfi_offset 4, -12
 1654              		.cfi_offset 7, -8
 1655              		.cfi_offset 14, -4
 1656 0002 85B0     		sub	sp, sp, #20
 1657              	.LCFI88:
 1658              		.cfi_def_cfa_offset 32
 1659 0004 00AF     		add	r7, sp, #0
 1660              	.LCFI89:
 1661              		.cfi_def_cfa_register 7
 1662 0006 7860     		str	r0, [r7, #4]
1211:.\Generated_Source\PSoC4/QuadDec_1.c ****     uint8 enableInterrupts;
1212:.\Generated_Source\PSoC4/QuadDec_1.c **** 
1213:.\Generated_Source\PSoC4/QuadDec_1.c ****     enableInterrupts = CyEnterCriticalSection();
 1663              		.loc 1 1213 0
 1664 0008 3C1C     		mov	r4, r7
 1665 000a 0F34     		add	r4, r4, #15
 1666 000c FFF7FEFF 		bl	CyEnterCriticalSection
 1667 0010 031C     		mov	r3, r0
 1668 0012 2370     		strb	r3, [r4]
1214:.\Generated_Source\PSoC4/QuadDec_1.c **** 
1215:.\Generated_Source\PSoC4/QuadDec_1.c ****     QuadDec_1_TRIG_CONTROL1_REG &= (uint32)~QuadDec_1_COUNT_MASK;
 1669              		.loc 1 1215 0
 1670 0014 0A4B     		ldr	r3, .L106
 1671 0016 0A4A     		ldr	r2, .L106
 1672 0018 1268     		ldr	r2, [r2]
 1673 001a 0C21     		mov	r1, #12
 1674 001c 8A43     		bic	r2, r1
 1675 001e 1A60     		str	r2, [r3]
1216:.\Generated_Source\PSoC4/QuadDec_1.c ****     QuadDec_1_TRIG_CONTROL1_REG |= ((uint32)(triggerMode << QuadDec_1_COUNT_SHIFT));
 1676              		.loc 1 1216 0
 1677 0020 074B     		ldr	r3, .L106
 1678 0022 074A     		ldr	r2, .L106
 1679 0024 1168     		ldr	r1, [r2]
 1680 0026 7A68     		ldr	r2, [r7, #4]
 1681 0028 9200     		lsl	r2, r2, #2
 1682 002a 0A43     		orr	r2, r1
 1683 002c 1A60     		str	r2, [r3]
1217:.\Generated_Source\PSoC4/QuadDec_1.c **** 
1218:.\Generated_Source\PSoC4/QuadDec_1.c ****     CyExitCriticalSection(enableInterrupts);
 1684              		.loc 1 1218 0
 1685 002e 3B1C     		mov	r3, r7
 1686 0030 0F33     		add	r3, r3, #15
 1687 0032 1B78     		ldrb	r3, [r3]
 1688 0034 181C     		mov	r0, r3
 1689 0036 FFF7FEFF 		bl	CyExitCriticalSection
ARM GAS  C:\DOCUME~1\Chuck\LOCALS~1\Temp\ccd20y4e.s 			page 52


1219:.\Generated_Source\PSoC4/QuadDec_1.c **** }
 1690              		.loc 1 1219 0
 1691 003a BD46     		mov	sp, r7
 1692 003c 05B0     		add	sp, sp, #20
 1693              		@ sp needed for prologue
 1694 003e 90BD     		pop	{r4, r7, pc}
 1695              	.L107:
 1696              		.align	2
 1697              	.L106:
 1698 0040 24010540 		.word	1074069796
 1699              		.cfi_endproc
 1700              	.LFE32:
 1701              		.size	QuadDec_1_SetCountMode, .-QuadDec_1_SetCountMode
 1702              		.section	.text.QuadDec_1_TriggerCommand,"ax",%progbits
 1703              		.align	2
 1704              		.global	QuadDec_1_TriggerCommand
 1705              		.code	16
 1706              		.thumb_func
 1707              		.type	QuadDec_1_TriggerCommand, %function
 1708              	QuadDec_1_TriggerCommand:
 1709              	.LFB33:
1220:.\Generated_Source\PSoC4/QuadDec_1.c **** 
1221:.\Generated_Source\PSoC4/QuadDec_1.c **** 
1222:.\Generated_Source\PSoC4/QuadDec_1.c **** /*******************************************************************************
1223:.\Generated_Source\PSoC4/QuadDec_1.c **** * Function Name: QuadDec_1_TriggerCommand
1224:.\Generated_Source\PSoC4/QuadDec_1.c **** ********************************************************************************
1225:.\Generated_Source\PSoC4/QuadDec_1.c **** *
1226:.\Generated_Source\PSoC4/QuadDec_1.c **** * Summary:
1227:.\Generated_Source\PSoC4/QuadDec_1.c **** *  Triggers the designated command to occur on the designated TCPWM instances.
1228:.\Generated_Source\PSoC4/QuadDec_1.c **** *  The mask can be used to apply this command simultaneously to more than one
1229:.\Generated_Source\PSoC4/QuadDec_1.c **** *  instance.  This allows multiple TCPWM instances to be synchronized.
1230:.\Generated_Source\PSoC4/QuadDec_1.c **** *
1231:.\Generated_Source\PSoC4/QuadDec_1.c **** * Parameters:
1232:.\Generated_Source\PSoC4/QuadDec_1.c **** *  mask: A combination of mask bits for each instance of the TCPWM that the
1233:.\Generated_Source\PSoC4/QuadDec_1.c **** *        command should apply to.  This function from one instance can be used
1234:.\Generated_Source\PSoC4/QuadDec_1.c **** *        to apply the command to any of the instances in the design.
1235:.\Generated_Source\PSoC4/QuadDec_1.c **** *        The mask value for a specific instance is available with the MASK
1236:.\Generated_Source\PSoC4/QuadDec_1.c **** *        define.
1237:.\Generated_Source\PSoC4/QuadDec_1.c **** *  command: Enumerated command values. Capture command only applicable for
1238:.\Generated_Source\PSoC4/QuadDec_1.c **** *           Timer/Counter with Capture and PWM modes.
1239:.\Generated_Source\PSoC4/QuadDec_1.c **** *   Values:
1240:.\Generated_Source\PSoC4/QuadDec_1.c **** *     - QuadDec_1_CMD_CAPTURE    - Trigger Capture command
1241:.\Generated_Source\PSoC4/QuadDec_1.c **** *     - QuadDec_1_CMD_RELOAD     - Trigger Reload command
1242:.\Generated_Source\PSoC4/QuadDec_1.c **** *     - QuadDec_1_CMD_STOP       - Trigger Stop command
1243:.\Generated_Source\PSoC4/QuadDec_1.c **** *     - QuadDec_1_CMD_START      - Trigger Start command
1244:.\Generated_Source\PSoC4/QuadDec_1.c **** *
1245:.\Generated_Source\PSoC4/QuadDec_1.c **** * Return:
1246:.\Generated_Source\PSoC4/QuadDec_1.c **** *  None
1247:.\Generated_Source\PSoC4/QuadDec_1.c **** *
1248:.\Generated_Source\PSoC4/QuadDec_1.c **** *******************************************************************************/
1249:.\Generated_Source\PSoC4/QuadDec_1.c **** void QuadDec_1_TriggerCommand(uint32 mask, uint32 command)
1250:.\Generated_Source\PSoC4/QuadDec_1.c **** {
 1710              		.loc 1 1250 0
 1711              		.cfi_startproc
 1712 0000 90B5     		push	{r4, r7, lr}
 1713              	.LCFI90:
 1714              		.cfi_def_cfa_offset 12
ARM GAS  C:\DOCUME~1\Chuck\LOCALS~1\Temp\ccd20y4e.s 			page 53


 1715              		.cfi_offset 4, -12
 1716              		.cfi_offset 7, -8
 1717              		.cfi_offset 14, -4
 1718 0002 85B0     		sub	sp, sp, #20
 1719              	.LCFI91:
 1720              		.cfi_def_cfa_offset 32
 1721 0004 00AF     		add	r7, sp, #0
 1722              	.LCFI92:
 1723              		.cfi_def_cfa_register 7
 1724 0006 7860     		str	r0, [r7, #4]
 1725 0008 3960     		str	r1, [r7]
1251:.\Generated_Source\PSoC4/QuadDec_1.c ****     uint8 enableInterrupts;
1252:.\Generated_Source\PSoC4/QuadDec_1.c **** 
1253:.\Generated_Source\PSoC4/QuadDec_1.c ****     enableInterrupts = CyEnterCriticalSection();
 1726              		.loc 1 1253 0
 1727 000a 3C1C     		mov	r4, r7
 1728 000c 0F34     		add	r4, r4, #15
 1729 000e FFF7FEFF 		bl	CyEnterCriticalSection
 1730 0012 031C     		mov	r3, r0
 1731 0014 2370     		strb	r3, [r4]
1254:.\Generated_Source\PSoC4/QuadDec_1.c **** 
1255:.\Generated_Source\PSoC4/QuadDec_1.c ****     QuadDec_1_COMMAND_REG = ((uint32)(mask << command));
 1732              		.loc 1 1255 0
 1733 0016 084B     		ldr	r3, .L109
 1734 0018 3A68     		ldr	r2, [r7]
 1735 001a 7968     		ldr	r1, [r7, #4]
 1736 001c 081C     		mov	r0, r1
 1737 001e 9040     		lsl	r0, r0, r2
 1738 0020 021C     		mov	r2, r0
 1739 0022 1A60     		str	r2, [r3]
1256:.\Generated_Source\PSoC4/QuadDec_1.c **** 
1257:.\Generated_Source\PSoC4/QuadDec_1.c ****     CyExitCriticalSection(enableInterrupts);
 1740              		.loc 1 1257 0
 1741 0024 3B1C     		mov	r3, r7
 1742 0026 0F33     		add	r3, r3, #15
 1743 0028 1B78     		ldrb	r3, [r3]
 1744 002a 181C     		mov	r0, r3
 1745 002c FFF7FEFF 		bl	CyExitCriticalSection
1258:.\Generated_Source\PSoC4/QuadDec_1.c **** }
 1746              		.loc 1 1258 0
 1747 0030 BD46     		mov	sp, r7
 1748 0032 05B0     		add	sp, sp, #20
 1749              		@ sp needed for prologue
 1750 0034 90BD     		pop	{r4, r7, pc}
 1751              	.L110:
 1752 0036 C046     		.align	2
 1753              	.L109:
 1754 0038 08000540 		.word	1074069512
 1755              		.cfi_endproc
 1756              	.LFE33:
 1757              		.size	QuadDec_1_TriggerCommand, .-QuadDec_1_TriggerCommand
 1758              		.section	.text.QuadDec_1_ReadStatus,"ax",%progbits
 1759              		.align	2
 1760              		.global	QuadDec_1_ReadStatus
 1761              		.code	16
 1762              		.thumb_func
 1763              		.type	QuadDec_1_ReadStatus, %function
ARM GAS  C:\DOCUME~1\Chuck\LOCALS~1\Temp\ccd20y4e.s 			page 54


 1764              	QuadDec_1_ReadStatus:
 1765              	.LFB34:
1259:.\Generated_Source\PSoC4/QuadDec_1.c **** 
1260:.\Generated_Source\PSoC4/QuadDec_1.c **** 
1261:.\Generated_Source\PSoC4/QuadDec_1.c **** /*******************************************************************************
1262:.\Generated_Source\PSoC4/QuadDec_1.c **** * Function Name: QuadDec_1_ReadStatus
1263:.\Generated_Source\PSoC4/QuadDec_1.c **** ********************************************************************************
1264:.\Generated_Source\PSoC4/QuadDec_1.c **** *
1265:.\Generated_Source\PSoC4/QuadDec_1.c **** * Summary:
1266:.\Generated_Source\PSoC4/QuadDec_1.c **** *  Reads the status of the QuadDec_1.
1267:.\Generated_Source\PSoC4/QuadDec_1.c **** *
1268:.\Generated_Source\PSoC4/QuadDec_1.c **** * Parameters:
1269:.\Generated_Source\PSoC4/QuadDec_1.c **** *  None
1270:.\Generated_Source\PSoC4/QuadDec_1.c **** *
1271:.\Generated_Source\PSoC4/QuadDec_1.c **** * Return:
1272:.\Generated_Source\PSoC4/QuadDec_1.c **** *  Status
1273:.\Generated_Source\PSoC4/QuadDec_1.c **** *   Values:
1274:.\Generated_Source\PSoC4/QuadDec_1.c **** *     - QuadDec_1_STATUS_DOWN    - Set if counting down
1275:.\Generated_Source\PSoC4/QuadDec_1.c **** *     - QuadDec_1_STATUS_RUNNING - Set if counter is running
1276:.\Generated_Source\PSoC4/QuadDec_1.c **** *
1277:.\Generated_Source\PSoC4/QuadDec_1.c **** *******************************************************************************/
1278:.\Generated_Source\PSoC4/QuadDec_1.c **** uint32 QuadDec_1_ReadStatus(void)
1279:.\Generated_Source\PSoC4/QuadDec_1.c **** {
 1766              		.loc 1 1279 0
 1767              		.cfi_startproc
 1768 0000 80B5     		push	{r7, lr}
 1769              	.LCFI93:
 1770              		.cfi_def_cfa_offset 8
 1771              		.cfi_offset 7, -8
 1772              		.cfi_offset 14, -4
 1773 0002 00AF     		add	r7, sp, #0
 1774              	.LCFI94:
 1775              		.cfi_def_cfa_register 7
1280:.\Generated_Source\PSoC4/QuadDec_1.c ****     return ((QuadDec_1_STATUS_REG >> QuadDec_1_RUNNING_STATUS_SHIFT) |
 1776              		.loc 1 1280 0
 1777 0004 054B     		ldr	r3, .L113
 1778 0006 1B68     		ldr	r3, [r3]
 1779 0008 9A0F     		lsr	r2, r3, #30
1281:.\Generated_Source\PSoC4/QuadDec_1.c ****             (QuadDec_1_STATUS_REG & QuadDec_1_STATUS_DOWN));
 1780              		.loc 1 1281 0
 1781 000a 044B     		ldr	r3, .L113
 1782 000c 1968     		ldr	r1, [r3]
 1783 000e 0123     		mov	r3, #1
 1784 0010 0B40     		and	r3, r1
1280:.\Generated_Source\PSoC4/QuadDec_1.c ****     return ((QuadDec_1_STATUS_REG >> QuadDec_1_RUNNING_STATUS_SHIFT) |
 1785              		.loc 1 1280 0
 1786 0012 1343     		orr	r3, r2
1282:.\Generated_Source\PSoC4/QuadDec_1.c **** }
 1787              		.loc 1 1282 0
 1788 0014 181C     		mov	r0, r3
 1789 0016 BD46     		mov	sp, r7
 1790              		@ sp needed for prologue
 1791 0018 80BD     		pop	{r7, pc}
 1792              	.L114:
 1793 001a C046     		.align	2
 1794              	.L113:
 1795 001c 04010540 		.word	1074069764
ARM GAS  C:\DOCUME~1\Chuck\LOCALS~1\Temp\ccd20y4e.s 			page 55


 1796              		.cfi_endproc
 1797              	.LFE34:
 1798              		.size	QuadDec_1_ReadStatus, .-QuadDec_1_ReadStatus
 1799              		.section	.text.QuadDec_1_SetInterruptMode,"ax",%progbits
 1800              		.align	2
 1801              		.global	QuadDec_1_SetInterruptMode
 1802              		.code	16
 1803              		.thumb_func
 1804              		.type	QuadDec_1_SetInterruptMode, %function
 1805              	QuadDec_1_SetInterruptMode:
 1806              	.LFB35:
1283:.\Generated_Source\PSoC4/QuadDec_1.c **** 
1284:.\Generated_Source\PSoC4/QuadDec_1.c **** 
1285:.\Generated_Source\PSoC4/QuadDec_1.c **** /*******************************************************************************
1286:.\Generated_Source\PSoC4/QuadDec_1.c **** * Function Name: QuadDec_1_SetInterruptMode
1287:.\Generated_Source\PSoC4/QuadDec_1.c **** ********************************************************************************
1288:.\Generated_Source\PSoC4/QuadDec_1.c **** *
1289:.\Generated_Source\PSoC4/QuadDec_1.c **** * Summary:
1290:.\Generated_Source\PSoC4/QuadDec_1.c **** *  Sets the interrupt mask to control which interrupt
1291:.\Generated_Source\PSoC4/QuadDec_1.c **** *  requests generate the interrupt signal.
1292:.\Generated_Source\PSoC4/QuadDec_1.c **** *
1293:.\Generated_Source\PSoC4/QuadDec_1.c **** * Parameters:
1294:.\Generated_Source\PSoC4/QuadDec_1.c **** *   interruptMask: Mask of bits to be enabled
1295:.\Generated_Source\PSoC4/QuadDec_1.c **** *   Values:
1296:.\Generated_Source\PSoC4/QuadDec_1.c **** *     - QuadDec_1_INTR_MASK_TC       - Terminal count mask
1297:.\Generated_Source\PSoC4/QuadDec_1.c **** *     - QuadDec_1_INTR_MASK_CC_MATCH - Compare count / capture mask
1298:.\Generated_Source\PSoC4/QuadDec_1.c **** *
1299:.\Generated_Source\PSoC4/QuadDec_1.c **** * Return:
1300:.\Generated_Source\PSoC4/QuadDec_1.c **** *  None
1301:.\Generated_Source\PSoC4/QuadDec_1.c **** *
1302:.\Generated_Source\PSoC4/QuadDec_1.c **** *******************************************************************************/
1303:.\Generated_Source\PSoC4/QuadDec_1.c **** void QuadDec_1_SetInterruptMode(uint32 interruptMask)
1304:.\Generated_Source\PSoC4/QuadDec_1.c **** {
 1807              		.loc 1 1304 0
 1808              		.cfi_startproc
 1809 0000 80B5     		push	{r7, lr}
 1810              	.LCFI95:
 1811              		.cfi_def_cfa_offset 8
 1812              		.cfi_offset 7, -8
 1813              		.cfi_offset 14, -4
 1814 0002 82B0     		sub	sp, sp, #8
 1815              	.LCFI96:
 1816              		.cfi_def_cfa_offset 16
 1817 0004 00AF     		add	r7, sp, #0
 1818              	.LCFI97:
 1819              		.cfi_def_cfa_register 7
 1820 0006 7860     		str	r0, [r7, #4]
1305:.\Generated_Source\PSoC4/QuadDec_1.c ****     QuadDec_1_INTERRUPT_MASK_REG =  interruptMask;
 1821              		.loc 1 1305 0
 1822 0008 024B     		ldr	r3, .L116
 1823 000a 7A68     		ldr	r2, [r7, #4]
 1824 000c 1A60     		str	r2, [r3]
1306:.\Generated_Source\PSoC4/QuadDec_1.c **** }
 1825              		.loc 1 1306 0
 1826 000e BD46     		mov	sp, r7
 1827 0010 02B0     		add	sp, sp, #8
 1828              		@ sp needed for prologue
ARM GAS  C:\DOCUME~1\Chuck\LOCALS~1\Temp\ccd20y4e.s 			page 56


 1829 0012 80BD     		pop	{r7, pc}
 1830              	.L117:
 1831              		.align	2
 1832              	.L116:
 1833 0014 38010540 		.word	1074069816
 1834              		.cfi_endproc
 1835              	.LFE35:
 1836              		.size	QuadDec_1_SetInterruptMode, .-QuadDec_1_SetInterruptMode
 1837              		.section	.text.QuadDec_1_GetInterruptSourceMasked,"ax",%progbits
 1838              		.align	2
 1839              		.global	QuadDec_1_GetInterruptSourceMasked
 1840              		.code	16
 1841              		.thumb_func
 1842              		.type	QuadDec_1_GetInterruptSourceMasked, %function
 1843              	QuadDec_1_GetInterruptSourceMasked:
 1844              	.LFB36:
1307:.\Generated_Source\PSoC4/QuadDec_1.c **** 
1308:.\Generated_Source\PSoC4/QuadDec_1.c **** 
1309:.\Generated_Source\PSoC4/QuadDec_1.c **** /*******************************************************************************
1310:.\Generated_Source\PSoC4/QuadDec_1.c **** * Function Name: QuadDec_1_GetInterruptSourceMasked
1311:.\Generated_Source\PSoC4/QuadDec_1.c **** ********************************************************************************
1312:.\Generated_Source\PSoC4/QuadDec_1.c **** *
1313:.\Generated_Source\PSoC4/QuadDec_1.c **** * Summary:
1314:.\Generated_Source\PSoC4/QuadDec_1.c **** *  Gets the interrupt requests masked by the interrupt mask.
1315:.\Generated_Source\PSoC4/QuadDec_1.c **** *
1316:.\Generated_Source\PSoC4/QuadDec_1.c **** * Parameters:
1317:.\Generated_Source\PSoC4/QuadDec_1.c **** *   None
1318:.\Generated_Source\PSoC4/QuadDec_1.c **** *
1319:.\Generated_Source\PSoC4/QuadDec_1.c **** * Return:
1320:.\Generated_Source\PSoC4/QuadDec_1.c **** *  Masked interrupt source
1321:.\Generated_Source\PSoC4/QuadDec_1.c **** *   Values:
1322:.\Generated_Source\PSoC4/QuadDec_1.c **** *     - QuadDec_1_INTR_MASK_TC       - Terminal count mask
1323:.\Generated_Source\PSoC4/QuadDec_1.c **** *     - QuadDec_1_INTR_MASK_CC_MATCH - Compare count / capture mask
1324:.\Generated_Source\PSoC4/QuadDec_1.c **** *
1325:.\Generated_Source\PSoC4/QuadDec_1.c **** *******************************************************************************/
1326:.\Generated_Source\PSoC4/QuadDec_1.c **** uint32 QuadDec_1_GetInterruptSourceMasked(void)
1327:.\Generated_Source\PSoC4/QuadDec_1.c **** {
 1845              		.loc 1 1327 0
 1846              		.cfi_startproc
 1847 0000 80B5     		push	{r7, lr}
 1848              	.LCFI98:
 1849              		.cfi_def_cfa_offset 8
 1850              		.cfi_offset 7, -8
 1851              		.cfi_offset 14, -4
 1852 0002 00AF     		add	r7, sp, #0
 1853              	.LCFI99:
 1854              		.cfi_def_cfa_register 7
1328:.\Generated_Source\PSoC4/QuadDec_1.c ****     return (QuadDec_1_INTERRUPT_MASKED_REG);
 1855              		.loc 1 1328 0
 1856 0004 024B     		ldr	r3, .L120
 1857 0006 1B68     		ldr	r3, [r3]
1329:.\Generated_Source\PSoC4/QuadDec_1.c **** }
 1858              		.loc 1 1329 0
 1859 0008 181C     		mov	r0, r3
 1860 000a BD46     		mov	sp, r7
 1861              		@ sp needed for prologue
 1862 000c 80BD     		pop	{r7, pc}
ARM GAS  C:\DOCUME~1\Chuck\LOCALS~1\Temp\ccd20y4e.s 			page 57


 1863              	.L121:
 1864 000e C046     		.align	2
 1865              	.L120:
 1866 0010 3C010540 		.word	1074069820
 1867              		.cfi_endproc
 1868              	.LFE36:
 1869              		.size	QuadDec_1_GetInterruptSourceMasked, .-QuadDec_1_GetInterruptSourceMasked
 1870              		.section	.text.QuadDec_1_GetInterruptSource,"ax",%progbits
 1871              		.align	2
 1872              		.global	QuadDec_1_GetInterruptSource
 1873              		.code	16
 1874              		.thumb_func
 1875              		.type	QuadDec_1_GetInterruptSource, %function
 1876              	QuadDec_1_GetInterruptSource:
 1877              	.LFB37:
1330:.\Generated_Source\PSoC4/QuadDec_1.c **** 
1331:.\Generated_Source\PSoC4/QuadDec_1.c **** 
1332:.\Generated_Source\PSoC4/QuadDec_1.c **** /*******************************************************************************
1333:.\Generated_Source\PSoC4/QuadDec_1.c **** * Function Name: QuadDec_1_GetInterruptSource
1334:.\Generated_Source\PSoC4/QuadDec_1.c **** ********************************************************************************
1335:.\Generated_Source\PSoC4/QuadDec_1.c **** *
1336:.\Generated_Source\PSoC4/QuadDec_1.c **** * Summary:
1337:.\Generated_Source\PSoC4/QuadDec_1.c **** *  Gets the interrupt requests (without masking).
1338:.\Generated_Source\PSoC4/QuadDec_1.c **** *
1339:.\Generated_Source\PSoC4/QuadDec_1.c **** * Parameters:
1340:.\Generated_Source\PSoC4/QuadDec_1.c **** *  None
1341:.\Generated_Source\PSoC4/QuadDec_1.c **** *
1342:.\Generated_Source\PSoC4/QuadDec_1.c **** * Return:
1343:.\Generated_Source\PSoC4/QuadDec_1.c **** *  Interrupt request value
1344:.\Generated_Source\PSoC4/QuadDec_1.c **** *   Values:
1345:.\Generated_Source\PSoC4/QuadDec_1.c **** *     - QuadDec_1_INTR_MASK_TC       - Terminal count mask
1346:.\Generated_Source\PSoC4/QuadDec_1.c **** *     - QuadDec_1_INTR_MASK_CC_MATCH - Compare count / capture mask
1347:.\Generated_Source\PSoC4/QuadDec_1.c **** *
1348:.\Generated_Source\PSoC4/QuadDec_1.c **** *******************************************************************************/
1349:.\Generated_Source\PSoC4/QuadDec_1.c **** uint32 QuadDec_1_GetInterruptSource(void)
1350:.\Generated_Source\PSoC4/QuadDec_1.c **** {
 1878              		.loc 1 1350 0
 1879              		.cfi_startproc
 1880 0000 80B5     		push	{r7, lr}
 1881              	.LCFI100:
 1882              		.cfi_def_cfa_offset 8
 1883              		.cfi_offset 7, -8
 1884              		.cfi_offset 14, -4
 1885 0002 00AF     		add	r7, sp, #0
 1886              	.LCFI101:
 1887              		.cfi_def_cfa_register 7
1351:.\Generated_Source\PSoC4/QuadDec_1.c ****     return (QuadDec_1_INTERRUPT_REQ_REG);
 1888              		.loc 1 1351 0
 1889 0004 024B     		ldr	r3, .L124
 1890 0006 1B68     		ldr	r3, [r3]
1352:.\Generated_Source\PSoC4/QuadDec_1.c **** }
 1891              		.loc 1 1352 0
 1892 0008 181C     		mov	r0, r3
 1893 000a BD46     		mov	sp, r7
 1894              		@ sp needed for prologue
 1895 000c 80BD     		pop	{r7, pc}
 1896              	.L125:
ARM GAS  C:\DOCUME~1\Chuck\LOCALS~1\Temp\ccd20y4e.s 			page 58


 1897 000e C046     		.align	2
 1898              	.L124:
 1899 0010 30010540 		.word	1074069808
 1900              		.cfi_endproc
 1901              	.LFE37:
 1902              		.size	QuadDec_1_GetInterruptSource, .-QuadDec_1_GetInterruptSource
 1903              		.section	.text.QuadDec_1_ClearInterrupt,"ax",%progbits
 1904              		.align	2
 1905              		.global	QuadDec_1_ClearInterrupt
 1906              		.code	16
 1907              		.thumb_func
 1908              		.type	QuadDec_1_ClearInterrupt, %function
 1909              	QuadDec_1_ClearInterrupt:
 1910              	.LFB38:
1353:.\Generated_Source\PSoC4/QuadDec_1.c **** 
1354:.\Generated_Source\PSoC4/QuadDec_1.c **** 
1355:.\Generated_Source\PSoC4/QuadDec_1.c **** /*******************************************************************************
1356:.\Generated_Source\PSoC4/QuadDec_1.c **** * Function Name: QuadDec_1_ClearInterrupt
1357:.\Generated_Source\PSoC4/QuadDec_1.c **** ********************************************************************************
1358:.\Generated_Source\PSoC4/QuadDec_1.c **** *
1359:.\Generated_Source\PSoC4/QuadDec_1.c **** * Summary:
1360:.\Generated_Source\PSoC4/QuadDec_1.c **** *  Clears the interrupt request.
1361:.\Generated_Source\PSoC4/QuadDec_1.c **** *
1362:.\Generated_Source\PSoC4/QuadDec_1.c **** * Parameters:
1363:.\Generated_Source\PSoC4/QuadDec_1.c **** *   interruptMask: Mask of interrupts to clear
1364:.\Generated_Source\PSoC4/QuadDec_1.c **** *   Values:
1365:.\Generated_Source\PSoC4/QuadDec_1.c **** *     - QuadDec_1_INTR_MASK_TC       - Terminal count mask
1366:.\Generated_Source\PSoC4/QuadDec_1.c **** *     - QuadDec_1_INTR_MASK_CC_MATCH - Compare count / capture mask
1367:.\Generated_Source\PSoC4/QuadDec_1.c **** *
1368:.\Generated_Source\PSoC4/QuadDec_1.c **** * Return:
1369:.\Generated_Source\PSoC4/QuadDec_1.c **** *  None
1370:.\Generated_Source\PSoC4/QuadDec_1.c **** *
1371:.\Generated_Source\PSoC4/QuadDec_1.c **** *******************************************************************************/
1372:.\Generated_Source\PSoC4/QuadDec_1.c **** void QuadDec_1_ClearInterrupt(uint32 interruptMask)
1373:.\Generated_Source\PSoC4/QuadDec_1.c **** {
 1911              		.loc 1 1373 0
 1912              		.cfi_startproc
 1913 0000 80B5     		push	{r7, lr}
 1914              	.LCFI102:
 1915              		.cfi_def_cfa_offset 8
 1916              		.cfi_offset 7, -8
 1917              		.cfi_offset 14, -4
 1918 0002 82B0     		sub	sp, sp, #8
 1919              	.LCFI103:
 1920              		.cfi_def_cfa_offset 16
 1921 0004 00AF     		add	r7, sp, #0
 1922              	.LCFI104:
 1923              		.cfi_def_cfa_register 7
 1924 0006 7860     		str	r0, [r7, #4]
1374:.\Generated_Source\PSoC4/QuadDec_1.c ****     QuadDec_1_INTERRUPT_REQ_REG = interruptMask;
 1925              		.loc 1 1374 0
 1926 0008 024B     		ldr	r3, .L127
 1927 000a 7A68     		ldr	r2, [r7, #4]
 1928 000c 1A60     		str	r2, [r3]
1375:.\Generated_Source\PSoC4/QuadDec_1.c **** }
 1929              		.loc 1 1375 0
 1930 000e BD46     		mov	sp, r7
ARM GAS  C:\DOCUME~1\Chuck\LOCALS~1\Temp\ccd20y4e.s 			page 59


 1931 0010 02B0     		add	sp, sp, #8
 1932              		@ sp needed for prologue
 1933 0012 80BD     		pop	{r7, pc}
 1934              	.L128:
 1935              		.align	2
 1936              	.L127:
 1937 0014 30010540 		.word	1074069808
 1938              		.cfi_endproc
 1939              	.LFE38:
 1940              		.size	QuadDec_1_ClearInterrupt, .-QuadDec_1_ClearInterrupt
 1941              		.section	.text.QuadDec_1_SetInterrupt,"ax",%progbits
 1942              		.align	2
 1943              		.global	QuadDec_1_SetInterrupt
 1944              		.code	16
 1945              		.thumb_func
 1946              		.type	QuadDec_1_SetInterrupt, %function
 1947              	QuadDec_1_SetInterrupt:
 1948              	.LFB39:
1376:.\Generated_Source\PSoC4/QuadDec_1.c **** 
1377:.\Generated_Source\PSoC4/QuadDec_1.c **** 
1378:.\Generated_Source\PSoC4/QuadDec_1.c **** /*******************************************************************************
1379:.\Generated_Source\PSoC4/QuadDec_1.c **** * Function Name: QuadDec_1_SetInterrupt
1380:.\Generated_Source\PSoC4/QuadDec_1.c **** ********************************************************************************
1381:.\Generated_Source\PSoC4/QuadDec_1.c **** *
1382:.\Generated_Source\PSoC4/QuadDec_1.c **** * Summary:
1383:.\Generated_Source\PSoC4/QuadDec_1.c **** *  Sets a software interrupt request.
1384:.\Generated_Source\PSoC4/QuadDec_1.c **** *
1385:.\Generated_Source\PSoC4/QuadDec_1.c **** * Parameters:
1386:.\Generated_Source\PSoC4/QuadDec_1.c **** *   interruptMask: Mask of interrupts to set
1387:.\Generated_Source\PSoC4/QuadDec_1.c **** *   Values:
1388:.\Generated_Source\PSoC4/QuadDec_1.c **** *     - QuadDec_1_INTR_MASK_TC       - Terminal count mask
1389:.\Generated_Source\PSoC4/QuadDec_1.c **** *     - QuadDec_1_INTR_MASK_CC_MATCH - Compare count / capture mask
1390:.\Generated_Source\PSoC4/QuadDec_1.c **** *
1391:.\Generated_Source\PSoC4/QuadDec_1.c **** * Return:
1392:.\Generated_Source\PSoC4/QuadDec_1.c **** *  None
1393:.\Generated_Source\PSoC4/QuadDec_1.c **** *
1394:.\Generated_Source\PSoC4/QuadDec_1.c **** *******************************************************************************/
1395:.\Generated_Source\PSoC4/QuadDec_1.c **** void QuadDec_1_SetInterrupt(uint32 interruptMask)
1396:.\Generated_Source\PSoC4/QuadDec_1.c **** {
 1949              		.loc 1 1396 0
 1950              		.cfi_startproc
 1951 0000 80B5     		push	{r7, lr}
 1952              	.LCFI105:
 1953              		.cfi_def_cfa_offset 8
 1954              		.cfi_offset 7, -8
 1955              		.cfi_offset 14, -4
 1956 0002 82B0     		sub	sp, sp, #8
 1957              	.LCFI106:
 1958              		.cfi_def_cfa_offset 16
 1959 0004 00AF     		add	r7, sp, #0
 1960              	.LCFI107:
 1961              		.cfi_def_cfa_register 7
 1962 0006 7860     		str	r0, [r7, #4]
1397:.\Generated_Source\PSoC4/QuadDec_1.c ****     QuadDec_1_INTERRUPT_SET_REG = interruptMask;
 1963              		.loc 1 1397 0
 1964 0008 024B     		ldr	r3, .L130
 1965 000a 7A68     		ldr	r2, [r7, #4]
ARM GAS  C:\DOCUME~1\Chuck\LOCALS~1\Temp\ccd20y4e.s 			page 60


 1966 000c 1A60     		str	r2, [r3]
1398:.\Generated_Source\PSoC4/QuadDec_1.c **** }
 1967              		.loc 1 1398 0
 1968 000e BD46     		mov	sp, r7
 1969 0010 02B0     		add	sp, sp, #8
 1970              		@ sp needed for prologue
 1971 0012 80BD     		pop	{r7, pc}
 1972              	.L131:
 1973              		.align	2
 1974              	.L130:
 1975 0014 34010540 		.word	1074069812
 1976              		.cfi_endproc
 1977              	.LFE39:
 1978              		.size	QuadDec_1_SetInterrupt, .-QuadDec_1_SetInterrupt
 1979              		.text
 1980              	.Letext0:
 1981              		.file 2 ".\\Generated_Source\\PSoC4\\cytypes.h"
 1982              		.section	.debug_info,"",%progbits
 1983              	.Ldebug_info0:
 1984 0000 BA070000 		.4byte	0x7ba
 1985 0004 0200     		.2byte	0x2
 1986 0006 00000000 		.4byte	.Ldebug_abbrev0
 1987 000a 04       		.byte	0x4
 1988 000b 01       		.uleb128 0x1
 1989 000c FD030000 		.4byte	.LASF76
 1990 0010 01       		.byte	0x1
 1991 0011 31050000 		.4byte	.LASF77
 1992 0015 50020000 		.4byte	.LASF78
 1993 0019 00000000 		.4byte	.Ldebug_ranges0+0
 1994 001d 00000000 		.4byte	0
 1995 0021 00000000 		.4byte	0
 1996 0025 00000000 		.4byte	.Ldebug_line0
 1997 0029 02       		.uleb128 0x2
 1998 002a 01       		.byte	0x1
 1999 002b 06       		.byte	0x6
 2000 002c CF000000 		.4byte	.LASF0
 2001 0030 02       		.uleb128 0x2
 2002 0031 01       		.byte	0x1
 2003 0032 08       		.byte	0x8
 2004 0033 46040000 		.4byte	.LASF1
 2005 0037 02       		.uleb128 0x2
 2006 0038 02       		.byte	0x2
 2007 0039 05       		.byte	0x5
 2008 003a 65040000 		.4byte	.LASF2
 2009 003e 02       		.uleb128 0x2
 2010 003f 02       		.byte	0x2
 2011 0040 07       		.byte	0x7
 2012 0041 26020000 		.4byte	.LASF3
 2013 0045 02       		.uleb128 0x2
 2014 0046 04       		.byte	0x4
 2015 0047 05       		.byte	0x5
 2016 0048 F0000000 		.4byte	.LASF4
 2017 004c 02       		.uleb128 0x2
 2018 004d 04       		.byte	0x4
 2019 004e 07       		.byte	0x7
 2020 004f C3010000 		.4byte	.LASF5
 2021 0053 02       		.uleb128 0x2
ARM GAS  C:\DOCUME~1\Chuck\LOCALS~1\Temp\ccd20y4e.s 			page 61


 2022 0054 08       		.byte	0x8
 2023 0055 05       		.byte	0x5
 2024 0056 C1000000 		.4byte	.LASF6
 2025 005a 02       		.uleb128 0x2
 2026 005b 08       		.byte	0x8
 2027 005c 07       		.byte	0x7
 2028 005d 65000000 		.4byte	.LASF7
 2029 0061 03       		.uleb128 0x3
 2030 0062 04       		.byte	0x4
 2031 0063 05       		.byte	0x5
 2032 0064 696E7400 		.ascii	"int\000"
 2033 0068 02       		.uleb128 0x2
 2034 0069 04       		.byte	0x4
 2035 006a 07       		.byte	0x7
 2036 006b 95010000 		.4byte	.LASF8
 2037 006f 04       		.uleb128 0x4
 2038 0070 28010000 		.4byte	.LASF9
 2039 0074 02       		.byte	0x2
 2040 0075 5B       		.byte	0x5b
 2041 0076 30000000 		.4byte	0x30
 2042 007a 04       		.uleb128 0x4
 2043 007b 47010000 		.4byte	.LASF10
 2044 007f 02       		.byte	0x2
 2045 0080 5D       		.byte	0x5d
 2046 0081 4C000000 		.4byte	0x4c
 2047 0085 02       		.uleb128 0x2
 2048 0086 04       		.byte	0x4
 2049 0087 04       		.byte	0x4
 2050 0088 B2030000 		.4byte	.LASF11
 2051 008c 02       		.uleb128 0x2
 2052 008d 08       		.byte	0x8
 2053 008e 04       		.byte	0x4
 2054 008f 40010000 		.4byte	.LASF12
 2055 0093 02       		.uleb128 0x2
 2056 0094 01       		.byte	0x1
 2057 0095 08       		.byte	0x8
 2058 0096 C1040000 		.4byte	.LASF13
 2059 009a 04       		.uleb128 0x4
 2060 009b 2F030000 		.4byte	.LASF14
 2061 009f 02       		.byte	0x2
 2062 00a0 F2       		.byte	0xf2
 2063 00a1 A5000000 		.4byte	0xa5
 2064 00a5 05       		.uleb128 0x5
 2065 00a6 7A000000 		.4byte	0x7a
 2066 00aa 02       		.uleb128 0x2
 2067 00ab 04       		.byte	0x4
 2068 00ac 07       		.byte	0x7
 2069 00ad 4C030000 		.4byte	.LASF15
 2070 00b1 06       		.uleb128 0x6
 2071 00b2 01       		.byte	0x1
 2072 00b3 4F000000 		.4byte	.LASF16
 2073 00b7 01       		.byte	0x1
 2074 00b8 27       		.byte	0x27
 2075 00b9 01       		.byte	0x1
 2076 00ba 00000000 		.4byte	.LFB0
 2077 00be 28000000 		.4byte	.LFE0
 2078 00c2 00000000 		.4byte	.LLST0
ARM GAS  C:\DOCUME~1\Chuck\LOCALS~1\Temp\ccd20y4e.s 			page 62


 2079 00c6 01       		.byte	0x1
 2080 00c7 07       		.uleb128 0x7
 2081 00c8 01       		.byte	0x1
 2082 00c9 7A050000 		.4byte	.LASF18
 2083 00cd 01       		.byte	0x1
 2084 00ce C8       		.byte	0xc8
 2085 00cf 01       		.byte	0x1
 2086 00d0 00000000 		.4byte	.LFB1
 2087 00d4 30000000 		.4byte	.LFE1
 2088 00d8 2C000000 		.4byte	.LLST1
 2089 00dc 01       		.byte	0x1
 2090 00dd F0000000 		.4byte	0xf0
 2091 00e1 08       		.uleb128 0x8
 2092 00e2 A6050000 		.4byte	.LASF20
 2093 00e6 01       		.byte	0x1
 2094 00e7 CA       		.byte	0xca
 2095 00e8 6F000000 		.4byte	0x6f
 2096 00ec 02       		.byte	0x2
 2097 00ed 91       		.byte	0x91
 2098 00ee 6F       		.sleb128 -17
 2099 00ef 00       		.byte	0
 2100 00f0 06       		.uleb128 0x6
 2101 00f1 01       		.byte	0x1
 2102 00f2 CE050000 		.4byte	.LASF17
 2103 00f6 01       		.byte	0x1
 2104 00f7 F7       		.byte	0xf7
 2105 00f8 01       		.byte	0x1
 2106 00f9 00000000 		.4byte	.LFB2
 2107 00fd 24000000 		.4byte	.LFE2
 2108 0101 64000000 		.4byte	.LLST2
 2109 0105 01       		.byte	0x1
 2110 0106 09       		.uleb128 0x9
 2111 0107 01       		.byte	0x1
 2112 0108 6F040000 		.4byte	.LASF19
 2113 010c 01       		.byte	0x1
 2114 010d 1101     		.2byte	0x111
 2115 010f 01       		.byte	0x1
 2116 0110 00000000 		.4byte	.LFB3
 2117 0114 30000000 		.4byte	.LFE3
 2118 0118 90000000 		.4byte	.LLST3
 2119 011c 01       		.byte	0x1
 2120 011d 31010000 		.4byte	0x131
 2121 0121 0A       		.uleb128 0xa
 2122 0122 A6050000 		.4byte	.LASF20
 2123 0126 01       		.byte	0x1
 2124 0127 1301     		.2byte	0x113
 2125 0129 6F000000 		.4byte	0x6f
 2126 012d 02       		.byte	0x2
 2127 012e 91       		.byte	0x91
 2128 012f 6F       		.sleb128 -17
 2129 0130 00       		.byte	0
 2130 0131 09       		.uleb128 0x9
 2131 0132 01       		.byte	0x1
 2132 0133 2E010000 		.4byte	.LASF21
 2133 0137 01       		.byte	0x1
 2134 0138 3601     		.2byte	0x136
 2135 013a 01       		.byte	0x1
ARM GAS  C:\DOCUME~1\Chuck\LOCALS~1\Temp\ccd20y4e.s 			page 63


 2136 013b 00000000 		.4byte	.LFB4
 2137 013f 48000000 		.4byte	.LFE4
 2138 0143 C8000000 		.4byte	.LLST4
 2139 0147 01       		.byte	0x1
 2140 0148 6B010000 		.4byte	0x16b
 2141 014c 0B       		.uleb128 0xb
 2142 014d C6040000 		.4byte	.LASF23
 2143 0151 01       		.byte	0x1
 2144 0152 3601     		.2byte	0x136
 2145 0154 7A000000 		.4byte	0x7a
 2146 0158 02       		.byte	0x2
 2147 0159 91       		.byte	0x91
 2148 015a 64       		.sleb128 -28
 2149 015b 0A       		.uleb128 0xa
 2150 015c A6050000 		.4byte	.LASF20
 2151 0160 01       		.byte	0x1
 2152 0161 3801     		.2byte	0x138
 2153 0163 6F000000 		.4byte	0x6f
 2154 0167 02       		.byte	0x2
 2155 0168 91       		.byte	0x91
 2156 0169 6F       		.sleb128 -17
 2157 016a 00       		.byte	0
 2158 016b 09       		.uleb128 0x9
 2159 016c 01       		.byte	0x1
 2160 016d AD040000 		.4byte	.LASF22
 2161 0171 01       		.byte	0x1
 2162 0172 5701     		.2byte	0x157
 2163 0174 01       		.byte	0x1
 2164 0175 00000000 		.4byte	.LFB5
 2165 0179 48000000 		.4byte	.LFE5
 2166 017d 00010000 		.4byte	.LLST5
 2167 0181 01       		.byte	0x1
 2168 0182 A5010000 		.4byte	0x1a5
 2169 0186 0B       		.uleb128 0xb
 2170 0187 97000000 		.4byte	.LASF24
 2171 018b 01       		.byte	0x1
 2172 018c 5701     		.2byte	0x157
 2173 018e 7A000000 		.4byte	0x7a
 2174 0192 02       		.byte	0x2
 2175 0193 91       		.byte	0x91
 2176 0194 64       		.sleb128 -28
 2177 0195 0A       		.uleb128 0xa
 2178 0196 A6050000 		.4byte	.LASF20
 2179 019a 01       		.byte	0x1
 2180 019b 5901     		.2byte	0x159
 2181 019d 6F000000 		.4byte	0x6f
 2182 01a1 02       		.byte	0x2
 2183 01a2 91       		.byte	0x91
 2184 01a3 6F       		.sleb128 -17
 2185 01a4 00       		.byte	0
 2186 01a5 09       		.uleb128 0x9
 2187 01a6 01       		.byte	0x1
 2188 01a7 B7050000 		.4byte	.LASF25
 2189 01ab 01       		.byte	0x1
 2190 01ac 7C01     		.2byte	0x17c
 2191 01ae 01       		.byte	0x1
 2192 01af 00000000 		.4byte	.LFB6
ARM GAS  C:\DOCUME~1\Chuck\LOCALS~1\Temp\ccd20y4e.s 			page 64


 2193 01b3 48000000 		.4byte	.LFE6
 2194 01b7 38010000 		.4byte	.LLST6
 2195 01bb 01       		.byte	0x1
 2196 01bc DF010000 		.4byte	0x1df
 2197 01c0 0B       		.uleb128 0xb
 2198 01c1 C6030000 		.4byte	.LASF26
 2199 01c5 01       		.byte	0x1
 2200 01c6 7C01     		.2byte	0x17c
 2201 01c8 7A000000 		.4byte	0x7a
 2202 01cc 02       		.byte	0x2
 2203 01cd 91       		.byte	0x91
 2204 01ce 64       		.sleb128 -28
 2205 01cf 0A       		.uleb128 0xa
 2206 01d0 A6050000 		.4byte	.LASF20
 2207 01d4 01       		.byte	0x1
 2208 01d5 7E01     		.2byte	0x17e
 2209 01d7 6F000000 		.4byte	0x6f
 2210 01db 02       		.byte	0x2
 2211 01dc 91       		.byte	0x91
 2212 01dd 6F       		.sleb128 -17
 2213 01de 00       		.byte	0
 2214 01df 09       		.uleb128 0x9
 2215 01e0 01       		.byte	0x1
 2216 01e1 A8020000 		.4byte	.LASF27
 2217 01e5 01       		.byte	0x1
 2218 01e6 9C01     		.2byte	0x19c
 2219 01e8 01       		.byte	0x1
 2220 01e9 00000000 		.4byte	.LFB7
 2221 01ed 4C000000 		.4byte	.LFE7
 2222 01f1 70010000 		.4byte	.LLST7
 2223 01f5 01       		.byte	0x1
 2224 01f6 19020000 		.4byte	0x219
 2225 01fa 0B       		.uleb128 0xb
 2226 01fb BD020000 		.4byte	.LASF28
 2227 01ff 01       		.byte	0x1
 2228 0200 9C01     		.2byte	0x19c
 2229 0202 7A000000 		.4byte	0x7a
 2230 0206 02       		.byte	0x2
 2231 0207 91       		.byte	0x91
 2232 0208 64       		.sleb128 -28
 2233 0209 0A       		.uleb128 0xa
 2234 020a A6050000 		.4byte	.LASF20
 2235 020e 01       		.byte	0x1
 2236 020f 9E01     		.2byte	0x19e
 2237 0211 6F000000 		.4byte	0x6f
 2238 0215 02       		.byte	0x2
 2239 0216 91       		.byte	0x91
 2240 0217 6F       		.sleb128 -17
 2241 0218 00       		.byte	0
 2242 0219 0C       		.uleb128 0xc
 2243 021a 01       		.byte	0x1
 2244 021b 6C030000 		.4byte	.LASF29
 2245 021f 01       		.byte	0x1
 2246 0220 D201     		.2byte	0x1d2
 2247 0222 01       		.byte	0x1
 2248 0223 00000000 		.4byte	.LFB8
 2249 0227 1C000000 		.4byte	.LFE8
ARM GAS  C:\DOCUME~1\Chuck\LOCALS~1\Temp\ccd20y4e.s 			page 65


 2250 022b A8010000 		.4byte	.LLST8
 2251 022f 01       		.byte	0x1
 2252 0230 44020000 		.4byte	0x244
 2253 0234 0B       		.uleb128 0xb
 2254 0235 D5010000 		.4byte	.LASF30
 2255 0239 01       		.byte	0x1
 2256 023a D201     		.2byte	0x1d2
 2257 023c 7A000000 		.4byte	0x7a
 2258 0240 02       		.byte	0x2
 2259 0241 91       		.byte	0x91
 2260 0242 74       		.sleb128 -12
 2261 0243 00       		.byte	0
 2262 0244 09       		.uleb128 0x9
 2263 0245 01       		.byte	0x1
 2264 0246 F8010000 		.4byte	.LASF31
 2265 024a 01       		.byte	0x1
 2266 024b F601     		.2byte	0x1f6
 2267 024d 01       		.byte	0x1
 2268 024e 00000000 		.4byte	.LFB9
 2269 0252 48000000 		.4byte	.LFE9
 2270 0256 E0010000 		.4byte	.LLST9
 2271 025a 01       		.byte	0x1
 2272 025b 7E020000 		.4byte	0x27e
 2273 025f 0B       		.uleb128 0xb
 2274 0260 55030000 		.4byte	.LASF32
 2275 0264 01       		.byte	0x1
 2276 0265 F601     		.2byte	0x1f6
 2277 0267 7A000000 		.4byte	0x7a
 2278 026b 02       		.byte	0x2
 2279 026c 91       		.byte	0x91
 2280 026d 64       		.sleb128 -28
 2281 026e 0A       		.uleb128 0xa
 2282 026f A6050000 		.4byte	.LASF20
 2283 0273 01       		.byte	0x1
 2284 0274 F801     		.2byte	0x1f8
 2285 0276 6F000000 		.4byte	0x6f
 2286 027a 02       		.byte	0x2
 2287 027b 91       		.byte	0x91
 2288 027c 6F       		.sleb128 -17
 2289 027d 00       		.byte	0
 2290 027e 09       		.uleb128 0x9
 2291 027f 01       		.byte	0x1
 2292 0280 8B050000 		.4byte	.LASF33
 2293 0284 01       		.byte	0x1
 2294 0285 1802     		.2byte	0x218
 2295 0287 01       		.byte	0x1
 2296 0288 00000000 		.4byte	.LFB10
 2297 028c 48000000 		.4byte	.LFE10
 2298 0290 18020000 		.4byte	.LLST10
 2299 0294 01       		.byte	0x1
 2300 0295 B8020000 		.4byte	0x2b8
 2301 0299 0B       		.uleb128 0xb
 2302 029a 54040000 		.4byte	.LASF34
 2303 029e 01       		.byte	0x1
 2304 029f 1802     		.2byte	0x218
 2305 02a1 7A000000 		.4byte	0x7a
 2306 02a5 02       		.byte	0x2
ARM GAS  C:\DOCUME~1\Chuck\LOCALS~1\Temp\ccd20y4e.s 			page 66


 2307 02a6 91       		.byte	0x91
 2308 02a7 64       		.sleb128 -28
 2309 02a8 0A       		.uleb128 0xa
 2310 02a9 A6050000 		.4byte	.LASF20
 2311 02ad 01       		.byte	0x1
 2312 02ae 1A02     		.2byte	0x21a
 2313 02b0 6F000000 		.4byte	0x6f
 2314 02b4 02       		.byte	0x2
 2315 02b5 91       		.byte	0x91
 2316 02b6 6F       		.sleb128 -17
 2317 02b7 00       		.byte	0
 2318 02b8 09       		.uleb128 0x9
 2319 02b9 01       		.byte	0x1
 2320 02ba 0F010000 		.4byte	.LASF35
 2321 02be 01       		.byte	0x1
 2322 02bf 3902     		.2byte	0x239
 2323 02c1 01       		.byte	0x1
 2324 02c2 00000000 		.4byte	.LFB11
 2325 02c6 4C000000 		.4byte	.LFE11
 2326 02ca 50020000 		.4byte	.LLST11
 2327 02ce 01       		.byte	0x1
 2328 02cf F2020000 		.4byte	0x2f2
 2329 02d3 0B       		.uleb128 0xb
 2330 02d4 76010000 		.4byte	.LASF36
 2331 02d8 01       		.byte	0x1
 2332 02d9 3902     		.2byte	0x239
 2333 02db 7A000000 		.4byte	0x7a
 2334 02df 02       		.byte	0x2
 2335 02e0 91       		.byte	0x91
 2336 02e1 64       		.sleb128 -28
 2337 02e2 0A       		.uleb128 0xa
 2338 02e3 A6050000 		.4byte	.LASF20
 2339 02e7 01       		.byte	0x1
 2340 02e8 3B02     		.2byte	0x23b
 2341 02ea 6F000000 		.4byte	0x6f
 2342 02ee 02       		.byte	0x2
 2343 02ef 91       		.byte	0x91
 2344 02f0 6F       		.sleb128 -17
 2345 02f1 00       		.byte	0
 2346 02f2 09       		.uleb128 0x9
 2347 02f3 01       		.byte	0x1
 2348 02f4 06000000 		.4byte	.LASF37
 2349 02f8 01       		.byte	0x1
 2350 02f9 5A02     		.2byte	0x25a
 2351 02fb 01       		.byte	0x1
 2352 02fc 00000000 		.4byte	.LFB12
 2353 0300 48000000 		.4byte	.LFE12
 2354 0304 88020000 		.4byte	.LLST12
 2355 0308 01       		.byte	0x1
 2356 0309 2C030000 		.4byte	0x32c
 2357 030d 0B       		.uleb128 0xb
 2358 030e 71010000 		.4byte	.LASF38
 2359 0312 01       		.byte	0x1
 2360 0313 5A02     		.2byte	0x25a
 2361 0315 7A000000 		.4byte	0x7a
 2362 0319 02       		.byte	0x2
 2363 031a 91       		.byte	0x91
ARM GAS  C:\DOCUME~1\Chuck\LOCALS~1\Temp\ccd20y4e.s 			page 67


 2364 031b 64       		.sleb128 -28
 2365 031c 0A       		.uleb128 0xa
 2366 031d A6050000 		.4byte	.LASF20
 2367 0321 01       		.byte	0x1
 2368 0322 5C02     		.2byte	0x25c
 2369 0324 6F000000 		.4byte	0x6f
 2370 0328 02       		.byte	0x2
 2371 0329 91       		.byte	0x91
 2372 032a 6F       		.sleb128 -17
 2373 032b 00       		.byte	0
 2374 032c 0C       		.uleb128 0xc
 2375 032d 01       		.byte	0x1
 2376 032e E6030000 		.4byte	.LASF39
 2377 0332 01       		.byte	0x1
 2378 0333 7802     		.2byte	0x278
 2379 0335 01       		.byte	0x1
 2380 0336 00000000 		.4byte	.LFB13
 2381 033a 1C000000 		.4byte	.LFE13
 2382 033e C0020000 		.4byte	.LLST13
 2383 0342 01       		.byte	0x1
 2384 0343 57030000 		.4byte	0x357
 2385 0347 0B       		.uleb128 0xb
 2386 0348 00000000 		.4byte	.LASF40
 2387 034c 01       		.byte	0x1
 2388 034d 7802     		.2byte	0x278
 2389 034f 7A000000 		.4byte	0x7a
 2390 0353 02       		.byte	0x2
 2391 0354 91       		.byte	0x91
 2392 0355 74       		.sleb128 -12
 2393 0356 00       		.byte	0
 2394 0357 0D       		.uleb128 0xd
 2395 0358 01       		.byte	0x1
 2396 0359 F9000000 		.4byte	.LASF45
 2397 035d 01       		.byte	0x1
 2398 035e 8C02     		.2byte	0x28c
 2399 0360 01       		.byte	0x1
 2400 0361 7A000000 		.4byte	0x7a
 2401 0365 00000000 		.4byte	.LFB14
 2402 0369 18000000 		.4byte	.LFE14
 2403 036d F8020000 		.4byte	.LLST14
 2404 0371 01       		.byte	0x1
 2405 0372 09       		.uleb128 0x9
 2406 0373 01       		.byte	0x1
 2407 0374 99030000 		.4byte	.LASF41
 2408 0378 01       		.byte	0x1
 2409 0379 A902     		.2byte	0x2a9
 2410 037b 01       		.byte	0x1
 2411 037c 00000000 		.4byte	.LFB15
 2412 0380 48000000 		.4byte	.LFE15
 2413 0384 24030000 		.4byte	.LLST15
 2414 0388 01       		.byte	0x1
 2415 0389 AC030000 		.4byte	0x3ac
 2416 038d 0B       		.uleb128 0xb
 2417 038e F4040000 		.4byte	.LASF42
 2418 0392 01       		.byte	0x1
 2419 0393 A902     		.2byte	0x2a9
 2420 0395 7A000000 		.4byte	0x7a
ARM GAS  C:\DOCUME~1\Chuck\LOCALS~1\Temp\ccd20y4e.s 			page 68


 2421 0399 02       		.byte	0x2
 2422 039a 91       		.byte	0x91
 2423 039b 64       		.sleb128 -28
 2424 039c 0A       		.uleb128 0xa
 2425 039d A6050000 		.4byte	.LASF20
 2426 03a1 01       		.byte	0x1
 2427 03a2 AB02     		.2byte	0x2ab
 2428 03a4 6F000000 		.4byte	0x6f
 2429 03a8 02       		.byte	0x2
 2430 03a9 91       		.byte	0x91
 2431 03aa 6F       		.sleb128 -17
 2432 03ab 00       		.byte	0
 2433 03ac 0C       		.uleb128 0xc
 2434 03ad 01       		.byte	0x1
 2435 03ae FC020000 		.4byte	.LASF43
 2436 03b2 01       		.byte	0x1
 2437 03b3 C602     		.2byte	0x2c6
 2438 03b5 01       		.byte	0x1
 2439 03b6 00000000 		.4byte	.LFB16
 2440 03ba 1C000000 		.4byte	.LFE16
 2441 03be 5C030000 		.4byte	.LLST16
 2442 03c2 01       		.byte	0x1
 2443 03c3 D7030000 		.4byte	0x3d7
 2444 03c7 0B       		.uleb128 0xb
 2445 03c8 5E000000 		.4byte	.LASF44
 2446 03cc 01       		.byte	0x1
 2447 03cd C602     		.2byte	0x2c6
 2448 03cf 7A000000 		.4byte	0x7a
 2449 03d3 02       		.byte	0x2
 2450 03d4 91       		.byte	0x91
 2451 03d5 74       		.sleb128 -12
 2452 03d6 00       		.byte	0
 2453 03d7 0D       		.uleb128 0xd
 2454 03d8 01       		.byte	0x1
 2455 03d9 11020000 		.4byte	.LASF46
 2456 03dd 01       		.byte	0x1
 2457 03de DA02     		.2byte	0x2da
 2458 03e0 01       		.byte	0x1
 2459 03e1 7A000000 		.4byte	0x7a
 2460 03e5 00000000 		.4byte	.LFB17
 2461 03e9 18000000 		.4byte	.LFE17
 2462 03ed 94030000 		.4byte	.LLST17
 2463 03f1 01       		.byte	0x1
 2464 03f2 09       		.uleb128 0x9
 2465 03f3 01       		.byte	0x1
 2466 03f4 56050000 		.4byte	.LASF47
 2467 03f8 01       		.byte	0x1
 2468 03f9 F402     		.2byte	0x2f4
 2469 03fb 01       		.byte	0x1
 2470 03fc 00000000 		.4byte	.LFB18
 2471 0400 48000000 		.4byte	.LFE18
 2472 0404 C0030000 		.4byte	.LLST18
 2473 0408 01       		.byte	0x1
 2474 0409 2C040000 		.4byte	0x42c
 2475 040d 0B       		.uleb128 0xb
 2476 040e DE050000 		.4byte	.LASF48
 2477 0412 01       		.byte	0x1
ARM GAS  C:\DOCUME~1\Chuck\LOCALS~1\Temp\ccd20y4e.s 			page 69


 2478 0413 F402     		.2byte	0x2f4
 2479 0415 7A000000 		.4byte	0x7a
 2480 0419 02       		.byte	0x2
 2481 041a 91       		.byte	0x91
 2482 041b 64       		.sleb128 -28
 2483 041c 0A       		.uleb128 0xa
 2484 041d A6050000 		.4byte	.LASF20
 2485 0421 01       		.byte	0x1
 2486 0422 F602     		.2byte	0x2f6
 2487 0424 6F000000 		.4byte	0x6f
 2488 0428 02       		.byte	0x2
 2489 0429 91       		.byte	0x91
 2490 042a 6F       		.sleb128 -17
 2491 042b 00       		.byte	0
 2492 042c 0C       		.uleb128 0xc
 2493 042d 01       		.byte	0x1
 2494 042e A2010000 		.4byte	.LASF49
 2495 0432 01       		.byte	0x1
 2496 0433 0F03     		.2byte	0x30f
 2497 0435 01       		.byte	0x1
 2498 0436 00000000 		.4byte	.LFB19
 2499 043a 1C000000 		.4byte	.LFE19
 2500 043e F8030000 		.4byte	.LLST19
 2501 0442 01       		.byte	0x1
 2502 0443 57040000 		.4byte	0x457
 2503 0447 0B       		.uleb128 0xb
 2504 0448 E9050000 		.4byte	.LASF50
 2505 044c 01       		.byte	0x1
 2506 044d 0F03     		.2byte	0x30f
 2507 044f 7A000000 		.4byte	0x7a
 2508 0453 02       		.byte	0x2
 2509 0454 91       		.byte	0x91
 2510 0455 74       		.sleb128 -12
 2511 0456 00       		.byte	0
 2512 0457 0D       		.uleb128 0xd
 2513 0458 01       		.byte	0x1
 2514 0459 81030000 		.4byte	.LASF51
 2515 045d 01       		.byte	0x1
 2516 045e 2303     		.2byte	0x323
 2517 0460 01       		.byte	0x1
 2518 0461 7A000000 		.4byte	0x7a
 2519 0465 00000000 		.4byte	.LFB20
 2520 0469 18000000 		.4byte	.LFE20
 2521 046d 30040000 		.4byte	.LLST20
 2522 0471 01       		.byte	0x1
 2523 0472 09       		.uleb128 0x9
 2524 0473 01       		.byte	0x1
 2525 0474 E4020000 		.4byte	.LASF52
 2526 0478 01       		.byte	0x1
 2527 0479 3D03     		.2byte	0x33d
 2528 047b 01       		.byte	0x1
 2529 047c 00000000 		.4byte	.LFB21
 2530 0480 48000000 		.4byte	.LFE21
 2531 0484 5C040000 		.4byte	.LLST21
 2532 0488 01       		.byte	0x1
 2533 0489 AC040000 		.4byte	0x4ac
 2534 048d 0B       		.uleb128 0xb
ARM GAS  C:\DOCUME~1\Chuck\LOCALS~1\Temp\ccd20y4e.s 			page 70


 2535 048e DE050000 		.4byte	.LASF48
 2536 0492 01       		.byte	0x1
 2537 0493 3D03     		.2byte	0x33d
 2538 0495 7A000000 		.4byte	0x7a
 2539 0499 02       		.byte	0x2
 2540 049a 91       		.byte	0x91
 2541 049b 64       		.sleb128 -28
 2542 049c 0A       		.uleb128 0xa
 2543 049d A6050000 		.4byte	.LASF20
 2544 04a1 01       		.byte	0x1
 2545 04a2 3F03     		.2byte	0x33f
 2546 04a4 6F000000 		.4byte	0x6f
 2547 04a8 02       		.byte	0x2
 2548 04a9 91       		.byte	0x91
 2549 04aa 6F       		.sleb128 -17
 2550 04ab 00       		.byte	0
 2551 04ac 0C       		.uleb128 0xc
 2552 04ad 01       		.byte	0x1
 2553 04ae 35030000 		.4byte	.LASF53
 2554 04b2 01       		.byte	0x1
 2555 04b3 5A03     		.2byte	0x35a
 2556 04b5 01       		.byte	0x1
 2557 04b6 00000000 		.4byte	.LFB22
 2558 04ba 1C000000 		.4byte	.LFE22
 2559 04be 94040000 		.4byte	.LLST22
 2560 04c2 01       		.byte	0x1
 2561 04c3 D7040000 		.4byte	0x4d7
 2562 04c7 0B       		.uleb128 0xb
 2563 04c8 64030000 		.4byte	.LASF54
 2564 04cc 01       		.byte	0x1
 2565 04cd 5A03     		.2byte	0x35a
 2566 04cf 7A000000 		.4byte	0x7a
 2567 04d3 02       		.byte	0x2
 2568 04d4 91       		.byte	0x91
 2569 04d5 74       		.sleb128 -12
 2570 04d6 00       		.byte	0
 2571 04d7 0D       		.uleb128 0xd
 2572 04d8 01       		.byte	0x1
 2573 04d9 97040000 		.4byte	.LASF55
 2574 04dd 01       		.byte	0x1
 2575 04de 8403     		.2byte	0x384
 2576 04e0 01       		.byte	0x1
 2577 04e1 7A000000 		.4byte	0x7a
 2578 04e5 00000000 		.4byte	.LFB23
 2579 04e9 18000000 		.4byte	.LFE23
 2580 04ed CC040000 		.4byte	.LLST23
 2581 04f1 01       		.byte	0x1
 2582 04f2 0C       		.uleb128 0xc
 2583 04f3 01       		.byte	0x1
 2584 04f4 DE010000 		.4byte	.LASF56
 2585 04f8 01       		.byte	0x1
 2586 04f9 B003     		.2byte	0x3b0
 2587 04fb 01       		.byte	0x1
 2588 04fc 00000000 		.4byte	.LFB24
 2589 0500 1C000000 		.4byte	.LFE24
 2590 0504 F8040000 		.4byte	.LLST24
 2591 0508 01       		.byte	0x1
ARM GAS  C:\DOCUME~1\Chuck\LOCALS~1\Temp\ccd20y4e.s 			page 71


 2592 0509 1D050000 		.4byte	0x51d
 2593 050d 0B       		.uleb128 0xb
 2594 050e 6F050000 		.4byte	.LASF57
 2595 0512 01       		.byte	0x1
 2596 0513 B003     		.2byte	0x3b0
 2597 0515 7A000000 		.4byte	0x7a
 2598 0519 02       		.byte	0x2
 2599 051a 91       		.byte	0x91
 2600 051b 74       		.sleb128 -12
 2601 051c 00       		.byte	0
 2602 051d 0D       		.uleb128 0xd
 2603 051e 01       		.byte	0x1
 2604 051f 18050000 		.4byte	.LASF58
 2605 0523 01       		.byte	0x1
 2606 0524 DA03     		.2byte	0x3da
 2607 0526 01       		.byte	0x1
 2608 0527 7A000000 		.4byte	0x7a
 2609 052b 00000000 		.4byte	.LFB25
 2610 052f 18000000 		.4byte	.LFE25
 2611 0533 30050000 		.4byte	.LLST25
 2612 0537 01       		.byte	0x1
 2613 0538 0D       		.uleb128 0xd
 2614 0539 01       		.byte	0x1
 2615 053a D0030000 		.4byte	.LASF59
 2616 053e 01       		.byte	0x1
 2617 053f 0604     		.2byte	0x406
 2618 0541 01       		.byte	0x1
 2619 0542 7A000000 		.4byte	0x7a
 2620 0546 00000000 		.4byte	.LFB26
 2621 054a 18000000 		.4byte	.LFE26
 2622 054e 5C050000 		.4byte	.LLST26
 2623 0552 01       		.byte	0x1
 2624 0553 0D       		.uleb128 0xd
 2625 0554 01       		.byte	0x1
 2626 0555 CB020000 		.4byte	.LASF60
 2627 0559 01       		.byte	0x1
 2628 055a 1B04     		.2byte	0x41b
 2629 055c 01       		.byte	0x1
 2630 055d 7A000000 		.4byte	0x7a
 2631 0561 00000000 		.4byte	.LFB27
 2632 0565 18000000 		.4byte	.LFE27
 2633 0569 88050000 		.4byte	.LLST27
 2634 056d 01       		.byte	0x1
 2635 056e 09       		.uleb128 0x9
 2636 056f 01       		.byte	0x1
 2637 0570 7E040000 		.4byte	.LASF61
 2638 0574 01       		.byte	0x1
 2639 0575 3604     		.2byte	0x436
 2640 0577 01       		.byte	0x1
 2641 0578 00000000 		.4byte	.LFB28
 2642 057c 44000000 		.4byte	.LFE28
 2643 0580 B4050000 		.4byte	.LLST28
 2644 0584 01       		.byte	0x1
 2645 0585 A8050000 		.4byte	0x5a8
 2646 0589 0B       		.uleb128 0xb
 2647 058a 65010000 		.4byte	.LASF62
 2648 058e 01       		.byte	0x1
ARM GAS  C:\DOCUME~1\Chuck\LOCALS~1\Temp\ccd20y4e.s 			page 72


 2649 058f 3604     		.2byte	0x436
 2650 0591 7A000000 		.4byte	0x7a
 2651 0595 02       		.byte	0x2
 2652 0596 91       		.byte	0x91
 2653 0597 64       		.sleb128 -28
 2654 0598 0A       		.uleb128 0xa
 2655 0599 A6050000 		.4byte	.LASF20
 2656 059d 01       		.byte	0x1
 2657 059e 3804     		.2byte	0x438
 2658 05a0 6F000000 		.4byte	0x6f
 2659 05a4 02       		.byte	0x2
 2660 05a5 91       		.byte	0x91
 2661 05a6 6F       		.sleb128 -17
 2662 05a7 00       		.byte	0
 2663 05a8 09       		.uleb128 0x9
 2664 05a9 01       		.byte	0x1
 2665 05aa 00050000 		.4byte	.LASF63
 2666 05ae 01       		.byte	0x1
 2667 05af 5704     		.2byte	0x457
 2668 05b1 01       		.byte	0x1
 2669 05b2 00000000 		.4byte	.LFB29
 2670 05b6 44000000 		.4byte	.LFE29
 2671 05ba EC050000 		.4byte	.LLST29
 2672 05be 01       		.byte	0x1
 2673 05bf E2050000 		.4byte	0x5e2
 2674 05c3 0B       		.uleb128 0xb
 2675 05c4 65010000 		.4byte	.LASF62
 2676 05c8 01       		.byte	0x1
 2677 05c9 5704     		.2byte	0x457
 2678 05cb 7A000000 		.4byte	0x7a
 2679 05cf 02       		.byte	0x2
 2680 05d0 91       		.byte	0x91
 2681 05d1 64       		.sleb128 -28
 2682 05d2 0A       		.uleb128 0xa
 2683 05d3 A6050000 		.4byte	.LASF20
 2684 05d7 01       		.byte	0x1
 2685 05d8 5904     		.2byte	0x459
 2686 05da 6F000000 		.4byte	0x6f
 2687 05de 02       		.byte	0x2
 2688 05df 91       		.byte	0x91
 2689 05e0 6F       		.sleb128 -17
 2690 05e1 00       		.byte	0
 2691 05e2 09       		.uleb128 0x9
 2692 05e3 01       		.byte	0x1
 2693 05e4 CB040000 		.4byte	.LASF64
 2694 05e8 01       		.byte	0x1
 2695 05e9 7804     		.2byte	0x478
 2696 05eb 01       		.byte	0x1
 2697 05ec 00000000 		.4byte	.LFB30
 2698 05f0 48000000 		.4byte	.LFE30
 2699 05f4 24060000 		.4byte	.LLST30
 2700 05f8 01       		.byte	0x1
 2701 05f9 1C060000 		.4byte	0x61c
 2702 05fd 0B       		.uleb128 0xb
 2703 05fe 65010000 		.4byte	.LASF62
 2704 0602 01       		.byte	0x1
 2705 0603 7804     		.2byte	0x478
ARM GAS  C:\DOCUME~1\Chuck\LOCALS~1\Temp\ccd20y4e.s 			page 73


 2706 0605 7A000000 		.4byte	0x7a
 2707 0609 02       		.byte	0x2
 2708 060a 91       		.byte	0x91
 2709 060b 64       		.sleb128 -28
 2710 060c 0A       		.uleb128 0xa
 2711 060d A6050000 		.4byte	.LASF20
 2712 0611 01       		.byte	0x1
 2713 0612 7A04     		.2byte	0x47a
 2714 0614 6F000000 		.4byte	0x6f
 2715 0618 02       		.byte	0x2
 2716 0619 91       		.byte	0x91
 2717 061a 6F       		.sleb128 -17
 2718 061b 00       		.byte	0
 2719 061c 09       		.uleb128 0x9
 2720 061d 01       		.byte	0x1
 2721 061e 7F010000 		.4byte	.LASF65
 2722 0622 01       		.byte	0x1
 2723 0623 9804     		.2byte	0x498
 2724 0625 01       		.byte	0x1
 2725 0626 00000000 		.4byte	.LFB31
 2726 062a 44000000 		.4byte	.LFE31
 2727 062e 5C060000 		.4byte	.LLST31
 2728 0632 01       		.byte	0x1
 2729 0633 56060000 		.4byte	0x656
 2730 0637 0B       		.uleb128 0xb
 2731 0638 65010000 		.4byte	.LASF62
 2732 063c 01       		.byte	0x1
 2733 063d 9804     		.2byte	0x498
 2734 063f 7A000000 		.4byte	0x7a
 2735 0643 02       		.byte	0x2
 2736 0644 91       		.byte	0x91
 2737 0645 64       		.sleb128 -28
 2738 0646 0A       		.uleb128 0xa
 2739 0647 A6050000 		.4byte	.LASF20
 2740 064b 01       		.byte	0x1
 2741 064c 9A04     		.2byte	0x49a
 2742 064e 6F000000 		.4byte	0x6f
 2743 0652 02       		.byte	0x2
 2744 0653 91       		.byte	0x91
 2745 0654 6F       		.sleb128 -17
 2746 0655 00       		.byte	0
 2747 0656 09       		.uleb128 0x9
 2748 0657 01       		.byte	0x1
 2749 0658 39020000 		.4byte	.LASF66
 2750 065c 01       		.byte	0x1
 2751 065d B904     		.2byte	0x4b9
 2752 065f 01       		.byte	0x1
 2753 0660 00000000 		.4byte	.LFB32
 2754 0664 44000000 		.4byte	.LFE32
 2755 0668 94060000 		.4byte	.LLST32
 2756 066c 01       		.byte	0x1
 2757 066d 90060000 		.4byte	0x690
 2758 0671 0B       		.uleb128 0xb
 2759 0672 65010000 		.4byte	.LASF62
 2760 0676 01       		.byte	0x1
 2761 0677 B904     		.2byte	0x4b9
 2762 0679 7A000000 		.4byte	0x7a
ARM GAS  C:\DOCUME~1\Chuck\LOCALS~1\Temp\ccd20y4e.s 			page 74


 2763 067d 02       		.byte	0x2
 2764 067e 91       		.byte	0x91
 2765 067f 64       		.sleb128 -28
 2766 0680 0A       		.uleb128 0xa
 2767 0681 A6050000 		.4byte	.LASF20
 2768 0685 01       		.byte	0x1
 2769 0686 BB04     		.2byte	0x4bb
 2770 0688 6F000000 		.4byte	0x6f
 2771 068c 02       		.byte	0x2
 2772 068d 91       		.byte	0x91
 2773 068e 6F       		.sleb128 -17
 2774 068f 00       		.byte	0
 2775 0690 09       		.uleb128 0x9
 2776 0691 01       		.byte	0x1
 2777 0692 1D000000 		.4byte	.LASF67
 2778 0696 01       		.byte	0x1
 2779 0697 E104     		.2byte	0x4e1
 2780 0699 01       		.byte	0x1
 2781 069a 00000000 		.4byte	.LFB33
 2782 069e 3C000000 		.4byte	.LFE33
 2783 06a2 CC060000 		.4byte	.LLST33
 2784 06a6 01       		.byte	0x1
 2785 06a7 D9060000 		.4byte	0x6d9
 2786 06ab 0B       		.uleb128 0xb
 2787 06ac 71010000 		.4byte	.LASF38
 2788 06b0 01       		.byte	0x1
 2789 06b1 E104     		.2byte	0x4e1
 2790 06b3 7A000000 		.4byte	0x7a
 2791 06b7 02       		.byte	0x2
 2792 06b8 91       		.byte	0x91
 2793 06b9 64       		.sleb128 -28
 2794 06ba 0B       		.uleb128 0xb
 2795 06bb BB010000 		.4byte	.LASF68
 2796 06bf 01       		.byte	0x1
 2797 06c0 E104     		.2byte	0x4e1
 2798 06c2 7A000000 		.4byte	0x7a
 2799 06c6 02       		.byte	0x2
 2800 06c7 91       		.byte	0x91
 2801 06c8 60       		.sleb128 -32
 2802 06c9 0A       		.uleb128 0xa
 2803 06ca A6050000 		.4byte	.LASF20
 2804 06ce 01       		.byte	0x1
 2805 06cf E304     		.2byte	0x4e3
 2806 06d1 6F000000 		.4byte	0x6f
 2807 06d5 02       		.byte	0x2
 2808 06d6 91       		.byte	0x91
 2809 06d7 6F       		.sleb128 -17
 2810 06d8 00       		.byte	0
 2811 06d9 0D       		.uleb128 0xd
 2812 06da 01       		.byte	0x1
 2813 06db DB000000 		.4byte	.LASF69
 2814 06df 01       		.byte	0x1
 2815 06e0 FE04     		.2byte	0x4fe
 2816 06e2 01       		.byte	0x1
 2817 06e3 7A000000 		.4byte	0x7a
 2818 06e7 00000000 		.4byte	.LFB34
 2819 06eb 20000000 		.4byte	.LFE34
ARM GAS  C:\DOCUME~1\Chuck\LOCALS~1\Temp\ccd20y4e.s 			page 75


 2820 06ef 04070000 		.4byte	.LLST34
 2821 06f3 01       		.byte	0x1
 2822 06f4 0C       		.uleb128 0xc
 2823 06f5 01       		.byte	0x1
 2824 06f6 7C000000 		.4byte	.LASF70
 2825 06fa 01       		.byte	0x1
 2826 06fb 1705     		.2byte	0x517
 2827 06fd 01       		.byte	0x1
 2828 06fe 00000000 		.4byte	.LFB35
 2829 0702 18000000 		.4byte	.LFE35
 2830 0706 30070000 		.4byte	.LLST35
 2831 070a 01       		.byte	0x1
 2832 070b 1F070000 		.4byte	0x71f
 2833 070f 0B       		.uleb128 0xb
 2834 0710 B8030000 		.4byte	.LASF71
 2835 0714 01       		.byte	0x1
 2836 0715 1705     		.2byte	0x517
 2837 0717 7A000000 		.4byte	0x7a
 2838 071b 02       		.byte	0x2
 2839 071c 91       		.byte	0x91
 2840 071d 74       		.sleb128 -12
 2841 071e 00       		.byte	0
 2842 071f 0D       		.uleb128 0xd
 2843 0720 01       		.byte	0x1
 2844 0721 9E000000 		.4byte	.LASF72
 2845 0725 01       		.byte	0x1
 2846 0726 2E05     		.2byte	0x52e
 2847 0728 01       		.byte	0x1
 2848 0729 7A000000 		.4byte	0x7a
 2849 072d 00000000 		.4byte	.LFB36
 2850 0731 14000000 		.4byte	.LFE36
 2851 0735 68070000 		.4byte	.LLST36
 2852 0739 01       		.byte	0x1
 2853 073a 0D       		.uleb128 0xd
 2854 073b 01       		.byte	0x1
 2855 073c 12030000 		.4byte	.LASF73
 2856 0740 01       		.byte	0x1
 2857 0741 4505     		.2byte	0x545
 2858 0743 01       		.byte	0x1
 2859 0744 7A000000 		.4byte	0x7a
 2860 0748 00000000 		.4byte	.LFB37
 2861 074c 14000000 		.4byte	.LFE37
 2862 0750 94070000 		.4byte	.LLST37
 2863 0754 01       		.byte	0x1
 2864 0755 0C       		.uleb128 0xc
 2865 0756 01       		.byte	0x1
 2866 0757 36000000 		.4byte	.LASF74
 2867 075b 01       		.byte	0x1
 2868 075c 5C05     		.2byte	0x55c
 2869 075e 01       		.byte	0x1
 2870 075f 00000000 		.4byte	.LFB38
 2871 0763 18000000 		.4byte	.LFE38
 2872 0767 C0070000 		.4byte	.LLST38
 2873 076b 01       		.byte	0x1
 2874 076c 80070000 		.4byte	0x780
 2875 0770 0B       		.uleb128 0xb
 2876 0771 B8030000 		.4byte	.LASF71
ARM GAS  C:\DOCUME~1\Chuck\LOCALS~1\Temp\ccd20y4e.s 			page 76


 2877 0775 01       		.byte	0x1
 2878 0776 5C05     		.2byte	0x55c
 2879 0778 7A000000 		.4byte	0x7a
 2880 077c 02       		.byte	0x2
 2881 077d 91       		.byte	0x91
 2882 077e 74       		.sleb128 -12
 2883 077f 00       		.byte	0
 2884 0780 0C       		.uleb128 0xc
 2885 0781 01       		.byte	0x1
 2886 0782 4E010000 		.4byte	.LASF75
 2887 0786 01       		.byte	0x1
 2888 0787 7305     		.2byte	0x573
 2889 0789 01       		.byte	0x1
 2890 078a 00000000 		.4byte	.LFB39
 2891 078e 18000000 		.4byte	.LFE39
 2892 0792 F8070000 		.4byte	.LLST39
 2893 0796 01       		.byte	0x1
 2894 0797 AB070000 		.4byte	0x7ab
 2895 079b 0B       		.uleb128 0xb
 2896 079c B8030000 		.4byte	.LASF71
 2897 07a0 01       		.byte	0x1
 2898 07a1 7305     		.2byte	0x573
 2899 07a3 7A000000 		.4byte	0x7a
 2900 07a7 02       		.byte	0x2
 2901 07a8 91       		.byte	0x91
 2902 07a9 74       		.sleb128 -12
 2903 07aa 00       		.byte	0
 2904 07ab 0E       		.uleb128 0xe
 2905 07ac E2040000 		.4byte	.LASF79
 2906 07b0 01       		.byte	0x1
 2907 07b1 16       		.byte	0x16
 2908 07b2 6F000000 		.4byte	0x6f
 2909 07b6 01       		.byte	0x1
 2910 07b7 05       		.byte	0x5
 2911 07b8 03       		.byte	0x3
 2912 07b9 00000000 		.4byte	QuadDec_1_initVar
 2913 07bd 00       		.byte	0
 2914              		.section	.debug_abbrev,"",%progbits
 2915              	.Ldebug_abbrev0:
 2916 0000 01       		.uleb128 0x1
 2917 0001 11       		.uleb128 0x11
 2918 0002 01       		.byte	0x1
 2919 0003 25       		.uleb128 0x25
 2920 0004 0E       		.uleb128 0xe
 2921 0005 13       		.uleb128 0x13
 2922 0006 0B       		.uleb128 0xb
 2923 0007 03       		.uleb128 0x3
 2924 0008 0E       		.uleb128 0xe
 2925 0009 1B       		.uleb128 0x1b
 2926 000a 0E       		.uleb128 0xe
 2927 000b 55       		.uleb128 0x55
 2928 000c 06       		.uleb128 0x6
 2929 000d 11       		.uleb128 0x11
 2930 000e 01       		.uleb128 0x1
 2931 000f 52       		.uleb128 0x52
 2932 0010 01       		.uleb128 0x1
 2933 0011 10       		.uleb128 0x10
ARM GAS  C:\DOCUME~1\Chuck\LOCALS~1\Temp\ccd20y4e.s 			page 77


 2934 0012 06       		.uleb128 0x6
 2935 0013 00       		.byte	0
 2936 0014 00       		.byte	0
 2937 0015 02       		.uleb128 0x2
 2938 0016 24       		.uleb128 0x24
 2939 0017 00       		.byte	0
 2940 0018 0B       		.uleb128 0xb
 2941 0019 0B       		.uleb128 0xb
 2942 001a 3E       		.uleb128 0x3e
 2943 001b 0B       		.uleb128 0xb
 2944 001c 03       		.uleb128 0x3
 2945 001d 0E       		.uleb128 0xe
 2946 001e 00       		.byte	0
 2947 001f 00       		.byte	0
 2948 0020 03       		.uleb128 0x3
 2949 0021 24       		.uleb128 0x24
 2950 0022 00       		.byte	0
 2951 0023 0B       		.uleb128 0xb
 2952 0024 0B       		.uleb128 0xb
 2953 0025 3E       		.uleb128 0x3e
 2954 0026 0B       		.uleb128 0xb
 2955 0027 03       		.uleb128 0x3
 2956 0028 08       		.uleb128 0x8
 2957 0029 00       		.byte	0
 2958 002a 00       		.byte	0
 2959 002b 04       		.uleb128 0x4
 2960 002c 16       		.uleb128 0x16
 2961 002d 00       		.byte	0
 2962 002e 03       		.uleb128 0x3
 2963 002f 0E       		.uleb128 0xe
 2964 0030 3A       		.uleb128 0x3a
 2965 0031 0B       		.uleb128 0xb
 2966 0032 3B       		.uleb128 0x3b
 2967 0033 0B       		.uleb128 0xb
 2968 0034 49       		.uleb128 0x49
 2969 0035 13       		.uleb128 0x13
 2970 0036 00       		.byte	0
 2971 0037 00       		.byte	0
 2972 0038 05       		.uleb128 0x5
 2973 0039 35       		.uleb128 0x35
 2974 003a 00       		.byte	0
 2975 003b 49       		.uleb128 0x49
 2976 003c 13       		.uleb128 0x13
 2977 003d 00       		.byte	0
 2978 003e 00       		.byte	0
 2979 003f 06       		.uleb128 0x6
 2980 0040 2E       		.uleb128 0x2e
 2981 0041 00       		.byte	0
 2982 0042 3F       		.uleb128 0x3f
 2983 0043 0C       		.uleb128 0xc
 2984 0044 03       		.uleb128 0x3
 2985 0045 0E       		.uleb128 0xe
 2986 0046 3A       		.uleb128 0x3a
 2987 0047 0B       		.uleb128 0xb
 2988 0048 3B       		.uleb128 0x3b
 2989 0049 0B       		.uleb128 0xb
 2990 004a 27       		.uleb128 0x27
ARM GAS  C:\DOCUME~1\Chuck\LOCALS~1\Temp\ccd20y4e.s 			page 78


 2991 004b 0C       		.uleb128 0xc
 2992 004c 11       		.uleb128 0x11
 2993 004d 01       		.uleb128 0x1
 2994 004e 12       		.uleb128 0x12
 2995 004f 01       		.uleb128 0x1
 2996 0050 40       		.uleb128 0x40
 2997 0051 06       		.uleb128 0x6
 2998 0052 9642     		.uleb128 0x2116
 2999 0054 0C       		.uleb128 0xc
 3000 0055 00       		.byte	0
 3001 0056 00       		.byte	0
 3002 0057 07       		.uleb128 0x7
 3003 0058 2E       		.uleb128 0x2e
 3004 0059 01       		.byte	0x1
 3005 005a 3F       		.uleb128 0x3f
 3006 005b 0C       		.uleb128 0xc
 3007 005c 03       		.uleb128 0x3
 3008 005d 0E       		.uleb128 0xe
 3009 005e 3A       		.uleb128 0x3a
 3010 005f 0B       		.uleb128 0xb
 3011 0060 3B       		.uleb128 0x3b
 3012 0061 0B       		.uleb128 0xb
 3013 0062 27       		.uleb128 0x27
 3014 0063 0C       		.uleb128 0xc
 3015 0064 11       		.uleb128 0x11
 3016 0065 01       		.uleb128 0x1
 3017 0066 12       		.uleb128 0x12
 3018 0067 01       		.uleb128 0x1
 3019 0068 40       		.uleb128 0x40
 3020 0069 06       		.uleb128 0x6
 3021 006a 9642     		.uleb128 0x2116
 3022 006c 0C       		.uleb128 0xc
 3023 006d 01       		.uleb128 0x1
 3024 006e 13       		.uleb128 0x13
 3025 006f 00       		.byte	0
 3026 0070 00       		.byte	0
 3027 0071 08       		.uleb128 0x8
 3028 0072 34       		.uleb128 0x34
 3029 0073 00       		.byte	0
 3030 0074 03       		.uleb128 0x3
 3031 0075 0E       		.uleb128 0xe
 3032 0076 3A       		.uleb128 0x3a
 3033 0077 0B       		.uleb128 0xb
 3034 0078 3B       		.uleb128 0x3b
 3035 0079 0B       		.uleb128 0xb
 3036 007a 49       		.uleb128 0x49
 3037 007b 13       		.uleb128 0x13
 3038 007c 02       		.uleb128 0x2
 3039 007d 0A       		.uleb128 0xa
 3040 007e 00       		.byte	0
 3041 007f 00       		.byte	0
 3042 0080 09       		.uleb128 0x9
 3043 0081 2E       		.uleb128 0x2e
 3044 0082 01       		.byte	0x1
 3045 0083 3F       		.uleb128 0x3f
 3046 0084 0C       		.uleb128 0xc
 3047 0085 03       		.uleb128 0x3
ARM GAS  C:\DOCUME~1\Chuck\LOCALS~1\Temp\ccd20y4e.s 			page 79


 3048 0086 0E       		.uleb128 0xe
 3049 0087 3A       		.uleb128 0x3a
 3050 0088 0B       		.uleb128 0xb
 3051 0089 3B       		.uleb128 0x3b
 3052 008a 05       		.uleb128 0x5
 3053 008b 27       		.uleb128 0x27
 3054 008c 0C       		.uleb128 0xc
 3055 008d 11       		.uleb128 0x11
 3056 008e 01       		.uleb128 0x1
 3057 008f 12       		.uleb128 0x12
 3058 0090 01       		.uleb128 0x1
 3059 0091 40       		.uleb128 0x40
 3060 0092 06       		.uleb128 0x6
 3061 0093 9642     		.uleb128 0x2116
 3062 0095 0C       		.uleb128 0xc
 3063 0096 01       		.uleb128 0x1
 3064 0097 13       		.uleb128 0x13
 3065 0098 00       		.byte	0
 3066 0099 00       		.byte	0
 3067 009a 0A       		.uleb128 0xa
 3068 009b 34       		.uleb128 0x34
 3069 009c 00       		.byte	0
 3070 009d 03       		.uleb128 0x3
 3071 009e 0E       		.uleb128 0xe
 3072 009f 3A       		.uleb128 0x3a
 3073 00a0 0B       		.uleb128 0xb
 3074 00a1 3B       		.uleb128 0x3b
 3075 00a2 05       		.uleb128 0x5
 3076 00a3 49       		.uleb128 0x49
 3077 00a4 13       		.uleb128 0x13
 3078 00a5 02       		.uleb128 0x2
 3079 00a6 0A       		.uleb128 0xa
 3080 00a7 00       		.byte	0
 3081 00a8 00       		.byte	0
 3082 00a9 0B       		.uleb128 0xb
 3083 00aa 05       		.uleb128 0x5
 3084 00ab 00       		.byte	0
 3085 00ac 03       		.uleb128 0x3
 3086 00ad 0E       		.uleb128 0xe
 3087 00ae 3A       		.uleb128 0x3a
 3088 00af 0B       		.uleb128 0xb
 3089 00b0 3B       		.uleb128 0x3b
 3090 00b1 05       		.uleb128 0x5
 3091 00b2 49       		.uleb128 0x49
 3092 00b3 13       		.uleb128 0x13
 3093 00b4 02       		.uleb128 0x2
 3094 00b5 0A       		.uleb128 0xa
 3095 00b6 00       		.byte	0
 3096 00b7 00       		.byte	0
 3097 00b8 0C       		.uleb128 0xc
 3098 00b9 2E       		.uleb128 0x2e
 3099 00ba 01       		.byte	0x1
 3100 00bb 3F       		.uleb128 0x3f
 3101 00bc 0C       		.uleb128 0xc
 3102 00bd 03       		.uleb128 0x3
 3103 00be 0E       		.uleb128 0xe
 3104 00bf 3A       		.uleb128 0x3a
ARM GAS  C:\DOCUME~1\Chuck\LOCALS~1\Temp\ccd20y4e.s 			page 80


 3105 00c0 0B       		.uleb128 0xb
 3106 00c1 3B       		.uleb128 0x3b
 3107 00c2 05       		.uleb128 0x5
 3108 00c3 27       		.uleb128 0x27
 3109 00c4 0C       		.uleb128 0xc
 3110 00c5 11       		.uleb128 0x11
 3111 00c6 01       		.uleb128 0x1
 3112 00c7 12       		.uleb128 0x12
 3113 00c8 01       		.uleb128 0x1
 3114 00c9 40       		.uleb128 0x40
 3115 00ca 06       		.uleb128 0x6
 3116 00cb 9742     		.uleb128 0x2117
 3117 00cd 0C       		.uleb128 0xc
 3118 00ce 01       		.uleb128 0x1
 3119 00cf 13       		.uleb128 0x13
 3120 00d0 00       		.byte	0
 3121 00d1 00       		.byte	0
 3122 00d2 0D       		.uleb128 0xd
 3123 00d3 2E       		.uleb128 0x2e
 3124 00d4 00       		.byte	0
 3125 00d5 3F       		.uleb128 0x3f
 3126 00d6 0C       		.uleb128 0xc
 3127 00d7 03       		.uleb128 0x3
 3128 00d8 0E       		.uleb128 0xe
 3129 00d9 3A       		.uleb128 0x3a
 3130 00da 0B       		.uleb128 0xb
 3131 00db 3B       		.uleb128 0x3b
 3132 00dc 05       		.uleb128 0x5
 3133 00dd 27       		.uleb128 0x27
 3134 00de 0C       		.uleb128 0xc
 3135 00df 49       		.uleb128 0x49
 3136 00e0 13       		.uleb128 0x13
 3137 00e1 11       		.uleb128 0x11
 3138 00e2 01       		.uleb128 0x1
 3139 00e3 12       		.uleb128 0x12
 3140 00e4 01       		.uleb128 0x1
 3141 00e5 40       		.uleb128 0x40
 3142 00e6 06       		.uleb128 0x6
 3143 00e7 9742     		.uleb128 0x2117
 3144 00e9 0C       		.uleb128 0xc
 3145 00ea 00       		.byte	0
 3146 00eb 00       		.byte	0
 3147 00ec 0E       		.uleb128 0xe
 3148 00ed 34       		.uleb128 0x34
 3149 00ee 00       		.byte	0
 3150 00ef 03       		.uleb128 0x3
 3151 00f0 0E       		.uleb128 0xe
 3152 00f1 3A       		.uleb128 0x3a
 3153 00f2 0B       		.uleb128 0xb
 3154 00f3 3B       		.uleb128 0x3b
 3155 00f4 0B       		.uleb128 0xb
 3156 00f5 49       		.uleb128 0x49
 3157 00f6 13       		.uleb128 0x13
 3158 00f7 3F       		.uleb128 0x3f
 3159 00f8 0C       		.uleb128 0xc
 3160 00f9 02       		.uleb128 0x2
 3161 00fa 0A       		.uleb128 0xa
ARM GAS  C:\DOCUME~1\Chuck\LOCALS~1\Temp\ccd20y4e.s 			page 81


 3162 00fb 00       		.byte	0
 3163 00fc 00       		.byte	0
 3164 00fd 00       		.byte	0
 3165              		.section	.debug_loc,"",%progbits
 3166              	.Ldebug_loc0:
 3167              	.LLST0:
 3168 0000 00000000 		.4byte	.LFB0
 3169 0004 02000000 		.4byte	.LCFI0
 3170 0008 0200     		.2byte	0x2
 3171 000a 7D       		.byte	0x7d
 3172 000b 00       		.sleb128 0
 3173 000c 02000000 		.4byte	.LCFI0
 3174 0010 04000000 		.4byte	.LCFI1
 3175 0014 0200     		.2byte	0x2
 3176 0016 7D       		.byte	0x7d
 3177 0017 08       		.sleb128 8
 3178 0018 04000000 		.4byte	.LCFI1
 3179 001c 28000000 		.4byte	.LFE0
 3180 0020 0200     		.2byte	0x2
 3181 0022 77       		.byte	0x77
 3182 0023 08       		.sleb128 8
 3183 0024 00000000 		.4byte	0
 3184 0028 00000000 		.4byte	0
 3185              	.LLST1:
 3186 002c 00000000 		.4byte	.LFB1
 3187 0030 02000000 		.4byte	.LCFI2
 3188 0034 0200     		.2byte	0x2
 3189 0036 7D       		.byte	0x7d
 3190 0037 00       		.sleb128 0
 3191 0038 02000000 		.4byte	.LCFI2
 3192 003c 04000000 		.4byte	.LCFI3
 3193 0040 0200     		.2byte	0x2
 3194 0042 7D       		.byte	0x7d
 3195 0043 0C       		.sleb128 12
 3196 0044 04000000 		.4byte	.LCFI3
 3197 0048 06000000 		.4byte	.LCFI4
 3198 004c 0200     		.2byte	0x2
 3199 004e 7D       		.byte	0x7d
 3200 004f 18       		.sleb128 24
 3201 0050 06000000 		.4byte	.LCFI4
 3202 0054 30000000 		.4byte	.LFE1
 3203 0058 0200     		.2byte	0x2
 3204 005a 77       		.byte	0x77
 3205 005b 18       		.sleb128 24
 3206 005c 00000000 		.4byte	0
 3207 0060 00000000 		.4byte	0
 3208              	.LLST2:
 3209 0064 00000000 		.4byte	.LFB2
 3210 0068 02000000 		.4byte	.LCFI5
 3211 006c 0200     		.2byte	0x2
 3212 006e 7D       		.byte	0x7d
 3213 006f 00       		.sleb128 0
 3214 0070 02000000 		.4byte	.LCFI5
 3215 0074 04000000 		.4byte	.LCFI6
 3216 0078 0200     		.2byte	0x2
 3217 007a 7D       		.byte	0x7d
 3218 007b 08       		.sleb128 8
ARM GAS  C:\DOCUME~1\Chuck\LOCALS~1\Temp\ccd20y4e.s 			page 82


 3219 007c 04000000 		.4byte	.LCFI6
 3220 0080 24000000 		.4byte	.LFE2
 3221 0084 0200     		.2byte	0x2
 3222 0086 77       		.byte	0x77
 3223 0087 08       		.sleb128 8
 3224 0088 00000000 		.4byte	0
 3225 008c 00000000 		.4byte	0
 3226              	.LLST3:
 3227 0090 00000000 		.4byte	.LFB3
 3228 0094 02000000 		.4byte	.LCFI7
 3229 0098 0200     		.2byte	0x2
 3230 009a 7D       		.byte	0x7d
 3231 009b 00       		.sleb128 0
 3232 009c 02000000 		.4byte	.LCFI7
 3233 00a0 04000000 		.4byte	.LCFI8
 3234 00a4 0200     		.2byte	0x2
 3235 00a6 7D       		.byte	0x7d
 3236 00a7 0C       		.sleb128 12
 3237 00a8 04000000 		.4byte	.LCFI8
 3238 00ac 06000000 		.4byte	.LCFI9
 3239 00b0 0200     		.2byte	0x2
 3240 00b2 7D       		.byte	0x7d
 3241 00b3 18       		.sleb128 24
 3242 00b4 06000000 		.4byte	.LCFI9
 3243 00b8 30000000 		.4byte	.LFE3
 3244 00bc 0200     		.2byte	0x2
 3245 00be 77       		.byte	0x77
 3246 00bf 18       		.sleb128 24
 3247 00c0 00000000 		.4byte	0
 3248 00c4 00000000 		.4byte	0
 3249              	.LLST4:
 3250 00c8 00000000 		.4byte	.LFB4
 3251 00cc 02000000 		.4byte	.LCFI10
 3252 00d0 0200     		.2byte	0x2
 3253 00d2 7D       		.byte	0x7d
 3254 00d3 00       		.sleb128 0
 3255 00d4 02000000 		.4byte	.LCFI10
 3256 00d8 04000000 		.4byte	.LCFI11
 3257 00dc 0200     		.2byte	0x2
 3258 00de 7D       		.byte	0x7d
 3259 00df 0C       		.sleb128 12
 3260 00e0 04000000 		.4byte	.LCFI11
 3261 00e4 06000000 		.4byte	.LCFI12
 3262 00e8 0200     		.2byte	0x2
 3263 00ea 7D       		.byte	0x7d
 3264 00eb 20       		.sleb128 32
 3265 00ec 06000000 		.4byte	.LCFI12
 3266 00f0 48000000 		.4byte	.LFE4
 3267 00f4 0200     		.2byte	0x2
 3268 00f6 77       		.byte	0x77
 3269 00f7 20       		.sleb128 32
 3270 00f8 00000000 		.4byte	0
 3271 00fc 00000000 		.4byte	0
 3272              	.LLST5:
 3273 0100 00000000 		.4byte	.LFB5
 3274 0104 02000000 		.4byte	.LCFI13
 3275 0108 0200     		.2byte	0x2
ARM GAS  C:\DOCUME~1\Chuck\LOCALS~1\Temp\ccd20y4e.s 			page 83


 3276 010a 7D       		.byte	0x7d
 3277 010b 00       		.sleb128 0
 3278 010c 02000000 		.4byte	.LCFI13
 3279 0110 04000000 		.4byte	.LCFI14
 3280 0114 0200     		.2byte	0x2
 3281 0116 7D       		.byte	0x7d
 3282 0117 0C       		.sleb128 12
 3283 0118 04000000 		.4byte	.LCFI14
 3284 011c 06000000 		.4byte	.LCFI15
 3285 0120 0200     		.2byte	0x2
 3286 0122 7D       		.byte	0x7d
 3287 0123 20       		.sleb128 32
 3288 0124 06000000 		.4byte	.LCFI15
 3289 0128 48000000 		.4byte	.LFE5
 3290 012c 0200     		.2byte	0x2
 3291 012e 77       		.byte	0x77
 3292 012f 20       		.sleb128 32
 3293 0130 00000000 		.4byte	0
 3294 0134 00000000 		.4byte	0
 3295              	.LLST6:
 3296 0138 00000000 		.4byte	.LFB6
 3297 013c 02000000 		.4byte	.LCFI16
 3298 0140 0200     		.2byte	0x2
 3299 0142 7D       		.byte	0x7d
 3300 0143 00       		.sleb128 0
 3301 0144 02000000 		.4byte	.LCFI16
 3302 0148 04000000 		.4byte	.LCFI17
 3303 014c 0200     		.2byte	0x2
 3304 014e 7D       		.byte	0x7d
 3305 014f 0C       		.sleb128 12
 3306 0150 04000000 		.4byte	.LCFI17
 3307 0154 06000000 		.4byte	.LCFI18
 3308 0158 0200     		.2byte	0x2
 3309 015a 7D       		.byte	0x7d
 3310 015b 20       		.sleb128 32
 3311 015c 06000000 		.4byte	.LCFI18
 3312 0160 48000000 		.4byte	.LFE6
 3313 0164 0200     		.2byte	0x2
 3314 0166 77       		.byte	0x77
 3315 0167 20       		.sleb128 32
 3316 0168 00000000 		.4byte	0
 3317 016c 00000000 		.4byte	0
 3318              	.LLST7:
 3319 0170 00000000 		.4byte	.LFB7
 3320 0174 02000000 		.4byte	.LCFI19
 3321 0178 0200     		.2byte	0x2
 3322 017a 7D       		.byte	0x7d
 3323 017b 00       		.sleb128 0
 3324 017c 02000000 		.4byte	.LCFI19
 3325 0180 04000000 		.4byte	.LCFI20
 3326 0184 0200     		.2byte	0x2
 3327 0186 7D       		.byte	0x7d
 3328 0187 0C       		.sleb128 12
 3329 0188 04000000 		.4byte	.LCFI20
 3330 018c 06000000 		.4byte	.LCFI21
 3331 0190 0200     		.2byte	0x2
 3332 0192 7D       		.byte	0x7d
ARM GAS  C:\DOCUME~1\Chuck\LOCALS~1\Temp\ccd20y4e.s 			page 84


 3333 0193 20       		.sleb128 32
 3334 0194 06000000 		.4byte	.LCFI21
 3335 0198 4C000000 		.4byte	.LFE7
 3336 019c 0200     		.2byte	0x2
 3337 019e 77       		.byte	0x77
 3338 019f 20       		.sleb128 32
 3339 01a0 00000000 		.4byte	0
 3340 01a4 00000000 		.4byte	0
 3341              	.LLST8:
 3342 01a8 00000000 		.4byte	.LFB8
 3343 01ac 02000000 		.4byte	.LCFI22
 3344 01b0 0200     		.2byte	0x2
 3345 01b2 7D       		.byte	0x7d
 3346 01b3 00       		.sleb128 0
 3347 01b4 02000000 		.4byte	.LCFI22
 3348 01b8 04000000 		.4byte	.LCFI23
 3349 01bc 0200     		.2byte	0x2
 3350 01be 7D       		.byte	0x7d
 3351 01bf 08       		.sleb128 8
 3352 01c0 04000000 		.4byte	.LCFI23
 3353 01c4 06000000 		.4byte	.LCFI24
 3354 01c8 0200     		.2byte	0x2
 3355 01ca 7D       		.byte	0x7d
 3356 01cb 10       		.sleb128 16
 3357 01cc 06000000 		.4byte	.LCFI24
 3358 01d0 1C000000 		.4byte	.LFE8
 3359 01d4 0200     		.2byte	0x2
 3360 01d6 77       		.byte	0x77
 3361 01d7 10       		.sleb128 16
 3362 01d8 00000000 		.4byte	0
 3363 01dc 00000000 		.4byte	0
 3364              	.LLST9:
 3365 01e0 00000000 		.4byte	.LFB9
 3366 01e4 02000000 		.4byte	.LCFI25
 3367 01e8 0200     		.2byte	0x2
 3368 01ea 7D       		.byte	0x7d
 3369 01eb 00       		.sleb128 0
 3370 01ec 02000000 		.4byte	.LCFI25
 3371 01f0 04000000 		.4byte	.LCFI26
 3372 01f4 0200     		.2byte	0x2
 3373 01f6 7D       		.byte	0x7d
 3374 01f7 0C       		.sleb128 12
 3375 01f8 04000000 		.4byte	.LCFI26
 3376 01fc 06000000 		.4byte	.LCFI27
 3377 0200 0200     		.2byte	0x2
 3378 0202 7D       		.byte	0x7d
 3379 0203 20       		.sleb128 32
 3380 0204 06000000 		.4byte	.LCFI27
 3381 0208 48000000 		.4byte	.LFE9
 3382 020c 0200     		.2byte	0x2
 3383 020e 77       		.byte	0x77
 3384 020f 20       		.sleb128 32
 3385 0210 00000000 		.4byte	0
 3386 0214 00000000 		.4byte	0
 3387              	.LLST10:
 3388 0218 00000000 		.4byte	.LFB10
 3389 021c 02000000 		.4byte	.LCFI28
ARM GAS  C:\DOCUME~1\Chuck\LOCALS~1\Temp\ccd20y4e.s 			page 85


 3390 0220 0200     		.2byte	0x2
 3391 0222 7D       		.byte	0x7d
 3392 0223 00       		.sleb128 0
 3393 0224 02000000 		.4byte	.LCFI28
 3394 0228 04000000 		.4byte	.LCFI29
 3395 022c 0200     		.2byte	0x2
 3396 022e 7D       		.byte	0x7d
 3397 022f 0C       		.sleb128 12
 3398 0230 04000000 		.4byte	.LCFI29
 3399 0234 06000000 		.4byte	.LCFI30
 3400 0238 0200     		.2byte	0x2
 3401 023a 7D       		.byte	0x7d
 3402 023b 20       		.sleb128 32
 3403 023c 06000000 		.4byte	.LCFI30
 3404 0240 48000000 		.4byte	.LFE10
 3405 0244 0200     		.2byte	0x2
 3406 0246 77       		.byte	0x77
 3407 0247 20       		.sleb128 32
 3408 0248 00000000 		.4byte	0
 3409 024c 00000000 		.4byte	0
 3410              	.LLST11:
 3411 0250 00000000 		.4byte	.LFB11
 3412 0254 02000000 		.4byte	.LCFI31
 3413 0258 0200     		.2byte	0x2
 3414 025a 7D       		.byte	0x7d
 3415 025b 00       		.sleb128 0
 3416 025c 02000000 		.4byte	.LCFI31
 3417 0260 04000000 		.4byte	.LCFI32
 3418 0264 0200     		.2byte	0x2
 3419 0266 7D       		.byte	0x7d
 3420 0267 0C       		.sleb128 12
 3421 0268 04000000 		.4byte	.LCFI32
 3422 026c 06000000 		.4byte	.LCFI33
 3423 0270 0200     		.2byte	0x2
 3424 0272 7D       		.byte	0x7d
 3425 0273 20       		.sleb128 32
 3426 0274 06000000 		.4byte	.LCFI33
 3427 0278 4C000000 		.4byte	.LFE11
 3428 027c 0200     		.2byte	0x2
 3429 027e 77       		.byte	0x77
 3430 027f 20       		.sleb128 32
 3431 0280 00000000 		.4byte	0
 3432 0284 00000000 		.4byte	0
 3433              	.LLST12:
 3434 0288 00000000 		.4byte	.LFB12
 3435 028c 02000000 		.4byte	.LCFI34
 3436 0290 0200     		.2byte	0x2
 3437 0292 7D       		.byte	0x7d
 3438 0293 00       		.sleb128 0
 3439 0294 02000000 		.4byte	.LCFI34
 3440 0298 04000000 		.4byte	.LCFI35
 3441 029c 0200     		.2byte	0x2
 3442 029e 7D       		.byte	0x7d
 3443 029f 0C       		.sleb128 12
 3444 02a0 04000000 		.4byte	.LCFI35
 3445 02a4 06000000 		.4byte	.LCFI36
 3446 02a8 0200     		.2byte	0x2
ARM GAS  C:\DOCUME~1\Chuck\LOCALS~1\Temp\ccd20y4e.s 			page 86


 3447 02aa 7D       		.byte	0x7d
 3448 02ab 20       		.sleb128 32
 3449 02ac 06000000 		.4byte	.LCFI36
 3450 02b0 48000000 		.4byte	.LFE12
 3451 02b4 0200     		.2byte	0x2
 3452 02b6 77       		.byte	0x77
 3453 02b7 20       		.sleb128 32
 3454 02b8 00000000 		.4byte	0
 3455 02bc 00000000 		.4byte	0
 3456              	.LLST13:
 3457 02c0 00000000 		.4byte	.LFB13
 3458 02c4 02000000 		.4byte	.LCFI37
 3459 02c8 0200     		.2byte	0x2
 3460 02ca 7D       		.byte	0x7d
 3461 02cb 00       		.sleb128 0
 3462 02cc 02000000 		.4byte	.LCFI37
 3463 02d0 04000000 		.4byte	.LCFI38
 3464 02d4 0200     		.2byte	0x2
 3465 02d6 7D       		.byte	0x7d
 3466 02d7 08       		.sleb128 8
 3467 02d8 04000000 		.4byte	.LCFI38
 3468 02dc 06000000 		.4byte	.LCFI39
 3469 02e0 0200     		.2byte	0x2
 3470 02e2 7D       		.byte	0x7d
 3471 02e3 10       		.sleb128 16
 3472 02e4 06000000 		.4byte	.LCFI39
 3473 02e8 1C000000 		.4byte	.LFE13
 3474 02ec 0200     		.2byte	0x2
 3475 02ee 77       		.byte	0x77
 3476 02ef 10       		.sleb128 16
 3477 02f0 00000000 		.4byte	0
 3478 02f4 00000000 		.4byte	0
 3479              	.LLST14:
 3480 02f8 00000000 		.4byte	.LFB14
 3481 02fc 02000000 		.4byte	.LCFI40
 3482 0300 0200     		.2byte	0x2
 3483 0302 7D       		.byte	0x7d
 3484 0303 00       		.sleb128 0
 3485 0304 02000000 		.4byte	.LCFI40
 3486 0308 04000000 		.4byte	.LCFI41
 3487 030c 0200     		.2byte	0x2
 3488 030e 7D       		.byte	0x7d
 3489 030f 08       		.sleb128 8
 3490 0310 04000000 		.4byte	.LCFI41
 3491 0314 18000000 		.4byte	.LFE14
 3492 0318 0200     		.2byte	0x2
 3493 031a 77       		.byte	0x77
 3494 031b 08       		.sleb128 8
 3495 031c 00000000 		.4byte	0
 3496 0320 00000000 		.4byte	0
 3497              	.LLST15:
 3498 0324 00000000 		.4byte	.LFB15
 3499 0328 02000000 		.4byte	.LCFI42
 3500 032c 0200     		.2byte	0x2
 3501 032e 7D       		.byte	0x7d
 3502 032f 00       		.sleb128 0
 3503 0330 02000000 		.4byte	.LCFI42
ARM GAS  C:\DOCUME~1\Chuck\LOCALS~1\Temp\ccd20y4e.s 			page 87


 3504 0334 04000000 		.4byte	.LCFI43
 3505 0338 0200     		.2byte	0x2
 3506 033a 7D       		.byte	0x7d
 3507 033b 0C       		.sleb128 12
 3508 033c 04000000 		.4byte	.LCFI43
 3509 0340 06000000 		.4byte	.LCFI44
 3510 0344 0200     		.2byte	0x2
 3511 0346 7D       		.byte	0x7d
 3512 0347 20       		.sleb128 32
 3513 0348 06000000 		.4byte	.LCFI44
 3514 034c 48000000 		.4byte	.LFE15
 3515 0350 0200     		.2byte	0x2
 3516 0352 77       		.byte	0x77
 3517 0353 20       		.sleb128 32
 3518 0354 00000000 		.4byte	0
 3519 0358 00000000 		.4byte	0
 3520              	.LLST16:
 3521 035c 00000000 		.4byte	.LFB16
 3522 0360 02000000 		.4byte	.LCFI45
 3523 0364 0200     		.2byte	0x2
 3524 0366 7D       		.byte	0x7d
 3525 0367 00       		.sleb128 0
 3526 0368 02000000 		.4byte	.LCFI45
 3527 036c 04000000 		.4byte	.LCFI46
 3528 0370 0200     		.2byte	0x2
 3529 0372 7D       		.byte	0x7d
 3530 0373 08       		.sleb128 8
 3531 0374 04000000 		.4byte	.LCFI46
 3532 0378 06000000 		.4byte	.LCFI47
 3533 037c 0200     		.2byte	0x2
 3534 037e 7D       		.byte	0x7d
 3535 037f 10       		.sleb128 16
 3536 0380 06000000 		.4byte	.LCFI47
 3537 0384 1C000000 		.4byte	.LFE16
 3538 0388 0200     		.2byte	0x2
 3539 038a 77       		.byte	0x77
 3540 038b 10       		.sleb128 16
 3541 038c 00000000 		.4byte	0
 3542 0390 00000000 		.4byte	0
 3543              	.LLST17:
 3544 0394 00000000 		.4byte	.LFB17
 3545 0398 02000000 		.4byte	.LCFI48
 3546 039c 0200     		.2byte	0x2
 3547 039e 7D       		.byte	0x7d
 3548 039f 00       		.sleb128 0
 3549 03a0 02000000 		.4byte	.LCFI48
 3550 03a4 04000000 		.4byte	.LCFI49
 3551 03a8 0200     		.2byte	0x2
 3552 03aa 7D       		.byte	0x7d
 3553 03ab 08       		.sleb128 8
 3554 03ac 04000000 		.4byte	.LCFI49
 3555 03b0 18000000 		.4byte	.LFE17
 3556 03b4 0200     		.2byte	0x2
 3557 03b6 77       		.byte	0x77
 3558 03b7 08       		.sleb128 8
 3559 03b8 00000000 		.4byte	0
 3560 03bc 00000000 		.4byte	0
ARM GAS  C:\DOCUME~1\Chuck\LOCALS~1\Temp\ccd20y4e.s 			page 88


 3561              	.LLST18:
 3562 03c0 00000000 		.4byte	.LFB18
 3563 03c4 02000000 		.4byte	.LCFI50
 3564 03c8 0200     		.2byte	0x2
 3565 03ca 7D       		.byte	0x7d
 3566 03cb 00       		.sleb128 0
 3567 03cc 02000000 		.4byte	.LCFI50
 3568 03d0 04000000 		.4byte	.LCFI51
 3569 03d4 0200     		.2byte	0x2
 3570 03d6 7D       		.byte	0x7d
 3571 03d7 0C       		.sleb128 12
 3572 03d8 04000000 		.4byte	.LCFI51
 3573 03dc 06000000 		.4byte	.LCFI52
 3574 03e0 0200     		.2byte	0x2
 3575 03e2 7D       		.byte	0x7d
 3576 03e3 20       		.sleb128 32
 3577 03e4 06000000 		.4byte	.LCFI52
 3578 03e8 48000000 		.4byte	.LFE18
 3579 03ec 0200     		.2byte	0x2
 3580 03ee 77       		.byte	0x77
 3581 03ef 20       		.sleb128 32
 3582 03f0 00000000 		.4byte	0
 3583 03f4 00000000 		.4byte	0
 3584              	.LLST19:
 3585 03f8 00000000 		.4byte	.LFB19
 3586 03fc 02000000 		.4byte	.LCFI53
 3587 0400 0200     		.2byte	0x2
 3588 0402 7D       		.byte	0x7d
 3589 0403 00       		.sleb128 0
 3590 0404 02000000 		.4byte	.LCFI53
 3591 0408 04000000 		.4byte	.LCFI54
 3592 040c 0200     		.2byte	0x2
 3593 040e 7D       		.byte	0x7d
 3594 040f 08       		.sleb128 8
 3595 0410 04000000 		.4byte	.LCFI54
 3596 0414 06000000 		.4byte	.LCFI55
 3597 0418 0200     		.2byte	0x2
 3598 041a 7D       		.byte	0x7d
 3599 041b 10       		.sleb128 16
 3600 041c 06000000 		.4byte	.LCFI55
 3601 0420 1C000000 		.4byte	.LFE19
 3602 0424 0200     		.2byte	0x2
 3603 0426 77       		.byte	0x77
 3604 0427 10       		.sleb128 16
 3605 0428 00000000 		.4byte	0
 3606 042c 00000000 		.4byte	0
 3607              	.LLST20:
 3608 0430 00000000 		.4byte	.LFB20
 3609 0434 02000000 		.4byte	.LCFI56
 3610 0438 0200     		.2byte	0x2
 3611 043a 7D       		.byte	0x7d
 3612 043b 00       		.sleb128 0
 3613 043c 02000000 		.4byte	.LCFI56
 3614 0440 04000000 		.4byte	.LCFI57
 3615 0444 0200     		.2byte	0x2
 3616 0446 7D       		.byte	0x7d
 3617 0447 08       		.sleb128 8
ARM GAS  C:\DOCUME~1\Chuck\LOCALS~1\Temp\ccd20y4e.s 			page 89


 3618 0448 04000000 		.4byte	.LCFI57
 3619 044c 18000000 		.4byte	.LFE20
 3620 0450 0200     		.2byte	0x2
 3621 0452 77       		.byte	0x77
 3622 0453 08       		.sleb128 8
 3623 0454 00000000 		.4byte	0
 3624 0458 00000000 		.4byte	0
 3625              	.LLST21:
 3626 045c 00000000 		.4byte	.LFB21
 3627 0460 02000000 		.4byte	.LCFI58
 3628 0464 0200     		.2byte	0x2
 3629 0466 7D       		.byte	0x7d
 3630 0467 00       		.sleb128 0
 3631 0468 02000000 		.4byte	.LCFI58
 3632 046c 04000000 		.4byte	.LCFI59
 3633 0470 0200     		.2byte	0x2
 3634 0472 7D       		.byte	0x7d
 3635 0473 0C       		.sleb128 12
 3636 0474 04000000 		.4byte	.LCFI59
 3637 0478 06000000 		.4byte	.LCFI60
 3638 047c 0200     		.2byte	0x2
 3639 047e 7D       		.byte	0x7d
 3640 047f 20       		.sleb128 32
 3641 0480 06000000 		.4byte	.LCFI60
 3642 0484 48000000 		.4byte	.LFE21
 3643 0488 0200     		.2byte	0x2
 3644 048a 77       		.byte	0x77
 3645 048b 20       		.sleb128 32
 3646 048c 00000000 		.4byte	0
 3647 0490 00000000 		.4byte	0
 3648              	.LLST22:
 3649 0494 00000000 		.4byte	.LFB22
 3650 0498 02000000 		.4byte	.LCFI61
 3651 049c 0200     		.2byte	0x2
 3652 049e 7D       		.byte	0x7d
 3653 049f 00       		.sleb128 0
 3654 04a0 02000000 		.4byte	.LCFI61
 3655 04a4 04000000 		.4byte	.LCFI62
 3656 04a8 0200     		.2byte	0x2
 3657 04aa 7D       		.byte	0x7d
 3658 04ab 08       		.sleb128 8
 3659 04ac 04000000 		.4byte	.LCFI62
 3660 04b0 06000000 		.4byte	.LCFI63
 3661 04b4 0200     		.2byte	0x2
 3662 04b6 7D       		.byte	0x7d
 3663 04b7 10       		.sleb128 16
 3664 04b8 06000000 		.4byte	.LCFI63
 3665 04bc 1C000000 		.4byte	.LFE22
 3666 04c0 0200     		.2byte	0x2
 3667 04c2 77       		.byte	0x77
 3668 04c3 10       		.sleb128 16
 3669 04c4 00000000 		.4byte	0
 3670 04c8 00000000 		.4byte	0
 3671              	.LLST23:
 3672 04cc 00000000 		.4byte	.LFB23
 3673 04d0 02000000 		.4byte	.LCFI64
 3674 04d4 0200     		.2byte	0x2
ARM GAS  C:\DOCUME~1\Chuck\LOCALS~1\Temp\ccd20y4e.s 			page 90


 3675 04d6 7D       		.byte	0x7d
 3676 04d7 00       		.sleb128 0
 3677 04d8 02000000 		.4byte	.LCFI64
 3678 04dc 04000000 		.4byte	.LCFI65
 3679 04e0 0200     		.2byte	0x2
 3680 04e2 7D       		.byte	0x7d
 3681 04e3 08       		.sleb128 8
 3682 04e4 04000000 		.4byte	.LCFI65
 3683 04e8 18000000 		.4byte	.LFE23
 3684 04ec 0200     		.2byte	0x2
 3685 04ee 77       		.byte	0x77
 3686 04ef 08       		.sleb128 8
 3687 04f0 00000000 		.4byte	0
 3688 04f4 00000000 		.4byte	0
 3689              	.LLST24:
 3690 04f8 00000000 		.4byte	.LFB24
 3691 04fc 02000000 		.4byte	.LCFI66
 3692 0500 0200     		.2byte	0x2
 3693 0502 7D       		.byte	0x7d
 3694 0503 00       		.sleb128 0
 3695 0504 02000000 		.4byte	.LCFI66
 3696 0508 04000000 		.4byte	.LCFI67
 3697 050c 0200     		.2byte	0x2
 3698 050e 7D       		.byte	0x7d
 3699 050f 08       		.sleb128 8
 3700 0510 04000000 		.4byte	.LCFI67
 3701 0514 06000000 		.4byte	.LCFI68
 3702 0518 0200     		.2byte	0x2
 3703 051a 7D       		.byte	0x7d
 3704 051b 10       		.sleb128 16
 3705 051c 06000000 		.4byte	.LCFI68
 3706 0520 1C000000 		.4byte	.LFE24
 3707 0524 0200     		.2byte	0x2
 3708 0526 77       		.byte	0x77
 3709 0527 10       		.sleb128 16
 3710 0528 00000000 		.4byte	0
 3711 052c 00000000 		.4byte	0
 3712              	.LLST25:
 3713 0530 00000000 		.4byte	.LFB25
 3714 0534 02000000 		.4byte	.LCFI69
 3715 0538 0200     		.2byte	0x2
 3716 053a 7D       		.byte	0x7d
 3717 053b 00       		.sleb128 0
 3718 053c 02000000 		.4byte	.LCFI69
 3719 0540 04000000 		.4byte	.LCFI70
 3720 0544 0200     		.2byte	0x2
 3721 0546 7D       		.byte	0x7d
 3722 0547 08       		.sleb128 8
 3723 0548 04000000 		.4byte	.LCFI70
 3724 054c 18000000 		.4byte	.LFE25
 3725 0550 0200     		.2byte	0x2
 3726 0552 77       		.byte	0x77
 3727 0553 08       		.sleb128 8
 3728 0554 00000000 		.4byte	0
 3729 0558 00000000 		.4byte	0
 3730              	.LLST26:
 3731 055c 00000000 		.4byte	.LFB26
ARM GAS  C:\DOCUME~1\Chuck\LOCALS~1\Temp\ccd20y4e.s 			page 91


 3732 0560 02000000 		.4byte	.LCFI71
 3733 0564 0200     		.2byte	0x2
 3734 0566 7D       		.byte	0x7d
 3735 0567 00       		.sleb128 0
 3736 0568 02000000 		.4byte	.LCFI71
 3737 056c 04000000 		.4byte	.LCFI72
 3738 0570 0200     		.2byte	0x2
 3739 0572 7D       		.byte	0x7d
 3740 0573 08       		.sleb128 8
 3741 0574 04000000 		.4byte	.LCFI72
 3742 0578 18000000 		.4byte	.LFE26
 3743 057c 0200     		.2byte	0x2
 3744 057e 77       		.byte	0x77
 3745 057f 08       		.sleb128 8
 3746 0580 00000000 		.4byte	0
 3747 0584 00000000 		.4byte	0
 3748              	.LLST27:
 3749 0588 00000000 		.4byte	.LFB27
 3750 058c 02000000 		.4byte	.LCFI73
 3751 0590 0200     		.2byte	0x2
 3752 0592 7D       		.byte	0x7d
 3753 0593 00       		.sleb128 0
 3754 0594 02000000 		.4byte	.LCFI73
 3755 0598 04000000 		.4byte	.LCFI74
 3756 059c 0200     		.2byte	0x2
 3757 059e 7D       		.byte	0x7d
 3758 059f 08       		.sleb128 8
 3759 05a0 04000000 		.4byte	.LCFI74
 3760 05a4 18000000 		.4byte	.LFE27
 3761 05a8 0200     		.2byte	0x2
 3762 05aa 77       		.byte	0x77
 3763 05ab 08       		.sleb128 8
 3764 05ac 00000000 		.4byte	0
 3765 05b0 00000000 		.4byte	0
 3766              	.LLST28:
 3767 05b4 00000000 		.4byte	.LFB28
 3768 05b8 02000000 		.4byte	.LCFI75
 3769 05bc 0200     		.2byte	0x2
 3770 05be 7D       		.byte	0x7d
 3771 05bf 00       		.sleb128 0
 3772 05c0 02000000 		.4byte	.LCFI75
 3773 05c4 04000000 		.4byte	.LCFI76
 3774 05c8 0200     		.2byte	0x2
 3775 05ca 7D       		.byte	0x7d
 3776 05cb 0C       		.sleb128 12
 3777 05cc 04000000 		.4byte	.LCFI76
 3778 05d0 06000000 		.4byte	.LCFI77
 3779 05d4 0200     		.2byte	0x2
 3780 05d6 7D       		.byte	0x7d
 3781 05d7 20       		.sleb128 32
 3782 05d8 06000000 		.4byte	.LCFI77
 3783 05dc 44000000 		.4byte	.LFE28
 3784 05e0 0200     		.2byte	0x2
 3785 05e2 77       		.byte	0x77
 3786 05e3 20       		.sleb128 32
 3787 05e4 00000000 		.4byte	0
 3788 05e8 00000000 		.4byte	0
ARM GAS  C:\DOCUME~1\Chuck\LOCALS~1\Temp\ccd20y4e.s 			page 92


 3789              	.LLST29:
 3790 05ec 00000000 		.4byte	.LFB29
 3791 05f0 02000000 		.4byte	.LCFI78
 3792 05f4 0200     		.2byte	0x2
 3793 05f6 7D       		.byte	0x7d
 3794 05f7 00       		.sleb128 0
 3795 05f8 02000000 		.4byte	.LCFI78
 3796 05fc 04000000 		.4byte	.LCFI79
 3797 0600 0200     		.2byte	0x2
 3798 0602 7D       		.byte	0x7d
 3799 0603 0C       		.sleb128 12
 3800 0604 04000000 		.4byte	.LCFI79
 3801 0608 06000000 		.4byte	.LCFI80
 3802 060c 0200     		.2byte	0x2
 3803 060e 7D       		.byte	0x7d
 3804 060f 20       		.sleb128 32
 3805 0610 06000000 		.4byte	.LCFI80
 3806 0614 44000000 		.4byte	.LFE29
 3807 0618 0200     		.2byte	0x2
 3808 061a 77       		.byte	0x77
 3809 061b 20       		.sleb128 32
 3810 061c 00000000 		.4byte	0
 3811 0620 00000000 		.4byte	0
 3812              	.LLST30:
 3813 0624 00000000 		.4byte	.LFB30
 3814 0628 02000000 		.4byte	.LCFI81
 3815 062c 0200     		.2byte	0x2
 3816 062e 7D       		.byte	0x7d
 3817 062f 00       		.sleb128 0
 3818 0630 02000000 		.4byte	.LCFI81
 3819 0634 04000000 		.4byte	.LCFI82
 3820 0638 0200     		.2byte	0x2
 3821 063a 7D       		.byte	0x7d
 3822 063b 0C       		.sleb128 12
 3823 063c 04000000 		.4byte	.LCFI82
 3824 0640 06000000 		.4byte	.LCFI83
 3825 0644 0200     		.2byte	0x2
 3826 0646 7D       		.byte	0x7d
 3827 0647 20       		.sleb128 32
 3828 0648 06000000 		.4byte	.LCFI83
 3829 064c 48000000 		.4byte	.LFE30
 3830 0650 0200     		.2byte	0x2
 3831 0652 77       		.byte	0x77
 3832 0653 20       		.sleb128 32
 3833 0654 00000000 		.4byte	0
 3834 0658 00000000 		.4byte	0
 3835              	.LLST31:
 3836 065c 00000000 		.4byte	.LFB31
 3837 0660 02000000 		.4byte	.LCFI84
 3838 0664 0200     		.2byte	0x2
 3839 0666 7D       		.byte	0x7d
 3840 0667 00       		.sleb128 0
 3841 0668 02000000 		.4byte	.LCFI84
 3842 066c 04000000 		.4byte	.LCFI85
 3843 0670 0200     		.2byte	0x2
 3844 0672 7D       		.byte	0x7d
 3845 0673 0C       		.sleb128 12
ARM GAS  C:\DOCUME~1\Chuck\LOCALS~1\Temp\ccd20y4e.s 			page 93


 3846 0674 04000000 		.4byte	.LCFI85
 3847 0678 06000000 		.4byte	.LCFI86
 3848 067c 0200     		.2byte	0x2
 3849 067e 7D       		.byte	0x7d
 3850 067f 20       		.sleb128 32
 3851 0680 06000000 		.4byte	.LCFI86
 3852 0684 44000000 		.4byte	.LFE31
 3853 0688 0200     		.2byte	0x2
 3854 068a 77       		.byte	0x77
 3855 068b 20       		.sleb128 32
 3856 068c 00000000 		.4byte	0
 3857 0690 00000000 		.4byte	0
 3858              	.LLST32:
 3859 0694 00000000 		.4byte	.LFB32
 3860 0698 02000000 		.4byte	.LCFI87
 3861 069c 0200     		.2byte	0x2
 3862 069e 7D       		.byte	0x7d
 3863 069f 00       		.sleb128 0
 3864 06a0 02000000 		.4byte	.LCFI87
 3865 06a4 04000000 		.4byte	.LCFI88
 3866 06a8 0200     		.2byte	0x2
 3867 06aa 7D       		.byte	0x7d
 3868 06ab 0C       		.sleb128 12
 3869 06ac 04000000 		.4byte	.LCFI88
 3870 06b0 06000000 		.4byte	.LCFI89
 3871 06b4 0200     		.2byte	0x2
 3872 06b6 7D       		.byte	0x7d
 3873 06b7 20       		.sleb128 32
 3874 06b8 06000000 		.4byte	.LCFI89
 3875 06bc 44000000 		.4byte	.LFE32
 3876 06c0 0200     		.2byte	0x2
 3877 06c2 77       		.byte	0x77
 3878 06c3 20       		.sleb128 32
 3879 06c4 00000000 		.4byte	0
 3880 06c8 00000000 		.4byte	0
 3881              	.LLST33:
 3882 06cc 00000000 		.4byte	.LFB33
 3883 06d0 02000000 		.4byte	.LCFI90
 3884 06d4 0200     		.2byte	0x2
 3885 06d6 7D       		.byte	0x7d
 3886 06d7 00       		.sleb128 0
 3887 06d8 02000000 		.4byte	.LCFI90
 3888 06dc 04000000 		.4byte	.LCFI91
 3889 06e0 0200     		.2byte	0x2
 3890 06e2 7D       		.byte	0x7d
 3891 06e3 0C       		.sleb128 12
 3892 06e4 04000000 		.4byte	.LCFI91
 3893 06e8 06000000 		.4byte	.LCFI92
 3894 06ec 0200     		.2byte	0x2
 3895 06ee 7D       		.byte	0x7d
 3896 06ef 20       		.sleb128 32
 3897 06f0 06000000 		.4byte	.LCFI92
 3898 06f4 3C000000 		.4byte	.LFE33
 3899 06f8 0200     		.2byte	0x2
 3900 06fa 77       		.byte	0x77
 3901 06fb 20       		.sleb128 32
 3902 06fc 00000000 		.4byte	0
ARM GAS  C:\DOCUME~1\Chuck\LOCALS~1\Temp\ccd20y4e.s 			page 94


 3903 0700 00000000 		.4byte	0
 3904              	.LLST34:
 3905 0704 00000000 		.4byte	.LFB34
 3906 0708 02000000 		.4byte	.LCFI93
 3907 070c 0200     		.2byte	0x2
 3908 070e 7D       		.byte	0x7d
 3909 070f 00       		.sleb128 0
 3910 0710 02000000 		.4byte	.LCFI93
 3911 0714 04000000 		.4byte	.LCFI94
 3912 0718 0200     		.2byte	0x2
 3913 071a 7D       		.byte	0x7d
 3914 071b 08       		.sleb128 8
 3915 071c 04000000 		.4byte	.LCFI94
 3916 0720 20000000 		.4byte	.LFE34
 3917 0724 0200     		.2byte	0x2
 3918 0726 77       		.byte	0x77
 3919 0727 08       		.sleb128 8
 3920 0728 00000000 		.4byte	0
 3921 072c 00000000 		.4byte	0
 3922              	.LLST35:
 3923 0730 00000000 		.4byte	.LFB35
 3924 0734 02000000 		.4byte	.LCFI95
 3925 0738 0200     		.2byte	0x2
 3926 073a 7D       		.byte	0x7d
 3927 073b 00       		.sleb128 0
 3928 073c 02000000 		.4byte	.LCFI95
 3929 0740 04000000 		.4byte	.LCFI96
 3930 0744 0200     		.2byte	0x2
 3931 0746 7D       		.byte	0x7d
 3932 0747 08       		.sleb128 8
 3933 0748 04000000 		.4byte	.LCFI96
 3934 074c 06000000 		.4byte	.LCFI97
 3935 0750 0200     		.2byte	0x2
 3936 0752 7D       		.byte	0x7d
 3937 0753 10       		.sleb128 16
 3938 0754 06000000 		.4byte	.LCFI97
 3939 0758 18000000 		.4byte	.LFE35
 3940 075c 0200     		.2byte	0x2
 3941 075e 77       		.byte	0x77
 3942 075f 10       		.sleb128 16
 3943 0760 00000000 		.4byte	0
 3944 0764 00000000 		.4byte	0
 3945              	.LLST36:
 3946 0768 00000000 		.4byte	.LFB36
 3947 076c 02000000 		.4byte	.LCFI98
 3948 0770 0200     		.2byte	0x2
 3949 0772 7D       		.byte	0x7d
 3950 0773 00       		.sleb128 0
 3951 0774 02000000 		.4byte	.LCFI98
 3952 0778 04000000 		.4byte	.LCFI99
 3953 077c 0200     		.2byte	0x2
 3954 077e 7D       		.byte	0x7d
 3955 077f 08       		.sleb128 8
 3956 0780 04000000 		.4byte	.LCFI99
 3957 0784 14000000 		.4byte	.LFE36
 3958 0788 0200     		.2byte	0x2
 3959 078a 77       		.byte	0x77
ARM GAS  C:\DOCUME~1\Chuck\LOCALS~1\Temp\ccd20y4e.s 			page 95


 3960 078b 08       		.sleb128 8
 3961 078c 00000000 		.4byte	0
 3962 0790 00000000 		.4byte	0
 3963              	.LLST37:
 3964 0794 00000000 		.4byte	.LFB37
 3965 0798 02000000 		.4byte	.LCFI100
 3966 079c 0200     		.2byte	0x2
 3967 079e 7D       		.byte	0x7d
 3968 079f 00       		.sleb128 0
 3969 07a0 02000000 		.4byte	.LCFI100
 3970 07a4 04000000 		.4byte	.LCFI101
 3971 07a8 0200     		.2byte	0x2
 3972 07aa 7D       		.byte	0x7d
 3973 07ab 08       		.sleb128 8
 3974 07ac 04000000 		.4byte	.LCFI101
 3975 07b0 14000000 		.4byte	.LFE37
 3976 07b4 0200     		.2byte	0x2
 3977 07b6 77       		.byte	0x77
 3978 07b7 08       		.sleb128 8
 3979 07b8 00000000 		.4byte	0
 3980 07bc 00000000 		.4byte	0
 3981              	.LLST38:
 3982 07c0 00000000 		.4byte	.LFB38
 3983 07c4 02000000 		.4byte	.LCFI102
 3984 07c8 0200     		.2byte	0x2
 3985 07ca 7D       		.byte	0x7d
 3986 07cb 00       		.sleb128 0
 3987 07cc 02000000 		.4byte	.LCFI102
 3988 07d0 04000000 		.4byte	.LCFI103
 3989 07d4 0200     		.2byte	0x2
 3990 07d6 7D       		.byte	0x7d
 3991 07d7 08       		.sleb128 8
 3992 07d8 04000000 		.4byte	.LCFI103
 3993 07dc 06000000 		.4byte	.LCFI104
 3994 07e0 0200     		.2byte	0x2
 3995 07e2 7D       		.byte	0x7d
 3996 07e3 10       		.sleb128 16
 3997 07e4 06000000 		.4byte	.LCFI104
 3998 07e8 18000000 		.4byte	.LFE38
 3999 07ec 0200     		.2byte	0x2
 4000 07ee 77       		.byte	0x77
 4001 07ef 10       		.sleb128 16
 4002 07f0 00000000 		.4byte	0
 4003 07f4 00000000 		.4byte	0
 4004              	.LLST39:
 4005 07f8 00000000 		.4byte	.LFB39
 4006 07fc 02000000 		.4byte	.LCFI105
 4007 0800 0200     		.2byte	0x2
 4008 0802 7D       		.byte	0x7d
 4009 0803 00       		.sleb128 0
 4010 0804 02000000 		.4byte	.LCFI105
 4011 0808 04000000 		.4byte	.LCFI106
 4012 080c 0200     		.2byte	0x2
 4013 080e 7D       		.byte	0x7d
 4014 080f 08       		.sleb128 8
 4015 0810 04000000 		.4byte	.LCFI106
 4016 0814 06000000 		.4byte	.LCFI107
ARM GAS  C:\DOCUME~1\Chuck\LOCALS~1\Temp\ccd20y4e.s 			page 96


 4017 0818 0200     		.2byte	0x2
 4018 081a 7D       		.byte	0x7d
 4019 081b 10       		.sleb128 16
 4020 081c 06000000 		.4byte	.LCFI107
 4021 0820 18000000 		.4byte	.LFE39
 4022 0824 0200     		.2byte	0x2
 4023 0826 77       		.byte	0x77
 4024 0827 10       		.sleb128 16
 4025 0828 00000000 		.4byte	0
 4026 082c 00000000 		.4byte	0
 4027              		.section	.debug_aranges,"",%progbits
 4028 0000 54010000 		.4byte	0x154
 4029 0004 0200     		.2byte	0x2
 4030 0006 00000000 		.4byte	.Ldebug_info0
 4031 000a 04       		.byte	0x4
 4032 000b 00       		.byte	0
 4033 000c 0000     		.2byte	0
 4034 000e 0000     		.2byte	0
 4035 0010 00000000 		.4byte	.LFB0
 4036 0014 28000000 		.4byte	.LFE0-.LFB0
 4037 0018 00000000 		.4byte	.LFB1
 4038 001c 30000000 		.4byte	.LFE1-.LFB1
 4039 0020 00000000 		.4byte	.LFB2
 4040 0024 24000000 		.4byte	.LFE2-.LFB2
 4041 0028 00000000 		.4byte	.LFB3
 4042 002c 30000000 		.4byte	.LFE3-.LFB3
 4043 0030 00000000 		.4byte	.LFB4
 4044 0034 48000000 		.4byte	.LFE4-.LFB4
 4045 0038 00000000 		.4byte	.LFB5
 4046 003c 48000000 		.4byte	.LFE5-.LFB5
 4047 0040 00000000 		.4byte	.LFB6
 4048 0044 48000000 		.4byte	.LFE6-.LFB6
 4049 0048 00000000 		.4byte	.LFB7
 4050 004c 4C000000 		.4byte	.LFE7-.LFB7
 4051 0050 00000000 		.4byte	.LFB8
 4052 0054 1C000000 		.4byte	.LFE8-.LFB8
 4053 0058 00000000 		.4byte	.LFB9
 4054 005c 48000000 		.4byte	.LFE9-.LFB9
 4055 0060 00000000 		.4byte	.LFB10
 4056 0064 48000000 		.4byte	.LFE10-.LFB10
 4057 0068 00000000 		.4byte	.LFB11
 4058 006c 4C000000 		.4byte	.LFE11-.LFB11
 4059 0070 00000000 		.4byte	.LFB12
 4060 0074 48000000 		.4byte	.LFE12-.LFB12
 4061 0078 00000000 		.4byte	.LFB13
 4062 007c 1C000000 		.4byte	.LFE13-.LFB13
 4063 0080 00000000 		.4byte	.LFB14
 4064 0084 18000000 		.4byte	.LFE14-.LFB14
 4065 0088 00000000 		.4byte	.LFB15
 4066 008c 48000000 		.4byte	.LFE15-.LFB15
 4067 0090 00000000 		.4byte	.LFB16
 4068 0094 1C000000 		.4byte	.LFE16-.LFB16
 4069 0098 00000000 		.4byte	.LFB17
 4070 009c 18000000 		.4byte	.LFE17-.LFB17
 4071 00a0 00000000 		.4byte	.LFB18
 4072 00a4 48000000 		.4byte	.LFE18-.LFB18
 4073 00a8 00000000 		.4byte	.LFB19
ARM GAS  C:\DOCUME~1\Chuck\LOCALS~1\Temp\ccd20y4e.s 			page 97


 4074 00ac 1C000000 		.4byte	.LFE19-.LFB19
 4075 00b0 00000000 		.4byte	.LFB20
 4076 00b4 18000000 		.4byte	.LFE20-.LFB20
 4077 00b8 00000000 		.4byte	.LFB21
 4078 00bc 48000000 		.4byte	.LFE21-.LFB21
 4079 00c0 00000000 		.4byte	.LFB22
 4080 00c4 1C000000 		.4byte	.LFE22-.LFB22
 4081 00c8 00000000 		.4byte	.LFB23
 4082 00cc 18000000 		.4byte	.LFE23-.LFB23
 4083 00d0 00000000 		.4byte	.LFB24
 4084 00d4 1C000000 		.4byte	.LFE24-.LFB24
 4085 00d8 00000000 		.4byte	.LFB25
 4086 00dc 18000000 		.4byte	.LFE25-.LFB25
 4087 00e0 00000000 		.4byte	.LFB26
 4088 00e4 18000000 		.4byte	.LFE26-.LFB26
 4089 00e8 00000000 		.4byte	.LFB27
 4090 00ec 18000000 		.4byte	.LFE27-.LFB27
 4091 00f0 00000000 		.4byte	.LFB28
 4092 00f4 44000000 		.4byte	.LFE28-.LFB28
 4093 00f8 00000000 		.4byte	.LFB29
 4094 00fc 44000000 		.4byte	.LFE29-.LFB29
 4095 0100 00000000 		.4byte	.LFB30
 4096 0104 48000000 		.4byte	.LFE30-.LFB30
 4097 0108 00000000 		.4byte	.LFB31
 4098 010c 44000000 		.4byte	.LFE31-.LFB31
 4099 0110 00000000 		.4byte	.LFB32
 4100 0114 44000000 		.4byte	.LFE32-.LFB32
 4101 0118 00000000 		.4byte	.LFB33
 4102 011c 3C000000 		.4byte	.LFE33-.LFB33
 4103 0120 00000000 		.4byte	.LFB34
 4104 0124 20000000 		.4byte	.LFE34-.LFB34
 4105 0128 00000000 		.4byte	.LFB35
 4106 012c 18000000 		.4byte	.LFE35-.LFB35
 4107 0130 00000000 		.4byte	.LFB36
 4108 0134 14000000 		.4byte	.LFE36-.LFB36
 4109 0138 00000000 		.4byte	.LFB37
 4110 013c 14000000 		.4byte	.LFE37-.LFB37
 4111 0140 00000000 		.4byte	.LFB38
 4112 0144 18000000 		.4byte	.LFE38-.LFB38
 4113 0148 00000000 		.4byte	.LFB39
 4114 014c 18000000 		.4byte	.LFE39-.LFB39
 4115 0150 00000000 		.4byte	0
 4116 0154 00000000 		.4byte	0
 4117              		.section	.debug_ranges,"",%progbits
 4118              	.Ldebug_ranges0:
 4119 0000 00000000 		.4byte	.LFB0
 4120 0004 28000000 		.4byte	.LFE0
 4121 0008 00000000 		.4byte	.LFB1
 4122 000c 30000000 		.4byte	.LFE1
 4123 0010 00000000 		.4byte	.LFB2
 4124 0014 24000000 		.4byte	.LFE2
 4125 0018 00000000 		.4byte	.LFB3
 4126 001c 30000000 		.4byte	.LFE3
 4127 0020 00000000 		.4byte	.LFB4
 4128 0024 48000000 		.4byte	.LFE4
 4129 0028 00000000 		.4byte	.LFB5
 4130 002c 48000000 		.4byte	.LFE5
ARM GAS  C:\DOCUME~1\Chuck\LOCALS~1\Temp\ccd20y4e.s 			page 98


 4131 0030 00000000 		.4byte	.LFB6
 4132 0034 48000000 		.4byte	.LFE6
 4133 0038 00000000 		.4byte	.LFB7
 4134 003c 4C000000 		.4byte	.LFE7
 4135 0040 00000000 		.4byte	.LFB8
 4136 0044 1C000000 		.4byte	.LFE8
 4137 0048 00000000 		.4byte	.LFB9
 4138 004c 48000000 		.4byte	.LFE9
 4139 0050 00000000 		.4byte	.LFB10
 4140 0054 48000000 		.4byte	.LFE10
 4141 0058 00000000 		.4byte	.LFB11
 4142 005c 4C000000 		.4byte	.LFE11
 4143 0060 00000000 		.4byte	.LFB12
 4144 0064 48000000 		.4byte	.LFE12
 4145 0068 00000000 		.4byte	.LFB13
 4146 006c 1C000000 		.4byte	.LFE13
 4147 0070 00000000 		.4byte	.LFB14
 4148 0074 18000000 		.4byte	.LFE14
 4149 0078 00000000 		.4byte	.LFB15
 4150 007c 48000000 		.4byte	.LFE15
 4151 0080 00000000 		.4byte	.LFB16
 4152 0084 1C000000 		.4byte	.LFE16
 4153 0088 00000000 		.4byte	.LFB17
 4154 008c 18000000 		.4byte	.LFE17
 4155 0090 00000000 		.4byte	.LFB18
 4156 0094 48000000 		.4byte	.LFE18
 4157 0098 00000000 		.4byte	.LFB19
 4158 009c 1C000000 		.4byte	.LFE19
 4159 00a0 00000000 		.4byte	.LFB20
 4160 00a4 18000000 		.4byte	.LFE20
 4161 00a8 00000000 		.4byte	.LFB21
 4162 00ac 48000000 		.4byte	.LFE21
 4163 00b0 00000000 		.4byte	.LFB22
 4164 00b4 1C000000 		.4byte	.LFE22
 4165 00b8 00000000 		.4byte	.LFB23
 4166 00bc 18000000 		.4byte	.LFE23
 4167 00c0 00000000 		.4byte	.LFB24
 4168 00c4 1C000000 		.4byte	.LFE24
 4169 00c8 00000000 		.4byte	.LFB25
 4170 00cc 18000000 		.4byte	.LFE25
 4171 00d0 00000000 		.4byte	.LFB26
 4172 00d4 18000000 		.4byte	.LFE26
 4173 00d8 00000000 		.4byte	.LFB27
 4174 00dc 18000000 		.4byte	.LFE27
 4175 00e0 00000000 		.4byte	.LFB28
 4176 00e4 44000000 		.4byte	.LFE28
 4177 00e8 00000000 		.4byte	.LFB29
 4178 00ec 44000000 		.4byte	.LFE29
 4179 00f0 00000000 		.4byte	.LFB30
 4180 00f4 48000000 		.4byte	.LFE30
 4181 00f8 00000000 		.4byte	.LFB31
 4182 00fc 44000000 		.4byte	.LFE31
 4183 0100 00000000 		.4byte	.LFB32
 4184 0104 44000000 		.4byte	.LFE32
 4185 0108 00000000 		.4byte	.LFB33
 4186 010c 3C000000 		.4byte	.LFE33
 4187 0110 00000000 		.4byte	.LFB34
ARM GAS  C:\DOCUME~1\Chuck\LOCALS~1\Temp\ccd20y4e.s 			page 99


 4188 0114 20000000 		.4byte	.LFE34
 4189 0118 00000000 		.4byte	.LFB35
 4190 011c 18000000 		.4byte	.LFE35
 4191 0120 00000000 		.4byte	.LFB36
 4192 0124 14000000 		.4byte	.LFE36
 4193 0128 00000000 		.4byte	.LFB37
 4194 012c 14000000 		.4byte	.LFE37
 4195 0130 00000000 		.4byte	.LFB38
 4196 0134 18000000 		.4byte	.LFE38
 4197 0138 00000000 		.4byte	.LFB39
 4198 013c 18000000 		.4byte	.LFE39
 4199 0140 00000000 		.4byte	0
 4200 0144 00000000 		.4byte	0
 4201              		.section	.debug_line,"",%progbits
 4202              	.Ldebug_line0:
 4203 0000 6B030000 		.section	.debug_str,"MS",%progbits,1
 4203      02004800 
 4203      00000201 
 4203      FB0E0D00 
 4203      01010101 
 4204              	.LASF40:
 4205 0000 636F756E 		.ascii	"count\000"
 4205      7400
 4206              	.LASF37:
 4207 0006 51756164 		.ascii	"QuadDec_1_SetPWMInvert\000"
 4207      4465635F 
 4207      315F5365 
 4207      7450574D 
 4207      496E7665 
 4208              	.LASF67:
 4209 001d 51756164 		.ascii	"QuadDec_1_TriggerCommand\000"
 4209      4465635F 
 4209      315F5472 
 4209      69676765 
 4209      72436F6D 
 4210              	.LASF74:
 4211 0036 51756164 		.ascii	"QuadDec_1_ClearInterrupt\000"
 4211      4465635F 
 4211      315F436C 
 4211      65617249 
 4211      6E746572 
 4212              	.LASF16:
 4213 004f 51756164 		.ascii	"QuadDec_1_Init\000"
 4213      4465635F 
 4213      315F496E 
 4213      697400
 4214              	.LASF44:
 4215 005e 70657269 		.ascii	"period\000"
 4215      6F6400
 4216              	.LASF7:
 4217 0065 6C6F6E67 		.ascii	"long long unsigned int\000"
 4217      206C6F6E 
 4217      6720756E 
 4217      7369676E 
 4217      65642069 
 4218              	.LASF70:
 4219 007c 51756164 		.ascii	"QuadDec_1_SetInterruptMode\000"
ARM GAS  C:\DOCUME~1\Chuck\LOCALS~1\Temp\ccd20y4e.s 			page 100


 4219      4465635F 
 4219      315F5365 
 4219      74496E74 
 4219      65727275 
 4220              	.LASF24:
 4221 0097 71644D6F 		.ascii	"qdMode\000"
 4221      646500
 4222              	.LASF72:
 4223 009e 51756164 		.ascii	"QuadDec_1_GetInterruptSourceMasked\000"
 4223      4465635F 
 4223      315F4765 
 4223      74496E74 
 4223      65727275 
 4224              	.LASF6:
 4225 00c1 6C6F6E67 		.ascii	"long long int\000"
 4225      206C6F6E 
 4225      6720696E 
 4225      7400
 4226              	.LASF0:
 4227 00cf 7369676E 		.ascii	"signed char\000"
 4227      65642063 
 4227      68617200 
 4228              	.LASF69:
 4229 00db 51756164 		.ascii	"QuadDec_1_ReadStatus\000"
 4229      4465635F 
 4229      315F5265 
 4229      61645374 
 4229      61747573 
 4230              	.LASF4:
 4231 00f0 6C6F6E67 		.ascii	"long int\000"
 4231      20696E74 
 4231      00
 4232              	.LASF45:
 4233 00f9 51756164 		.ascii	"QuadDec_1_ReadCounter\000"
 4233      4465635F 
 4233      315F5265 
 4233      6164436F 
 4233      756E7465 
 4234              	.LASF35:
 4235 010f 51756164 		.ascii	"QuadDec_1_SetPWMDeadTime\000"
 4235      4465635F 
 4235      315F5365 
 4235      7450574D 
 4235      44656164 
 4236              	.LASF9:
 4237 0128 75696E74 		.ascii	"uint8\000"
 4237      3800
 4238              	.LASF21:
 4239 012e 51756164 		.ascii	"QuadDec_1_SetMode\000"
 4239      4465635F 
 4239      315F5365 
 4239      744D6F64 
 4239      6500
 4240              	.LASF12:
 4241 0140 646F7562 		.ascii	"double\000"
 4241      6C6500
 4242              	.LASF10:
ARM GAS  C:\DOCUME~1\Chuck\LOCALS~1\Temp\ccd20y4e.s 			page 101


 4243 0147 75696E74 		.ascii	"uint32\000"
 4243      333200
 4244              	.LASF75:
 4245 014e 51756164 		.ascii	"QuadDec_1_SetInterrupt\000"
 4245      4465635F 
 4245      315F5365 
 4245      74496E74 
 4245      65727275 
 4246              	.LASF62:
 4247 0165 74726967 		.ascii	"triggerMode\000"
 4247      6765724D 
 4247      6F646500 
 4248              	.LASF38:
 4249 0171 6D61736B 		.ascii	"mask\000"
 4249      00
 4250              	.LASF36:
 4251 0176 64656164 		.ascii	"deadTime\000"
 4251      54696D65 
 4251      00
 4252              	.LASF65:
 4253 017f 51756164 		.ascii	"QuadDec_1_SetStopMode\000"
 4253      4465635F 
 4253      315F5365 
 4253      7453746F 
 4253      704D6F64 
 4254              	.LASF8:
 4255 0195 756E7369 		.ascii	"unsigned int\000"
 4255      676E6564 
 4255      20696E74 
 4255      00
 4256              	.LASF49:
 4257 01a2 51756164 		.ascii	"QuadDec_1_WritePeriodBuf\000"
 4257      4465635F 
 4257      315F5772 
 4257      69746550 
 4257      6572696F 
 4258              	.LASF68:
 4259 01bb 636F6D6D 		.ascii	"command\000"
 4259      616E6400 
 4260              	.LASF5:
 4261 01c3 6C6F6E67 		.ascii	"long unsigned int\000"
 4261      20756E73 
 4261      69676E65 
 4261      6420696E 
 4261      7400
 4262              	.LASF30:
 4263 01d5 6D6F6465 		.ascii	"modeMask\000"
 4263      4D61736B 
 4263      00
 4264              	.LASF56:
 4265 01de 51756164 		.ascii	"QuadDec_1_WriteCompareBuf\000"
 4265      4465635F 
 4265      315F5772 
 4265      69746543 
 4265      6F6D7061 
 4266              	.LASF31:
 4267 01f8 51756164 		.ascii	"QuadDec_1_SetPWMSyncKill\000"
ARM GAS  C:\DOCUME~1\Chuck\LOCALS~1\Temp\ccd20y4e.s 			page 102


 4267      4465635F 
 4267      315F5365 
 4267      7450574D 
 4267      53796E63 
 4268              	.LASF46:
 4269 0211 51756164 		.ascii	"QuadDec_1_ReadPeriod\000"
 4269      4465635F 
 4269      315F5265 
 4269      61645065 
 4269      72696F64 
 4270              	.LASF3:
 4271 0226 73686F72 		.ascii	"short unsigned int\000"
 4271      7420756E 
 4271      7369676E 
 4271      65642069 
 4271      6E7400
 4272              	.LASF66:
 4273 0239 51756164 		.ascii	"QuadDec_1_SetCountMode\000"
 4273      4465635F 
 4273      315F5365 
 4273      74436F75 
 4273      6E744D6F 
 4274              	.LASF78:
 4275 0250 433A5C44 		.ascii	"C:\\Documents and Settings\\Chuck\\My Documents\\PS"
 4275      6F63756D 
 4275      656E7473 
 4275      20616E64 
 4275      20536574 
 4276 027f 6F432043 		.ascii	"oC Creator\\RosOnAStick\\RosOnAStick.cydsn\000"
 4276      72656174 
 4276      6F725C52 
 4276      6F734F6E 
 4276      41537469 
 4277              	.LASF27:
 4278 02a8 51756164 		.ascii	"QuadDec_1_SetOneShot\000"
 4278      4465635F 
 4278      315F5365 
 4278      744F6E65 
 4278      53686F74 
 4279              	.LASF28:
 4280 02bd 6F6E6553 		.ascii	"oneShotEnable\000"
 4280      686F7445 
 4280      6E61626C 
 4280      6500
 4281              	.LASF60:
 4282 02cb 51756164 		.ascii	"QuadDec_1_ReadCaptureBuf\000"
 4282      4465635F 
 4282      315F5265 
 4282      61644361 
 4282      70747572 
 4283              	.LASF52:
 4284 02e4 51756164 		.ascii	"QuadDec_1_SetPeriodSwap\000"
 4284      4465635F 
 4284      315F5365 
 4284      74506572 
 4284      696F6453 
 4285              	.LASF43:
ARM GAS  C:\DOCUME~1\Chuck\LOCALS~1\Temp\ccd20y4e.s 			page 103


 4286 02fc 51756164 		.ascii	"QuadDec_1_WritePeriod\000"
 4286      4465635F 
 4286      315F5772 
 4286      69746550 
 4286      6572696F 
 4287              	.LASF73:
 4288 0312 51756164 		.ascii	"QuadDec_1_GetInterruptSource\000"
 4288      4465635F 
 4288      315F4765 
 4288      74496E74 
 4288      65727275 
 4289              	.LASF14:
 4290 032f 72656733 		.ascii	"reg32\000"
 4290      3200
 4291              	.LASF53:
 4292 0335 51756164 		.ascii	"QuadDec_1_WriteCompare\000"
 4292      4465635F 
 4292      315F5772 
 4292      69746543 
 4292      6F6D7061 
 4293              	.LASF15:
 4294 034c 73697A65 		.ascii	"sizetype\000"
 4294      74797065 
 4294      00
 4295              	.LASF32:
 4296 0355 73796E63 		.ascii	"syncKillEnable\000"
 4296      4B696C6C 
 4296      456E6162 
 4296      6C6500
 4297              	.LASF54:
 4298 0364 636F6D70 		.ascii	"compare\000"
 4298      61726500 
 4299              	.LASF29:
 4300 036c 51756164 		.ascii	"QuadDec_1_SetPWMMode\000"
 4300      4465635F 
 4300      315F5365 
 4300      7450574D 
 4300      4D6F6465 
 4301              	.LASF51:
 4302 0381 51756164 		.ascii	"QuadDec_1_ReadPeriodBuf\000"
 4302      4465635F 
 4302      315F5265 
 4302      61645065 
 4302      72696F64 
 4303              	.LASF41:
 4304 0399 51756164 		.ascii	"QuadDec_1_SetCounterMode\000"
 4304      4465635F 
 4304      315F5365 
 4304      74436F75 
 4304      6E746572 
 4305              	.LASF11:
 4306 03b2 666C6F61 		.ascii	"float\000"
 4306      7400
 4307              	.LASF71:
 4308 03b8 696E7465 		.ascii	"interruptMask\000"
 4308      72727570 
 4308      744D6173 
ARM GAS  C:\DOCUME~1\Chuck\LOCALS~1\Temp\ccd20y4e.s 			page 104


 4308      6B00
 4309              	.LASF26:
 4310 03c6 70726573 		.ascii	"prescaler\000"
 4310      63616C65 
 4310      7200
 4311              	.LASF59:
 4312 03d0 51756164 		.ascii	"QuadDec_1_ReadCapture\000"
 4312      4465635F 
 4312      315F5265 
 4312      61644361 
 4312      70747572 
 4313              	.LASF39:
 4314 03e6 51756164 		.ascii	"QuadDec_1_WriteCounter\000"
 4314      4465635F 
 4314      315F5772 
 4314      69746543 
 4314      6F756E74 
 4315              	.LASF76:
 4316 03fd 474E5520 		.ascii	"GNU C 4.7.3 20130312 (release) [ARM/embedded-4_7-br"
 4316      4320342E 
 4316      372E3320 
 4316      32303133 
 4316      30333132 
 4317 0430 616E6368 		.ascii	"anch revision 196615]\000"
 4317      20726576 
 4317      6973696F 
 4317      6E203139 
 4317      36363135 
 4318              	.LASF1:
 4319 0446 756E7369 		.ascii	"unsigned char\000"
 4319      676E6564 
 4319      20636861 
 4319      7200
 4320              	.LASF34:
 4321 0454 73746F70 		.ascii	"stopOnKillEnable\000"
 4321      4F6E4B69 
 4321      6C6C456E 
 4321      61626C65 
 4321      00
 4322              	.LASF2:
 4323 0465 73686F72 		.ascii	"short int\000"
 4323      7420696E 
 4323      7400
 4324              	.LASF19:
 4325 046f 51756164 		.ascii	"QuadDec_1_Stop\000"
 4325      4465635F 
 4325      315F5374 
 4325      6F7000
 4326              	.LASF61:
 4327 047e 51756164 		.ascii	"QuadDec_1_SetCaptureMode\000"
 4327      4465635F 
 4327      315F5365 
 4327      74436170 
 4327      74757265 
 4328              	.LASF55:
 4329 0497 51756164 		.ascii	"QuadDec_1_ReadCompare\000"
 4329      4465635F 
ARM GAS  C:\DOCUME~1\Chuck\LOCALS~1\Temp\ccd20y4e.s 			page 105


 4329      315F5265 
 4329      6164436F 
 4329      6D706172 
 4330              	.LASF22:
 4331 04ad 51756164 		.ascii	"QuadDec_1_SetQDMode\000"
 4331      4465635F 
 4331      315F5365 
 4331      7451444D 
 4331      6F646500 
 4332              	.LASF13:
 4333 04c1 63686172 		.ascii	"char\000"
 4333      00
 4334              	.LASF23:
 4335 04c6 6D6F6465 		.ascii	"mode\000"
 4335      00
 4336              	.LASF64:
 4337 04cb 51756164 		.ascii	"QuadDec_1_SetStartMode\000"
 4337      4465635F 
 4337      315F5365 
 4337      74537461 
 4337      72744D6F 
 4338              	.LASF79:
 4339 04e2 51756164 		.ascii	"QuadDec_1_initVar\000"
 4339      4465635F 
 4339      315F696E 
 4339      69745661 
 4339      7200
 4340              	.LASF42:
 4341 04f4 636F756E 		.ascii	"counterMode\000"
 4341      7465724D 
 4341      6F646500 
 4342              	.LASF63:
 4343 0500 51756164 		.ascii	"QuadDec_1_SetReloadMode\000"
 4343      4465635F 
 4343      315F5365 
 4343      7452656C 
 4343      6F61644D 
 4344              	.LASF58:
 4345 0518 51756164 		.ascii	"QuadDec_1_ReadCompareBuf\000"
 4345      4465635F 
 4345      315F5265 
 4345      6164436F 
 4345      6D706172 
 4346              	.LASF77:
 4347 0531 2E5C4765 		.ascii	".\\Generated_Source\\PSoC4\\QuadDec_1.c\000"
 4347      6E657261 
 4347      7465645F 
 4347      536F7572 
 4347      63655C50 
 4348              	.LASF47:
 4349 0556 51756164 		.ascii	"QuadDec_1_SetCompareSwap\000"
 4349      4465635F 
 4349      315F5365 
 4349      74436F6D 
 4349      70617265 
 4350              	.LASF57:
 4351 056f 636F6D70 		.ascii	"compareBuf\000"
ARM GAS  C:\DOCUME~1\Chuck\LOCALS~1\Temp\ccd20y4e.s 			page 106


 4351      61726542 
 4351      756600
 4352              	.LASF18:
 4353 057a 51756164 		.ascii	"QuadDec_1_Enable\000"
 4353      4465635F 
 4353      315F456E 
 4353      61626C65 
 4353      00
 4354              	.LASF33:
 4355 058b 51756164 		.ascii	"QuadDec_1_SetPWMStopOnKill\000"
 4355      4465635F 
 4355      315F5365 
 4355      7450574D 
 4355      53746F70 
 4356              	.LASF20:
 4357 05a6 656E6162 		.ascii	"enableInterrupts\000"
 4357      6C65496E 
 4357      74657272 
 4357      75707473 
 4357      00
 4358              	.LASF25:
 4359 05b7 51756164 		.ascii	"QuadDec_1_SetPrescaler\000"
 4359      4465635F 
 4359      315F5365 
 4359      74507265 
 4359      7363616C 
 4360              	.LASF17:
 4361 05ce 51756164 		.ascii	"QuadDec_1_Start\000"
 4361      4465635F 
 4361      315F5374 
 4361      61727400 
 4362              	.LASF48:
 4363 05de 73776170 		.ascii	"swapEnable\000"
 4363      456E6162 
 4363      6C6500
 4364              	.LASF50:
 4365 05e9 70657269 		.ascii	"periodBuf\000"
 4365      6F644275 
 4365      6600
 4366              		.ident	"GCC: (GNU Tools for ARM Embedded Processors) 4.7.3 20130312 (release) [ARM/embedded-4_7-br
