ARM GAS  C:\DOCUME~1\Chuck\LOCALS~1\Temp\ccAifzu1.s 			page 1


   1              		.cpu cortex-m0
   2              		.fpu softvfp
   3              		.eabi_attribute 20, 1
   4              		.eabi_attribute 21, 1
   5              		.eabi_attribute 23, 3
   6              		.eabi_attribute 24, 1
   7              		.eabi_attribute 25, 1
   8              		.eabi_attribute 26, 1
   9              		.eabi_attribute 30, 6
  10              		.eabi_attribute 34, 0
  11              		.eabi_attribute 18, 4
  12              		.code	16
  13              		.file	"ServoControl.cpp"
  14              		.text
  15              	.Ltext0:
  16              		.cfi_sections	.debug_frame
  17              		.section	.text._ZNK8std_msgs6UInt169serializeEPh,"axG",%progbits,_ZNK8std_msgs6UInt169serializeEPh
  18              		.align	2
  19              		.weak	_ZNK8std_msgs6UInt169serializeEPh
  20              		.code	16
  21              		.thumb_func
  22              		.type	_ZNK8std_msgs6UInt169serializeEPh, %function
  23              	_ZNK8std_msgs6UInt169serializeEPh:
  24              	.LFB105:
  25              		.file 1 "./ros_lib/std_msgs/UInt16.h"
   1:./ros_lib/std_msgs/UInt16.h **** #ifndef _ROS_std_msgs_UInt16_h
   2:./ros_lib/std_msgs/UInt16.h **** #define _ROS_std_msgs_UInt16_h
   3:./ros_lib/std_msgs/UInt16.h **** 
   4:./ros_lib/std_msgs/UInt16.h **** #include <stdint.h>
   5:./ros_lib/std_msgs/UInt16.h **** #include <string.h>
   6:./ros_lib/std_msgs/UInt16.h **** #include <stdlib.h>
   7:./ros_lib/std_msgs/UInt16.h **** #include "ros/msg.h"
   8:./ros_lib/std_msgs/UInt16.h **** 
   9:./ros_lib/std_msgs/UInt16.h **** namespace std_msgs
  10:./ros_lib/std_msgs/UInt16.h **** {
  11:./ros_lib/std_msgs/UInt16.h **** 
  12:./ros_lib/std_msgs/UInt16.h ****   class UInt16 : public ros::Msg
  13:./ros_lib/std_msgs/UInt16.h ****   {
  14:./ros_lib/std_msgs/UInt16.h ****     public:
  15:./ros_lib/std_msgs/UInt16.h ****       uint16_t data;
  16:./ros_lib/std_msgs/UInt16.h **** 
  17:./ros_lib/std_msgs/UInt16.h ****     virtual int serialize(unsigned char *outbuffer) const
  26              		.loc 1 17 0
  27              		.cfi_startproc
  28 0000 80B5     		push	{r7, lr}
  29              	.LCFI0:
  30              		.cfi_def_cfa_offset 8
  31              		.cfi_offset 7, -8
  32              		.cfi_offset 14, -4
  33 0002 84B0     		sub	sp, sp, #16
  34              	.LCFI1:
  35              		.cfi_def_cfa_offset 24
  36 0004 00AF     		add	r7, sp, #0
  37              	.LCFI2:
  38              		.cfi_def_cfa_register 7
  39 0006 7860     		str	r0, [r7, #4]
  40 0008 3960     		str	r1, [r7]
ARM GAS  C:\DOCUME~1\Chuck\LOCALS~1\Temp\ccAifzu1.s 			page 2


  41              	.LBB2:
  18:./ros_lib/std_msgs/UInt16.h ****     {
  19:./ros_lib/std_msgs/UInt16.h ****       int offset = 0;
  42              		.loc 1 19 0
  43 000a 0023     		mov	r3, #0
  44 000c FB60     		str	r3, [r7, #12]
  20:./ros_lib/std_msgs/UInt16.h **** #ifndef ROS_MSG_DONT_SERIALIZE
  21:./ros_lib/std_msgs/UInt16.h ****       *(outbuffer + offset + 0) = (this->data >> (8 * 0)) & 0xFF;
  45              		.loc 1 21 0
  46 000e FB68     		ldr	r3, [r7, #12]
  47 0010 3A68     		ldr	r2, [r7]
  48 0012 D318     		add	r3, r2, r3
  49 0014 7A68     		ldr	r2, [r7, #4]
  50 0016 9288     		ldrh	r2, [r2, #4]
  51 0018 D2B2     		uxtb	r2, r2
  52 001a 1A70     		strb	r2, [r3]
  22:./ros_lib/std_msgs/UInt16.h ****       *(outbuffer + offset + 1) = (this->data >> (8 * 1)) & 0xFF;
  53              		.loc 1 22 0
  54 001c FB68     		ldr	r3, [r7, #12]
  55 001e 0133     		add	r3, r3, #1
  56 0020 3A68     		ldr	r2, [r7]
  57 0022 D318     		add	r3, r2, r3
  58 0024 7A68     		ldr	r2, [r7, #4]
  59 0026 9288     		ldrh	r2, [r2, #4]
  60 0028 120A     		lsr	r2, r2, #8
  61 002a 92B2     		uxth	r2, r2
  62 002c D2B2     		uxtb	r2, r2
  63 002e 1A70     		strb	r2, [r3]
  23:./ros_lib/std_msgs/UInt16.h ****       offset += sizeof(this->data);
  64              		.loc 1 23 0
  65 0030 FB68     		ldr	r3, [r7, #12]
  66 0032 0233     		add	r3, r3, #2
  67 0034 FB60     		str	r3, [r7, #12]
  24:./ros_lib/std_msgs/UInt16.h **** #endif
  25:./ros_lib/std_msgs/UInt16.h ****       return offset;
  68              		.loc 1 25 0
  69 0036 FB68     		ldr	r3, [r7, #12]
  70              	.LBE2:
  26:./ros_lib/std_msgs/UInt16.h ****     }
  71              		.loc 1 26 0
  72 0038 181C     		mov	r0, r3
  73 003a BD46     		mov	sp, r7
  74 003c 04B0     		add	sp, sp, #16
  75              		@ sp needed for prologue
  76 003e 80BD     		pop	{r7, pc}
  77              		.cfi_endproc
  78              	.LFE105:
  79              		.size	_ZNK8std_msgs6UInt169serializeEPh, .-_ZNK8std_msgs6UInt169serializeEPh
  80              		.section	.text._ZN8std_msgs6UInt1611deserializeEPh,"axG",%progbits,_ZN8std_msgs6UInt1611deserializ
  81              		.align	2
  82              		.weak	_ZN8std_msgs6UInt1611deserializeEPh
  83              		.code	16
  84              		.thumb_func
  85              		.type	_ZN8std_msgs6UInt1611deserializeEPh, %function
  86              	_ZN8std_msgs6UInt1611deserializeEPh:
  87              	.LFB106:
  27:./ros_lib/std_msgs/UInt16.h **** 
ARM GAS  C:\DOCUME~1\Chuck\LOCALS~1\Temp\ccAifzu1.s 			page 3


  28:./ros_lib/std_msgs/UInt16.h ****     virtual int deserialize(unsigned char *inbuffer)
  88              		.loc 1 28 0
  89              		.cfi_startproc
  90 0000 80B5     		push	{r7, lr}
  91              	.LCFI3:
  92              		.cfi_def_cfa_offset 8
  93              		.cfi_offset 7, -8
  94              		.cfi_offset 14, -4
  95 0002 84B0     		sub	sp, sp, #16
  96              	.LCFI4:
  97              		.cfi_def_cfa_offset 24
  98 0004 00AF     		add	r7, sp, #0
  99              	.LCFI5:
 100              		.cfi_def_cfa_register 7
 101 0006 7860     		str	r0, [r7, #4]
 102 0008 3960     		str	r1, [r7]
 103              	.LBB3:
  29:./ros_lib/std_msgs/UInt16.h ****     {
  30:./ros_lib/std_msgs/UInt16.h ****       int offset = 0;
 104              		.loc 1 30 0
 105 000a 0023     		mov	r3, #0
 106 000c FB60     		str	r3, [r7, #12]
  31:./ros_lib/std_msgs/UInt16.h **** #ifndef ROS_MSG_DONT_DESERIALIZE
  32:./ros_lib/std_msgs/UInt16.h ****       this->data =  ((uint16_t) (*(inbuffer + offset)));
 107              		.loc 1 32 0
 108 000e FB68     		ldr	r3, [r7, #12]
 109 0010 3A68     		ldr	r2, [r7]
 110 0012 D318     		add	r3, r2, r3
 111 0014 1B78     		ldrb	r3, [r3]
 112 0016 1A1C     		mov	r2, r3
 113 0018 7B68     		ldr	r3, [r7, #4]
 114 001a 9A80     		strh	r2, [r3, #4]
  33:./ros_lib/std_msgs/UInt16.h ****       this->data |= ((uint16_t) (*(inbuffer + offset + 1))) << (8 * 1);
 115              		.loc 1 33 0
 116 001c 7B68     		ldr	r3, [r7, #4]
 117 001e 9B88     		ldrh	r3, [r3, #4]
 118 0020 9AB2     		uxth	r2, r3
 119 0022 FB68     		ldr	r3, [r7, #12]
 120 0024 0133     		add	r3, r3, #1
 121 0026 3968     		ldr	r1, [r7]
 122 0028 CB18     		add	r3, r1, r3
 123 002a 1B78     		ldrb	r3, [r3]
 124 002c 1B02     		lsl	r3, r3, #8
 125 002e 9BB2     		uxth	r3, r3
 126 0030 1343     		orr	r3, r2
 127 0032 9BB2     		uxth	r3, r3
 128 0034 9AB2     		uxth	r2, r3
 129 0036 7B68     		ldr	r3, [r7, #4]
 130 0038 9A80     		strh	r2, [r3, #4]
  34:./ros_lib/std_msgs/UInt16.h ****       offset += sizeof(this->data);
 131              		.loc 1 34 0
 132 003a FB68     		ldr	r3, [r7, #12]
 133 003c 0233     		add	r3, r3, #2
 134 003e FB60     		str	r3, [r7, #12]
  35:./ros_lib/std_msgs/UInt16.h **** #endif
  36:./ros_lib/std_msgs/UInt16.h ****      return offset;
 135              		.loc 1 36 0
ARM GAS  C:\DOCUME~1\Chuck\LOCALS~1\Temp\ccAifzu1.s 			page 4


 136 0040 FB68     		ldr	r3, [r7, #12]
 137              	.LBE3:
  37:./ros_lib/std_msgs/UInt16.h ****     }
 138              		.loc 1 37 0
 139 0042 181C     		mov	r0, r3
 140 0044 BD46     		mov	sp, r7
 141 0046 04B0     		add	sp, sp, #16
 142              		@ sp needed for prologue
 143 0048 80BD     		pop	{r7, pc}
 144              		.cfi_endproc
 145              	.LFE106:
 146              		.size	_ZN8std_msgs6UInt1611deserializeEPh, .-_ZN8std_msgs6UInt1611deserializeEPh
 147 004a C046     		.section	.rodata
 148              		.align	2
 149              	.LC0:
 150 0000 7374645F 		.ascii	"std_msgs/UInt16\000"
 150      6D736773 
 150      2F55496E 
 150      74313600 
 151              		.section	.text._ZN8std_msgs6UInt167getTypeEv,"axG",%progbits,_ZN8std_msgs6UInt167getTypeEv,comdat
 152              		.align	2
 153              		.weak	_ZN8std_msgs6UInt167getTypeEv
 154              		.code	16
 155              		.thumb_func
 156              		.type	_ZN8std_msgs6UInt167getTypeEv, %function
 157              	_ZN8std_msgs6UInt167getTypeEv:
 158              	.LFB107:
  38:./ros_lib/std_msgs/UInt16.h **** 
  39:./ros_lib/std_msgs/UInt16.h ****     const char * getType(){ return "std_msgs/UInt16"; };
 159              		.loc 1 39 0
 160              		.cfi_startproc
 161 0000 80B5     		push	{r7, lr}
 162              	.LCFI6:
 163              		.cfi_def_cfa_offset 8
 164              		.cfi_offset 7, -8
 165              		.cfi_offset 14, -4
 166 0002 82B0     		sub	sp, sp, #8
 167              	.LCFI7:
 168              		.cfi_def_cfa_offset 16
 169 0004 00AF     		add	r7, sp, #0
 170              	.LCFI8:
 171              		.cfi_def_cfa_register 7
 172 0006 7860     		str	r0, [r7, #4]
 173              		.loc 1 39 0
 174 0008 024B     		ldr	r3, .L7
 175 000a 181C     		mov	r0, r3
 176 000c BD46     		mov	sp, r7
 177 000e 02B0     		add	sp, sp, #8
 178              		@ sp needed for prologue
 179 0010 80BD     		pop	{r7, pc}
 180              	.L8:
 181 0012 C046     		.align	2
 182              	.L7:
 183 0014 00000000 		.word	.LC0
 184              		.cfi_endproc
 185              	.LFE107:
 186              		.size	_ZN8std_msgs6UInt167getTypeEv, .-_ZN8std_msgs6UInt167getTypeEv
ARM GAS  C:\DOCUME~1\Chuck\LOCALS~1\Temp\ccAifzu1.s 			page 5


 187              		.section	.rodata
 188              		.align	2
 189              	.LC2:
 190 0010 31646637 		.ascii	"1df79edf208b629fe6b81923a544552d\000"
 190      39656466 
 190      32303862 
 190      36323966 
 190      65366238 
 191              		.section	.text._ZN8std_msgs6UInt166getMD5Ev,"axG",%progbits,_ZN8std_msgs6UInt166getMD5Ev,comdat
 192              		.align	2
 193              		.weak	_ZN8std_msgs6UInt166getMD5Ev
 194              		.code	16
 195              		.thumb_func
 196              		.type	_ZN8std_msgs6UInt166getMD5Ev, %function
 197              	_ZN8std_msgs6UInt166getMD5Ev:
 198              	.LFB108:
  40:./ros_lib/std_msgs/UInt16.h ****     const char * getMD5(){ return "1df79edf208b629fe6b81923a544552d"; };
 199              		.loc 1 40 0
 200              		.cfi_startproc
 201 0000 80B5     		push	{r7, lr}
 202              	.LCFI9:
 203              		.cfi_def_cfa_offset 8
 204              		.cfi_offset 7, -8
 205              		.cfi_offset 14, -4
 206 0002 82B0     		sub	sp, sp, #8
 207              	.LCFI10:
 208              		.cfi_def_cfa_offset 16
 209 0004 00AF     		add	r7, sp, #0
 210              	.LCFI11:
 211              		.cfi_def_cfa_register 7
 212 0006 7860     		str	r0, [r7, #4]
 213              		.loc 1 40 0
 214 0008 024B     		ldr	r3, .L11
 215 000a 181C     		mov	r0, r3
 216 000c BD46     		mov	sp, r7
 217 000e 02B0     		add	sp, sp, #8
 218              		@ sp needed for prologue
 219 0010 80BD     		pop	{r7, pc}
 220              	.L12:
 221 0012 C046     		.align	2
 222              	.L11:
 223 0014 10000000 		.word	.LC2
 224              		.cfi_endproc
 225              	.LFE108:
 226              		.size	_ZN8std_msgs6UInt166getMD5Ev, .-_ZN8std_msgs6UInt166getMD5Ev
 227              		.section	.text._ZN12ServoControl11servo_us_cbERKN8std_msgs6UInt16E,"ax",%progbits
 228              		.align	2
 229              		.global	_ZN12ServoControl11servo_us_cbERKN8std_msgs6UInt16E
 230              		.code	16
 231              		.thumb_func
 232              		.type	_ZN12ServoControl11servo_us_cbERKN8std_msgs6UInt16E, %function
 233              	_ZN12ServoControl11servo_us_cbERKN8std_msgs6UInt16E:
 234              	.LFB142:
 235              		.file 2 ".\\ros_lib\\examples\\ServoControl\\ServoControl.cpp"
   1:.\ros_lib\examples\ServoControl/ServoControl.cpp **** /*
   2:.\ros_lib\examples\ServoControl/ServoControl.cpp ****  * rosserial Servo Control Example
   3:.\ros_lib\examples\ServoControl/ServoControl.cpp ****  *
ARM GAS  C:\DOCUME~1\Chuck\LOCALS~1\Temp\ccAifzu1.s 			page 6


   4:.\ros_lib\examples\ServoControl/ServoControl.cpp ****  * This sketch demonstrates the control of hobby R/C servos
   5:.\ros_lib\examples\ServoControl/ServoControl.cpp ****  * using ROS and Cypress PSoC4 "RosOnAStick"
   6:.\ros_lib\examples\ServoControl/ServoControl.cpp ****  * 
   7:.\ros_lib\examples\ServoControl/ServoControl.cpp ****  */
   8:.\ros_lib\examples\ServoControl/ServoControl.cpp **** 
   9:.\ros_lib\examples\ServoControl/ServoControl.cpp **** 
  10:.\ros_lib\examples\ServoControl/ServoControl.cpp **** #include <ros.h>
  11:.\ros_lib\examples\ServoControl/ServoControl.cpp **** #include <std_msgs/UInt16.h>
  12:.\ros_lib\examples\ServoControl/ServoControl.cpp **** #include "ServoControl.h"
  13:.\ros_lib\examples\ServoControl/ServoControl.cpp **** 
  14:.\ros_lib\examples\ServoControl/ServoControl.cpp **** extern ros::NodeHandle  nh;
  15:.\ros_lib\examples\ServoControl/ServoControl.cpp **** 
  16:.\ros_lib\examples\ServoControl/ServoControl.cpp **** namespace ServoControl {
  17:.\ros_lib\examples\ServoControl/ServoControl.cpp **** 
  18:.\ros_lib\examples\ServoControl/ServoControl.cpp **** void servo_us_cb( const std_msgs::UInt16& cmd_msg){
 236              		.loc 2 18 0
 237              		.cfi_startproc
 238 0000 80B5     		push	{r7, lr}
 239              	.LCFI12:
 240              		.cfi_def_cfa_offset 8
 241              		.cfi_offset 7, -8
 242              		.cfi_offset 14, -4
 243 0002 84B0     		sub	sp, sp, #16
 244              	.LCFI13:
 245              		.cfi_def_cfa_offset 24
 246 0004 00AF     		add	r7, sp, #0
 247              	.LCFI14:
 248              		.cfi_def_cfa_register 7
 249 0006 7860     		str	r0, [r7, #4]
 250              	.LBB4:
  19:.\ros_lib\examples\ServoControl/ServoControl.cpp ****   // set servo pulse width in microseconds
  20:.\ros_lib\examples\ServoControl/ServoControl.cpp ****   uint16_t width = cmd_msg.data;
 251              		.loc 2 20 0
 252 0008 3B1C     		mov	r3, r7
 253 000a 0E33     		add	r3, r3, #14
 254 000c 7A68     		ldr	r2, [r7, #4]
 255 000e 9288     		ldrh	r2, [r2, #4]
 256 0010 1A80     		strh	r2, [r3]
  21:.\ros_lib\examples\ServoControl/ServoControl.cpp ****   if (width<500) { width = 500; }
 257              		.loc 2 21 0
 258 0012 3B1C     		mov	r3, r7
 259 0014 0E33     		add	r3, r3, #14
 260 0016 1A88     		ldrh	r2, [r3]
 261 0018 0E4B     		ldr	r3, .L16
 262 001a 9A42     		cmp	r2, r3
 263 001c 04D8     		bhi	.L14
 264              		.loc 2 21 0 is_stmt 0 discriminator 1
 265 001e 3B1C     		mov	r3, r7
 266 0020 0E33     		add	r3, r3, #14
 267 0022 FA22     		mov	r2, #250
 268 0024 5200     		lsl	r2, r2, #1
 269 0026 1A80     		strh	r2, [r3]
 270              	.L14:
  22:.\ros_lib\examples\ServoControl/ServoControl.cpp ****   if (width>2000) { width = 2000; }
 271              		.loc 2 22 0 is_stmt 1
 272 0028 3B1C     		mov	r3, r7
 273 002a 0E33     		add	r3, r3, #14
ARM GAS  C:\DOCUME~1\Chuck\LOCALS~1\Temp\ccAifzu1.s 			page 7


 274 002c 1A88     		ldrh	r2, [r3]
 275 002e FA23     		mov	r3, #250
 276 0030 DB00     		lsl	r3, r3, #3
 277 0032 9A42     		cmp	r2, r3
 278 0034 04D9     		bls	.L15
 279              		.loc 2 22 0 is_stmt 0 discriminator 1
 280 0036 3B1C     		mov	r3, r7
 281 0038 0E33     		add	r3, r3, #14
 282 003a FA22     		mov	r2, #250
 283 003c D200     		lsl	r2, r2, #3
 284 003e 1A80     		strh	r2, [r3]
 285              	.L15:
  23:.\ros_lib\examples\ServoControl/ServoControl.cpp ****   PWM_1_WriteCompare(width); 
 286              		.loc 2 23 0 is_stmt 1
 287 0040 3B1C     		mov	r3, r7
 288 0042 0E33     		add	r3, r3, #14
 289 0044 1B88     		ldrh	r3, [r3]
 290 0046 181C     		mov	r0, r3
 291 0048 FFF7FEFF 		bl	PWM_1_WriteCompare
 292              	.LBE4:
  24:.\ros_lib\examples\ServoControl/ServoControl.cpp **** }
 293              		.loc 2 24 0
 294 004c BD46     		mov	sp, r7
 295 004e 04B0     		add	sp, sp, #16
 296              		@ sp needed for prologue
 297 0050 80BD     		pop	{r7, pc}
 298              	.L17:
 299 0052 C046     		.align	2
 300              	.L16:
 301 0054 F3010000 		.word	499
 302              		.cfi_endproc
 303              	.LFE142:
 304              		.size	_ZN12ServoControl11servo_us_cbERKN8std_msgs6UInt16E, .-_ZN12ServoControl11servo_us_cbERKN8st
 305              		.global	_ZN12ServoControl3subE
 306              		.bss
 307              		.align	2
 308              		.type	_ZN12ServoControl3subE, %object
 309              		.size	_ZN12ServoControl3subE, 32
 310              	_ZN12ServoControl3subE:
 311 0000 00000000 		.space	32
 311      00000000 
 311      00000000 
 311      00000000 
 311      00000000 
 312              		.section	.text._ZN12ServoControl5setupEv,"ax",%progbits
 313              		.align	2
 314              		.global	_ZN12ServoControl5setupEv
 315              		.code	16
 316              		.thumb_func
 317              		.type	_ZN12ServoControl5setupEv, %function
 318              	_ZN12ServoControl5setupEv:
 319              	.LFB143:
  25:.\ros_lib\examples\ServoControl/ServoControl.cpp **** 
  26:.\ros_lib\examples\ServoControl/ServoControl.cpp **** 
  27:.\ros_lib\examples\ServoControl/ServoControl.cpp **** ros::Subscriber<std_msgs::UInt16> sub("servo_us", servo_us_cb);
  28:.\ros_lib\examples\ServoControl/ServoControl.cpp **** 
  29:.\ros_lib\examples\ServoControl/ServoControl.cpp **** void setup(){
ARM GAS  C:\DOCUME~1\Chuck\LOCALS~1\Temp\ccAifzu1.s 			page 8


 320              		.loc 2 29 0
 321              		.cfi_startproc
 322 0000 80B5     		push	{r7, lr}
 323              	.LCFI15:
 324              		.cfi_def_cfa_offset 8
 325              		.cfi_offset 7, -8
 326              		.cfi_offset 14, -4
 327 0002 00AF     		add	r7, sp, #0
 328              	.LCFI16:
 329              		.cfi_def_cfa_register 7
  30:.\ros_lib\examples\ServoControl/ServoControl.cpp ****   nh.subscribe(sub);
 330              		.loc 2 30 0
 331 0004 044A     		ldr	r2, .L19
 332 0006 054B     		ldr	r3, .L19+4
 333 0008 101C     		mov	r0, r2
 334 000a 191C     		mov	r1, r3
 335 000c FFF7FEFF 		bl	_ZN3ros11NodeHandle_I13Psoc4HardwareLi10ELi20ELi200ELi200EE9subscribeIN8std_msgs6UInt16EEEbRNS_
  31:.\ros_lib\examples\ServoControl/ServoControl.cpp ****   
  32:.\ros_lib\examples\ServoControl/ServoControl.cpp ****   PWM_1_Start();
 336              		.loc 2 32 0
 337 0010 FFF7FEFF 		bl	PWM_1_Start
  33:.\ros_lib\examples\ServoControl/ServoControl.cpp **** }
 338              		.loc 2 33 0
 339 0014 BD46     		mov	sp, r7
 340              		@ sp needed for prologue
 341 0016 80BD     		pop	{r7, pc}
 342              	.L20:
 343              		.align	2
 344              	.L19:
 345 0018 00000000 		.word	nh
 346 001c 00000000 		.word	_ZN12ServoControl3subE
 347              		.cfi_endproc
 348              	.LFE143:
 349              		.size	_ZN12ServoControl5setupEv, .-_ZN12ServoControl5setupEv
 350              		.section	.text._ZN12ServoControl4loopEv,"ax",%progbits
 351              		.align	2
 352              		.global	_ZN12ServoControl4loopEv
 353              		.code	16
 354              		.thumb_func
 355              		.type	_ZN12ServoControl4loopEv, %function
 356              	_ZN12ServoControl4loopEv:
 357              	.LFB144:
  34:.\ros_lib\examples\ServoControl/ServoControl.cpp **** 
  35:.\ros_lib\examples\ServoControl/ServoControl.cpp **** void loop(){
 358              		.loc 2 35 0
 359              		.cfi_startproc
 360 0000 80B5     		push	{r7, lr}
 361              	.LCFI17:
 362              		.cfi_def_cfa_offset 8
 363              		.cfi_offset 7, -8
 364              		.cfi_offset 14, -4
 365 0002 00AF     		add	r7, sp, #0
 366              	.LCFI18:
 367              		.cfi_def_cfa_register 7
  36:.\ros_lib\examples\ServoControl/ServoControl.cpp **** }
 368              		.loc 2 36 0
 369 0004 BD46     		mov	sp, r7
ARM GAS  C:\DOCUME~1\Chuck\LOCALS~1\Temp\ccAifzu1.s 			page 9


 370              		@ sp needed for prologue
 371 0006 80BD     		pop	{r7, pc}
 372              		.cfi_endproc
 373              	.LFE144:
 374              		.size	_ZN12ServoControl4loopEv, .-_ZN12ServoControl4loopEv
 375              		.section	.text._ZN3ros11Subscriber_C2Ev,"axG",%progbits,_ZN3ros11Subscriber_C5Ev,comdat
 376              		.align	2
 377              		.weak	_ZN3ros11Subscriber_C2Ev
 378              		.code	16
 379              		.thumb_func
 380              		.type	_ZN3ros11Subscriber_C2Ev, %function
 381              	_ZN3ros11Subscriber_C2Ev:
 382              	.LFB147:
 383              		.file 3 "./ros_lib/ros/subscriber.h"
   1:./ros_lib/ros/subscriber.h **** /* 
   2:./ros_lib/ros/subscriber.h ****  * Software License Agreement (BSD License)
   3:./ros_lib/ros/subscriber.h ****  *
   4:./ros_lib/ros/subscriber.h ****  * Copyright (c) 2011, Willow Garage, Inc.
   5:./ros_lib/ros/subscriber.h ****  * All rights reserved.
   6:./ros_lib/ros/subscriber.h ****  *
   7:./ros_lib/ros/subscriber.h ****  * Redistribution and use in source and binary forms, with or without
   8:./ros_lib/ros/subscriber.h ****  * modification, are permitted provided that the following conditions
   9:./ros_lib/ros/subscriber.h ****  * are met:
  10:./ros_lib/ros/subscriber.h ****  *
  11:./ros_lib/ros/subscriber.h ****  *  * Redistributions of source code must retain the above copyright
  12:./ros_lib/ros/subscriber.h ****  *    notice, this list of conditions and the following disclaimer.
  13:./ros_lib/ros/subscriber.h ****  *  * Redistributions in binary form must reproduce the above
  14:./ros_lib/ros/subscriber.h ****  *    copyright notice, this list of conditions and the following
  15:./ros_lib/ros/subscriber.h ****  *    disclaimer in the documentation and/or other materials provided
  16:./ros_lib/ros/subscriber.h ****  *    with the distribution.
  17:./ros_lib/ros/subscriber.h ****  *  * Neither the name of Willow Garage, Inc. nor the names of its
  18:./ros_lib/ros/subscriber.h ****  *    contributors may be used to endorse or promote prducts derived
  19:./ros_lib/ros/subscriber.h ****  *    from this software without specific prior written permission.
  20:./ros_lib/ros/subscriber.h ****  *
  21:./ros_lib/ros/subscriber.h ****  * THIS SOFTWARE IS PROVIDED BY THE COPYRIGHT HOLDERS AND CONTRIBUTORS
  22:./ros_lib/ros/subscriber.h ****  * "AS IS" AND ANY EXPRESS OR IMPLIED WARRANTIES, INCLUDING, BUT NOT
  23:./ros_lib/ros/subscriber.h ****  * LIMITED TO, THE IMPLIED WARRANTIES OF MERCHANTABILITY AND FITNESS
  24:./ros_lib/ros/subscriber.h ****  * FOR A PARTICULAR PURPOSE ARE DISCLAIMED. IN NO EVENT SHALL THE
  25:./ros_lib/ros/subscriber.h ****  * COPYRIGHT OWNER OR CONTRIBUTORS BE LIABLE FOR ANY DIRECT, INDIRECT,
  26:./ros_lib/ros/subscriber.h ****  * INCIDENTAL, SPECIAL, EXEMPLARY, OR CONSEQUENTIAL DAMAGES (INCLUDING,
  27:./ros_lib/ros/subscriber.h ****  * BUT NOT LIMITED TO, PROCUREMENT OF SUBSTITUTE GOODS OR SERVICES;
  28:./ros_lib/ros/subscriber.h ****  * LOSS OF USE, DATA, OR PROFITS; OR BUSINESS INTERRUPTION) HOWEVER
  29:./ros_lib/ros/subscriber.h ****  * CAUSED AND ON ANY THEORY OF LIABILITY, WHETHER IN CONTRACT, STRICT
  30:./ros_lib/ros/subscriber.h ****  * LIABILITY, OR TORT (INCLUDING NEGLIGENCE OR OTHERWISE) ARISING IN
  31:./ros_lib/ros/subscriber.h ****  * ANY WAY OUT OF THE USE OF THIS SOFTWARE, EVEN IF ADVISED OF THE
  32:./ros_lib/ros/subscriber.h ****  * POSSIBILITY OF SUCH DAMAGE.
  33:./ros_lib/ros/subscriber.h ****  */
  34:./ros_lib/ros/subscriber.h **** 
  35:./ros_lib/ros/subscriber.h **** #ifndef ROS_SUBSCRIBER_H_
  36:./ros_lib/ros/subscriber.h **** #define ROS_SUBSCRIBER_H_
  37:./ros_lib/ros/subscriber.h **** 
  38:./ros_lib/ros/subscriber.h **** #include "rosserial_msgs/TopicInfo.h"
  39:./ros_lib/ros/subscriber.h **** 
  40:./ros_lib/ros/subscriber.h **** namespace ros {
  41:./ros_lib/ros/subscriber.h **** 
  42:./ros_lib/ros/subscriber.h ****   /* Base class for objects subscribers. */
  43:./ros_lib/ros/subscriber.h ****   class Subscriber_
ARM GAS  C:\DOCUME~1\Chuck\LOCALS~1\Temp\ccAifzu1.s 			page 10


 384              		.loc 3 43 0
 385              		.cfi_startproc
 386 0000 80B5     		push	{r7, lr}
 387              	.LCFI19:
 388              		.cfi_def_cfa_offset 8
 389              		.cfi_offset 7, -8
 390              		.cfi_offset 14, -4
 391 0002 82B0     		sub	sp, sp, #8
 392              	.LCFI20:
 393              		.cfi_def_cfa_offset 16
 394 0004 00AF     		add	r7, sp, #0
 395              	.LCFI21:
 396              		.cfi_def_cfa_register 7
 397 0006 7860     		str	r0, [r7, #4]
 398              	.LBB5:
 399              		.loc 3 43 0
 400 0008 7B68     		ldr	r3, [r7, #4]
 401 000a 034A     		ldr	r2, .L25
 402 000c 1A60     		str	r2, [r3]
 403              	.LBE5:
 404 000e 7B68     		ldr	r3, [r7, #4]
 405 0010 181C     		mov	r0, r3
 406 0012 BD46     		mov	sp, r7
 407 0014 02B0     		add	sp, sp, #8
 408              		@ sp needed for prologue
 409 0016 80BD     		pop	{r7, pc}
 410              	.L26:
 411              		.align	2
 412              	.L25:
 413 0018 08000000 		.word	_ZTVN3ros11Subscriber_E+8
 414              		.cfi_endproc
 415              	.LFE147:
 416              		.size	_ZN3ros11Subscriber_C2Ev, .-_ZN3ros11Subscriber_C2Ev
 417              		.weak	_ZN3ros11Subscriber_C1Ev
 418              		.thumb_set _ZN3ros11Subscriber_C1Ev,_ZN3ros11Subscriber_C2Ev
 419              		.section	.text._ZN3ros3MsgC2Ev,"axG",%progbits,_ZN3ros3MsgC5Ev,comdat
 420              		.align	2
 421              		.weak	_ZN3ros3MsgC2Ev
 422              		.code	16
 423              		.thumb_func
 424              		.type	_ZN3ros3MsgC2Ev, %function
 425              	_ZN3ros3MsgC2Ev:
 426              	.LFB151:
 427              		.file 4 "./ros_lib/ros/msg.h"
   1:./ros_lib/ros/msg.h **** /* 
   2:./ros_lib/ros/msg.h ****  * Software License Agreement (BSD License)
   3:./ros_lib/ros/msg.h ****  *
   4:./ros_lib/ros/msg.h ****  * Copyright (c) 2011, Willow Garage, Inc.
   5:./ros_lib/ros/msg.h ****  * All rights reserved.
   6:./ros_lib/ros/msg.h ****  *
   7:./ros_lib/ros/msg.h ****  * Redistribution and use in source and binary forms, with or without
   8:./ros_lib/ros/msg.h ****  * modification, are permitted provided that the following conditions
   9:./ros_lib/ros/msg.h ****  * are met:
  10:./ros_lib/ros/msg.h ****  *
  11:./ros_lib/ros/msg.h ****  *  * Redistributions of source code must retain the above copyright
  12:./ros_lib/ros/msg.h ****  *    notice, this list of conditions and the following disclaimer.
  13:./ros_lib/ros/msg.h ****  *  * Redistributions in binary form must reproduce the above
ARM GAS  C:\DOCUME~1\Chuck\LOCALS~1\Temp\ccAifzu1.s 			page 11


  14:./ros_lib/ros/msg.h ****  *    copyright notice, this list of conditions and the following
  15:./ros_lib/ros/msg.h ****  *    disclaimer in the documentation and/or other materials provided
  16:./ros_lib/ros/msg.h ****  *    with the distribution.
  17:./ros_lib/ros/msg.h ****  *  * Neither the name of Willow Garage, Inc. nor the names of its
  18:./ros_lib/ros/msg.h ****  *    contributors may be used to endorse or promote prducts derived
  19:./ros_lib/ros/msg.h ****  *    from this software without specific prior written permission.
  20:./ros_lib/ros/msg.h ****  *
  21:./ros_lib/ros/msg.h ****  * THIS SOFTWARE IS PROVIDED BY THE COPYRIGHT HOLDERS AND CONTRIBUTORS
  22:./ros_lib/ros/msg.h ****  * "AS IS" AND ANY EXPRESS OR IMPLIED WARRANTIES, INCLUDING, BUT NOT
  23:./ros_lib/ros/msg.h ****  * LIMITED TO, THE IMPLIED WARRANTIES OF MERCHANTABILITY AND FITNESS
  24:./ros_lib/ros/msg.h ****  * FOR A PARTICULAR PURPOSE ARE DISCLAIMED. IN NO EVENT SHALL THE
  25:./ros_lib/ros/msg.h ****  * COPYRIGHT OWNER OR CONTRIBUTORS BE LIABLE FOR ANY DIRECT, INDIRECT,
  26:./ros_lib/ros/msg.h ****  * INCIDENTAL, SPECIAL, EXEMPLARY, OR CONSEQUENTIAL DAMAGES (INCLUDING,
  27:./ros_lib/ros/msg.h ****  * BUT NOT LIMITED TO, PROCUREMENT OF SUBSTITUTE GOODS OR SERVICES;
  28:./ros_lib/ros/msg.h ****  * LOSS OF USE, DATA, OR PROFITS; OR BUSINESS INTERRUPTION) HOWEVER
  29:./ros_lib/ros/msg.h ****  * CAUSED AND ON ANY THEORY OF LIABILITY, WHETHER IN CONTRACT, STRICT
  30:./ros_lib/ros/msg.h ****  * LIABILITY, OR TORT (INCLUDING NEGLIGENCE OR OTHERWISE) ARISING IN
  31:./ros_lib/ros/msg.h ****  * ANY WAY OUT OF THE USE OF THIS SOFTWARE, EVEN IF ADVISED OF THE
  32:./ros_lib/ros/msg.h ****  * POSSIBILITY OF SUCH DAMAGE.
  33:./ros_lib/ros/msg.h ****  */
  34:./ros_lib/ros/msg.h **** 
  35:./ros_lib/ros/msg.h **** #ifndef _ROS_MSG_H_
  36:./ros_lib/ros/msg.h **** #define _ROS_MSG_H_
  37:./ros_lib/ros/msg.h **** 
  38:./ros_lib/ros/msg.h **** namespace ros {
  39:./ros_lib/ros/msg.h **** 
  40:./ros_lib/ros/msg.h ****   /* Base Message Type */
  41:./ros_lib/ros/msg.h ****   class Msg
 428              		.loc 4 41 0
 429              		.cfi_startproc
 430 0000 80B5     		push	{r7, lr}
 431              	.LCFI22:
 432              		.cfi_def_cfa_offset 8
 433              		.cfi_offset 7, -8
 434              		.cfi_offset 14, -4
 435 0002 82B0     		sub	sp, sp, #8
 436              	.LCFI23:
 437              		.cfi_def_cfa_offset 16
 438 0004 00AF     		add	r7, sp, #0
 439              	.LCFI24:
 440              		.cfi_def_cfa_register 7
 441 0006 7860     		str	r0, [r7, #4]
 442              	.LBB6:
 443              		.loc 4 41 0
 444 0008 7B68     		ldr	r3, [r7, #4]
 445 000a 034A     		ldr	r2, .L30
 446 000c 1A60     		str	r2, [r3]
 447              	.LBE6:
 448 000e 7B68     		ldr	r3, [r7, #4]
 449 0010 181C     		mov	r0, r3
 450 0012 BD46     		mov	sp, r7
 451 0014 02B0     		add	sp, sp, #8
 452              		@ sp needed for prologue
 453 0016 80BD     		pop	{r7, pc}
 454              	.L31:
 455              		.align	2
 456              	.L30:
ARM GAS  C:\DOCUME~1\Chuck\LOCALS~1\Temp\ccAifzu1.s 			page 12


 457 0018 08000000 		.word	_ZTVN3ros3MsgE+8
 458              		.cfi_endproc
 459              	.LFE151:
 460              		.size	_ZN3ros3MsgC2Ev, .-_ZN3ros3MsgC2Ev
 461              		.weak	_ZN3ros3MsgC1Ev
 462              		.thumb_set _ZN3ros3MsgC1Ev,_ZN3ros3MsgC2Ev
 463              		.section	.text._ZN8std_msgs6UInt16C2Ev,"axG",%progbits,_ZN8std_msgs6UInt16C5Ev,comdat
 464              		.align	2
 465              		.weak	_ZN8std_msgs6UInt16C2Ev
 466              		.code	16
 467              		.thumb_func
 468              		.type	_ZN8std_msgs6UInt16C2Ev, %function
 469              	_ZN8std_msgs6UInt16C2Ev:
 470              	.LFB153:
  12:./ros_lib/std_msgs/UInt16.h ****   class UInt16 : public ros::Msg
 471              		.loc 1 12 0
 472              		.cfi_startproc
 473 0000 80B5     		push	{r7, lr}
 474              	.LCFI25:
 475              		.cfi_def_cfa_offset 8
 476              		.cfi_offset 7, -8
 477              		.cfi_offset 14, -4
 478 0002 82B0     		sub	sp, sp, #8
 479              	.LCFI26:
 480              		.cfi_def_cfa_offset 16
 481 0004 00AF     		add	r7, sp, #0
 482              	.LCFI27:
 483              		.cfi_def_cfa_register 7
 484 0006 7860     		str	r0, [r7, #4]
 485              	.LBB7:
  12:./ros_lib/std_msgs/UInt16.h ****   class UInt16 : public ros::Msg
 486              		.loc 1 12 0
 487 0008 7B68     		ldr	r3, [r7, #4]
 488 000a 181C     		mov	r0, r3
 489 000c FFF7FEFF 		bl	_ZN3ros3MsgC2Ev
 490 0010 7B68     		ldr	r3, [r7, #4]
 491 0012 034A     		ldr	r2, .L35
 492 0014 1A60     		str	r2, [r3]
 493              	.LBE7:
 494 0016 7B68     		ldr	r3, [r7, #4]
 495 0018 181C     		mov	r0, r3
 496 001a BD46     		mov	sp, r7
 497 001c 02B0     		add	sp, sp, #8
 498              		@ sp needed for prologue
 499 001e 80BD     		pop	{r7, pc}
 500              	.L36:
 501              		.align	2
 502              	.L35:
 503 0020 08000000 		.word	_ZTVN8std_msgs6UInt16E+8
 504              		.cfi_endproc
 505              	.LFE153:
 506              		.size	_ZN8std_msgs6UInt16C2Ev, .-_ZN8std_msgs6UInt16C2Ev
 507              		.weak	_ZN8std_msgs6UInt16C1Ev
 508              		.thumb_set _ZN8std_msgs6UInt16C1Ev,_ZN8std_msgs6UInt16C2Ev
 509              		.section	.text._ZN3ros10SubscriberIN8std_msgs6UInt16EEC2EPKcPFvRKS2_Ei,"axG",%progbits,_ZN3ros10Su
 510              		.align	2
 511              		.weak	_ZN3ros10SubscriberIN8std_msgs6UInt16EEC2EPKcPFvRKS2_Ei
ARM GAS  C:\DOCUME~1\Chuck\LOCALS~1\Temp\ccAifzu1.s 			page 13


 512              		.code	16
 513              		.thumb_func
 514              		.type	_ZN3ros10SubscriberIN8std_msgs6UInt16EEC2EPKcPFvRKS2_Ei, %function
 515              	_ZN3ros10SubscriberIN8std_msgs6UInt16EEC2EPKcPFvRKS2_Ei:
 516              	.LFB155:
  44:./ros_lib/ros/subscriber.h ****   {
  45:./ros_lib/ros/subscriber.h ****     public:
  46:./ros_lib/ros/subscriber.h ****       virtual void callback(unsigned char *data)=0;
  47:./ros_lib/ros/subscriber.h ****       virtual int getEndpointType()=0;
  48:./ros_lib/ros/subscriber.h **** 
  49:./ros_lib/ros/subscriber.h ****       // id_ is set by NodeHandle when we advertise 
  50:./ros_lib/ros/subscriber.h ****       int id_;
  51:./ros_lib/ros/subscriber.h **** 
  52:./ros_lib/ros/subscriber.h ****       virtual const char * getMsgType()=0;
  53:./ros_lib/ros/subscriber.h ****       virtual const char * getMsgMD5()=0;
  54:./ros_lib/ros/subscriber.h ****       const char * topic_;
  55:./ros_lib/ros/subscriber.h ****   };
  56:./ros_lib/ros/subscriber.h **** 
  57:./ros_lib/ros/subscriber.h **** 
  58:./ros_lib/ros/subscriber.h ****   /* Actual subscriber, templated on message type. */
  59:./ros_lib/ros/subscriber.h ****   template<typename MsgT>
  60:./ros_lib/ros/subscriber.h ****   class Subscriber: public Subscriber_{
  61:./ros_lib/ros/subscriber.h ****     public:
  62:./ros_lib/ros/subscriber.h ****       typedef void(*CallbackT)(const MsgT&);
  63:./ros_lib/ros/subscriber.h ****       MsgT msg;
  64:./ros_lib/ros/subscriber.h ****       // Rosserial standard callback
  65:./ros_lib/ros/subscriber.h ****       Subscriber(const char * topic_name, CallbackT cb, int endpoint=rosserial_msgs::TopicInfo::ID_
 517              		.loc 3 65 0
 518              		.cfi_startproc
 519 0000 80B5     		push	{r7, lr}
 520              	.LCFI28:
 521              		.cfi_def_cfa_offset 8
 522              		.cfi_offset 7, -8
 523              		.cfi_offset 14, -4
 524 0002 84B0     		sub	sp, sp, #16
 525              	.LCFI29:
 526              		.cfi_def_cfa_offset 24
 527 0004 00AF     		add	r7, sp, #0
 528              	.LCFI30:
 529              		.cfi_def_cfa_register 7
 530 0006 F860     		str	r0, [r7, #12]
 531 0008 B960     		str	r1, [r7, #8]
 532 000a 7A60     		str	r2, [r7, #4]
 533 000c 3B60     		str	r3, [r7]
 534              	.LBB8:
  66:./ros_lib/ros/subscriber.h ****         cb_(cb), cbp_(NULL),
  67:./ros_lib/ros/subscriber.h ****         endpoint_(endpoint)
 535              		.loc 3 67 0
 536 000e FB68     		ldr	r3, [r7, #12]
 537 0010 181C     		mov	r0, r3
 538 0012 FFF7FEFF 		bl	_ZN3ros11Subscriber_C2Ev
 539 0016 FB68     		ldr	r3, [r7, #12]
 540 0018 0B4A     		ldr	r2, .L40
 541 001a 1A60     		str	r2, [r3]
 542 001c FB68     		ldr	r3, [r7, #12]
 543 001e 0C33     		add	r3, r3, #12
 544 0020 181C     		mov	r0, r3
ARM GAS  C:\DOCUME~1\Chuck\LOCALS~1\Temp\ccAifzu1.s 			page 14


 545 0022 FFF7FEFF 		bl	_ZN8std_msgs6UInt16C1Ev
 546 0026 FB68     		ldr	r3, [r7, #12]
 547 0028 7A68     		ldr	r2, [r7, #4]
 548 002a 5A61     		str	r2, [r3, #20]
 549 002c FB68     		ldr	r3, [r7, #12]
 550 002e 0022     		mov	r2, #0
 551 0030 9A61     		str	r2, [r3, #24]
 552 0032 FB68     		ldr	r3, [r7, #12]
 553 0034 3A68     		ldr	r2, [r7]
 554 0036 DA61     		str	r2, [r3, #28]
  68:./ros_lib/ros/subscriber.h ****       {
  69:./ros_lib/ros/subscriber.h ****         topic_ = topic_name;
 555              		.loc 3 69 0
 556 0038 FB68     		ldr	r3, [r7, #12]
 557 003a BA68     		ldr	r2, [r7, #8]
 558 003c 9A60     		str	r2, [r3, #8]
 559              	.LBE8:
 560 003e FB68     		ldr	r3, [r7, #12]
  70:./ros_lib/ros/subscriber.h ****       };
 561              		.loc 3 70 0
 562 0040 181C     		mov	r0, r3
 563 0042 BD46     		mov	sp, r7
 564 0044 04B0     		add	sp, sp, #16
 565              		@ sp needed for prologue
 566 0046 80BD     		pop	{r7, pc}
 567              	.L41:
 568              		.align	2
 569              	.L40:
 570 0048 08000000 		.word	_ZTVN3ros10SubscriberIN8std_msgs6UInt16EEE+8
 571              		.cfi_endproc
 572              	.LFE155:
 573              		.size	_ZN3ros10SubscriberIN8std_msgs6UInt16EEC2EPKcPFvRKS2_Ei, .-_ZN3ros10SubscriberIN8std_msgs6UI
 574              		.weak	_ZN3ros10SubscriberIN8std_msgs6UInt16EEC1EPKcPFvRKS2_Ei
 575              		.thumb_set _ZN3ros10SubscriberIN8std_msgs6UInt16EEC1EPKcPFvRKS2_Ei,_ZN3ros10SubscriberIN8std_msgs6
 576              		.section	.text._ZN3ros11NodeHandle_I13Psoc4HardwareLi10ELi20ELi200ELi200EE9subscribeIN8std_msgs6UI
 577              		.align	2
 578              		.weak	_ZN3ros11NodeHandle_I13Psoc4HardwareLi10ELi20ELi200ELi200EE9subscribeIN8std_msgs6UInt16EEEbR
 579              		.code	16
 580              		.thumb_func
 581              		.type	_ZN3ros11NodeHandle_I13Psoc4HardwareLi10ELi20ELi200ELi200EE9subscribeIN8std_msgs6UInt16EEEbR
 582              	_ZN3ros11NodeHandle_I13Psoc4HardwareLi10ELi20ELi200ELi200EE9subscribeIN8std_msgs6UInt16EEEbRNS_10Su
 583              	.LFB157:
 584              		.file 5 "./ros_lib/ros/node_handle.h"
   1:./ros_lib/ros/node_handle.h **** /*
   2:./ros_lib/ros/node_handle.h ****  * Software License Agreement (BSD License)
   3:./ros_lib/ros/node_handle.h ****  *
   4:./ros_lib/ros/node_handle.h ****  * Copyright (c) 2011, Willow Garage, Inc.
   5:./ros_lib/ros/node_handle.h ****  * All rights reserved.
   6:./ros_lib/ros/node_handle.h ****  *
   7:./ros_lib/ros/node_handle.h ****  * Redistribution and use in source and binary forms, with or without
   8:./ros_lib/ros/node_handle.h ****  * modification, are permitted provided that the following conditions
   9:./ros_lib/ros/node_handle.h ****  * are met:
  10:./ros_lib/ros/node_handle.h ****  *
  11:./ros_lib/ros/node_handle.h ****  *  * Redistributions of source code must retain the above copyright
  12:./ros_lib/ros/node_handle.h ****  *    notice, this list of conditions and the following disclaimer.
  13:./ros_lib/ros/node_handle.h ****  *  * Redistributions in binary form must reproduce the above
  14:./ros_lib/ros/node_handle.h ****  *    copyright notice, this list of conditions and the following
ARM GAS  C:\DOCUME~1\Chuck\LOCALS~1\Temp\ccAifzu1.s 			page 15


  15:./ros_lib/ros/node_handle.h ****  *    disclaimer in the documentation and/or other materials provided
  16:./ros_lib/ros/node_handle.h ****  *    with the distribution.
  17:./ros_lib/ros/node_handle.h ****  *  * Neither the name of Willow Garage, Inc. nor the names of its
  18:./ros_lib/ros/node_handle.h ****  *    contributors may be used to endorse or promote prducts derived
  19:./ros_lib/ros/node_handle.h ****  *    from this software without specific prior written permission.
  20:./ros_lib/ros/node_handle.h ****  *
  21:./ros_lib/ros/node_handle.h ****  * THIS SOFTWARE IS PROVIDED BY THE COPYRIGHT HOLDERS AND CONTRIBUTORS
  22:./ros_lib/ros/node_handle.h ****  * "AS IS" AND ANY EXPRESS OR IMPLIED WARRANTIES, INCLUDING, BUT NOT
  23:./ros_lib/ros/node_handle.h ****  * LIMITED TO, THE IMPLIED WARRANTIES OF MERCHANTABILITY AND FITNESS
  24:./ros_lib/ros/node_handle.h ****  * FOR A PARTICULAR PURPOSE ARE DISCLAIMED. IN NO EVENT SHALL THE
  25:./ros_lib/ros/node_handle.h ****  * COPYRIGHT OWNER OR CONTRIBUTORS BE LIABLE FOR ANY DIRECT, INDIRECT,
  26:./ros_lib/ros/node_handle.h ****  * INCIDENTAL, SPECIAL, EXEMPLARY, OR CONSEQUENTIAL DAMAGES (INCLUDING,
  27:./ros_lib/ros/node_handle.h ****  * BUT NOT LIMITED TO, PROCUREMENT OF SUBSTITUTE GOODS OR SERVICES;
  28:./ros_lib/ros/node_handle.h ****  * LOSS OF USE, DATA, OR PROFITS; OR BUSINESS INTERRUPTION) HOWEVER
  29:./ros_lib/ros/node_handle.h ****  * CAUSED AND ON ANY THEORY OF LIABILITY, WHETHER IN CONTRACT, STRICT
  30:./ros_lib/ros/node_handle.h ****  * LIABILITY, OR TORT (INCLUDING NEGLIGENCE OR OTHERWISE) ARISING IN
  31:./ros_lib/ros/node_handle.h ****  * ANY WAY OUT OF THE USE OF THIS SOFTWARE, EVEN IF ADVISED OF THE
  32:./ros_lib/ros/node_handle.h ****  * POSSIBILITY OF SUCH DAMAGE.
  33:./ros_lib/ros/node_handle.h ****  */
  34:./ros_lib/ros/node_handle.h **** 
  35:./ros_lib/ros/node_handle.h **** #ifndef ROS_NODE_HANDLE_H_
  36:./ros_lib/ros/node_handle.h **** #define ROS_NODE_HANDLE_H_
  37:./ros_lib/ros/node_handle.h **** 
  38:./ros_lib/ros/node_handle.h **** #ifndef PARAM_REQ_SUPPORT
  39:./ros_lib/ros/node_handle.h **** #define PARAM_REQ_SUPPORT 1
  40:./ros_lib/ros/node_handle.h **** #endif
  41:./ros_lib/ros/node_handle.h **** 
  42:./ros_lib/ros/node_handle.h **** #include "std_msgs/Time.h"
  43:./ros_lib/ros/node_handle.h **** #include "rosserial_msgs/TopicInfo.h"
  44:./ros_lib/ros/node_handle.h **** #include "rosserial_msgs/Log.h"
  45:./ros_lib/ros/node_handle.h **** #if PARAM_REQ_SUPPORT
  46:./ros_lib/ros/node_handle.h **** #include "rosserial_msgs/RequestParam.h"
  47:./ros_lib/ros/node_handle.h **** #endif
  48:./ros_lib/ros/node_handle.h **** 
  49:./ros_lib/ros/node_handle.h **** #define SYNC_SECONDS        2
  50:./ros_lib/ros/node_handle.h **** 
  51:./ros_lib/ros/node_handle.h **** #define MODE_FIRST_FF       0
  52:./ros_lib/ros/node_handle.h **** /*
  53:./ros_lib/ros/node_handle.h ****  * The second sync byte is a protocol version. It's value is 0xff for the first
  54:./ros_lib/ros/node_handle.h ****  * version of the rosserial protocol (used up to hydro), 0xfe for the second version
  55:./ros_lib/ros/node_handle.h ****  * (introduced in hydro), 0xfd for the next, and so on. Its purpose is to enable
  56:./ros_lib/ros/node_handle.h ****  * detection of mismatched protocol versions (e.g. hydro rosserial_python with groovy
  57:./ros_lib/ros/node_handle.h ****  * rosserial_arduino. It must be changed in both this file and in
  58:./ros_lib/ros/node_handle.h ****  * rosserial_python/src/rosserial_python/SerialClient.py
  59:./ros_lib/ros/node_handle.h ****  */
  60:./ros_lib/ros/node_handle.h **** #define MODE_PROTOCOL_VER   1
  61:./ros_lib/ros/node_handle.h **** #define PROTOCOL_VER1		0xff // through groovy
  62:./ros_lib/ros/node_handle.h **** #define PROTOCOL_VER2		0xfe // in hydro
  63:./ros_lib/ros/node_handle.h **** #define PROTOCOL_VER 		PROTOCOL_VER2
  64:./ros_lib/ros/node_handle.h **** #define MODE_SIZE_L         2   
  65:./ros_lib/ros/node_handle.h **** #define MODE_SIZE_H         3
  66:./ros_lib/ros/node_handle.h **** #define MODE_SIZE_CHECKSUM  4   // checksum for msg size received from size L and H
  67:./ros_lib/ros/node_handle.h **** #define MODE_TOPIC_L        5   // waiting for topic id
  68:./ros_lib/ros/node_handle.h **** #define MODE_TOPIC_H        6
  69:./ros_lib/ros/node_handle.h **** #define MODE_MESSAGE        7
  70:./ros_lib/ros/node_handle.h **** #define MODE_MSG_CHECKSUM   8   // checksum for msg and topic id 
  71:./ros_lib/ros/node_handle.h **** 
ARM GAS  C:\DOCUME~1\Chuck\LOCALS~1\Temp\ccAifzu1.s 			page 16


  72:./ros_lib/ros/node_handle.h **** 
  73:./ros_lib/ros/node_handle.h **** 
  74:./ros_lib/ros/node_handle.h **** #define MSG_TIMEOUT 200  // was 20 milliseconds to recieve all of message data
  75:./ros_lib/ros/node_handle.h **** 
  76:./ros_lib/ros/node_handle.h **** #include "msg.h"
  77:./ros_lib/ros/node_handle.h **** 
  78:./ros_lib/ros/node_handle.h **** namespace ros {
  79:./ros_lib/ros/node_handle.h **** 
  80:./ros_lib/ros/node_handle.h ****   class NodeHandleBase_{
  81:./ros_lib/ros/node_handle.h ****     public:
  82:./ros_lib/ros/node_handle.h ****       virtual int publish(int id, const Msg* msg)=0;
  83:./ros_lib/ros/node_handle.h ****       virtual int spinOnce()=0;
  84:./ros_lib/ros/node_handle.h ****       virtual bool connected()=0;
  85:./ros_lib/ros/node_handle.h ****     };
  86:./ros_lib/ros/node_handle.h **** }
  87:./ros_lib/ros/node_handle.h **** 
  88:./ros_lib/ros/node_handle.h **** #include "publisher.h"
  89:./ros_lib/ros/node_handle.h **** #include "subscriber.h"
  90:./ros_lib/ros/node_handle.h **** #include "service_server.h"
  91:./ros_lib/ros/node_handle.h **** #include "service_client.h"
  92:./ros_lib/ros/node_handle.h **** 
  93:./ros_lib/ros/node_handle.h **** namespace ros {
  94:./ros_lib/ros/node_handle.h **** 
  95:./ros_lib/ros/node_handle.h ****   /* Node Handle */
  96:./ros_lib/ros/node_handle.h ****   template<class Hardware,
  97:./ros_lib/ros/node_handle.h ****            int MAX_SUBSCRIBERS=25,
  98:./ros_lib/ros/node_handle.h ****            int MAX_PUBLISHERS=25,
  99:./ros_lib/ros/node_handle.h ****            int INPUT_SIZE=512,
 100:./ros_lib/ros/node_handle.h ****            int OUTPUT_SIZE=512>
 101:./ros_lib/ros/node_handle.h ****   class NodeHandle_ : public NodeHandleBase_
 102:./ros_lib/ros/node_handle.h ****   {
 103:./ros_lib/ros/node_handle.h ****     protected:
 104:./ros_lib/ros/node_handle.h ****       Hardware hardware_;
 105:./ros_lib/ros/node_handle.h **** 
 106:./ros_lib/ros/node_handle.h ****       /* time used for syncing */
 107:./ros_lib/ros/node_handle.h ****       unsigned long rt_time;
 108:./ros_lib/ros/node_handle.h **** 
 109:./ros_lib/ros/node_handle.h ****       /* used for computing current time */
 110:./ros_lib/ros/node_handle.h ****       unsigned long sec_offset, nsec_offset;
 111:./ros_lib/ros/node_handle.h **** 
 112:./ros_lib/ros/node_handle.h ****       unsigned char message_in[INPUT_SIZE];
 113:./ros_lib/ros/node_handle.h ****       unsigned char message_out[OUTPUT_SIZE];
 114:./ros_lib/ros/node_handle.h **** 
 115:./ros_lib/ros/node_handle.h ****       Publisher * publishers[MAX_PUBLISHERS];
 116:./ros_lib/ros/node_handle.h ****       Subscriber_ * subscribers[MAX_SUBSCRIBERS];
 117:./ros_lib/ros/node_handle.h **** 
 118:./ros_lib/ros/node_handle.h ****       /*
 119:./ros_lib/ros/node_handle.h ****        * Setup Functions
 120:./ros_lib/ros/node_handle.h ****        */
 121:./ros_lib/ros/node_handle.h ****     public:
 122:./ros_lib/ros/node_handle.h ****       NodeHandle_() : configured_(false) {}
 123:./ros_lib/ros/node_handle.h ****       
 124:./ros_lib/ros/node_handle.h ****       Hardware* getHardware(){
 125:./ros_lib/ros/node_handle.h ****         return &hardware_;
 126:./ros_lib/ros/node_handle.h ****       }
 127:./ros_lib/ros/node_handle.h **** 
 128:./ros_lib/ros/node_handle.h ****       /* Start serial, initialize buffers */
ARM GAS  C:\DOCUME~1\Chuck\LOCALS~1\Temp\ccAifzu1.s 			page 17


 129:./ros_lib/ros/node_handle.h ****       void initNode(){
 130:./ros_lib/ros/node_handle.h ****         hardware_.init();
 131:./ros_lib/ros/node_handle.h ****         mode_ = 0;
 132:./ros_lib/ros/node_handle.h ****         bytes_ = 0;
 133:./ros_lib/ros/node_handle.h ****         index_ = 0;
 134:./ros_lib/ros/node_handle.h ****         topic_ = 0;
 135:./ros_lib/ros/node_handle.h ****       };
 136:./ros_lib/ros/node_handle.h **** 
 137:./ros_lib/ros/node_handle.h ****       /* Start a named port, which may be network server IP, initialize buffers */
 138:./ros_lib/ros/node_handle.h ****       void initNode(char *portName){
 139:./ros_lib/ros/node_handle.h ****         hardware_.init(portName);
 140:./ros_lib/ros/node_handle.h ****         mode_ = 0;
 141:./ros_lib/ros/node_handle.h ****         bytes_ = 0;
 142:./ros_lib/ros/node_handle.h ****         index_ = 0;
 143:./ros_lib/ros/node_handle.h ****         topic_ = 0;
 144:./ros_lib/ros/node_handle.h ****       };
 145:./ros_lib/ros/node_handle.h **** 
 146:./ros_lib/ros/node_handle.h ****     protected:
 147:./ros_lib/ros/node_handle.h ****       //State machine variables for spinOnce
 148:./ros_lib/ros/node_handle.h ****       int mode_;
 149:./ros_lib/ros/node_handle.h ****       int bytes_;
 150:./ros_lib/ros/node_handle.h ****       int topic_;
 151:./ros_lib/ros/node_handle.h ****       int index_;
 152:./ros_lib/ros/node_handle.h ****       int checksum_;
 153:./ros_lib/ros/node_handle.h **** 
 154:./ros_lib/ros/node_handle.h ****       bool configured_;
 155:./ros_lib/ros/node_handle.h **** 
 156:./ros_lib/ros/node_handle.h ****       /* used for syncing the time */
 157:./ros_lib/ros/node_handle.h ****       unsigned long last_sync_time;
 158:./ros_lib/ros/node_handle.h ****       unsigned long last_sync_receive_time;
 159:./ros_lib/ros/node_handle.h ****       unsigned long last_msg_timeout_time;
 160:./ros_lib/ros/node_handle.h **** 
 161:./ros_lib/ros/node_handle.h ****     public:
 162:./ros_lib/ros/node_handle.h ****       /* This function goes in your loop() function, it handles
 163:./ros_lib/ros/node_handle.h ****        *  serial input and callbacks for subscribers.
 164:./ros_lib/ros/node_handle.h ****        */
 165:./ros_lib/ros/node_handle.h **** 
 166:./ros_lib/ros/node_handle.h **** 
 167:./ros_lib/ros/node_handle.h ****       virtual int spinOnce(){
 168:./ros_lib/ros/node_handle.h **** 
 169:./ros_lib/ros/node_handle.h ****         /* restart if timed out */
 170:./ros_lib/ros/node_handle.h ****         unsigned long c_time = hardware_.time();
 171:./ros_lib/ros/node_handle.h ****         if( (c_time - last_sync_receive_time) > (SYNC_SECONDS*1100) ){
 172:./ros_lib/ros/node_handle.h ****             configured_ = false;
 173:./ros_lib/ros/node_handle.h ****          }
 174:./ros_lib/ros/node_handle.h ****          
 175:./ros_lib/ros/node_handle.h ****         /* reset if message has timed out */
 176:./ros_lib/ros/node_handle.h ****         if ( mode_ != MODE_FIRST_FF){ 
 177:./ros_lib/ros/node_handle.h ****           if (c_time > last_msg_timeout_time){
 178:./ros_lib/ros/node_handle.h ****             mode_ = MODE_FIRST_FF;
 179:./ros_lib/ros/node_handle.h ****           }
 180:./ros_lib/ros/node_handle.h ****         }
 181:./ros_lib/ros/node_handle.h **** 
 182:./ros_lib/ros/node_handle.h ****         /* while available buffer, read data */
 183:./ros_lib/ros/node_handle.h ****         while( true )
 184:./ros_lib/ros/node_handle.h ****         {
 185:./ros_lib/ros/node_handle.h ****           int data = hardware_.read();
ARM GAS  C:\DOCUME~1\Chuck\LOCALS~1\Temp\ccAifzu1.s 			page 18


 186:./ros_lib/ros/node_handle.h ****           if( data < 0 )
 187:./ros_lib/ros/node_handle.h ****             break;
 188:./ros_lib/ros/node_handle.h ****           checksum_ += data;
 189:./ros_lib/ros/node_handle.h ****           if( mode_ == MODE_MESSAGE ){        /* message data being recieved */
 190:./ros_lib/ros/node_handle.h ****             message_in[index_++] = data;
 191:./ros_lib/ros/node_handle.h ****             bytes_--;
 192:./ros_lib/ros/node_handle.h ****             if(bytes_ == 0)                  /* is message complete? if so, checksum */
 193:./ros_lib/ros/node_handle.h ****               mode_ = MODE_MSG_CHECKSUM;
 194:./ros_lib/ros/node_handle.h ****           }else if( mode_ == MODE_FIRST_FF ){
 195:./ros_lib/ros/node_handle.h ****             if(data == 0xff){
 196:./ros_lib/ros/node_handle.h ****               mode_++;
 197:./ros_lib/ros/node_handle.h ****               last_msg_timeout_time = c_time + MSG_TIMEOUT;
 198:./ros_lib/ros/node_handle.h ****             }
 199:./ros_lib/ros/node_handle.h ****           }else if( mode_ == MODE_PROTOCOL_VER ){
 200:./ros_lib/ros/node_handle.h ****             if(data == PROTOCOL_VER){
 201:./ros_lib/ros/node_handle.h ****               mode_++;
 202:./ros_lib/ros/node_handle.h ****             }else{
 203:./ros_lib/ros/node_handle.h ****               mode_ = MODE_FIRST_FF;
 204:./ros_lib/ros/node_handle.h ****               if (configured_ == false) {
 205:./ros_lib/ros/node_handle.h ****                   requestSyncTime(); 	/* send a msg back showing our protocol version */
 206:./ros_lib/ros/node_handle.h ****               }
 207:./ros_lib/ros/node_handle.h ****             }
 208:./ros_lib/ros/node_handle.h **** 	  }else if( mode_ == MODE_SIZE_L ){   /* bottom half of message size */
 209:./ros_lib/ros/node_handle.h ****             bytes_ = data;
 210:./ros_lib/ros/node_handle.h ****             index_ = 0;
 211:./ros_lib/ros/node_handle.h ****             mode_++;
 212:./ros_lib/ros/node_handle.h ****             checksum_ = data;               /* first byte for calculating size checksum */
 213:./ros_lib/ros/node_handle.h ****           }else if( mode_ == MODE_SIZE_H ){   /* top half of message size */
 214:./ros_lib/ros/node_handle.h ****             bytes_ += data<<8;
 215:./ros_lib/ros/node_handle.h **** 	    mode_++;
 216:./ros_lib/ros/node_handle.h ****           }else if( mode_ == MODE_SIZE_CHECKSUM ){  
 217:./ros_lib/ros/node_handle.h ****             if( (checksum_%256) == 255)
 218:./ros_lib/ros/node_handle.h **** 	      mode_++;
 219:./ros_lib/ros/node_handle.h **** 	    else {
 220:./ros_lib/ros/node_handle.h **** 	      mode_ = MODE_FIRST_FF;          /* Abandon the frame if the msg len is wrong */
 221:./ros_lib/ros/node_handle.h ****             }
 222:./ros_lib/ros/node_handle.h **** 	  }else if( mode_ == MODE_TOPIC_L ){  /* bottom half of topic id */
 223:./ros_lib/ros/node_handle.h ****             topic_ = data;
 224:./ros_lib/ros/node_handle.h ****             mode_++;
 225:./ros_lib/ros/node_handle.h ****             checksum_ = data;               /* first byte included in checksum */
 226:./ros_lib/ros/node_handle.h ****           }else if( mode_ == MODE_TOPIC_H ){  /* top half of topic id */
 227:./ros_lib/ros/node_handle.h ****             topic_ += data<<8;
 228:./ros_lib/ros/node_handle.h ****             mode_ = MODE_MESSAGE;
 229:./ros_lib/ros/node_handle.h ****             if(bytes_ == 0)
 230:./ros_lib/ros/node_handle.h ****               mode_ = MODE_MSG_CHECKSUM;  
 231:./ros_lib/ros/node_handle.h ****           }else if( mode_ == MODE_MSG_CHECKSUM ){ /* do checksum */
 232:./ros_lib/ros/node_handle.h ****             mode_ = MODE_FIRST_FF;
 233:./ros_lib/ros/node_handle.h ****             if( (checksum_%256) == 255){
 234:./ros_lib/ros/node_handle.h ****               if(topic_ == rosserial_msgs::TopicInfo::ID_PUBLISHER){
 235:./ros_lib/ros/node_handle.h ****                 requestSyncTime();
 236:./ros_lib/ros/node_handle.h ****                 negotiateTopics();
 237:./ros_lib/ros/node_handle.h ****                 last_sync_time = c_time;
 238:./ros_lib/ros/node_handle.h ****                 last_sync_receive_time = c_time;
 239:./ros_lib/ros/node_handle.h ****                 return -1;
 240:./ros_lib/ros/node_handle.h ****               }else if(topic_ == rosserial_msgs::TopicInfo::ID_TIME){
 241:./ros_lib/ros/node_handle.h ****                 syncTime(message_in);
 242:./ros_lib/ros/node_handle.h ****               #if PARAM_REQ_SUPPORT
ARM GAS  C:\DOCUME~1\Chuck\LOCALS~1\Temp\ccAifzu1.s 			page 19


 243:./ros_lib/ros/node_handle.h ****               }else if (topic_ == rosserial_msgs::TopicInfo::ID_PARAMETER_REQUEST){
 244:./ros_lib/ros/node_handle.h ****                   req_param_resp.deserialize(message_in);
 245:./ros_lib/ros/node_handle.h ****                   param_recieved= true;
 246:./ros_lib/ros/node_handle.h ****               #endif
 247:./ros_lib/ros/node_handle.h ****               }else{
 248:./ros_lib/ros/node_handle.h ****                 if(subscribers[topic_-100])
 249:./ros_lib/ros/node_handle.h ****                   subscribers[topic_-100]->callback( message_in );
 250:./ros_lib/ros/node_handle.h ****               }
 251:./ros_lib/ros/node_handle.h ****             }
 252:./ros_lib/ros/node_handle.h ****           }
 253:./ros_lib/ros/node_handle.h ****         }
 254:./ros_lib/ros/node_handle.h **** 
 255:./ros_lib/ros/node_handle.h ****         /* occasionally sync time */
 256:./ros_lib/ros/node_handle.h ****         if( configured_ && ((c_time-last_sync_time) > (SYNC_SECONDS*500) )){
 257:./ros_lib/ros/node_handle.h ****           requestSyncTime();
 258:./ros_lib/ros/node_handle.h ****           last_sync_time = c_time;
 259:./ros_lib/ros/node_handle.h ****         }
 260:./ros_lib/ros/node_handle.h **** 
 261:./ros_lib/ros/node_handle.h ****         return 0;
 262:./ros_lib/ros/node_handle.h ****       }
 263:./ros_lib/ros/node_handle.h **** 
 264:./ros_lib/ros/node_handle.h **** 
 265:./ros_lib/ros/node_handle.h ****       /* Are we connected to the PC? */
 266:./ros_lib/ros/node_handle.h ****       virtual bool connected() {
 267:./ros_lib/ros/node_handle.h ****         return configured_;
 268:./ros_lib/ros/node_handle.h ****       };
 269:./ros_lib/ros/node_handle.h **** 
 270:./ros_lib/ros/node_handle.h ****       /********************************************************************
 271:./ros_lib/ros/node_handle.h ****        * Time functions
 272:./ros_lib/ros/node_handle.h ****        */
 273:./ros_lib/ros/node_handle.h **** 
 274:./ros_lib/ros/node_handle.h ****       void requestSyncTime()
 275:./ros_lib/ros/node_handle.h ****       {
 276:./ros_lib/ros/node_handle.h ****         std_msgs::Time t;
 277:./ros_lib/ros/node_handle.h ****         publish(rosserial_msgs::TopicInfo::ID_TIME, &t);
 278:./ros_lib/ros/node_handle.h ****         rt_time = hardware_.time();
 279:./ros_lib/ros/node_handle.h ****       }
 280:./ros_lib/ros/node_handle.h **** 
 281:./ros_lib/ros/node_handle.h ****       void syncTime( unsigned char * data )
 282:./ros_lib/ros/node_handle.h ****       {
 283:./ros_lib/ros/node_handle.h ****         std_msgs::Time t;
 284:./ros_lib/ros/node_handle.h ****         unsigned long offset = hardware_.time() - rt_time;
 285:./ros_lib/ros/node_handle.h **** 
 286:./ros_lib/ros/node_handle.h ****         t.deserialize(data);
 287:./ros_lib/ros/node_handle.h ****         t.data.sec += offset/1000;
 288:./ros_lib/ros/node_handle.h ****         t.data.nsec += (offset%1000)*1000000UL;
 289:./ros_lib/ros/node_handle.h **** 
 290:./ros_lib/ros/node_handle.h ****         this->setNow(t.data);
 291:./ros_lib/ros/node_handle.h ****         last_sync_receive_time = hardware_.time();
 292:./ros_lib/ros/node_handle.h ****       }
 293:./ros_lib/ros/node_handle.h **** 
 294:./ros_lib/ros/node_handle.h ****       Time now(){
 295:./ros_lib/ros/node_handle.h ****         unsigned long ms = hardware_.time();
 296:./ros_lib/ros/node_handle.h ****         Time current_time;
 297:./ros_lib/ros/node_handle.h ****         current_time.sec = ms/1000 + sec_offset;
 298:./ros_lib/ros/node_handle.h ****         current_time.nsec = (ms%1000)*1000000UL + nsec_offset;
 299:./ros_lib/ros/node_handle.h ****         normalizeSecNSec(current_time.sec, current_time.nsec);
ARM GAS  C:\DOCUME~1\Chuck\LOCALS~1\Temp\ccAifzu1.s 			page 20


 300:./ros_lib/ros/node_handle.h ****         return current_time;
 301:./ros_lib/ros/node_handle.h ****       }
 302:./ros_lib/ros/node_handle.h **** 
 303:./ros_lib/ros/node_handle.h ****       void setNow( Time & new_now )
 304:./ros_lib/ros/node_handle.h ****       {
 305:./ros_lib/ros/node_handle.h ****         unsigned long ms = hardware_.time();
 306:./ros_lib/ros/node_handle.h ****         sec_offset = new_now.sec - ms/1000 - 1;
 307:./ros_lib/ros/node_handle.h ****         nsec_offset = new_now.nsec - (ms%1000)*1000000UL + 1000000000UL;
 308:./ros_lib/ros/node_handle.h ****         normalizeSecNSec(sec_offset, nsec_offset);
 309:./ros_lib/ros/node_handle.h ****       }
 310:./ros_lib/ros/node_handle.h **** 
 311:./ros_lib/ros/node_handle.h ****       /********************************************************************
 312:./ros_lib/ros/node_handle.h ****        * Topic Management 
 313:./ros_lib/ros/node_handle.h ****        */
 314:./ros_lib/ros/node_handle.h **** 
 315:./ros_lib/ros/node_handle.h ****       /* Register a new publisher */    
 316:./ros_lib/ros/node_handle.h ****       bool advertise(Publisher & p)
 317:./ros_lib/ros/node_handle.h ****       {
 318:./ros_lib/ros/node_handle.h ****         for(int i = 0; i < MAX_PUBLISHERS; i++){
 319:./ros_lib/ros/node_handle.h ****           if(publishers[i] == 0){ // empty slot
 320:./ros_lib/ros/node_handle.h ****             publishers[i] = &p;
 321:./ros_lib/ros/node_handle.h ****             p.id_ = i+100+MAX_SUBSCRIBERS;
 322:./ros_lib/ros/node_handle.h ****             p.nh_ = this;
 323:./ros_lib/ros/node_handle.h ****             return true;
 324:./ros_lib/ros/node_handle.h ****           }
 325:./ros_lib/ros/node_handle.h ****         }
 326:./ros_lib/ros/node_handle.h ****         return false;
 327:./ros_lib/ros/node_handle.h ****       }
 328:./ros_lib/ros/node_handle.h **** 
 329:./ros_lib/ros/node_handle.h ****       /* Register a new subscriber */
 330:./ros_lib/ros/node_handle.h ****       template<typename MsgT>
 331:./ros_lib/ros/node_handle.h ****       bool subscribe(Subscriber< MsgT> & s){
 585              		.loc 5 331 0
 586              		.cfi_startproc
 587 0000 90B5     		push	{r4, r7, lr}
 588              	.LCFI31:
 589              		.cfi_def_cfa_offset 12
 590              		.cfi_offset 4, -12
 591              		.cfi_offset 7, -8
 592              		.cfi_offset 14, -4
 593 0002 85B0     		sub	sp, sp, #20
 594              	.LCFI32:
 595              		.cfi_def_cfa_offset 32
 596 0004 00AF     		add	r7, sp, #0
 597              	.LCFI33:
 598              		.cfi_def_cfa_register 7
 599 0006 7860     		str	r0, [r7, #4]
 600 0008 3960     		str	r1, [r7]
 601              	.LBB9:
 602              	.LBB10:
 332:./ros_lib/ros/node_handle.h ****         for(int i = 0; i < MAX_SUBSCRIBERS; i++){
 603              		.loc 5 332 0
 604 000a 0023     		mov	r3, #0
 605 000c FB60     		str	r3, [r7, #12]
 606 000e 16E0     		b	.L43
 607              	.L46:
 333:./ros_lib/ros/node_handle.h ****           if(subscribers[i] == 0){ // empty slot
ARM GAS  C:\DOCUME~1\Chuck\LOCALS~1\Temp\ccAifzu1.s 			page 21


 608              		.loc 5 333 0
 609 0010 7B68     		ldr	r3, [r7, #4]
 610 0012 FA68     		ldr	r2, [r7, #12]
 611 0014 7E32     		add	r2, r2, #126
 612 0016 9200     		lsl	r2, r2, #2
 613 0018 D358     		ldr	r3, [r2, r3]
 614 001a 002B     		cmp	r3, #0
 615 001c 0CD1     		bne	.L44
 334:./ros_lib/ros/node_handle.h ****             subscribers[i] = (Subscriber_*) &s;
 616              		.loc 5 334 0
 617 001e 3968     		ldr	r1, [r7]
 618 0020 7B68     		ldr	r3, [r7, #4]
 619 0022 FA68     		ldr	r2, [r7, #12]
 620 0024 7E32     		add	r2, r2, #126
 621 0026 9200     		lsl	r2, r2, #2
 622 0028 D150     		str	r1, [r2, r3]
 335:./ros_lib/ros/node_handle.h ****             s.id_ = i+100;
 623              		.loc 5 335 0
 624 002a FB68     		ldr	r3, [r7, #12]
 625 002c 1A1C     		mov	r2, r3
 626 002e 6432     		add	r2, r2, #100
 627 0030 3B68     		ldr	r3, [r7]
 628 0032 5A60     		str	r2, [r3, #4]
 336:./ros_lib/ros/node_handle.h ****             return true;
 629              		.loc 5 336 0
 630 0034 0123     		mov	r3, #1
 631 0036 0EE0     		b	.L45
 632              	.L44:
 332:./ros_lib/ros/node_handle.h ****         for(int i = 0; i < MAX_SUBSCRIBERS; i++){
 633              		.loc 5 332 0
 634 0038 FB68     		ldr	r3, [r7, #12]
 635 003a 0133     		add	r3, r3, #1
 636 003c FB60     		str	r3, [r7, #12]
 637              	.L43:
 332:./ros_lib/ros/node_handle.h ****         for(int i = 0; i < MAX_SUBSCRIBERS; i++){
 638              		.loc 5 332 0 is_stmt 0 discriminator 1
 639 003e FB68     		ldr	r3, [r7, #12]
 640 0040 0922     		mov	r2, #9
 641 0042 D80F     		lsr	r0, r3, #31
 642 0044 D117     		asr	r1, r2, #31
 643 0046 041C     		mov	r4, r0
 644 0048 9A42     		cmp	r2, r3
 645 004a 4C41     		adc	r4, r4, r1
 646 004c 231C     		mov	r3, r4
 647 004e DBB2     		uxtb	r3, r3
 648 0050 002B     		cmp	r3, #0
 649 0052 DDD1     		bne	.L46
 650              	.LBE10:
 337:./ros_lib/ros/node_handle.h ****           }
 338:./ros_lib/ros/node_handle.h ****         }
 339:./ros_lib/ros/node_handle.h ****         return false;
 651              		.loc 5 339 0 is_stmt 1
 652 0054 0023     		mov	r3, #0
 653              	.L45:
 654              	.LBE9:
 340:./ros_lib/ros/node_handle.h ****       }
 655              		.loc 5 340 0
ARM GAS  C:\DOCUME~1\Chuck\LOCALS~1\Temp\ccAifzu1.s 			page 22


 656 0056 181C     		mov	r0, r3
 657 0058 BD46     		mov	sp, r7
 658 005a 05B0     		add	sp, sp, #20
 659              		@ sp needed for prologue
 660 005c 90BD     		pop	{r4, r7, pc}
 661              		.cfi_endproc
 662              	.LFE157:
 663              		.size	_ZN3ros11NodeHandle_I13Psoc4HardwareLi10ELi20ELi200ELi200EE9subscribeIN8std_msgs6UInt16EEEbR
 664              		.weak	_ZTVN3ros10SubscriberIN8std_msgs6UInt16EEE
 665 005e C046     		.section	.rodata._ZTVN3ros10SubscriberIN8std_msgs6UInt16EEE,"aG",%progbits,_ZTVN3ros10SubscriberIN
 666              		.align	3
 667              		.type	_ZTVN3ros10SubscriberIN8std_msgs6UInt16EEE, %object
 668              		.size	_ZTVN3ros10SubscriberIN8std_msgs6UInt16EEE, 24
 669              	_ZTVN3ros10SubscriberIN8std_msgs6UInt16EEE:
 670 0000 00000000 		.word	0
 671 0004 00000000 		.word	0
 672 0008 00000000 		.word	_ZN3ros10SubscriberIN8std_msgs6UInt16EE8callbackEPh
 673 000c 00000000 		.word	_ZN3ros10SubscriberIN8std_msgs6UInt16EE15getEndpointTypeEv
 674 0010 00000000 		.word	_ZN3ros10SubscriberIN8std_msgs6UInt16EE10getMsgTypeEv
 675 0014 00000000 		.word	_ZN3ros10SubscriberIN8std_msgs6UInt16EE9getMsgMD5Ev
 676              		.weak	_ZTVN8std_msgs6UInt16E
 677              		.section	.rodata._ZTVN8std_msgs6UInt16E,"aG",%progbits,_ZTVN8std_msgs6UInt16E,comdat
 678              		.align	3
 679              		.type	_ZTVN8std_msgs6UInt16E, %object
 680              		.size	_ZTVN8std_msgs6UInt16E, 24
 681              	_ZTVN8std_msgs6UInt16E:
 682 0000 00000000 		.word	0
 683 0004 00000000 		.word	0
 684 0008 00000000 		.word	_ZNK8std_msgs6UInt169serializeEPh
 685 000c 00000000 		.word	_ZN8std_msgs6UInt1611deserializeEPh
 686 0010 00000000 		.word	_ZN8std_msgs6UInt167getTypeEv
 687 0014 00000000 		.word	_ZN8std_msgs6UInt166getMD5Ev
 688              		.weak	_ZTVN3ros11Subscriber_E
 689              		.section	.rodata._ZTVN3ros11Subscriber_E,"aG",%progbits,_ZTVN3ros11Subscriber_E,comdat
 690              		.align	3
 691              		.type	_ZTVN3ros11Subscriber_E, %object
 692              		.size	_ZTVN3ros11Subscriber_E, 24
 693              	_ZTVN3ros11Subscriber_E:
 694 0000 00000000 		.word	0
 695 0004 00000000 		.word	0
 696 0008 00000000 		.word	__cxa_pure_virtual
 697 000c 00000000 		.word	__cxa_pure_virtual
 698 0010 00000000 		.word	__cxa_pure_virtual
 699 0014 00000000 		.word	__cxa_pure_virtual
 700              		.weak	_ZTVN3ros3MsgE
 701              		.section	.rodata._ZTVN3ros3MsgE,"aG",%progbits,_ZTVN3ros3MsgE,comdat
 702              		.align	3
 703              		.type	_ZTVN3ros3MsgE, %object
 704              		.size	_ZTVN3ros3MsgE, 24
 705              	_ZTVN3ros3MsgE:
 706 0000 00000000 		.word	0
 707 0004 00000000 		.word	0
 708 0008 00000000 		.word	__cxa_pure_virtual
 709 000c 00000000 		.word	__cxa_pure_virtual
 710 0010 00000000 		.word	__cxa_pure_virtual
 711 0014 00000000 		.word	__cxa_pure_virtual
 712              		.section	.rodata
ARM GAS  C:\DOCUME~1\Chuck\LOCALS~1\Temp\ccAifzu1.s 			page 23


 713 0031 000000   		.align	2
 714              	.LC11:
 715 0034 73657276 		.ascii	"servo_us\000"
 715      6F5F7573 
 715      00
 716              		.section	.text._Z41__static_initialization_and_destruction_0ii,"ax",%progbits
 717              		.align	2
 718              		.code	16
 719              		.thumb_func
 720              		.type	_Z41__static_initialization_and_destruction_0ii, %function
 721              	_Z41__static_initialization_and_destruction_0ii:
 722              	.LFB158:
  37:.\ros_lib\examples\ServoControl/ServoControl.cpp **** 
  38:.\ros_lib\examples\ServoControl/ServoControl.cpp **** } // namespace
 723              		.loc 2 38 0
 724              		.cfi_startproc
 725 0000 80B5     		push	{r7, lr}
 726              	.LCFI34:
 727              		.cfi_def_cfa_offset 8
 728              		.cfi_offset 7, -8
 729              		.cfi_offset 14, -4
 730 0002 82B0     		sub	sp, sp, #8
 731              	.LCFI35:
 732              		.cfi_def_cfa_offset 16
 733 0004 00AF     		add	r7, sp, #0
 734              	.LCFI36:
 735              		.cfi_def_cfa_register 7
 736 0006 7860     		str	r0, [r7, #4]
 737 0008 3960     		str	r1, [r7]
 738              		.loc 2 38 0
 739 000a 7B68     		ldr	r3, [r7, #4]
 740 000c 012B     		cmp	r3, #1
 741 000e 0CD1     		bne	.L47
 742              		.loc 2 38 0 is_stmt 0 discriminator 1
 743 0010 3A68     		ldr	r2, [r7]
 744 0012 074B     		ldr	r3, .L49
 745 0014 9A42     		cmp	r2, r3
 746 0016 08D1     		bne	.L47
  27:.\ros_lib\examples\ServoControl/ServoControl.cpp **** ros::Subscriber<std_msgs::UInt16> sub("servo_us", servo_us_cb);
 747              		.loc 2 27 0 is_stmt 1
 748 0018 0649     		ldr	r1, .L49+4
 749 001a 074A     		ldr	r2, .L49+8
 750 001c 074B     		ldr	r3, .L49+12
 751 001e 081C     		mov	r0, r1
 752 0020 111C     		mov	r1, r2
 753 0022 1A1C     		mov	r2, r3
 754 0024 0123     		mov	r3, #1
 755 0026 FFF7FEFF 		bl	_ZN3ros10SubscriberIN8std_msgs6UInt16EEC1EPKcPFvRKS2_Ei
 756              	.L47:
 757              		.loc 2 38 0
 758 002a BD46     		mov	sp, r7
 759 002c 02B0     		add	sp, sp, #8
 760              		@ sp needed for prologue
 761 002e 80BD     		pop	{r7, pc}
 762              	.L50:
 763              		.align	2
 764              	.L49:
ARM GAS  C:\DOCUME~1\Chuck\LOCALS~1\Temp\ccAifzu1.s 			page 24


 765 0030 FFFF0000 		.word	65535
 766 0034 00000000 		.word	_ZN12ServoControl3subE
 767 0038 34000000 		.word	.LC11
 768 003c 00000000 		.word	_ZN12ServoControl11servo_us_cbERKN8std_msgs6UInt16E
 769              		.cfi_endproc
 770              	.LFE158:
 771              		.size	_Z41__static_initialization_and_destruction_0ii, .-_Z41__static_initialization_and_destructi
 772              		.section	.rodata
 773 003d 000000   		.align	2
 774              		.type	_ZN14rosserial_msgsL12REQUESTPARAME, %object
 775              		.size	_ZN14rosserial_msgsL12REQUESTPARAME, 28
 776              	_ZN14rosserial_msgsL12REQUESTPARAME:
 777 0040 726F7373 		.ascii	"rosserial_msgs/RequestParam\000"
 777      65726961 
 777      6C5F6D73 
 777      67732F52 
 777      65717565 
 778              		.section	.text._ZN3ros10SubscriberIN8std_msgs6UInt16EE8callbackEPh,"axG",%progbits,_ZN3ros10Subscr
 779              		.align	2
 780              		.weak	_ZN3ros10SubscriberIN8std_msgs6UInt16EE8callbackEPh
 781              		.code	16
 782              		.thumb_func
 783              		.type	_ZN3ros10SubscriberIN8std_msgs6UInt16EE8callbackEPh, %function
 784              	_ZN3ros10SubscriberIN8std_msgs6UInt16EE8callbackEPh:
 785              	.LFB159:
  71:./ros_lib/ros/subscriber.h ****       // callback with message pointer allows use of member-function callbacks
  72:./ros_lib/ros/subscriber.h ****       typedef void(*CallbackTPtr)(const MsgT*);
  73:./ros_lib/ros/subscriber.h ****       Subscriber(const char * topic_name, CallbackTPtr cbp, int endpoint=rosserial_msgs::TopicInfo:
  74:./ros_lib/ros/subscriber.h ****         cb_(NULL), cbp_(cbp),
  75:./ros_lib/ros/subscriber.h ****         endpoint_(endpoint)
  76:./ros_lib/ros/subscriber.h ****       {
  77:./ros_lib/ros/subscriber.h ****         topic_ = topic_name;
  78:./ros_lib/ros/subscriber.h ****       };
  79:./ros_lib/ros/subscriber.h ****       // uninitialized callback pointer
  80:./ros_lib/ros/subscriber.h ****       Subscriber(int endpoint=rosserial_msgs::TopicInfo::ID_SUBSCRIBER) :
  81:./ros_lib/ros/subscriber.h ****         cb_(NULL), cbp_(NULL),
  82:./ros_lib/ros/subscriber.h ****         endpoint_(endpoint)
  83:./ros_lib/ros/subscriber.h ****       {
  84:./ros_lib/ros/subscriber.h ****       };
  85:./ros_lib/ros/subscriber.h **** 
  86:./ros_lib/ros/subscriber.h ****       virtual void callback(unsigned char* data){
 786              		.loc 3 86 0
 787              		.cfi_startproc
 788 0000 80B5     		push	{r7, lr}
 789              	.LCFI37:
 790              		.cfi_def_cfa_offset 8
 791              		.cfi_offset 7, -8
 792              		.cfi_offset 14, -4
 793 0002 82B0     		sub	sp, sp, #8
 794              	.LCFI38:
 795              		.cfi_def_cfa_offset 16
 796 0004 00AF     		add	r7, sp, #0
 797              	.LCFI39:
 798              		.cfi_def_cfa_register 7
 799 0006 7860     		str	r0, [r7, #4]
 800 0008 3960     		str	r1, [r7]
  87:./ros_lib/ros/subscriber.h ****         msg.deserialize(data);
ARM GAS  C:\DOCUME~1\Chuck\LOCALS~1\Temp\ccAifzu1.s 			page 25


 801              		.loc 3 87 0
 802 000a 7B68     		ldr	r3, [r7, #4]
 803 000c 1A1C     		mov	r2, r3
 804 000e 0C32     		add	r2, r2, #12
 805 0010 3B68     		ldr	r3, [r7]
 806 0012 101C     		mov	r0, r2
 807 0014 191C     		mov	r1, r3
 808 0016 FFF7FEFF 		bl	_ZN8std_msgs6UInt1611deserializeEPh
  88:./ros_lib/ros/subscriber.h ****         if (cb_) {
 809              		.loc 3 88 0
 810 001a 7B68     		ldr	r3, [r7, #4]
 811 001c 5B69     		ldr	r3, [r3, #20]
 812 001e 002B     		cmp	r3, #0
 813 0020 06D0     		beq	.L52
  89:./ros_lib/ros/subscriber.h ****           this->cb_(msg);
 814              		.loc 3 89 0
 815 0022 7B68     		ldr	r3, [r7, #4]
 816 0024 5B69     		ldr	r3, [r3, #20]
 817 0026 7A68     		ldr	r2, [r7, #4]
 818 0028 0C32     		add	r2, r2, #12
 819 002a 101C     		mov	r0, r2
 820 002c 9847     		blx	r3
 821 002e 09E0     		b	.L51
 822              	.L52:
  90:./ros_lib/ros/subscriber.h ****         } else if (cbp_) {
 823              		.loc 3 90 0
 824 0030 7B68     		ldr	r3, [r7, #4]
 825 0032 9B69     		ldr	r3, [r3, #24]
 826 0034 002B     		cmp	r3, #0
 827 0036 05D0     		beq	.L51
  91:./ros_lib/ros/subscriber.h ****           this->cbp_(&msg);
 828              		.loc 3 91 0
 829 0038 7B68     		ldr	r3, [r7, #4]
 830 003a 9B69     		ldr	r3, [r3, #24]
 831 003c 7A68     		ldr	r2, [r7, #4]
 832 003e 0C32     		add	r2, r2, #12
 833 0040 101C     		mov	r0, r2
 834 0042 9847     		blx	r3
 835              	.L51:
  92:./ros_lib/ros/subscriber.h ****         }
  93:./ros_lib/ros/subscriber.h ****       }
 836              		.loc 3 93 0
 837 0044 BD46     		mov	sp, r7
 838 0046 02B0     		add	sp, sp, #8
 839              		@ sp needed for prologue
 840 0048 80BD     		pop	{r7, pc}
 841              		.cfi_endproc
 842              	.LFE159:
 843              		.size	_ZN3ros10SubscriberIN8std_msgs6UInt16EE8callbackEPh, .-_ZN3ros10SubscriberIN8std_msgs6UInt16
 844 004a C046     		.section	.text._ZN3ros10SubscriberIN8std_msgs6UInt16EE15getEndpointTypeEv,"axG",%progbits,_ZN3ros1
 845              		.align	2
 846              		.weak	_ZN3ros10SubscriberIN8std_msgs6UInt16EE15getEndpointTypeEv
 847              		.code	16
 848              		.thumb_func
 849              		.type	_ZN3ros10SubscriberIN8std_msgs6UInt16EE15getEndpointTypeEv, %function
 850              	_ZN3ros10SubscriberIN8std_msgs6UInt16EE15getEndpointTypeEv:
 851              	.LFB160:
ARM GAS  C:\DOCUME~1\Chuck\LOCALS~1\Temp\ccAifzu1.s 			page 26


  94:./ros_lib/ros/subscriber.h **** 
  95:./ros_lib/ros/subscriber.h ****       virtual const char * getMsgType(){ return this->msg.getType(); }
  96:./ros_lib/ros/subscriber.h ****       virtual const char * getMsgMD5(){ return this->msg.getMD5(); }
  97:./ros_lib/ros/subscriber.h ****       virtual int getEndpointType(){ return endpoint_; }
 852              		.loc 3 97 0
 853              		.cfi_startproc
 854 0000 80B5     		push	{r7, lr}
 855              	.LCFI40:
 856              		.cfi_def_cfa_offset 8
 857              		.cfi_offset 7, -8
 858              		.cfi_offset 14, -4
 859 0002 82B0     		sub	sp, sp, #8
 860              	.LCFI41:
 861              		.cfi_def_cfa_offset 16
 862 0004 00AF     		add	r7, sp, #0
 863              	.LCFI42:
 864              		.cfi_def_cfa_register 7
 865 0006 7860     		str	r0, [r7, #4]
 866              		.loc 3 97 0
 867 0008 7B68     		ldr	r3, [r7, #4]
 868 000a DB69     		ldr	r3, [r3, #28]
 869 000c 181C     		mov	r0, r3
 870 000e BD46     		mov	sp, r7
 871 0010 02B0     		add	sp, sp, #8
 872              		@ sp needed for prologue
 873 0012 80BD     		pop	{r7, pc}
 874              		.cfi_endproc
 875              	.LFE160:
 876              		.size	_ZN3ros10SubscriberIN8std_msgs6UInt16EE15getEndpointTypeEv, .-_ZN3ros10SubscriberIN8std_msgs
 877              		.section	.text._ZN3ros10SubscriberIN8std_msgs6UInt16EE10getMsgTypeEv,"axG",%progbits,_ZN3ros10Subs
 878              		.align	2
 879              		.weak	_ZN3ros10SubscriberIN8std_msgs6UInt16EE10getMsgTypeEv
 880              		.code	16
 881              		.thumb_func
 882              		.type	_ZN3ros10SubscriberIN8std_msgs6UInt16EE10getMsgTypeEv, %function
 883              	_ZN3ros10SubscriberIN8std_msgs6UInt16EE10getMsgTypeEv:
 884              	.LFB161:
  95:./ros_lib/ros/subscriber.h ****       virtual const char * getMsgType(){ return this->msg.getType(); }
 885              		.loc 3 95 0
 886              		.cfi_startproc
 887 0000 80B5     		push	{r7, lr}
 888              	.LCFI43:
 889              		.cfi_def_cfa_offset 8
 890              		.cfi_offset 7, -8
 891              		.cfi_offset 14, -4
 892 0002 82B0     		sub	sp, sp, #8
 893              	.LCFI44:
 894              		.cfi_def_cfa_offset 16
 895 0004 00AF     		add	r7, sp, #0
 896              	.LCFI45:
 897              		.cfi_def_cfa_register 7
 898 0006 7860     		str	r0, [r7, #4]
  95:./ros_lib/ros/subscriber.h ****       virtual const char * getMsgType(){ return this->msg.getType(); }
 899              		.loc 3 95 0
 900 0008 7B68     		ldr	r3, [r7, #4]
 901 000a 0C33     		add	r3, r3, #12
 902 000c 181C     		mov	r0, r3
ARM GAS  C:\DOCUME~1\Chuck\LOCALS~1\Temp\ccAifzu1.s 			page 27


 903 000e FFF7FEFF 		bl	_ZN8std_msgs6UInt167getTypeEv
 904 0012 031C     		mov	r3, r0
 905 0014 181C     		mov	r0, r3
 906 0016 BD46     		mov	sp, r7
 907 0018 02B0     		add	sp, sp, #8
 908              		@ sp needed for prologue
 909 001a 80BD     		pop	{r7, pc}
 910              		.cfi_endproc
 911              	.LFE161:
 912              		.size	_ZN3ros10SubscriberIN8std_msgs6UInt16EE10getMsgTypeEv, .-_ZN3ros10SubscriberIN8std_msgs6UInt
 913              		.section	.text._ZN3ros10SubscriberIN8std_msgs6UInt16EE9getMsgMD5Ev,"axG",%progbits,_ZN3ros10Subscr
 914              		.align	2
 915              		.weak	_ZN3ros10SubscriberIN8std_msgs6UInt16EE9getMsgMD5Ev
 916              		.code	16
 917              		.thumb_func
 918              		.type	_ZN3ros10SubscriberIN8std_msgs6UInt16EE9getMsgMD5Ev, %function
 919              	_ZN3ros10SubscriberIN8std_msgs6UInt16EE9getMsgMD5Ev:
 920              	.LFB162:
  96:./ros_lib/ros/subscriber.h ****       virtual const char * getMsgMD5(){ return this->msg.getMD5(); }
 921              		.loc 3 96 0
 922              		.cfi_startproc
 923 0000 80B5     		push	{r7, lr}
 924              	.LCFI46:
 925              		.cfi_def_cfa_offset 8
 926              		.cfi_offset 7, -8
 927              		.cfi_offset 14, -4
 928 0002 82B0     		sub	sp, sp, #8
 929              	.LCFI47:
 930              		.cfi_def_cfa_offset 16
 931 0004 00AF     		add	r7, sp, #0
 932              	.LCFI48:
 933              		.cfi_def_cfa_register 7
 934 0006 7860     		str	r0, [r7, #4]
  96:./ros_lib/ros/subscriber.h ****       virtual const char * getMsgMD5(){ return this->msg.getMD5(); }
 935              		.loc 3 96 0
 936 0008 7B68     		ldr	r3, [r7, #4]
 937 000a 0C33     		add	r3, r3, #12
 938 000c 181C     		mov	r0, r3
 939 000e FFF7FEFF 		bl	_ZN8std_msgs6UInt166getMD5Ev
 940 0012 031C     		mov	r3, r0
 941 0014 181C     		mov	r0, r3
 942 0016 BD46     		mov	sp, r7
 943 0018 02B0     		add	sp, sp, #8
 944              		@ sp needed for prologue
 945 001a 80BD     		pop	{r7, pc}
 946              		.cfi_endproc
 947              	.LFE162:
 948              		.size	_ZN3ros10SubscriberIN8std_msgs6UInt16EE9getMsgMD5Ev, .-_ZN3ros10SubscriberIN8std_msgs6UInt16
 949              		.section	.text._GLOBAL__sub_I__ZN12ServoControl11servo_us_cbERKN8std_msgs6UInt16E,"ax",%progbits
 950              		.align	2
 951              		.code	16
 952              		.thumb_func
 953              		.type	_GLOBAL__sub_I__ZN12ServoControl11servo_us_cbERKN8std_msgs6UInt16E, %function
 954              	_GLOBAL__sub_I__ZN12ServoControl11servo_us_cbERKN8std_msgs6UInt16E:
 955              	.LFB163:
 956              		.loc 2 38 0
 957              		.cfi_startproc
ARM GAS  C:\DOCUME~1\Chuck\LOCALS~1\Temp\ccAifzu1.s 			page 28


 958 0000 80B5     		push	{r7, lr}
 959              	.LCFI49:
 960              		.cfi_def_cfa_offset 8
 961              		.cfi_offset 7, -8
 962              		.cfi_offset 14, -4
 963 0002 00AF     		add	r7, sp, #0
 964              	.LCFI50:
 965              		.cfi_def_cfa_register 7
 966              		.loc 2 38 0
 967 0004 034B     		ldr	r3, .L61
 968 0006 0120     		mov	r0, #1
 969 0008 191C     		mov	r1, r3
 970 000a FFF7FEFF 		bl	_Z41__static_initialization_and_destruction_0ii
 971 000e BD46     		mov	sp, r7
 972              		@ sp needed for prologue
 973 0010 80BD     		pop	{r7, pc}
 974              	.L62:
 975 0012 C046     		.align	2
 976              	.L61:
 977 0014 FFFF0000 		.word	65535
 978              		.cfi_endproc
 979              	.LFE163:
 980              		.size	_GLOBAL__sub_I__ZN12ServoControl11servo_us_cbERKN8std_msgs6UInt16E, .-_GLOBAL__sub_I__ZN12Se
 981              		.section	.init_array,"aw",%init_array
 982              		.align	2
 983 0000 00000000 		.word	_GLOBAL__sub_I__ZN12ServoControl11servo_us_cbERKN8std_msgs6UInt16E(target1)
 984              		.text
 985              	.Letext0:
 986              		.file 6 "c:\\program files\\cypress\\psoc creator\\3.0\\psoc creator\\import\\gnu_cs\\arm\\4.7.3\\
 987              		.file 7 "./ros_lib/ros.h"
 988              		.file 8 "./ros_lib/Psoc4Hardware.h"
 989              		.file 9 "./ros_lib/rosserial_msgs/TopicInfo.h"
 990              		.file 10 "./ros_lib/std_msgs/Time.h"
 991              		.file 11 ".\\ros_lib\\examples\\ServoControl\\ServoControl.h"
 992              		.file 12 "./ros_lib/rosserial_msgs/RequestParam.h"
 993              		.file 13 "./ros_lib/Uarts.h"