ARM GAS  C:\DOCUME~1\Chuck\LOCALS~1\Temp\cc9ZFrOQ.s 			page 1


   1              		.cpu cortex-m0
   2              		.fpu softvfp
   3              		.eabi_attribute 20, 1
   4              		.eabi_attribute 21, 1
   5              		.eabi_attribute 23, 3
   6              		.eabi_attribute 24, 1
   7              		.eabi_attribute 25, 1
   8              		.eabi_attribute 26, 1
   9              		.eabi_attribute 30, 6
  10              		.eabi_attribute 34, 0
  11              		.eabi_attribute 18, 4
  12              		.code	16
  13              		.file	"StepperControl.cpp"
  14              		.text
  15              	.Ltext0:
  16              		.cfi_sections	.debug_frame
  17              		.section	.text._ZN8SysTimer6millisEv,"axG",%progbits,_ZN8SysTimer6millisEv,comdat
  18              		.align	2
  19              		.weak	_ZN8SysTimer6millisEv
  20              		.code	16
  21              		.thumb_func
  22              		.type	_ZN8SysTimer6millisEv, %function
  23              	_ZN8SysTimer6millisEv:
  24              	.LFB89:
  25              		.file 1 "./ros_lib/SysTimer.h"
   1:./ros_lib/SysTimer.h **** /* ========================================
   2:./ros_lib/SysTimer.h ****  *
   3:./ros_lib/SysTimer.h ****  * The following firmware was developed by Chuck Harrison
   4:./ros_lib/SysTimer.h ****  * This work is licensed under a Creative Commons Attribution 3.0 Unported License.
   5:./ros_lib/SysTimer.h ****  * 
   6:./ros_lib/SysTimer.h ****  * http://creativecommons.org/licenses/by/3.0/deed.en_US
   7:./ros_lib/SysTimer.h ****  * 
   8:./ros_lib/SysTimer.h ****  * You are free to:
   9:./ros_lib/SysTimer.h ****  * -To Share — to copy, distribute and transmit the work 
  10:./ros_lib/SysTimer.h ****  * -To Remix — to adapt the work 
  11:./ros_lib/SysTimer.h ****  * -To make commercial use of the work
  12:./ros_lib/SysTimer.h ****  *
  13:./ros_lib/SysTimer.h ****  * ========================================
  14:./ros_lib/SysTimer.h ****  */
  15:./ros_lib/SysTimer.h **** 
  16:./ros_lib/SysTimer.h **** #ifndef ROS_SYSTIMER_H_
  17:./ros_lib/SysTimer.h **** #define ROS_SYSTIMER_H_
  18:./ros_lib/SysTimer.h **** 
  19:./ros_lib/SysTimer.h **** typedef void (* cyisraddress)(void); // should we #include the whole cytypes.h?
  20:./ros_lib/SysTimer.h **** #define CY_ISR(FuncName)        void FuncName (void)
  21:./ros_lib/SysTimer.h **** 
  22:./ros_lib/SysTimer.h **** extern "C" {
  23:./ros_lib/SysTimer.h **** cyisraddress CyIntSetSysVector(uint8_t number, cyisraddress address);
  24:./ros_lib/SysTimer.h **** }
  25:./ros_lib/SysTimer.h **** 
  26:./ros_lib/SysTimer.h **** CY_ISR(SysTick_ISR); //forward declaration for SysTimer::init()
  27:./ros_lib/SysTimer.h **** 
  28:./ros_lib/SysTimer.h **** #define SYSTICK_INTERRUPT_VECTOR_NUMBER 15u /* Cortex-M0 hard vector */
  29:./ros_lib/SysTimer.h **** 
  30:./ros_lib/SysTimer.h **** /* clock and interrupt rates, in Hz */
  31:./ros_lib/SysTimer.h **** #define CLOCK_FREQ     24000000u
  32:./ros_lib/SysTimer.h **** #define INTERRUPT_FREQ 1000u
ARM GAS  C:\DOCUME~1\Chuck\LOCALS~1\Temp\cc9ZFrOQ.s 			page 2


  33:./ros_lib/SysTimer.h **** 
  34:./ros_lib/SysTimer.h **** 
  35:./ros_lib/SysTimer.h **** class SysTimer
  36:./ros_lib/SysTimer.h **** {
  37:./ros_lib/SysTimer.h ****   public:
  38:./ros_lib/SysTimer.h ****     static void init() {
  39:./ros_lib/SysTimer.h ****       CyIntSetSysVector(SYSTICK_INTERRUPT_VECTOR_NUMBER, SysTick_ISR);
  40:./ros_lib/SysTimer.h ****       // must eventually do this:
  41:./ros_lib/SysTimer.h ****       //  SysTick_Config(CLOCK_FREQ / INTERRUPT_FREQ); /* defined in auto-generated core_cm0.h */
  42:./ros_lib/SysTimer.h ****       //  CyGlobalIntEnable;
  43:./ros_lib/SysTimer.h ****       millis_ = 0;
  44:./ros_lib/SysTimer.h ****     };
  45:./ros_lib/SysTimer.h ****     static uint32_t millis() { return millis_; };
  26              		.loc 1 45 0
  27              		.cfi_startproc
  28 0000 80B5     		push	{r7, lr}
  29              	.LCFI0:
  30              		.cfi_def_cfa_offset 8
  31              		.cfi_offset 7, -8
  32              		.cfi_offset 14, -4
  33 0002 00AF     		add	r7, sp, #0
  34              	.LCFI1:
  35              		.cfi_def_cfa_register 7
  36              		.loc 1 45 0
  37 0004 024B     		ldr	r3, .L3
  38 0006 1B68     		ldr	r3, [r3]
  39 0008 181C     		mov	r0, r3
  40 000a BD46     		mov	sp, r7
  41              		@ sp needed for prologue
  42 000c 80BD     		pop	{r7, pc}
  43              	.L4:
  44 000e C046     		.align	2
  45              	.L3:
  46 0010 00000000 		.word	_ZN8SysTimer7millis_E
  47              		.cfi_endproc
  48              	.LFE89:
  49              		.size	_ZN8SysTimer6millisEv, .-_ZN8SysTimer6millisEv
  50              		.section	.text._ZNK8std_msgs5Int169serializeEPh,"axG",%progbits,_ZNK8std_msgs5Int169serializeEPh,c
  51              		.align	2
  52              		.weak	_ZNK8std_msgs5Int169serializeEPh
  53              		.code	16
  54              		.thumb_func
  55              		.type	_ZNK8std_msgs5Int169serializeEPh, %function
  56              	_ZNK8std_msgs5Int169serializeEPh:
  57              	.LFB105:
  58              		.file 2 "./ros_lib/std_msgs/Int16.h"
   1:./ros_lib/std_msgs/Int16.h **** #ifndef _ROS_std_msgs_Int16_h
   2:./ros_lib/std_msgs/Int16.h **** #define _ROS_std_msgs_Int16_h
   3:./ros_lib/std_msgs/Int16.h **** 
   4:./ros_lib/std_msgs/Int16.h **** #include <stdint.h>
   5:./ros_lib/std_msgs/Int16.h **** #include <string.h>
   6:./ros_lib/std_msgs/Int16.h **** #include <stdlib.h>
   7:./ros_lib/std_msgs/Int16.h **** #include "ros/msg.h"
   8:./ros_lib/std_msgs/Int16.h **** 
   9:./ros_lib/std_msgs/Int16.h **** namespace std_msgs
  10:./ros_lib/std_msgs/Int16.h **** {
  11:./ros_lib/std_msgs/Int16.h **** 
ARM GAS  C:\DOCUME~1\Chuck\LOCALS~1\Temp\cc9ZFrOQ.s 			page 3


  12:./ros_lib/std_msgs/Int16.h ****   class Int16 : public ros::Msg
  13:./ros_lib/std_msgs/Int16.h ****   {
  14:./ros_lib/std_msgs/Int16.h ****     public:
  15:./ros_lib/std_msgs/Int16.h ****       int16_t data;
  16:./ros_lib/std_msgs/Int16.h **** 
  17:./ros_lib/std_msgs/Int16.h ****     virtual int serialize(unsigned char *outbuffer) const
  59              		.loc 2 17 0
  60              		.cfi_startproc
  61 0000 80B5     		push	{r7, lr}
  62              	.LCFI2:
  63              		.cfi_def_cfa_offset 8
  64              		.cfi_offset 7, -8
  65              		.cfi_offset 14, -4
  66 0002 84B0     		sub	sp, sp, #16
  67              	.LCFI3:
  68              		.cfi_def_cfa_offset 24
  69 0004 00AF     		add	r7, sp, #0
  70              	.LCFI4:
  71              		.cfi_def_cfa_register 7
  72 0006 7860     		str	r0, [r7, #4]
  73 0008 3960     		str	r1, [r7]
  74              	.LBB2:
  18:./ros_lib/std_msgs/Int16.h ****     {
  19:./ros_lib/std_msgs/Int16.h ****       int offset = 0;
  75              		.loc 2 19 0
  76 000a 0023     		mov	r3, #0
  77 000c FB60     		str	r3, [r7, #12]
  20:./ros_lib/std_msgs/Int16.h **** #ifndef ROS_MSG_DONT_SERIALIZE
  21:./ros_lib/std_msgs/Int16.h ****       union {
  22:./ros_lib/std_msgs/Int16.h ****         int16_t real;
  23:./ros_lib/std_msgs/Int16.h ****         uint16_t base;
  24:./ros_lib/std_msgs/Int16.h ****       } u_data;
  25:./ros_lib/std_msgs/Int16.h ****       u_data.real = this->data;
  78              		.loc 2 25 0
  79 000e 7B68     		ldr	r3, [r7, #4]
  80 0010 9A88     		ldrh	r2, [r3, #4]
  81 0012 3B1C     		mov	r3, r7
  82 0014 0833     		add	r3, r3, #8
  83 0016 1A80     		strh	r2, [r3]
  26:./ros_lib/std_msgs/Int16.h ****       *(outbuffer + offset + 0) = (u_data.base >> (8 * 0)) & 0xFF;
  84              		.loc 2 26 0
  85 0018 FB68     		ldr	r3, [r7, #12]
  86 001a 3A68     		ldr	r2, [r7]
  87 001c D318     		add	r3, r2, r3
  88 001e 3A1C     		mov	r2, r7
  89 0020 0832     		add	r2, r2, #8
  90 0022 1288     		ldrh	r2, [r2]
  91 0024 D2B2     		uxtb	r2, r2
  92 0026 1A70     		strb	r2, [r3]
  27:./ros_lib/std_msgs/Int16.h ****       *(outbuffer + offset + 1) = (u_data.base >> (8 * 1)) & 0xFF;
  93              		.loc 2 27 0
  94 0028 FB68     		ldr	r3, [r7, #12]
  95 002a 0133     		add	r3, r3, #1
  96 002c 3A68     		ldr	r2, [r7]
  97 002e D318     		add	r3, r2, r3
  98 0030 3A1C     		mov	r2, r7
  99 0032 0832     		add	r2, r2, #8
ARM GAS  C:\DOCUME~1\Chuck\LOCALS~1\Temp\cc9ZFrOQ.s 			page 4


 100 0034 1288     		ldrh	r2, [r2]
 101 0036 120A     		lsr	r2, r2, #8
 102 0038 92B2     		uxth	r2, r2
 103 003a D2B2     		uxtb	r2, r2
 104 003c 1A70     		strb	r2, [r3]
  28:./ros_lib/std_msgs/Int16.h ****       offset += sizeof(this->data);
 105              		.loc 2 28 0
 106 003e FB68     		ldr	r3, [r7, #12]
 107 0040 0233     		add	r3, r3, #2
 108 0042 FB60     		str	r3, [r7, #12]
  29:./ros_lib/std_msgs/Int16.h **** #endif
  30:./ros_lib/std_msgs/Int16.h ****       return offset;
 109              		.loc 2 30 0
 110 0044 FB68     		ldr	r3, [r7, #12]
 111              	.LBE2:
  31:./ros_lib/std_msgs/Int16.h ****     }
 112              		.loc 2 31 0
 113 0046 181C     		mov	r0, r3
 114 0048 BD46     		mov	sp, r7
 115 004a 04B0     		add	sp, sp, #16
 116              		@ sp needed for prologue
 117 004c 80BD     		pop	{r7, pc}
 118              		.cfi_endproc
 119              	.LFE105:
 120              		.size	_ZNK8std_msgs5Int169serializeEPh, .-_ZNK8std_msgs5Int169serializeEPh
 121 004e C046     		.section	.text._ZN8std_msgs5Int1611deserializeEPh,"axG",%progbits,_ZN8std_msgs5Int1611deserializeE
 122              		.align	2
 123              		.weak	_ZN8std_msgs5Int1611deserializeEPh
 124              		.code	16
 125              		.thumb_func
 126              		.type	_ZN8std_msgs5Int1611deserializeEPh, %function
 127              	_ZN8std_msgs5Int1611deserializeEPh:
 128              	.LFB106:
  32:./ros_lib/std_msgs/Int16.h **** 
  33:./ros_lib/std_msgs/Int16.h ****     virtual int deserialize(unsigned char *inbuffer)
 129              		.loc 2 33 0
 130              		.cfi_startproc
 131 0000 80B5     		push	{r7, lr}
 132              	.LCFI5:
 133              		.cfi_def_cfa_offset 8
 134              		.cfi_offset 7, -8
 135              		.cfi_offset 14, -4
 136 0002 84B0     		sub	sp, sp, #16
 137              	.LCFI6:
 138              		.cfi_def_cfa_offset 24
 139 0004 00AF     		add	r7, sp, #0
 140              	.LCFI7:
 141              		.cfi_def_cfa_register 7
 142 0006 7860     		str	r0, [r7, #4]
 143 0008 3960     		str	r1, [r7]
 144              	.LBB3:
  34:./ros_lib/std_msgs/Int16.h ****     {
  35:./ros_lib/std_msgs/Int16.h ****       int offset = 0;
 145              		.loc 2 35 0
 146 000a 0023     		mov	r3, #0
 147 000c FB60     		str	r3, [r7, #12]
  36:./ros_lib/std_msgs/Int16.h **** #ifndef ROS_MSG_DONT_DESERIALIZE
ARM GAS  C:\DOCUME~1\Chuck\LOCALS~1\Temp\cc9ZFrOQ.s 			page 5


  37:./ros_lib/std_msgs/Int16.h ****       union {
  38:./ros_lib/std_msgs/Int16.h ****         int16_t real;
  39:./ros_lib/std_msgs/Int16.h ****         uint16_t base;
  40:./ros_lib/std_msgs/Int16.h ****       } u_data;
  41:./ros_lib/std_msgs/Int16.h ****       u_data.base = 0;
 148              		.loc 2 41 0
 149 000e 3B1C     		mov	r3, r7
 150 0010 0833     		add	r3, r3, #8
 151 0012 0022     		mov	r2, #0
 152 0014 1A80     		strh	r2, [r3]
  42:./ros_lib/std_msgs/Int16.h ****       u_data.base |= ((uint16_t) (*(inbuffer + offset + 0))) << (8 * 0);
 153              		.loc 2 42 0
 154 0016 3B1C     		mov	r3, r7
 155 0018 0833     		add	r3, r3, #8
 156 001a 1A88     		ldrh	r2, [r3]
 157 001c FB68     		ldr	r3, [r7, #12]
 158 001e 3968     		ldr	r1, [r7]
 159 0020 CB18     		add	r3, r1, r3
 160 0022 1B78     		ldrb	r3, [r3]
 161 0024 1343     		orr	r3, r2
 162 0026 9AB2     		uxth	r2, r3
 163 0028 3B1C     		mov	r3, r7
 164 002a 0833     		add	r3, r3, #8
 165 002c 1A80     		strh	r2, [r3]
  43:./ros_lib/std_msgs/Int16.h ****       u_data.base |= ((uint16_t) (*(inbuffer + offset + 1))) << (8 * 1);
 166              		.loc 2 43 0
 167 002e 3B1C     		mov	r3, r7
 168 0030 0833     		add	r3, r3, #8
 169 0032 1B88     		ldrh	r3, [r3]
 170 0034 9AB2     		uxth	r2, r3
 171 0036 FB68     		ldr	r3, [r7, #12]
 172 0038 0133     		add	r3, r3, #1
 173 003a 3968     		ldr	r1, [r7]
 174 003c CB18     		add	r3, r1, r3
 175 003e 1B78     		ldrb	r3, [r3]
 176 0040 1B02     		lsl	r3, r3, #8
 177 0042 9BB2     		uxth	r3, r3
 178 0044 1343     		orr	r3, r2
 179 0046 9BB2     		uxth	r3, r3
 180 0048 9AB2     		uxth	r2, r3
 181 004a 3B1C     		mov	r3, r7
 182 004c 0833     		add	r3, r3, #8
 183 004e 1A80     		strh	r2, [r3]
  44:./ros_lib/std_msgs/Int16.h ****       this->data = u_data.real;
 184              		.loc 2 44 0
 185 0050 3B1C     		mov	r3, r7
 186 0052 0833     		add	r3, r3, #8
 187 0054 1A88     		ldrh	r2, [r3]
 188 0056 7B68     		ldr	r3, [r7, #4]
 189 0058 9A80     		strh	r2, [r3, #4]
  45:./ros_lib/std_msgs/Int16.h ****       offset += sizeof(this->data);
 190              		.loc 2 45 0
 191 005a FB68     		ldr	r3, [r7, #12]
 192 005c 0233     		add	r3, r3, #2
 193 005e FB60     		str	r3, [r7, #12]
  46:./ros_lib/std_msgs/Int16.h **** #endif
  47:./ros_lib/std_msgs/Int16.h ****      return offset;
ARM GAS  C:\DOCUME~1\Chuck\LOCALS~1\Temp\cc9ZFrOQ.s 			page 6


 194              		.loc 2 47 0
 195 0060 FB68     		ldr	r3, [r7, #12]
 196              	.LBE3:
  48:./ros_lib/std_msgs/Int16.h ****     }
 197              		.loc 2 48 0
 198 0062 181C     		mov	r0, r3
 199 0064 BD46     		mov	sp, r7
 200 0066 04B0     		add	sp, sp, #16
 201              		@ sp needed for prologue
 202 0068 80BD     		pop	{r7, pc}
 203              		.cfi_endproc
 204              	.LFE106:
 205              		.size	_ZN8std_msgs5Int1611deserializeEPh, .-_ZN8std_msgs5Int1611deserializeEPh
 206 006a C046     		.section	.rodata
 207              		.align	2
 208              	.LC1:
 209 0000 7374645F 		.ascii	"std_msgs/Int16\000"
 209      6D736773 
 209      2F496E74 
 209      313600
 210              		.section	.text._ZN8std_msgs5Int167getTypeEv,"axG",%progbits,_ZN8std_msgs5Int167getTypeEv,comdat
 211              		.align	2
 212              		.weak	_ZN8std_msgs5Int167getTypeEv
 213              		.code	16
 214              		.thumb_func
 215              		.type	_ZN8std_msgs5Int167getTypeEv, %function
 216              	_ZN8std_msgs5Int167getTypeEv:
 217              	.LFB107:
  49:./ros_lib/std_msgs/Int16.h **** 
  50:./ros_lib/std_msgs/Int16.h ****     const char * getType(){ return "std_msgs/Int16"; };
 218              		.loc 2 50 0
 219              		.cfi_startproc
 220 0000 80B5     		push	{r7, lr}
 221              	.LCFI8:
 222              		.cfi_def_cfa_offset 8
 223              		.cfi_offset 7, -8
 224              		.cfi_offset 14, -4
 225 0002 82B0     		sub	sp, sp, #8
 226              	.LCFI9:
 227              		.cfi_def_cfa_offset 16
 228 0004 00AF     		add	r7, sp, #0
 229              	.LCFI10:
 230              		.cfi_def_cfa_register 7
 231 0006 7860     		str	r0, [r7, #4]
 232              		.loc 2 50 0
 233 0008 024B     		ldr	r3, .L11
 234 000a 181C     		mov	r0, r3
 235 000c BD46     		mov	sp, r7
 236 000e 02B0     		add	sp, sp, #8
 237              		@ sp needed for prologue
 238 0010 80BD     		pop	{r7, pc}
 239              	.L12:
 240 0012 C046     		.align	2
 241              	.L11:
 242 0014 00000000 		.word	.LC1
 243              		.cfi_endproc
 244              	.LFE107:
ARM GAS  C:\DOCUME~1\Chuck\LOCALS~1\Temp\cc9ZFrOQ.s 			page 7


 245              		.size	_ZN8std_msgs5Int167getTypeEv, .-_ZN8std_msgs5Int167getTypeEv
 246              		.section	.rodata
 247 000f 00       		.align	2
 248              	.LC3:
 249 0010 38353234 		.ascii	"8524586e34fbd7cb1c08c5f5f1ca0e57\000"
 249      35383665 
 249      33346662 
 249      64376362 
 249      31633038 
 250              		.section	.text._ZN8std_msgs5Int166getMD5Ev,"axG",%progbits,_ZN8std_msgs5Int166getMD5Ev,comdat
 251              		.align	2
 252              		.weak	_ZN8std_msgs5Int166getMD5Ev
 253              		.code	16
 254              		.thumb_func
 255              		.type	_ZN8std_msgs5Int166getMD5Ev, %function
 256              	_ZN8std_msgs5Int166getMD5Ev:
 257              	.LFB108:
  51:./ros_lib/std_msgs/Int16.h ****     const char * getMD5(){ return "8524586e34fbd7cb1c08c5f5f1ca0e57"; };
 258              		.loc 2 51 0
 259              		.cfi_startproc
 260 0000 80B5     		push	{r7, lr}
 261              	.LCFI11:
 262              		.cfi_def_cfa_offset 8
 263              		.cfi_offset 7, -8
 264              		.cfi_offset 14, -4
 265 0002 82B0     		sub	sp, sp, #8
 266              	.LCFI12:
 267              		.cfi_def_cfa_offset 16
 268 0004 00AF     		add	r7, sp, #0
 269              	.LCFI13:
 270              		.cfi_def_cfa_register 7
 271 0006 7860     		str	r0, [r7, #4]
 272              		.loc 2 51 0
 273 0008 024B     		ldr	r3, .L15
 274 000a 181C     		mov	r0, r3
 275 000c BD46     		mov	sp, r7
 276 000e 02B0     		add	sp, sp, #8
 277              		@ sp needed for prologue
 278 0010 80BD     		pop	{r7, pc}
 279              	.L16:
 280 0012 C046     		.align	2
 281              	.L15:
 282 0014 10000000 		.word	.LC3
 283              		.cfi_endproc
 284              	.LFE108:
 285              		.size	_ZN8std_msgs5Int166getMD5Ev, .-_ZN8std_msgs5Int166getMD5Ev
 286              		.global	_ZN14StepperControl15steps_remainingE
 287              		.bss
 288              		.align	1
 289              		.type	_ZN14StepperControl15steps_remainingE, %object
 290              		.size	_ZN14StepperControl15steps_remainingE, 2
 291              	_ZN14StepperControl15steps_remainingE:
 292 0000 0000     		.space	2
 293              		.global	_ZN14StepperControl9next_timeE
 294 0002 0000     		.align	2
 295              		.type	_ZN14StepperControl9next_timeE, %object
 296              		.size	_ZN14StepperControl9next_timeE, 4
ARM GAS  C:\DOCUME~1\Chuck\LOCALS~1\Temp\cc9ZFrOQ.s 			page 8


 297              	_ZN14StepperControl9next_timeE:
 298 0004 00000000 		.space	4
 299              		.section	.text._ZN14StepperControl9messageCbERKN8std_msgs5Int16E,"ax",%progbits
 300              		.align	2
 301              		.global	_ZN14StepperControl9messageCbERKN8std_msgs5Int16E
 302              		.code	16
 303              		.thumb_func
 304              		.type	_ZN14StepperControl9messageCbERKN8std_msgs5Int16E, %function
 305              	_ZN14StepperControl9messageCbERKN8std_msgs5Int16E:
 306              	.LFB142:
 307              		.file 3 ".\\ros_lib\\examples\\StepperControl\\StepperControl.cpp"
   1:.\ros_lib\examples\StepperControl/StepperControl.cpp **** /* 
   2:.\ros_lib\examples\StepperControl/StepperControl.cpp ****  * rosserial Subscriber Example
   3:.\ros_lib\examples\StepperControl/StepperControl.cpp ****  * Move stepper motor PSoC4 "RosOnAStick"
   4:.\ros_lib\examples\StepperControl/StepperControl.cpp ****  *
   5:.\ros_lib\examples\StepperControl/StepperControl.cpp ****  * Copyright C. Harrison
   6:.\ros_lib\examples\StepperControl/StepperControl.cpp ****  * BSD 2-clause license http://opensource.org/licenses/BSD-2-Clause
   7:.\ros_lib\examples\StepperControl/StepperControl.cpp ****  *
   8:.\ros_lib\examples\StepperControl/StepperControl.cpp ****  */
   9:.\ros_lib\examples\StepperControl/StepperControl.cpp ****  
  10:.\ros_lib\examples\StepperControl/StepperControl.cpp **** #include <ros.h>
  11:.\ros_lib\examples\StepperControl/StepperControl.cpp **** #include <std_msgs/Int16.h>
  12:.\ros_lib\examples\StepperControl/StepperControl.cpp **** #include "StepperControl.h"
  13:.\ros_lib\examples\StepperControl/StepperControl.cpp **** 
  14:.\ros_lib\examples\StepperControl/StepperControl.cpp **** extern ros::NodeHandle  nh;
  15:.\ros_lib\examples\StepperControl/StepperControl.cpp **** 
  16:.\ros_lib\examples\StepperControl/StepperControl.cpp **** namespace StepperControl {
  17:.\ros_lib\examples\StepperControl/StepperControl.cpp **** 
  18:.\ros_lib\examples\StepperControl/StepperControl.cpp **** const uint8_t msec_per_step = 10;
  19:.\ros_lib\examples\StepperControl/StepperControl.cpp **** const uint8_t PRESET = 0x04;
  20:.\ros_lib\examples\StepperControl/StepperControl.cpp **** const uint8_t STEP_UP = 0x06;
  21:.\ros_lib\examples\StepperControl/StepperControl.cpp **** const uint8_t STEP_DN = 0x07;
  22:.\ros_lib\examples\StepperControl/StepperControl.cpp **** 
  23:.\ros_lib\examples\StepperControl/StepperControl.cpp **** int16_t steps_remaining = 0;
  24:.\ros_lib\examples\StepperControl/StepperControl.cpp **** uint32_t next_time;
  25:.\ros_lib\examples\StepperControl/StepperControl.cpp **** 
  26:.\ros_lib\examples\StepperControl/StepperControl.cpp **** void messageCb( const std_msgs::Int16& step_msg){
 308              		.loc 3 26 0
 309              		.cfi_startproc
 310 0000 80B5     		push	{r7, lr}
 311              	.LCFI14:
 312              		.cfi_def_cfa_offset 8
 313              		.cfi_offset 7, -8
 314              		.cfi_offset 14, -4
 315 0002 82B0     		sub	sp, sp, #8
 316              	.LCFI15:
 317              		.cfi_def_cfa_offset 16
 318 0004 00AF     		add	r7, sp, #0
 319              	.LCFI16:
 320              		.cfi_def_cfa_register 7
 321 0006 7860     		str	r0, [r7, #4]
  27:.\ros_lib\examples\StepperControl/StepperControl.cpp ****   steps_remaining = step_msg.data;
 322              		.loc 3 27 0
 323 0008 7B68     		ldr	r3, [r7, #4]
 324 000a 9A88     		ldrh	r2, [r3, #4]
 325 000c 024B     		ldr	r3, .L18
 326 000e 1A80     		strh	r2, [r3]
ARM GAS  C:\DOCUME~1\Chuck\LOCALS~1\Temp\cc9ZFrOQ.s 			page 9


  28:.\ros_lib\examples\StepperControl/StepperControl.cpp **** }
 327              		.loc 3 28 0
 328 0010 BD46     		mov	sp, r7
 329 0012 02B0     		add	sp, sp, #8
 330              		@ sp needed for prologue
 331 0014 80BD     		pop	{r7, pc}
 332              	.L19:
 333 0016 C046     		.align	2
 334              	.L18:
 335 0018 00000000 		.word	_ZN14StepperControl15steps_remainingE
 336              		.cfi_endproc
 337              	.LFE142:
 338              		.size	_ZN14StepperControl9messageCbERKN8std_msgs5Int16E, .-_ZN14StepperControl9messageCbERKN8std_m
 339              		.global	_ZN14StepperControl3subE
 340              		.bss
 341              		.align	2
 342              		.type	_ZN14StepperControl3subE, %object
 343              		.size	_ZN14StepperControl3subE, 32
 344              	_ZN14StepperControl3subE:
 345 0008 00000000 		.space	32
 345      00000000 
 345      00000000 
 345      00000000 
 345      00000000 
 346              		.section	.text._ZN14StepperControl5setupEv,"ax",%progbits
 347              		.align	2
 348              		.global	_ZN14StepperControl5setupEv
 349              		.code	16
 350              		.thumb_func
 351              		.type	_ZN14StepperControl5setupEv, %function
 352              	_ZN14StepperControl5setupEv:
 353              	.LFB143:
  29:.\ros_lib\examples\StepperControl/StepperControl.cpp **** 
  30:.\ros_lib\examples\StepperControl/StepperControl.cpp **** ros::Subscriber<std_msgs::Int16> sub("stepper_move", &messageCb );
  31:.\ros_lib\examples\StepperControl/StepperControl.cpp **** 
  32:.\ros_lib\examples\StepperControl/StepperControl.cpp **** void setup()
  33:.\ros_lib\examples\StepperControl/StepperControl.cpp **** {
 354              		.loc 3 33 0
 355              		.cfi_startproc
 356 0000 80B5     		push	{r7, lr}
 357              	.LCFI17:
 358              		.cfi_def_cfa_offset 8
 359              		.cfi_offset 7, -8
 360              		.cfi_offset 14, -4
 361 0002 00AF     		add	r7, sp, #0
 362              	.LCFI18:
 363              		.cfi_def_cfa_register 7
  34:.\ros_lib\examples\StepperControl/StepperControl.cpp ****   nh.subscribe(sub);
 364              		.loc 3 34 0
 365 0004 074A     		ldr	r2, .L21
 366 0006 084B     		ldr	r3, .L21+4
 367 0008 101C     		mov	r0, r2
 368 000a 191C     		mov	r1, r3
 369 000c FFF7FEFF 		bl	_ZN3ros11NodeHandle_I13Psoc4HardwareLi10ELi20ELi200ELi200EE9subscribeIN8std_msgs5Int16EEEbRNS_1
  35:.\ros_lib\examples\StepperControl/StepperControl.cpp ****   next_time = SysTimer::millis();
 370              		.loc 3 35 0
 371 0010 FFF7FEFF 		bl	_ZN8SysTimer6millisEv
ARM GAS  C:\DOCUME~1\Chuck\LOCALS~1\Temp\cc9ZFrOQ.s 			page 10


 372 0014 021C     		mov	r2, r0
 373 0016 054B     		ldr	r3, .L21+8
 374 0018 1A60     		str	r2, [r3]
  36:.\ros_lib\examples\StepperControl/StepperControl.cpp ****   Stepper_Control_Write(PRESET);
 375              		.loc 3 36 0
 376 001a 0420     		mov	r0, #4
 377 001c FFF7FEFF 		bl	Stepper_Control_Write
  37:.\ros_lib\examples\StepperControl/StepperControl.cpp **** }
 378              		.loc 3 37 0
 379 0020 BD46     		mov	sp, r7
 380              		@ sp needed for prologue
 381 0022 80BD     		pop	{r7, pc}
 382              	.L22:
 383              		.align	2
 384              	.L21:
 385 0024 00000000 		.word	nh
 386 0028 00000000 		.word	_ZN14StepperControl3subE
 387 002c 00000000 		.word	_ZN14StepperControl9next_timeE
 388              		.cfi_endproc
 389              	.LFE143:
 390              		.size	_ZN14StepperControl5setupEv, .-_ZN14StepperControl5setupEv
 391              		.section	.text._ZN14StepperControl4loopEv,"ax",%progbits
 392              		.align	2
 393              		.global	_ZN14StepperControl4loopEv
 394              		.code	16
 395              		.thumb_func
 396              		.type	_ZN14StepperControl4loopEv, %function
 397              	_ZN14StepperControl4loopEv:
 398              	.LFB144:
  38:.\ros_lib\examples\StepperControl/StepperControl.cpp **** 
  39:.\ros_lib\examples\StepperControl/StepperControl.cpp **** void loop()
  40:.\ros_lib\examples\StepperControl/StepperControl.cpp **** {
 399              		.loc 3 40 0
 400              		.cfi_startproc
 401 0000 80B5     		push	{r7, lr}
 402              	.LCFI19:
 403              		.cfi_def_cfa_offset 8
 404              		.cfi_offset 7, -8
 405              		.cfi_offset 14, -4
 406 0002 00AF     		add	r7, sp, #0
 407              	.LCFI20:
 408              		.cfi_def_cfa_register 7
  41:.\ros_lib\examples\StepperControl/StepperControl.cpp ****   if ((int32_t)(SysTimer::millis()-next_time)>0) {
 409              		.loc 3 41 0
 410 0004 FFF7FEFF 		bl	_ZN8SysTimer6millisEv
 411 0008 021C     		mov	r2, r0
 412 000a 174B     		ldr	r3, .L26
 413 000c 1B68     		ldr	r3, [r3]
 414 000e D31A     		sub	r3, r2, r3
 415 0010 DA17     		asr	r2, r3, #31
 416 0012 D31A     		sub	r3, r2, r3
 417 0014 DB0F     		lsr	r3, r3, #31
 418 0016 DBB2     		uxtb	r3, r3
 419 0018 002B     		cmp	r3, #0
 420 001a 22D0     		beq	.L23
  42:.\ros_lib\examples\StepperControl/StepperControl.cpp ****     next_time += msec_per_step;
 421              		.loc 3 42 0
ARM GAS  C:\DOCUME~1\Chuck\LOCALS~1\Temp\cc9ZFrOQ.s 			page 11


 422 001c 124B     		ldr	r3, .L26
 423 001e 1B68     		ldr	r3, [r3]
 424 0020 1A1C     		mov	r2, r3
 425 0022 0A32     		add	r2, r2, #10
 426 0024 104B     		ldr	r3, .L26
 427 0026 1A60     		str	r2, [r3]
  43:.\ros_lib\examples\StepperControl/StepperControl.cpp ****     if (steps_remaining > 0) {
 428              		.loc 3 43 0
 429 0028 104B     		ldr	r3, .L26+4
 430 002a 1B88     		ldrh	r3, [r3]
 431 002c 1BB2     		sxth	r3, r3
 432 002e 002B     		cmp	r3, #0
 433 0030 09DD     		ble	.L25
  44:.\ros_lib\examples\StepperControl/StepperControl.cpp ****       Stepper_Control_Write(STEP_UP);
 434              		.loc 3 44 0
 435 0032 0620     		mov	r0, #6
 436 0034 FFF7FEFF 		bl	Stepper_Control_Write
  45:.\ros_lib\examples\StepperControl/StepperControl.cpp ****       steps_remaining--;
 437              		.loc 3 45 0
 438 0038 0C4B     		ldr	r3, .L26+4
 439 003a 1B88     		ldrh	r3, [r3]
 440 003c 013B     		sub	r3, r3, #1
 441 003e 9AB2     		uxth	r2, r3
 442 0040 0A4B     		ldr	r3, .L26+4
 443 0042 1A80     		strh	r2, [r3]
 444 0044 0DE0     		b	.L23
 445              	.L25:
  46:.\ros_lib\examples\StepperControl/StepperControl.cpp ****     } else if (steps_remaining < 0) {
 446              		.loc 3 46 0
 447 0046 094B     		ldr	r3, .L26+4
 448 0048 1B88     		ldrh	r3, [r3]
 449 004a 1BB2     		sxth	r3, r3
 450 004c 002B     		cmp	r3, #0
 451 004e 08DA     		bge	.L23
  47:.\ros_lib\examples\StepperControl/StepperControl.cpp ****       Stepper_Control_Write(STEP_DN);
 452              		.loc 3 47 0
 453 0050 0720     		mov	r0, #7
 454 0052 FFF7FEFF 		bl	Stepper_Control_Write
  48:.\ros_lib\examples\StepperControl/StepperControl.cpp ****       steps_remaining++;
 455              		.loc 3 48 0
 456 0056 054B     		ldr	r3, .L26+4
 457 0058 1B88     		ldrh	r3, [r3]
 458 005a 0133     		add	r3, r3, #1
 459 005c 9AB2     		uxth	r2, r3
 460 005e 034B     		ldr	r3, .L26+4
 461 0060 1A80     		strh	r2, [r3]
 462              	.L23:
  49:.\ros_lib\examples\StepperControl/StepperControl.cpp ****     }
  50:.\ros_lib\examples\StepperControl/StepperControl.cpp ****   }
  51:.\ros_lib\examples\StepperControl/StepperControl.cpp **** }
 463              		.loc 3 51 0
 464 0062 BD46     		mov	sp, r7
 465              		@ sp needed for prologue
 466 0064 80BD     		pop	{r7, pc}
 467              	.L27:
 468 0066 C046     		.align	2
 469              	.L26:
ARM GAS  C:\DOCUME~1\Chuck\LOCALS~1\Temp\cc9ZFrOQ.s 			page 12


 470 0068 00000000 		.word	_ZN14StepperControl9next_timeE
 471 006c 00000000 		.word	_ZN14StepperControl15steps_remainingE
 472              		.cfi_endproc
 473              	.LFE144:
 474              		.size	_ZN14StepperControl4loopEv, .-_ZN14StepperControl4loopEv
 475              		.section	.text._ZN3ros11Subscriber_C2Ev,"axG",%progbits,_ZN3ros11Subscriber_C5Ev,comdat
 476              		.align	2
 477              		.weak	_ZN3ros11Subscriber_C2Ev
 478              		.code	16
 479              		.thumb_func
 480              		.type	_ZN3ros11Subscriber_C2Ev, %function
 481              	_ZN3ros11Subscriber_C2Ev:
 482              	.LFB147:
 483              		.file 4 "./ros_lib/ros/subscriber.h"
   1:./ros_lib/ros/subscriber.h **** /* 
   2:./ros_lib/ros/subscriber.h ****  * Software License Agreement (BSD License)
   3:./ros_lib/ros/subscriber.h ****  *
   4:./ros_lib/ros/subscriber.h ****  * Copyright (c) 2011, Willow Garage, Inc.
   5:./ros_lib/ros/subscriber.h ****  * All rights reserved.
   6:./ros_lib/ros/subscriber.h ****  *
   7:./ros_lib/ros/subscriber.h ****  * Redistribution and use in source and binary forms, with or without
   8:./ros_lib/ros/subscriber.h ****  * modification, are permitted provided that the following conditions
   9:./ros_lib/ros/subscriber.h ****  * are met:
  10:./ros_lib/ros/subscriber.h ****  *
  11:./ros_lib/ros/subscriber.h ****  *  * Redistributions of source code must retain the above copyright
  12:./ros_lib/ros/subscriber.h ****  *    notice, this list of conditions and the following disclaimer.
  13:./ros_lib/ros/subscriber.h ****  *  * Redistributions in binary form must reproduce the above
  14:./ros_lib/ros/subscriber.h ****  *    copyright notice, this list of conditions and the following
  15:./ros_lib/ros/subscriber.h ****  *    disclaimer in the documentation and/or other materials provided
  16:./ros_lib/ros/subscriber.h ****  *    with the distribution.
  17:./ros_lib/ros/subscriber.h ****  *  * Neither the name of Willow Garage, Inc. nor the names of its
  18:./ros_lib/ros/subscriber.h ****  *    contributors may be used to endorse or promote prducts derived
  19:./ros_lib/ros/subscriber.h ****  *    from this software without specific prior written permission.
  20:./ros_lib/ros/subscriber.h ****  *
  21:./ros_lib/ros/subscriber.h ****  * THIS SOFTWARE IS PROVIDED BY THE COPYRIGHT HOLDERS AND CONTRIBUTORS
  22:./ros_lib/ros/subscriber.h ****  * "AS IS" AND ANY EXPRESS OR IMPLIED WARRANTIES, INCLUDING, BUT NOT
  23:./ros_lib/ros/subscriber.h ****  * LIMITED TO, THE IMPLIED WARRANTIES OF MERCHANTABILITY AND FITNESS
  24:./ros_lib/ros/subscriber.h ****  * FOR A PARTICULAR PURPOSE ARE DISCLAIMED. IN NO EVENT SHALL THE
  25:./ros_lib/ros/subscriber.h ****  * COPYRIGHT OWNER OR CONTRIBUTORS BE LIABLE FOR ANY DIRECT, INDIRECT,
  26:./ros_lib/ros/subscriber.h ****  * INCIDENTAL, SPECIAL, EXEMPLARY, OR CONSEQUENTIAL DAMAGES (INCLUDING,
  27:./ros_lib/ros/subscriber.h ****  * BUT NOT LIMITED TO, PROCUREMENT OF SUBSTITUTE GOODS OR SERVICES;
  28:./ros_lib/ros/subscriber.h ****  * LOSS OF USE, DATA, OR PROFITS; OR BUSINESS INTERRUPTION) HOWEVER
  29:./ros_lib/ros/subscriber.h ****  * CAUSED AND ON ANY THEORY OF LIABILITY, WHETHER IN CONTRACT, STRICT
  30:./ros_lib/ros/subscriber.h ****  * LIABILITY, OR TORT (INCLUDING NEGLIGENCE OR OTHERWISE) ARISING IN
  31:./ros_lib/ros/subscriber.h ****  * ANY WAY OUT OF THE USE OF THIS SOFTWARE, EVEN IF ADVISED OF THE
  32:./ros_lib/ros/subscriber.h ****  * POSSIBILITY OF SUCH DAMAGE.
  33:./ros_lib/ros/subscriber.h ****  */
  34:./ros_lib/ros/subscriber.h **** 
  35:./ros_lib/ros/subscriber.h **** #ifndef ROS_SUBSCRIBER_H_
  36:./ros_lib/ros/subscriber.h **** #define ROS_SUBSCRIBER_H_
  37:./ros_lib/ros/subscriber.h **** 
  38:./ros_lib/ros/subscriber.h **** #include "rosserial_msgs/TopicInfo.h"
  39:./ros_lib/ros/subscriber.h **** 
  40:./ros_lib/ros/subscriber.h **** namespace ros {
  41:./ros_lib/ros/subscriber.h **** 
  42:./ros_lib/ros/subscriber.h ****   /* Base class for objects subscribers. */
  43:./ros_lib/ros/subscriber.h ****   class Subscriber_
ARM GAS  C:\DOCUME~1\Chuck\LOCALS~1\Temp\cc9ZFrOQ.s 			page 13


 484              		.loc 4 43 0
 485              		.cfi_startproc
 486 0000 80B5     		push	{r7, lr}
 487              	.LCFI21:
 488              		.cfi_def_cfa_offset 8
 489              		.cfi_offset 7, -8
 490              		.cfi_offset 14, -4
 491 0002 82B0     		sub	sp, sp, #8
 492              	.LCFI22:
 493              		.cfi_def_cfa_offset 16
 494 0004 00AF     		add	r7, sp, #0
 495              	.LCFI23:
 496              		.cfi_def_cfa_register 7
 497 0006 7860     		str	r0, [r7, #4]
 498              	.LBB4:
 499              		.loc 4 43 0
 500 0008 7B68     		ldr	r3, [r7, #4]
 501 000a 034A     		ldr	r2, .L31
 502 000c 1A60     		str	r2, [r3]
 503              	.LBE4:
 504 000e 7B68     		ldr	r3, [r7, #4]
 505 0010 181C     		mov	r0, r3
 506 0012 BD46     		mov	sp, r7
 507 0014 02B0     		add	sp, sp, #8
 508              		@ sp needed for prologue
 509 0016 80BD     		pop	{r7, pc}
 510              	.L32:
 511              		.align	2
 512              	.L31:
 513 0018 08000000 		.word	_ZTVN3ros11Subscriber_E+8
 514              		.cfi_endproc
 515              	.LFE147:
 516              		.size	_ZN3ros11Subscriber_C2Ev, .-_ZN3ros11Subscriber_C2Ev
 517              		.weak	_ZN3ros11Subscriber_C1Ev
 518              		.thumb_set _ZN3ros11Subscriber_C1Ev,_ZN3ros11Subscriber_C2Ev
 519              		.section	.text._ZN3ros3MsgC2Ev,"axG",%progbits,_ZN3ros3MsgC5Ev,comdat
 520              		.align	2
 521              		.weak	_ZN3ros3MsgC2Ev
 522              		.code	16
 523              		.thumb_func
 524              		.type	_ZN3ros3MsgC2Ev, %function
 525              	_ZN3ros3MsgC2Ev:
 526              	.LFB151:
 527              		.file 5 "./ros_lib/ros/msg.h"
   1:./ros_lib/ros/msg.h **** /* 
   2:./ros_lib/ros/msg.h ****  * Software License Agreement (BSD License)
   3:./ros_lib/ros/msg.h ****  *
   4:./ros_lib/ros/msg.h ****  * Copyright (c) 2011, Willow Garage, Inc.
   5:./ros_lib/ros/msg.h ****  * All rights reserved.
   6:./ros_lib/ros/msg.h ****  *
   7:./ros_lib/ros/msg.h ****  * Redistribution and use in source and binary forms, with or without
   8:./ros_lib/ros/msg.h ****  * modification, are permitted provided that the following conditions
   9:./ros_lib/ros/msg.h ****  * are met:
  10:./ros_lib/ros/msg.h ****  *
  11:./ros_lib/ros/msg.h ****  *  * Redistributions of source code must retain the above copyright
  12:./ros_lib/ros/msg.h ****  *    notice, this list of conditions and the following disclaimer.
  13:./ros_lib/ros/msg.h ****  *  * Redistributions in binary form must reproduce the above
ARM GAS  C:\DOCUME~1\Chuck\LOCALS~1\Temp\cc9ZFrOQ.s 			page 14


  14:./ros_lib/ros/msg.h ****  *    copyright notice, this list of conditions and the following
  15:./ros_lib/ros/msg.h ****  *    disclaimer in the documentation and/or other materials provided
  16:./ros_lib/ros/msg.h ****  *    with the distribution.
  17:./ros_lib/ros/msg.h ****  *  * Neither the name of Willow Garage, Inc. nor the names of its
  18:./ros_lib/ros/msg.h ****  *    contributors may be used to endorse or promote prducts derived
  19:./ros_lib/ros/msg.h ****  *    from this software without specific prior written permission.
  20:./ros_lib/ros/msg.h ****  *
  21:./ros_lib/ros/msg.h ****  * THIS SOFTWARE IS PROVIDED BY THE COPYRIGHT HOLDERS AND CONTRIBUTORS
  22:./ros_lib/ros/msg.h ****  * "AS IS" AND ANY EXPRESS OR IMPLIED WARRANTIES, INCLUDING, BUT NOT
  23:./ros_lib/ros/msg.h ****  * LIMITED TO, THE IMPLIED WARRANTIES OF MERCHANTABILITY AND FITNESS
  24:./ros_lib/ros/msg.h ****  * FOR A PARTICULAR PURPOSE ARE DISCLAIMED. IN NO EVENT SHALL THE
  25:./ros_lib/ros/msg.h ****  * COPYRIGHT OWNER OR CONTRIBUTORS BE LIABLE FOR ANY DIRECT, INDIRECT,
  26:./ros_lib/ros/msg.h ****  * INCIDENTAL, SPECIAL, EXEMPLARY, OR CONSEQUENTIAL DAMAGES (INCLUDING,
  27:./ros_lib/ros/msg.h ****  * BUT NOT LIMITED TO, PROCUREMENT OF SUBSTITUTE GOODS OR SERVICES;
  28:./ros_lib/ros/msg.h ****  * LOSS OF USE, DATA, OR PROFITS; OR BUSINESS INTERRUPTION) HOWEVER
  29:./ros_lib/ros/msg.h ****  * CAUSED AND ON ANY THEORY OF LIABILITY, WHETHER IN CONTRACT, STRICT
  30:./ros_lib/ros/msg.h ****  * LIABILITY, OR TORT (INCLUDING NEGLIGENCE OR OTHERWISE) ARISING IN
  31:./ros_lib/ros/msg.h ****  * ANY WAY OUT OF THE USE OF THIS SOFTWARE, EVEN IF ADVISED OF THE
  32:./ros_lib/ros/msg.h ****  * POSSIBILITY OF SUCH DAMAGE.
  33:./ros_lib/ros/msg.h ****  */
  34:./ros_lib/ros/msg.h **** 
  35:./ros_lib/ros/msg.h **** #ifndef _ROS_MSG_H_
  36:./ros_lib/ros/msg.h **** #define _ROS_MSG_H_
  37:./ros_lib/ros/msg.h **** 
  38:./ros_lib/ros/msg.h **** namespace ros {
  39:./ros_lib/ros/msg.h **** 
  40:./ros_lib/ros/msg.h ****   /* Base Message Type */
  41:./ros_lib/ros/msg.h ****   class Msg
 528              		.loc 5 41 0
 529              		.cfi_startproc
 530 0000 80B5     		push	{r7, lr}
 531              	.LCFI24:
 532              		.cfi_def_cfa_offset 8
 533              		.cfi_offset 7, -8
 534              		.cfi_offset 14, -4
 535 0002 82B0     		sub	sp, sp, #8
 536              	.LCFI25:
 537              		.cfi_def_cfa_offset 16
 538 0004 00AF     		add	r7, sp, #0
 539              	.LCFI26:
 540              		.cfi_def_cfa_register 7
 541 0006 7860     		str	r0, [r7, #4]
 542              	.LBB5:
 543              		.loc 5 41 0
 544 0008 7B68     		ldr	r3, [r7, #4]
 545 000a 034A     		ldr	r2, .L36
 546 000c 1A60     		str	r2, [r3]
 547              	.LBE5:
 548 000e 7B68     		ldr	r3, [r7, #4]
 549 0010 181C     		mov	r0, r3
 550 0012 BD46     		mov	sp, r7
 551 0014 02B0     		add	sp, sp, #8
 552              		@ sp needed for prologue
 553 0016 80BD     		pop	{r7, pc}
 554              	.L37:
 555              		.align	2
 556              	.L36:
ARM GAS  C:\DOCUME~1\Chuck\LOCALS~1\Temp\cc9ZFrOQ.s 			page 15


 557 0018 08000000 		.word	_ZTVN3ros3MsgE+8
 558              		.cfi_endproc
 559              	.LFE151:
 560              		.size	_ZN3ros3MsgC2Ev, .-_ZN3ros3MsgC2Ev
 561              		.weak	_ZN3ros3MsgC1Ev
 562              		.thumb_set _ZN3ros3MsgC1Ev,_ZN3ros3MsgC2Ev
 563              		.section	.text._ZN8std_msgs5Int16C2Ev,"axG",%progbits,_ZN8std_msgs5Int16C5Ev,comdat
 564              		.align	2
 565              		.weak	_ZN8std_msgs5Int16C2Ev
 566              		.code	16
 567              		.thumb_func
 568              		.type	_ZN8std_msgs5Int16C2Ev, %function
 569              	_ZN8std_msgs5Int16C2Ev:
 570              	.LFB153:
  12:./ros_lib/std_msgs/Int16.h ****   class Int16 : public ros::Msg
 571              		.loc 2 12 0
 572              		.cfi_startproc
 573 0000 80B5     		push	{r7, lr}
 574              	.LCFI27:
 575              		.cfi_def_cfa_offset 8
 576              		.cfi_offset 7, -8
 577              		.cfi_offset 14, -4
 578 0002 82B0     		sub	sp, sp, #8
 579              	.LCFI28:
 580              		.cfi_def_cfa_offset 16
 581 0004 00AF     		add	r7, sp, #0
 582              	.LCFI29:
 583              		.cfi_def_cfa_register 7
 584 0006 7860     		str	r0, [r7, #4]
 585              	.LBB6:
  12:./ros_lib/std_msgs/Int16.h ****   class Int16 : public ros::Msg
 586              		.loc 2 12 0
 587 0008 7B68     		ldr	r3, [r7, #4]
 588 000a 181C     		mov	r0, r3
 589 000c FFF7FEFF 		bl	_ZN3ros3MsgC2Ev
 590 0010 7B68     		ldr	r3, [r7, #4]
 591 0012 034A     		ldr	r2, .L41
 592 0014 1A60     		str	r2, [r3]
 593              	.LBE6:
 594 0016 7B68     		ldr	r3, [r7, #4]
 595 0018 181C     		mov	r0, r3
 596 001a BD46     		mov	sp, r7
 597 001c 02B0     		add	sp, sp, #8
 598              		@ sp needed for prologue
 599 001e 80BD     		pop	{r7, pc}
 600              	.L42:
 601              		.align	2
 602              	.L41:
 603 0020 08000000 		.word	_ZTVN8std_msgs5Int16E+8
 604              		.cfi_endproc
 605              	.LFE153:
 606              		.size	_ZN8std_msgs5Int16C2Ev, .-_ZN8std_msgs5Int16C2Ev
 607              		.weak	_ZN8std_msgs5Int16C1Ev
 608              		.thumb_set _ZN8std_msgs5Int16C1Ev,_ZN8std_msgs5Int16C2Ev
 609              		.section	.text._ZN3ros10SubscriberIN8std_msgs5Int16EEC2EPKcPFvRKS2_Ei,"axG",%progbits,_ZN3ros10Sub
 610              		.align	2
 611              		.weak	_ZN3ros10SubscriberIN8std_msgs5Int16EEC2EPKcPFvRKS2_Ei
ARM GAS  C:\DOCUME~1\Chuck\LOCALS~1\Temp\cc9ZFrOQ.s 			page 16


 612              		.code	16
 613              		.thumb_func
 614              		.type	_ZN3ros10SubscriberIN8std_msgs5Int16EEC2EPKcPFvRKS2_Ei, %function
 615              	_ZN3ros10SubscriberIN8std_msgs5Int16EEC2EPKcPFvRKS2_Ei:
 616              	.LFB155:
  44:./ros_lib/ros/subscriber.h ****   {
  45:./ros_lib/ros/subscriber.h ****     public:
  46:./ros_lib/ros/subscriber.h ****       virtual void callback(unsigned char *data)=0;
  47:./ros_lib/ros/subscriber.h ****       virtual int getEndpointType()=0;
  48:./ros_lib/ros/subscriber.h **** 
  49:./ros_lib/ros/subscriber.h ****       // id_ is set by NodeHandle when we advertise 
  50:./ros_lib/ros/subscriber.h ****       int id_;
  51:./ros_lib/ros/subscriber.h **** 
  52:./ros_lib/ros/subscriber.h ****       virtual const char * getMsgType()=0;
  53:./ros_lib/ros/subscriber.h ****       virtual const char * getMsgMD5()=0;
  54:./ros_lib/ros/subscriber.h ****       const char * topic_;
  55:./ros_lib/ros/subscriber.h ****   };
  56:./ros_lib/ros/subscriber.h **** 
  57:./ros_lib/ros/subscriber.h **** 
  58:./ros_lib/ros/subscriber.h ****   /* Actual subscriber, templated on message type. */
  59:./ros_lib/ros/subscriber.h ****   template<typename MsgT>
  60:./ros_lib/ros/subscriber.h ****   class Subscriber: public Subscriber_{
  61:./ros_lib/ros/subscriber.h ****     public:
  62:./ros_lib/ros/subscriber.h ****       typedef void(*CallbackT)(const MsgT&);
  63:./ros_lib/ros/subscriber.h ****       MsgT msg;
  64:./ros_lib/ros/subscriber.h ****       // Rosserial standard callback
  65:./ros_lib/ros/subscriber.h ****       Subscriber(const char * topic_name, CallbackT cb, int endpoint=rosserial_msgs::TopicInfo::ID_
 617              		.loc 4 65 0
 618              		.cfi_startproc
 619 0000 80B5     		push	{r7, lr}
 620              	.LCFI30:
 621              		.cfi_def_cfa_offset 8
 622              		.cfi_offset 7, -8
 623              		.cfi_offset 14, -4
 624 0002 84B0     		sub	sp, sp, #16
 625              	.LCFI31:
 626              		.cfi_def_cfa_offset 24
 627 0004 00AF     		add	r7, sp, #0
 628              	.LCFI32:
 629              		.cfi_def_cfa_register 7
 630 0006 F860     		str	r0, [r7, #12]
 631 0008 B960     		str	r1, [r7, #8]
 632 000a 7A60     		str	r2, [r7, #4]
 633 000c 3B60     		str	r3, [r7]
 634              	.LBB7:
  66:./ros_lib/ros/subscriber.h ****         cb_(cb), cbp_(NULL),
  67:./ros_lib/ros/subscriber.h ****         endpoint_(endpoint)
 635              		.loc 4 67 0
 636 000e FB68     		ldr	r3, [r7, #12]
 637 0010 181C     		mov	r0, r3
 638 0012 FFF7FEFF 		bl	_ZN3ros11Subscriber_C2Ev
 639 0016 FB68     		ldr	r3, [r7, #12]
 640 0018 0B4A     		ldr	r2, .L46
 641 001a 1A60     		str	r2, [r3]
 642 001c FB68     		ldr	r3, [r7, #12]
 643 001e 0C33     		add	r3, r3, #12
 644 0020 181C     		mov	r0, r3
ARM GAS  C:\DOCUME~1\Chuck\LOCALS~1\Temp\cc9ZFrOQ.s 			page 17


 645 0022 FFF7FEFF 		bl	_ZN8std_msgs5Int16C1Ev
 646 0026 FB68     		ldr	r3, [r7, #12]
 647 0028 7A68     		ldr	r2, [r7, #4]
 648 002a 5A61     		str	r2, [r3, #20]
 649 002c FB68     		ldr	r3, [r7, #12]
 650 002e 0022     		mov	r2, #0
 651 0030 9A61     		str	r2, [r3, #24]
 652 0032 FB68     		ldr	r3, [r7, #12]
 653 0034 3A68     		ldr	r2, [r7]
 654 0036 DA61     		str	r2, [r3, #28]
  68:./ros_lib/ros/subscriber.h ****       {
  69:./ros_lib/ros/subscriber.h ****         topic_ = topic_name;
 655              		.loc 4 69 0
 656 0038 FB68     		ldr	r3, [r7, #12]
 657 003a BA68     		ldr	r2, [r7, #8]
 658 003c 9A60     		str	r2, [r3, #8]
 659              	.LBE7:
 660 003e FB68     		ldr	r3, [r7, #12]
  70:./ros_lib/ros/subscriber.h ****       };
 661              		.loc 4 70 0
 662 0040 181C     		mov	r0, r3
 663 0042 BD46     		mov	sp, r7
 664 0044 04B0     		add	sp, sp, #16
 665              		@ sp needed for prologue
 666 0046 80BD     		pop	{r7, pc}
 667              	.L47:
 668              		.align	2
 669              	.L46:
 670 0048 08000000 		.word	_ZTVN3ros10SubscriberIN8std_msgs5Int16EEE+8
 671              		.cfi_endproc
 672              	.LFE155:
 673              		.size	_ZN3ros10SubscriberIN8std_msgs5Int16EEC2EPKcPFvRKS2_Ei, .-_ZN3ros10SubscriberIN8std_msgs5Int
 674              		.weak	_ZN3ros10SubscriberIN8std_msgs5Int16EEC1EPKcPFvRKS2_Ei
 675              		.thumb_set _ZN3ros10SubscriberIN8std_msgs5Int16EEC1EPKcPFvRKS2_Ei,_ZN3ros10SubscriberIN8std_msgs5I
 676              		.section	.text._ZN3ros11NodeHandle_I13Psoc4HardwareLi10ELi20ELi200ELi200EE9subscribeIN8std_msgs5In
 677              		.align	2
 678              		.weak	_ZN3ros11NodeHandle_I13Psoc4HardwareLi10ELi20ELi200ELi200EE9subscribeIN8std_msgs5Int16EEEbRN
 679              		.code	16
 680              		.thumb_func
 681              		.type	_ZN3ros11NodeHandle_I13Psoc4HardwareLi10ELi20ELi200ELi200EE9subscribeIN8std_msgs5Int16EEEbRN
 682              	_ZN3ros11NodeHandle_I13Psoc4HardwareLi10ELi20ELi200ELi200EE9subscribeIN8std_msgs5Int16EEEbRNS_10Sub
 683              	.LFB157:
 684              		.file 6 "./ros_lib/ros/node_handle.h"
   1:./ros_lib/ros/node_handle.h **** /*
   2:./ros_lib/ros/node_handle.h ****  * Software License Agreement (BSD License)
   3:./ros_lib/ros/node_handle.h ****  *
   4:./ros_lib/ros/node_handle.h ****  * Copyright (c) 2011, Willow Garage, Inc.
   5:./ros_lib/ros/node_handle.h ****  * All rights reserved.
   6:./ros_lib/ros/node_handle.h ****  *
   7:./ros_lib/ros/node_handle.h ****  * Redistribution and use in source and binary forms, with or without
   8:./ros_lib/ros/node_handle.h ****  * modification, are permitted provided that the following conditions
   9:./ros_lib/ros/node_handle.h ****  * are met:
  10:./ros_lib/ros/node_handle.h ****  *
  11:./ros_lib/ros/node_handle.h ****  *  * Redistributions of source code must retain the above copyright
  12:./ros_lib/ros/node_handle.h ****  *    notice, this list of conditions and the following disclaimer.
  13:./ros_lib/ros/node_handle.h ****  *  * Redistributions in binary form must reproduce the above
  14:./ros_lib/ros/node_handle.h ****  *    copyright notice, this list of conditions and the following
ARM GAS  C:\DOCUME~1\Chuck\LOCALS~1\Temp\cc9ZFrOQ.s 			page 18


  15:./ros_lib/ros/node_handle.h ****  *    disclaimer in the documentation and/or other materials provided
  16:./ros_lib/ros/node_handle.h ****  *    with the distribution.
  17:./ros_lib/ros/node_handle.h ****  *  * Neither the name of Willow Garage, Inc. nor the names of its
  18:./ros_lib/ros/node_handle.h ****  *    contributors may be used to endorse or promote prducts derived
  19:./ros_lib/ros/node_handle.h ****  *    from this software without specific prior written permission.
  20:./ros_lib/ros/node_handle.h ****  *
  21:./ros_lib/ros/node_handle.h ****  * THIS SOFTWARE IS PROVIDED BY THE COPYRIGHT HOLDERS AND CONTRIBUTORS
  22:./ros_lib/ros/node_handle.h ****  * "AS IS" AND ANY EXPRESS OR IMPLIED WARRANTIES, INCLUDING, BUT NOT
  23:./ros_lib/ros/node_handle.h ****  * LIMITED TO, THE IMPLIED WARRANTIES OF MERCHANTABILITY AND FITNESS
  24:./ros_lib/ros/node_handle.h ****  * FOR A PARTICULAR PURPOSE ARE DISCLAIMED. IN NO EVENT SHALL THE
  25:./ros_lib/ros/node_handle.h ****  * COPYRIGHT OWNER OR CONTRIBUTORS BE LIABLE FOR ANY DIRECT, INDIRECT,
  26:./ros_lib/ros/node_handle.h ****  * INCIDENTAL, SPECIAL, EXEMPLARY, OR CONSEQUENTIAL DAMAGES (INCLUDING,
  27:./ros_lib/ros/node_handle.h ****  * BUT NOT LIMITED TO, PROCUREMENT OF SUBSTITUTE GOODS OR SERVICES;
  28:./ros_lib/ros/node_handle.h ****  * LOSS OF USE, DATA, OR PROFITS; OR BUSINESS INTERRUPTION) HOWEVER
  29:./ros_lib/ros/node_handle.h ****  * CAUSED AND ON ANY THEORY OF LIABILITY, WHETHER IN CONTRACT, STRICT
  30:./ros_lib/ros/node_handle.h ****  * LIABILITY, OR TORT (INCLUDING NEGLIGENCE OR OTHERWISE) ARISING IN
  31:./ros_lib/ros/node_handle.h ****  * ANY WAY OUT OF THE USE OF THIS SOFTWARE, EVEN IF ADVISED OF THE
  32:./ros_lib/ros/node_handle.h ****  * POSSIBILITY OF SUCH DAMAGE.
  33:./ros_lib/ros/node_handle.h ****  */
  34:./ros_lib/ros/node_handle.h **** 
  35:./ros_lib/ros/node_handle.h **** #ifndef ROS_NODE_HANDLE_H_
  36:./ros_lib/ros/node_handle.h **** #define ROS_NODE_HANDLE_H_
  37:./ros_lib/ros/node_handle.h **** 
  38:./ros_lib/ros/node_handle.h **** #ifndef PARAM_REQ_SUPPORT
  39:./ros_lib/ros/node_handle.h **** #define PARAM_REQ_SUPPORT 1
  40:./ros_lib/ros/node_handle.h **** #endif
  41:./ros_lib/ros/node_handle.h **** 
  42:./ros_lib/ros/node_handle.h **** #include "std_msgs/Time.h"
  43:./ros_lib/ros/node_handle.h **** #include "rosserial_msgs/TopicInfo.h"
  44:./ros_lib/ros/node_handle.h **** #include "rosserial_msgs/Log.h"
  45:./ros_lib/ros/node_handle.h **** #if PARAM_REQ_SUPPORT
  46:./ros_lib/ros/node_handle.h **** #include "rosserial_msgs/RequestParam.h"
  47:./ros_lib/ros/node_handle.h **** #endif
  48:./ros_lib/ros/node_handle.h **** 
  49:./ros_lib/ros/node_handle.h **** #define SYNC_SECONDS        2
  50:./ros_lib/ros/node_handle.h **** 
  51:./ros_lib/ros/node_handle.h **** #define MODE_FIRST_FF       0
  52:./ros_lib/ros/node_handle.h **** /*
  53:./ros_lib/ros/node_handle.h ****  * The second sync byte is a protocol version. It's value is 0xff for the first
  54:./ros_lib/ros/node_handle.h ****  * version of the rosserial protocol (used up to hydro), 0xfe for the second version
  55:./ros_lib/ros/node_handle.h ****  * (introduced in hydro), 0xfd for the next, and so on. Its purpose is to enable
  56:./ros_lib/ros/node_handle.h ****  * detection of mismatched protocol versions (e.g. hydro rosserial_python with groovy
  57:./ros_lib/ros/node_handle.h ****  * rosserial_arduino. It must be changed in both this file and in
  58:./ros_lib/ros/node_handle.h ****  * rosserial_python/src/rosserial_python/SerialClient.py
  59:./ros_lib/ros/node_handle.h ****  */
  60:./ros_lib/ros/node_handle.h **** #define MODE_PROTOCOL_VER   1
  61:./ros_lib/ros/node_handle.h **** #define PROTOCOL_VER1		0xff // through groovy
  62:./ros_lib/ros/node_handle.h **** #define PROTOCOL_VER2		0xfe // in hydro
  63:./ros_lib/ros/node_handle.h **** #define PROTOCOL_VER 		PROTOCOL_VER2
  64:./ros_lib/ros/node_handle.h **** #define MODE_SIZE_L         2   
  65:./ros_lib/ros/node_handle.h **** #define MODE_SIZE_H         3
  66:./ros_lib/ros/node_handle.h **** #define MODE_SIZE_CHECKSUM  4   // checksum for msg size received from size L and H
  67:./ros_lib/ros/node_handle.h **** #define MODE_TOPIC_L        5   // waiting for topic id
  68:./ros_lib/ros/node_handle.h **** #define MODE_TOPIC_H        6
  69:./ros_lib/ros/node_handle.h **** #define MODE_MESSAGE        7
  70:./ros_lib/ros/node_handle.h **** #define MODE_MSG_CHECKSUM   8   // checksum for msg and topic id 
  71:./ros_lib/ros/node_handle.h **** 
ARM GAS  C:\DOCUME~1\Chuck\LOCALS~1\Temp\cc9ZFrOQ.s 			page 19


  72:./ros_lib/ros/node_handle.h **** 
  73:./ros_lib/ros/node_handle.h **** 
  74:./ros_lib/ros/node_handle.h **** #define MSG_TIMEOUT 200  // was 20 milliseconds to recieve all of message data
  75:./ros_lib/ros/node_handle.h **** 
  76:./ros_lib/ros/node_handle.h **** #include "msg.h"
  77:./ros_lib/ros/node_handle.h **** 
  78:./ros_lib/ros/node_handle.h **** namespace ros {
  79:./ros_lib/ros/node_handle.h **** 
  80:./ros_lib/ros/node_handle.h ****   class NodeHandleBase_{
  81:./ros_lib/ros/node_handle.h ****     public:
  82:./ros_lib/ros/node_handle.h ****       virtual int publish(int id, const Msg* msg)=0;
  83:./ros_lib/ros/node_handle.h ****       virtual int spinOnce()=0;
  84:./ros_lib/ros/node_handle.h ****       virtual bool connected()=0;
  85:./ros_lib/ros/node_handle.h ****     };
  86:./ros_lib/ros/node_handle.h **** }
  87:./ros_lib/ros/node_handle.h **** 
  88:./ros_lib/ros/node_handle.h **** #include "publisher.h"
  89:./ros_lib/ros/node_handle.h **** #include "subscriber.h"
  90:./ros_lib/ros/node_handle.h **** #include "service_server.h"
  91:./ros_lib/ros/node_handle.h **** #include "service_client.h"
  92:./ros_lib/ros/node_handle.h **** 
  93:./ros_lib/ros/node_handle.h **** namespace ros {
  94:./ros_lib/ros/node_handle.h **** 
  95:./ros_lib/ros/node_handle.h ****   /* Node Handle */
  96:./ros_lib/ros/node_handle.h ****   template<class Hardware,
  97:./ros_lib/ros/node_handle.h ****            int MAX_SUBSCRIBERS=25,
  98:./ros_lib/ros/node_handle.h ****            int MAX_PUBLISHERS=25,
  99:./ros_lib/ros/node_handle.h ****            int INPUT_SIZE=512,
 100:./ros_lib/ros/node_handle.h ****            int OUTPUT_SIZE=512>
 101:./ros_lib/ros/node_handle.h ****   class NodeHandle_ : public NodeHandleBase_
 102:./ros_lib/ros/node_handle.h ****   {
 103:./ros_lib/ros/node_handle.h ****     protected:
 104:./ros_lib/ros/node_handle.h ****       Hardware hardware_;
 105:./ros_lib/ros/node_handle.h **** 
 106:./ros_lib/ros/node_handle.h ****       /* time used for syncing */
 107:./ros_lib/ros/node_handle.h ****       unsigned long rt_time;
 108:./ros_lib/ros/node_handle.h **** 
 109:./ros_lib/ros/node_handle.h ****       /* used for computing current time */
 110:./ros_lib/ros/node_handle.h ****       unsigned long sec_offset, nsec_offset;
 111:./ros_lib/ros/node_handle.h **** 
 112:./ros_lib/ros/node_handle.h ****       unsigned char message_in[INPUT_SIZE];
 113:./ros_lib/ros/node_handle.h ****       unsigned char message_out[OUTPUT_SIZE];
 114:./ros_lib/ros/node_handle.h **** 
 115:./ros_lib/ros/node_handle.h ****       Publisher * publishers[MAX_PUBLISHERS];
 116:./ros_lib/ros/node_handle.h ****       Subscriber_ * subscribers[MAX_SUBSCRIBERS];
 117:./ros_lib/ros/node_handle.h **** 
 118:./ros_lib/ros/node_handle.h ****       /*
 119:./ros_lib/ros/node_handle.h ****        * Setup Functions
 120:./ros_lib/ros/node_handle.h ****        */
 121:./ros_lib/ros/node_handle.h ****     public:
 122:./ros_lib/ros/node_handle.h ****       NodeHandle_() : configured_(false) {}
 123:./ros_lib/ros/node_handle.h ****       
 124:./ros_lib/ros/node_handle.h ****       Hardware* getHardware(){
 125:./ros_lib/ros/node_handle.h ****         return &hardware_;
 126:./ros_lib/ros/node_handle.h ****       }
 127:./ros_lib/ros/node_handle.h **** 
 128:./ros_lib/ros/node_handle.h ****       /* Start serial, initialize buffers */
ARM GAS  C:\DOCUME~1\Chuck\LOCALS~1\Temp\cc9ZFrOQ.s 			page 20


 129:./ros_lib/ros/node_handle.h ****       void initNode(){
 130:./ros_lib/ros/node_handle.h ****         hardware_.init();
 131:./ros_lib/ros/node_handle.h ****         mode_ = 0;
 132:./ros_lib/ros/node_handle.h ****         bytes_ = 0;
 133:./ros_lib/ros/node_handle.h ****         index_ = 0;
 134:./ros_lib/ros/node_handle.h ****         topic_ = 0;
 135:./ros_lib/ros/node_handle.h ****       };
 136:./ros_lib/ros/node_handle.h **** 
 137:./ros_lib/ros/node_handle.h ****       /* Start a named port, which may be network server IP, initialize buffers */
 138:./ros_lib/ros/node_handle.h ****       void initNode(char *portName){
 139:./ros_lib/ros/node_handle.h ****         hardware_.init(portName);
 140:./ros_lib/ros/node_handle.h ****         mode_ = 0;
 141:./ros_lib/ros/node_handle.h ****         bytes_ = 0;
 142:./ros_lib/ros/node_handle.h ****         index_ = 0;
 143:./ros_lib/ros/node_handle.h ****         topic_ = 0;
 144:./ros_lib/ros/node_handle.h ****       };
 145:./ros_lib/ros/node_handle.h **** 
 146:./ros_lib/ros/node_handle.h ****     protected:
 147:./ros_lib/ros/node_handle.h ****       //State machine variables for spinOnce
 148:./ros_lib/ros/node_handle.h ****       int mode_;
 149:./ros_lib/ros/node_handle.h ****       int bytes_;
 150:./ros_lib/ros/node_handle.h ****       int topic_;
 151:./ros_lib/ros/node_handle.h ****       int index_;
 152:./ros_lib/ros/node_handle.h ****       int checksum_;
 153:./ros_lib/ros/node_handle.h **** 
 154:./ros_lib/ros/node_handle.h ****       bool configured_;
 155:./ros_lib/ros/node_handle.h **** 
 156:./ros_lib/ros/node_handle.h ****       /* used for syncing the time */
 157:./ros_lib/ros/node_handle.h ****       unsigned long last_sync_time;
 158:./ros_lib/ros/node_handle.h ****       unsigned long last_sync_receive_time;
 159:./ros_lib/ros/node_handle.h ****       unsigned long last_msg_timeout_time;
 160:./ros_lib/ros/node_handle.h **** 
 161:./ros_lib/ros/node_handle.h ****     public:
 162:./ros_lib/ros/node_handle.h ****       /* This function goes in your loop() function, it handles
 163:./ros_lib/ros/node_handle.h ****        *  serial input and callbacks for subscribers.
 164:./ros_lib/ros/node_handle.h ****        */
 165:./ros_lib/ros/node_handle.h **** 
 166:./ros_lib/ros/node_handle.h **** 
 167:./ros_lib/ros/node_handle.h ****       virtual int spinOnce(){
 168:./ros_lib/ros/node_handle.h **** 
 169:./ros_lib/ros/node_handle.h ****         /* restart if timed out */
 170:./ros_lib/ros/node_handle.h ****         unsigned long c_time = hardware_.time();
 171:./ros_lib/ros/node_handle.h ****         if( (c_time - last_sync_receive_time) > (SYNC_SECONDS*1100) ){
 172:./ros_lib/ros/node_handle.h ****             configured_ = false;
 173:./ros_lib/ros/node_handle.h ****          }
 174:./ros_lib/ros/node_handle.h ****          
 175:./ros_lib/ros/node_handle.h ****         /* reset if message has timed out */
 176:./ros_lib/ros/node_handle.h ****         if ( mode_ != MODE_FIRST_FF){ 
 177:./ros_lib/ros/node_handle.h ****           if (c_time > last_msg_timeout_time){
 178:./ros_lib/ros/node_handle.h ****             mode_ = MODE_FIRST_FF;
 179:./ros_lib/ros/node_handle.h ****           }
 180:./ros_lib/ros/node_handle.h ****         }
 181:./ros_lib/ros/node_handle.h **** 
 182:./ros_lib/ros/node_handle.h ****         /* while available buffer, read data */
 183:./ros_lib/ros/node_handle.h ****         while( true )
 184:./ros_lib/ros/node_handle.h ****         {
 185:./ros_lib/ros/node_handle.h ****           int data = hardware_.read();
ARM GAS  C:\DOCUME~1\Chuck\LOCALS~1\Temp\cc9ZFrOQ.s 			page 21


 186:./ros_lib/ros/node_handle.h ****           if( data < 0 )
 187:./ros_lib/ros/node_handle.h ****             break;
 188:./ros_lib/ros/node_handle.h ****           checksum_ += data;
 189:./ros_lib/ros/node_handle.h ****           if( mode_ == MODE_MESSAGE ){        /* message data being recieved */
 190:./ros_lib/ros/node_handle.h ****             message_in[index_++] = data;
 191:./ros_lib/ros/node_handle.h ****             bytes_--;
 192:./ros_lib/ros/node_handle.h ****             if(bytes_ == 0)                  /* is message complete? if so, checksum */
 193:./ros_lib/ros/node_handle.h ****               mode_ = MODE_MSG_CHECKSUM;
 194:./ros_lib/ros/node_handle.h ****           }else if( mode_ == MODE_FIRST_FF ){
 195:./ros_lib/ros/node_handle.h ****             if(data == 0xff){
 196:./ros_lib/ros/node_handle.h ****               mode_++;
 197:./ros_lib/ros/node_handle.h ****               last_msg_timeout_time = c_time + MSG_TIMEOUT;
 198:./ros_lib/ros/node_handle.h ****             }
 199:./ros_lib/ros/node_handle.h ****           }else if( mode_ == MODE_PROTOCOL_VER ){
 200:./ros_lib/ros/node_handle.h ****             if(data == PROTOCOL_VER){
 201:./ros_lib/ros/node_handle.h ****               mode_++;
 202:./ros_lib/ros/node_handle.h ****             }else{
 203:./ros_lib/ros/node_handle.h ****               mode_ = MODE_FIRST_FF;
 204:./ros_lib/ros/node_handle.h ****               if (configured_ == false) {
 205:./ros_lib/ros/node_handle.h ****                   requestSyncTime(); 	/* send a msg back showing our protocol version */
 206:./ros_lib/ros/node_handle.h ****               }
 207:./ros_lib/ros/node_handle.h ****             }
 208:./ros_lib/ros/node_handle.h **** 	  }else if( mode_ == MODE_SIZE_L ){   /* bottom half of message size */
 209:./ros_lib/ros/node_handle.h ****             bytes_ = data;
 210:./ros_lib/ros/node_handle.h ****             index_ = 0;
 211:./ros_lib/ros/node_handle.h ****             mode_++;
 212:./ros_lib/ros/node_handle.h ****             checksum_ = data;               /* first byte for calculating size checksum */
 213:./ros_lib/ros/node_handle.h ****           }else if( mode_ == MODE_SIZE_H ){   /* top half of message size */
 214:./ros_lib/ros/node_handle.h ****             bytes_ += data<<8;
 215:./ros_lib/ros/node_handle.h **** 	    mode_++;
 216:./ros_lib/ros/node_handle.h ****           }else if( mode_ == MODE_SIZE_CHECKSUM ){  
 217:./ros_lib/ros/node_handle.h ****             if( (checksum_%256) == 255)
 218:./ros_lib/ros/node_handle.h **** 	      mode_++;
 219:./ros_lib/ros/node_handle.h **** 	    else {
 220:./ros_lib/ros/node_handle.h **** 	      mode_ = MODE_FIRST_FF;          /* Abandon the frame if the msg len is wrong */
 221:./ros_lib/ros/node_handle.h ****             }
 222:./ros_lib/ros/node_handle.h **** 	  }else if( mode_ == MODE_TOPIC_L ){  /* bottom half of topic id */
 223:./ros_lib/ros/node_handle.h ****             topic_ = data;
 224:./ros_lib/ros/node_handle.h ****             mode_++;
 225:./ros_lib/ros/node_handle.h ****             checksum_ = data;               /* first byte included in checksum */
 226:./ros_lib/ros/node_handle.h ****           }else if( mode_ == MODE_TOPIC_H ){  /* top half of topic id */
 227:./ros_lib/ros/node_handle.h ****             topic_ += data<<8;
 228:./ros_lib/ros/node_handle.h ****             mode_ = MODE_MESSAGE;
 229:./ros_lib/ros/node_handle.h ****             if(bytes_ == 0)
 230:./ros_lib/ros/node_handle.h ****               mode_ = MODE_MSG_CHECKSUM;  
 231:./ros_lib/ros/node_handle.h ****           }else if( mode_ == MODE_MSG_CHECKSUM ){ /* do checksum */
 232:./ros_lib/ros/node_handle.h ****             mode_ = MODE_FIRST_FF;
 233:./ros_lib/ros/node_handle.h ****             if( (checksum_%256) == 255){
 234:./ros_lib/ros/node_handle.h ****               if(topic_ == rosserial_msgs::TopicInfo::ID_PUBLISHER){
 235:./ros_lib/ros/node_handle.h ****                 requestSyncTime();
 236:./ros_lib/ros/node_handle.h ****                 negotiateTopics();
 237:./ros_lib/ros/node_handle.h ****                 last_sync_time = c_time;
 238:./ros_lib/ros/node_handle.h ****                 last_sync_receive_time = c_time;
 239:./ros_lib/ros/node_handle.h ****                 return -1;
 240:./ros_lib/ros/node_handle.h ****               }else if(topic_ == rosserial_msgs::TopicInfo::ID_TIME){
 241:./ros_lib/ros/node_handle.h ****                 syncTime(message_in);
 242:./ros_lib/ros/node_handle.h ****               #if PARAM_REQ_SUPPORT
ARM GAS  C:\DOCUME~1\Chuck\LOCALS~1\Temp\cc9ZFrOQ.s 			page 22


 243:./ros_lib/ros/node_handle.h ****               }else if (topic_ == rosserial_msgs::TopicInfo::ID_PARAMETER_REQUEST){
 244:./ros_lib/ros/node_handle.h ****                   req_param_resp.deserialize(message_in);
 245:./ros_lib/ros/node_handle.h ****                   param_recieved= true;
 246:./ros_lib/ros/node_handle.h ****               #endif
 247:./ros_lib/ros/node_handle.h ****               }else{
 248:./ros_lib/ros/node_handle.h ****                 if(subscribers[topic_-100])
 249:./ros_lib/ros/node_handle.h ****                   subscribers[topic_-100]->callback( message_in );
 250:./ros_lib/ros/node_handle.h ****               }
 251:./ros_lib/ros/node_handle.h ****             }
 252:./ros_lib/ros/node_handle.h ****           }
 253:./ros_lib/ros/node_handle.h ****         }
 254:./ros_lib/ros/node_handle.h **** 
 255:./ros_lib/ros/node_handle.h ****         /* occasionally sync time */
 256:./ros_lib/ros/node_handle.h ****         if( configured_ && ((c_time-last_sync_time) > (SYNC_SECONDS*500) )){
 257:./ros_lib/ros/node_handle.h ****           requestSyncTime();
 258:./ros_lib/ros/node_handle.h ****           last_sync_time = c_time;
 259:./ros_lib/ros/node_handle.h ****         }
 260:./ros_lib/ros/node_handle.h **** 
 261:./ros_lib/ros/node_handle.h ****         return 0;
 262:./ros_lib/ros/node_handle.h ****       }
 263:./ros_lib/ros/node_handle.h **** 
 264:./ros_lib/ros/node_handle.h **** 
 265:./ros_lib/ros/node_handle.h ****       /* Are we connected to the PC? */
 266:./ros_lib/ros/node_handle.h ****       virtual bool connected() {
 267:./ros_lib/ros/node_handle.h ****         return configured_;
 268:./ros_lib/ros/node_handle.h ****       };
 269:./ros_lib/ros/node_handle.h **** 
 270:./ros_lib/ros/node_handle.h ****       /********************************************************************
 271:./ros_lib/ros/node_handle.h ****        * Time functions
 272:./ros_lib/ros/node_handle.h ****        */
 273:./ros_lib/ros/node_handle.h **** 
 274:./ros_lib/ros/node_handle.h ****       void requestSyncTime()
 275:./ros_lib/ros/node_handle.h ****       {
 276:./ros_lib/ros/node_handle.h ****         std_msgs::Time t;
 277:./ros_lib/ros/node_handle.h ****         publish(rosserial_msgs::TopicInfo::ID_TIME, &t);
 278:./ros_lib/ros/node_handle.h ****         rt_time = hardware_.time();
 279:./ros_lib/ros/node_handle.h ****       }
 280:./ros_lib/ros/node_handle.h **** 
 281:./ros_lib/ros/node_handle.h ****       void syncTime( unsigned char * data )
 282:./ros_lib/ros/node_handle.h ****       {
 283:./ros_lib/ros/node_handle.h ****         std_msgs::Time t;
 284:./ros_lib/ros/node_handle.h ****         unsigned long offset = hardware_.time() - rt_time;
 285:./ros_lib/ros/node_handle.h **** 
 286:./ros_lib/ros/node_handle.h ****         t.deserialize(data);
 287:./ros_lib/ros/node_handle.h ****         t.data.sec += offset/1000;
 288:./ros_lib/ros/node_handle.h ****         t.data.nsec += (offset%1000)*1000000UL;
 289:./ros_lib/ros/node_handle.h **** 
 290:./ros_lib/ros/node_handle.h ****         this->setNow(t.data);
 291:./ros_lib/ros/node_handle.h ****         last_sync_receive_time = hardware_.time();
 292:./ros_lib/ros/node_handle.h ****       }
 293:./ros_lib/ros/node_handle.h **** 
 294:./ros_lib/ros/node_handle.h ****       Time now(){
 295:./ros_lib/ros/node_handle.h ****         unsigned long ms = hardware_.time();
 296:./ros_lib/ros/node_handle.h ****         Time current_time;
 297:./ros_lib/ros/node_handle.h ****         current_time.sec = ms/1000 + sec_offset;
 298:./ros_lib/ros/node_handle.h ****         current_time.nsec = (ms%1000)*1000000UL + nsec_offset;
 299:./ros_lib/ros/node_handle.h ****         normalizeSecNSec(current_time.sec, current_time.nsec);
ARM GAS  C:\DOCUME~1\Chuck\LOCALS~1\Temp\cc9ZFrOQ.s 			page 23


 300:./ros_lib/ros/node_handle.h ****         return current_time;
 301:./ros_lib/ros/node_handle.h ****       }
 302:./ros_lib/ros/node_handle.h **** 
 303:./ros_lib/ros/node_handle.h ****       void setNow( Time & new_now )
 304:./ros_lib/ros/node_handle.h ****       {
 305:./ros_lib/ros/node_handle.h ****         unsigned long ms = hardware_.time();
 306:./ros_lib/ros/node_handle.h ****         sec_offset = new_now.sec - ms/1000 - 1;
 307:./ros_lib/ros/node_handle.h ****         nsec_offset = new_now.nsec - (ms%1000)*1000000UL + 1000000000UL;
 308:./ros_lib/ros/node_handle.h ****         normalizeSecNSec(sec_offset, nsec_offset);
 309:./ros_lib/ros/node_handle.h ****       }
 310:./ros_lib/ros/node_handle.h **** 
 311:./ros_lib/ros/node_handle.h ****       /********************************************************************
 312:./ros_lib/ros/node_handle.h ****        * Topic Management 
 313:./ros_lib/ros/node_handle.h ****        */
 314:./ros_lib/ros/node_handle.h **** 
 315:./ros_lib/ros/node_handle.h ****       /* Register a new publisher */    
 316:./ros_lib/ros/node_handle.h ****       bool advertise(Publisher & p)
 317:./ros_lib/ros/node_handle.h ****       {
 318:./ros_lib/ros/node_handle.h ****         for(int i = 0; i < MAX_PUBLISHERS; i++){
 319:./ros_lib/ros/node_handle.h ****           if(publishers[i] == 0){ // empty slot
 320:./ros_lib/ros/node_handle.h ****             publishers[i] = &p;
 321:./ros_lib/ros/node_handle.h ****             p.id_ = i+100+MAX_SUBSCRIBERS;
 322:./ros_lib/ros/node_handle.h ****             p.nh_ = this;
 323:./ros_lib/ros/node_handle.h ****             return true;
 324:./ros_lib/ros/node_handle.h ****           }
 325:./ros_lib/ros/node_handle.h ****         }
 326:./ros_lib/ros/node_handle.h ****         return false;
 327:./ros_lib/ros/node_handle.h ****       }
 328:./ros_lib/ros/node_handle.h **** 
 329:./ros_lib/ros/node_handle.h ****       /* Register a new subscriber */
 330:./ros_lib/ros/node_handle.h ****       template<typename MsgT>
 331:./ros_lib/ros/node_handle.h ****       bool subscribe(Subscriber< MsgT> & s){
 685              		.loc 6 331 0
 686              		.cfi_startproc
 687 0000 90B5     		push	{r4, r7, lr}
 688              	.LCFI33:
 689              		.cfi_def_cfa_offset 12
 690              		.cfi_offset 4, -12
 691              		.cfi_offset 7, -8
 692              		.cfi_offset 14, -4
 693 0002 85B0     		sub	sp, sp, #20
 694              	.LCFI34:
 695              		.cfi_def_cfa_offset 32
 696 0004 00AF     		add	r7, sp, #0
 697              	.LCFI35:
 698              		.cfi_def_cfa_register 7
 699 0006 7860     		str	r0, [r7, #4]
 700 0008 3960     		str	r1, [r7]
 701              	.LBB8:
 702              	.LBB9:
 332:./ros_lib/ros/node_handle.h ****         for(int i = 0; i < MAX_SUBSCRIBERS; i++){
 703              		.loc 6 332 0
 704 000a 0023     		mov	r3, #0
 705 000c FB60     		str	r3, [r7, #12]
 706 000e 16E0     		b	.L49
 707              	.L52:
 333:./ros_lib/ros/node_handle.h ****           if(subscribers[i] == 0){ // empty slot
ARM GAS  C:\DOCUME~1\Chuck\LOCALS~1\Temp\cc9ZFrOQ.s 			page 24


 708              		.loc 6 333 0
 709 0010 7B68     		ldr	r3, [r7, #4]
 710 0012 FA68     		ldr	r2, [r7, #12]
 711 0014 7E32     		add	r2, r2, #126
 712 0016 9200     		lsl	r2, r2, #2
 713 0018 D358     		ldr	r3, [r2, r3]
 714 001a 002B     		cmp	r3, #0
 715 001c 0CD1     		bne	.L50
 334:./ros_lib/ros/node_handle.h ****             subscribers[i] = (Subscriber_*) &s;
 716              		.loc 6 334 0
 717 001e 3968     		ldr	r1, [r7]
 718 0020 7B68     		ldr	r3, [r7, #4]
 719 0022 FA68     		ldr	r2, [r7, #12]
 720 0024 7E32     		add	r2, r2, #126
 721 0026 9200     		lsl	r2, r2, #2
 722 0028 D150     		str	r1, [r2, r3]
 335:./ros_lib/ros/node_handle.h ****             s.id_ = i+100;
 723              		.loc 6 335 0
 724 002a FB68     		ldr	r3, [r7, #12]
 725 002c 1A1C     		mov	r2, r3
 726 002e 6432     		add	r2, r2, #100
 727 0030 3B68     		ldr	r3, [r7]
 728 0032 5A60     		str	r2, [r3, #4]
 336:./ros_lib/ros/node_handle.h ****             return true;
 729              		.loc 6 336 0
 730 0034 0123     		mov	r3, #1
 731 0036 0EE0     		b	.L51
 732              	.L50:
 332:./ros_lib/ros/node_handle.h ****         for(int i = 0; i < MAX_SUBSCRIBERS; i++){
 733              		.loc 6 332 0
 734 0038 FB68     		ldr	r3, [r7, #12]
 735 003a 0133     		add	r3, r3, #1
 736 003c FB60     		str	r3, [r7, #12]
 737              	.L49:
 332:./ros_lib/ros/node_handle.h ****         for(int i = 0; i < MAX_SUBSCRIBERS; i++){
 738              		.loc 6 332 0 is_stmt 0 discriminator 1
 739 003e FB68     		ldr	r3, [r7, #12]
 740 0040 0922     		mov	r2, #9
 741 0042 D80F     		lsr	r0, r3, #31
 742 0044 D117     		asr	r1, r2, #31
 743 0046 041C     		mov	r4, r0
 744 0048 9A42     		cmp	r2, r3
 745 004a 4C41     		adc	r4, r4, r1
 746 004c 231C     		mov	r3, r4
 747 004e DBB2     		uxtb	r3, r3
 748 0050 002B     		cmp	r3, #0
 749 0052 DDD1     		bne	.L52
 750              	.LBE9:
 337:./ros_lib/ros/node_handle.h ****           }
 338:./ros_lib/ros/node_handle.h ****         }
 339:./ros_lib/ros/node_handle.h ****         return false;
 751              		.loc 6 339 0 is_stmt 1
 752 0054 0023     		mov	r3, #0
 753              	.L51:
 754              	.LBE8:
 340:./ros_lib/ros/node_handle.h ****       }
 755              		.loc 6 340 0
ARM GAS  C:\DOCUME~1\Chuck\LOCALS~1\Temp\cc9ZFrOQ.s 			page 25


 756 0056 181C     		mov	r0, r3
 757 0058 BD46     		mov	sp, r7
 758 005a 05B0     		add	sp, sp, #20
 759              		@ sp needed for prologue
 760 005c 90BD     		pop	{r4, r7, pc}
 761              		.cfi_endproc
 762              	.LFE157:
 763              		.size	_ZN3ros11NodeHandle_I13Psoc4HardwareLi10ELi20ELi200ELi200EE9subscribeIN8std_msgs5Int16EEEbRN
 764              		.weak	_ZTVN3ros10SubscriberIN8std_msgs5Int16EEE
 765 005e C046     		.section	.rodata._ZTVN3ros10SubscriberIN8std_msgs5Int16EEE,"aG",%progbits,_ZTVN3ros10SubscriberIN8
 766              		.align	3
 767              		.type	_ZTVN3ros10SubscriberIN8std_msgs5Int16EEE, %object
 768              		.size	_ZTVN3ros10SubscriberIN8std_msgs5Int16EEE, 24
 769              	_ZTVN3ros10SubscriberIN8std_msgs5Int16EEE:
 770 0000 00000000 		.word	0
 771 0004 00000000 		.word	0
 772 0008 00000000 		.word	_ZN3ros10SubscriberIN8std_msgs5Int16EE8callbackEPh
 773 000c 00000000 		.word	_ZN3ros10SubscriberIN8std_msgs5Int16EE15getEndpointTypeEv
 774 0010 00000000 		.word	_ZN3ros10SubscriberIN8std_msgs5Int16EE10getMsgTypeEv
 775 0014 00000000 		.word	_ZN3ros10SubscriberIN8std_msgs5Int16EE9getMsgMD5Ev
 776              		.weak	_ZTVN8std_msgs5Int16E
 777              		.section	.rodata._ZTVN8std_msgs5Int16E,"aG",%progbits,_ZTVN8std_msgs5Int16E,comdat
 778              		.align	3
 779              		.type	_ZTVN8std_msgs5Int16E, %object
 780              		.size	_ZTVN8std_msgs5Int16E, 24
 781              	_ZTVN8std_msgs5Int16E:
 782 0000 00000000 		.word	0
 783 0004 00000000 		.word	0
 784 0008 00000000 		.word	_ZNK8std_msgs5Int169serializeEPh
 785 000c 00000000 		.word	_ZN8std_msgs5Int1611deserializeEPh
 786 0010 00000000 		.word	_ZN8std_msgs5Int167getTypeEv
 787 0014 00000000 		.word	_ZN8std_msgs5Int166getMD5Ev
 788              		.weak	_ZTVN3ros11Subscriber_E
 789              		.section	.rodata._ZTVN3ros11Subscriber_E,"aG",%progbits,_ZTVN3ros11Subscriber_E,comdat
 790              		.align	3
 791              		.type	_ZTVN3ros11Subscriber_E, %object
 792              		.size	_ZTVN3ros11Subscriber_E, 24
 793              	_ZTVN3ros11Subscriber_E:
 794 0000 00000000 		.word	0
 795 0004 00000000 		.word	0
 796 0008 00000000 		.word	__cxa_pure_virtual
 797 000c 00000000 		.word	__cxa_pure_virtual
 798 0010 00000000 		.word	__cxa_pure_virtual
 799 0014 00000000 		.word	__cxa_pure_virtual
 800              		.weak	_ZTVN3ros3MsgE
 801              		.section	.rodata._ZTVN3ros3MsgE,"aG",%progbits,_ZTVN3ros3MsgE,comdat
 802              		.align	3
 803              		.type	_ZTVN3ros3MsgE, %object
 804              		.size	_ZTVN3ros3MsgE, 24
 805              	_ZTVN3ros3MsgE:
 806 0000 00000000 		.word	0
 807 0004 00000000 		.word	0
 808 0008 00000000 		.word	__cxa_pure_virtual
 809 000c 00000000 		.word	__cxa_pure_virtual
 810 0010 00000000 		.word	__cxa_pure_virtual
 811 0014 00000000 		.word	__cxa_pure_virtual
 812              		.section	.rodata
ARM GAS  C:\DOCUME~1\Chuck\LOCALS~1\Temp\cc9ZFrOQ.s 			page 26


 813 0031 000000   		.align	2
 814              	.LC16:
 815 0034 73746570 		.ascii	"stepper_move\000"
 815      7065725F 
 815      6D6F7665 
 815      00
 816              		.section	.text._Z41__static_initialization_and_destruction_0ii,"ax",%progbits
 817              		.align	2
 818              		.code	16
 819              		.thumb_func
 820              		.type	_Z41__static_initialization_and_destruction_0ii, %function
 821              	_Z41__static_initialization_and_destruction_0ii:
 822              	.LFB158:
  52:.\ros_lib\examples\StepperControl/StepperControl.cpp **** 
  53:.\ros_lib\examples\StepperControl/StepperControl.cpp **** } // namespace StepperControl
 823              		.loc 3 53 0
 824              		.cfi_startproc
 825 0000 80B5     		push	{r7, lr}
 826              	.LCFI36:
 827              		.cfi_def_cfa_offset 8
 828              		.cfi_offset 7, -8
 829              		.cfi_offset 14, -4
 830 0002 82B0     		sub	sp, sp, #8
 831              	.LCFI37:
 832              		.cfi_def_cfa_offset 16
 833 0004 00AF     		add	r7, sp, #0
 834              	.LCFI38:
 835              		.cfi_def_cfa_register 7
 836 0006 7860     		str	r0, [r7, #4]
 837 0008 3960     		str	r1, [r7]
 838              		.loc 3 53 0
 839 000a 7B68     		ldr	r3, [r7, #4]
 840 000c 012B     		cmp	r3, #1
 841 000e 0CD1     		bne	.L53
 842              		.loc 3 53 0 is_stmt 0 discriminator 1
 843 0010 3A68     		ldr	r2, [r7]
 844 0012 074B     		ldr	r3, .L55
 845 0014 9A42     		cmp	r2, r3
 846 0016 08D1     		bne	.L53
  30:.\ros_lib\examples\StepperControl/StepperControl.cpp **** ros::Subscriber<std_msgs::Int16> sub("stepper_move", &messageCb );
 847              		.loc 3 30 0 is_stmt 1
 848 0018 0649     		ldr	r1, .L55+4
 849 001a 074A     		ldr	r2, .L55+8
 850 001c 074B     		ldr	r3, .L55+12
 851 001e 081C     		mov	r0, r1
 852 0020 111C     		mov	r1, r2
 853 0022 1A1C     		mov	r2, r3
 854 0024 0123     		mov	r3, #1
 855 0026 FFF7FEFF 		bl	_ZN3ros10SubscriberIN8std_msgs5Int16EEC1EPKcPFvRKS2_Ei
 856              	.L53:
 857              		.loc 3 53 0
 858 002a BD46     		mov	sp, r7
 859 002c 02B0     		add	sp, sp, #8
 860              		@ sp needed for prologue
 861 002e 80BD     		pop	{r7, pc}
 862              	.L56:
 863              		.align	2
ARM GAS  C:\DOCUME~1\Chuck\LOCALS~1\Temp\cc9ZFrOQ.s 			page 27


 864              	.L55:
 865 0030 FFFF0000 		.word	65535
 866 0034 00000000 		.word	_ZN14StepperControl3subE
 867 0038 34000000 		.word	.LC16
 868 003c 00000000 		.word	_ZN14StepperControl9messageCbERKN8std_msgs5Int16E
 869              		.cfi_endproc
 870              	.LFE158:
 871              		.size	_Z41__static_initialization_and_destruction_0ii, .-_Z41__static_initialization_and_destructi
 872              		.section	.rodata
 873              		.type	_ZN14StepperControlL13msec_per_stepE, %object
 874              		.size	_ZN14StepperControlL13msec_per_stepE, 1
 875              	_ZN14StepperControlL13msec_per_stepE:
 876 0041 0A       		.byte	10
 877              		.type	_ZN14StepperControlL6PRESETE, %object
 878              		.size	_ZN14StepperControlL6PRESETE, 1
 879              	_ZN14StepperControlL6PRESETE:
 880 0042 04       		.byte	4
 881              		.type	_ZN14StepperControlL7STEP_UPE, %object
 882              		.size	_ZN14StepperControlL7STEP_UPE, 1
 883              	_ZN14StepperControlL7STEP_UPE:
 884 0043 06       		.byte	6
 885              		.type	_ZN14StepperControlL7STEP_DNE, %object
 886              		.size	_ZN14StepperControlL7STEP_DNE, 1
 887              	_ZN14StepperControlL7STEP_DNE:
 888 0044 07       		.byte	7
 889 0045 000000   		.align	2
 890              		.type	_ZN14rosserial_msgsL12REQUESTPARAME, %object
 891              		.size	_ZN14rosserial_msgsL12REQUESTPARAME, 28
 892              	_ZN14rosserial_msgsL12REQUESTPARAME:
 893 0048 726F7373 		.ascii	"rosserial_msgs/RequestParam\000"
 893      65726961 
 893      6C5F6D73 
 893      67732F52 
 893      65717565 
 894              		.section	.text._ZN3ros10SubscriberIN8std_msgs5Int16EE8callbackEPh,"axG",%progbits,_ZN3ros10Subscri
 895              		.align	2
 896              		.weak	_ZN3ros10SubscriberIN8std_msgs5Int16EE8callbackEPh
 897              		.code	16
 898              		.thumb_func
 899              		.type	_ZN3ros10SubscriberIN8std_msgs5Int16EE8callbackEPh, %function
 900              	_ZN3ros10SubscriberIN8std_msgs5Int16EE8callbackEPh:
 901              	.LFB159:
  71:./ros_lib/ros/subscriber.h ****       // callback with message pointer allows use of member-function callbacks
  72:./ros_lib/ros/subscriber.h ****       typedef void(*CallbackTPtr)(const MsgT*);
  73:./ros_lib/ros/subscriber.h ****       Subscriber(const char * topic_name, CallbackTPtr cbp, int endpoint=rosserial_msgs::TopicInfo:
  74:./ros_lib/ros/subscriber.h ****         cb_(NULL), cbp_(cbp),
  75:./ros_lib/ros/subscriber.h ****         endpoint_(endpoint)
  76:./ros_lib/ros/subscriber.h ****       {
  77:./ros_lib/ros/subscriber.h ****         topic_ = topic_name;
  78:./ros_lib/ros/subscriber.h ****       };
  79:./ros_lib/ros/subscriber.h ****       // uninitialized callback pointer
  80:./ros_lib/ros/subscriber.h ****       Subscriber(int endpoint=rosserial_msgs::TopicInfo::ID_SUBSCRIBER) :
  81:./ros_lib/ros/subscriber.h ****         cb_(NULL), cbp_(NULL),
  82:./ros_lib/ros/subscriber.h ****         endpoint_(endpoint)
  83:./ros_lib/ros/subscriber.h ****       {
  84:./ros_lib/ros/subscriber.h ****       };
  85:./ros_lib/ros/subscriber.h **** 
ARM GAS  C:\DOCUME~1\Chuck\LOCALS~1\Temp\cc9ZFrOQ.s 			page 28


  86:./ros_lib/ros/subscriber.h ****       virtual void callback(unsigned char* data){
 902              		.loc 4 86 0
 903              		.cfi_startproc
 904 0000 80B5     		push	{r7, lr}
 905              	.LCFI39:
 906              		.cfi_def_cfa_offset 8
 907              		.cfi_offset 7, -8
 908              		.cfi_offset 14, -4
 909 0002 82B0     		sub	sp, sp, #8
 910              	.LCFI40:
 911              		.cfi_def_cfa_offset 16
 912 0004 00AF     		add	r7, sp, #0
 913              	.LCFI41:
 914              		.cfi_def_cfa_register 7
 915 0006 7860     		str	r0, [r7, #4]
 916 0008 3960     		str	r1, [r7]
  87:./ros_lib/ros/subscriber.h ****         msg.deserialize(data);
 917              		.loc 4 87 0
 918 000a 7B68     		ldr	r3, [r7, #4]
 919 000c 1A1C     		mov	r2, r3
 920 000e 0C32     		add	r2, r2, #12
 921 0010 3B68     		ldr	r3, [r7]
 922 0012 101C     		mov	r0, r2
 923 0014 191C     		mov	r1, r3
 924 0016 FFF7FEFF 		bl	_ZN8std_msgs5Int1611deserializeEPh
  88:./ros_lib/ros/subscriber.h ****         if (cb_) {
 925              		.loc 4 88 0
 926 001a 7B68     		ldr	r3, [r7, #4]
 927 001c 5B69     		ldr	r3, [r3, #20]
 928 001e 002B     		cmp	r3, #0
 929 0020 06D0     		beq	.L58
  89:./ros_lib/ros/subscriber.h ****           this->cb_(msg);
 930              		.loc 4 89 0
 931 0022 7B68     		ldr	r3, [r7, #4]
 932 0024 5B69     		ldr	r3, [r3, #20]
 933 0026 7A68     		ldr	r2, [r7, #4]
 934 0028 0C32     		add	r2, r2, #12
 935 002a 101C     		mov	r0, r2
 936 002c 9847     		blx	r3
 937 002e 09E0     		b	.L57
 938              	.L58:
  90:./ros_lib/ros/subscriber.h ****         } else if (cbp_) {
 939              		.loc 4 90 0
 940 0030 7B68     		ldr	r3, [r7, #4]
 941 0032 9B69     		ldr	r3, [r3, #24]
 942 0034 002B     		cmp	r3, #0
 943 0036 05D0     		beq	.L57
  91:./ros_lib/ros/subscriber.h ****           this->cbp_(&msg);
 944              		.loc 4 91 0
 945 0038 7B68     		ldr	r3, [r7, #4]
 946 003a 9B69     		ldr	r3, [r3, #24]
 947 003c 7A68     		ldr	r2, [r7, #4]
 948 003e 0C32     		add	r2, r2, #12
 949 0040 101C     		mov	r0, r2
 950 0042 9847     		blx	r3
 951              	.L57:
  92:./ros_lib/ros/subscriber.h ****         }
ARM GAS  C:\DOCUME~1\Chuck\LOCALS~1\Temp\cc9ZFrOQ.s 			page 29


  93:./ros_lib/ros/subscriber.h ****       }
 952              		.loc 4 93 0
 953 0044 BD46     		mov	sp, r7
 954 0046 02B0     		add	sp, sp, #8
 955              		@ sp needed for prologue
 956 0048 80BD     		pop	{r7, pc}
 957              		.cfi_endproc
 958              	.LFE159:
 959              		.size	_ZN3ros10SubscriberIN8std_msgs5Int16EE8callbackEPh, .-_ZN3ros10SubscriberIN8std_msgs5Int16EE
 960 004a C046     		.section	.text._ZN3ros10SubscriberIN8std_msgs5Int16EE15getEndpointTypeEv,"axG",%progbits,_ZN3ros10
 961              		.align	2
 962              		.weak	_ZN3ros10SubscriberIN8std_msgs5Int16EE15getEndpointTypeEv
 963              		.code	16
 964              		.thumb_func
 965              		.type	_ZN3ros10SubscriberIN8std_msgs5Int16EE15getEndpointTypeEv, %function
 966              	_ZN3ros10SubscriberIN8std_msgs5Int16EE15getEndpointTypeEv:
 967              	.LFB160:
  94:./ros_lib/ros/subscriber.h **** 
  95:./ros_lib/ros/subscriber.h ****       virtual const char * getMsgType(){ return this->msg.getType(); }
  96:./ros_lib/ros/subscriber.h ****       virtual const char * getMsgMD5(){ return this->msg.getMD5(); }
  97:./ros_lib/ros/subscriber.h ****       virtual int getEndpointType(){ return endpoint_; }
 968              		.loc 4 97 0
 969              		.cfi_startproc
 970 0000 80B5     		push	{r7, lr}
 971              	.LCFI42:
 972              		.cfi_def_cfa_offset 8
 973              		.cfi_offset 7, -8
 974              		.cfi_offset 14, -4
 975 0002 82B0     		sub	sp, sp, #8
 976              	.LCFI43:
 977              		.cfi_def_cfa_offset 16
 978 0004 00AF     		add	r7, sp, #0
 979              	.LCFI44:
 980              		.cfi_def_cfa_register 7
 981 0006 7860     		str	r0, [r7, #4]
 982              		.loc 4 97 0
 983 0008 7B68     		ldr	r3, [r7, #4]
 984 000a DB69     		ldr	r3, [r3, #28]
 985 000c 181C     		mov	r0, r3
 986 000e BD46     		mov	sp, r7
 987 0010 02B0     		add	sp, sp, #8
 988              		@ sp needed for prologue
 989 0012 80BD     		pop	{r7, pc}
 990              		.cfi_endproc
 991              	.LFE160:
 992              		.size	_ZN3ros10SubscriberIN8std_msgs5Int16EE15getEndpointTypeEv, .-_ZN3ros10SubscriberIN8std_msgs5
 993              		.section	.text._ZN3ros10SubscriberIN8std_msgs5Int16EE10getMsgTypeEv,"axG",%progbits,_ZN3ros10Subsc
 994              		.align	2
 995              		.weak	_ZN3ros10SubscriberIN8std_msgs5Int16EE10getMsgTypeEv
 996              		.code	16
 997              		.thumb_func
 998              		.type	_ZN3ros10SubscriberIN8std_msgs5Int16EE10getMsgTypeEv, %function
 999              	_ZN3ros10SubscriberIN8std_msgs5Int16EE10getMsgTypeEv:
 1000              	.LFB161:
  95:./ros_lib/ros/subscriber.h ****       virtual const char * getMsgType(){ return this->msg.getType(); }
 1001              		.loc 4 95 0
 1002              		.cfi_startproc
ARM GAS  C:\DOCUME~1\Chuck\LOCALS~1\Temp\cc9ZFrOQ.s 			page 30


 1003 0000 80B5     		push	{r7, lr}
 1004              	.LCFI45:
 1005              		.cfi_def_cfa_offset 8
 1006              		.cfi_offset 7, -8
 1007              		.cfi_offset 14, -4
 1008 0002 82B0     		sub	sp, sp, #8
 1009              	.LCFI46:
 1010              		.cfi_def_cfa_offset 16
 1011 0004 00AF     		add	r7, sp, #0
 1012              	.LCFI47:
 1013              		.cfi_def_cfa_register 7
 1014 0006 7860     		str	r0, [r7, #4]
  95:./ros_lib/ros/subscriber.h ****       virtual const char * getMsgType(){ return this->msg.getType(); }
 1015              		.loc 4 95 0
 1016 0008 7B68     		ldr	r3, [r7, #4]
 1017 000a 0C33     		add	r3, r3, #12
 1018 000c 181C     		mov	r0, r3
 1019 000e FFF7FEFF 		bl	_ZN8std_msgs5Int167getTypeEv
 1020 0012 031C     		mov	r3, r0
 1021 0014 181C     		mov	r0, r3
 1022 0016 BD46     		mov	sp, r7
 1023 0018 02B0     		add	sp, sp, #8
 1024              		@ sp needed for prologue
 1025 001a 80BD     		pop	{r7, pc}
 1026              		.cfi_endproc
 1027              	.LFE161:
 1028              		.size	_ZN3ros10SubscriberIN8std_msgs5Int16EE10getMsgTypeEv, .-_ZN3ros10SubscriberIN8std_msgs5Int16
 1029              		.section	.text._ZN3ros10SubscriberIN8std_msgs5Int16EE9getMsgMD5Ev,"axG",%progbits,_ZN3ros10Subscri
 1030              		.align	2
 1031              		.weak	_ZN3ros10SubscriberIN8std_msgs5Int16EE9getMsgMD5Ev
 1032              		.code	16
 1033              		.thumb_func
 1034              		.type	_ZN3ros10SubscriberIN8std_msgs5Int16EE9getMsgMD5Ev, %function
 1035              	_ZN3ros10SubscriberIN8std_msgs5Int16EE9getMsgMD5Ev:
 1036              	.LFB162:
  96:./ros_lib/ros/subscriber.h ****       virtual const char * getMsgMD5(){ return this->msg.getMD5(); }
 1037              		.loc 4 96 0
 1038              		.cfi_startproc
 1039 0000 80B5     		push	{r7, lr}
 1040              	.LCFI48:
 1041              		.cfi_def_cfa_offset 8
 1042              		.cfi_offset 7, -8
 1043              		.cfi_offset 14, -4
 1044 0002 82B0     		sub	sp, sp, #8
 1045              	.LCFI49:
 1046              		.cfi_def_cfa_offset 16
 1047 0004 00AF     		add	r7, sp, #0
 1048              	.LCFI50:
 1049              		.cfi_def_cfa_register 7
 1050 0006 7860     		str	r0, [r7, #4]
  96:./ros_lib/ros/subscriber.h ****       virtual const char * getMsgMD5(){ return this->msg.getMD5(); }
 1051              		.loc 4 96 0
 1052 0008 7B68     		ldr	r3, [r7, #4]
 1053 000a 0C33     		add	r3, r3, #12
 1054 000c 181C     		mov	r0, r3
 1055 000e FFF7FEFF 		bl	_ZN8std_msgs5Int166getMD5Ev
 1056 0012 031C     		mov	r3, r0
ARM GAS  C:\DOCUME~1\Chuck\LOCALS~1\Temp\cc9ZFrOQ.s 			page 31


 1057 0014 181C     		mov	r0, r3
 1058 0016 BD46     		mov	sp, r7
 1059 0018 02B0     		add	sp, sp, #8
 1060              		@ sp needed for prologue
 1061 001a 80BD     		pop	{r7, pc}
 1062              		.cfi_endproc
 1063              	.LFE162:
 1064              		.size	_ZN3ros10SubscriberIN8std_msgs5Int16EE9getMsgMD5Ev, .-_ZN3ros10SubscriberIN8std_msgs5Int16EE
 1065              		.section	.text._GLOBAL__sub_I__ZN14StepperControl15steps_remainingE,"ax",%progbits
 1066              		.align	2
 1067              		.code	16
 1068              		.thumb_func
 1069              		.type	_GLOBAL__sub_I__ZN14StepperControl15steps_remainingE, %function
 1070              	_GLOBAL__sub_I__ZN14StepperControl15steps_remainingE:
 1071              	.LFB163:
 1072              		.loc 3 53 0
 1073              		.cfi_startproc
 1074 0000 80B5     		push	{r7, lr}
 1075              	.LCFI51:
 1076              		.cfi_def_cfa_offset 8
 1077              		.cfi_offset 7, -8
 1078              		.cfi_offset 14, -4
 1079 0002 00AF     		add	r7, sp, #0
 1080              	.LCFI52:
 1081              		.cfi_def_cfa_register 7
 1082              		.loc 3 53 0
 1083 0004 034B     		ldr	r3, .L67
 1084 0006 0120     		mov	r0, #1
 1085 0008 191C     		mov	r1, r3
 1086 000a FFF7FEFF 		bl	_Z41__static_initialization_and_destruction_0ii
 1087 000e BD46     		mov	sp, r7
 1088              		@ sp needed for prologue
 1089 0010 80BD     		pop	{r7, pc}
 1090              	.L68:
 1091 0012 C046     		.align	2
 1092              	.L67:
 1093 0014 FFFF0000 		.word	65535
 1094              		.cfi_endproc
 1095              	.LFE163:
 1096              		.size	_GLOBAL__sub_I__ZN14StepperControl15steps_remainingE, .-_GLOBAL__sub_I__ZN14StepperControl15
 1097              		.section	.init_array,"aw",%init_array
 1098              		.align	2
 1099 0000 00000000 		.word	_GLOBAL__sub_I__ZN14StepperControl15steps_remainingE(target1)
 1100              		.text
 1101              	.Letext0:
 1102              		.file 7 "c:\\program files\\cypress\\psoc creator\\3.0\\psoc creator\\import\\gnu_cs\\arm\\4.7.3\\
 1103              		.file 8 "./ros_lib/ros.h"
 1104              		.file 9 "./ros_lib/Psoc4Hardware.h"
 1105              		.file 10 "./ros_lib/rosserial_msgs/TopicInfo.h"
 1106              		.file 11 "./ros_lib/std_msgs/Time.h"
 1107              		.file 12 ".\\ros_lib\\examples\\StepperControl\\StepperControl.h"
 1108              		.file 13 "./ros_lib/rosserial_msgs/RequestParam.h"
 1109              		.file 14 "./ros_lib/Uarts.h"