ARM GAS  C:\DOCUME~1\Chuck\LOCALS~1\Temp\ccG8Zy4e.s 			page 1


   1              		.cpu cortex-m0
   2              		.fpu softvfp
   3              		.eabi_attribute 20, 1
   4              		.eabi_attribute 21, 1
   5              		.eabi_attribute 23, 3
   6              		.eabi_attribute 24, 1
   7              		.eabi_attribute 25, 1
   8              		.eabi_attribute 26, 1
   9              		.eabi_attribute 30, 6
  10              		.eabi_attribute 34, 0
  11              		.eabi_attribute 18, 4
  12              		.code	16
  13              		.file	"time.cpp"
  14              		.text
  15              	.Ltext0:
  16              		.cfi_sections	.debug_frame
  17              		.global	__aeabi_uidivmod
  18              		.global	__aeabi_uidiv
  19              		.section	.text._ZN3ros16normalizeSecNSecERmS0_,"ax",%progbits
  20              		.align	2
  21              		.global	_ZN3ros16normalizeSecNSecERmS0_
  22              		.code	16
  23              		.thumb_func
  24              		.type	_ZN3ros16normalizeSecNSecERmS0_, %function
  25              	_ZN3ros16normalizeSecNSecERmS0_:
  26              	.LFB105:
  27              		.file 1 ".\\ros_lib\\time.cpp"
   1:.\ros_lib/time.cpp **** /* 
   2:.\ros_lib/time.cpp ****  * Software License Agreement (BSD License)
   3:.\ros_lib/time.cpp ****  *
   4:.\ros_lib/time.cpp ****  * Copyright (c) 2011, Willow Garage, Inc.
   5:.\ros_lib/time.cpp ****  * All rights reserved.
   6:.\ros_lib/time.cpp ****  *
   7:.\ros_lib/time.cpp ****  * Redistribution and use in source and binary forms, with or without
   8:.\ros_lib/time.cpp ****  * modification, are permitted provided that the following conditions
   9:.\ros_lib/time.cpp ****  * are met:
  10:.\ros_lib/time.cpp ****  *
  11:.\ros_lib/time.cpp ****  *  * Redistributions of source code must retain the above copyright
  12:.\ros_lib/time.cpp ****  *    notice, this list of conditions and the following disclaimer.
  13:.\ros_lib/time.cpp ****  *  * Redistributions in binary form must reproduce the above
  14:.\ros_lib/time.cpp ****  *    copyright notice, this list of conditions and the following
  15:.\ros_lib/time.cpp ****  *    disclaimer in the documentation and/or other materials provided
  16:.\ros_lib/time.cpp ****  *    with the distribution.
  17:.\ros_lib/time.cpp ****  *  * Neither the name of Willow Garage, Inc. nor the names of its
  18:.\ros_lib/time.cpp ****  *    contributors may be used to endorse or promote prducts derived
  19:.\ros_lib/time.cpp ****  *    from this software without specific prior written permission.
  20:.\ros_lib/time.cpp ****  *
  21:.\ros_lib/time.cpp ****  * THIS SOFTWARE IS PROVIDED BY THE COPYRIGHT HOLDERS AND CONTRIBUTORS
  22:.\ros_lib/time.cpp ****  * "AS IS" AND ANY EXPRESS OR IMPLIED WARRANTIES, INCLUDING, BUT NOT
  23:.\ros_lib/time.cpp ****  * LIMITED TO, THE IMPLIED WARRANTIES OF MERCHANTABILITY AND FITNESS
  24:.\ros_lib/time.cpp ****  * FOR A PARTICULAR PURPOSE ARE DISCLAIMED. IN NO EVENT SHALL THE
  25:.\ros_lib/time.cpp ****  * COPYRIGHT OWNER OR CONTRIBUTORS BE LIABLE FOR ANY DIRECT, INDIRECT,
  26:.\ros_lib/time.cpp ****  * INCIDENTAL, SPECIAL, EXEMPLARY, OR CONSEQUENTIAL DAMAGES (INCLUDING,
  27:.\ros_lib/time.cpp ****  * BUT NOT LIMITED TO, PROCUREMENT OF SUBSTITUTE GOODS OR SERVICES;
  28:.\ros_lib/time.cpp ****  * LOSS OF USE, DATA, OR PROFITS; OR BUSINESS INTERRUPTION) HOWEVER
  29:.\ros_lib/time.cpp ****  * CAUSED AND ON ANY THEORY OF LIABILITY, WHETHER IN CONTRACT, STRICT
  30:.\ros_lib/time.cpp ****  * LIABILITY, OR TORT (INCLUDING NEGLIGENCE OR OTHERWISE) ARISING IN
ARM GAS  C:\DOCUME~1\Chuck\LOCALS~1\Temp\ccG8Zy4e.s 			page 2


  31:.\ros_lib/time.cpp ****  * ANY WAY OUT OF THE USE OF THIS SOFTWARE, EVEN IF ADVISED OF THE
  32:.\ros_lib/time.cpp ****  * POSSIBILITY OF SUCH DAMAGE.
  33:.\ros_lib/time.cpp ****  */
  34:.\ros_lib/time.cpp **** 
  35:.\ros_lib/time.cpp **** #include "ros.h"
  36:.\ros_lib/time.cpp **** #include "ros/time.h"
  37:.\ros_lib/time.cpp **** 
  38:.\ros_lib/time.cpp **** namespace ros
  39:.\ros_lib/time.cpp **** {
  40:.\ros_lib/time.cpp ****   void normalizeSecNSec(unsigned long& sec, unsigned long& nsec){
  28              		.loc 1 40 0
  29              		.cfi_startproc
  30 0000 80B5     		push	{r7, lr}
  31              	.LCFI0:
  32              		.cfi_def_cfa_offset 8
  33              		.cfi_offset 7, -8
  34              		.cfi_offset 14, -4
  35 0002 84B0     		sub	sp, sp, #16
  36              	.LCFI1:
  37              		.cfi_def_cfa_offset 24
  38 0004 00AF     		add	r7, sp, #0
  39              	.LCFI2:
  40              		.cfi_def_cfa_register 7
  41 0006 7860     		str	r0, [r7, #4]
  42 0008 3960     		str	r1, [r7]
  43              	.LBB2:
  41:.\ros_lib/time.cpp ****     unsigned long nsec_part= nsec % 1000000000UL;
  44              		.loc 1 41 0
  45 000a 3B68     		ldr	r3, [r7]
  46 000c 1B68     		ldr	r3, [r3]
  47 000e 181C     		mov	r0, r3
  48 0010 0C49     		ldr	r1, .L2
  49 0012 FFF7FEFF 		bl	__aeabi_uidivmod
  50 0016 0B1C     		mov	r3, r1
  51 0018 FB60     		str	r3, [r7, #12]
  42:.\ros_lib/time.cpp ****     unsigned long sec_part = nsec / 1000000000UL;
  52              		.loc 1 42 0
  53 001a 3B68     		ldr	r3, [r7]
  54 001c 1B68     		ldr	r3, [r3]
  55 001e 181C     		mov	r0, r3
  56 0020 0849     		ldr	r1, .L2
  57 0022 FFF7FEFF 		bl	__aeabi_uidiv
  58 0026 031C     		mov	r3, r0
  59 0028 BB60     		str	r3, [r7, #8]
  43:.\ros_lib/time.cpp ****     sec += sec_part;
  60              		.loc 1 43 0
  61 002a 7B68     		ldr	r3, [r7, #4]
  62 002c 1A68     		ldr	r2, [r3]
  63 002e BB68     		ldr	r3, [r7, #8]
  64 0030 D218     		add	r2, r2, r3
  65 0032 7B68     		ldr	r3, [r7, #4]
  66 0034 1A60     		str	r2, [r3]
  44:.\ros_lib/time.cpp ****     nsec = nsec_part;
  67              		.loc 1 44 0
  68 0036 3B68     		ldr	r3, [r7]
  69 0038 FA68     		ldr	r2, [r7, #12]
  70 003a 1A60     		str	r2, [r3]
ARM GAS  C:\DOCUME~1\Chuck\LOCALS~1\Temp\ccG8Zy4e.s 			page 3


  71              	.LBE2:
  45:.\ros_lib/time.cpp ****   }
  72              		.loc 1 45 0
  73 003c BD46     		mov	sp, r7
  74 003e 04B0     		add	sp, sp, #16
  75              		@ sp needed for prologue
  76 0040 80BD     		pop	{r7, pc}
  77              	.L3:
  78 0042 C046     		.align	2
  79              	.L2:
  80 0044 00CA9A3B 		.word	1000000000
  81              		.cfi_endproc
  82              	.LFE105:
  83              		.size	_ZN3ros16normalizeSecNSecERmS0_, .-_ZN3ros16normalizeSecNSecERmS0_
  84              		.global	__aeabi_idiv
  85              		.global	__aeabi_idivmod
  86              		.section	.text._ZN3ros4Time8fromNSecEl,"ax",%progbits
  87              		.align	2
  88              		.global	_ZN3ros4Time8fromNSecEl
  89              		.code	16
  90              		.thumb_func
  91              		.type	_ZN3ros4Time8fromNSecEl, %function
  92              	_ZN3ros4Time8fromNSecEl:
  93              	.LFB106:
  46:.\ros_lib/time.cpp **** 
  47:.\ros_lib/time.cpp ****   Time& Time::fromNSec(long t)
  48:.\ros_lib/time.cpp ****   {
  94              		.loc 1 48 0
  95              		.cfi_startproc
  96 0000 80B5     		push	{r7, lr}
  97              	.LCFI3:
  98              		.cfi_def_cfa_offset 8
  99              		.cfi_offset 7, -8
 100              		.cfi_offset 14, -4
 101 0002 82B0     		sub	sp, sp, #8
 102              	.LCFI4:
 103              		.cfi_def_cfa_offset 16
 104 0004 00AF     		add	r7, sp, #0
 105              	.LCFI5:
 106              		.cfi_def_cfa_register 7
 107 0006 7860     		str	r0, [r7, #4]
 108 0008 3960     		str	r1, [r7]
  49:.\ros_lib/time.cpp ****     sec = t / 1000000000;
 109              		.loc 1 49 0
 110 000a 3B68     		ldr	r3, [r7]
 111 000c 181C     		mov	r0, r3
 112 000e 0E49     		ldr	r1, .L6
 113 0010 FFF7FEFF 		bl	__aeabi_idiv
 114 0014 031C     		mov	r3, r0
 115 0016 1A1C     		mov	r2, r3
 116 0018 7B68     		ldr	r3, [r7, #4]
 117 001a 1A60     		str	r2, [r3]
  50:.\ros_lib/time.cpp ****     nsec = t % 1000000000;
 118              		.loc 1 50 0
 119 001c 3B68     		ldr	r3, [r7]
 120 001e 181C     		mov	r0, r3
 121 0020 0949     		ldr	r1, .L6
ARM GAS  C:\DOCUME~1\Chuck\LOCALS~1\Temp\ccG8Zy4e.s 			page 4


 122 0022 FFF7FEFF 		bl	__aeabi_idivmod
 123 0026 0B1C     		mov	r3, r1
 124 0028 1A1C     		mov	r2, r3
 125 002a 7B68     		ldr	r3, [r7, #4]
 126 002c 5A60     		str	r2, [r3, #4]
  51:.\ros_lib/time.cpp ****     normalizeSecNSec(sec, nsec);
 127              		.loc 1 51 0
 128 002e 7A68     		ldr	r2, [r7, #4]
 129 0030 7B68     		ldr	r3, [r7, #4]
 130 0032 0433     		add	r3, r3, #4
 131 0034 101C     		mov	r0, r2
 132 0036 191C     		mov	r1, r3
 133 0038 FFF7FEFF 		bl	_ZN3ros16normalizeSecNSecERmS0_
  52:.\ros_lib/time.cpp ****     return *this;
 134              		.loc 1 52 0
 135 003c 7B68     		ldr	r3, [r7, #4]
  53:.\ros_lib/time.cpp ****   }
 136              		.loc 1 53 0
 137 003e 181C     		mov	r0, r3
 138 0040 BD46     		mov	sp, r7
 139 0042 02B0     		add	sp, sp, #8
 140              		@ sp needed for prologue
 141 0044 80BD     		pop	{r7, pc}
 142              	.L7:
 143 0046 C046     		.align	2
 144              	.L6:
 145 0048 00CA9A3B 		.word	1000000000
 146              		.cfi_endproc
 147              	.LFE106:
 148              		.size	_ZN3ros4Time8fromNSecEl, .-_ZN3ros4Time8fromNSecEl
 149              		.section	.text._ZN3ros4TimepLERKNS_8DurationE,"ax",%progbits
 150              		.align	2
 151              		.global	_ZN3ros4TimepLERKNS_8DurationE
 152              		.code	16
 153              		.thumb_func
 154              		.type	_ZN3ros4TimepLERKNS_8DurationE, %function
 155              	_ZN3ros4TimepLERKNS_8DurationE:
 156              	.LFB107:
  54:.\ros_lib/time.cpp **** 
  55:.\ros_lib/time.cpp ****   Time& Time::operator +=(const Duration &rhs)
  56:.\ros_lib/time.cpp ****   {
 157              		.loc 1 56 0
 158              		.cfi_startproc
 159 0000 80B5     		push	{r7, lr}
 160              	.LCFI6:
 161              		.cfi_def_cfa_offset 8
 162              		.cfi_offset 7, -8
 163              		.cfi_offset 14, -4
 164 0002 82B0     		sub	sp, sp, #8
 165              	.LCFI7:
 166              		.cfi_def_cfa_offset 16
 167 0004 00AF     		add	r7, sp, #0
 168              	.LCFI8:
 169              		.cfi_def_cfa_register 7
 170 0006 7860     		str	r0, [r7, #4]
 171 0008 3960     		str	r1, [r7]
  57:.\ros_lib/time.cpp ****     sec = sec - 1 + rhs.sec;
ARM GAS  C:\DOCUME~1\Chuck\LOCALS~1\Temp\ccG8Zy4e.s 			page 5


 172              		.loc 1 57 0
 173 000a 7B68     		ldr	r3, [r7, #4]
 174 000c 1A68     		ldr	r2, [r3]
 175 000e 3B68     		ldr	r3, [r7]
 176 0010 1B68     		ldr	r3, [r3]
 177 0012 D318     		add	r3, r2, r3
 178 0014 5A1E     		sub	r2, r3, #1
 179 0016 7B68     		ldr	r3, [r7, #4]
 180 0018 1A60     		str	r2, [r3]
  58:.\ros_lib/time.cpp ****     nsec = nsec + 1000000000L + rhs.nsec;
 181              		.loc 1 58 0
 182 001a 7B68     		ldr	r3, [r7, #4]
 183 001c 5A68     		ldr	r2, [r3, #4]
 184 001e 3B68     		ldr	r3, [r7]
 185 0020 5B68     		ldr	r3, [r3, #4]
 186 0022 D318     		add	r3, r2, r3
 187 0024 0749     		ldr	r1, .L10
 188 0026 5A18     		add	r2, r3, r1
 189 0028 7B68     		ldr	r3, [r7, #4]
 190 002a 5A60     		str	r2, [r3, #4]
  59:.\ros_lib/time.cpp ****     normalizeSecNSec(sec, nsec);
 191              		.loc 1 59 0
 192 002c 7A68     		ldr	r2, [r7, #4]
 193 002e 7B68     		ldr	r3, [r7, #4]
 194 0030 0433     		add	r3, r3, #4
 195 0032 101C     		mov	r0, r2
 196 0034 191C     		mov	r1, r3
 197 0036 FFF7FEFF 		bl	_ZN3ros16normalizeSecNSecERmS0_
  60:.\ros_lib/time.cpp ****     return *this; 
 198              		.loc 1 60 0
 199 003a 7B68     		ldr	r3, [r7, #4]
  61:.\ros_lib/time.cpp ****   }
 200              		.loc 1 61 0
 201 003c 181C     		mov	r0, r3
 202 003e BD46     		mov	sp, r7
 203 0040 02B0     		add	sp, sp, #8
 204              		@ sp needed for prologue
 205 0042 80BD     		pop	{r7, pc}
 206              	.L11:
 207              		.align	2
 208              	.L10:
 209 0044 00CA9A3B 		.word	1000000000
 210              		.cfi_endproc
 211              	.LFE107:
 212              		.size	_ZN3ros4TimepLERKNS_8DurationE, .-_ZN3ros4TimepLERKNS_8DurationE
 213              		.section	.text._ZN3ros4TimemIERKNS_8DurationE,"ax",%progbits
 214              		.align	2
 215              		.global	_ZN3ros4TimemIERKNS_8DurationE
 216              		.code	16
 217              		.thumb_func
 218              		.type	_ZN3ros4TimemIERKNS_8DurationE, %function
 219              	_ZN3ros4TimemIERKNS_8DurationE:
 220              	.LFB108:
  62:.\ros_lib/time.cpp **** 
  63:.\ros_lib/time.cpp ****   Time& Time::operator -=(const Duration &rhs){
 221              		.loc 1 63 0
 222              		.cfi_startproc
ARM GAS  C:\DOCUME~1\Chuck\LOCALS~1\Temp\ccG8Zy4e.s 			page 6


 223 0000 80B5     		push	{r7, lr}
 224              	.LCFI9:
 225              		.cfi_def_cfa_offset 8
 226              		.cfi_offset 7, -8
 227              		.cfi_offset 14, -4
 228 0002 82B0     		sub	sp, sp, #8
 229              	.LCFI10:
 230              		.cfi_def_cfa_offset 16
 231 0004 00AF     		add	r7, sp, #0
 232              	.LCFI11:
 233              		.cfi_def_cfa_register 7
 234 0006 7860     		str	r0, [r7, #4]
 235 0008 3960     		str	r1, [r7]
  64:.\ros_lib/time.cpp ****     sec = sec - 1 - rhs.sec;
 236              		.loc 1 64 0
 237 000a 7B68     		ldr	r3, [r7, #4]
 238 000c 1A68     		ldr	r2, [r3]
 239 000e 3B68     		ldr	r3, [r7]
 240 0010 1B68     		ldr	r3, [r3]
 241 0012 D31A     		sub	r3, r2, r3
 242 0014 5A1E     		sub	r2, r3, #1
 243 0016 7B68     		ldr	r3, [r7, #4]
 244 0018 1A60     		str	r2, [r3]
  65:.\ros_lib/time.cpp ****     nsec = nsec + 1000000000L - rhs.nsec;
 245              		.loc 1 65 0
 246 001a 7B68     		ldr	r3, [r7, #4]
 247 001c 5A68     		ldr	r2, [r3, #4]
 248 001e 3B68     		ldr	r3, [r7]
 249 0020 5B68     		ldr	r3, [r3, #4]
 250 0022 D31A     		sub	r3, r2, r3
 251 0024 0749     		ldr	r1, .L14
 252 0026 5A18     		add	r2, r3, r1
 253 0028 7B68     		ldr	r3, [r7, #4]
 254 002a 5A60     		str	r2, [r3, #4]
  66:.\ros_lib/time.cpp ****     normalizeSecNSec(sec, nsec);
 255              		.loc 1 66 0
 256 002c 7A68     		ldr	r2, [r7, #4]
 257 002e 7B68     		ldr	r3, [r7, #4]
 258 0030 0433     		add	r3, r3, #4
 259 0032 101C     		mov	r0, r2
 260 0034 191C     		mov	r1, r3
 261 0036 FFF7FEFF 		bl	_ZN3ros16normalizeSecNSecERmS0_
  67:.\ros_lib/time.cpp ****     return *this;
 262              		.loc 1 67 0
 263 003a 7B68     		ldr	r3, [r7, #4]
  68:.\ros_lib/time.cpp ****   }
 264              		.loc 1 68 0
 265 003c 181C     		mov	r0, r3
 266 003e BD46     		mov	sp, r7
 267 0040 02B0     		add	sp, sp, #8
 268              		@ sp needed for prologue
 269 0042 80BD     		pop	{r7, pc}
 270              	.L15:
 271              		.align	2
 272              	.L14:
 273 0044 00CA9A3B 		.word	1000000000
 274              		.cfi_endproc
ARM GAS  C:\DOCUME~1\Chuck\LOCALS~1\Temp\ccG8Zy4e.s 			page 7


 275              	.LFE108:
 276              		.size	_ZN3ros4TimemIERKNS_8DurationE, .-_ZN3ros4TimemIERKNS_8DurationE
 277              		.section	.rodata
 278              		.align	2
 279              		.type	_ZN14rosserial_msgsL12REQUESTPARAME, %object
 280              		.size	_ZN14rosserial_msgsL12REQUESTPARAME, 28
 281              	_ZN14rosserial_msgsL12REQUESTPARAME:
 282 0000 726F7373 		.ascii	"rosserial_msgs/RequestParam\000"
 282      65726961 
 282      6C5F6D73 
 282      67732F52 
 282      65717565 
 283              		.text
 284              	.Letext0:
 285              		.file 2 "./ros_lib/ros/duration.h"
 286              		.file 3 "./ros_lib/ros/time.h"
 287              		.file 4 "./ros_lib/rosserial_msgs/RequestParam.h"
 288              		.file 5 ".\\ros_lib\\Uarts.h"
 289              		.file 6 "./ros_lib/ros/msg.h"
 290              		.file 7 "./ros_lib/rosserial_msgs/TopicInfo.h"