ARM GAS  C:\DOCUME~1\Chuck\LOCALS~1\Temp\cca1G29y.s 			page 1


   1              		.cpu cortex-m0
   2              		.fpu softvfp
   3              		.eabi_attribute 20, 1
   4              		.eabi_attribute 21, 1
   5              		.eabi_attribute 23, 3
   6              		.eabi_attribute 24, 1
   7              		.eabi_attribute 25, 1
   8              		.eabi_attribute 26, 1
   9              		.eabi_attribute 30, 6
  10              		.eabi_attribute 34, 0
  11              		.eabi_attribute 18, 4
  12              		.code	16
  13              		.file	"Transimpedance.c"
  14              		.text
  15              	.Ltext0:
  16              		.cfi_sections	.debug_frame
  17              		.global	Transimpedance_initVar
  18              		.bss
  19              		.align	2
  20              		.type	Transimpedance_initVar, %object
  21              		.size	Transimpedance_initVar, 4
  22              	Transimpedance_initVar:
  23 0000 00000000 		.space	4
  24              		.section	.text.Transimpedance_Init,"ax",%progbits
  25              		.align	2
  26              		.global	Transimpedance_Init
  27              		.code	16
  28              		.thumb_func
  29              		.type	Transimpedance_Init, %function
  30              	Transimpedance_Init:
  31              	.LFB0:
  32              		.file 1 ".\\Generated_Source\\PSoC4\\Transimpedance.c"
   1:.\Generated_Source\PSoC4/Transimpedance.c **** /*******************************************************************************
   2:.\Generated_Source\PSoC4/Transimpedance.c **** * File Name: Transimpedance.c
   3:.\Generated_Source\PSoC4/Transimpedance.c **** * Version 1.0
   4:.\Generated_Source\PSoC4/Transimpedance.c **** *
   5:.\Generated_Source\PSoC4/Transimpedance.c **** * Description:
   6:.\Generated_Source\PSoC4/Transimpedance.c **** *  This file provides the source code to the API for OpAmp (Analog Buffer)
   7:.\Generated_Source\PSoC4/Transimpedance.c **** *  Component.
   8:.\Generated_Source\PSoC4/Transimpedance.c **** *
   9:.\Generated_Source\PSoC4/Transimpedance.c **** *
  10:.\Generated_Source\PSoC4/Transimpedance.c **** ********************************************************************************
  11:.\Generated_Source\PSoC4/Transimpedance.c **** * Copyright 2013, Cypress Semiconductor Corporation.  All rights reserved.
  12:.\Generated_Source\PSoC4/Transimpedance.c **** * You may use this file only in accordance with the license, terms, conditions,
  13:.\Generated_Source\PSoC4/Transimpedance.c **** * disclaimers, and limitations in the end user license agreement accompanying
  14:.\Generated_Source\PSoC4/Transimpedance.c **** * the software package with which this file was provided.
  15:.\Generated_Source\PSoC4/Transimpedance.c **** *******************************************************************************/
  16:.\Generated_Source\PSoC4/Transimpedance.c **** 
  17:.\Generated_Source\PSoC4/Transimpedance.c **** #include "Transimpedance.h"
  18:.\Generated_Source\PSoC4/Transimpedance.c **** #include <CyLib.h>
  19:.\Generated_Source\PSoC4/Transimpedance.c **** 
  20:.\Generated_Source\PSoC4/Transimpedance.c **** uint32 Transimpedance_initVar = 0u;
  21:.\Generated_Source\PSoC4/Transimpedance.c **** 
  22:.\Generated_Source\PSoC4/Transimpedance.c **** 
  23:.\Generated_Source\PSoC4/Transimpedance.c **** /*******************************************************************************
  24:.\Generated_Source\PSoC4/Transimpedance.c **** * Function Name: Transimpedance_Init
  25:.\Generated_Source\PSoC4/Transimpedance.c **** ********************************************************************************
ARM GAS  C:\DOCUME~1\Chuck\LOCALS~1\Temp\cca1G29y.s 			page 2


  26:.\Generated_Source\PSoC4/Transimpedance.c **** *
  27:.\Generated_Source\PSoC4/Transimpedance.c **** * Summary:
  28:.\Generated_Source\PSoC4/Transimpedance.c **** *  Initialize component's parameters to the parameters set by user in the
  29:.\Generated_Source\PSoC4/Transimpedance.c **** *  customizer of the component placed onto schematic. Usually called in
  30:.\Generated_Source\PSoC4/Transimpedance.c **** *  Transimpedance_Start().
  31:.\Generated_Source\PSoC4/Transimpedance.c **** *
  32:.\Generated_Source\PSoC4/Transimpedance.c **** * Parameters:
  33:.\Generated_Source\PSoC4/Transimpedance.c **** *  None
  34:.\Generated_Source\PSoC4/Transimpedance.c **** *
  35:.\Generated_Source\PSoC4/Transimpedance.c **** * Return:
  36:.\Generated_Source\PSoC4/Transimpedance.c **** *  None
  37:.\Generated_Source\PSoC4/Transimpedance.c **** *
  38:.\Generated_Source\PSoC4/Transimpedance.c **** *******************************************************************************/
  39:.\Generated_Source\PSoC4/Transimpedance.c **** void Transimpedance_Init(void)
  40:.\Generated_Source\PSoC4/Transimpedance.c **** {
  33              		.loc 1 40 0
  34              		.cfi_startproc
  35 0000 80B5     		push	{r7, lr}
  36              	.LCFI0:
  37              		.cfi_def_cfa_offset 8
  38              		.cfi_offset 7, -8
  39              		.cfi_offset 14, -4
  40 0002 00AF     		add	r7, sp, #0
  41              	.LCFI1:
  42              		.cfi_def_cfa_register 7
  41:.\Generated_Source\PSoC4/Transimpedance.c ****     /* Enable STB */
  42:.\Generated_Source\PSoC4/Transimpedance.c ****     Transimpedance_OA_CTRL |= ((uint32)1u << Transimpedance_OA_CTB_EN_SHIFT);
  43              		.loc 1 42 0
  44 0004 0A4B     		ldr	r3, .L2
  45 0006 0A4A     		ldr	r2, .L2
  46 0008 1268     		ldr	r2, [r2]
  47 000a 8021     		mov	r1, #128
  48 000c 0906     		lsl	r1, r1, #24
  49 000e 0A43     		orr	r2, r1
  50 0010 1A60     		str	r2, [r3]
  43:.\Generated_Source\PSoC4/Transimpedance.c ****     Transimpedance_OA_RES_CTRL = 0u;
  51              		.loc 1 43 0
  52 0012 084B     		ldr	r3, .L2+4
  53 0014 0022     		mov	r2, #0
  54 0016 1A60     		str	r2, [r3]
  44:.\Generated_Source\PSoC4/Transimpedance.c ****     Transimpedance_OA_COMP_TRIM_REG = Transimpedance_OA_COMP_TRIM_VALUE;
  55              		.loc 1 44 0
  56 0018 074B     		ldr	r3, .L2+8
  57 001a 0322     		mov	r2, #3
  58 001c 1A60     		str	r2, [r3]
  45:.\Generated_Source\PSoC4/Transimpedance.c ****     #if(0u != Transimpedance_OUTPUT_CURRENT)
  46:.\Generated_Source\PSoC4/Transimpedance.c ****         /* 10 mA current */
  47:.\Generated_Source\PSoC4/Transimpedance.c ****         Transimpedance_OA_RES_CTRL |= Transimpedance_OA_DRIVE_STR_SEL_10X;
  59              		.loc 1 47 0
  60 001e 054B     		ldr	r3, .L2+4
  61 0020 044A     		ldr	r2, .L2+4
  62 0022 1268     		ldr	r2, [r2]
  63 0024 0421     		mov	r1, #4
  64 0026 0A43     		orr	r2, r1
  65 0028 1A60     		str	r2, [r3]
  48:.\Generated_Source\PSoC4/Transimpedance.c ****     #endif /* 0u != Transimpedance_OUTPUT_CURRENT */
  49:.\Generated_Source\PSoC4/Transimpedance.c **** }
ARM GAS  C:\DOCUME~1\Chuck\LOCALS~1\Temp\cca1G29y.s 			page 3


  66              		.loc 1 49 0
  67 002a BD46     		mov	sp, r7
  68              		@ sp needed for prologue
  69 002c 80BD     		pop	{r7, pc}
  70              	.L3:
  71 002e C046     		.align	2
  72              	.L2:
  73 0030 00001040 		.word	1074790400
  74 0034 04001040 		.word	1074790404
  75 0038 080F1040 		.word	1074794248
  76              		.cfi_endproc
  77              	.LFE0:
  78              		.size	Transimpedance_Init, .-Transimpedance_Init
  79              		.section	.text.Transimpedance_Enable,"ax",%progbits
  80              		.align	2
  81              		.global	Transimpedance_Enable
  82              		.code	16
  83              		.thumb_func
  84              		.type	Transimpedance_Enable, %function
  85              	Transimpedance_Enable:
  86              	.LFB1:
  50:.\Generated_Source\PSoC4/Transimpedance.c **** 
  51:.\Generated_Source\PSoC4/Transimpedance.c **** 
  52:.\Generated_Source\PSoC4/Transimpedance.c **** /*******************************************************************************
  53:.\Generated_Source\PSoC4/Transimpedance.c **** * Function Name: Transimpedance_Enable
  54:.\Generated_Source\PSoC4/Transimpedance.c **** ********************************************************************************
  55:.\Generated_Source\PSoC4/Transimpedance.c **** *
  56:.\Generated_Source\PSoC4/Transimpedance.c **** * Summary:
  57:.\Generated_Source\PSoC4/Transimpedance.c **** *  Enables the OpAmp block operation
  58:.\Generated_Source\PSoC4/Transimpedance.c **** *
  59:.\Generated_Source\PSoC4/Transimpedance.c **** * Parameters:
  60:.\Generated_Source\PSoC4/Transimpedance.c **** *  None
  61:.\Generated_Source\PSoC4/Transimpedance.c **** *
  62:.\Generated_Source\PSoC4/Transimpedance.c **** * Return:
  63:.\Generated_Source\PSoC4/Transimpedance.c **** *  None
  64:.\Generated_Source\PSoC4/Transimpedance.c **** *
  65:.\Generated_Source\PSoC4/Transimpedance.c **** *******************************************************************************/
  66:.\Generated_Source\PSoC4/Transimpedance.c **** void Transimpedance_Enable(void)
  67:.\Generated_Source\PSoC4/Transimpedance.c **** {
  87              		.loc 1 67 0
  88              		.cfi_startproc
  89 0000 80B5     		push	{r7, lr}
  90              	.LCFI2:
  91              		.cfi_def_cfa_offset 8
  92              		.cfi_offset 7, -8
  93              		.cfi_offset 14, -4
  94 0002 00AF     		add	r7, sp, #0
  95              	.LCFI3:
  96              		.cfi_def_cfa_register 7
  68:.\Generated_Source\PSoC4/Transimpedance.c ****     Transimpedance_OA_RES_CTRL &= (~(uint32)Transimpedance_OA_PWR_MODE_MASK);
  97              		.loc 1 68 0
  98 0004 064B     		ldr	r3, .L5
  99 0006 064A     		ldr	r2, .L5
 100 0008 1268     		ldr	r2, [r2]
 101 000a 0321     		mov	r1, #3
 102 000c 8A43     		bic	r2, r1
 103 000e 1A60     		str	r2, [r3]
ARM GAS  C:\DOCUME~1\Chuck\LOCALS~1\Temp\cca1G29y.s 			page 4


  69:.\Generated_Source\PSoC4/Transimpedance.c ****     Transimpedance_OA_RES_CTRL |= Transimpedance_POWER | ((uint32)1u << Transimpedance_OA_PUMP_CTRL
 104              		.loc 1 69 0
 105 0010 034B     		ldr	r3, .L5
 106 0012 034A     		ldr	r2, .L5
 107 0014 1268     		ldr	r2, [r2]
 108 0016 0349     		ldr	r1, .L5+4
 109 0018 0A43     		orr	r2, r1
 110 001a 1A60     		str	r2, [r3]
  70:.\Generated_Source\PSoC4/Transimpedance.c **** }
 111              		.loc 1 70 0
 112 001c BD46     		mov	sp, r7
 113              		@ sp needed for prologue
 114 001e 80BD     		pop	{r7, pc}
 115              	.L6:
 116              		.align	2
 117              	.L5:
 118 0020 04001040 		.word	1074790404
 119 0024 02080000 		.word	2050
 120              		.cfi_endproc
 121              	.LFE1:
 122              		.size	Transimpedance_Enable, .-Transimpedance_Enable
 123              		.section	.text.Transimpedance_Start,"ax",%progbits
 124              		.align	2
 125              		.global	Transimpedance_Start
 126              		.code	16
 127              		.thumb_func
 128              		.type	Transimpedance_Start, %function
 129              	Transimpedance_Start:
 130              	.LFB2:
  71:.\Generated_Source\PSoC4/Transimpedance.c **** 
  72:.\Generated_Source\PSoC4/Transimpedance.c **** 
  73:.\Generated_Source\PSoC4/Transimpedance.c **** /*******************************************************************************
  74:.\Generated_Source\PSoC4/Transimpedance.c **** * Function Name:   Transimpedance_Start
  75:.\Generated_Source\PSoC4/Transimpedance.c **** ********************************************************************************
  76:.\Generated_Source\PSoC4/Transimpedance.c **** *
  77:.\Generated_Source\PSoC4/Transimpedance.c **** * Summary:
  78:.\Generated_Source\PSoC4/Transimpedance.c **** *  The start function initializes the Analog Buffer with the default values and
  79:.\Generated_Source\PSoC4/Transimpedance.c **** *  sets the power to the given level. A power level of 0, is same as
  80:.\Generated_Source\PSoC4/Transimpedance.c **** *  executing the stop function.
  81:.\Generated_Source\PSoC4/Transimpedance.c **** *
  82:.\Generated_Source\PSoC4/Transimpedance.c **** * Parameters:
  83:.\Generated_Source\PSoC4/Transimpedance.c **** *  None
  84:.\Generated_Source\PSoC4/Transimpedance.c **** *
  85:.\Generated_Source\PSoC4/Transimpedance.c **** * Return:
  86:.\Generated_Source\PSoC4/Transimpedance.c **** *  None
  87:.\Generated_Source\PSoC4/Transimpedance.c **** *
  88:.\Generated_Source\PSoC4/Transimpedance.c **** * Global variables:
  89:.\Generated_Source\PSoC4/Transimpedance.c **** *  Transimpedance_initVar: Used to check the initial configuration, modified
  90:.\Generated_Source\PSoC4/Transimpedance.c **** *  when this function is called for the first time.
  91:.\Generated_Source\PSoC4/Transimpedance.c **** *
  92:.\Generated_Source\PSoC4/Transimpedance.c **** *******************************************************************************/
  93:.\Generated_Source\PSoC4/Transimpedance.c **** void Transimpedance_Start(void)
  94:.\Generated_Source\PSoC4/Transimpedance.c **** {
 131              		.loc 1 94 0
 132              		.cfi_startproc
 133 0000 80B5     		push	{r7, lr}
 134              	.LCFI4:
ARM GAS  C:\DOCUME~1\Chuck\LOCALS~1\Temp\cca1G29y.s 			page 5


 135              		.cfi_def_cfa_offset 8
 136              		.cfi_offset 7, -8
 137              		.cfi_offset 14, -4
 138 0002 00AF     		add	r7, sp, #0
 139              	.LCFI5:
 140              		.cfi_def_cfa_register 7
  95:.\Generated_Source\PSoC4/Transimpedance.c ****     if(Transimpedance_initVar == 0u)
 141              		.loc 1 95 0
 142 0004 064B     		ldr	r3, .L9
 143 0006 1B68     		ldr	r3, [r3]
 144 0008 002B     		cmp	r3, #0
 145 000a 04D1     		bne	.L8
  96:.\Generated_Source\PSoC4/Transimpedance.c ****     {
  97:.\Generated_Source\PSoC4/Transimpedance.c ****         Transimpedance_initVar = 1u;
 146              		.loc 1 97 0
 147 000c 044B     		ldr	r3, .L9
 148 000e 0122     		mov	r2, #1
 149 0010 1A60     		str	r2, [r3]
  98:.\Generated_Source\PSoC4/Transimpedance.c ****         Transimpedance_Init();
 150              		.loc 1 98 0
 151 0012 FFF7FEFF 		bl	Transimpedance_Init
 152              	.L8:
  99:.\Generated_Source\PSoC4/Transimpedance.c ****     }
 100:.\Generated_Source\PSoC4/Transimpedance.c ****     Transimpedance_Enable();
 153              		.loc 1 100 0
 154 0016 FFF7FEFF 		bl	Transimpedance_Enable
 101:.\Generated_Source\PSoC4/Transimpedance.c **** }
 155              		.loc 1 101 0
 156 001a BD46     		mov	sp, r7
 157              		@ sp needed for prologue
 158 001c 80BD     		pop	{r7, pc}
 159              	.L10:
 160 001e C046     		.align	2
 161              	.L9:
 162 0020 00000000 		.word	Transimpedance_initVar
 163              		.cfi_endproc
 164              	.LFE2:
 165              		.size	Transimpedance_Start, .-Transimpedance_Start
 166              		.section	.text.Transimpedance_Stop,"ax",%progbits
 167              		.align	2
 168              		.global	Transimpedance_Stop
 169              		.code	16
 170              		.thumb_func
 171              		.type	Transimpedance_Stop, %function
 172              	Transimpedance_Stop:
 173              	.LFB3:
 102:.\Generated_Source\PSoC4/Transimpedance.c **** 
 103:.\Generated_Source\PSoC4/Transimpedance.c **** 
 104:.\Generated_Source\PSoC4/Transimpedance.c **** /*******************************************************************************
 105:.\Generated_Source\PSoC4/Transimpedance.c **** * Function Name: Transimpedance_Stop
 106:.\Generated_Source\PSoC4/Transimpedance.c **** ********************************************************************************
 107:.\Generated_Source\PSoC4/Transimpedance.c **** *
 108:.\Generated_Source\PSoC4/Transimpedance.c **** * Summary:
 109:.\Generated_Source\PSoC4/Transimpedance.c **** *  Powers down amplifier to lowest power state.
 110:.\Generated_Source\PSoC4/Transimpedance.c **** *
 111:.\Generated_Source\PSoC4/Transimpedance.c **** * Parameters:
 112:.\Generated_Source\PSoC4/Transimpedance.c **** *  None
ARM GAS  C:\DOCUME~1\Chuck\LOCALS~1\Temp\cca1G29y.s 			page 6


 113:.\Generated_Source\PSoC4/Transimpedance.c **** *
 114:.\Generated_Source\PSoC4/Transimpedance.c **** * Return:
 115:.\Generated_Source\PSoC4/Transimpedance.c **** *  None
 116:.\Generated_Source\PSoC4/Transimpedance.c **** *
 117:.\Generated_Source\PSoC4/Transimpedance.c **** *******************************************************************************/
 118:.\Generated_Source\PSoC4/Transimpedance.c **** void Transimpedance_Stop(void)
 119:.\Generated_Source\PSoC4/Transimpedance.c **** {
 174              		.loc 1 119 0
 175              		.cfi_startproc
 176 0000 80B5     		push	{r7, lr}
 177              	.LCFI6:
 178              		.cfi_def_cfa_offset 8
 179              		.cfi_offset 7, -8
 180              		.cfi_offset 14, -4
 181 0002 00AF     		add	r7, sp, #0
 182              	.LCFI7:
 183              		.cfi_def_cfa_register 7
 120:.\Generated_Source\PSoC4/Transimpedance.c ****     Transimpedance_OA_RES_CTRL &= (~(uint32)(Transimpedance_OA_PWR_MODE_MASK |
 184              		.loc 1 120 0
 185 0004 034B     		ldr	r3, .L12
 186 0006 034A     		ldr	r2, .L12
 187 0008 1168     		ldr	r1, [r2]
 188 000a 034A     		ldr	r2, .L12+4
 189 000c 0A40     		and	r2, r1
 190 000e 1A60     		str	r2, [r3]
 121:.\Generated_Source\PSoC4/Transimpedance.c ****         ((uint32)1u << Transimpedance_OA_PUMP_CTRL_SHIFT)));
 122:.\Generated_Source\PSoC4/Transimpedance.c **** }
 191              		.loc 1 122 0
 192 0010 BD46     		mov	sp, r7
 193              		@ sp needed for prologue
 194 0012 80BD     		pop	{r7, pc}
 195              	.L13:
 196              		.align	2
 197              	.L12:
 198 0014 04001040 		.word	1074790404
 199 0018 FCF7FFFF 		.word	-2052
 200              		.cfi_endproc
 201              	.LFE3:
 202              		.size	Transimpedance_Stop, .-Transimpedance_Stop
 203              		.section	.text.Transimpedance_SetPower,"ax",%progbits
 204              		.align	2
 205              		.global	Transimpedance_SetPower
 206              		.code	16
 207              		.thumb_func
 208              		.type	Transimpedance_SetPower, %function
 209              	Transimpedance_SetPower:
 210              	.LFB4:
 123:.\Generated_Source\PSoC4/Transimpedance.c **** 
 124:.\Generated_Source\PSoC4/Transimpedance.c **** 
 125:.\Generated_Source\PSoC4/Transimpedance.c **** /*******************************************************************************
 126:.\Generated_Source\PSoC4/Transimpedance.c **** * Function Name: Transimpedance_SetPower
 127:.\Generated_Source\PSoC4/Transimpedance.c **** ********************************************************************************
 128:.\Generated_Source\PSoC4/Transimpedance.c **** *
 129:.\Generated_Source\PSoC4/Transimpedance.c **** * Summary:
 130:.\Generated_Source\PSoC4/Transimpedance.c **** *  Sets power level of Analog buffer.
 131:.\Generated_Source\PSoC4/Transimpedance.c **** *
 132:.\Generated_Source\PSoC4/Transimpedance.c **** * Parameters:
ARM GAS  C:\DOCUME~1\Chuck\LOCALS~1\Temp\cca1G29y.s 			page 7


 133:.\Generated_Source\PSoC4/Transimpedance.c **** *  power: Sets power level between low (1) and high power (3).
 134:.\Generated_Source\PSoC4/Transimpedance.c **** *
 135:.\Generated_Source\PSoC4/Transimpedance.c **** * Return:
 136:.\Generated_Source\PSoC4/Transimpedance.c **** *  None
 137:.\Generated_Source\PSoC4/Transimpedance.c **** *
 138:.\Generated_Source\PSoC4/Transimpedance.c **** **********************************************************************************/
 139:.\Generated_Source\PSoC4/Transimpedance.c **** void Transimpedance_SetPower(uint32 power)
 140:.\Generated_Source\PSoC4/Transimpedance.c **** {
 211              		.loc 1 140 0
 212              		.cfi_startproc
 213 0000 80B5     		push	{r7, lr}
 214              	.LCFI8:
 215              		.cfi_def_cfa_offset 8
 216              		.cfi_offset 7, -8
 217              		.cfi_offset 14, -4
 218 0002 82B0     		sub	sp, sp, #8
 219              	.LCFI9:
 220              		.cfi_def_cfa_offset 16
 221 0004 00AF     		add	r7, sp, #0
 222              	.LCFI10:
 223              		.cfi_def_cfa_register 7
 224 0006 7860     		str	r0, [r7, #4]
 141:.\Generated_Source\PSoC4/Transimpedance.c ****     Transimpedance_OA_RES_CTRL &= (~(uint32)Transimpedance_OA_PWR_MODE_MASK);
 225              		.loc 1 141 0
 226 0008 084B     		ldr	r3, .L15
 227 000a 084A     		ldr	r2, .L15
 228 000c 1268     		ldr	r2, [r2]
 229 000e 0321     		mov	r1, #3
 230 0010 8A43     		bic	r2, r1
 231 0012 1A60     		str	r2, [r3]
 142:.\Generated_Source\PSoC4/Transimpedance.c ****     Transimpedance_OA_RES_CTRL |= (power & Transimpedance_OA_PWR_MODE_MASK);
 232              		.loc 1 142 0
 233 0014 054B     		ldr	r3, .L15
 234 0016 054A     		ldr	r2, .L15
 235 0018 1168     		ldr	r1, [r2]
 236 001a 7868     		ldr	r0, [r7, #4]
 237 001c 0322     		mov	r2, #3
 238 001e 0240     		and	r2, r0
 239 0020 0A43     		orr	r2, r1
 240 0022 1A60     		str	r2, [r3]
 143:.\Generated_Source\PSoC4/Transimpedance.c **** }
 241              		.loc 1 143 0
 242 0024 BD46     		mov	sp, r7
 243 0026 02B0     		add	sp, sp, #8
 244              		@ sp needed for prologue
 245 0028 80BD     		pop	{r7, pc}
 246              	.L16:
 247 002a C046     		.align	2
 248              	.L15:
 249 002c 04001040 		.word	1074790404
 250              		.cfi_endproc
 251              	.LFE4:
 252              		.size	Transimpedance_SetPower, .-Transimpedance_SetPower
 253              		.section	.text.Transimpedance_PumpControl,"ax",%progbits
 254              		.align	2
 255              		.global	Transimpedance_PumpControl
 256              		.code	16
ARM GAS  C:\DOCUME~1\Chuck\LOCALS~1\Temp\cca1G29y.s 			page 8


 257              		.thumb_func
 258              		.type	Transimpedance_PumpControl, %function
 259              	Transimpedance_PumpControl:
 260              	.LFB5:
 144:.\Generated_Source\PSoC4/Transimpedance.c **** 
 145:.\Generated_Source\PSoC4/Transimpedance.c **** 
 146:.\Generated_Source\PSoC4/Transimpedance.c **** /*******************************************************************************
 147:.\Generated_Source\PSoC4/Transimpedance.c **** * Function Name: Transimpedance_PumpControl
 148:.\Generated_Source\PSoC4/Transimpedance.c **** ********************************************************************************
 149:.\Generated_Source\PSoC4/Transimpedance.c **** *
 150:.\Generated_Source\PSoC4/Transimpedance.c **** * Summary:
 151:.\Generated_Source\PSoC4/Transimpedance.c **** *  Turns the boost pump on or off.
 152:.\Generated_Source\PSoC4/Transimpedance.c **** *
 153:.\Generated_Source\PSoC4/Transimpedance.c **** * Parameters:
 154:.\Generated_Source\PSoC4/Transimpedance.c **** *  onOff: Transimpedance_PUMPON, Transimpedance_PUMPOFF.
 155:.\Generated_Source\PSoC4/Transimpedance.c **** *
 156:.\Generated_Source\PSoC4/Transimpedance.c **** * Return:
 157:.\Generated_Source\PSoC4/Transimpedance.c **** *  None
 158:.\Generated_Source\PSoC4/Transimpedance.c **** *
 159:.\Generated_Source\PSoC4/Transimpedance.c **** **********************************************************************************/
 160:.\Generated_Source\PSoC4/Transimpedance.c **** void Transimpedance_PumpControl(uint32 onOff)
 161:.\Generated_Source\PSoC4/Transimpedance.c **** {
 261              		.loc 1 161 0
 262              		.cfi_startproc
 263 0000 80B5     		push	{r7, lr}
 264              	.LCFI11:
 265              		.cfi_def_cfa_offset 8
 266              		.cfi_offset 7, -8
 267              		.cfi_offset 14, -4
 268 0002 82B0     		sub	sp, sp, #8
 269              	.LCFI12:
 270              		.cfi_def_cfa_offset 16
 271 0004 00AF     		add	r7, sp, #0
 272              	.LCFI13:
 273              		.cfi_def_cfa_register 7
 274 0006 7860     		str	r0, [r7, #4]
 162:.\Generated_Source\PSoC4/Transimpedance.c ****     Transimpedance_OA_RES_CTRL &= (~(uint32)Transimpedance_OA_PUMP_EN_MASK);
 275              		.loc 1 162 0
 276 0008 084B     		ldr	r3, .L18
 277 000a 084A     		ldr	r2, .L18
 278 000c 1168     		ldr	r1, [r2]
 279 000e 084A     		ldr	r2, .L18+4
 280 0010 0A40     		and	r2, r1
 281 0012 1A60     		str	r2, [r3]
 163:.\Generated_Source\PSoC4/Transimpedance.c ****     Transimpedance_OA_RES_CTRL |= ((onOff & Transimpedance_PUMP_PROTECT_MASK)
 282              		.loc 1 163 0
 283 0014 054B     		ldr	r3, .L18
 284 0016 054A     		ldr	r2, .L18
 285 0018 1168     		ldr	r1, [r2]
 286 001a 7868     		ldr	r0, [r7, #4]
 287 001c 0122     		mov	r2, #1
 288 001e 0240     		and	r2, r0
 164:.\Generated_Source\PSoC4/Transimpedance.c ****         << Transimpedance_OA_PUMP_CTRL_SHIFT);
 289              		.loc 1 164 0
 290 0020 D202     		lsl	r2, r2, #11
 163:.\Generated_Source\PSoC4/Transimpedance.c ****     Transimpedance_OA_RES_CTRL |= ((onOff & Transimpedance_PUMP_PROTECT_MASK)
 291              		.loc 1 163 0
ARM GAS  C:\DOCUME~1\Chuck\LOCALS~1\Temp\cca1G29y.s 			page 9


 292 0022 0A43     		orr	r2, r1
 293 0024 1A60     		str	r2, [r3]
 165:.\Generated_Source\PSoC4/Transimpedance.c **** }
 294              		.loc 1 165 0
 295 0026 BD46     		mov	sp, r7
 296 0028 02B0     		add	sp, sp, #8
 297              		@ sp needed for prologue
 298 002a 80BD     		pop	{r7, pc}
 299              	.L19:
 300              		.align	2
 301              	.L18:
 302 002c 04001040 		.word	1074790404
 303 0030 FFF7FFFF 		.word	-2049
 304              		.cfi_endproc
 305              	.LFE5:
 306              		.size	Transimpedance_PumpControl, .-Transimpedance_PumpControl
 307              		.text
 308              	.Letext0:
 309              		.file 2 ".\\Generated_Source\\PSoC4\\cytypes.h"