ARM GAS  C:\DOCUME~1\Chuck\LOCALS~1\Temp\ccTorCNV.s 			page 1


   1              		.cpu cortex-m0
   2              		.fpu softvfp
   3              		.eabi_attribute 20, 1
   4              		.eabi_attribute 21, 1
   5              		.eabi_attribute 23, 3
   6              		.eabi_attribute 24, 1
   7              		.eabi_attribute 25, 1
   8              		.eabi_attribute 26, 1
   9              		.eabi_attribute 30, 6
  10              		.eabi_attribute 34, 0
  11              		.eabi_attribute 18, 4
  12              		.code	16
  13              		.file	"UpDown.c"
  14              		.text
  15              	.Ltext0:
  16              		.cfi_sections	.debug_frame
  17              		.global	UpDown_initVar
  18              		.bss
  19              		.type	UpDown_initVar, %object
  20              		.size	UpDown_initVar, 1
  21              	UpDown_initVar:
  22 0000 00       		.space	1
  23              		.section	.text.UpDown_Init,"ax",%progbits
  24              		.align	2
  25              		.global	UpDown_Init
  26              		.code	16
  27              		.thumb_func
  28              		.type	UpDown_Init, %function
  29              	UpDown_Init:
  30              	.LFB0:
  31              		.file 1 ".\\Generated_Source\\PSoC4\\UpDown.c"
   1:.\Generated_Source\PSoC4/UpDown.c **** /*******************************************************************************
   2:.\Generated_Source\PSoC4/UpDown.c **** * File Name: UpDown.c  
   3:.\Generated_Source\PSoC4/UpDown.c **** * Version 2.40
   4:.\Generated_Source\PSoC4/UpDown.c **** *
   5:.\Generated_Source\PSoC4/UpDown.c **** *  Description:
   6:.\Generated_Source\PSoC4/UpDown.c **** *     The Counter component consists of a 8, 16, 24 or 32-bit counter with
   7:.\Generated_Source\PSoC4/UpDown.c **** *     a selectable period between 2 and 2^Width - 1.  
   8:.\Generated_Source\PSoC4/UpDown.c **** *
   9:.\Generated_Source\PSoC4/UpDown.c **** *   Note:
  10:.\Generated_Source\PSoC4/UpDown.c **** *     None
  11:.\Generated_Source\PSoC4/UpDown.c **** *
  12:.\Generated_Source\PSoC4/UpDown.c **** *******************************************************************************
  13:.\Generated_Source\PSoC4/UpDown.c **** * Copyright 2008-2012, Cypress Semiconductor Corporation.  All rights reserved.
  14:.\Generated_Source\PSoC4/UpDown.c **** * You may use this file only in accordance with the license, terms, conditions, 
  15:.\Generated_Source\PSoC4/UpDown.c **** * disclaimers, and limitations in the end user license agreement accompanying 
  16:.\Generated_Source\PSoC4/UpDown.c **** * the software package with which this file was provided.
  17:.\Generated_Source\PSoC4/UpDown.c **** ********************************************************************************/
  18:.\Generated_Source\PSoC4/UpDown.c **** 
  19:.\Generated_Source\PSoC4/UpDown.c **** #include "UpDown.h"
  20:.\Generated_Source\PSoC4/UpDown.c **** 
  21:.\Generated_Source\PSoC4/UpDown.c **** uint8 UpDown_initVar = 0u;
  22:.\Generated_Source\PSoC4/UpDown.c **** 
  23:.\Generated_Source\PSoC4/UpDown.c **** 
  24:.\Generated_Source\PSoC4/UpDown.c **** /*******************************************************************************
  25:.\Generated_Source\PSoC4/UpDown.c **** * Function Name: UpDown_Init
  26:.\Generated_Source\PSoC4/UpDown.c **** ********************************************************************************
ARM GAS  C:\DOCUME~1\Chuck\LOCALS~1\Temp\ccTorCNV.s 			page 2


  27:.\Generated_Source\PSoC4/UpDown.c **** * Summary:
  28:.\Generated_Source\PSoC4/UpDown.c **** *     Initialize to the schematic state
  29:.\Generated_Source\PSoC4/UpDown.c **** * 
  30:.\Generated_Source\PSoC4/UpDown.c **** * Parameters:  
  31:.\Generated_Source\PSoC4/UpDown.c **** *  void  
  32:.\Generated_Source\PSoC4/UpDown.c **** *
  33:.\Generated_Source\PSoC4/UpDown.c **** * Return: 
  34:.\Generated_Source\PSoC4/UpDown.c **** *  void
  35:.\Generated_Source\PSoC4/UpDown.c **** *
  36:.\Generated_Source\PSoC4/UpDown.c **** *******************************************************************************/
  37:.\Generated_Source\PSoC4/UpDown.c **** void UpDown_Init(void) 
  38:.\Generated_Source\PSoC4/UpDown.c **** {
  32              		.loc 1 38 0
  33              		.cfi_startproc
  34 0000 90B5     		push	{r4, r7, lr}
  35              	.LCFI0:
  36              		.cfi_def_cfa_offset 12
  37              		.cfi_offset 4, -12
  38              		.cfi_offset 7, -8
  39              		.cfi_offset 14, -4
  40 0002 83B0     		sub	sp, sp, #12
  41              	.LCFI1:
  42              		.cfi_def_cfa_offset 24
  43 0004 00AF     		add	r7, sp, #0
  44              	.LCFI2:
  45              		.cfi_def_cfa_register 7
  39:.\Generated_Source\PSoC4/UpDown.c ****         #if (!UpDown_UsingFixedFunction && !UpDown_ControlRegRemoved)
  40:.\Generated_Source\PSoC4/UpDown.c ****             uint8 ctrl;
  41:.\Generated_Source\PSoC4/UpDown.c ****         #endif /* (!UpDown_UsingFixedFunction && !UpDown_ControlRegRemoved) */
  42:.\Generated_Source\PSoC4/UpDown.c ****         
  43:.\Generated_Source\PSoC4/UpDown.c ****         #if(!UpDown_UsingFixedFunction) 
  44:.\Generated_Source\PSoC4/UpDown.c ****             /* Interrupt State Backup for Critical Region*/
  45:.\Generated_Source\PSoC4/UpDown.c ****             uint8 UpDown_interruptState;
  46:.\Generated_Source\PSoC4/UpDown.c ****         #endif /* (!UpDown_UsingFixedFunction) */
  47:.\Generated_Source\PSoC4/UpDown.c ****         
  48:.\Generated_Source\PSoC4/UpDown.c ****         #if (UpDown_UsingFixedFunction)
  49:.\Generated_Source\PSoC4/UpDown.c ****             /* Clear all bits but the enable bit (if it's already set for Timer operation */
  50:.\Generated_Source\PSoC4/UpDown.c ****             UpDown_CONTROL &= UpDown_CTRL_ENABLE;
  51:.\Generated_Source\PSoC4/UpDown.c ****             
  52:.\Generated_Source\PSoC4/UpDown.c ****             /* Clear the mode bits for continuous run mode */
  53:.\Generated_Source\PSoC4/UpDown.c ****             #if (CY_PSOC5A)
  54:.\Generated_Source\PSoC4/UpDown.c ****                 UpDown_CONTROL2 &= ((uint8)(~UpDown_CTRL_MODE_MASK));
  55:.\Generated_Source\PSoC4/UpDown.c ****             #endif /* (CY_PSOC5A) */
  56:.\Generated_Source\PSoC4/UpDown.c ****             #if (CY_PSOC3 || CY_PSOC5LP)
  57:.\Generated_Source\PSoC4/UpDown.c ****                 UpDown_CONTROL3 &= ((uint8)(~UpDown_CTRL_MODE_MASK));                
  58:.\Generated_Source\PSoC4/UpDown.c ****             #endif /* (CY_PSOC3 || CY_PSOC5LP) */
  59:.\Generated_Source\PSoC4/UpDown.c ****             /* Check if One Shot mode is enabled i.e. RunMode !=0*/
  60:.\Generated_Source\PSoC4/UpDown.c ****             #if (UpDown_RunModeUsed != 0x0u)
  61:.\Generated_Source\PSoC4/UpDown.c ****                 /* Set 3rd bit of Control register to enable one shot mode */
  62:.\Generated_Source\PSoC4/UpDown.c ****                 UpDown_CONTROL |= UpDown_ONESHOT;
  63:.\Generated_Source\PSoC4/UpDown.c ****             #endif /* (UpDown_RunModeUsed != 0x0u) */
  64:.\Generated_Source\PSoC4/UpDown.c ****             
  65:.\Generated_Source\PSoC4/UpDown.c ****             /* Set the IRQ to use the status register interrupts */
  66:.\Generated_Source\PSoC4/UpDown.c ****             UpDown_CONTROL2 |= UpDown_CTRL2_IRQ_SEL;
  67:.\Generated_Source\PSoC4/UpDown.c ****             
  68:.\Generated_Source\PSoC4/UpDown.c ****             /* Clear and Set SYNCTC and SYNCCMP bits of RT1 register */
  69:.\Generated_Source\PSoC4/UpDown.c ****             UpDown_RT1 &= ((uint8)(~UpDown_RT1_MASK));
ARM GAS  C:\DOCUME~1\Chuck\LOCALS~1\Temp\ccTorCNV.s 			page 3


  70:.\Generated_Source\PSoC4/UpDown.c ****             UpDown_RT1 |= UpDown_SYNC;     
  71:.\Generated_Source\PSoC4/UpDown.c ****                     
  72:.\Generated_Source\PSoC4/UpDown.c ****             /*Enable DSI Sync all all inputs of the Timer*/
  73:.\Generated_Source\PSoC4/UpDown.c ****             UpDown_RT1 &= ((uint8)(~UpDown_SYNCDSI_MASK));
  74:.\Generated_Source\PSoC4/UpDown.c ****             UpDown_RT1 |= UpDown_SYNCDSI_EN;
  75:.\Generated_Source\PSoC4/UpDown.c **** 
  76:.\Generated_Source\PSoC4/UpDown.c ****         #else
  77:.\Generated_Source\PSoC4/UpDown.c ****             #if(!UpDown_ControlRegRemoved)
  78:.\Generated_Source\PSoC4/UpDown.c ****             /* Set the default compare mode defined in the parameter */
  79:.\Generated_Source\PSoC4/UpDown.c ****             ctrl = UpDown_CONTROL & ((uint8)(~UpDown_CTRL_CMPMODE_MASK));
  46              		.loc 1 79 0
  47 0006 214B     		ldr	r3, .L2
  48 0008 1B78     		ldrb	r3, [r3]
  49 000a DAB2     		uxtb	r2, r3
  50 000c FB1D     		add	r3, r7, #7
  51 000e 0721     		mov	r1, #7
  52 0010 8A43     		bic	r2, r1
  53 0012 1A70     		strb	r2, [r3]
  80:.\Generated_Source\PSoC4/UpDown.c ****             UpDown_CONTROL = ctrl | UpDown_DEFAULT_COMPARE_MODE;
  54              		.loc 1 80 0
  55 0014 1D4B     		ldr	r3, .L2
  56 0016 FA1D     		add	r2, r7, #7
  57 0018 1278     		ldrb	r2, [r2]
  58 001a 0121     		mov	r1, #1
  59 001c 0A43     		orr	r2, r1
  60 001e D2B2     		uxtb	r2, r2
  61 0020 1A70     		strb	r2, [r3]
  81:.\Generated_Source\PSoC4/UpDown.c ****             
  82:.\Generated_Source\PSoC4/UpDown.c ****             /* Set the default capture mode defined in the parameter */
  83:.\Generated_Source\PSoC4/UpDown.c ****             ctrl = UpDown_CONTROL & ((uint8)(~UpDown_CTRL_CAPMODE_MASK));
  62              		.loc 1 83 0
  63 0022 1A4B     		ldr	r3, .L2
  64 0024 1B78     		ldrb	r3, [r3]
  65 0026 DAB2     		uxtb	r2, r3
  66 0028 FB1D     		add	r3, r7, #7
  67 002a 0321     		mov	r1, #3
  68 002c 8A43     		bic	r2, r1
  69 002e 1A70     		strb	r2, [r3]
  84:.\Generated_Source\PSoC4/UpDown.c ****             
  85:.\Generated_Source\PSoC4/UpDown.c ****             #if( 0 != UpDown_CAPTURE_MODE_CONF)
  86:.\Generated_Source\PSoC4/UpDown.c ****                 UpDown_CONTROL = ctrl | UpDown_DEFAULT_CAPTURE_MODE;
  87:.\Generated_Source\PSoC4/UpDown.c ****             #else
  88:.\Generated_Source\PSoC4/UpDown.c ****                 UpDown_CONTROL = ctrl;
  70              		.loc 1 88 0
  71 0030 164B     		ldr	r3, .L2
  72 0032 FA1D     		add	r2, r7, #7
  73 0034 1278     		ldrb	r2, [r2]
  74 0036 1A70     		strb	r2, [r3]
  89:.\Generated_Source\PSoC4/UpDown.c ****             #endif /* 0 != UpDown_CAPTURE_MODE */ 
  90:.\Generated_Source\PSoC4/UpDown.c ****             
  91:.\Generated_Source\PSoC4/UpDown.c ****             #endif /* (!UpDown_ControlRegRemoved) */
  92:.\Generated_Source\PSoC4/UpDown.c ****         #endif /* (UpDown_UsingFixedFunction) */
  93:.\Generated_Source\PSoC4/UpDown.c ****         
  94:.\Generated_Source\PSoC4/UpDown.c ****         /* Clear all data in the FIFO's */
  95:.\Generated_Source\PSoC4/UpDown.c ****         #if (!UpDown_UsingFixedFunction)
  96:.\Generated_Source\PSoC4/UpDown.c ****             UpDown_ClearFIFO();
  75              		.loc 1 96 0
ARM GAS  C:\DOCUME~1\Chuck\LOCALS~1\Temp\ccTorCNV.s 			page 4


  76 0038 FFF7FEFF 		bl	UpDown_ClearFIFO
  97:.\Generated_Source\PSoC4/UpDown.c ****         #endif /* (!UpDown_UsingFixedFunction) */
  98:.\Generated_Source\PSoC4/UpDown.c ****         
  99:.\Generated_Source\PSoC4/UpDown.c ****         /* Set Initial values from Configuration */
 100:.\Generated_Source\PSoC4/UpDown.c ****         UpDown_WritePeriod(UpDown_INIT_PERIOD_VALUE);
  77              		.loc 1 100 0
  78 003c 0223     		mov	r3, #2
  79 003e 5B42     		neg	r3, r3
  80 0040 181C     		mov	r0, r3
  81 0042 FFF7FEFF 		bl	UpDown_WritePeriod
 101:.\Generated_Source\PSoC4/UpDown.c ****         #if (!(UpDown_UsingFixedFunction && (CY_PSOC5A)))
 102:.\Generated_Source\PSoC4/UpDown.c ****             UpDown_WriteCounter(UpDown_INIT_COUNTER_VALUE);
  82              		.loc 1 102 0
  83 0046 0223     		mov	r3, #2
  84 0048 5B42     		neg	r3, r3
  85 004a 181C     		mov	r0, r3
  86 004c FFF7FEFF 		bl	UpDown_WriteCounter
 103:.\Generated_Source\PSoC4/UpDown.c ****         #endif /* (!(UpDown_UsingFixedFunction && (CY_PSOC5A))) */
 104:.\Generated_Source\PSoC4/UpDown.c ****         UpDown_SetInterruptMode(UpDown_INIT_INTERRUPTS_MASK);
  87              		.loc 1 104 0
  88 0050 0020     		mov	r0, #0
  89 0052 FFF7FEFF 		bl	UpDown_SetInterruptMode
 105:.\Generated_Source\PSoC4/UpDown.c ****         
 106:.\Generated_Source\PSoC4/UpDown.c ****         #if (!UpDown_UsingFixedFunction)
 107:.\Generated_Source\PSoC4/UpDown.c ****             /* Read the status register to clear the unwanted interrupts */
 108:.\Generated_Source\PSoC4/UpDown.c ****             (void)UpDown_ReadStatusRegister();
  90              		.loc 1 108 0
  91 0056 FFF7FEFF 		bl	UpDown_ReadStatusRegister
 109:.\Generated_Source\PSoC4/UpDown.c ****             /* Set the compare value (only available to non-fixed function implementation */
 110:.\Generated_Source\PSoC4/UpDown.c ****             UpDown_WriteCompare(UpDown_INIT_COMPARE_VALUE);
  92              		.loc 1 110 0
  93 005a 8020     		mov	r0, #128
  94 005c FFF7FEFF 		bl	UpDown_WriteCompare
 111:.\Generated_Source\PSoC4/UpDown.c ****             /* Use the interrupt output of the status register for IRQ output */
 112:.\Generated_Source\PSoC4/UpDown.c ****             
 113:.\Generated_Source\PSoC4/UpDown.c ****             /* CyEnterCriticalRegion and CyExitCriticalRegion are used to mark following region cri
 114:.\Generated_Source\PSoC4/UpDown.c ****             /* Enter Critical Region*/
 115:.\Generated_Source\PSoC4/UpDown.c ****             UpDown_interruptState = CyEnterCriticalSection();
  95              		.loc 1 115 0
  96 0060 BC1D     		add	r4, r7, #6
  97 0062 FFF7FEFF 		bl	CyEnterCriticalSection
  98 0066 031C     		mov	r3, r0
  99 0068 2370     		strb	r3, [r4]
 116:.\Generated_Source\PSoC4/UpDown.c ****             
 117:.\Generated_Source\PSoC4/UpDown.c ****             UpDown_STATUS_AUX_CTRL |= UpDown_STATUS_ACTL_INT_EN_MASK;
 100              		.loc 1 117 0
 101 006a 094B     		ldr	r3, .L2+4
 102 006c 084A     		ldr	r2, .L2+4
 103 006e 1278     		ldrb	r2, [r2]
 104 0070 D2B2     		uxtb	r2, r2
 105 0072 1021     		mov	r1, #16
 106 0074 0A43     		orr	r2, r1
 107 0076 D2B2     		uxtb	r2, r2
 108 0078 1A70     		strb	r2, [r3]
 118:.\Generated_Source\PSoC4/UpDown.c ****             
 119:.\Generated_Source\PSoC4/UpDown.c ****             /* Exit Critical Region*/
 120:.\Generated_Source\PSoC4/UpDown.c ****             CyExitCriticalSection(UpDown_interruptState);
ARM GAS  C:\DOCUME~1\Chuck\LOCALS~1\Temp\ccTorCNV.s 			page 5


 109              		.loc 1 120 0
 110 007a BB1D     		add	r3, r7, #6
 111 007c 1B78     		ldrb	r3, [r3]
 112 007e 181C     		mov	r0, r3
 113 0080 FFF7FEFF 		bl	CyExitCriticalSection
 121:.\Generated_Source\PSoC4/UpDown.c ****             
 122:.\Generated_Source\PSoC4/UpDown.c ****         #endif /* (!UpDown_UsingFixedFunction) */
 123:.\Generated_Source\PSoC4/UpDown.c **** }
 114              		.loc 1 123 0
 115 0084 BD46     		mov	sp, r7
 116 0086 03B0     		add	sp, sp, #12
 117              		@ sp needed for prologue
 118 0088 90BD     		pop	{r4, r7, pc}
 119              	.L3:
 120 008a C046     		.align	2
 121              	.L2:
 122 008c 70000F40 		.word	1074724976
 123 0090 93000F40 		.word	1074725011
 124              		.cfi_endproc
 125              	.LFE0:
 126              		.size	UpDown_Init, .-UpDown_Init
 127              		.section	.text.UpDown_Enable,"ax",%progbits
 128              		.align	2
 129              		.global	UpDown_Enable
 130              		.code	16
 131              		.thumb_func
 132              		.type	UpDown_Enable, %function
 133              	UpDown_Enable:
 134              	.LFB1:
 124:.\Generated_Source\PSoC4/UpDown.c **** 
 125:.\Generated_Source\PSoC4/UpDown.c **** 
 126:.\Generated_Source\PSoC4/UpDown.c **** /*******************************************************************************
 127:.\Generated_Source\PSoC4/UpDown.c **** * Function Name: UpDown_Enable
 128:.\Generated_Source\PSoC4/UpDown.c **** ********************************************************************************
 129:.\Generated_Source\PSoC4/UpDown.c **** * Summary:
 130:.\Generated_Source\PSoC4/UpDown.c **** *     Enable the Counter
 131:.\Generated_Source\PSoC4/UpDown.c **** * 
 132:.\Generated_Source\PSoC4/UpDown.c **** * Parameters:  
 133:.\Generated_Source\PSoC4/UpDown.c **** *  void  
 134:.\Generated_Source\PSoC4/UpDown.c **** *
 135:.\Generated_Source\PSoC4/UpDown.c **** * Return: 
 136:.\Generated_Source\PSoC4/UpDown.c **** *  void
 137:.\Generated_Source\PSoC4/UpDown.c **** *
 138:.\Generated_Source\PSoC4/UpDown.c **** * Side Effects: 
 139:.\Generated_Source\PSoC4/UpDown.c **** *   If the Enable mode is set to Hardware only then this function has no effect 
 140:.\Generated_Source\PSoC4/UpDown.c **** *   on the operation of the counter.
 141:.\Generated_Source\PSoC4/UpDown.c **** *
 142:.\Generated_Source\PSoC4/UpDown.c **** *******************************************************************************/
 143:.\Generated_Source\PSoC4/UpDown.c **** void UpDown_Enable(void) 
 144:.\Generated_Source\PSoC4/UpDown.c **** {
 135              		.loc 1 144 0
 136              		.cfi_startproc
 137 0000 80B5     		push	{r7, lr}
 138              	.LCFI3:
 139              		.cfi_def_cfa_offset 8
 140              		.cfi_offset 7, -8
 141              		.cfi_offset 14, -4
ARM GAS  C:\DOCUME~1\Chuck\LOCALS~1\Temp\ccTorCNV.s 			page 6


 142 0002 00AF     		add	r7, sp, #0
 143              	.LCFI4:
 144              		.cfi_def_cfa_register 7
 145:.\Generated_Source\PSoC4/UpDown.c ****     /* Globally Enable the Fixed Function Block chosen */
 146:.\Generated_Source\PSoC4/UpDown.c ****     #if (UpDown_UsingFixedFunction)
 147:.\Generated_Source\PSoC4/UpDown.c ****         UpDown_GLOBAL_ENABLE |= UpDown_BLOCK_EN_MASK;
 148:.\Generated_Source\PSoC4/UpDown.c ****         UpDown_GLOBAL_STBY_ENABLE |= UpDown_BLOCK_STBY_EN_MASK;
 149:.\Generated_Source\PSoC4/UpDown.c ****     #endif /* (UpDown_UsingFixedFunction) */  
 150:.\Generated_Source\PSoC4/UpDown.c ****         
 151:.\Generated_Source\PSoC4/UpDown.c ****     /* Enable the counter from the control register  */
 152:.\Generated_Source\PSoC4/UpDown.c ****     /* If Fixed Function then make sure Mode is set correctly */
 153:.\Generated_Source\PSoC4/UpDown.c ****     /* else make sure reset is clear */
 154:.\Generated_Source\PSoC4/UpDown.c ****     #if(!UpDown_ControlRegRemoved || UpDown_UsingFixedFunction)
 155:.\Generated_Source\PSoC4/UpDown.c ****         UpDown_CONTROL |= UpDown_CTRL_ENABLE;                
 145              		.loc 1 155 0
 146 0004 054B     		ldr	r3, .L5
 147 0006 054A     		ldr	r2, .L5
 148 0008 1278     		ldrb	r2, [r2]
 149 000a D2B2     		uxtb	r2, r2
 150 000c 8021     		mov	r1, #128
 151 000e 4942     		neg	r1, r1
 152 0010 0A43     		orr	r2, r1
 153 0012 D2B2     		uxtb	r2, r2
 154 0014 1A70     		strb	r2, [r3]
 156:.\Generated_Source\PSoC4/UpDown.c ****     #endif /* (!UpDown_ControlRegRemoved || UpDown_UsingFixedFunction) */
 157:.\Generated_Source\PSoC4/UpDown.c ****     
 158:.\Generated_Source\PSoC4/UpDown.c **** }
 155              		.loc 1 158 0
 156 0016 BD46     		mov	sp, r7
 157              		@ sp needed for prologue
 158 0018 80BD     		pop	{r7, pc}
 159              	.L6:
 160 001a C046     		.align	2
 161              	.L5:
 162 001c 70000F40 		.word	1074724976
 163              		.cfi_endproc
 164              	.LFE1:
 165              		.size	UpDown_Enable, .-UpDown_Enable
 166              		.section	.text.UpDown_Start,"ax",%progbits
 167              		.align	2
 168              		.global	UpDown_Start
 169              		.code	16
 170              		.thumb_func
 171              		.type	UpDown_Start, %function
 172              	UpDown_Start:
 173              	.LFB2:
 159:.\Generated_Source\PSoC4/UpDown.c **** 
 160:.\Generated_Source\PSoC4/UpDown.c **** 
 161:.\Generated_Source\PSoC4/UpDown.c **** /*******************************************************************************
 162:.\Generated_Source\PSoC4/UpDown.c **** * Function Name: UpDown_Start
 163:.\Generated_Source\PSoC4/UpDown.c **** ********************************************************************************
 164:.\Generated_Source\PSoC4/UpDown.c **** * Summary:
 165:.\Generated_Source\PSoC4/UpDown.c **** *  Enables the counter for operation 
 166:.\Generated_Source\PSoC4/UpDown.c **** *
 167:.\Generated_Source\PSoC4/UpDown.c **** * Parameters:  
 168:.\Generated_Source\PSoC4/UpDown.c **** *  void  
 169:.\Generated_Source\PSoC4/UpDown.c **** *
ARM GAS  C:\DOCUME~1\Chuck\LOCALS~1\Temp\ccTorCNV.s 			page 7


 170:.\Generated_Source\PSoC4/UpDown.c **** * Return: 
 171:.\Generated_Source\PSoC4/UpDown.c **** *  void
 172:.\Generated_Source\PSoC4/UpDown.c **** *
 173:.\Generated_Source\PSoC4/UpDown.c **** * Global variables:
 174:.\Generated_Source\PSoC4/UpDown.c **** *  UpDown_initVar: Is modified when this function is called for the  
 175:.\Generated_Source\PSoC4/UpDown.c **** *   first time. Is used to ensure that initialization happens only once.
 176:.\Generated_Source\PSoC4/UpDown.c **** *
 177:.\Generated_Source\PSoC4/UpDown.c **** *******************************************************************************/
 178:.\Generated_Source\PSoC4/UpDown.c **** void UpDown_Start(void) 
 179:.\Generated_Source\PSoC4/UpDown.c **** {
 174              		.loc 1 179 0
 175              		.cfi_startproc
 176 0000 80B5     		push	{r7, lr}
 177              	.LCFI5:
 178              		.cfi_def_cfa_offset 8
 179              		.cfi_offset 7, -8
 180              		.cfi_offset 14, -4
 181 0002 00AF     		add	r7, sp, #0
 182              	.LCFI6:
 183              		.cfi_def_cfa_register 7
 180:.\Generated_Source\PSoC4/UpDown.c ****     if(UpDown_initVar == 0u)
 184              		.loc 1 180 0
 185 0004 064B     		ldr	r3, .L9
 186 0006 1B78     		ldrb	r3, [r3]
 187 0008 002B     		cmp	r3, #0
 188 000a 04D1     		bne	.L8
 181:.\Generated_Source\PSoC4/UpDown.c ****     {
 182:.\Generated_Source\PSoC4/UpDown.c ****         UpDown_Init();
 189              		.loc 1 182 0
 190 000c FFF7FEFF 		bl	UpDown_Init
 183:.\Generated_Source\PSoC4/UpDown.c ****         
 184:.\Generated_Source\PSoC4/UpDown.c ****         UpDown_initVar = 1u; /* Clear this bit for Initialization */        
 191              		.loc 1 184 0
 192 0010 034B     		ldr	r3, .L9
 193 0012 0122     		mov	r2, #1
 194 0014 1A70     		strb	r2, [r3]
 195              	.L8:
 185:.\Generated_Source\PSoC4/UpDown.c ****     }
 186:.\Generated_Source\PSoC4/UpDown.c ****     
 187:.\Generated_Source\PSoC4/UpDown.c ****     /* Enable the Counter */
 188:.\Generated_Source\PSoC4/UpDown.c ****     UpDown_Enable();        
 196              		.loc 1 188 0
 197 0016 FFF7FEFF 		bl	UpDown_Enable
 189:.\Generated_Source\PSoC4/UpDown.c **** }
 198              		.loc 1 189 0
 199 001a BD46     		mov	sp, r7
 200              		@ sp needed for prologue
 201 001c 80BD     		pop	{r7, pc}
 202              	.L10:
 203 001e C046     		.align	2
 204              	.L9:
 205 0020 00000000 		.word	UpDown_initVar
 206              		.cfi_endproc
 207              	.LFE2:
 208              		.size	UpDown_Start, .-UpDown_Start
 209              		.section	.text.UpDown_Stop,"ax",%progbits
 210              		.align	2
ARM GAS  C:\DOCUME~1\Chuck\LOCALS~1\Temp\ccTorCNV.s 			page 8


 211              		.global	UpDown_Stop
 212              		.code	16
 213              		.thumb_func
 214              		.type	UpDown_Stop, %function
 215              	UpDown_Stop:
 216              	.LFB3:
 190:.\Generated_Source\PSoC4/UpDown.c **** 
 191:.\Generated_Source\PSoC4/UpDown.c **** 
 192:.\Generated_Source\PSoC4/UpDown.c **** /*******************************************************************************
 193:.\Generated_Source\PSoC4/UpDown.c **** * Function Name: UpDown_Stop
 194:.\Generated_Source\PSoC4/UpDown.c **** ********************************************************************************
 195:.\Generated_Source\PSoC4/UpDown.c **** * Summary:
 196:.\Generated_Source\PSoC4/UpDown.c **** * Halts the counter, but does not change any modes or disable interrupts.
 197:.\Generated_Source\PSoC4/UpDown.c **** *
 198:.\Generated_Source\PSoC4/UpDown.c **** * Parameters:  
 199:.\Generated_Source\PSoC4/UpDown.c **** *  void  
 200:.\Generated_Source\PSoC4/UpDown.c **** *
 201:.\Generated_Source\PSoC4/UpDown.c **** * Return: 
 202:.\Generated_Source\PSoC4/UpDown.c **** *  void
 203:.\Generated_Source\PSoC4/UpDown.c **** *
 204:.\Generated_Source\PSoC4/UpDown.c **** * Side Effects: If the Enable mode is set to Hardware only then this function
 205:.\Generated_Source\PSoC4/UpDown.c **** *               has no effect on the operation of the counter.
 206:.\Generated_Source\PSoC4/UpDown.c **** *
 207:.\Generated_Source\PSoC4/UpDown.c **** *******************************************************************************/
 208:.\Generated_Source\PSoC4/UpDown.c **** void UpDown_Stop(void) 
 209:.\Generated_Source\PSoC4/UpDown.c **** {
 217              		.loc 1 209 0
 218              		.cfi_startproc
 219 0000 80B5     		push	{r7, lr}
 220              	.LCFI7:
 221              		.cfi_def_cfa_offset 8
 222              		.cfi_offset 7, -8
 223              		.cfi_offset 14, -4
 224 0002 00AF     		add	r7, sp, #0
 225              	.LCFI8:
 226              		.cfi_def_cfa_register 7
 210:.\Generated_Source\PSoC4/UpDown.c ****     /* Disable Counter */
 211:.\Generated_Source\PSoC4/UpDown.c ****     #if(!UpDown_ControlRegRemoved || UpDown_UsingFixedFunction)
 212:.\Generated_Source\PSoC4/UpDown.c ****         UpDown_CONTROL &= ((uint8)(~UpDown_CTRL_ENABLE));        
 227              		.loc 1 212 0
 228 0004 044B     		ldr	r3, .L12
 229 0006 044A     		ldr	r2, .L12
 230 0008 1278     		ldrb	r2, [r2]
 231 000a D1B2     		uxtb	r1, r2
 232 000c 7F22     		mov	r2, #127
 233 000e 0A40     		and	r2, r1
 234 0010 D2B2     		uxtb	r2, r2
 235 0012 1A70     		strb	r2, [r3]
 213:.\Generated_Source\PSoC4/UpDown.c ****     #endif /* (!UpDown_ControlRegRemoved || UpDown_UsingFixedFunction) */
 214:.\Generated_Source\PSoC4/UpDown.c ****     
 215:.\Generated_Source\PSoC4/UpDown.c ****     /* Globally disable the Fixed Function Block chosen */
 216:.\Generated_Source\PSoC4/UpDown.c ****     #if (UpDown_UsingFixedFunction)
 217:.\Generated_Source\PSoC4/UpDown.c ****         UpDown_GLOBAL_ENABLE &= ((uint8)(~UpDown_BLOCK_EN_MASK));
 218:.\Generated_Source\PSoC4/UpDown.c ****         UpDown_GLOBAL_STBY_ENABLE &= ((uint8)(~UpDown_BLOCK_STBY_EN_MASK));
 219:.\Generated_Source\PSoC4/UpDown.c ****     #endif /* (UpDown_UsingFixedFunction) */
 220:.\Generated_Source\PSoC4/UpDown.c **** }
 236              		.loc 1 220 0
ARM GAS  C:\DOCUME~1\Chuck\LOCALS~1\Temp\ccTorCNV.s 			page 9


 237 0014 BD46     		mov	sp, r7
 238              		@ sp needed for prologue
 239 0016 80BD     		pop	{r7, pc}
 240              	.L13:
 241              		.align	2
 242              	.L12:
 243 0018 70000F40 		.word	1074724976
 244              		.cfi_endproc
 245              	.LFE3:
 246              		.size	UpDown_Stop, .-UpDown_Stop
 247              		.section	.text.UpDown_SetInterruptMode,"ax",%progbits
 248              		.align	2
 249              		.global	UpDown_SetInterruptMode
 250              		.code	16
 251              		.thumb_func
 252              		.type	UpDown_SetInterruptMode, %function
 253              	UpDown_SetInterruptMode:
 254              	.LFB4:
 221:.\Generated_Source\PSoC4/UpDown.c **** 
 222:.\Generated_Source\PSoC4/UpDown.c **** 
 223:.\Generated_Source\PSoC4/UpDown.c **** /*******************************************************************************
 224:.\Generated_Source\PSoC4/UpDown.c **** * Function Name: UpDown_SetInterruptMode
 225:.\Generated_Source\PSoC4/UpDown.c **** ********************************************************************************
 226:.\Generated_Source\PSoC4/UpDown.c **** * Summary:
 227:.\Generated_Source\PSoC4/UpDown.c **** * Configures which interrupt sources are enabled to generate the final interrupt
 228:.\Generated_Source\PSoC4/UpDown.c **** *
 229:.\Generated_Source\PSoC4/UpDown.c **** * Parameters:  
 230:.\Generated_Source\PSoC4/UpDown.c **** *  InterruptsMask: This parameter is an or'd collection of the status bits
 231:.\Generated_Source\PSoC4/UpDown.c **** *                   which will be allowed to generate the counters interrupt.   
 232:.\Generated_Source\PSoC4/UpDown.c **** *
 233:.\Generated_Source\PSoC4/UpDown.c **** * Return: 
 234:.\Generated_Source\PSoC4/UpDown.c **** *  void
 235:.\Generated_Source\PSoC4/UpDown.c **** *
 236:.\Generated_Source\PSoC4/UpDown.c **** *******************************************************************************/
 237:.\Generated_Source\PSoC4/UpDown.c **** void UpDown_SetInterruptMode(uint8 interruptsMask) 
 238:.\Generated_Source\PSoC4/UpDown.c **** {
 255              		.loc 1 238 0
 256              		.cfi_startproc
 257 0000 80B5     		push	{r7, lr}
 258              	.LCFI9:
 259              		.cfi_def_cfa_offset 8
 260              		.cfi_offset 7, -8
 261              		.cfi_offset 14, -4
 262 0002 82B0     		sub	sp, sp, #8
 263              	.LCFI10:
 264              		.cfi_def_cfa_offset 16
 265 0004 00AF     		add	r7, sp, #0
 266              	.LCFI11:
 267              		.cfi_def_cfa_register 7
 268 0006 021C     		mov	r2, r0
 269 0008 FB1D     		add	r3, r7, #7
 270 000a 1A70     		strb	r2, [r3]
 239:.\Generated_Source\PSoC4/UpDown.c ****     UpDown_STATUS_MASK = interruptsMask;
 271              		.loc 1 239 0
 272 000c 034B     		ldr	r3, .L15
 273 000e FA1D     		add	r2, r7, #7
 274 0010 1278     		ldrb	r2, [r2]
ARM GAS  C:\DOCUME~1\Chuck\LOCALS~1\Temp\ccTorCNV.s 			page 10


 275 0012 1A70     		strb	r2, [r3]
 240:.\Generated_Source\PSoC4/UpDown.c **** }
 276              		.loc 1 240 0
 277 0014 BD46     		mov	sp, r7
 278 0016 02B0     		add	sp, sp, #8
 279              		@ sp needed for prologue
 280 0018 80BD     		pop	{r7, pc}
 281              	.L16:
 282 001a C046     		.align	2
 283              	.L15:
 284 001c 83000F40 		.word	1074724995
 285              		.cfi_endproc
 286              	.LFE4:
 287              		.size	UpDown_SetInterruptMode, .-UpDown_SetInterruptMode
 288              		.section	.text.UpDown_ReadStatusRegister,"ax",%progbits
 289              		.align	2
 290              		.global	UpDown_ReadStatusRegister
 291              		.code	16
 292              		.thumb_func
 293              		.type	UpDown_ReadStatusRegister, %function
 294              	UpDown_ReadStatusRegister:
 295              	.LFB5:
 241:.\Generated_Source\PSoC4/UpDown.c **** 
 242:.\Generated_Source\PSoC4/UpDown.c **** 
 243:.\Generated_Source\PSoC4/UpDown.c **** /*******************************************************************************
 244:.\Generated_Source\PSoC4/UpDown.c **** * Function Name: UpDown_ReadStatusRegister
 245:.\Generated_Source\PSoC4/UpDown.c **** ********************************************************************************
 246:.\Generated_Source\PSoC4/UpDown.c **** * Summary:
 247:.\Generated_Source\PSoC4/UpDown.c **** *   Reads the status register and returns it's state. This function should use
 248:.\Generated_Source\PSoC4/UpDown.c **** *       defined types for the bit-field information as the bits in this
 249:.\Generated_Source\PSoC4/UpDown.c **** *       register may be permuteable.
 250:.\Generated_Source\PSoC4/UpDown.c **** *
 251:.\Generated_Source\PSoC4/UpDown.c **** * Parameters:  
 252:.\Generated_Source\PSoC4/UpDown.c **** *  void
 253:.\Generated_Source\PSoC4/UpDown.c **** *
 254:.\Generated_Source\PSoC4/UpDown.c **** * Return: 
 255:.\Generated_Source\PSoC4/UpDown.c **** *  (uint8) The contents of the status register
 256:.\Generated_Source\PSoC4/UpDown.c **** *
 257:.\Generated_Source\PSoC4/UpDown.c **** * Side Effects:
 258:.\Generated_Source\PSoC4/UpDown.c **** *   Status register bits may be clear on read. 
 259:.\Generated_Source\PSoC4/UpDown.c **** *
 260:.\Generated_Source\PSoC4/UpDown.c **** *******************************************************************************/
 261:.\Generated_Source\PSoC4/UpDown.c **** uint8   UpDown_ReadStatusRegister(void) 
 262:.\Generated_Source\PSoC4/UpDown.c **** {
 296              		.loc 1 262 0
 297              		.cfi_startproc
 298 0000 80B5     		push	{r7, lr}
 299              	.LCFI12:
 300              		.cfi_def_cfa_offset 8
 301              		.cfi_offset 7, -8
 302              		.cfi_offset 14, -4
 303 0002 00AF     		add	r7, sp, #0
 304              	.LCFI13:
 305              		.cfi_def_cfa_register 7
 263:.\Generated_Source\PSoC4/UpDown.c ****     return UpDown_STATUS;
 306              		.loc 1 263 0
 307 0004 024B     		ldr	r3, .L19
ARM GAS  C:\DOCUME~1\Chuck\LOCALS~1\Temp\ccTorCNV.s 			page 11


 308 0006 1B78     		ldrb	r3, [r3]
 309 0008 DBB2     		uxtb	r3, r3
 264:.\Generated_Source\PSoC4/UpDown.c **** }
 310              		.loc 1 264 0
 311 000a 181C     		mov	r0, r3
 312 000c BD46     		mov	sp, r7
 313              		@ sp needed for prologue
 314 000e 80BD     		pop	{r7, pc}
 315              	.L20:
 316              		.align	2
 317              	.L19:
 318 0010 63000F40 		.word	1074724963
 319              		.cfi_endproc
 320              	.LFE5:
 321              		.size	UpDown_ReadStatusRegister, .-UpDown_ReadStatusRegister
 322              		.section	.text.UpDown_ReadControlRegister,"ax",%progbits
 323              		.align	2
 324              		.global	UpDown_ReadControlRegister
 325              		.code	16
 326              		.thumb_func
 327              		.type	UpDown_ReadControlRegister, %function
 328              	UpDown_ReadControlRegister:
 329              	.LFB6:
 265:.\Generated_Source\PSoC4/UpDown.c **** 
 266:.\Generated_Source\PSoC4/UpDown.c **** 
 267:.\Generated_Source\PSoC4/UpDown.c **** #if(!UpDown_ControlRegRemoved)
 268:.\Generated_Source\PSoC4/UpDown.c **** /*******************************************************************************
 269:.\Generated_Source\PSoC4/UpDown.c **** * Function Name: UpDown_ReadControlRegister
 270:.\Generated_Source\PSoC4/UpDown.c **** ********************************************************************************
 271:.\Generated_Source\PSoC4/UpDown.c **** * Summary:
 272:.\Generated_Source\PSoC4/UpDown.c **** *   Reads the control register and returns it's state. This function should use
 273:.\Generated_Source\PSoC4/UpDown.c **** *       defined types for the bit-field information as the bits in this
 274:.\Generated_Source\PSoC4/UpDown.c **** *       register may be permuteable.
 275:.\Generated_Source\PSoC4/UpDown.c **** *
 276:.\Generated_Source\PSoC4/UpDown.c **** * Parameters:  
 277:.\Generated_Source\PSoC4/UpDown.c **** *  void
 278:.\Generated_Source\PSoC4/UpDown.c **** *
 279:.\Generated_Source\PSoC4/UpDown.c **** * Return: 
 280:.\Generated_Source\PSoC4/UpDown.c **** *  (uint8) The contents of the control register
 281:.\Generated_Source\PSoC4/UpDown.c **** *
 282:.\Generated_Source\PSoC4/UpDown.c **** *******************************************************************************/
 283:.\Generated_Source\PSoC4/UpDown.c **** uint8   UpDown_ReadControlRegister(void) 
 284:.\Generated_Source\PSoC4/UpDown.c **** {
 330              		.loc 1 284 0
 331              		.cfi_startproc
 332 0000 80B5     		push	{r7, lr}
 333              	.LCFI14:
 334              		.cfi_def_cfa_offset 8
 335              		.cfi_offset 7, -8
 336              		.cfi_offset 14, -4
 337 0002 00AF     		add	r7, sp, #0
 338              	.LCFI15:
 339              		.cfi_def_cfa_register 7
 285:.\Generated_Source\PSoC4/UpDown.c ****     return UpDown_CONTROL;
 340              		.loc 1 285 0
 341 0004 024B     		ldr	r3, .L23
 342 0006 1B78     		ldrb	r3, [r3]
ARM GAS  C:\DOCUME~1\Chuck\LOCALS~1\Temp\ccTorCNV.s 			page 12


 343 0008 DBB2     		uxtb	r3, r3
 286:.\Generated_Source\PSoC4/UpDown.c **** }
 344              		.loc 1 286 0
 345 000a 181C     		mov	r0, r3
 346 000c BD46     		mov	sp, r7
 347              		@ sp needed for prologue
 348 000e 80BD     		pop	{r7, pc}
 349              	.L24:
 350              		.align	2
 351              	.L23:
 352 0010 70000F40 		.word	1074724976
 353              		.cfi_endproc
 354              	.LFE6:
 355              		.size	UpDown_ReadControlRegister, .-UpDown_ReadControlRegister
 356              		.section	.text.UpDown_WriteControlRegister,"ax",%progbits
 357              		.align	2
 358              		.global	UpDown_WriteControlRegister
 359              		.code	16
 360              		.thumb_func
 361              		.type	UpDown_WriteControlRegister, %function
 362              	UpDown_WriteControlRegister:
 363              	.LFB7:
 287:.\Generated_Source\PSoC4/UpDown.c **** 
 288:.\Generated_Source\PSoC4/UpDown.c **** 
 289:.\Generated_Source\PSoC4/UpDown.c **** /*******************************************************************************
 290:.\Generated_Source\PSoC4/UpDown.c **** * Function Name: UpDown_WriteControlRegister
 291:.\Generated_Source\PSoC4/UpDown.c **** ********************************************************************************
 292:.\Generated_Source\PSoC4/UpDown.c **** * Summary:
 293:.\Generated_Source\PSoC4/UpDown.c **** *   Sets the bit-field of the control register.  This function should use
 294:.\Generated_Source\PSoC4/UpDown.c **** *       defined types for the bit-field information as the bits in this
 295:.\Generated_Source\PSoC4/UpDown.c **** *       register may be permuteable.
 296:.\Generated_Source\PSoC4/UpDown.c **** *
 297:.\Generated_Source\PSoC4/UpDown.c **** * Parameters:  
 298:.\Generated_Source\PSoC4/UpDown.c **** *  void
 299:.\Generated_Source\PSoC4/UpDown.c **** *
 300:.\Generated_Source\PSoC4/UpDown.c **** * Return: 
 301:.\Generated_Source\PSoC4/UpDown.c **** *  (uint8) The contents of the control register
 302:.\Generated_Source\PSoC4/UpDown.c **** *
 303:.\Generated_Source\PSoC4/UpDown.c **** *******************************************************************************/
 304:.\Generated_Source\PSoC4/UpDown.c **** void    UpDown_WriteControlRegister(uint8 control) 
 305:.\Generated_Source\PSoC4/UpDown.c **** {
 364              		.loc 1 305 0
 365              		.cfi_startproc
 366 0000 80B5     		push	{r7, lr}
 367              	.LCFI16:
 368              		.cfi_def_cfa_offset 8
 369              		.cfi_offset 7, -8
 370              		.cfi_offset 14, -4
 371 0002 82B0     		sub	sp, sp, #8
 372              	.LCFI17:
 373              		.cfi_def_cfa_offset 16
 374 0004 00AF     		add	r7, sp, #0
 375              	.LCFI18:
 376              		.cfi_def_cfa_register 7
 377 0006 021C     		mov	r2, r0
 378 0008 FB1D     		add	r3, r7, #7
 379 000a 1A70     		strb	r2, [r3]
ARM GAS  C:\DOCUME~1\Chuck\LOCALS~1\Temp\ccTorCNV.s 			page 13


 306:.\Generated_Source\PSoC4/UpDown.c ****     UpDown_CONTROL = control;
 380              		.loc 1 306 0
 381 000c 034B     		ldr	r3, .L26
 382 000e FA1D     		add	r2, r7, #7
 383 0010 1278     		ldrb	r2, [r2]
 384 0012 1A70     		strb	r2, [r3]
 307:.\Generated_Source\PSoC4/UpDown.c **** }
 385              		.loc 1 307 0
 386 0014 BD46     		mov	sp, r7
 387 0016 02B0     		add	sp, sp, #8
 388              		@ sp needed for prologue
 389 0018 80BD     		pop	{r7, pc}
 390              	.L27:
 391 001a C046     		.align	2
 392              	.L26:
 393 001c 70000F40 		.word	1074724976
 394              		.cfi_endproc
 395              	.LFE7:
 396              		.size	UpDown_WriteControlRegister, .-UpDown_WriteControlRegister
 397              		.section	.text.UpDown_WriteCounter,"ax",%progbits
 398              		.align	2
 399              		.global	UpDown_WriteCounter
 400              		.code	16
 401              		.thumb_func
 402              		.type	UpDown_WriteCounter, %function
 403              	UpDown_WriteCounter:
 404              	.LFB8:
 308:.\Generated_Source\PSoC4/UpDown.c **** 
 309:.\Generated_Source\PSoC4/UpDown.c **** #endif  /* (!UpDown_ControlRegRemoved) */
 310:.\Generated_Source\PSoC4/UpDown.c **** 
 311:.\Generated_Source\PSoC4/UpDown.c **** 
 312:.\Generated_Source\PSoC4/UpDown.c **** #if (!(UpDown_UsingFixedFunction && (CY_PSOC5A)))
 313:.\Generated_Source\PSoC4/UpDown.c **** /*******************************************************************************
 314:.\Generated_Source\PSoC4/UpDown.c **** * Function Name: UpDown_WriteCounter
 315:.\Generated_Source\PSoC4/UpDown.c **** ********************************************************************************
 316:.\Generated_Source\PSoC4/UpDown.c **** * Summary:
 317:.\Generated_Source\PSoC4/UpDown.c **** *   This funtion is used to set the counter to a specific value
 318:.\Generated_Source\PSoC4/UpDown.c **** *
 319:.\Generated_Source\PSoC4/UpDown.c **** * Parameters:  
 320:.\Generated_Source\PSoC4/UpDown.c **** *  counter:  New counter value. 
 321:.\Generated_Source\PSoC4/UpDown.c **** *
 322:.\Generated_Source\PSoC4/UpDown.c **** * Return: 
 323:.\Generated_Source\PSoC4/UpDown.c **** *  void 
 324:.\Generated_Source\PSoC4/UpDown.c **** *
 325:.\Generated_Source\PSoC4/UpDown.c **** *******************************************************************************/
 326:.\Generated_Source\PSoC4/UpDown.c **** void UpDown_WriteCounter(uint32 counter) \
 327:.\Generated_Source\PSoC4/UpDown.c ****                                    
 328:.\Generated_Source\PSoC4/UpDown.c **** {
 405              		.loc 1 328 0
 406              		.cfi_startproc
 407 0000 80B5     		push	{r7, lr}
 408              	.LCFI19:
 409              		.cfi_def_cfa_offset 8
 410              		.cfi_offset 7, -8
 411              		.cfi_offset 14, -4
 412 0002 82B0     		sub	sp, sp, #8
 413              	.LCFI20:
ARM GAS  C:\DOCUME~1\Chuck\LOCALS~1\Temp\ccTorCNV.s 			page 14


 414              		.cfi_def_cfa_offset 16
 415 0004 00AF     		add	r7, sp, #0
 416              	.LCFI21:
 417              		.cfi_def_cfa_register 7
 418 0006 7860     		str	r0, [r7, #4]
 329:.\Generated_Source\PSoC4/UpDown.c ****     #if(UpDown_UsingFixedFunction)
 330:.\Generated_Source\PSoC4/UpDown.c ****         /* assert if block is already enabled */
 331:.\Generated_Source\PSoC4/UpDown.c ****         CYASSERT (0u == (UpDown_GLOBAL_ENABLE & UpDown_BLOCK_EN_MASK));
 332:.\Generated_Source\PSoC4/UpDown.c ****         /* If block is disabled, enable it and then write the counter */
 333:.\Generated_Source\PSoC4/UpDown.c ****         UpDown_GLOBAL_ENABLE |= UpDown_BLOCK_EN_MASK;
 334:.\Generated_Source\PSoC4/UpDown.c ****         CY_SET_REG16(UpDown_COUNTER_LSB_PTR, (uint16)counter);
 335:.\Generated_Source\PSoC4/UpDown.c ****         UpDown_GLOBAL_ENABLE &= ((uint8)(~UpDown_BLOCK_EN_MASK));
 336:.\Generated_Source\PSoC4/UpDown.c ****     #else
 337:.\Generated_Source\PSoC4/UpDown.c ****         CY_SET_REG32(UpDown_COUNTER_LSB_PTR, counter);
 419              		.loc 1 337 0
 420 0008 024B     		ldr	r3, .L29
 421 000a 7A68     		ldr	r2, [r7, #4]
 422 000c 1A60     		str	r2, [r3]
 338:.\Generated_Source\PSoC4/UpDown.c ****     #endif /* (UpDown_UsingFixedFunction) */
 339:.\Generated_Source\PSoC4/UpDown.c **** }
 423              		.loc 1 339 0
 424 000e BD46     		mov	sp, r7
 425 0010 02B0     		add	sp, sp, #8
 426              		@ sp needed for prologue
 427 0012 80BD     		pop	{r7, pc}
 428              	.L30:
 429              		.align	2
 430              	.L29:
 431 0014 00200F40 		.word	1074733056
 432              		.cfi_endproc
 433              	.LFE8:
 434              		.size	UpDown_WriteCounter, .-UpDown_WriteCounter
 435              		.section	.text.UpDown_ReadCounter,"ax",%progbits
 436              		.align	2
 437              		.global	UpDown_ReadCounter
 438              		.code	16
 439              		.thumb_func
 440              		.type	UpDown_ReadCounter, %function
 441              	UpDown_ReadCounter:
 442              	.LFB9:
 340:.\Generated_Source\PSoC4/UpDown.c **** #endif /* (!(UpDown_UsingFixedFunction && (CY_PSOC5A))) */
 341:.\Generated_Source\PSoC4/UpDown.c **** 
 342:.\Generated_Source\PSoC4/UpDown.c **** 
 343:.\Generated_Source\PSoC4/UpDown.c **** /*******************************************************************************
 344:.\Generated_Source\PSoC4/UpDown.c **** * Function Name: UpDown_ReadCounter
 345:.\Generated_Source\PSoC4/UpDown.c **** ********************************************************************************
 346:.\Generated_Source\PSoC4/UpDown.c **** * Summary:
 347:.\Generated_Source\PSoC4/UpDown.c **** * Returns the current value of the counter.  It doesn't matter
 348:.\Generated_Source\PSoC4/UpDown.c **** * if the counter is enabled or running.
 349:.\Generated_Source\PSoC4/UpDown.c **** *
 350:.\Generated_Source\PSoC4/UpDown.c **** * Parameters:  
 351:.\Generated_Source\PSoC4/UpDown.c **** *  void:  
 352:.\Generated_Source\PSoC4/UpDown.c **** *
 353:.\Generated_Source\PSoC4/UpDown.c **** * Return: 
 354:.\Generated_Source\PSoC4/UpDown.c **** *  (uint32) The present value of the counter.
 355:.\Generated_Source\PSoC4/UpDown.c **** *
 356:.\Generated_Source\PSoC4/UpDown.c **** *******************************************************************************/
ARM GAS  C:\DOCUME~1\Chuck\LOCALS~1\Temp\ccTorCNV.s 			page 15


 357:.\Generated_Source\PSoC4/UpDown.c **** uint32 UpDown_ReadCounter(void) 
 358:.\Generated_Source\PSoC4/UpDown.c **** {
 443              		.loc 1 358 0
 444              		.cfi_startproc
 445 0000 80B5     		push	{r7, lr}
 446              	.LCFI22:
 447              		.cfi_def_cfa_offset 8
 448              		.cfi_offset 7, -8
 449              		.cfi_offset 14, -4
 450 0002 00AF     		add	r7, sp, #0
 451              	.LCFI23:
 452              		.cfi_def_cfa_register 7
 359:.\Generated_Source\PSoC4/UpDown.c ****     /* Force capture by reading Accumulator */
 360:.\Generated_Source\PSoC4/UpDown.c ****     /* Must first do a software capture to be able to read the counter */
 361:.\Generated_Source\PSoC4/UpDown.c ****     /* It is up to the user code to make sure there isn't already captured data in the FIFO */
 362:.\Generated_Source\PSoC4/UpDown.c ****     #if(UpDown_UsingFixedFunction)
 363:.\Generated_Source\PSoC4/UpDown.c **** 		(void)CY_GET_REG16(UpDown_COUNTER_LSB_PTR);
 364:.\Generated_Source\PSoC4/UpDown.c **** 	#else
 365:.\Generated_Source\PSoC4/UpDown.c **** 		(void)CY_GET_REG8(UpDown_COUNTER_LSB_PTR_8BIT);
 453              		.loc 1 365 0
 454 0004 034B     		ldr	r3, .L33
 455 0006 1B78     		ldrb	r3, [r3]
 366:.\Generated_Source\PSoC4/UpDown.c **** 	#endif/* (UpDown_UsingFixedFunction) */
 367:.\Generated_Source\PSoC4/UpDown.c ****     
 368:.\Generated_Source\PSoC4/UpDown.c ****     /* Read the data from the FIFO (or capture register for Fixed Function)*/
 369:.\Generated_Source\PSoC4/UpDown.c ****     #if(UpDown_UsingFixedFunction)
 370:.\Generated_Source\PSoC4/UpDown.c ****         return ((uint32)CY_GET_REG16(UpDown_STATICCOUNT_LSB_PTR));
 371:.\Generated_Source\PSoC4/UpDown.c ****     #else
 372:.\Generated_Source\PSoC4/UpDown.c ****         return (CY_GET_REG32(UpDown_STATICCOUNT_LSB_PTR));
 456              		.loc 1 372 0
 457 0008 034B     		ldr	r3, .L33+4
 458 000a 1B68     		ldr	r3, [r3]
 373:.\Generated_Source\PSoC4/UpDown.c ****     #endif /* (UpDown_UsingFixedFunction) */
 374:.\Generated_Source\PSoC4/UpDown.c **** }
 459              		.loc 1 374 0
 460 000c 181C     		mov	r0, r3
 461 000e BD46     		mov	sp, r7
 462              		@ sp needed for prologue
 463 0010 80BD     		pop	{r7, pc}
 464              	.L34:
 465 0012 C046     		.align	2
 466              	.L33:
 467 0014 00000F40 		.word	1074724864
 468 0018 00210F40 		.word	1074733312
 469              		.cfi_endproc
 470              	.LFE9:
 471              		.size	UpDown_ReadCounter, .-UpDown_ReadCounter
 472              		.section	.text.UpDown_ReadCapture,"ax",%progbits
 473              		.align	2
 474              		.global	UpDown_ReadCapture
 475              		.code	16
 476              		.thumb_func
 477              		.type	UpDown_ReadCapture, %function
 478              	UpDown_ReadCapture:
 479              	.LFB10:
 375:.\Generated_Source\PSoC4/UpDown.c **** 
 376:.\Generated_Source\PSoC4/UpDown.c **** 
ARM GAS  C:\DOCUME~1\Chuck\LOCALS~1\Temp\ccTorCNV.s 			page 16


 377:.\Generated_Source\PSoC4/UpDown.c **** /*******************************************************************************
 378:.\Generated_Source\PSoC4/UpDown.c **** * Function Name: UpDown_ReadCapture
 379:.\Generated_Source\PSoC4/UpDown.c **** ********************************************************************************
 380:.\Generated_Source\PSoC4/UpDown.c **** * Summary:
 381:.\Generated_Source\PSoC4/UpDown.c **** *   This function returns the last value captured.
 382:.\Generated_Source\PSoC4/UpDown.c **** *
 383:.\Generated_Source\PSoC4/UpDown.c **** * Parameters:  
 384:.\Generated_Source\PSoC4/UpDown.c **** *  void
 385:.\Generated_Source\PSoC4/UpDown.c **** *
 386:.\Generated_Source\PSoC4/UpDown.c **** * Return: 
 387:.\Generated_Source\PSoC4/UpDown.c **** *  (uint32) Present Capture value.
 388:.\Generated_Source\PSoC4/UpDown.c **** *
 389:.\Generated_Source\PSoC4/UpDown.c **** *******************************************************************************/
 390:.\Generated_Source\PSoC4/UpDown.c **** uint32 UpDown_ReadCapture(void) 
 391:.\Generated_Source\PSoC4/UpDown.c **** {
 480              		.loc 1 391 0
 481              		.cfi_startproc
 482 0000 80B5     		push	{r7, lr}
 483              	.LCFI24:
 484              		.cfi_def_cfa_offset 8
 485              		.cfi_offset 7, -8
 486              		.cfi_offset 14, -4
 487 0002 00AF     		add	r7, sp, #0
 488              	.LCFI25:
 489              		.cfi_def_cfa_register 7
 392:.\Generated_Source\PSoC4/UpDown.c ****     #if(UpDown_UsingFixedFunction)
 393:.\Generated_Source\PSoC4/UpDown.c ****         return ((uint32)CY_GET_REG16(UpDown_STATICCOUNT_LSB_PTR));
 394:.\Generated_Source\PSoC4/UpDown.c ****     #else
 395:.\Generated_Source\PSoC4/UpDown.c ****         return (CY_GET_REG32(UpDown_STATICCOUNT_LSB_PTR));
 490              		.loc 1 395 0
 491 0004 024B     		ldr	r3, .L37
 492 0006 1B68     		ldr	r3, [r3]
 396:.\Generated_Source\PSoC4/UpDown.c ****     #endif /* (UpDown_UsingFixedFunction) */
 397:.\Generated_Source\PSoC4/UpDown.c **** }
 493              		.loc 1 397 0
 494 0008 181C     		mov	r0, r3
 495 000a BD46     		mov	sp, r7
 496              		@ sp needed for prologue
 497 000c 80BD     		pop	{r7, pc}
 498              	.L38:
 499 000e C046     		.align	2
 500              	.L37:
 501 0010 00210F40 		.word	1074733312
 502              		.cfi_endproc
 503              	.LFE10:
 504              		.size	UpDown_ReadCapture, .-UpDown_ReadCapture
 505              		.section	.text.UpDown_WritePeriod,"ax",%progbits
 506              		.align	2
 507              		.global	UpDown_WritePeriod
 508              		.code	16
 509              		.thumb_func
 510              		.type	UpDown_WritePeriod, %function
 511              	UpDown_WritePeriod:
 512              	.LFB11:
 398:.\Generated_Source\PSoC4/UpDown.c **** 
 399:.\Generated_Source\PSoC4/UpDown.c **** 
 400:.\Generated_Source\PSoC4/UpDown.c **** /*******************************************************************************
ARM GAS  C:\DOCUME~1\Chuck\LOCALS~1\Temp\ccTorCNV.s 			page 17


 401:.\Generated_Source\PSoC4/UpDown.c **** * Function Name: UpDown_WritePeriod
 402:.\Generated_Source\PSoC4/UpDown.c **** ********************************************************************************
 403:.\Generated_Source\PSoC4/UpDown.c **** * Summary:
 404:.\Generated_Source\PSoC4/UpDown.c **** * Changes the period of the counter.  The new period 
 405:.\Generated_Source\PSoC4/UpDown.c **** * will be loaded the next time terminal count is detected.
 406:.\Generated_Source\PSoC4/UpDown.c **** *
 407:.\Generated_Source\PSoC4/UpDown.c **** * Parameters:  
 408:.\Generated_Source\PSoC4/UpDown.c **** *  period: (uint32) A value of 0 will result in
 409:.\Generated_Source\PSoC4/UpDown.c **** *         the counter remaining at zero.  
 410:.\Generated_Source\PSoC4/UpDown.c **** *
 411:.\Generated_Source\PSoC4/UpDown.c **** * Return: 
 412:.\Generated_Source\PSoC4/UpDown.c **** *  void
 413:.\Generated_Source\PSoC4/UpDown.c **** *
 414:.\Generated_Source\PSoC4/UpDown.c **** *******************************************************************************/
 415:.\Generated_Source\PSoC4/UpDown.c **** void UpDown_WritePeriod(uint32 period) 
 416:.\Generated_Source\PSoC4/UpDown.c **** {
 513              		.loc 1 416 0
 514              		.cfi_startproc
 515 0000 80B5     		push	{r7, lr}
 516              	.LCFI26:
 517              		.cfi_def_cfa_offset 8
 518              		.cfi_offset 7, -8
 519              		.cfi_offset 14, -4
 520 0002 82B0     		sub	sp, sp, #8
 521              	.LCFI27:
 522              		.cfi_def_cfa_offset 16
 523 0004 00AF     		add	r7, sp, #0
 524              	.LCFI28:
 525              		.cfi_def_cfa_register 7
 526 0006 7860     		str	r0, [r7, #4]
 417:.\Generated_Source\PSoC4/UpDown.c ****     #if(UpDown_UsingFixedFunction)
 418:.\Generated_Source\PSoC4/UpDown.c ****         CY_SET_REG16(UpDown_PERIOD_LSB_PTR,(uint16)period);
 419:.\Generated_Source\PSoC4/UpDown.c ****     #else
 420:.\Generated_Source\PSoC4/UpDown.c ****         CY_SET_REG32(UpDown_PERIOD_LSB_PTR, period);
 527              		.loc 1 420 0
 528 0008 024B     		ldr	r3, .L40
 529 000a 7A68     		ldr	r2, [r7, #4]
 530 000c 1A60     		str	r2, [r3]
 421:.\Generated_Source\PSoC4/UpDown.c ****     #endif /* (UpDown_UsingFixedFunction) */
 422:.\Generated_Source\PSoC4/UpDown.c **** }
 531              		.loc 1 422 0
 532 000e BD46     		mov	sp, r7
 533 0010 02B0     		add	sp, sp, #8
 534              		@ sp needed for prologue
 535 0012 80BD     		pop	{r7, pc}
 536              	.L41:
 537              		.align	2
 538              	.L40:
 539 0014 80200F40 		.word	1074733184
 540              		.cfi_endproc
 541              	.LFE11:
 542              		.size	UpDown_WritePeriod, .-UpDown_WritePeriod
 543              		.section	.text.UpDown_ReadPeriod,"ax",%progbits
 544              		.align	2
 545              		.global	UpDown_ReadPeriod
 546              		.code	16
 547              		.thumb_func
ARM GAS  C:\DOCUME~1\Chuck\LOCALS~1\Temp\ccTorCNV.s 			page 18


 548              		.type	UpDown_ReadPeriod, %function
 549              	UpDown_ReadPeriod:
 550              	.LFB12:
 423:.\Generated_Source\PSoC4/UpDown.c **** 
 424:.\Generated_Source\PSoC4/UpDown.c **** 
 425:.\Generated_Source\PSoC4/UpDown.c **** /*******************************************************************************
 426:.\Generated_Source\PSoC4/UpDown.c **** * Function Name: UpDown_ReadPeriod
 427:.\Generated_Source\PSoC4/UpDown.c **** ********************************************************************************
 428:.\Generated_Source\PSoC4/UpDown.c **** * Summary:
 429:.\Generated_Source\PSoC4/UpDown.c **** * Reads the current period value without affecting counter operation.
 430:.\Generated_Source\PSoC4/UpDown.c **** *
 431:.\Generated_Source\PSoC4/UpDown.c **** * Parameters:  
 432:.\Generated_Source\PSoC4/UpDown.c **** *  void:  
 433:.\Generated_Source\PSoC4/UpDown.c **** *
 434:.\Generated_Source\PSoC4/UpDown.c **** * Return: 
 435:.\Generated_Source\PSoC4/UpDown.c **** *  (uint32) Present period value.
 436:.\Generated_Source\PSoC4/UpDown.c **** *
 437:.\Generated_Source\PSoC4/UpDown.c **** *******************************************************************************/
 438:.\Generated_Source\PSoC4/UpDown.c **** uint32 UpDown_ReadPeriod(void) 
 439:.\Generated_Source\PSoC4/UpDown.c **** {
 551              		.loc 1 439 0
 552              		.cfi_startproc
 553 0000 80B5     		push	{r7, lr}
 554              	.LCFI29:
 555              		.cfi_def_cfa_offset 8
 556              		.cfi_offset 7, -8
 557              		.cfi_offset 14, -4
 558 0002 00AF     		add	r7, sp, #0
 559              	.LCFI30:
 560              		.cfi_def_cfa_register 7
 440:.\Generated_Source\PSoC4/UpDown.c ****     #if(UpDown_UsingFixedFunction)
 441:.\Generated_Source\PSoC4/UpDown.c ****         return ((uint32)CY_GET_REG16(UpDown_PERIOD_LSB_PTR));
 442:.\Generated_Source\PSoC4/UpDown.c ****     #else
 443:.\Generated_Source\PSoC4/UpDown.c ****         return (CY_GET_REG32(UpDown_PERIOD_LSB_PTR));
 561              		.loc 1 443 0
 562 0004 024B     		ldr	r3, .L44
 563 0006 1B68     		ldr	r3, [r3]
 444:.\Generated_Source\PSoC4/UpDown.c ****     #endif /* (UpDown_UsingFixedFunction) */
 445:.\Generated_Source\PSoC4/UpDown.c **** }
 564              		.loc 1 445 0
 565 0008 181C     		mov	r0, r3
 566 000a BD46     		mov	sp, r7
 567              		@ sp needed for prologue
 568 000c 80BD     		pop	{r7, pc}
 569              	.L45:
 570 000e C046     		.align	2
 571              	.L44:
 572 0010 80200F40 		.word	1074733184
 573              		.cfi_endproc
 574              	.LFE12:
 575              		.size	UpDown_ReadPeriod, .-UpDown_ReadPeriod
 576              		.section	.text.UpDown_WriteCompare,"ax",%progbits
 577              		.align	2
 578              		.global	UpDown_WriteCompare
 579              		.code	16
 580              		.thumb_func
 581              		.type	UpDown_WriteCompare, %function
ARM GAS  C:\DOCUME~1\Chuck\LOCALS~1\Temp\ccTorCNV.s 			page 19


 582              	UpDown_WriteCompare:
 583              	.LFB13:
 446:.\Generated_Source\PSoC4/UpDown.c **** 
 447:.\Generated_Source\PSoC4/UpDown.c **** 
 448:.\Generated_Source\PSoC4/UpDown.c **** #if (!UpDown_UsingFixedFunction)
 449:.\Generated_Source\PSoC4/UpDown.c **** /*******************************************************************************
 450:.\Generated_Source\PSoC4/UpDown.c **** * Function Name: UpDown_WriteCompare
 451:.\Generated_Source\PSoC4/UpDown.c **** ********************************************************************************
 452:.\Generated_Source\PSoC4/UpDown.c **** * Summary:
 453:.\Generated_Source\PSoC4/UpDown.c **** * Changes the compare value.  The compare output will 
 454:.\Generated_Source\PSoC4/UpDown.c **** * reflect the new value on the next UDB clock.  The compare output will be 
 455:.\Generated_Source\PSoC4/UpDown.c **** * driven high when the present counter value compares true based on the 
 456:.\Generated_Source\PSoC4/UpDown.c **** * configured compare mode setting. 
 457:.\Generated_Source\PSoC4/UpDown.c **** *
 458:.\Generated_Source\PSoC4/UpDown.c **** * Parameters:  
 459:.\Generated_Source\PSoC4/UpDown.c **** *  Compare:  New compare value. 
 460:.\Generated_Source\PSoC4/UpDown.c **** *
 461:.\Generated_Source\PSoC4/UpDown.c **** * Return: 
 462:.\Generated_Source\PSoC4/UpDown.c **** *  void
 463:.\Generated_Source\PSoC4/UpDown.c **** *
 464:.\Generated_Source\PSoC4/UpDown.c **** *******************************************************************************/
 465:.\Generated_Source\PSoC4/UpDown.c **** void UpDown_WriteCompare(uint32 compare) \
 466:.\Generated_Source\PSoC4/UpDown.c ****                                    
 467:.\Generated_Source\PSoC4/UpDown.c **** {
 584              		.loc 1 467 0
 585              		.cfi_startproc
 586 0000 80B5     		push	{r7, lr}
 587              	.LCFI31:
 588              		.cfi_def_cfa_offset 8
 589              		.cfi_offset 7, -8
 590              		.cfi_offset 14, -4
 591 0002 82B0     		sub	sp, sp, #8
 592              	.LCFI32:
 593              		.cfi_def_cfa_offset 16
 594 0004 00AF     		add	r7, sp, #0
 595              	.LCFI33:
 596              		.cfi_def_cfa_register 7
 597 0006 7860     		str	r0, [r7, #4]
 468:.\Generated_Source\PSoC4/UpDown.c ****     #if(UpDown_UsingFixedFunction)
 469:.\Generated_Source\PSoC4/UpDown.c ****         CY_SET_REG16(UpDown_COMPARE_LSB_PTR, (uint16)compare);
 470:.\Generated_Source\PSoC4/UpDown.c ****     #else
 471:.\Generated_Source\PSoC4/UpDown.c ****         CY_SET_REG32(UpDown_COMPARE_LSB_PTR, compare);
 598              		.loc 1 471 0
 599 0008 024B     		ldr	r3, .L47
 600 000a 7A68     		ldr	r2, [r7, #4]
 601 000c 1A60     		str	r2, [r3]
 472:.\Generated_Source\PSoC4/UpDown.c ****     #endif /* (UpDown_UsingFixedFunction) */
 473:.\Generated_Source\PSoC4/UpDown.c **** }
 602              		.loc 1 473 0
 603 000e BD46     		mov	sp, r7
 604 0010 02B0     		add	sp, sp, #8
 605              		@ sp needed for prologue
 606 0012 80BD     		pop	{r7, pc}
 607              	.L48:
 608              		.align	2
 609              	.L47:
 610 0014 C0200F40 		.word	1074733248
ARM GAS  C:\DOCUME~1\Chuck\LOCALS~1\Temp\ccTorCNV.s 			page 20


 611              		.cfi_endproc
 612              	.LFE13:
 613              		.size	UpDown_WriteCompare, .-UpDown_WriteCompare
 614              		.section	.text.UpDown_ReadCompare,"ax",%progbits
 615              		.align	2
 616              		.global	UpDown_ReadCompare
 617              		.code	16
 618              		.thumb_func
 619              		.type	UpDown_ReadCompare, %function
 620              	UpDown_ReadCompare:
 621              	.LFB14:
 474:.\Generated_Source\PSoC4/UpDown.c **** 
 475:.\Generated_Source\PSoC4/UpDown.c **** 
 476:.\Generated_Source\PSoC4/UpDown.c **** /*******************************************************************************
 477:.\Generated_Source\PSoC4/UpDown.c **** * Function Name: UpDown_ReadCompare
 478:.\Generated_Source\PSoC4/UpDown.c **** ********************************************************************************
 479:.\Generated_Source\PSoC4/UpDown.c **** * Summary:
 480:.\Generated_Source\PSoC4/UpDown.c **** * Returns the compare value.
 481:.\Generated_Source\PSoC4/UpDown.c **** *
 482:.\Generated_Source\PSoC4/UpDown.c **** * Parameters:  
 483:.\Generated_Source\PSoC4/UpDown.c **** *  void:
 484:.\Generated_Source\PSoC4/UpDown.c **** *
 485:.\Generated_Source\PSoC4/UpDown.c **** * Return: 
 486:.\Generated_Source\PSoC4/UpDown.c **** *  (uint32) Present compare value.
 487:.\Generated_Source\PSoC4/UpDown.c **** *
 488:.\Generated_Source\PSoC4/UpDown.c **** *******************************************************************************/
 489:.\Generated_Source\PSoC4/UpDown.c **** uint32 UpDown_ReadCompare(void) 
 490:.\Generated_Source\PSoC4/UpDown.c **** {
 622              		.loc 1 490 0
 623              		.cfi_startproc
 624 0000 80B5     		push	{r7, lr}
 625              	.LCFI34:
 626              		.cfi_def_cfa_offset 8
 627              		.cfi_offset 7, -8
 628              		.cfi_offset 14, -4
 629 0002 00AF     		add	r7, sp, #0
 630              	.LCFI35:
 631              		.cfi_def_cfa_register 7
 491:.\Generated_Source\PSoC4/UpDown.c ****     return (CY_GET_REG32(UpDown_COMPARE_LSB_PTR));
 632              		.loc 1 491 0
 633 0004 024B     		ldr	r3, .L51
 634 0006 1B68     		ldr	r3, [r3]
 492:.\Generated_Source\PSoC4/UpDown.c **** }
 635              		.loc 1 492 0
 636 0008 181C     		mov	r0, r3
 637 000a BD46     		mov	sp, r7
 638              		@ sp needed for prologue
 639 000c 80BD     		pop	{r7, pc}
 640              	.L52:
 641 000e C046     		.align	2
 642              	.L51:
 643 0010 C0200F40 		.word	1074733248
 644              		.cfi_endproc
 645              	.LFE14:
 646              		.size	UpDown_ReadCompare, .-UpDown_ReadCompare
 647              		.section	.text.UpDown_ClearFIFO,"ax",%progbits
 648              		.align	2
ARM GAS  C:\DOCUME~1\Chuck\LOCALS~1\Temp\ccTorCNV.s 			page 21


 649              		.global	UpDown_ClearFIFO
 650              		.code	16
 651              		.thumb_func
 652              		.type	UpDown_ClearFIFO, %function
 653              	UpDown_ClearFIFO:
 654              	.LFB15:
 493:.\Generated_Source\PSoC4/UpDown.c **** 
 494:.\Generated_Source\PSoC4/UpDown.c **** 
 495:.\Generated_Source\PSoC4/UpDown.c **** #if (UpDown_COMPARE_MODE_SOFTWARE)
 496:.\Generated_Source\PSoC4/UpDown.c **** /*******************************************************************************
 497:.\Generated_Source\PSoC4/UpDown.c **** * Function Name: UpDown_SetCompareMode
 498:.\Generated_Source\PSoC4/UpDown.c **** ********************************************************************************
 499:.\Generated_Source\PSoC4/UpDown.c **** * Summary:
 500:.\Generated_Source\PSoC4/UpDown.c **** *  Sets the software controlled Compare Mode.
 501:.\Generated_Source\PSoC4/UpDown.c **** *
 502:.\Generated_Source\PSoC4/UpDown.c **** * Parameters:
 503:.\Generated_Source\PSoC4/UpDown.c **** *  compareMode:  Compare Mode Enumerated Type.
 504:.\Generated_Source\PSoC4/UpDown.c **** *
 505:.\Generated_Source\PSoC4/UpDown.c **** * Return:
 506:.\Generated_Source\PSoC4/UpDown.c **** *  void
 507:.\Generated_Source\PSoC4/UpDown.c **** *
 508:.\Generated_Source\PSoC4/UpDown.c **** *******************************************************************************/
 509:.\Generated_Source\PSoC4/UpDown.c **** void UpDown_SetCompareMode(uint8 compareMode) 
 510:.\Generated_Source\PSoC4/UpDown.c **** {
 511:.\Generated_Source\PSoC4/UpDown.c ****     /* Clear the compare mode bits in the control register */
 512:.\Generated_Source\PSoC4/UpDown.c ****     UpDown_CONTROL &= ((uint8)(~UpDown_CTRL_CMPMODE_MASK));
 513:.\Generated_Source\PSoC4/UpDown.c ****     
 514:.\Generated_Source\PSoC4/UpDown.c ****     /* Write the new setting */
 515:.\Generated_Source\PSoC4/UpDown.c ****     UpDown_CONTROL |= compareMode;
 516:.\Generated_Source\PSoC4/UpDown.c **** }
 517:.\Generated_Source\PSoC4/UpDown.c **** #endif  /* (UpDown_COMPARE_MODE_SOFTWARE) */
 518:.\Generated_Source\PSoC4/UpDown.c **** 
 519:.\Generated_Source\PSoC4/UpDown.c **** 
 520:.\Generated_Source\PSoC4/UpDown.c **** #if (UpDown_CAPTURE_MODE_SOFTWARE)
 521:.\Generated_Source\PSoC4/UpDown.c **** /*******************************************************************************
 522:.\Generated_Source\PSoC4/UpDown.c **** * Function Name: UpDown_SetCaptureMode
 523:.\Generated_Source\PSoC4/UpDown.c **** ********************************************************************************
 524:.\Generated_Source\PSoC4/UpDown.c **** * Summary:
 525:.\Generated_Source\PSoC4/UpDown.c **** *  Sets the software controlled Capture Mode.
 526:.\Generated_Source\PSoC4/UpDown.c **** *
 527:.\Generated_Source\PSoC4/UpDown.c **** * Parameters:
 528:.\Generated_Source\PSoC4/UpDown.c **** *  captureMode:  Capture Mode Enumerated Type.
 529:.\Generated_Source\PSoC4/UpDown.c **** *
 530:.\Generated_Source\PSoC4/UpDown.c **** * Return:
 531:.\Generated_Source\PSoC4/UpDown.c **** *  void
 532:.\Generated_Source\PSoC4/UpDown.c **** *
 533:.\Generated_Source\PSoC4/UpDown.c **** *******************************************************************************/
 534:.\Generated_Source\PSoC4/UpDown.c **** void UpDown_SetCaptureMode(uint8 captureMode) 
 535:.\Generated_Source\PSoC4/UpDown.c **** {
 536:.\Generated_Source\PSoC4/UpDown.c ****     /* Clear the capture mode bits in the control register */
 537:.\Generated_Source\PSoC4/UpDown.c ****     UpDown_CONTROL &= ((uint8)(~UpDown_CTRL_CAPMODE_MASK));
 538:.\Generated_Source\PSoC4/UpDown.c ****     
 539:.\Generated_Source\PSoC4/UpDown.c ****     /* Write the new setting */
 540:.\Generated_Source\PSoC4/UpDown.c ****     UpDown_CONTROL |= ((uint8)((uint8)captureMode << UpDown_CTRL_CAPMODE0_SHIFT));
 541:.\Generated_Source\PSoC4/UpDown.c **** }
 542:.\Generated_Source\PSoC4/UpDown.c **** #endif  /* (UpDown_CAPTURE_MODE_SOFTWARE) */
 543:.\Generated_Source\PSoC4/UpDown.c **** 
ARM GAS  C:\DOCUME~1\Chuck\LOCALS~1\Temp\ccTorCNV.s 			page 22


 544:.\Generated_Source\PSoC4/UpDown.c **** 
 545:.\Generated_Source\PSoC4/UpDown.c **** /*******************************************************************************
 546:.\Generated_Source\PSoC4/UpDown.c **** * Function Name: UpDown_ClearFIFO
 547:.\Generated_Source\PSoC4/UpDown.c **** ********************************************************************************
 548:.\Generated_Source\PSoC4/UpDown.c **** * Summary:
 549:.\Generated_Source\PSoC4/UpDown.c **** *   This function clears all capture data from the capture FIFO
 550:.\Generated_Source\PSoC4/UpDown.c **** *
 551:.\Generated_Source\PSoC4/UpDown.c **** * Parameters:  
 552:.\Generated_Source\PSoC4/UpDown.c **** *  void:
 553:.\Generated_Source\PSoC4/UpDown.c **** *
 554:.\Generated_Source\PSoC4/UpDown.c **** * Return: 
 555:.\Generated_Source\PSoC4/UpDown.c **** *  None
 556:.\Generated_Source\PSoC4/UpDown.c **** *
 557:.\Generated_Source\PSoC4/UpDown.c **** *******************************************************************************/
 558:.\Generated_Source\PSoC4/UpDown.c **** void UpDown_ClearFIFO(void) 
 559:.\Generated_Source\PSoC4/UpDown.c **** {
 655              		.loc 1 559 0
 656              		.cfi_startproc
 657 0000 80B5     		push	{r7, lr}
 658              	.LCFI36:
 659              		.cfi_def_cfa_offset 8
 660              		.cfi_offset 7, -8
 661              		.cfi_offset 14, -4
 662 0002 00AF     		add	r7, sp, #0
 663              	.LCFI37:
 664              		.cfi_def_cfa_register 7
 560:.\Generated_Source\PSoC4/UpDown.c **** 
 561:.\Generated_Source\PSoC4/UpDown.c ****     while(0u != (UpDown_ReadStatusRegister() & UpDown_STATUS_FIFONEMP))
 665              		.loc 1 561 0
 666 0004 01E0     		b	.L54
 667              	.L55:
 562:.\Generated_Source\PSoC4/UpDown.c ****     {
 563:.\Generated_Source\PSoC4/UpDown.c ****         (void)UpDown_ReadCapture();
 668              		.loc 1 563 0
 669 0006 FFF7FEFF 		bl	UpDown_ReadCapture
 670              	.L54:
 561:.\Generated_Source\PSoC4/UpDown.c ****     while(0u != (UpDown_ReadStatusRegister() & UpDown_STATUS_FIFONEMP))
 671              		.loc 1 561 0 discriminator 1
 672 000a FFF7FEFF 		bl	UpDown_ReadStatusRegister
 673 000e 031C     		mov	r3, r0
 674 0010 1A1C     		mov	r2, r3
 675 0012 4023     		mov	r3, #64
 676 0014 1340     		and	r3, r2
 677 0016 F6D1     		bne	.L55
 564:.\Generated_Source\PSoC4/UpDown.c ****     }
 565:.\Generated_Source\PSoC4/UpDown.c **** 
 566:.\Generated_Source\PSoC4/UpDown.c **** }
 678              		.loc 1 566 0
 679 0018 BD46     		mov	sp, r7
 680              		@ sp needed for prologue
 681 001a 80BD     		pop	{r7, pc}
 682              		.cfi_endproc
 683              	.LFE15:
 684              		.size	UpDown_ClearFIFO, .-UpDown_ClearFIFO
 685              		.text
 686              	.Letext0:
 687              		.file 2 ".\\Generated_Source\\PSoC4\\cytypes.h"
ARM GAS  C:\DOCUME~1\Chuck\LOCALS~1\Temp\ccTorCNV.s 			page 23

